ARM GAS  /tmp/ccZSCmtR.s 			page 1


   1              		.syntax unified
   2              		.cpu cortex-m4
   3              		.eabi_attribute 27, 3
   4              		.eabi_attribute 28, 1
   5              		.fpu fpv4-sp-d16
   6              		.eabi_attribute 20, 1
   7              		.eabi_attribute 21, 1
   8              		.eabi_attribute 23, 3
   9              		.eabi_attribute 24, 1
  10              		.eabi_attribute 25, 1
  11              		.eabi_attribute 26, 1
  12              		.eabi_attribute 30, 2
  13              		.eabi_attribute 34, 1
  14              		.eabi_attribute 18, 4
  15              		.thumb
  16              		.file	"app.c"
  17              		.text
  18              	.Ltext0:
  19              		.cfi_sections	.debug_frame
  20              		.section	.text.app_get_configuration,"ax",%progbits
  21              		.align	2
  22              		.p2align 4,,15
  23              		.global	app_get_configuration
  24              		.thumb
  25              		.thumb_func
  26              		.type	app_get_configuration, %function
  27              	app_get_configuration:
  28              	.LFB256:
  29              		.file 1 "applications/app.c"
  30              		.loc 1 31 0
  31              		.cfi_startproc
  32              		@ args = 0, pretend = 0, frame = 0
  33              		@ frame_needed = 0, uses_anonymous_args = 0
  34              		@ link register save eliminated.
  35              		.loc 1 33 0
  36 0000 0048     		ldr	r0, .L2
  37 0002 7047     		bx	lr
  38              	.L3:
  39              		.align	2
  40              	.L2:
  41 0004 00000000 		.word	.LANCHOR0
  42              		.cfi_endproc
  43              	.LFE256:
  44              		.size	app_get_configuration, .-app_get_configuration
  45 0008 AFF30080 		.section	.text.app_set_configuration,"ax",%progbits
  45      AFF30080 
  46              		.align	2
  47              		.p2align 4,,15
  48              		.global	app_set_configuration
  49              		.thumb
  50              		.thumb_func
  51              		.type	app_set_configuration, %function
  52              	app_set_configuration:
  53              	.LFB257:
  54              		.loc 1 41 0
  55              		.cfi_startproc
  56              		@ args = 0, pretend = 0, frame = 0
ARM GAS  /tmp/ccZSCmtR.s 			page 2


  57              		@ frame_needed = 0, uses_anonymous_args = 0
  58              	.LVL0:
  59 0000 70B5     		push	{r4, r5, r6, lr}
  60              		.cfi_def_cfa_offset 16
  61              		.cfi_offset 4, -16
  62              		.cfi_offset 5, -12
  63              		.cfi_offset 6, -8
  64              		.cfi_offset 14, -4
  65              		.loc 1 41 0
  66 0002 0546     		mov	r5, r0
  67              		.loc 1 49 0
  68 0004 2B4E     		ldr	r6, .L17
  69              		.loc 1 42 0
  70 0006 2C48     		ldr	r0, .L17+4
  71              	.LVL1:
  72 0008 2946     		mov	r1, r5
  73 000a C822     		movs	r2, #200
  74 000c FFF7FEFF 		bl	memcpy
  75              	.LVL2:
  76              		.loc 1 44 0
  77 0010 FFF7FEFF 		bl	app_ppm_stop
  78              	.LVL3:
  79              		.loc 1 45 0
  80 0014 FFF7FEFF 		bl	app_adc_stop
  81              	.LVL4:
  82              		.loc 1 46 0
  83 0018 FFF7FEFF 		bl	app_uartcomm_stop
  84              	.LVL5:
  85              		.loc 1 47 0
  86 001c FFF7FEFF 		bl	app_nunchuk_stop
  87              	.LVL6:
  88              		.loc 1 49 0
  89 0020 3378     		ldrb	r3, [r6]	@ zero_extendqisi2
  90 0022 0BB3     		cbz	r3, .L16
  91              	.L5:
  92              		.loc 1 61 0
  93 0024 244C     		ldr	r4, .L17+4
  94              		.loc 1 54 0
  95 0026 287D     		ldrb	r0, [r5, #20]	@ zero_extendqisi2
  96 0028 FFF7FEFF 		bl	comm_can_set_baud
  97              	.LVL7:
  98              		.loc 1 61 0
  99 002c 637D     		ldrb	r3, [r4, #21]	@ zero_extendqisi2
 100 002e 013B     		subs	r3, r3, #1
 101 0030 062B     		cmp	r3, #6
 102 0032 07D8     		bhi	.L6
 103 0034 DFE803F0 		tbb	[pc, r3]
 104              	.L8:
 105 0038 04       		.byte	(.L7-.L8)/2
 106 0039 23       		.byte	(.L9-.L8)/2
 107 003a 27       		.byte	(.L10-.L8)/2
 108 003b 2C       		.byte	(.L11-.L8)/2
 109 003c 33       		.byte	(.L12-.L8)/2
 110 003d 3B       		.byte	(.L13-.L8)/2
 111 003e 1B       		.byte	(.L14-.L8)/2
 112 003f 00       		.p2align 1
 113              	.L7:
ARM GAS  /tmp/ccZSCmtR.s 			page 3


 114              		.loc 1 63 0
 115 0040 FFF7FEFF 		bl	app_ppm_start
 116              	.LVL8:
 117              	.L6:
 118              		.loc 1 109 0
 119 0044 1D48     		ldr	r0, .L17+8
 120 0046 FFF7FEFF 		bl	app_ppm_configure
 121              	.LVL9:
 122              		.loc 1 110 0
 123 004a 1D48     		ldr	r0, .L17+12
 124 004c FFF7FEFF 		bl	app_adc_configure
 125              	.LVL10:
 126              		.loc 1 111 0
 127 0050 D4F89400 		ldr	r0, [r4, #148]
 128 0054 FFF7FEFF 		bl	app_uartcomm_configure
 129              	.LVL11:
 130              		.loc 1 112 0
 131 0058 1A48     		ldr	r0, .L17+16
 132 005a FFF7FEFF 		bl	app_nunchuk_configure
 133              	.LVL12:
 134              		.loc 1 118 0
 135 005e 1A48     		ldr	r0, .L17+20
 136              		.loc 1 119 0
 137 0060 BDE87040 		pop	{r4, r5, r6, lr}
 138              	.LVL13:
 139              		.loc 1 118 0
 140 0064 FFF7FEBF 		b	rfhelp_update_conf
 141              	.LVL14:
 142              	.L16:
 143              		.loc 1 50 0
 144 0068 FFF7FEFF 		bl	nrf_driver_stop
 145              	.LVL15:
 146 006c DAE7     		b	.L5
 147              	.L14:
 148              		.loc 1 92 0
 149 006e 3378     		ldrb	r3, [r6]	@ zero_extendqisi2
 150 0070 002B     		cmp	r3, #0
 151 0072 E7D1     		bne	.L6
 152              		.loc 1 93 0
 153 0074 FFF7FEFF 		bl	nrf_driver_init
 154              	.LVL16:
 155              		.loc 1 94 0
 156 0078 FFF7FEFF 		bl	rfhelp_restart
 157              	.LVL17:
 158 007c E2E7     		b	.L6
 159              	.L9:
 160              		.loc 1 67 0
 161 007e 0120     		movs	r0, #1
 162 0080 FFF7FEFF 		bl	app_adc_start
 163              	.LVL18:
 164              		.loc 1 68 0
 165 0084 DEE7     		b	.L6
 166              	.L10:
 167              		.loc 1 71 0
 168 0086 FFF7FEFF 		bl	hw_stop_i2c
 169              	.LVL19:
 170              		.loc 1 72 0
ARM GAS  /tmp/ccZSCmtR.s 			page 4


 171 008a FFF7FEFF 		bl	app_uartcomm_start
 172              	.LVL20:
 173              		.loc 1 73 0
 174 008e D9E7     		b	.L6
 175              	.L11:
 176              		.loc 1 76 0
 177 0090 FFF7FEFF 		bl	hw_stop_i2c
 178              	.LVL21:
 179              		.loc 1 77 0
 180 0094 FFF7FEFF 		bl	app_ppm_start
 181              	.LVL22:
 182              		.loc 1 78 0
 183 0098 FFF7FEFF 		bl	app_uartcomm_start
 184              	.LVL23:
 185              		.loc 1 79 0
 186 009c D2E7     		b	.L6
 187              	.L12:
 188              		.loc 1 82 0
 189 009e FFF7FEFF 		bl	hw_stop_i2c
 190              	.LVL24:
 191              		.loc 1 83 0
 192 00a2 0020     		movs	r0, #0
 193 00a4 FFF7FEFF 		bl	app_adc_start
 194              	.LVL25:
 195              		.loc 1 84 0
 196 00a8 FFF7FEFF 		bl	app_uartcomm_start
 197              	.LVL26:
 198              		.loc 1 85 0
 199 00ac CAE7     		b	.L6
 200              	.L13:
 201              		.loc 1 88 0
 202 00ae FFF7FEFF 		bl	app_nunchuk_start
 203              	.LVL27:
 204              		.loc 1 89 0
 205 00b2 C7E7     		b	.L6
 206              	.L18:
 207              		.align	2
 208              	.L17:
 209 00b4 00000000 		.word	conf_general_permanent_nrf_found
 210 00b8 00000000 		.word	.LANCHOR0
 211 00bc 18000000 		.word	.LANCHOR0+24
 212 00c0 50000000 		.word	.LANCHOR0+80
 213 00c4 98000000 		.word	.LANCHOR0+152
 214 00c8 BC000000 		.word	.LANCHOR0+188
 215              		.cfi_endproc
 216              	.LFE257:
 217              		.size	app_set_configuration, .-app_set_configuration
 218 00cc AFF30080 		.section	.bss.appconf,"aw",%nobits
 219              		.align	2
 220              		.set	.LANCHOR0,. + 0
 221              		.type	appconf, %object
 222              		.size	appconf, 200
 223              	appconf:
 224 0000 00000000 		.space	200
 224      00000000 
 224      00000000 
 224      00000000 
ARM GAS  /tmp/ccZSCmtR.s 			page 5


 224      00000000 
 225              		.text
 226              	.Letext0:
 227              		.file 2 "/usr/include/newlib/machine/_default_types.h"
 228              		.file 3 "/usr/include/newlib/stdint.h"
 229              		.file 4 "/usr/lib/gcc/arm-none-eabi/4.8/include/stddef.h"
 230              		.file 5 "ChibiOS_3.0.2/os/rt/ports/ARMCMx/compilers/GCC/chtypes.h"
 231              		.file 6 "ChibiOS_3.0.2/os/rt/include/chsystypes.h"
 232              		.file 7 "ChibiOS_3.0.2/os/rt/include/chschd.h"
 233              		.file 8 "ChibiOS_3.0.2/os/rt/ports/ARMCMx/chcore.h"
 234              		.file 9 "ChibiOS_3.0.2/os/rt/ports/ARMCMx/chcore_v7m.h"
 235              		.file 10 "ChibiOS_3.0.2/os/rt/include/chtm.h"
 236              		.file 11 "ChibiOS_3.0.2/os/rt/include/chsem.h"
 237              		.file 12 "ChibiOS_3.0.2/os/rt/include/chmtx.h"
 238              		.file 13 "./datatypes.h"
 239              		.file 14 "ChibiOS_3.0.2/os/ext/CMSIS/include/core_cm4.h"
 240              		.file 15 "./conf_general.h"
 241              		.file 16 "applications/app.h"
 242              		.file 17 "./comm_can.h"
 243              		.file 18 "nrf/rfhelp.h"
 244              		.file 19 "nrf/nrf_driver.h"
 245              		.file 20 "hwconf/hw.h"
 246              		.section	.debug_info,"",%progbits
 247              	.Ldebug_info0:
 248 0000 4F100000 		.4byte	0x104f
 249 0004 0400     		.2byte	0x4
 250 0006 00000000 		.4byte	.Ldebug_abbrev0
 251 000a 04       		.byte	0x4
 252 000b 01       		.uleb128 0x1
 253 000c 61040000 		.4byte	.LASF256
 254 0010 01       		.byte	0x1
 255 0011 B50E0000 		.4byte	.LASF257
 256 0015 90080000 		.4byte	.LASF258
 257 0019 00000000 		.4byte	.Ldebug_ranges0+0
 258 001d 00000000 		.4byte	0
 259 0021 00000000 		.4byte	.Ldebug_line0
 260 0025 02       		.uleb128 0x2
 261 0026 01       		.byte	0x1
 262 0027 06       		.byte	0x6
 263 0028 FC0D0000 		.4byte	.LASF0
 264 002c 03       		.uleb128 0x3
 265 002d 3C0B0000 		.4byte	.LASF4
 266 0031 02       		.byte	0x2
 267 0032 1D       		.byte	0x1d
 268 0033 37000000 		.4byte	0x37
 269 0037 02       		.uleb128 0x2
 270 0038 01       		.byte	0x1
 271 0039 08       		.byte	0x8
 272 003a B80C0000 		.4byte	.LASF1
 273 003e 02       		.uleb128 0x2
 274 003f 02       		.byte	0x2
 275 0040 05       		.byte	0x5
 276 0041 480A0000 		.4byte	.LASF2
 277 0045 02       		.uleb128 0x2
 278 0046 02       		.byte	0x2
 279 0047 07       		.byte	0x7
 280 0048 82090000 		.4byte	.LASF3
ARM GAS  /tmp/ccZSCmtR.s 			page 6


 281 004c 03       		.uleb128 0x3
 282 004d 39010000 		.4byte	.LASF5
 283 0051 02       		.byte	0x2
 284 0052 3F       		.byte	0x3f
 285 0053 57000000 		.4byte	0x57
 286 0057 02       		.uleb128 0x2
 287 0058 04       		.byte	0x4
 288 0059 05       		.byte	0x5
 289 005a 810A0000 		.4byte	.LASF6
 290 005e 03       		.uleb128 0x3
 291 005f E40C0000 		.4byte	.LASF7
 292 0063 02       		.byte	0x2
 293 0064 41       		.byte	0x41
 294 0065 69000000 		.4byte	0x69
 295 0069 02       		.uleb128 0x2
 296 006a 04       		.byte	0x4
 297 006b 07       		.byte	0x7
 298 006c E50B0000 		.4byte	.LASF8
 299 0070 02       		.uleb128 0x2
 300 0071 08       		.byte	0x8
 301 0072 05       		.byte	0x5
 302 0073 E8060000 		.4byte	.LASF9
 303 0077 03       		.uleb128 0x3
 304 0078 E2050000 		.4byte	.LASF10
 305 007c 02       		.byte	0x2
 306 007d 5B       		.byte	0x5b
 307 007e 82000000 		.4byte	0x82
 308 0082 02       		.uleb128 0x2
 309 0083 08       		.byte	0x8
 310 0084 07       		.byte	0x7
 311 0085 95030000 		.4byte	.LASF11
 312 0089 04       		.uleb128 0x4
 313 008a 04       		.byte	0x4
 314 008b 05       		.byte	0x5
 315 008c 696E7400 		.ascii	"int\000"
 316 0090 02       		.uleb128 0x2
 317 0091 04       		.byte	0x4
 318 0092 07       		.byte	0x7
 319 0093 7F0B0000 		.4byte	.LASF12
 320 0097 03       		.uleb128 0x3
 321 0098 8E060000 		.4byte	.LASF13
 322 009c 03       		.byte	0x3
 323 009d 2A       		.byte	0x2a
 324 009e 2C000000 		.4byte	0x2c
 325 00a2 03       		.uleb128 0x3
 326 00a3 160C0000 		.4byte	.LASF14
 327 00a7 03       		.byte	0x3
 328 00a8 41       		.byte	0x41
 329 00a9 4C000000 		.4byte	0x4c
 330 00ad 03       		.uleb128 0x3
 331 00ae AB020000 		.4byte	.LASF15
 332 00b2 03       		.byte	0x3
 333 00b3 42       		.byte	0x42
 334 00b4 5E000000 		.4byte	0x5e
 335 00b8 03       		.uleb128 0x3
 336 00b9 080B0000 		.4byte	.LASF16
 337 00bd 03       		.byte	0x3
ARM GAS  /tmp/ccZSCmtR.s 			page 7


 338 00be 4E       		.byte	0x4e
 339 00bf 77000000 		.4byte	0x77
 340 00c3 03       		.uleb128 0x3
 341 00c4 81050000 		.4byte	.LASF17
 342 00c8 04       		.byte	0x4
 343 00c9 D4       		.byte	0xd4
 344 00ca 90000000 		.4byte	0x90
 345 00ce 05       		.uleb128 0x5
 346 00cf A2000000 		.4byte	0xa2
 347 00d3 03       		.uleb128 0x3
 348 00d4 D8090000 		.4byte	.LASF18
 349 00d8 05       		.byte	0x5
 350 00d9 45       		.byte	0x45
 351 00da AD000000 		.4byte	0xad
 352 00de 03       		.uleb128 0x3
 353 00df 56090000 		.4byte	.LASF19
 354 00e3 05       		.byte	0x5
 355 00e4 48       		.byte	0x48
 356 00e5 97000000 		.4byte	0x97
 357 00e9 03       		.uleb128 0x3
 358 00ea B0060000 		.4byte	.LASF20
 359 00ee 05       		.byte	0x5
 360 00ef 49       		.byte	0x49
 361 00f0 97000000 		.4byte	0x97
 362 00f4 03       		.uleb128 0x3
 363 00f5 DD0B0000 		.4byte	.LASF21
 364 00f9 05       		.byte	0x5
 365 00fa 4A       		.byte	0x4a
 366 00fb 97000000 		.4byte	0x97
 367 00ff 03       		.uleb128 0x3
 368 0100 1D090000 		.4byte	.LASF22
 369 0104 05       		.byte	0x5
 370 0105 4B       		.byte	0x4b
 371 0106 97000000 		.4byte	0x97
 372 010a 03       		.uleb128 0x3
 373 010b 7C030000 		.4byte	.LASF23
 374 010f 05       		.byte	0x5
 375 0110 4C       		.byte	0x4c
 376 0111 AD000000 		.4byte	0xad
 377 0115 03       		.uleb128 0x3
 378 0116 3B080000 		.4byte	.LASF24
 379 011a 05       		.byte	0x5
 380 011b 4D       		.byte	0x4d
 381 011c A2000000 		.4byte	0xa2
 382 0120 03       		.uleb128 0x3
 383 0121 EE020000 		.4byte	.LASF25
 384 0125 05       		.byte	0x5
 385 0126 4F       		.byte	0x4f
 386 0127 AD000000 		.4byte	0xad
 387 012b 03       		.uleb128 0x3
 388 012c EE030000 		.4byte	.LASF26
 389 0130 05       		.byte	0x5
 390 0131 51       		.byte	0x51
 391 0132 A2000000 		.4byte	0xa2
 392 0136 03       		.uleb128 0x3
 393 0137 B0000000 		.4byte	.LASF27
 394 013b 06       		.byte	0x6
ARM GAS  /tmp/ccZSCmtR.s 			page 8


 395 013c 33       		.byte	0x33
 396 013d AD000000 		.4byte	0xad
 397 0141 03       		.uleb128 0x3
 398 0142 58040000 		.4byte	.LASF28
 399 0146 06       		.byte	0x6
 400 0147 3F       		.byte	0x3f
 401 0148 4C010000 		.4byte	0x14c
 402 014c 06       		.uleb128 0x6
 403 014d 64070000 		.4byte	.LASF50
 404 0151 48       		.byte	0x48
 405 0152 07       		.byte	0x7
 406 0153 C2       		.byte	0xc2
 407 0154 51020000 		.4byte	0x251
 408 0158 07       		.uleb128 0x7
 409 0159 010B0000 		.4byte	.LASF29
 410 015d 07       		.byte	0x7
 411 015e C3       		.byte	0xc3
 412 015f 5C020000 		.4byte	0x25c
 413 0163 00       		.byte	0
 414 0164 07       		.uleb128 0x7
 415 0165 CD0B0000 		.4byte	.LASF30
 416 0169 07       		.byte	0x7
 417 016a C5       		.byte	0xc5
 418 016b 5C020000 		.4byte	0x25c
 419 016f 04       		.byte	0x4
 420 0170 07       		.uleb128 0x7
 421 0171 79000000 		.4byte	.LASF31
 422 0175 07       		.byte	0x7
 423 0176 C7       		.byte	0xc7
 424 0177 0A010000 		.4byte	0x10a
 425 017b 08       		.byte	0x8
 426 017c 07       		.uleb128 0x7
 427 017d 110B0000 		.4byte	.LASF32
 428 0181 07       		.byte	0x7
 429 0182 C8       		.byte	0xc8
 430 0183 8C040000 		.4byte	0x48c
 431 0187 0C       		.byte	0xc
 432 0188 07       		.uleb128 0x7
 433 0189 840F0000 		.4byte	.LASF33
 434 018d 07       		.byte	0x7
 435 018e CA       		.byte	0xca
 436 018f 5C020000 		.4byte	0x25c
 437 0193 10       		.byte	0x10
 438 0194 07       		.uleb128 0x7
 439 0195 F6060000 		.4byte	.LASF34
 440 0199 07       		.byte	0x7
 441 019a CB       		.byte	0xcb
 442 019b 5C020000 		.4byte	0x25c
 443 019f 14       		.byte	0x14
 444 01a0 07       		.uleb128 0x7
 445 01a1 35060000 		.4byte	.LASF35
 446 01a5 07       		.byte	0x7
 447 01a6 D2       		.byte	0xd2
 448 01a7 D1060000 		.4byte	0x6d1
 449 01ab 18       		.byte	0x18
 450 01ac 07       		.uleb128 0x7
 451 01ad FE060000 		.4byte	.LASF36
ARM GAS  /tmp/ccZSCmtR.s 			page 9


 452 01b1 07       		.byte	0x7
 453 01b2 DD       		.byte	0xdd
 454 01b3 E9000000 		.4byte	0xe9
 455 01b7 1C       		.byte	0x1c
 456 01b8 07       		.uleb128 0x7
 457 01b9 78080000 		.4byte	.LASF37
 458 01bd 07       		.byte	0x7
 459 01be E1       		.byte	0xe1
 460 01bf DE000000 		.4byte	0xde
 461 01c3 1D       		.byte	0x1d
 462 01c4 07       		.uleb128 0x7
 463 01c5 050D0000 		.4byte	.LASF38
 464 01c9 07       		.byte	0x7
 465 01ca E6       		.byte	0xe6
 466 01cb F4000000 		.4byte	0xf4
 467 01cf 1E       		.byte	0x1e
 468 01d0 07       		.uleb128 0x7
 469 01d1 430D0000 		.4byte	.LASF39
 470 01d5 07       		.byte	0x7
 471 01d6 EC       		.byte	0xec
 472 01d7 FF000000 		.4byte	0xff
 473 01db 1F       		.byte	0x1f
 474 01dc 07       		.uleb128 0x7
 475 01dd 5F000000 		.4byte	.LASF40
 476 01e1 07       		.byte	0x7
 477 01e2 F3       		.byte	0xf3
 478 01e3 E3060000 		.4byte	0x6e3
 479 01e7 20       		.byte	0x20
 480 01e8 08       		.uleb128 0x8
 481 01e9 705F7500 		.ascii	"p_u\000"
 482 01ed 07       		.byte	0x7
 483 01ee 3101     		.2byte	0x131
 484 01f0 0C060000 		.4byte	0x60c
 485 01f4 24       		.byte	0x24
 486 01f5 09       		.uleb128 0x9
 487 01f6 24010000 		.4byte	.LASF41
 488 01fa 07       		.byte	0x7
 489 01fb 3601     		.2byte	0x136
 490 01fd 62020000 		.4byte	0x262
 491 0201 28       		.byte	0x28
 492 0202 09       		.uleb128 0x9
 493 0203 E3000000 		.4byte	.LASF42
 494 0207 07       		.byte	0x7
 495 0208 3C01     		.2byte	0x13c
 496 020a 86020000 		.4byte	0x286
 497 020e 2C       		.byte	0x2c
 498 020f 09       		.uleb128 0x9
 499 0210 50090000 		.4byte	.LASF43
 500 0214 07       		.byte	0x7
 501 0215 4001     		.2byte	0x140
 502 0217 15010000 		.4byte	0x115
 503 021b 34       		.byte	0x34
 504 021c 09       		.uleb128 0x9
 505 021d 6E0A0000 		.4byte	.LASF44
 506 0221 07       		.byte	0x7
 507 0222 4601     		.2byte	0x146
 508 0224 20010000 		.4byte	0x120
ARM GAS  /tmp/ccZSCmtR.s 			page 10


 509 0228 38       		.byte	0x38
 510 0229 09       		.uleb128 0x9
 511 022a 51070000 		.4byte	.LASF45
 512 022e 07       		.byte	0x7
 513 022f 4D01     		.2byte	0x14d
 514 0231 CB060000 		.4byte	0x6cb
 515 0235 3C       		.byte	0x3c
 516 0236 09       		.uleb128 0x9
 517 0237 41080000 		.4byte	.LASF46
 518 023b 07       		.byte	0x7
 519 023c 5101     		.2byte	0x151
 520 023e 0A010000 		.4byte	0x10a
 521 0242 40       		.byte	0x40
 522 0243 09       		.uleb128 0x9
 523 0244 49070000 		.4byte	.LASF47
 524 0248 07       		.byte	0x7
 525 0249 5801     		.2byte	0x158
 526 024b 39030000 		.4byte	0x339
 527 024f 44       		.byte	0x44
 528 0250 00       		.byte	0
 529 0251 03       		.uleb128 0x3
 530 0252 B4090000 		.4byte	.LASF48
 531 0256 06       		.byte	0x6
 532 0257 44       		.byte	0x44
 533 0258 5C020000 		.4byte	0x25c
 534 025c 0A       		.uleb128 0xa
 535 025d 04       		.byte	0x4
 536 025e 41010000 		.4byte	0x141
 537 0262 03       		.uleb128 0x3
 538 0263 15010000 		.4byte	.LASF49
 539 0267 06       		.byte	0x6
 540 0268 49       		.byte	0x49
 541 0269 6D020000 		.4byte	0x26d
 542 026d 06       		.uleb128 0x6
 543 026e 00000000 		.4byte	.LASF51
 544 0272 04       		.byte	0x4
 545 0273 07       		.byte	0x7
 546 0274 B0       		.byte	0xb0
 547 0275 86020000 		.4byte	0x286
 548 0279 07       		.uleb128 0x7
 549 027a 010B0000 		.4byte	.LASF29
 550 027e 07       		.byte	0x7
 551 027f B1       		.byte	0xb1
 552 0280 5C020000 		.4byte	0x25c
 553 0284 00       		.byte	0
 554 0285 00       		.byte	0
 555 0286 03       		.uleb128 0x3
 556 0287 10000000 		.4byte	.LASF52
 557 028b 06       		.byte	0x6
 558 028c 50       		.byte	0x50
 559 028d 91020000 		.4byte	0x291
 560 0291 06       		.uleb128 0x6
 561 0292 BE070000 		.4byte	.LASF53
 562 0296 08       		.byte	0x8
 563 0297 07       		.byte	0x7
 564 0298 B7       		.byte	0xb7
 565 0299 B6020000 		.4byte	0x2b6
ARM GAS  /tmp/ccZSCmtR.s 			page 11


 566 029d 07       		.uleb128 0x7
 567 029e 010B0000 		.4byte	.LASF29
 568 02a2 07       		.byte	0x7
 569 02a3 B8       		.byte	0xb8
 570 02a4 5C020000 		.4byte	0x25c
 571 02a8 00       		.byte	0
 572 02a9 07       		.uleb128 0x7
 573 02aa CD0B0000 		.4byte	.LASF30
 574 02ae 07       		.byte	0x7
 575 02af B9       		.byte	0xb9
 576 02b0 5C020000 		.4byte	0x25c
 577 02b4 04       		.byte	0x4
 578 02b5 00       		.byte	0
 579 02b6 03       		.uleb128 0x3
 580 02b7 FF0B0000 		.4byte	.LASF54
 581 02bb 06       		.byte	0x6
 582 02bc 57       		.byte	0x57
 583 02bd C1020000 		.4byte	0x2c1
 584 02c1 0B       		.uleb128 0xb
 585 02c2 FC010000 		.4byte	.LASF55
 586 02c6 1C       		.byte	0x1c
 587 02c7 07       		.byte	0x7
 588 02c8 9001     		.2byte	0x190
 589 02ca 1D030000 		.4byte	0x31d
 590 02ce 09       		.uleb128 0x9
 591 02cf 1C080000 		.4byte	.LASF56
 592 02d3 07       		.byte	0x7
 593 02d4 9101     		.2byte	0x191
 594 02d6 86020000 		.4byte	0x286
 595 02da 00       		.byte	0
 596 02db 09       		.uleb128 0x9
 597 02dc FA020000 		.4byte	.LASF57
 598 02e0 07       		.byte	0x7
 599 02e1 9201     		.2byte	0x192
 600 02e3 0A010000 		.4byte	0x10a
 601 02e7 08       		.byte	0x8
 602 02e8 09       		.uleb128 0x9
 603 02e9 3C0E0000 		.4byte	.LASF58
 604 02ed 07       		.byte	0x7
 605 02ee 9401     		.2byte	0x194
 606 02f0 8C040000 		.4byte	0x48c
 607 02f4 0C       		.byte	0xc
 608 02f5 09       		.uleb128 0x9
 609 02f6 96060000 		.4byte	.LASF59
 610 02fa 07       		.byte	0x7
 611 02fb 9701     		.2byte	0x197
 612 02fd 5C020000 		.4byte	0x25c
 613 0301 10       		.byte	0x10
 614 0302 09       		.uleb128 0x9
 615 0303 27090000 		.4byte	.LASF60
 616 0307 07       		.byte	0x7
 617 0308 9801     		.2byte	0x198
 618 030a 5C020000 		.4byte	0x25c
 619 030e 14       		.byte	0x14
 620 030f 09       		.uleb128 0x9
 621 0310 520A0000 		.4byte	.LASF61
 622 0314 07       		.byte	0x7
ARM GAS  /tmp/ccZSCmtR.s 			page 12


 623 0315 9B01     		.2byte	0x19b
 624 0317 5C020000 		.4byte	0x25c
 625 031b 18       		.byte	0x18
 626 031c 00       		.byte	0
 627 031d 03       		.uleb128 0x3
 628 031e 24020000 		.4byte	.LASF62
 629 0322 06       		.byte	0x6
 630 0323 5C       		.byte	0x5c
 631 0324 28030000 		.4byte	0x328
 632 0328 0A       		.uleb128 0xa
 633 0329 04       		.byte	0x4
 634 032a 2E030000 		.4byte	0x32e
 635 032e 0C       		.uleb128 0xc
 636 032f 39030000 		.4byte	0x339
 637 0333 0D       		.uleb128 0xd
 638 0334 39030000 		.4byte	0x339
 639 0338 00       		.byte	0
 640 0339 0E       		.uleb128 0xe
 641 033a 04       		.byte	0x4
 642 033b 03       		.uleb128 0x3
 643 033c 80080000 		.4byte	.LASF63
 644 0340 06       		.byte	0x6
 645 0341 61       		.byte	0x61
 646 0342 46030000 		.4byte	0x346
 647 0346 0B       		.uleb128 0xb
 648 0347 84030000 		.4byte	.LASF64
 649 034b 14       		.byte	0x14
 650 034c 07       		.byte	0x7
 651 034d 6B01     		.2byte	0x16b
 652 034f 95030000 		.4byte	0x395
 653 0353 09       		.uleb128 0x9
 654 0354 770D0000 		.4byte	.LASF65
 655 0358 07       		.byte	0x7
 656 0359 6C01     		.2byte	0x16c
 657 035b E8060000 		.4byte	0x6e8
 658 035f 00       		.byte	0
 659 0360 09       		.uleb128 0x9
 660 0361 AD0E0000 		.4byte	.LASF66
 661 0365 07       		.byte	0x7
 662 0366 6D01     		.2byte	0x16d
 663 0368 E8060000 		.4byte	0x6e8
 664 036c 04       		.byte	0x4
 665 036d 09       		.uleb128 0x9
 666 036e 7D060000 		.4byte	.LASF67
 667 0372 07       		.byte	0x7
 668 0373 6E01     		.2byte	0x16e
 669 0375 36010000 		.4byte	0x136
 670 0379 08       		.byte	0x8
 671 037a 09       		.uleb128 0x9
 672 037b A50E0000 		.4byte	.LASF68
 673 037f 07       		.byte	0x7
 674 0380 6F01     		.2byte	0x16f
 675 0382 1D030000 		.4byte	0x31d
 676 0386 0C       		.byte	0xc
 677 0387 09       		.uleb128 0x9
 678 0388 17030000 		.4byte	.LASF69
 679 038c 07       		.byte	0x7
ARM GAS  /tmp/ccZSCmtR.s 			page 13


 680 038d 7101     		.2byte	0x171
 681 038f 39030000 		.4byte	0x339
 682 0393 10       		.byte	0x10
 683 0394 00       		.byte	0
 684 0395 03       		.uleb128 0x3
 685 0396 EF0C0000 		.4byte	.LASF70
 686 039a 06       		.byte	0x6
 687 039b 66       		.byte	0x66
 688 039c A0030000 		.4byte	0x3a0
 689 03a0 0B       		.uleb128 0xb
 690 03a1 41040000 		.4byte	.LASF71
 691 03a5 10       		.byte	0x10
 692 03a6 07       		.byte	0x7
 693 03a7 7B01     		.2byte	0x17b
 694 03a9 E2030000 		.4byte	0x3e2
 695 03ad 09       		.uleb128 0x9
 696 03ae 770D0000 		.4byte	.LASF65
 697 03b2 07       		.byte	0x7
 698 03b3 7C01     		.2byte	0x17c
 699 03b5 E8060000 		.4byte	0x6e8
 700 03b9 00       		.byte	0
 701 03ba 09       		.uleb128 0x9
 702 03bb AD0E0000 		.4byte	.LASF66
 703 03bf 07       		.byte	0x7
 704 03c0 7E01     		.2byte	0x17e
 705 03c2 E8060000 		.4byte	0x6e8
 706 03c6 04       		.byte	0x4
 707 03c7 09       		.uleb128 0x9
 708 03c8 7D060000 		.4byte	.LASF67
 709 03cc 07       		.byte	0x7
 710 03cd 8001     		.2byte	0x180
 711 03cf 36010000 		.4byte	0x136
 712 03d3 08       		.byte	0x8
 713 03d4 09       		.uleb128 0x9
 714 03d5 D8000000 		.4byte	.LASF72
 715 03d9 07       		.byte	0x7
 716 03da 8201     		.2byte	0x182
 717 03dc E3060000 		.4byte	0x6e3
 718 03e0 0C       		.byte	0xc
 719 03e1 00       		.byte	0
 720 03e2 03       		.uleb128 0x3
 721 03e3 A7070000 		.4byte	.LASF73
 722 03e7 06       		.byte	0x6
 723 03e8 6B       		.byte	0x6b
 724 03e9 ED030000 		.4byte	0x3ed
 725 03ed 0B       		.uleb128 0xb
 726 03ee 85020000 		.4byte	.LASF74
 727 03f2 04       		.byte	0x4
 728 03f3 07       		.byte	0x7
 729 03f4 A201     		.2byte	0x1a2
 730 03f6 08040000 		.4byte	0x408
 731 03fa 09       		.uleb128 0x9
 732 03fb 0C0D0000 		.4byte	.LASF75
 733 03ff 07       		.byte	0x7
 734 0400 AA01     		.2byte	0x1aa
 735 0402 EE060000 		.4byte	0x6ee
 736 0406 00       		.byte	0
ARM GAS  /tmp/ccZSCmtR.s 			page 14


 737 0407 00       		.byte	0
 738 0408 03       		.uleb128 0x3
 739 0409 B80D0000 		.4byte	.LASF76
 740 040d 06       		.byte	0x6
 741 040e 70       		.byte	0x70
 742 040f 13040000 		.4byte	0x413
 743 0413 0F       		.uleb128 0xf
 744 0414 D10A0000 		.4byte	.LASF77
 745 0418 5802     		.2byte	0x258
 746 041a 07       		.byte	0x7
 747 041b C201     		.2byte	0x1c2
 748 041d 6F040000 		.4byte	0x46f
 749 0421 09       		.uleb128 0x9
 750 0422 170B0000 		.4byte	.LASF78
 751 0426 07       		.byte	0x7
 752 0427 C601     		.2byte	0x1c6
 753 0429 B6020000 		.4byte	0x2b6
 754 042d 00       		.byte	0
 755 042e 09       		.uleb128 0x9
 756 042f 5C010000 		.4byte	.LASF79
 757 0433 07       		.byte	0x7
 758 0434 CA01     		.2byte	0x1ca
 759 0436 95030000 		.4byte	0x395
 760 043a 1C       		.byte	0x1c
 761 043b 08       		.uleb128 0x8
 762 043c 64626700 		.ascii	"dbg\000"
 763 0440 07       		.byte	0x7
 764 0441 CE01     		.2byte	0x1ce
 765 0443 E2030000 		.4byte	0x3e2
 766 0447 2C       		.byte	0x2c
 767 0448 09       		.uleb128 0x9
 768 0449 68090000 		.4byte	.LASF80
 769 044d 07       		.byte	0x7
 770 044e D201     		.2byte	0x1d2
 771 0450 41010000 		.4byte	0x141
 772 0454 30       		.byte	0x30
 773 0455 08       		.uleb128 0x8
 774 0456 746D00   		.ascii	"tm\000"
 775 0459 07       		.byte	0x7
 776 045a D701     		.2byte	0x1d7
 777 045c 01060000 		.4byte	0x601
 778 0460 78       		.byte	0x78
 779 0461 09       		.uleb128 0x9
 780 0462 1E0C0000 		.4byte	.LASF81
 781 0466 07       		.byte	0x7
 782 0467 E301     		.2byte	0x1e3
 783 0469 F3060000 		.4byte	0x6f3
 784 046d 80       		.byte	0x80
 785 046e 00       		.byte	0
 786 046f 02       		.uleb128 0x2
 787 0470 04       		.byte	0x4
 788 0471 07       		.byte	0x7
 789 0472 D40B0000 		.4byte	.LASF82
 790 0476 03       		.uleb128 0x3
 791 0477 70000000 		.4byte	.LASF83
 792 047b 08       		.byte	0x8
 793 047c 65       		.byte	0x65
ARM GAS  /tmp/ccZSCmtR.s 			page 15


 794 047d 39030000 		.4byte	0x339
 795 0481 03       		.uleb128 0x3
 796 0482 580E0000 		.4byte	.LASF84
 797 0486 08       		.byte	0x8
 798 0487 6D       		.byte	0x6d
 799 0488 B8000000 		.4byte	0xb8
 800 048c 06       		.uleb128 0x6
 801 048d 70080000 		.4byte	.LASF85
 802 0491 04       		.byte	0x4
 803 0492 08       		.byte	0x8
 804 0493 89       		.byte	0x89
 805 0494 A5040000 		.4byte	0x4a5
 806 0498 10       		.uleb128 0x10
 807 0499 72313300 		.ascii	"r13\000"
 808 049d 08       		.byte	0x8
 809 049e 8A       		.byte	0x8a
 810 049f E6050000 		.4byte	0x5e6
 811 04a3 00       		.byte	0
 812 04a4 00       		.byte	0
 813 04a5 06       		.uleb128 0x6
 814 04a6 8A0A0000 		.4byte	.LASF86
 815 04aa 64       		.byte	0x64
 816 04ab 09       		.byte	0x9
 817 04ac F4       		.byte	0xf4
 818 04ad E6050000 		.4byte	0x5e6
 819 04b1 10       		.uleb128 0x10
 820 04b2 73313600 		.ascii	"s16\000"
 821 04b6 09       		.byte	0x9
 822 04b7 F6       		.byte	0xf6
 823 04b8 76040000 		.4byte	0x476
 824 04bc 00       		.byte	0
 825 04bd 10       		.uleb128 0x10
 826 04be 73313700 		.ascii	"s17\000"
 827 04c2 09       		.byte	0x9
 828 04c3 F7       		.byte	0xf7
 829 04c4 76040000 		.4byte	0x476
 830 04c8 04       		.byte	0x4
 831 04c9 10       		.uleb128 0x10
 832 04ca 73313800 		.ascii	"s18\000"
 833 04ce 09       		.byte	0x9
 834 04cf F8       		.byte	0xf8
 835 04d0 76040000 		.4byte	0x476
 836 04d4 08       		.byte	0x8
 837 04d5 10       		.uleb128 0x10
 838 04d6 73313900 		.ascii	"s19\000"
 839 04da 09       		.byte	0x9
 840 04db F9       		.byte	0xf9
 841 04dc 76040000 		.4byte	0x476
 842 04e0 0C       		.byte	0xc
 843 04e1 10       		.uleb128 0x10
 844 04e2 73323000 		.ascii	"s20\000"
 845 04e6 09       		.byte	0x9
 846 04e7 FA       		.byte	0xfa
 847 04e8 76040000 		.4byte	0x476
 848 04ec 10       		.byte	0x10
 849 04ed 10       		.uleb128 0x10
 850 04ee 73323100 		.ascii	"s21\000"
ARM GAS  /tmp/ccZSCmtR.s 			page 16


 851 04f2 09       		.byte	0x9
 852 04f3 FB       		.byte	0xfb
 853 04f4 76040000 		.4byte	0x476
 854 04f8 14       		.byte	0x14
 855 04f9 10       		.uleb128 0x10
 856 04fa 73323200 		.ascii	"s22\000"
 857 04fe 09       		.byte	0x9
 858 04ff FC       		.byte	0xfc
 859 0500 76040000 		.4byte	0x476
 860 0504 18       		.byte	0x18
 861 0505 10       		.uleb128 0x10
 862 0506 73323300 		.ascii	"s23\000"
 863 050a 09       		.byte	0x9
 864 050b FD       		.byte	0xfd
 865 050c 76040000 		.4byte	0x476
 866 0510 1C       		.byte	0x1c
 867 0511 10       		.uleb128 0x10
 868 0512 73323400 		.ascii	"s24\000"
 869 0516 09       		.byte	0x9
 870 0517 FE       		.byte	0xfe
 871 0518 76040000 		.4byte	0x476
 872 051c 20       		.byte	0x20
 873 051d 10       		.uleb128 0x10
 874 051e 73323500 		.ascii	"s25\000"
 875 0522 09       		.byte	0x9
 876 0523 FF       		.byte	0xff
 877 0524 76040000 		.4byte	0x476
 878 0528 24       		.byte	0x24
 879 0529 08       		.uleb128 0x8
 880 052a 73323600 		.ascii	"s26\000"
 881 052e 09       		.byte	0x9
 882 052f 0001     		.2byte	0x100
 883 0531 76040000 		.4byte	0x476
 884 0535 28       		.byte	0x28
 885 0536 08       		.uleb128 0x8
 886 0537 73323700 		.ascii	"s27\000"
 887 053b 09       		.byte	0x9
 888 053c 0101     		.2byte	0x101
 889 053e 76040000 		.4byte	0x476
 890 0542 2C       		.byte	0x2c
 891 0543 08       		.uleb128 0x8
 892 0544 73323800 		.ascii	"s28\000"
 893 0548 09       		.byte	0x9
 894 0549 0201     		.2byte	0x102
 895 054b 76040000 		.4byte	0x476
 896 054f 30       		.byte	0x30
 897 0550 08       		.uleb128 0x8
 898 0551 73323900 		.ascii	"s29\000"
 899 0555 09       		.byte	0x9
 900 0556 0301     		.2byte	0x103
 901 0558 76040000 		.4byte	0x476
 902 055c 34       		.byte	0x34
 903 055d 08       		.uleb128 0x8
 904 055e 73333000 		.ascii	"s30\000"
 905 0562 09       		.byte	0x9
 906 0563 0401     		.2byte	0x104
 907 0565 76040000 		.4byte	0x476
ARM GAS  /tmp/ccZSCmtR.s 			page 17


 908 0569 38       		.byte	0x38
 909 056a 08       		.uleb128 0x8
 910 056b 73333100 		.ascii	"s31\000"
 911 056f 09       		.byte	0x9
 912 0570 0501     		.2byte	0x105
 913 0572 76040000 		.4byte	0x476
 914 0576 3C       		.byte	0x3c
 915 0577 08       		.uleb128 0x8
 916 0578 723400   		.ascii	"r4\000"
 917 057b 09       		.byte	0x9
 918 057c 0701     		.2byte	0x107
 919 057e 76040000 		.4byte	0x476
 920 0582 40       		.byte	0x40
 921 0583 08       		.uleb128 0x8
 922 0584 723500   		.ascii	"r5\000"
 923 0587 09       		.byte	0x9
 924 0588 0801     		.2byte	0x108
 925 058a 76040000 		.4byte	0x476
 926 058e 44       		.byte	0x44
 927 058f 08       		.uleb128 0x8
 928 0590 723600   		.ascii	"r6\000"
 929 0593 09       		.byte	0x9
 930 0594 0901     		.2byte	0x109
 931 0596 76040000 		.4byte	0x476
 932 059a 48       		.byte	0x48
 933 059b 08       		.uleb128 0x8
 934 059c 723700   		.ascii	"r7\000"
 935 059f 09       		.byte	0x9
 936 05a0 0A01     		.2byte	0x10a
 937 05a2 76040000 		.4byte	0x476
 938 05a6 4C       		.byte	0x4c
 939 05a7 08       		.uleb128 0x8
 940 05a8 723800   		.ascii	"r8\000"
 941 05ab 09       		.byte	0x9
 942 05ac 0B01     		.2byte	0x10b
 943 05ae 76040000 		.4byte	0x476
 944 05b2 50       		.byte	0x50
 945 05b3 08       		.uleb128 0x8
 946 05b4 723900   		.ascii	"r9\000"
 947 05b7 09       		.byte	0x9
 948 05b8 0C01     		.2byte	0x10c
 949 05ba 76040000 		.4byte	0x476
 950 05be 54       		.byte	0x54
 951 05bf 08       		.uleb128 0x8
 952 05c0 72313000 		.ascii	"r10\000"
 953 05c4 09       		.byte	0x9
 954 05c5 0D01     		.2byte	0x10d
 955 05c7 76040000 		.4byte	0x476
 956 05cb 58       		.byte	0x58
 957 05cc 08       		.uleb128 0x8
 958 05cd 72313100 		.ascii	"r11\000"
 959 05d1 09       		.byte	0x9
 960 05d2 0E01     		.2byte	0x10e
 961 05d4 76040000 		.4byte	0x476
 962 05d8 5C       		.byte	0x5c
 963 05d9 08       		.uleb128 0x8
 964 05da 6C7200   		.ascii	"lr\000"
ARM GAS  /tmp/ccZSCmtR.s 			page 18


 965 05dd 09       		.byte	0x9
 966 05de 0F01     		.2byte	0x10f
 967 05e0 76040000 		.4byte	0x476
 968 05e4 60       		.byte	0x60
 969 05e5 00       		.byte	0
 970 05e6 0A       		.uleb128 0xa
 971 05e7 04       		.byte	0x4
 972 05e8 A5040000 		.4byte	0x4a5
 973 05ec 11       		.uleb128 0x11
 974 05ed 04       		.byte	0x4
 975 05ee 0A       		.byte	0xa
 976 05ef 38       		.byte	0x38
 977 05f0 01060000 		.4byte	0x601
 978 05f4 07       		.uleb128 0x7
 979 05f5 9B050000 		.4byte	.LASF87
 980 05f9 0A       		.byte	0xa
 981 05fa 3C       		.byte	0x3c
 982 05fb D3000000 		.4byte	0xd3
 983 05ff 00       		.byte	0
 984 0600 00       		.byte	0
 985 0601 03       		.uleb128 0x3
 986 0602 4E000000 		.4byte	.LASF88
 987 0606 0A       		.byte	0xa
 988 0607 3D       		.byte	0x3d
 989 0608 EC050000 		.4byte	0x5ec
 990 060c 12       		.uleb128 0x12
 991 060d 04       		.byte	0x4
 992 060e 07       		.byte	0x7
 993 060f FA       		.byte	0xfa
 994 0610 69060000 		.4byte	0x669
 995 0614 13       		.uleb128 0x13
 996 0615 88050000 		.4byte	.LASF89
 997 0619 07       		.byte	0x7
 998 061a 0101     		.2byte	0x101
 999 061c 15010000 		.4byte	0x115
 1000 0620 13       		.uleb128 0x13
 1001 0621 710F0000 		.4byte	.LASF90
 1002 0625 07       		.byte	0x7
 1003 0626 0801     		.2byte	0x108
 1004 0628 15010000 		.4byte	0x115
 1005 062c 13       		.uleb128 0x13
 1006 062d 4D010000 		.4byte	.LASF91
 1007 0631 07       		.byte	0x7
 1008 0632 0F01     		.2byte	0x10f
 1009 0634 39030000 		.4byte	0x339
 1010 0638 13       		.uleb128 0x13
 1011 0639 330F0000 		.4byte	.LASF92
 1012 063d 07       		.byte	0x7
 1013 063e 1601     		.2byte	0x116
 1014 0640 69060000 		.4byte	0x669
 1015 0644 13       		.uleb128 0x13
 1016 0645 3A0C0000 		.4byte	.LASF93
 1017 0649 07       		.byte	0x7
 1018 064a 1E01     		.2byte	0x11e
 1019 064c 94060000 		.4byte	0x694
 1020 0650 13       		.uleb128 0x13
 1021 0651 390F0000 		.4byte	.LASF94
ARM GAS  /tmp/ccZSCmtR.s 			page 19


 1022 0655 07       		.byte	0x7
 1023 0656 2701     		.2byte	0x127
 1024 0658 CB060000 		.4byte	0x6cb
 1025 065c 13       		.uleb128 0x13
 1026 065d CD010000 		.4byte	.LASF95
 1027 0661 07       		.byte	0x7
 1028 0662 2F01     		.2byte	0x12f
 1029 0664 20010000 		.4byte	0x120
 1030 0668 00       		.byte	0
 1031 0669 0A       		.uleb128 0xa
 1032 066a 04       		.byte	0x4
 1033 066b 51020000 		.4byte	0x251
 1034 066f 06       		.uleb128 0x6
 1035 0670 62030000 		.4byte	.LASF96
 1036 0674 0C       		.byte	0xc
 1037 0675 0B       		.byte	0xb
 1038 0676 34       		.byte	0x34
 1039 0677 94060000 		.4byte	0x694
 1040 067b 07       		.uleb128 0x7
 1041 067c D0000000 		.4byte	.LASF97
 1042 0680 0B       		.byte	0xb
 1043 0681 35       		.byte	0x35
 1044 0682 86020000 		.4byte	0x286
 1045 0686 00       		.byte	0
 1046 0687 07       		.uleb128 0x7
 1047 0688 7F020000 		.4byte	.LASF98
 1048 068c 0B       		.byte	0xb
 1049 068d 37       		.byte	0x37
 1050 068e 2B010000 		.4byte	0x12b
 1051 0692 08       		.byte	0x8
 1052 0693 00       		.byte	0
 1053 0694 0A       		.uleb128 0xa
 1054 0695 04       		.byte	0x4
 1055 0696 6F060000 		.4byte	0x66f
 1056 069a 06       		.uleb128 0x6
 1057 069b CC050000 		.4byte	.LASF99
 1058 069f 10       		.byte	0x10
 1059 06a0 0C       		.byte	0xc
 1060 06a1 39       		.byte	0x39
 1061 06a2 CB060000 		.4byte	0x6cb
 1062 06a6 07       		.uleb128 0x7
 1063 06a7 790A0000 		.4byte	.LASF100
 1064 06ab 0C       		.byte	0xc
 1065 06ac 3A       		.byte	0x3a
 1066 06ad 86020000 		.4byte	0x286
 1067 06b1 00       		.byte	0
 1068 06b2 07       		.uleb128 0x7
 1069 06b3 C8000000 		.4byte	.LASF101
 1070 06b7 0C       		.byte	0xc
 1071 06b8 3C       		.byte	0x3c
 1072 06b9 5C020000 		.4byte	0x25c
 1073 06bd 08       		.byte	0x8
 1074 06be 07       		.uleb128 0x7
 1075 06bf F50D0000 		.4byte	.LASF102
 1076 06c3 0C       		.byte	0xc
 1077 06c4 3E       		.byte	0x3e
 1078 06c5 0E070000 		.4byte	0x70e
ARM GAS  /tmp/ccZSCmtR.s 			page 20


 1079 06c9 0C       		.byte	0xc
 1080 06ca 00       		.byte	0
 1081 06cb 0A       		.uleb128 0xa
 1082 06cc 04       		.byte	0x4
 1083 06cd 9A060000 		.4byte	0x69a
 1084 06d1 0A       		.uleb128 0xa
 1085 06d2 04       		.byte	0x4
 1086 06d3 D7060000 		.4byte	0x6d7
 1087 06d7 14       		.uleb128 0x14
 1088 06d8 DC060000 		.4byte	0x6dc
 1089 06dc 02       		.uleb128 0x2
 1090 06dd 01       		.byte	0x1
 1091 06de 08       		.byte	0x8
 1092 06df 6B000000 		.4byte	.LASF103
 1093 06e3 05       		.uleb128 0x5
 1094 06e4 36010000 		.4byte	0x136
 1095 06e8 0A       		.uleb128 0xa
 1096 06e9 04       		.byte	0x4
 1097 06ea 3B030000 		.4byte	0x33b
 1098 06ee 05       		.uleb128 0x5
 1099 06ef D1060000 		.4byte	0x6d1
 1100 06f3 15       		.uleb128 0x15
 1101 06f4 81040000 		.4byte	0x481
 1102 06f8 03070000 		.4byte	0x703
 1103 06fc 16       		.uleb128 0x16
 1104 06fd 6F040000 		.4byte	0x46f
 1105 0701 3A       		.byte	0x3a
 1106 0702 00       		.byte	0
 1107 0703 03       		.uleb128 0x3
 1108 0704 7B0C0000 		.4byte	.LASF104
 1109 0708 0C       		.byte	0xc
 1110 0709 34       		.byte	0x34
 1111 070a 9A060000 		.4byte	0x69a
 1112 070e 0A       		.uleb128 0xa
 1113 070f 04       		.byte	0x4
 1114 0710 03070000 		.4byte	0x703
 1115 0714 02       		.uleb128 0x2
 1116 0715 04       		.byte	0x4
 1117 0716 04       		.byte	0x4
 1118 0717 27030000 		.4byte	.LASF105
 1119 071b 17       		.uleb128 0x17
 1120 071c 01       		.byte	0x1
 1121 071d 0D       		.byte	0xd
 1122 071e 81       		.byte	0x81
 1123 071f 3C070000 		.4byte	0x73c
 1124 0723 18       		.uleb128 0x18
 1125 0724 BA000000 		.4byte	.LASF106
 1126 0728 00       		.sleb128 0
 1127 0729 18       		.uleb128 0x18
 1128 072a E3070000 		.4byte	.LASF107
 1129 072e 01       		.sleb128 1
 1130 072f 18       		.uleb128 0x18
 1131 0730 AC030000 		.4byte	.LASF108
 1132 0734 02       		.sleb128 2
 1133 0735 18       		.uleb128 0x18
 1134 0736 8F050000 		.4byte	.LASF109
 1135 073a 03       		.sleb128 3
ARM GAS  /tmp/ccZSCmtR.s 			page 21


 1136 073b 00       		.byte	0
 1137 073c 03       		.uleb128 0x3
 1138 073d 3F0A0000 		.4byte	.LASF110
 1139 0741 0D       		.byte	0xd
 1140 0742 86       		.byte	0x86
 1141 0743 1B070000 		.4byte	0x71b
 1142 0747 02       		.uleb128 0x2
 1143 0748 01       		.byte	0x1
 1144 0749 02       		.byte	0x2
 1145 074a AB050000 		.4byte	.LASF111
 1146 074e 17       		.uleb128 0x17
 1147 074f 01       		.byte	0x1
 1148 0750 0D       		.byte	0xd
 1149 0751 F7       		.byte	0xf7
 1150 0752 8D070000 		.4byte	0x78d
 1151 0756 18       		.uleb128 0x18
 1152 0757 5B070000 		.4byte	.LASF112
 1153 075b 00       		.sleb128 0
 1154 075c 18       		.uleb128 0x18
 1155 075d 0A020000 		.4byte	.LASF113
 1156 0761 01       		.sleb128 1
 1157 0762 18       		.uleb128 0x18
 1158 0763 86060000 		.4byte	.LASF114
 1159 0767 02       		.sleb128 2
 1160 0768 18       		.uleb128 0x18
 1161 0769 A2050000 		.4byte	.LASF115
 1162 076d 03       		.sleb128 3
 1163 076e 18       		.uleb128 0x18
 1164 076f 630E0000 		.4byte	.LASF116
 1165 0773 04       		.sleb128 4
 1166 0774 18       		.uleb128 0x18
 1167 0775 320A0000 		.4byte	.LASF117
 1168 0779 05       		.sleb128 5
 1169 077a 18       		.uleb128 0x18
 1170 077b C50A0000 		.4byte	.LASF118
 1171 077f 06       		.sleb128 6
 1172 0780 18       		.uleb128 0x18
 1173 0781 B6070000 		.4byte	.LASF119
 1174 0785 07       		.sleb128 7
 1175 0786 18       		.uleb128 0x18
 1176 0787 2E010000 		.4byte	.LASF120
 1177 078b 08       		.sleb128 8
 1178 078c 00       		.byte	0
 1179 078d 19       		.uleb128 0x19
 1180 078e 2D030000 		.4byte	.LASF121
 1181 0792 0D       		.byte	0xd
 1182 0793 0101     		.2byte	0x101
 1183 0795 4E070000 		.4byte	0x74e
 1184 0799 1A       		.uleb128 0x1a
 1185 079a 01       		.byte	0x1
 1186 079b 0D       		.byte	0xd
 1187 079c 0401     		.2byte	0x104
 1188 079e B5070000 		.4byte	0x7b5
 1189 07a2 18       		.uleb128 0x18
 1190 07a3 06070000 		.4byte	.LASF122
 1191 07a7 00       		.sleb128 0
 1192 07a8 18       		.uleb128 0x18
ARM GAS  /tmp/ccZSCmtR.s 			page 22


 1193 07a9 FF050000 		.4byte	.LASF123
 1194 07ad 01       		.sleb128 1
 1195 07ae 18       		.uleb128 0x18
 1196 07af 400F0000 		.4byte	.LASF124
 1197 07b3 02       		.sleb128 2
 1198 07b4 00       		.byte	0
 1199 07b5 19       		.uleb128 0x19
 1200 07b6 100F0000 		.4byte	.LASF125
 1201 07ba 0D       		.byte	0xd
 1202 07bb 0801     		.2byte	0x108
 1203 07bd 99070000 		.4byte	0x799
 1204 07c1 1A       		.uleb128 0x1a
 1205 07c2 01       		.byte	0x1
 1206 07c3 0D       		.byte	0xd
 1207 07c4 0B01     		.2byte	0x10b
 1208 07c6 FB070000 		.4byte	0x7fb
 1209 07ca 18       		.uleb128 0x18
 1210 07cb 13070000 		.4byte	.LASF126
 1211 07cf 00       		.sleb128 0
 1212 07d0 18       		.uleb128 0x18
 1213 07d1 95020000 		.4byte	.LASF127
 1214 07d5 01       		.sleb128 1
 1215 07d6 18       		.uleb128 0x18
 1216 07d7 B1010000 		.4byte	.LASF128
 1217 07db 02       		.sleb128 2
 1218 07dc 18       		.uleb128 0x18
 1219 07dd C6060000 		.4byte	.LASF129
 1220 07e1 03       		.sleb128 3
 1221 07e2 18       		.uleb128 0x18
 1222 07e3 6E070000 		.4byte	.LASF130
 1223 07e7 04       		.sleb128 4
 1224 07e8 18       		.uleb128 0x18
 1225 07e9 C9030000 		.4byte	.LASF131
 1226 07ed 05       		.sleb128 5
 1227 07ee 18       		.uleb128 0x18
 1228 07ef D4010000 		.4byte	.LASF132
 1229 07f3 06       		.sleb128 6
 1230 07f4 18       		.uleb128 0x18
 1231 07f5 5B050000 		.4byte	.LASF133
 1232 07f9 07       		.sleb128 7
 1233 07fa 00       		.byte	0
 1234 07fb 19       		.uleb128 0x19
 1235 07fc 4D0F0000 		.4byte	.LASF134
 1236 0800 0D       		.byte	0xd
 1237 0801 1401     		.2byte	0x114
 1238 0803 C1070000 		.4byte	0x7c1
 1239 0807 1B       		.uleb128 0x1b
 1240 0808 38       		.byte	0x38
 1241 0809 0D       		.byte	0xd
 1242 080a 1601     		.2byte	0x116
 1243 080c E0080000 		.4byte	0x8e0
 1244 0810 09       		.uleb128 0x9
 1245 0811 0C0C0000 		.4byte	.LASF135
 1246 0815 0D       		.byte	0xd
 1247 0816 1701     		.2byte	0x117
 1248 0818 FB070000 		.4byte	0x7fb
 1249 081c 00       		.byte	0
ARM GAS  /tmp/ccZSCmtR.s 			page 23


 1250 081d 09       		.uleb128 0x9
 1251 081e 70060000 		.4byte	.LASF136
 1252 0822 0D       		.byte	0xd
 1253 0823 1801     		.2byte	0x118
 1254 0825 14070000 		.4byte	0x714
 1255 0829 04       		.byte	0x4
 1256 082a 09       		.uleb128 0x9
 1257 082b 5D030000 		.4byte	.LASF137
 1258 082f 0D       		.byte	0xd
 1259 0830 1901     		.2byte	0x119
 1260 0832 14070000 		.4byte	0x714
 1261 0836 08       		.byte	0x8
 1262 0837 09       		.uleb128 0x9
 1263 0838 260A0000 		.4byte	.LASF138
 1264 083c 0D       		.byte	0xd
 1265 083d 1A01     		.2byte	0x11a
 1266 083f 14070000 		.4byte	0x714
 1267 0843 0C       		.byte	0xc
 1268 0844 09       		.uleb128 0x9
 1269 0845 F1070000 		.4byte	.LASF139
 1270 0849 0D       		.byte	0xd
 1271 084a 1B01     		.2byte	0x11b
 1272 084c 14070000 		.4byte	0x714
 1273 0850 10       		.byte	0x10
 1274 0851 09       		.uleb128 0x9
 1275 0852 B9060000 		.4byte	.LASF140
 1276 0856 0D       		.byte	0xd
 1277 0857 1C01     		.2byte	0x11c
 1278 0859 14070000 		.4byte	0x714
 1279 085d 14       		.byte	0x14
 1280 085e 09       		.uleb128 0x9
 1281 085f E0020000 		.4byte	.LASF141
 1282 0863 0D       		.byte	0xd
 1283 0864 1D01     		.2byte	0x11d
 1284 0866 47070000 		.4byte	0x747
 1285 086a 18       		.byte	0x18
 1286 086b 09       		.uleb128 0x9
 1287 086c EE000000 		.4byte	.LASF142
 1288 0870 0D       		.byte	0xd
 1289 0871 1E01     		.2byte	0x11e
 1290 0873 47070000 		.4byte	0x747
 1291 0877 19       		.byte	0x19
 1292 0878 09       		.uleb128 0x9
 1293 0879 E7080000 		.4byte	.LASF143
 1294 087d 0D       		.byte	0xd
 1295 087e 1F01     		.2byte	0x11f
 1296 0880 14070000 		.4byte	0x714
 1297 0884 1C       		.byte	0x1c
 1298 0885 09       		.uleb128 0x9
 1299 0886 830C0000 		.4byte	.LASF144
 1300 088a 0D       		.byte	0xd
 1301 088b 2001     		.2byte	0x120
 1302 088d 14070000 		.4byte	0x714
 1303 0891 20       		.byte	0x20
 1304 0892 09       		.uleb128 0x9
 1305 0893 35030000 		.4byte	.LASF145
 1306 0897 0D       		.byte	0xd
ARM GAS  /tmp/ccZSCmtR.s 			page 24


 1307 0898 2101     		.2byte	0x121
 1308 089a B5070000 		.4byte	0x7b5
 1309 089e 24       		.byte	0x24
 1310 089f 09       		.uleb128 0x9
 1311 08a0 73050000 		.4byte	.LASF146
 1312 08a4 0D       		.byte	0xd
 1313 08a5 2201     		.2byte	0x122
 1314 08a7 14070000 		.4byte	0x714
 1315 08ab 28       		.byte	0x28
 1316 08ac 09       		.uleb128 0x9
 1317 08ad C5020000 		.4byte	.LASF147
 1318 08b1 0D       		.byte	0xd
 1319 08b2 2301     		.2byte	0x123
 1320 08b4 14070000 		.4byte	0x714
 1321 08b8 2C       		.byte	0x2c
 1322 08b9 09       		.uleb128 0x9
 1323 08ba 43010000 		.4byte	.LASF148
 1324 08be 0D       		.byte	0xd
 1325 08bf 2401     		.2byte	0x124
 1326 08c1 47070000 		.4byte	0x747
 1327 08c5 30       		.byte	0x30
 1328 08c6 08       		.uleb128 0x8
 1329 08c7 746300   		.ascii	"tc\000"
 1330 08ca 0D       		.byte	0xd
 1331 08cb 2501     		.2byte	0x125
 1332 08cd 47070000 		.4byte	0x747
 1333 08d1 31       		.byte	0x31
 1334 08d2 09       		.uleb128 0x9
 1335 08d3 D80C0000 		.4byte	.LASF149
 1336 08d7 0D       		.byte	0xd
 1337 08d8 2601     		.2byte	0x126
 1338 08da 14070000 		.4byte	0x714
 1339 08de 34       		.byte	0x34
 1340 08df 00       		.byte	0
 1341 08e0 19       		.uleb128 0x19
 1342 08e1 45090000 		.4byte	.LASF150
 1343 08e5 0D       		.byte	0xd
 1344 08e6 2701     		.2byte	0x127
 1345 08e8 07080000 		.4byte	0x807
 1346 08ec 1A       		.uleb128 0x1a
 1347 08ed 01       		.byte	0x1
 1348 08ee 0D       		.byte	0xd
 1349 08ef 2A01     		.2byte	0x12a
 1350 08f1 4A090000 		.4byte	0x94a
 1351 08f5 18       		.uleb128 0x18
 1352 08f6 5E0F0000 		.4byte	.LASF151
 1353 08fa 00       		.sleb128 0
 1354 08fb 18       		.uleb128 0x18
 1355 08fc 960A0000 		.4byte	.LASF152
 1356 0900 01       		.sleb128 1
 1357 0901 18       		.uleb128 0x18
 1358 0902 B7080000 		.4byte	.LASF153
 1359 0906 02       		.sleb128 2
 1360 0907 18       		.uleb128 0x18
 1361 0908 FB070000 		.4byte	.LASF154
 1362 090c 03       		.sleb128 3
 1363 090d 18       		.uleb128 0x18
ARM GAS  /tmp/ccZSCmtR.s 			page 25


 1364 090e 8C0B0000 		.4byte	.LASF155
 1365 0912 04       		.sleb128 4
 1366 0913 18       		.uleb128 0x18
 1367 0914 2D020000 		.4byte	.LASF156
 1368 0918 05       		.sleb128 5
 1369 0919 18       		.uleb128 0x18
 1370 091a 56020000 		.4byte	.LASF157
 1371 091e 06       		.sleb128 6
 1372 091f 18       		.uleb128 0x18
 1373 0920 DB0A0000 		.4byte	.LASF158
 1374 0924 07       		.sleb128 7
 1375 0925 18       		.uleb128 0x18
 1376 0926 F4080000 		.4byte	.LASF159
 1377 092a 08       		.sleb128 8
 1378 092b 18       		.uleb128 0x18
 1379 092c 30000000 		.4byte	.LASF160
 1380 0930 09       		.sleb128 9
 1381 0931 18       		.uleb128 0x18
 1382 0932 1E0E0000 		.4byte	.LASF161
 1383 0936 0A       		.sleb128 10
 1384 0937 18       		.uleb128 0x18
 1385 0938 930E0000 		.4byte	.LASF162
 1386 093c 0B       		.sleb128 11
 1387 093d 18       		.uleb128 0x18
 1388 093e F8090000 		.4byte	.LASF163
 1389 0942 0C       		.sleb128 12
 1390 0943 18       		.uleb128 0x18
 1391 0944 410C0000 		.4byte	.LASF164
 1392 0948 0D       		.sleb128 13
 1393 0949 00       		.byte	0
 1394 094a 19       		.uleb128 0x19
 1395 094b B4020000 		.4byte	.LASF165
 1396 094f 0D       		.byte	0xd
 1397 0950 3901     		.2byte	0x139
 1398 0952 EC080000 		.4byte	0x8ec
 1399 0956 1B       		.uleb128 0x1b
 1400 0957 44       		.byte	0x44
 1401 0958 0D       		.byte	0xd
 1402 0959 3B01     		.2byte	0x13b
 1403 095b 7D0A0000 		.4byte	0xa7d
 1404 095f 09       		.uleb128 0x9
 1405 0960 0C0C0000 		.4byte	.LASF135
 1406 0964 0D       		.byte	0xd
 1407 0965 3C01     		.2byte	0x13c
 1408 0967 4A090000 		.4byte	0x94a
 1409 096b 00       		.byte	0
 1410 096c 09       		.uleb128 0x9
 1411 096d 5D030000 		.4byte	.LASF137
 1412 0971 0D       		.byte	0xd
 1413 0972 3D01     		.2byte	0x13d
 1414 0974 14070000 		.4byte	0x714
 1415 0978 04       		.byte	0x4
 1416 0979 09       		.uleb128 0x9
 1417 097a 1C060000 		.4byte	.LASF166
 1418 097e 0D       		.byte	0xd
 1419 097f 3E01     		.2byte	0x13e
 1420 0981 14070000 		.4byte	0x714
ARM GAS  /tmp/ccZSCmtR.s 			page 26


 1421 0985 08       		.byte	0x8
 1422 0986 09       		.uleb128 0x9
 1423 0987 E2030000 		.4byte	.LASF167
 1424 098b 0D       		.byte	0xd
 1425 098c 3F01     		.2byte	0x13f
 1426 098e 14070000 		.4byte	0x714
 1427 0992 0C       		.byte	0xc
 1428 0993 09       		.uleb128 0x9
 1429 0994 F9000000 		.4byte	.LASF168
 1430 0998 0D       		.byte	0xd
 1431 0999 4001     		.2byte	0x140
 1432 099b 14070000 		.4byte	0x714
 1433 099f 10       		.byte	0x10
 1434 09a0 09       		.uleb128 0x9
 1435 09a1 26070000 		.4byte	.LASF169
 1436 09a5 0D       		.byte	0xd
 1437 09a6 4101     		.2byte	0x141
 1438 09a8 14070000 		.4byte	0x714
 1439 09ac 14       		.byte	0x14
 1440 09ad 09       		.uleb128 0x9
 1441 09ae 2D0C0000 		.4byte	.LASF170
 1442 09b2 0D       		.byte	0xd
 1443 09b3 4201     		.2byte	0x142
 1444 09b5 14070000 		.4byte	0x714
 1445 09b9 18       		.byte	0x18
 1446 09ba 09       		.uleb128 0x9
 1447 09bb 2C0D0000 		.4byte	.LASF171
 1448 09bf 0D       		.byte	0xd
 1449 09c0 4301     		.2byte	0x143
 1450 09c2 47070000 		.4byte	0x747
 1451 09c6 1C       		.byte	0x1c
 1452 09c7 09       		.uleb128 0x9
 1453 09c8 EE000000 		.4byte	.LASF142
 1454 09cc 0D       		.byte	0xd
 1455 09cd 4401     		.2byte	0x144
 1456 09cf 47070000 		.4byte	0x747
 1457 09d3 1D       		.byte	0x1d
 1458 09d4 09       		.uleb128 0x9
 1459 09d5 2E040000 		.4byte	.LASF172
 1460 09d9 0D       		.byte	0xd
 1461 09da 4501     		.2byte	0x145
 1462 09dc 47070000 		.4byte	0x747
 1463 09e0 1E       		.byte	0x1e
 1464 09e1 09       		.uleb128 0x9
 1465 09e2 CF070000 		.4byte	.LASF173
 1466 09e6 0D       		.byte	0xd
 1467 09e7 4601     		.2byte	0x146
 1468 09e9 47070000 		.4byte	0x747
 1469 09ed 1F       		.byte	0x1f
 1470 09ee 09       		.uleb128 0x9
 1471 09ef A3090000 		.4byte	.LASF174
 1472 09f3 0D       		.byte	0xd
 1473 09f4 4701     		.2byte	0x147
 1474 09f6 47070000 		.4byte	0x747
 1475 09fa 20       		.byte	0x20
 1476 09fb 09       		.uleb128 0x9
 1477 09fc ED050000 		.4byte	.LASF175
ARM GAS  /tmp/ccZSCmtR.s 			page 27


 1478 0a00 0D       		.byte	0xd
 1479 0a01 4801     		.2byte	0x148
 1480 0a03 47070000 		.4byte	0x747
 1481 0a07 21       		.byte	0x21
 1482 0a08 09       		.uleb128 0x9
 1483 0a09 E7080000 		.4byte	.LASF143
 1484 0a0d 0D       		.byte	0xd
 1485 0a0e 4901     		.2byte	0x149
 1486 0a10 14070000 		.4byte	0x714
 1487 0a14 24       		.byte	0x24
 1488 0a15 09       		.uleb128 0x9
 1489 0a16 830C0000 		.4byte	.LASF144
 1490 0a1a 0D       		.byte	0xd
 1491 0a1b 4A01     		.2byte	0x14a
 1492 0a1d 14070000 		.4byte	0x714
 1493 0a21 28       		.byte	0x28
 1494 0a22 09       		.uleb128 0x9
 1495 0a23 35030000 		.4byte	.LASF145
 1496 0a27 0D       		.byte	0xd
 1497 0a28 4B01     		.2byte	0x14b
 1498 0a2a B5070000 		.4byte	0x7b5
 1499 0a2e 2C       		.byte	0x2c
 1500 0a2f 09       		.uleb128 0x9
 1501 0a30 73050000 		.4byte	.LASF146
 1502 0a34 0D       		.byte	0xd
 1503 0a35 4C01     		.2byte	0x14c
 1504 0a37 14070000 		.4byte	0x714
 1505 0a3b 30       		.byte	0x30
 1506 0a3c 09       		.uleb128 0x9
 1507 0a3d C5020000 		.4byte	.LASF147
 1508 0a41 0D       		.byte	0xd
 1509 0a42 4D01     		.2byte	0x14d
 1510 0a44 14070000 		.4byte	0x714
 1511 0a48 34       		.byte	0x34
 1512 0a49 09       		.uleb128 0x9
 1513 0a4a 43010000 		.4byte	.LASF148
 1514 0a4e 0D       		.byte	0xd
 1515 0a4f 4E01     		.2byte	0x14e
 1516 0a51 47070000 		.4byte	0x747
 1517 0a55 38       		.byte	0x38
 1518 0a56 08       		.uleb128 0x8
 1519 0a57 746300   		.ascii	"tc\000"
 1520 0a5a 0D       		.byte	0xd
 1521 0a5b 4F01     		.2byte	0x14f
 1522 0a5d 47070000 		.4byte	0x747
 1523 0a61 39       		.byte	0x39
 1524 0a62 09       		.uleb128 0x9
 1525 0a63 D80C0000 		.4byte	.LASF149
 1526 0a67 0D       		.byte	0xd
 1527 0a68 5001     		.2byte	0x150
 1528 0a6a 14070000 		.4byte	0x714
 1529 0a6e 3C       		.byte	0x3c
 1530 0a6f 09       		.uleb128 0x9
 1531 0a70 D8080000 		.4byte	.LASF176
 1532 0a74 0D       		.byte	0xd
 1533 0a75 5101     		.2byte	0x151
 1534 0a77 AD000000 		.4byte	0xad
ARM GAS  /tmp/ccZSCmtR.s 			page 28


 1535 0a7b 40       		.byte	0x40
 1536 0a7c 00       		.byte	0
 1537 0a7d 19       		.uleb128 0x19
 1538 0a7e 8C0F0000 		.4byte	.LASF177
 1539 0a82 0D       		.byte	0xd
 1540 0a83 5201     		.2byte	0x152
 1541 0a85 56090000 		.4byte	0x956
 1542 0a89 1A       		.uleb128 0x1a
 1543 0a8a 01       		.byte	0x1
 1544 0a8b 0D       		.byte	0xd
 1545 0a8c 5501     		.2byte	0x155
 1546 0a8e A50A0000 		.4byte	0xaa5
 1547 0a92 18       		.uleb128 0x18
 1548 0a93 35070000 		.4byte	.LASF178
 1549 0a97 00       		.sleb128 0
 1550 0a98 18       		.uleb128 0x18
 1551 0a99 24080000 		.4byte	.LASF179
 1552 0a9d 01       		.sleb128 1
 1553 0a9e 18       		.uleb128 0x18
 1554 0a9f 80000000 		.4byte	.LASF180
 1555 0aa3 02       		.sleb128 2
 1556 0aa4 00       		.byte	0
 1557 0aa5 19       		.uleb128 0x19
 1558 0aa6 1C040000 		.4byte	.LASF181
 1559 0aaa 0D       		.byte	0xd
 1560 0aab 5901     		.2byte	0x159
 1561 0aad 890A0000 		.4byte	0xa89
 1562 0ab1 1B       		.uleb128 0x1b
 1563 0ab2 24       		.byte	0x24
 1564 0ab3 0D       		.byte	0xd
 1565 0ab4 5B01     		.2byte	0x15b
 1566 0ab6 490B0000 		.4byte	0xb49
 1567 0aba 09       		.uleb128 0x9
 1568 0abb 0C0C0000 		.4byte	.LASF135
 1569 0abf 0D       		.byte	0xd
 1570 0ac0 5C01     		.2byte	0x15c
 1571 0ac2 A50A0000 		.4byte	0xaa5
 1572 0ac6 00       		.byte	0
 1573 0ac7 09       		.uleb128 0x9
 1574 0ac8 5D030000 		.4byte	.LASF137
 1575 0acc 0D       		.byte	0xd
 1576 0acd 5D01     		.2byte	0x15d
 1577 0acf 14070000 		.4byte	0x714
 1578 0ad3 04       		.byte	0x4
 1579 0ad4 09       		.uleb128 0x9
 1580 0ad5 73050000 		.4byte	.LASF146
 1581 0ad9 0D       		.byte	0xd
 1582 0ada 5E01     		.2byte	0x15e
 1583 0adc 14070000 		.4byte	0x714
 1584 0ae0 08       		.byte	0x8
 1585 0ae1 09       		.uleb128 0x9
 1586 0ae2 C5020000 		.4byte	.LASF147
 1587 0ae6 0D       		.byte	0xd
 1588 0ae7 5F01     		.2byte	0x15f
 1589 0ae9 14070000 		.4byte	0x714
 1590 0aed 0C       		.byte	0xc
 1591 0aee 09       		.uleb128 0x9
ARM GAS  /tmp/ccZSCmtR.s 			page 29


 1592 0aef 600D0000 		.4byte	.LASF182
 1593 0af3 0D       		.byte	0xd
 1594 0af4 6001     		.2byte	0x160
 1595 0af6 14070000 		.4byte	0x714
 1596 0afa 10       		.byte	0x10
 1597 0afb 09       		.uleb128 0x9
 1598 0afc E7080000 		.4byte	.LASF143
 1599 0b00 0D       		.byte	0xd
 1600 0b01 6101     		.2byte	0x161
 1601 0b03 14070000 		.4byte	0x714
 1602 0b07 14       		.byte	0x14
 1603 0b08 09       		.uleb128 0x9
 1604 0b09 830C0000 		.4byte	.LASF144
 1605 0b0d 0D       		.byte	0xd
 1606 0b0e 6201     		.2byte	0x162
 1607 0b10 14070000 		.4byte	0x714
 1608 0b14 18       		.byte	0x18
 1609 0b15 09       		.uleb128 0x9
 1610 0b16 35030000 		.4byte	.LASF145
 1611 0b1a 0D       		.byte	0xd
 1612 0b1b 6301     		.2byte	0x163
 1613 0b1d B5070000 		.4byte	0x7b5
 1614 0b21 1C       		.byte	0x1c
 1615 0b22 09       		.uleb128 0x9
 1616 0b23 43010000 		.4byte	.LASF148
 1617 0b27 0D       		.byte	0xd
 1618 0b28 6401     		.2byte	0x164
 1619 0b2a 47070000 		.4byte	0x747
 1620 0b2e 1D       		.byte	0x1d
 1621 0b2f 08       		.uleb128 0x8
 1622 0b30 746300   		.ascii	"tc\000"
 1623 0b33 0D       		.byte	0xd
 1624 0b34 6501     		.2byte	0x165
 1625 0b36 47070000 		.4byte	0x747
 1626 0b3a 1E       		.byte	0x1e
 1627 0b3b 09       		.uleb128 0x9
 1628 0b3c D80C0000 		.4byte	.LASF149
 1629 0b40 0D       		.byte	0xd
 1630 0b41 6601     		.2byte	0x166
 1631 0b43 14070000 		.4byte	0x714
 1632 0b47 20       		.byte	0x20
 1633 0b48 00       		.byte	0
 1634 0b49 19       		.uleb128 0x19
 1635 0b4a 370D0000 		.4byte	.LASF183
 1636 0b4e 0D       		.byte	0xd
 1637 0b4f 6701     		.2byte	0x167
 1638 0b51 B10A0000 		.4byte	0xab1
 1639 0b55 1A       		.uleb128 0x1a
 1640 0b56 01       		.byte	0x1
 1641 0b57 0D       		.byte	0xd
 1642 0b58 6A01     		.2byte	0x16a
 1643 0b5a 710B0000 		.4byte	0xb71
 1644 0b5e 18       		.uleb128 0x18
 1645 0b5f F40E0000 		.4byte	.LASF184
 1646 0b63 00       		.sleb128 0
 1647 0b64 18       		.uleb128 0x18
 1648 0b65 030F0000 		.4byte	.LASF185
ARM GAS  /tmp/ccZSCmtR.s 			page 30


 1649 0b69 01       		.sleb128 1
 1650 0b6a 18       		.uleb128 0x18
 1651 0b6b AB0C0000 		.4byte	.LASF186
 1652 0b6f 02       		.sleb128 2
 1653 0b70 00       		.byte	0
 1654 0b71 19       		.uleb128 0x19
 1655 0b72 7A0F0000 		.4byte	.LASF187
 1656 0b76 0D       		.byte	0xd
 1657 0b77 6E01     		.2byte	0x16e
 1658 0b79 550B0000 		.4byte	0xb55
 1659 0b7d 1A       		.uleb128 0x1a
 1660 0b7e 01       		.byte	0x1
 1661 0b7f 0D       		.byte	0xd
 1662 0b80 7001     		.2byte	0x170
 1663 0b82 9F0B0000 		.4byte	0xb9f
 1664 0b86 18       		.uleb128 0x18
 1665 0b87 A0010000 		.4byte	.LASF188
 1666 0b8b 00       		.sleb128 0
 1667 0b8c 18       		.uleb128 0x18
 1668 0b8d 150A0000 		.4byte	.LASF189
 1669 0b91 01       		.sleb128 1
 1670 0b92 18       		.uleb128 0x18
 1671 0b93 E8090000 		.4byte	.LASF190
 1672 0b97 02       		.sleb128 2
 1673 0b98 18       		.uleb128 0x18
 1674 0b99 770E0000 		.4byte	.LASF191
 1675 0b9d 03       		.sleb128 3
 1676 0b9e 00       		.byte	0
 1677 0b9f 19       		.uleb128 0x19
 1678 0ba0 5E090000 		.4byte	.LASF192
 1679 0ba4 0D       		.byte	0xd
 1680 0ba5 7501     		.2byte	0x175
 1681 0ba7 7D0B0000 		.4byte	0xb7d
 1682 0bab 1A       		.uleb128 0x1a
 1683 0bac 01       		.byte	0x1
 1684 0bad 0D       		.byte	0xd
 1685 0bae 7D01     		.2byte	0x17d
 1686 0bb0 C70B0000 		.4byte	0xbc7
 1687 0bb4 18       		.uleb128 0x18
 1688 0bb5 C7090000 		.4byte	.LASF193
 1689 0bb9 00       		.sleb128 0
 1690 0bba 18       		.uleb128 0x18
 1691 0bbb F4030000 		.4byte	.LASF194
 1692 0bbf 01       		.sleb128 1
 1693 0bc0 18       		.uleb128 0x18
 1694 0bc1 C1050000 		.4byte	.LASF195
 1695 0bc5 02       		.sleb128 2
 1696 0bc6 00       		.byte	0
 1697 0bc7 19       		.uleb128 0x19
 1698 0bc8 54010000 		.4byte	.LASF196
 1699 0bcc 0D       		.byte	0xd
 1700 0bcd 8101     		.2byte	0x181
 1701 0bcf AB0B0000 		.4byte	0xbab
 1702 0bd3 1A       		.uleb128 0x1a
 1703 0bd4 01       		.byte	0x1
 1704 0bd5 0D       		.byte	0xd
 1705 0bd6 8301     		.2byte	0x183
ARM GAS  /tmp/ccZSCmtR.s 			page 31


 1706 0bd8 3D0C0000 		.4byte	0xc3d
 1707 0bdc 18       		.uleb128 0x18
 1708 0bdd 540B0000 		.4byte	.LASF197
 1709 0be1 00       		.sleb128 0
 1710 0be2 18       		.uleb128 0x18
 1711 0be3 660C0000 		.4byte	.LASF198
 1712 0be7 01       		.sleb128 1
 1713 0be8 18       		.uleb128 0x18
 1714 0be9 960C0000 		.4byte	.LASF199
 1715 0bed 02       		.sleb128 2
 1716 0bee 18       		.uleb128 0x18
 1717 0bef 47030000 		.4byte	.LASF200
 1718 0bf3 03       		.sleb128 3
 1719 0bf4 18       		.uleb128 0x18
 1720 0bf5 DE0E0000 		.4byte	.LASF201
 1721 0bf9 04       		.sleb128 4
 1722 0bfa 18       		.uleb128 0x18
 1723 0bfb 07090000 		.4byte	.LASF202
 1724 0bff 05       		.sleb128 5
 1725 0c00 18       		.uleb128 0x18
 1726 0c01 690B0000 		.4byte	.LASF203
 1727 0c05 06       		.sleb128 6
 1728 0c06 18       		.uleb128 0x18
 1729 0c07 C80E0000 		.4byte	.LASF204
 1730 0c0b 07       		.sleb128 7
 1731 0c0c 18       		.uleb128 0x18
 1732 0c0d E6010000 		.4byte	.LASF205
 1733 0c11 08       		.sleb128 8
 1734 0c12 18       		.uleb128 0x18
 1735 0c13 01030000 		.4byte	.LASF206
 1736 0c17 09       		.sleb128 9
 1737 0c18 18       		.uleb128 0x18
 1738 0c19 48060000 		.4byte	.LASF207
 1739 0c1d 0A       		.sleb128 10
 1740 0c1e 18       		.uleb128 0x18
 1741 0c1f 2F090000 		.4byte	.LASF208
 1742 0c23 0B       		.sleb128 11
 1743 0c24 18       		.uleb128 0x18
 1744 0c25 B70B0000 		.4byte	.LASF209
 1745 0c29 0C       		.sleb128 12
 1746 0c2a 18       		.uleb128 0x18
 1747 0c2b 160D0000 		.4byte	.LASF210
 1748 0c2f 0D       		.sleb128 13
 1749 0c30 18       		.uleb128 0x18
 1750 0c31 4C080000 		.4byte	.LASF211
 1751 0c35 0E       		.sleb128 14
 1752 0c36 18       		.uleb128 0x18
 1753 0c37 8A010000 		.4byte	.LASF212
 1754 0c3b 0F       		.sleb128 15
 1755 0c3c 00       		.byte	0
 1756 0c3d 19       		.uleb128 0x19
 1757 0c3e BA030000 		.4byte	.LASF213
 1758 0c42 0D       		.byte	0xd
 1759 0c43 9401     		.2byte	0x194
 1760 0c45 D30B0000 		.4byte	0xbd3
 1761 0c49 1B       		.uleb128 0x1b
 1762 0c4a 0A       		.byte	0xa
ARM GAS  /tmp/ccZSCmtR.s 			page 32


 1763 0c4b 0D       		.byte	0xd
 1764 0c4c 9601     		.2byte	0x196
 1765 0c4e BB0C0000 		.4byte	0xcbb
 1766 0c52 09       		.uleb128 0x9
 1767 0c53 63010000 		.4byte	.LASF214
 1768 0c57 0D       		.byte	0xd
 1769 0c58 9701     		.2byte	0x197
 1770 0c5a 710B0000 		.4byte	0xb71
 1771 0c5e 00       		.byte	0
 1772 0c5f 09       		.uleb128 0x9
 1773 0c60 E70D0000 		.4byte	.LASF215
 1774 0c64 0D       		.byte	0xd
 1775 0c65 9801     		.2byte	0x198
 1776 0c67 9F0B0000 		.4byte	0xb9f
 1777 0c6b 01       		.byte	0x1
 1778 0c6c 09       		.uleb128 0x9
 1779 0c6d 1E030000 		.4byte	.LASF216
 1780 0c71 0D       		.byte	0xd
 1781 0c72 9901     		.2byte	0x199
 1782 0c74 C70B0000 		.4byte	0xbc7
 1783 0c78 02       		.byte	0x2
 1784 0c79 09       		.uleb128 0x9
 1785 0c7a 3C060000 		.4byte	.LASF217
 1786 0c7e 0D       		.byte	0xd
 1787 0c7f 9A01     		.2byte	0x19a
 1788 0c81 3D0C0000 		.4byte	0xc3d
 1789 0c85 03       		.byte	0x3
 1790 0c86 09       		.uleb128 0x9
 1791 0c87 ED0D0000 		.4byte	.LASF218
 1792 0c8b 0D       		.byte	0xd
 1793 0c8c 9B01     		.2byte	0x19b
 1794 0c8e 37000000 		.4byte	0x37
 1795 0c92 04       		.byte	0x4
 1796 0c93 09       		.uleb128 0x9
 1797 0c94 E0090000 		.4byte	.LASF219
 1798 0c98 0D       		.byte	0xd
 1799 0c99 9C01     		.2byte	0x19c
 1800 0c9b 37000000 		.4byte	0x37
 1801 0c9f 05       		.byte	0x5
 1802 0ca0 09       		.uleb128 0x9
 1803 0ca1 F70B0000 		.4byte	.LASF220
 1804 0ca5 0D       		.byte	0xd
 1805 0ca6 9D01     		.2byte	0x19d
 1806 0ca8 BB0C0000 		.4byte	0xcbb
 1807 0cac 06       		.byte	0x6
 1808 0cad 09       		.uleb128 0x9
 1809 0cae DA0D0000 		.4byte	.LASF221
 1810 0cb2 0D       		.byte	0xd
 1811 0cb3 9E01     		.2byte	0x19e
 1812 0cb5 47070000 		.4byte	0x747
 1813 0cb9 09       		.byte	0x9
 1814 0cba 00       		.byte	0
 1815 0cbb 15       		.uleb128 0x15
 1816 0cbc 37000000 		.4byte	0x37
 1817 0cc0 CB0C0000 		.4byte	0xccb
 1818 0cc4 16       		.uleb128 0x16
 1819 0cc5 6F040000 		.4byte	0x46f
ARM GAS  /tmp/ccZSCmtR.s 			page 33


 1820 0cc9 02       		.byte	0x2
 1821 0cca 00       		.byte	0
 1822 0ccb 19       		.uleb128 0x19
 1823 0ccc FF030000 		.4byte	.LASF222
 1824 0cd0 0D       		.byte	0xd
 1825 0cd1 9F01     		.2byte	0x19f
 1826 0cd3 490C0000 		.4byte	0xc49
 1827 0cd7 1B       		.uleb128 0x1b
 1828 0cd8 C8       		.byte	0xc8
 1829 0cd9 0D       		.byte	0xd
 1830 0cda A101     		.2byte	0x1a1
 1831 0cdc 7D0D0000 		.4byte	0xd7d
 1832 0ce0 09       		.uleb128 0x9
 1833 0ce1 81070000 		.4byte	.LASF223
 1834 0ce5 0D       		.byte	0xd
 1835 0ce6 A301     		.2byte	0x1a3
 1836 0ce8 97000000 		.4byte	0x97
 1837 0cec 00       		.byte	0
 1838 0ced 09       		.uleb128 0x9
 1839 0cee D5050000 		.4byte	.LASF224
 1840 0cf2 0D       		.byte	0xd
 1841 0cf3 A401     		.2byte	0x1a4
 1842 0cf5 AD000000 		.4byte	0xad
 1843 0cf9 04       		.byte	0x4
 1844 0cfa 09       		.uleb128 0x9
 1845 0cfb C40D0000 		.4byte	.LASF225
 1846 0cff 0D       		.byte	0xd
 1847 0d00 A501     		.2byte	0x1a5
 1848 0d02 14070000 		.4byte	0x714
 1849 0d06 08       		.byte	0x8
 1850 0d07 09       		.uleb128 0x9
 1851 0d08 20000000 		.4byte	.LASF226
 1852 0d0c 0D       		.byte	0xd
 1853 0d0d A601     		.2byte	0x1a6
 1854 0d0f 47070000 		.4byte	0x747
 1855 0d13 0C       		.byte	0xc
 1856 0d14 09       		.uleb128 0x9
 1857 0d15 8F070000 		.4byte	.LASF227
 1858 0d19 0D       		.byte	0xd
 1859 0d1a A701     		.2byte	0x1a7
 1860 0d1c AD000000 		.4byte	0xad
 1861 0d20 10       		.byte	0x10
 1862 0d21 09       		.uleb128 0x9
 1863 0d22 1D0B0000 		.4byte	.LASF228
 1864 0d26 0D       		.byte	0xd
 1865 0d27 A801     		.2byte	0x1a8
 1866 0d29 3C070000 		.4byte	0x73c
 1867 0d2d 14       		.byte	0x14
 1868 0d2e 09       		.uleb128 0x9
 1869 0d2f 2A060000 		.4byte	.LASF229
 1870 0d33 0D       		.byte	0xd
 1871 0d34 AB01     		.2byte	0x1ab
 1872 0d36 8D070000 		.4byte	0x78d
 1873 0d3a 15       		.byte	0x15
 1874 0d3b 09       		.uleb128 0x9
 1875 0d3c 08010000 		.4byte	.LASF230
 1876 0d40 0D       		.byte	0xd
ARM GAS  /tmp/ccZSCmtR.s 			page 34


 1877 0d41 AE01     		.2byte	0x1ae
 1878 0d43 E0080000 		.4byte	0x8e0
 1879 0d47 18       		.byte	0x18
 1880 0d48 09       		.uleb128 0x9
 1881 0d49 860E0000 		.4byte	.LASF231
 1882 0d4d 0D       		.byte	0xd
 1883 0d4e B101     		.2byte	0x1b1
 1884 0d50 7D0A0000 		.4byte	0xa7d
 1885 0d54 50       		.byte	0x50
 1886 0d55 09       		.uleb128 0x9
 1887 0d56 C60C0000 		.4byte	.LASF232
 1888 0d5a 0D       		.byte	0xd
 1889 0d5b B401     		.2byte	0x1b4
 1890 0d5d AD000000 		.4byte	0xad
 1891 0d61 94       		.byte	0x94
 1892 0d62 09       		.uleb128 0x9
 1893 0d63 95090000 		.4byte	.LASF233
 1894 0d67 0D       		.byte	0xd
 1895 0d68 B701     		.2byte	0x1b7
 1896 0d6a 490B0000 		.4byte	0xb49
 1897 0d6e 98       		.byte	0x98
 1898 0d6f 09       		.uleb128 0x9
 1899 0d70 D3020000 		.4byte	.LASF234
 1900 0d74 0D       		.byte	0xd
 1901 0d75 BA01     		.2byte	0x1ba
 1902 0d77 CB0C0000 		.4byte	0xccb
 1903 0d7b BC       		.byte	0xbc
 1904 0d7c 00       		.byte	0
 1905 0d7d 19       		.uleb128 0x19
 1906 0d7e 5E060000 		.4byte	.LASF235
 1907 0d82 0D       		.byte	0xd
 1908 0d83 BB01     		.2byte	0x1bb
 1909 0d85 D70C0000 		.4byte	0xcd7
 1910 0d89 1C       		.uleb128 0x1c
 1911 0d8a 1D0F0000 		.4byte	.LASF259
 1912 0d8e 01       		.byte	0x1
 1913 0d8f 1F       		.byte	0x1f
 1914 0d90 9E0D0000 		.4byte	0xd9e
 1915 0d94 00000000 		.4byte	.LFB256
 1916 0d98 08000000 		.4byte	.LFE256-.LFB256
 1917 0d9c 01       		.uleb128 0x1
 1918 0d9d 9C       		.byte	0x9c
 1919 0d9e 0A       		.uleb128 0xa
 1920 0d9f 04       		.byte	0x4
 1921 0da0 A40D0000 		.4byte	0xda4
 1922 0da4 14       		.uleb128 0x14
 1923 0da5 7D0D0000 		.4byte	0xd7d
 1924 0da9 1D       		.uleb128 0x1d
 1925 0daa 420E0000 		.4byte	.LASF260
 1926 0dae 01       		.byte	0x1
 1927 0daf 29       		.byte	0x29
 1928 0db0 00000000 		.4byte	.LFB257
 1929 0db4 CC000000 		.4byte	.LFE257-.LFB257
 1930 0db8 01       		.uleb128 0x1
 1931 0db9 9C       		.byte	0x9c
 1932 0dba 150F0000 		.4byte	0xf15
 1933 0dbe 1E       		.uleb128 0x1e
ARM GAS  /tmp/ccZSCmtR.s 			page 35


 1934 0dbf 66000000 		.4byte	.LASF261
 1935 0dc3 01       		.byte	0x1
 1936 0dc4 29       		.byte	0x29
 1937 0dc5 150F0000 		.4byte	0xf15
 1938 0dc9 00000000 		.4byte	.LLST0
 1939 0dcd 1F       		.uleb128 0x1f
 1940 0dce 10000000 		.4byte	.LVL2
 1941 0dd2 4E0F0000 		.4byte	0xf4e
 1942 0dd6 F00D0000 		.4byte	0xdf0
 1943 0dda 20       		.uleb128 0x20
 1944 0ddb 01       		.uleb128 0x1
 1945 0ddc 52       		.byte	0x52
 1946 0ddd 02       		.uleb128 0x2
 1947 0dde 08       		.byte	0x8
 1948 0ddf C8       		.byte	0xc8
 1949 0de0 20       		.uleb128 0x20
 1950 0de1 01       		.uleb128 0x1
 1951 0de2 51       		.byte	0x51
 1952 0de3 02       		.uleb128 0x2
 1953 0de4 75       		.byte	0x75
 1954 0de5 00       		.sleb128 0
 1955 0de6 20       		.uleb128 0x20
 1956 0de7 01       		.uleb128 0x1
 1957 0de8 50       		.byte	0x50
 1958 0de9 05       		.uleb128 0x5
 1959 0dea 03       		.byte	0x3
 1960 0deb 00000000 		.4byte	.LANCHOR0
 1961 0def 00       		.byte	0
 1962 0df0 21       		.uleb128 0x21
 1963 0df1 14000000 		.4byte	.LVL3
 1964 0df5 720F0000 		.4byte	0xf72
 1965 0df9 21       		.uleb128 0x21
 1966 0dfa 18000000 		.4byte	.LVL4
 1967 0dfe 790F0000 		.4byte	0xf79
 1968 0e02 21       		.uleb128 0x21
 1969 0e03 1C000000 		.4byte	.LVL5
 1970 0e07 800F0000 		.4byte	0xf80
 1971 0e0b 21       		.uleb128 0x21
 1972 0e0c 20000000 		.4byte	.LVL6
 1973 0e10 870F0000 		.4byte	0xf87
 1974 0e14 21       		.uleb128 0x21
 1975 0e15 2C000000 		.4byte	.LVL7
 1976 0e19 8E0F0000 		.4byte	0xf8e
 1977 0e1d 21       		.uleb128 0x21
 1978 0e1e 44000000 		.4byte	.LVL8
 1979 0e22 9F0F0000 		.4byte	0xf9f
 1980 0e26 1F       		.uleb128 0x1f
 1981 0e27 4A000000 		.4byte	.LVL9
 1982 0e2b A60F0000 		.4byte	0xfa6
 1983 0e2f 3D0E0000 		.4byte	0xe3d
 1984 0e33 20       		.uleb128 0x20
 1985 0e34 01       		.uleb128 0x1
 1986 0e35 50       		.byte	0x50
 1987 0e36 05       		.uleb128 0x5
 1988 0e37 03       		.byte	0x3
 1989 0e38 18000000 		.4byte	.LANCHOR0+24
 1990 0e3c 00       		.byte	0
ARM GAS  /tmp/ccZSCmtR.s 			page 36


 1991 0e3d 1F       		.uleb128 0x1f
 1992 0e3e 50000000 		.4byte	.LVL10
 1993 0e42 BD0F0000 		.4byte	0xfbd
 1994 0e46 540E0000 		.4byte	0xe54
 1995 0e4a 20       		.uleb128 0x20
 1996 0e4b 01       		.uleb128 0x1
 1997 0e4c 50       		.byte	0x50
 1998 0e4d 05       		.uleb128 0x5
 1999 0e4e 03       		.byte	0x3
 2000 0e4f 50000000 		.4byte	.LANCHOR0+80
 2001 0e53 00       		.byte	0
 2002 0e54 21       		.uleb128 0x21
 2003 0e55 58000000 		.4byte	.LVL11
 2004 0e59 D40F0000 		.4byte	0xfd4
 2005 0e5d 1F       		.uleb128 0x1f
 2006 0e5e 5E000000 		.4byte	.LVL12
 2007 0e62 E50F0000 		.4byte	0xfe5
 2008 0e66 740E0000 		.4byte	0xe74
 2009 0e6a 20       		.uleb128 0x20
 2010 0e6b 01       		.uleb128 0x1
 2011 0e6c 50       		.byte	0x50
 2012 0e6d 05       		.uleb128 0x5
 2013 0e6e 03       		.byte	0x3
 2014 0e6f 98000000 		.4byte	.LANCHOR0+152
 2015 0e73 00       		.byte	0
 2016 0e74 22       		.uleb128 0x22
 2017 0e75 68000000 		.4byte	.LVL14
 2018 0e79 FC0F0000 		.4byte	0xffc
 2019 0e7d 8B0E0000 		.4byte	0xe8b
 2020 0e81 20       		.uleb128 0x20
 2021 0e82 01       		.uleb128 0x1
 2022 0e83 50       		.byte	0x50
 2023 0e84 05       		.uleb128 0x5
 2024 0e85 03       		.byte	0x3
 2025 0e86 BC000000 		.4byte	.LANCHOR0+188
 2026 0e8a 00       		.byte	0
 2027 0e8b 21       		.uleb128 0x21
 2028 0e8c 6C000000 		.4byte	.LVL15
 2029 0e90 13100000 		.4byte	0x1013
 2030 0e94 21       		.uleb128 0x21
 2031 0e95 78000000 		.4byte	.LVL16
 2032 0e99 1A100000 		.4byte	0x101a
 2033 0e9d 21       		.uleb128 0x21
 2034 0e9e 7C000000 		.4byte	.LVL17
 2035 0ea2 25100000 		.4byte	0x1025
 2036 0ea6 1F       		.uleb128 0x1f
 2037 0ea7 84000000 		.4byte	.LVL18
 2038 0eab 2C100000 		.4byte	0x102c
 2039 0eaf B90E0000 		.4byte	0xeb9
 2040 0eb3 20       		.uleb128 0x20
 2041 0eb4 01       		.uleb128 0x1
 2042 0eb5 50       		.byte	0x50
 2043 0eb6 01       		.uleb128 0x1
 2044 0eb7 31       		.byte	0x31
 2045 0eb8 00       		.byte	0
 2046 0eb9 21       		.uleb128 0x21
 2047 0eba 8A000000 		.4byte	.LVL19
ARM GAS  /tmp/ccZSCmtR.s 			page 37


 2048 0ebe 3D100000 		.4byte	0x103d
 2049 0ec2 21       		.uleb128 0x21
 2050 0ec3 8E000000 		.4byte	.LVL20
 2051 0ec7 44100000 		.4byte	0x1044
 2052 0ecb 21       		.uleb128 0x21
 2053 0ecc 94000000 		.4byte	.LVL21
 2054 0ed0 3D100000 		.4byte	0x103d
 2055 0ed4 21       		.uleb128 0x21
 2056 0ed5 98000000 		.4byte	.LVL22
 2057 0ed9 9F0F0000 		.4byte	0xf9f
 2058 0edd 21       		.uleb128 0x21
 2059 0ede 9C000000 		.4byte	.LVL23
 2060 0ee2 44100000 		.4byte	0x1044
 2061 0ee6 21       		.uleb128 0x21
 2062 0ee7 A2000000 		.4byte	.LVL24
 2063 0eeb 3D100000 		.4byte	0x103d
 2064 0eef 1F       		.uleb128 0x1f
 2065 0ef0 A8000000 		.4byte	.LVL25
 2066 0ef4 2C100000 		.4byte	0x102c
 2067 0ef8 020F0000 		.4byte	0xf02
 2068 0efc 20       		.uleb128 0x20
 2069 0efd 01       		.uleb128 0x1
 2070 0efe 50       		.byte	0x50
 2071 0eff 01       		.uleb128 0x1
 2072 0f00 30       		.byte	0x30
 2073 0f01 00       		.byte	0
 2074 0f02 21       		.uleb128 0x21
 2075 0f03 AC000000 		.4byte	.LVL26
 2076 0f07 44100000 		.4byte	0x1044
 2077 0f0b 21       		.uleb128 0x21
 2078 0f0c B2000000 		.4byte	.LVL27
 2079 0f10 4B100000 		.4byte	0x104b
 2080 0f14 00       		.byte	0
 2081 0f15 0A       		.uleb128 0xa
 2082 0f16 04       		.byte	0x4
 2083 0f17 7D0D0000 		.4byte	0xd7d
 2084 0f1b 23       		.uleb128 0x23
 2085 0f1c 5E0C0000 		.4byte	.LASF262
 2086 0f20 01       		.byte	0x1
 2087 0f21 1D       		.byte	0x1d
 2088 0f22 7D0D0000 		.4byte	0xd7d
 2089 0f26 05       		.uleb128 0x5
 2090 0f27 03       		.byte	0x3
 2091 0f28 00000000 		.4byte	appconf
 2092 0f2c 24       		.uleb128 0x24
 2093 0f2d AC0A0000 		.4byte	.LASF236
 2094 0f31 0E       		.byte	0xe
 2095 0f32 A706     		.2byte	0x6a7
 2096 0f34 CE000000 		.4byte	0xce
 2097 0f38 25       		.uleb128 0x25
 2098 0f39 636800   		.ascii	"ch\000"
 2099 0f3c 07       		.byte	0x7
 2100 0f3d 0902     		.2byte	0x209
 2101 0f3f 08040000 		.4byte	0x408
 2102 0f43 26       		.uleb128 0x26
 2103 0f44 69010000 		.4byte	.LASF237
 2104 0f48 0F       		.byte	0xf
ARM GAS  /tmp/ccZSCmtR.s 			page 38


 2105 0f49 A0       		.byte	0xa0
 2106 0f4a 47070000 		.4byte	0x747
 2107 0f4e 27       		.uleb128 0x27
 2108 0f4f 700E0000 		.4byte	.LASF242
 2109 0f53 39030000 		.4byte	0x339
 2110 0f57 6B0F0000 		.4byte	0xf6b
 2111 0f5b 0D       		.uleb128 0xd
 2112 0f5c 39030000 		.4byte	0x339
 2113 0f60 0D       		.uleb128 0xd
 2114 0f61 6B0F0000 		.4byte	0xf6b
 2115 0f65 0D       		.uleb128 0xd
 2116 0f66 6F040000 		.4byte	0x46f
 2117 0f6a 00       		.byte	0
 2118 0f6b 0A       		.uleb128 0xa
 2119 0f6c 04       		.byte	0x4
 2120 0f6d 710F0000 		.4byte	0xf71
 2121 0f71 28       		.uleb128 0x28
 2122 0f72 29       		.uleb128 0x29
 2123 0f73 0F060000 		.4byte	.LASF238
 2124 0f77 10       		.byte	0x10
 2125 0f78 1F       		.byte	0x1f
 2126 0f79 29       		.uleb128 0x29
 2127 0f7a 6F030000 		.4byte	.LASF239
 2128 0f7e 10       		.byte	0x10
 2129 0f7f 24       		.byte	0x24
 2130 0f80 29       		.uleb128 0x29
 2131 0f81 12020000 		.4byte	.LASF240
 2132 0f85 10       		.byte	0x10
 2133 0f86 2C       		.byte	0x2c
 2134 0f87 29       		.uleb128 0x29
 2135 0f88 2B0B0000 		.4byte	.LASF241
 2136 0f8c 10       		.byte	0x10
 2137 0f8d 30       		.byte	0x30
 2138 0f8e 2A       		.uleb128 0x2a
 2139 0f8f A60D0000 		.4byte	.LASF243
 2140 0f93 11       		.byte	0x11
 2141 0f94 1F       		.byte	0x1f
 2142 0f95 9F0F0000 		.4byte	0xf9f
 2143 0f99 0D       		.uleb128 0xd
 2144 0f9a 3C070000 		.4byte	0x73c
 2145 0f9e 00       		.byte	0
 2146 0f9f 29       		.uleb128 0x29
 2147 0fa0 460B0000 		.4byte	.LASF244
 2148 0fa4 10       		.byte	0x10
 2149 0fa5 1E       		.byte	0x1e
 2150 0fa6 2A       		.uleb128 0x2a
 2151 0fa7 0A040000 		.4byte	.LASF245
 2152 0fab 10       		.byte	0x10
 2153 0fac 21       		.byte	0x21
 2154 0fad B70F0000 		.4byte	0xfb7
 2155 0fb1 0D       		.uleb128 0xd
 2156 0fb2 B70F0000 		.4byte	0xfb7
 2157 0fb6 00       		.byte	0
 2158 0fb7 0A       		.uleb128 0xa
 2159 0fb8 04       		.byte	0x4
 2160 0fb9 E0080000 		.4byte	0x8e0
 2161 0fbd 2A       		.uleb128 0x2a
ARM GAS  /tmp/ccZSCmtR.s 			page 39


 2162 0fbe 9E060000 		.4byte	.LASF246
 2163 0fc2 10       		.byte	0x10
 2164 0fc3 25       		.byte	0x25
 2165 0fc4 CE0F0000 		.4byte	0xfce
 2166 0fc8 0D       		.uleb128 0xd
 2167 0fc9 CE0F0000 		.4byte	0xfce
 2168 0fcd 00       		.byte	0
 2169 0fce 0A       		.uleb128 0xa
 2170 0fcf 04       		.byte	0x4
 2171 0fd0 7D0A0000 		.4byte	0xa7d
 2172 0fd4 2A       		.uleb128 0x2a
 2173 0fd5 7F0D0000 		.4byte	.LASF247
 2174 0fd9 10       		.byte	0x10
 2175 0fda 2D       		.byte	0x2d
 2176 0fdb E50F0000 		.4byte	0xfe5
 2177 0fdf 0D       		.uleb128 0xd
 2178 0fe0 AD000000 		.4byte	0xad
 2179 0fe4 00       		.byte	0
 2180 0fe5 2A       		.uleb128 0x2a
 2181 0fe6 080E0000 		.4byte	.LASF248
 2182 0fea 10       		.byte	0x10
 2183 0feb 31       		.byte	0x31
 2184 0fec F60F0000 		.4byte	0xff6
 2185 0ff0 0D       		.uleb128 0xd
 2186 0ff1 F60F0000 		.4byte	0xff6
 2187 0ff5 00       		.byte	0
 2188 0ff6 0A       		.uleb128 0xa
 2189 0ff7 04       		.byte	0x4
 2190 0ff8 490B0000 		.4byte	0xb49
 2191 0ffc 2A       		.uleb128 0x2a
 2192 0ffd 9D000000 		.4byte	.LASF249
 2193 1001 12       		.byte	0x12
 2194 1002 1D       		.byte	0x1d
 2195 1003 0D100000 		.4byte	0x100d
 2196 1007 0D       		.uleb128 0xd
 2197 1008 0D100000 		.4byte	0x100d
 2198 100c 00       		.byte	0
 2199 100d 0A       		.uleb128 0xa
 2200 100e 04       		.byte	0x4
 2201 100f CB0C0000 		.4byte	0xccb
 2202 1013 29       		.uleb128 0x29
 2203 1014 960D0000 		.4byte	.LASF250
 2204 1018 13       		.byte	0x13
 2205 1019 1B       		.byte	0x1b
 2206 101a 2B       		.uleb128 0x2b
 2207 101b B1050000 		.4byte	.LASF263
 2208 101f 13       		.byte	0x13
 2209 1020 1A       		.byte	0x1a
 2210 1021 47070000 		.4byte	0x747
 2211 1025 29       		.uleb128 0x29
 2212 1026 73090000 		.4byte	.LASF251
 2213 102a 12       		.byte	0x12
 2214 102b 1E       		.byte	0x1e
 2215 102c 2A       		.uleb128 0x2a
 2216 102d 62080000 		.4byte	.LASF252
 2217 1031 10       		.byte	0x10
 2218 1032 23       		.byte	0x23
ARM GAS  /tmp/ccZSCmtR.s 			page 40


 2219 1033 3D100000 		.4byte	0x103d
 2220 1037 0D       		.uleb128 0xd
 2221 1038 47070000 		.4byte	0x747
 2222 103c 00       		.byte	0
 2223 103d 29       		.uleb128 0x29
 2224 103e B90A0000 		.4byte	.LASF253
 2225 1042 14       		.byte	0x14
 2226 1043 42       		.byte	0x42
 2227 1044 29       		.uleb128 0x29
 2228 1045 4D0D0000 		.4byte	.LASF254
 2229 1049 10       		.byte	0x10
 2230 104a 2B       		.byte	0x2b
 2231 104b 29       		.uleb128 0x29
 2232 104c 5C0A0000 		.4byte	.LASF255
 2233 1050 10       		.byte	0x10
 2234 1051 2F       		.byte	0x2f
 2235 1052 00       		.byte	0
 2236              		.section	.debug_abbrev,"",%progbits
 2237              	.Ldebug_abbrev0:
 2238 0000 01       		.uleb128 0x1
 2239 0001 11       		.uleb128 0x11
 2240 0002 01       		.byte	0x1
 2241 0003 25       		.uleb128 0x25
 2242 0004 0E       		.uleb128 0xe
 2243 0005 13       		.uleb128 0x13
 2244 0006 0B       		.uleb128 0xb
 2245 0007 03       		.uleb128 0x3
 2246 0008 0E       		.uleb128 0xe
 2247 0009 1B       		.uleb128 0x1b
 2248 000a 0E       		.uleb128 0xe
 2249 000b 55       		.uleb128 0x55
 2250 000c 17       		.uleb128 0x17
 2251 000d 11       		.uleb128 0x11
 2252 000e 01       		.uleb128 0x1
 2253 000f 10       		.uleb128 0x10
 2254 0010 17       		.uleb128 0x17
 2255 0011 00       		.byte	0
 2256 0012 00       		.byte	0
 2257 0013 02       		.uleb128 0x2
 2258 0014 24       		.uleb128 0x24
 2259 0015 00       		.byte	0
 2260 0016 0B       		.uleb128 0xb
 2261 0017 0B       		.uleb128 0xb
 2262 0018 3E       		.uleb128 0x3e
 2263 0019 0B       		.uleb128 0xb
 2264 001a 03       		.uleb128 0x3
 2265 001b 0E       		.uleb128 0xe
 2266 001c 00       		.byte	0
 2267 001d 00       		.byte	0
 2268 001e 03       		.uleb128 0x3
 2269 001f 16       		.uleb128 0x16
 2270 0020 00       		.byte	0
 2271 0021 03       		.uleb128 0x3
 2272 0022 0E       		.uleb128 0xe
 2273 0023 3A       		.uleb128 0x3a
 2274 0024 0B       		.uleb128 0xb
 2275 0025 3B       		.uleb128 0x3b
ARM GAS  /tmp/ccZSCmtR.s 			page 41


 2276 0026 0B       		.uleb128 0xb
 2277 0027 49       		.uleb128 0x49
 2278 0028 13       		.uleb128 0x13
 2279 0029 00       		.byte	0
 2280 002a 00       		.byte	0
 2281 002b 04       		.uleb128 0x4
 2282 002c 24       		.uleb128 0x24
 2283 002d 00       		.byte	0
 2284 002e 0B       		.uleb128 0xb
 2285 002f 0B       		.uleb128 0xb
 2286 0030 3E       		.uleb128 0x3e
 2287 0031 0B       		.uleb128 0xb
 2288 0032 03       		.uleb128 0x3
 2289 0033 08       		.uleb128 0x8
 2290 0034 00       		.byte	0
 2291 0035 00       		.byte	0
 2292 0036 05       		.uleb128 0x5
 2293 0037 35       		.uleb128 0x35
 2294 0038 00       		.byte	0
 2295 0039 49       		.uleb128 0x49
 2296 003a 13       		.uleb128 0x13
 2297 003b 00       		.byte	0
 2298 003c 00       		.byte	0
 2299 003d 06       		.uleb128 0x6
 2300 003e 13       		.uleb128 0x13
 2301 003f 01       		.byte	0x1
 2302 0040 03       		.uleb128 0x3
 2303 0041 0E       		.uleb128 0xe
 2304 0042 0B       		.uleb128 0xb
 2305 0043 0B       		.uleb128 0xb
 2306 0044 3A       		.uleb128 0x3a
 2307 0045 0B       		.uleb128 0xb
 2308 0046 3B       		.uleb128 0x3b
 2309 0047 0B       		.uleb128 0xb
 2310 0048 01       		.uleb128 0x1
 2311 0049 13       		.uleb128 0x13
 2312 004a 00       		.byte	0
 2313 004b 00       		.byte	0
 2314 004c 07       		.uleb128 0x7
 2315 004d 0D       		.uleb128 0xd
 2316 004e 00       		.byte	0
 2317 004f 03       		.uleb128 0x3
 2318 0050 0E       		.uleb128 0xe
 2319 0051 3A       		.uleb128 0x3a
 2320 0052 0B       		.uleb128 0xb
 2321 0053 3B       		.uleb128 0x3b
 2322 0054 0B       		.uleb128 0xb
 2323 0055 49       		.uleb128 0x49
 2324 0056 13       		.uleb128 0x13
 2325 0057 38       		.uleb128 0x38
 2326 0058 0B       		.uleb128 0xb
 2327 0059 00       		.byte	0
 2328 005a 00       		.byte	0
 2329 005b 08       		.uleb128 0x8
 2330 005c 0D       		.uleb128 0xd
 2331 005d 00       		.byte	0
 2332 005e 03       		.uleb128 0x3
ARM GAS  /tmp/ccZSCmtR.s 			page 42


 2333 005f 08       		.uleb128 0x8
 2334 0060 3A       		.uleb128 0x3a
 2335 0061 0B       		.uleb128 0xb
 2336 0062 3B       		.uleb128 0x3b
 2337 0063 05       		.uleb128 0x5
 2338 0064 49       		.uleb128 0x49
 2339 0065 13       		.uleb128 0x13
 2340 0066 38       		.uleb128 0x38
 2341 0067 0B       		.uleb128 0xb
 2342 0068 00       		.byte	0
 2343 0069 00       		.byte	0
 2344 006a 09       		.uleb128 0x9
 2345 006b 0D       		.uleb128 0xd
 2346 006c 00       		.byte	0
 2347 006d 03       		.uleb128 0x3
 2348 006e 0E       		.uleb128 0xe
 2349 006f 3A       		.uleb128 0x3a
 2350 0070 0B       		.uleb128 0xb
 2351 0071 3B       		.uleb128 0x3b
 2352 0072 05       		.uleb128 0x5
 2353 0073 49       		.uleb128 0x49
 2354 0074 13       		.uleb128 0x13
 2355 0075 38       		.uleb128 0x38
 2356 0076 0B       		.uleb128 0xb
 2357 0077 00       		.byte	0
 2358 0078 00       		.byte	0
 2359 0079 0A       		.uleb128 0xa
 2360 007a 0F       		.uleb128 0xf
 2361 007b 00       		.byte	0
 2362 007c 0B       		.uleb128 0xb
 2363 007d 0B       		.uleb128 0xb
 2364 007e 49       		.uleb128 0x49
 2365 007f 13       		.uleb128 0x13
 2366 0080 00       		.byte	0
 2367 0081 00       		.byte	0
 2368 0082 0B       		.uleb128 0xb
 2369 0083 13       		.uleb128 0x13
 2370 0084 01       		.byte	0x1
 2371 0085 03       		.uleb128 0x3
 2372 0086 0E       		.uleb128 0xe
 2373 0087 0B       		.uleb128 0xb
 2374 0088 0B       		.uleb128 0xb
 2375 0089 3A       		.uleb128 0x3a
 2376 008a 0B       		.uleb128 0xb
 2377 008b 3B       		.uleb128 0x3b
 2378 008c 05       		.uleb128 0x5
 2379 008d 01       		.uleb128 0x1
 2380 008e 13       		.uleb128 0x13
 2381 008f 00       		.byte	0
 2382 0090 00       		.byte	0
 2383 0091 0C       		.uleb128 0xc
 2384 0092 15       		.uleb128 0x15
 2385 0093 01       		.byte	0x1
 2386 0094 27       		.uleb128 0x27
 2387 0095 19       		.uleb128 0x19
 2388 0096 01       		.uleb128 0x1
 2389 0097 13       		.uleb128 0x13
ARM GAS  /tmp/ccZSCmtR.s 			page 43


 2390 0098 00       		.byte	0
 2391 0099 00       		.byte	0
 2392 009a 0D       		.uleb128 0xd
 2393 009b 05       		.uleb128 0x5
 2394 009c 00       		.byte	0
 2395 009d 49       		.uleb128 0x49
 2396 009e 13       		.uleb128 0x13
 2397 009f 00       		.byte	0
 2398 00a0 00       		.byte	0
 2399 00a1 0E       		.uleb128 0xe
 2400 00a2 0F       		.uleb128 0xf
 2401 00a3 00       		.byte	0
 2402 00a4 0B       		.uleb128 0xb
 2403 00a5 0B       		.uleb128 0xb
 2404 00a6 00       		.byte	0
 2405 00a7 00       		.byte	0
 2406 00a8 0F       		.uleb128 0xf
 2407 00a9 13       		.uleb128 0x13
 2408 00aa 01       		.byte	0x1
 2409 00ab 03       		.uleb128 0x3
 2410 00ac 0E       		.uleb128 0xe
 2411 00ad 0B       		.uleb128 0xb
 2412 00ae 05       		.uleb128 0x5
 2413 00af 3A       		.uleb128 0x3a
 2414 00b0 0B       		.uleb128 0xb
 2415 00b1 3B       		.uleb128 0x3b
 2416 00b2 05       		.uleb128 0x5
 2417 00b3 01       		.uleb128 0x1
 2418 00b4 13       		.uleb128 0x13
 2419 00b5 00       		.byte	0
 2420 00b6 00       		.byte	0
 2421 00b7 10       		.uleb128 0x10
 2422 00b8 0D       		.uleb128 0xd
 2423 00b9 00       		.byte	0
 2424 00ba 03       		.uleb128 0x3
 2425 00bb 08       		.uleb128 0x8
 2426 00bc 3A       		.uleb128 0x3a
 2427 00bd 0B       		.uleb128 0xb
 2428 00be 3B       		.uleb128 0x3b
 2429 00bf 0B       		.uleb128 0xb
 2430 00c0 49       		.uleb128 0x49
 2431 00c1 13       		.uleb128 0x13
 2432 00c2 38       		.uleb128 0x38
 2433 00c3 0B       		.uleb128 0xb
 2434 00c4 00       		.byte	0
 2435 00c5 00       		.byte	0
 2436 00c6 11       		.uleb128 0x11
 2437 00c7 13       		.uleb128 0x13
 2438 00c8 01       		.byte	0x1
 2439 00c9 0B       		.uleb128 0xb
 2440 00ca 0B       		.uleb128 0xb
 2441 00cb 3A       		.uleb128 0x3a
 2442 00cc 0B       		.uleb128 0xb
 2443 00cd 3B       		.uleb128 0x3b
 2444 00ce 0B       		.uleb128 0xb
 2445 00cf 01       		.uleb128 0x1
 2446 00d0 13       		.uleb128 0x13
ARM GAS  /tmp/ccZSCmtR.s 			page 44


 2447 00d1 00       		.byte	0
 2448 00d2 00       		.byte	0
 2449 00d3 12       		.uleb128 0x12
 2450 00d4 17       		.uleb128 0x17
 2451 00d5 01       		.byte	0x1
 2452 00d6 0B       		.uleb128 0xb
 2453 00d7 0B       		.uleb128 0xb
 2454 00d8 3A       		.uleb128 0x3a
 2455 00d9 0B       		.uleb128 0xb
 2456 00da 3B       		.uleb128 0x3b
 2457 00db 0B       		.uleb128 0xb
 2458 00dc 01       		.uleb128 0x1
 2459 00dd 13       		.uleb128 0x13
 2460 00de 00       		.byte	0
 2461 00df 00       		.byte	0
 2462 00e0 13       		.uleb128 0x13
 2463 00e1 0D       		.uleb128 0xd
 2464 00e2 00       		.byte	0
 2465 00e3 03       		.uleb128 0x3
 2466 00e4 0E       		.uleb128 0xe
 2467 00e5 3A       		.uleb128 0x3a
 2468 00e6 0B       		.uleb128 0xb
 2469 00e7 3B       		.uleb128 0x3b
 2470 00e8 05       		.uleb128 0x5
 2471 00e9 49       		.uleb128 0x49
 2472 00ea 13       		.uleb128 0x13
 2473 00eb 00       		.byte	0
 2474 00ec 00       		.byte	0
 2475 00ed 14       		.uleb128 0x14
 2476 00ee 26       		.uleb128 0x26
 2477 00ef 00       		.byte	0
 2478 00f0 49       		.uleb128 0x49
 2479 00f1 13       		.uleb128 0x13
 2480 00f2 00       		.byte	0
 2481 00f3 00       		.byte	0
 2482 00f4 15       		.uleb128 0x15
 2483 00f5 01       		.uleb128 0x1
 2484 00f6 01       		.byte	0x1
 2485 00f7 49       		.uleb128 0x49
 2486 00f8 13       		.uleb128 0x13
 2487 00f9 01       		.uleb128 0x1
 2488 00fa 13       		.uleb128 0x13
 2489 00fb 00       		.byte	0
 2490 00fc 00       		.byte	0
 2491 00fd 16       		.uleb128 0x16
 2492 00fe 21       		.uleb128 0x21
 2493 00ff 00       		.byte	0
 2494 0100 49       		.uleb128 0x49
 2495 0101 13       		.uleb128 0x13
 2496 0102 2F       		.uleb128 0x2f
 2497 0103 0B       		.uleb128 0xb
 2498 0104 00       		.byte	0
 2499 0105 00       		.byte	0
 2500 0106 17       		.uleb128 0x17
 2501 0107 04       		.uleb128 0x4
 2502 0108 01       		.byte	0x1
 2503 0109 0B       		.uleb128 0xb
ARM GAS  /tmp/ccZSCmtR.s 			page 45


 2504 010a 0B       		.uleb128 0xb
 2505 010b 3A       		.uleb128 0x3a
 2506 010c 0B       		.uleb128 0xb
 2507 010d 3B       		.uleb128 0x3b
 2508 010e 0B       		.uleb128 0xb
 2509 010f 01       		.uleb128 0x1
 2510 0110 13       		.uleb128 0x13
 2511 0111 00       		.byte	0
 2512 0112 00       		.byte	0
 2513 0113 18       		.uleb128 0x18
 2514 0114 28       		.uleb128 0x28
 2515 0115 00       		.byte	0
 2516 0116 03       		.uleb128 0x3
 2517 0117 0E       		.uleb128 0xe
 2518 0118 1C       		.uleb128 0x1c
 2519 0119 0D       		.uleb128 0xd
 2520 011a 00       		.byte	0
 2521 011b 00       		.byte	0
 2522 011c 19       		.uleb128 0x19
 2523 011d 16       		.uleb128 0x16
 2524 011e 00       		.byte	0
 2525 011f 03       		.uleb128 0x3
 2526 0120 0E       		.uleb128 0xe
 2527 0121 3A       		.uleb128 0x3a
 2528 0122 0B       		.uleb128 0xb
 2529 0123 3B       		.uleb128 0x3b
 2530 0124 05       		.uleb128 0x5
 2531 0125 49       		.uleb128 0x49
 2532 0126 13       		.uleb128 0x13
 2533 0127 00       		.byte	0
 2534 0128 00       		.byte	0
 2535 0129 1A       		.uleb128 0x1a
 2536 012a 04       		.uleb128 0x4
 2537 012b 01       		.byte	0x1
 2538 012c 0B       		.uleb128 0xb
 2539 012d 0B       		.uleb128 0xb
 2540 012e 3A       		.uleb128 0x3a
 2541 012f 0B       		.uleb128 0xb
 2542 0130 3B       		.uleb128 0x3b
 2543 0131 05       		.uleb128 0x5
 2544 0132 01       		.uleb128 0x1
 2545 0133 13       		.uleb128 0x13
 2546 0134 00       		.byte	0
 2547 0135 00       		.byte	0
 2548 0136 1B       		.uleb128 0x1b
 2549 0137 13       		.uleb128 0x13
 2550 0138 01       		.byte	0x1
 2551 0139 0B       		.uleb128 0xb
 2552 013a 0B       		.uleb128 0xb
 2553 013b 3A       		.uleb128 0x3a
 2554 013c 0B       		.uleb128 0xb
 2555 013d 3B       		.uleb128 0x3b
 2556 013e 05       		.uleb128 0x5
 2557 013f 01       		.uleb128 0x1
 2558 0140 13       		.uleb128 0x13
 2559 0141 00       		.byte	0
 2560 0142 00       		.byte	0
ARM GAS  /tmp/ccZSCmtR.s 			page 46


 2561 0143 1C       		.uleb128 0x1c
 2562 0144 2E       		.uleb128 0x2e
 2563 0145 00       		.byte	0
 2564 0146 3F       		.uleb128 0x3f
 2565 0147 19       		.uleb128 0x19
 2566 0148 03       		.uleb128 0x3
 2567 0149 0E       		.uleb128 0xe
 2568 014a 3A       		.uleb128 0x3a
 2569 014b 0B       		.uleb128 0xb
 2570 014c 3B       		.uleb128 0x3b
 2571 014d 0B       		.uleb128 0xb
 2572 014e 27       		.uleb128 0x27
 2573 014f 19       		.uleb128 0x19
 2574 0150 49       		.uleb128 0x49
 2575 0151 13       		.uleb128 0x13
 2576 0152 11       		.uleb128 0x11
 2577 0153 01       		.uleb128 0x1
 2578 0154 12       		.uleb128 0x12
 2579 0155 06       		.uleb128 0x6
 2580 0156 40       		.uleb128 0x40
 2581 0157 18       		.uleb128 0x18
 2582 0158 9742     		.uleb128 0x2117
 2583 015a 19       		.uleb128 0x19
 2584 015b 00       		.byte	0
 2585 015c 00       		.byte	0
 2586 015d 1D       		.uleb128 0x1d
 2587 015e 2E       		.uleb128 0x2e
 2588 015f 01       		.byte	0x1
 2589 0160 3F       		.uleb128 0x3f
 2590 0161 19       		.uleb128 0x19
 2591 0162 03       		.uleb128 0x3
 2592 0163 0E       		.uleb128 0xe
 2593 0164 3A       		.uleb128 0x3a
 2594 0165 0B       		.uleb128 0xb
 2595 0166 3B       		.uleb128 0x3b
 2596 0167 0B       		.uleb128 0xb
 2597 0168 27       		.uleb128 0x27
 2598 0169 19       		.uleb128 0x19
 2599 016a 11       		.uleb128 0x11
 2600 016b 01       		.uleb128 0x1
 2601 016c 12       		.uleb128 0x12
 2602 016d 06       		.uleb128 0x6
 2603 016e 40       		.uleb128 0x40
 2604 016f 18       		.uleb128 0x18
 2605 0170 9742     		.uleb128 0x2117
 2606 0172 19       		.uleb128 0x19
 2607 0173 01       		.uleb128 0x1
 2608 0174 13       		.uleb128 0x13
 2609 0175 00       		.byte	0
 2610 0176 00       		.byte	0
 2611 0177 1E       		.uleb128 0x1e
 2612 0178 05       		.uleb128 0x5
 2613 0179 00       		.byte	0
 2614 017a 03       		.uleb128 0x3
 2615 017b 0E       		.uleb128 0xe
 2616 017c 3A       		.uleb128 0x3a
 2617 017d 0B       		.uleb128 0xb
ARM GAS  /tmp/ccZSCmtR.s 			page 47


 2618 017e 3B       		.uleb128 0x3b
 2619 017f 0B       		.uleb128 0xb
 2620 0180 49       		.uleb128 0x49
 2621 0181 13       		.uleb128 0x13
 2622 0182 02       		.uleb128 0x2
 2623 0183 17       		.uleb128 0x17
 2624 0184 00       		.byte	0
 2625 0185 00       		.byte	0
 2626 0186 1F       		.uleb128 0x1f
 2627 0187 898201   		.uleb128 0x4109
 2628 018a 01       		.byte	0x1
 2629 018b 11       		.uleb128 0x11
 2630 018c 01       		.uleb128 0x1
 2631 018d 31       		.uleb128 0x31
 2632 018e 13       		.uleb128 0x13
 2633 018f 01       		.uleb128 0x1
 2634 0190 13       		.uleb128 0x13
 2635 0191 00       		.byte	0
 2636 0192 00       		.byte	0
 2637 0193 20       		.uleb128 0x20
 2638 0194 8A8201   		.uleb128 0x410a
 2639 0197 00       		.byte	0
 2640 0198 02       		.uleb128 0x2
 2641 0199 18       		.uleb128 0x18
 2642 019a 9142     		.uleb128 0x2111
 2643 019c 18       		.uleb128 0x18
 2644 019d 00       		.byte	0
 2645 019e 00       		.byte	0
 2646 019f 21       		.uleb128 0x21
 2647 01a0 898201   		.uleb128 0x4109
 2648 01a3 00       		.byte	0
 2649 01a4 11       		.uleb128 0x11
 2650 01a5 01       		.uleb128 0x1
 2651 01a6 31       		.uleb128 0x31
 2652 01a7 13       		.uleb128 0x13
 2653 01a8 00       		.byte	0
 2654 01a9 00       		.byte	0
 2655 01aa 22       		.uleb128 0x22
 2656 01ab 898201   		.uleb128 0x4109
 2657 01ae 01       		.byte	0x1
 2658 01af 11       		.uleb128 0x11
 2659 01b0 01       		.uleb128 0x1
 2660 01b1 9542     		.uleb128 0x2115
 2661 01b3 19       		.uleb128 0x19
 2662 01b4 31       		.uleb128 0x31
 2663 01b5 13       		.uleb128 0x13
 2664 01b6 01       		.uleb128 0x1
 2665 01b7 13       		.uleb128 0x13
 2666 01b8 00       		.byte	0
 2667 01b9 00       		.byte	0
 2668 01ba 23       		.uleb128 0x23
 2669 01bb 34       		.uleb128 0x34
 2670 01bc 00       		.byte	0
 2671 01bd 03       		.uleb128 0x3
 2672 01be 0E       		.uleb128 0xe
 2673 01bf 3A       		.uleb128 0x3a
 2674 01c0 0B       		.uleb128 0xb
ARM GAS  /tmp/ccZSCmtR.s 			page 48


 2675 01c1 3B       		.uleb128 0x3b
 2676 01c2 0B       		.uleb128 0xb
 2677 01c3 49       		.uleb128 0x49
 2678 01c4 13       		.uleb128 0x13
 2679 01c5 02       		.uleb128 0x2
 2680 01c6 18       		.uleb128 0x18
 2681 01c7 00       		.byte	0
 2682 01c8 00       		.byte	0
 2683 01c9 24       		.uleb128 0x24
 2684 01ca 34       		.uleb128 0x34
 2685 01cb 00       		.byte	0
 2686 01cc 03       		.uleb128 0x3
 2687 01cd 0E       		.uleb128 0xe
 2688 01ce 3A       		.uleb128 0x3a
 2689 01cf 0B       		.uleb128 0xb
 2690 01d0 3B       		.uleb128 0x3b
 2691 01d1 05       		.uleb128 0x5
 2692 01d2 49       		.uleb128 0x49
 2693 01d3 13       		.uleb128 0x13
 2694 01d4 3F       		.uleb128 0x3f
 2695 01d5 19       		.uleb128 0x19
 2696 01d6 3C       		.uleb128 0x3c
 2697 01d7 19       		.uleb128 0x19
 2698 01d8 00       		.byte	0
 2699 01d9 00       		.byte	0
 2700 01da 25       		.uleb128 0x25
 2701 01db 34       		.uleb128 0x34
 2702 01dc 00       		.byte	0
 2703 01dd 03       		.uleb128 0x3
 2704 01de 08       		.uleb128 0x8
 2705 01df 3A       		.uleb128 0x3a
 2706 01e0 0B       		.uleb128 0xb
 2707 01e1 3B       		.uleb128 0x3b
 2708 01e2 05       		.uleb128 0x5
 2709 01e3 49       		.uleb128 0x49
 2710 01e4 13       		.uleb128 0x13
 2711 01e5 3F       		.uleb128 0x3f
 2712 01e6 19       		.uleb128 0x19
 2713 01e7 3C       		.uleb128 0x3c
 2714 01e8 19       		.uleb128 0x19
 2715 01e9 00       		.byte	0
 2716 01ea 00       		.byte	0
 2717 01eb 26       		.uleb128 0x26
 2718 01ec 34       		.uleb128 0x34
 2719 01ed 00       		.byte	0
 2720 01ee 03       		.uleb128 0x3
 2721 01ef 0E       		.uleb128 0xe
 2722 01f0 3A       		.uleb128 0x3a
 2723 01f1 0B       		.uleb128 0xb
 2724 01f2 3B       		.uleb128 0x3b
 2725 01f3 0B       		.uleb128 0xb
 2726 01f4 49       		.uleb128 0x49
 2727 01f5 13       		.uleb128 0x13
 2728 01f6 3F       		.uleb128 0x3f
 2729 01f7 19       		.uleb128 0x19
 2730 01f8 3C       		.uleb128 0x3c
 2731 01f9 19       		.uleb128 0x19
ARM GAS  /tmp/ccZSCmtR.s 			page 49


 2732 01fa 00       		.byte	0
 2733 01fb 00       		.byte	0
 2734 01fc 27       		.uleb128 0x27
 2735 01fd 2E       		.uleb128 0x2e
 2736 01fe 01       		.byte	0x1
 2737 01ff 3F       		.uleb128 0x3f
 2738 0200 19       		.uleb128 0x19
 2739 0201 03       		.uleb128 0x3
 2740 0202 0E       		.uleb128 0xe
 2741 0203 27       		.uleb128 0x27
 2742 0204 19       		.uleb128 0x19
 2743 0205 49       		.uleb128 0x49
 2744 0206 13       		.uleb128 0x13
 2745 0207 34       		.uleb128 0x34
 2746 0208 19       		.uleb128 0x19
 2747 0209 3C       		.uleb128 0x3c
 2748 020a 19       		.uleb128 0x19
 2749 020b 01       		.uleb128 0x1
 2750 020c 13       		.uleb128 0x13
 2751 020d 00       		.byte	0
 2752 020e 00       		.byte	0
 2753 020f 28       		.uleb128 0x28
 2754 0210 26       		.uleb128 0x26
 2755 0211 00       		.byte	0
 2756 0212 00       		.byte	0
 2757 0213 00       		.byte	0
 2758 0214 29       		.uleb128 0x29
 2759 0215 2E       		.uleb128 0x2e
 2760 0216 00       		.byte	0
 2761 0217 3F       		.uleb128 0x3f
 2762 0218 19       		.uleb128 0x19
 2763 0219 03       		.uleb128 0x3
 2764 021a 0E       		.uleb128 0xe
 2765 021b 3A       		.uleb128 0x3a
 2766 021c 0B       		.uleb128 0xb
 2767 021d 3B       		.uleb128 0x3b
 2768 021e 0B       		.uleb128 0xb
 2769 021f 27       		.uleb128 0x27
 2770 0220 19       		.uleb128 0x19
 2771 0221 3C       		.uleb128 0x3c
 2772 0222 19       		.uleb128 0x19
 2773 0223 00       		.byte	0
 2774 0224 00       		.byte	0
 2775 0225 2A       		.uleb128 0x2a
 2776 0226 2E       		.uleb128 0x2e
 2777 0227 01       		.byte	0x1
 2778 0228 3F       		.uleb128 0x3f
 2779 0229 19       		.uleb128 0x19
 2780 022a 03       		.uleb128 0x3
 2781 022b 0E       		.uleb128 0xe
 2782 022c 3A       		.uleb128 0x3a
 2783 022d 0B       		.uleb128 0xb
 2784 022e 3B       		.uleb128 0x3b
 2785 022f 0B       		.uleb128 0xb
 2786 0230 27       		.uleb128 0x27
 2787 0231 19       		.uleb128 0x19
 2788 0232 3C       		.uleb128 0x3c
ARM GAS  /tmp/ccZSCmtR.s 			page 50


 2789 0233 19       		.uleb128 0x19
 2790 0234 01       		.uleb128 0x1
 2791 0235 13       		.uleb128 0x13
 2792 0236 00       		.byte	0
 2793 0237 00       		.byte	0
 2794 0238 2B       		.uleb128 0x2b
 2795 0239 2E       		.uleb128 0x2e
 2796 023a 00       		.byte	0
 2797 023b 3F       		.uleb128 0x3f
 2798 023c 19       		.uleb128 0x19
 2799 023d 03       		.uleb128 0x3
 2800 023e 0E       		.uleb128 0xe
 2801 023f 3A       		.uleb128 0x3a
 2802 0240 0B       		.uleb128 0xb
 2803 0241 3B       		.uleb128 0x3b
 2804 0242 0B       		.uleb128 0xb
 2805 0243 27       		.uleb128 0x27
 2806 0244 19       		.uleb128 0x19
 2807 0245 49       		.uleb128 0x49
 2808 0246 13       		.uleb128 0x13
 2809 0247 3C       		.uleb128 0x3c
 2810 0248 19       		.uleb128 0x19
 2811 0249 00       		.byte	0
 2812 024a 00       		.byte	0
 2813 024b 00       		.byte	0
 2814              		.section	.debug_loc,"",%progbits
 2815              	.Ldebug_loc0:
 2816              	.LLST0:
 2817 0000 00000000 		.4byte	.LVL0
 2818 0004 08000000 		.4byte	.LVL1
 2819 0008 0100     		.2byte	0x1
 2820 000a 50       		.byte	0x50
 2821 000b 08000000 		.4byte	.LVL1
 2822 000f 64000000 		.4byte	.LVL13
 2823 0013 0100     		.2byte	0x1
 2824 0015 55       		.byte	0x55
 2825 0016 64000000 		.4byte	.LVL13
 2826 001a 68000000 		.4byte	.LVL14
 2827 001e 0400     		.2byte	0x4
 2828 0020 F3       		.byte	0xf3
 2829 0021 01       		.uleb128 0x1
 2830 0022 50       		.byte	0x50
 2831 0023 9F       		.byte	0x9f
 2832 0024 68000000 		.4byte	.LVL14
 2833 0028 CC000000 		.4byte	.LFE257
 2834 002c 0100     		.2byte	0x1
 2835 002e 55       		.byte	0x55
 2836 002f 00000000 		.4byte	0
 2837 0033 00000000 		.4byte	0
 2838              		.section	.debug_aranges,"",%progbits
 2839 0000 24000000 		.4byte	0x24
 2840 0004 0200     		.2byte	0x2
 2841 0006 00000000 		.4byte	.Ldebug_info0
 2842 000a 04       		.byte	0x4
 2843 000b 00       		.byte	0
 2844 000c 0000     		.2byte	0
 2845 000e 0000     		.2byte	0
ARM GAS  /tmp/ccZSCmtR.s 			page 51


 2846 0010 00000000 		.4byte	.LFB256
 2847 0014 08000000 		.4byte	.LFE256-.LFB256
 2848 0018 00000000 		.4byte	.LFB257
 2849 001c CC000000 		.4byte	.LFE257-.LFB257
 2850 0020 00000000 		.4byte	0
 2851 0024 00000000 		.4byte	0
 2852              		.section	.debug_ranges,"",%progbits
 2853              	.Ldebug_ranges0:
 2854 0000 00000000 		.4byte	.LFB256
 2855 0004 08000000 		.4byte	.LFE256
 2856 0008 00000000 		.4byte	.LFB257
 2857 000c CC000000 		.4byte	.LFE257
 2858 0010 00000000 		.4byte	0
 2859 0014 00000000 		.4byte	0
 2860              		.section	.debug_line,"",%progbits
 2861              	.Ldebug_line0:
 2862 0000 71020000 		.section	.debug_str,"MS",%progbits,1
 2862      02001702 
 2862      00000201 
 2862      FB0E0D00 
 2862      01010101 
 2863              	.LASF51:
 2864 0000 63685F74 		.ascii	"ch_threads_list\000"
 2864      68726561 
 2864      64735F6C 
 2864      69737400 
 2865              	.LASF52:
 2866 0010 74687265 		.ascii	"threads_queue_t\000"
 2866      6164735F 
 2866      71756575 
 2866      655F7400 
 2867              	.LASF226:
 2868 0020 73656E64 		.ascii	"send_can_status\000"
 2868      5F63616E 
 2868      5F737461 
 2868      74757300 
 2869              	.LASF160:
 2870 0030 4144435F 		.ascii	"ADC_CTRL_TYPE_DUTY_REV_CENTER\000"
 2870      4354524C 
 2870      5F545950 
 2870      455F4455 
 2870      54595F52 
 2871              	.LASF88:
 2872 004e 746D5F63 		.ascii	"tm_calibration_t\000"
 2872      616C6962 
 2872      72617469 
 2872      6F6E5F74 
 2872      00
 2873              	.LASF40:
 2874 005f 705F7469 		.ascii	"p_time\000"
 2874      6D6500
 2875              	.LASF261:
 2876 0066 636F6E66 		.ascii	"conf\000"
 2876      00
 2877              	.LASF103:
 2878 006b 63686172 		.ascii	"char\000"
 2878      00
ARM GAS  /tmp/ccZSCmtR.s 			page 52


 2879              	.LASF83:
 2880 0070 72656761 		.ascii	"regarm_t\000"
 2880      726D5F74 
 2880      00
 2881              	.LASF31:
 2882 0079 705F7072 		.ascii	"p_prio\000"
 2882      696F00
 2883              	.LASF180:
 2884 0080 4348554B 		.ascii	"CHUK_CTRL_TYPE_CURRENT_NOREV\000"
 2884      5F435452 
 2884      4C5F5459 
 2884      50455F43 
 2884      55525245 
 2885              	.LASF249:
 2886 009d 72666865 		.ascii	"rfhelp_update_conf\000"
 2886      6C705F75 
 2886      70646174 
 2886      655F636F 
 2886      6E6600
 2887              	.LASF27:
 2888 00b0 73797374 		.ascii	"systime_t\000"
 2888      696D655F 
 2888      7400
 2889              	.LASF106:
 2890 00ba 43414E5F 		.ascii	"CAN_BAUD_125K\000"
 2890      42415544 
 2890      5F313235 
 2890      4B00
 2891              	.LASF101:
 2892 00c8 6D5F6F77 		.ascii	"m_owner\000"
 2892      6E657200 
 2893              	.LASF97:
 2894 00d0 735F7175 		.ascii	"s_queue\000"
 2894      65756500 
 2895              	.LASF72:
 2896 00d8 76745F73 		.ascii	"vt_systime\000"
 2896      79737469 
 2896      6D6500
 2897              	.LASF42:
 2898 00e3 705F6D73 		.ascii	"p_msgqueue\000"
 2898      67717565 
 2898      756500
 2899              	.LASF142:
 2900 00ee 73616665 		.ascii	"safe_start\000"
 2900      5F737461 
 2900      727400
 2901              	.LASF168:
 2902 00f9 766F6C74 		.ascii	"voltage_center\000"
 2902      6167655F 
 2902      63656E74 
 2902      657200
 2903              	.LASF230:
 2904 0108 6170705F 		.ascii	"app_ppm_conf\000"
 2904      70706D5F 
 2904      636F6E66 
 2904      00
 2905              	.LASF49:
ARM GAS  /tmp/ccZSCmtR.s 			page 53


 2906 0115 74687265 		.ascii	"threads_list_t\000"
 2906      6164735F 
 2906      6C697374 
 2906      5F7400
 2907              	.LASF41:
 2908 0124 705F7761 		.ascii	"p_waiting\000"
 2908      6974696E 
 2908      6700
 2909              	.LASF120:
 2910 012e 4150505F 		.ascii	"APP_CUSTOM\000"
 2910      43555354 
 2910      4F4D00
 2911              	.LASF5:
 2912 0139 5F5F696E 		.ascii	"__int32_t\000"
 2912      7433325F 
 2912      7400
 2913              	.LASF148:
 2914 0143 6D756C74 		.ascii	"multi_esc\000"
 2914      695F6573 
 2914      6300
 2915              	.LASF91:
 2916 014d 77746F62 		.ascii	"wtobjp\000"
 2916      6A7000
 2917              	.LASF196:
 2918 0154 4E52465F 		.ascii	"NRF_CRC\000"
 2918      43524300 
 2919              	.LASF79:
 2920 015c 76746C69 		.ascii	"vtlist\000"
 2920      737400
 2921              	.LASF214:
 2922 0163 73706565 		.ascii	"speed\000"
 2922      6400
 2923              	.LASF237:
 2924 0169 636F6E66 		.ascii	"conf_general_permanent_nrf_found\000"
 2924      5F67656E 
 2924      6572616C 
 2924      5F706572 
 2924      6D616E65 
 2925              	.LASF212:
 2926 018a 4E52465F 		.ascii	"NRF_RETR_DELAY_4000US\000"
 2926      52455452 
 2926      5F44454C 
 2926      41595F34 
 2926      30303055 
 2927              	.LASF188:
 2928 01a0 4E52465F 		.ascii	"NRF_POWER_M18DBM\000"
 2928      504F5745 
 2928      525F4D31 
 2928      3844424D 
 2928      00
 2929              	.LASF128:
 2930 01b1 50504D5F 		.ascii	"PPM_CTRL_TYPE_CURRENT_NOREV\000"
 2930      4354524C 
 2930      5F545950 
 2930      455F4355 
 2930      5252454E 
 2931              	.LASF95:
ARM GAS  /tmp/ccZSCmtR.s 			page 54


 2932 01cd 65776D61 		.ascii	"ewmask\000"
 2932      736B00
 2933              	.LASF132:
 2934 01d4 50504D5F 		.ascii	"PPM_CTRL_TYPE_PID\000"
 2934      4354524C 
 2934      5F545950 
 2934      455F5049 
 2934      4400
 2935              	.LASF205:
 2936 01e6 4E52465F 		.ascii	"NRF_RETR_DELAY_2250US\000"
 2936      52455452 
 2936      5F44454C 
 2936      41595F32 
 2936      32353055 
 2937              	.LASF55:
 2938 01fc 63685F72 		.ascii	"ch_ready_list\000"
 2938      65616479 
 2938      5F6C6973 
 2938      7400
 2939              	.LASF113:
 2940 020a 4150505F 		.ascii	"APP_PPM\000"
 2940      50504D00 
 2941              	.LASF240:
 2942 0212 6170705F 		.ascii	"app_uartcomm_stop\000"
 2942      75617274 
 2942      636F6D6D 
 2942      5F73746F 
 2942      7000
 2943              	.LASF62:
 2944 0224 76746675 		.ascii	"vtfunc_t\000"
 2944      6E635F74 
 2944      00
 2945              	.LASF156:
 2946 022d 4144435F 		.ascii	"ADC_CTRL_TYPE_CURRENT_NOREV_BRAKE_CENTER\000"
 2946      4354524C 
 2946      5F545950 
 2946      455F4355 
 2946      5252454E 
 2947              	.LASF157:
 2948 0256 4144435F 		.ascii	"ADC_CTRL_TYPE_CURRENT_NOREV_BRAKE_BUTTON\000"
 2948      4354524C 
 2948      5F545950 
 2948      455F4355 
 2948      5252454E 
 2949              	.LASF98:
 2950 027f 735F636E 		.ascii	"s_cnt\000"
 2950      7400
 2951              	.LASF74:
 2952 0285 63685F73 		.ascii	"ch_system_debug\000"
 2952      79737465 
 2952      6D5F6465 
 2952      62756700 
 2953              	.LASF127:
 2954 0295 50504D5F 		.ascii	"PPM_CTRL_TYPE_CURRENT\000"
 2954      4354524C 
 2954      5F545950 
 2954      455F4355 
ARM GAS  /tmp/ccZSCmtR.s 			page 55


 2954      5252454E 
 2955              	.LASF15:
 2956 02ab 75696E74 		.ascii	"uint32_t\000"
 2956      33325F74 
 2956      00
 2957              	.LASF165:
 2958 02b4 6164635F 		.ascii	"adc_control_type\000"
 2958      636F6E74 
 2958      726F6C5F 
 2958      74797065 
 2958      00
 2959              	.LASF147:
 2960 02c5 72616D70 		.ascii	"ramp_time_neg\000"
 2960      5F74696D 
 2960      655F6E65 
 2960      6700
 2961              	.LASF234:
 2962 02d3 6170705F 		.ascii	"app_nrf_conf\000"
 2962      6E72665F 
 2962      636F6E66 
 2962      00
 2963              	.LASF141:
 2964 02e0 6D656469 		.ascii	"median_filter\000"
 2964      616E5F66 
 2964      696C7465 
 2964      7200
 2965              	.LASF25:
 2966 02ee 6576656E 		.ascii	"eventmask_t\000"
 2966      746D6173 
 2966      6B5F7400 
 2967              	.LASF57:
 2968 02fa 725F7072 		.ascii	"r_prio\000"
 2968      696F00
 2969              	.LASF206:
 2970 0301 4E52465F 		.ascii	"NRF_RETR_DELAY_2500US\000"
 2970      52455452 
 2970      5F44454C 
 2970      41595F32 
 2970      35303055 
 2971              	.LASF69:
 2972 0317 76745F70 		.ascii	"vt_par\000"
 2972      617200
 2973              	.LASF216:
 2974 031e 6372635F 		.ascii	"crc_type\000"
 2974      74797065 
 2974      00
 2975              	.LASF105:
 2976 0327 666C6F61 		.ascii	"float\000"
 2976      7400
 2977              	.LASF121:
 2978 032d 6170705F 		.ascii	"app_use\000"
 2978      75736500 
 2979              	.LASF145:
 2980 0335 7468726F 		.ascii	"throttle_exp_mode\000"
 2980      74746C65 
 2980      5F657870 
 2980      5F6D6F64 
ARM GAS  /tmp/ccZSCmtR.s 			page 56


 2980      6500
 2981              	.LASF200:
 2982 0347 4E52465F 		.ascii	"NRF_RETR_DELAY_1000US\000"
 2982      52455452 
 2982      5F44454C 
 2982      41595F31 
 2982      30303055 
 2983              	.LASF137:
 2984 035d 68797374 		.ascii	"hyst\000"
 2984      00
 2985              	.LASF96:
 2986 0362 63685F73 		.ascii	"ch_semaphore\000"
 2986      656D6170 
 2986      686F7265 
 2986      00
 2987              	.LASF239:
 2988 036f 6170705F 		.ascii	"app_adc_stop\000"
 2988      6164635F 
 2988      73746F70 
 2988      00
 2989              	.LASF23:
 2990 037c 74707269 		.ascii	"tprio_t\000"
 2990      6F5F7400 
 2991              	.LASF64:
 2992 0384 63685F76 		.ascii	"ch_virtual_timer\000"
 2992      69727475 
 2992      616C5F74 
 2992      696D6572 
 2992      00
 2993              	.LASF11:
 2994 0395 6C6F6E67 		.ascii	"long long unsigned int\000"
 2994      206C6F6E 
 2994      6720756E 
 2994      7369676E 
 2994      65642069 
 2995              	.LASF108:
 2996 03ac 43414E5F 		.ascii	"CAN_BAUD_500K\000"
 2996      42415544 
 2996      5F353030 
 2996      4B00
 2997              	.LASF213:
 2998 03ba 4E52465F 		.ascii	"NRF_RETR_DELAY\000"
 2998      52455452 
 2998      5F44454C 
 2998      415900
 2999              	.LASF131:
 3000 03c9 50504D5F 		.ascii	"PPM_CTRL_TYPE_DUTY_NOREV\000"
 3000      4354524C 
 3000      5F545950 
 3000      455F4455 
 3000      54595F4E 
 3001              	.LASF167:
 3002 03e2 766F6C74 		.ascii	"voltage_end\000"
 3002      6167655F 
 3002      656E6400 
 3003              	.LASF26:
 3004 03ee 636E745F 		.ascii	"cnt_t\000"
ARM GAS  /tmp/ccZSCmtR.s 			page 57


 3004      7400
 3005              	.LASF194:
 3006 03f4 4E52465F 		.ascii	"NRF_CRC_1B\000"
 3006      4352435F 
 3006      314200
 3007              	.LASF222:
 3008 03ff 6E72665F 		.ascii	"nrf_config\000"
 3008      636F6E66 
 3008      696700
 3009              	.LASF245:
 3010 040a 6170705F 		.ascii	"app_ppm_configure\000"
 3010      70706D5F 
 3010      636F6E66 
 3010      69677572 
 3010      6500
 3011              	.LASF181:
 3012 041c 6368756B 		.ascii	"chuk_control_type\000"
 3012      5F636F6E 
 3012      74726F6C 
 3012      5F747970 
 3012      6500
 3013              	.LASF172:
 3014 042e 63635F62 		.ascii	"cc_button_inverted\000"
 3014      7574746F 
 3014      6E5F696E 
 3014      76657274 
 3014      656400
 3015              	.LASF71:
 3016 0441 63685F76 		.ascii	"ch_virtual_timers_list\000"
 3016      69727475 
 3016      616C5F74 
 3016      696D6572 
 3016      735F6C69 
 3017              	.LASF28:
 3018 0458 74687265 		.ascii	"thread_t\000"
 3018      61645F74 
 3018      00
 3019              	.LASF256:
 3020 0461 474E5520 		.ascii	"GNU C 4.8.4 20141219 (release) -mcpu=cortex-m4 -mfl"
 3020      4320342E 
 3020      382E3420 
 3020      32303134 
 3020      31323139 
 3021 0494 6F61742D 		.ascii	"oat-abi=hard -mfpu=fpv4-sp-d16 -mno-thumb-interwork"
 3021      6162693D 
 3021      68617264 
 3021      202D6D66 
 3021      70753D66 
 3022 04c7 202D6D74 		.ascii	" -mthumb -ggdb -O2 -std=gnu99 -fomit-frame-pointer "
 3022      68756D62 
 3022      202D6767 
 3022      6462202D 
 3022      4F32202D 
 3023 04fa 2D66616C 		.ascii	"-falign-functions=16 -ffunction-sections -fdata-sec"
 3023      69676E2D 
 3023      66756E63 
 3023      74696F6E 
ARM GAS  /tmp/ccZSCmtR.s 			page 58


 3023      733D3136 
 3024 052d 74696F6E 		.ascii	"tions -fno-common -fsingle-precision-constant\000"
 3024      73202D66 
 3024      6E6F2D63 
 3024      6F6D6D6F 
 3024      6E202D66 
 3025              	.LASF133:
 3026 055b 50504D5F 		.ascii	"PPM_CTRL_TYPE_PID_NOREV\000"
 3026      4354524C 
 3026      5F545950 
 3026      455F5049 
 3026      445F4E4F 
 3027              	.LASF146:
 3028 0573 72616D70 		.ascii	"ramp_time_pos\000"
 3028      5F74696D 
 3028      655F706F 
 3028      7300
 3029              	.LASF17:
 3030 0581 73697A65 		.ascii	"size_t\000"
 3030      5F7400
 3031              	.LASF89:
 3032 0588 7264796D 		.ascii	"rdymsg\000"
 3032      736700
 3033              	.LASF109:
 3034 058f 43414E5F 		.ascii	"CAN_BAUD_1M\000"
 3034      42415544 
 3034      5F314D00 
 3035              	.LASF87:
 3036 059b 6F666673 		.ascii	"offset\000"
 3036      657400
 3037              	.LASF115:
 3038 05a2 4150505F 		.ascii	"APP_UART\000"
 3038      55415254 
 3038      00
 3039              	.LASF111:
 3040 05ab 5F426F6F 		.ascii	"_Bool\000"
 3040      6C00
 3041              	.LASF263:
 3042 05b1 6E72665F 		.ascii	"nrf_driver_init\000"
 3042      64726976 
 3042      65725F69 
 3042      6E697400 
 3043              	.LASF195:
 3044 05c1 4E52465F 		.ascii	"NRF_CRC_2B\000"
 3044      4352435F 
 3044      324200
 3045              	.LASF99:
 3046 05cc 63685F6D 		.ascii	"ch_mutex\000"
 3046      75746578 
 3046      00
 3047              	.LASF224:
 3048 05d5 74696D65 		.ascii	"timeout_msec\000"
 3048      6F75745F 
 3048      6D736563 
 3048      00
 3049              	.LASF10:
 3050 05e2 5F5F7569 		.ascii	"__uint64_t\000"
ARM GAS  /tmp/ccZSCmtR.s 			page 59


 3050      6E743634 
 3050      5F7400
 3051              	.LASF175:
 3052 05ed 766F6C74 		.ascii	"voltage2_inverted\000"
 3052      61676532 
 3052      5F696E76 
 3052      65727465 
 3052      6400
 3053              	.LASF123:
 3054 05ff 5448525F 		.ascii	"THR_EXP_NATURAL\000"
 3054      4558505F 
 3054      4E415455 
 3054      52414C00 
 3055              	.LASF238:
 3056 060f 6170705F 		.ascii	"app_ppm_stop\000"
 3056      70706D5F 
 3056      73746F70 
 3056      00
 3057              	.LASF166:
 3058 061c 766F6C74 		.ascii	"voltage_start\000"
 3058      6167655F 
 3058      73746172 
 3058      7400
 3059              	.LASF229:
 3060 062a 6170705F 		.ascii	"app_to_use\000"
 3060      746F5F75 
 3060      736500
 3061              	.LASF35:
 3062 0635 705F6E61 		.ascii	"p_name\000"
 3062      6D6500
 3063              	.LASF217:
 3064 063c 72657472 		.ascii	"retry_delay\000"
 3064      795F6465 
 3064      6C617900 
 3065              	.LASF207:
 3066 0648 4E52465F 		.ascii	"NRF_RETR_DELAY_2750US\000"
 3066      52455452 
 3066      5F44454C 
 3066      41595F32 
 3066      37353055 
 3067              	.LASF235:
 3068 065e 6170705F 		.ascii	"app_configuration\000"
 3068      636F6E66 
 3068      69677572 
 3068      6174696F 
 3068      6E00
 3069              	.LASF136:
 3070 0670 7069645F 		.ascii	"pid_max_erpm\000"
 3070      6D61785F 
 3070      6572706D 
 3070      00
 3071              	.LASF67:
 3072 067d 76745F64 		.ascii	"vt_delta\000"
 3072      656C7461 
 3072      00
 3073              	.LASF114:
 3074 0686 4150505F 		.ascii	"APP_ADC\000"
ARM GAS  /tmp/ccZSCmtR.s 			page 60


 3074      41444300 
 3075              	.LASF13:
 3076 068e 75696E74 		.ascii	"uint8_t\000"
 3076      385F7400 
 3077              	.LASF59:
 3078 0696 725F6E65 		.ascii	"r_newer\000"
 3078      77657200 
 3079              	.LASF246:
 3080 069e 6170705F 		.ascii	"app_adc_configure\000"
 3080      6164635F 
 3080      636F6E66 
 3080      69677572 
 3080      6500
 3081              	.LASF20:
 3082 06b0 74737461 		.ascii	"tstate_t\000"
 3082      74655F74 
 3082      00
 3083              	.LASF140:
 3084 06b9 70756C73 		.ascii	"pulse_center\000"
 3084      655F6365 
 3084      6E746572 
 3084      00
 3085              	.LASF129:
 3086 06c6 50504D5F 		.ascii	"PPM_CTRL_TYPE_CURRENT_NOREV_BRAKE\000"
 3086      4354524C 
 3086      5F545950 
 3086      455F4355 
 3086      5252454E 
 3087              	.LASF9:
 3088 06e8 6C6F6E67 		.ascii	"long long int\000"
 3088      206C6F6E 
 3088      6720696E 
 3088      7400
 3089              	.LASF34:
 3090 06f6 705F6F6C 		.ascii	"p_older\000"
 3090      64657200 
 3091              	.LASF36:
 3092 06fe 705F7374 		.ascii	"p_state\000"
 3092      61746500 
 3093              	.LASF122:
 3094 0706 5448525F 		.ascii	"THR_EXP_EXPO\000"
 3094      4558505F 
 3094      4558504F 
 3094      00
 3095              	.LASF126:
 3096 0713 50504D5F 		.ascii	"PPM_CTRL_TYPE_NONE\000"
 3096      4354524C 
 3096      5F545950 
 3096      455F4E4F 
 3096      4E4500
 3097              	.LASF169:
 3098 0726 766F6C74 		.ascii	"voltage2_start\000"
 3098      61676532 
 3098      5F737461 
 3098      727400
 3099              	.LASF178:
 3100 0735 4348554B 		.ascii	"CHUK_CTRL_TYPE_NONE\000"
ARM GAS  /tmp/ccZSCmtR.s 			page 61


 3100      5F435452 
 3100      4C5F5459 
 3100      50455F4E 
 3100      4F4E4500 
 3101              	.LASF47:
 3102 0749 705F6D70 		.ascii	"p_mpool\000"
 3102      6F6F6C00 
 3103              	.LASF45:
 3104 0751 705F6D74 		.ascii	"p_mtxlist\000"
 3104      786C6973 
 3104      7400
 3105              	.LASF112:
 3106 075b 4150505F 		.ascii	"APP_NONE\000"
 3106      4E4F4E45 
 3106      00
 3107              	.LASF50:
 3108 0764 63685F74 		.ascii	"ch_thread\000"
 3108      68726561 
 3108      6400
 3109              	.LASF130:
 3110 076e 50504D5F 		.ascii	"PPM_CTRL_TYPE_DUTY\000"
 3110      4354524C 
 3110      5F545950 
 3110      455F4455 
 3110      545900
 3111              	.LASF223:
 3112 0781 636F6E74 		.ascii	"controller_id\000"
 3112      726F6C6C 
 3112      65725F69 
 3112      6400
 3113              	.LASF227:
 3114 078f 73656E64 		.ascii	"send_can_status_rate_hz\000"
 3114      5F63616E 
 3114      5F737461 
 3114      7475735F 
 3114      72617465 
 3115              	.LASF73:
 3116 07a7 73797374 		.ascii	"system_debug_t\000"
 3116      656D5F64 
 3116      65627567 
 3116      5F7400
 3117              	.LASF119:
 3118 07b6 4150505F 		.ascii	"APP_NRF\000"
 3118      4E524600 
 3119              	.LASF53:
 3120 07be 63685F74 		.ascii	"ch_threads_queue\000"
 3120      68726561 
 3120      64735F71 
 3120      75657565 
 3120      00
 3121              	.LASF173:
 3122 07cf 7265765F 		.ascii	"rev_button_inverted\000"
 3122      62757474 
 3122      6F6E5F69 
 3122      6E766572 
 3122      74656400 
 3123              	.LASF107:
ARM GAS  /tmp/ccZSCmtR.s 			page 62


 3124 07e3 43414E5F 		.ascii	"CAN_BAUD_250K\000"
 3124      42415544 
 3124      5F323530 
 3124      4B00
 3125              	.LASF139:
 3126 07f1 70756C73 		.ascii	"pulse_end\000"
 3126      655F656E 
 3126      6400
 3127              	.LASF154:
 3128 07fb 4144435F 		.ascii	"ADC_CTRL_TYPE_CURRENT_REV_BUTTON\000"
 3128      4354524C 
 3128      5F545950 
 3128      455F4355 
 3128      5252454E 
 3129              	.LASF56:
 3130 081c 725F7175 		.ascii	"r_queue\000"
 3130      65756500 
 3131              	.LASF179:
 3132 0824 4348554B 		.ascii	"CHUK_CTRL_TYPE_CURRENT\000"
 3132      5F435452 
 3132      4C5F5459 
 3132      50455F43 
 3132      55525245 
 3133              	.LASF24:
 3134 083b 6D73675F 		.ascii	"msg_t\000"
 3134      7400
 3135              	.LASF46:
 3136 0841 705F7265 		.ascii	"p_realprio\000"
 3136      616C7072 
 3136      696F00
 3137              	.LASF211:
 3138 084c 4E52465F 		.ascii	"NRF_RETR_DELAY_3750US\000"
 3138      52455452 
 3138      5F44454C 
 3138      41595F33 
 3138      37353055 
 3139              	.LASF252:
 3140 0862 6170705F 		.ascii	"app_adc_start\000"
 3140      6164635F 
 3140      73746172 
 3140      7400
 3141              	.LASF85:
 3142 0870 636F6E74 		.ascii	"context\000"
 3142      65787400 
 3143              	.LASF37:
 3144 0878 705F666C 		.ascii	"p_flags\000"
 3144      61677300 
 3145              	.LASF63:
 3146 0880 76697274 		.ascii	"virtual_timer_t\000"
 3146      75616C5F 
 3146      74696D65 
 3146      725F7400 
 3147              	.LASF258:
 3148 0890 2F686F6D 		.ascii	"/home/taylor/Programming/VESC/firmware\000"
 3148      652F7461 
 3148      796C6F72 
 3148      2F50726F 
ARM GAS  /tmp/ccZSCmtR.s 			page 63


 3148      6772616D 
 3149              	.LASF153:
 3150 08b7 4144435F 		.ascii	"ADC_CTRL_TYPE_CURRENT_REV_CENTER\000"
 3150      4354524C 
 3150      5F545950 
 3150      455F4355 
 3150      5252454E 
 3151              	.LASF176:
 3152 08d8 75706461 		.ascii	"update_rate_hz\000"
 3152      74655F72 
 3152      6174655F 
 3152      687A00
 3153              	.LASF143:
 3154 08e7 7468726F 		.ascii	"throttle_exp\000"
 3154      74746C65 
 3154      5F657870 
 3154      00
 3155              	.LASF159:
 3156 08f4 4144435F 		.ascii	"ADC_CTRL_TYPE_DUTY\000"
 3156      4354524C 
 3156      5F545950 
 3156      455F4455 
 3156      545900
 3157              	.LASF202:
 3158 0907 4E52465F 		.ascii	"NRF_RETR_DELAY_1500US\000"
 3158      52455452 
 3158      5F44454C 
 3158      41595F31 
 3158      35303055 
 3159              	.LASF22:
 3160 091d 74736C69 		.ascii	"tslices_t\000"
 3160      6365735F 
 3160      7400
 3161              	.LASF60:
 3162 0927 725F6F6C 		.ascii	"r_older\000"
 3162      64657200 
 3163              	.LASF208:
 3164 092f 4E52465F 		.ascii	"NRF_RETR_DELAY_3000US\000"
 3164      52455452 
 3164      5F44454C 
 3164      41595F33 
 3164      30303055 
 3165              	.LASF150:
 3166 0945 70706D5F 		.ascii	"ppm_config\000"
 3166      636F6E66 
 3166      696700
 3167              	.LASF43:
 3168 0950 705F6D73 		.ascii	"p_msg\000"
 3168      6700
 3169              	.LASF19:
 3170 0956 746D6F64 		.ascii	"tmode_t\000"
 3170      655F7400 
 3171              	.LASF192:
 3172 095e 4E52465F 		.ascii	"NRF_POWER\000"
 3172      504F5745 
 3172      5200
 3173              	.LASF80:
ARM GAS  /tmp/ccZSCmtR.s 			page 64


 3174 0968 6D61696E 		.ascii	"mainthread\000"
 3174      74687265 
 3174      616400
 3175              	.LASF251:
 3176 0973 72666865 		.ascii	"rfhelp_restart\000"
 3176      6C705F72 
 3176      65737461 
 3176      727400
 3177              	.LASF3:
 3178 0982 73686F72 		.ascii	"short unsigned int\000"
 3178      7420756E 
 3178      7369676E 
 3178      65642069 
 3178      6E7400
 3179              	.LASF233:
 3180 0995 6170705F 		.ascii	"app_chuk_conf\000"
 3180      6368756B 
 3180      5F636F6E 
 3180      6600
 3181              	.LASF174:
 3182 09a3 766F6C74 		.ascii	"voltage_inverted\000"
 3182      6167655F 
 3182      696E7665 
 3182      72746564 
 3182      00
 3183              	.LASF48:
 3184 09b4 74687265 		.ascii	"thread_reference_t\000"
 3184      61645F72 
 3184      65666572 
 3184      656E6365 
 3184      5F7400
 3185              	.LASF193:
 3186 09c7 4E52465F 		.ascii	"NRF_CRC_DISABLED\000"
 3186      4352435F 
 3186      44495341 
 3186      424C4544 
 3186      00
 3187              	.LASF18:
 3188 09d8 7274636E 		.ascii	"rtcnt_t\000"
 3188      745F7400 
 3189              	.LASF219:
 3190 09e0 6368616E 		.ascii	"channel\000"
 3190      6E656C00 
 3191              	.LASF190:
 3192 09e8 4E52465F 		.ascii	"NRF_POWER_M6DBM\000"
 3192      504F5745 
 3192      525F4D36 
 3192      44424D00 
 3193              	.LASF163:
 3194 09f8 4144435F 		.ascii	"ADC_CTRL_TYPE_PID_REV_CENTER\000"
 3194      4354524C 
 3194      5F545950 
 3194      455F5049 
 3194      445F5245 
 3195              	.LASF189:
 3196 0a15 4E52465F 		.ascii	"NRF_POWER_M12DBM\000"
 3196      504F5745 
ARM GAS  /tmp/ccZSCmtR.s 			page 65


 3196      525F4D31 
 3196      3244424D 
 3196      00
 3197              	.LASF138:
 3198 0a26 70756C73 		.ascii	"pulse_start\000"
 3198      655F7374 
 3198      61727400 
 3199              	.LASF117:
 3200 0a32 4150505F 		.ascii	"APP_ADC_UART\000"
 3200      4144435F 
 3200      55415254 
 3200      00
 3201              	.LASF110:
 3202 0a3f 43414E5F 		.ascii	"CAN_BAUD\000"
 3202      42415544 
 3202      00
 3203              	.LASF2:
 3204 0a48 73686F72 		.ascii	"short int\000"
 3204      7420696E 
 3204      7400
 3205              	.LASF61:
 3206 0a52 725F6375 		.ascii	"r_current\000"
 3206      7272656E 
 3206      7400
 3207              	.LASF255:
 3208 0a5c 6170705F 		.ascii	"app_nunchuk_start\000"
 3208      6E756E63 
 3208      68756B5F 
 3208      73746172 
 3208      7400
 3209              	.LASF44:
 3210 0a6e 705F6570 		.ascii	"p_epending\000"
 3210      656E6469 
 3210      6E6700
 3211              	.LASF100:
 3212 0a79 6D5F7175 		.ascii	"m_queue\000"
 3212      65756500 
 3213              	.LASF6:
 3214 0a81 6C6F6E67 		.ascii	"long int\000"
 3214      20696E74 
 3214      00
 3215              	.LASF86:
 3216 0a8a 706F7274 		.ascii	"port_intctx\000"
 3216      5F696E74 
 3216      63747800 
 3217              	.LASF152:
 3218 0a96 4144435F 		.ascii	"ADC_CTRL_TYPE_CURRENT\000"
 3218      4354524C 
 3218      5F545950 
 3218      455F4355 
 3218      5252454E 
 3219              	.LASF236:
 3220 0aac 49544D5F 		.ascii	"ITM_RxBuffer\000"
 3220      52784275 
 3220      66666572 
 3220      00
 3221              	.LASF253:
ARM GAS  /tmp/ccZSCmtR.s 			page 66


 3222 0ab9 68775F73 		.ascii	"hw_stop_i2c\000"
 3222      746F705F 
 3222      69326300 
 3223              	.LASF118:
 3224 0ac5 4150505F 		.ascii	"APP_NUNCHUK\000"
 3224      4E554E43 
 3224      48554B00 
 3225              	.LASF77:
 3226 0ad1 63685F73 		.ascii	"ch_system\000"
 3226      79737465 
 3226      6D00
 3227              	.LASF158:
 3228 0adb 4144435F 		.ascii	"ADC_CTRL_TYPE_CURRENT_NOREV_BRAKE_ADC\000"
 3228      4354524C 
 3228      5F545950 
 3228      455F4355 
 3228      5252454E 
 3229              	.LASF29:
 3230 0b01 705F6E65 		.ascii	"p_next\000"
 3230      787400
 3231              	.LASF16:
 3232 0b08 75696E74 		.ascii	"uint64_t\000"
 3232      36345F74 
 3232      00
 3233              	.LASF32:
 3234 0b11 705F6374 		.ascii	"p_ctx\000"
 3234      7800
 3235              	.LASF78:
 3236 0b17 726C6973 		.ascii	"rlist\000"
 3236      7400
 3237              	.LASF228:
 3238 0b1d 63616E5F 		.ascii	"can_baud_rate\000"
 3238      62617564 
 3238      5F726174 
 3238      6500
 3239              	.LASF241:
 3240 0b2b 6170705F 		.ascii	"app_nunchuk_stop\000"
 3240      6E756E63 
 3240      68756B5F 
 3240      73746F70 
 3240      00
 3241              	.LASF4:
 3242 0b3c 5F5F7569 		.ascii	"__uint8_t\000"
 3242      6E74385F 
 3242      7400
 3243              	.LASF244:
 3244 0b46 6170705F 		.ascii	"app_ppm_start\000"
 3244      70706D5F 
 3244      73746172 
 3244      7400
 3245              	.LASF197:
 3246 0b54 4E52465F 		.ascii	"NRF_RETR_DELAY_250US\000"
 3246      52455452 
 3246      5F44454C 
 3246      41595F32 
 3246      35305553 
 3247              	.LASF203:
ARM GAS  /tmp/ccZSCmtR.s 			page 67


 3248 0b69 4E52465F 		.ascii	"NRF_RETR_DELAY_1750US\000"
 3248      52455452 
 3248      5F44454C 
 3248      41595F31 
 3248      37353055 
 3249              	.LASF12:
 3250 0b7f 756E7369 		.ascii	"unsigned int\000"
 3250      676E6564 
 3250      20696E74 
 3250      00
 3251              	.LASF155:
 3252 0b8c 4144435F 		.ascii	"ADC_CTRL_TYPE_CURRENT_REV_BUTTON_BRAKE_ADC\000"
 3252      4354524C 
 3252      5F545950 
 3252      455F4355 
 3252      5252454E 
 3253              	.LASF209:
 3254 0bb7 4E52465F 		.ascii	"NRF_RETR_DELAY_3250US\000"
 3254      52455452 
 3254      5F44454C 
 3254      41595F33 
 3254      32353055 
 3255              	.LASF30:
 3256 0bcd 705F7072 		.ascii	"p_prev\000"
 3256      657600
 3257              	.LASF82:
 3258 0bd4 73697A65 		.ascii	"sizetype\000"
 3258      74797065 
 3258      00
 3259              	.LASF21:
 3260 0bdd 74726566 		.ascii	"trefs_t\000"
 3260      735F7400 
 3261              	.LASF8:
 3262 0be5 6C6F6E67 		.ascii	"long unsigned int\000"
 3262      20756E73 
 3262      69676E65 
 3262      6420696E 
 3262      7400
 3263              	.LASF220:
 3264 0bf7 61646472 		.ascii	"address\000"
 3264      65737300 
 3265              	.LASF54:
 3266 0bff 72656164 		.ascii	"ready_list_t\000"
 3266      795F6C69 
 3266      73745F74 
 3266      00
 3267              	.LASF135:
 3268 0c0c 6374726C 		.ascii	"ctrl_type\000"
 3268      5F747970 
 3268      6500
 3269              	.LASF14:
 3270 0c16 696E7433 		.ascii	"int32_t\000"
 3270      325F7400 
 3271              	.LASF81:
 3272 0c1e 69646C65 		.ascii	"idle_thread_wa\000"
 3272      5F746872 
 3272      6561645F 
ARM GAS  /tmp/ccZSCmtR.s 			page 68


 3272      776100
 3273              	.LASF170:
 3274 0c2d 766F6C74 		.ascii	"voltage2_end\000"
 3274      61676532 
 3274      5F656E64 
 3274      00
 3275              	.LASF93:
 3276 0c3a 77747365 		.ascii	"wtsemp\000"
 3276      6D7000
 3277              	.LASF164:
 3278 0c41 4144435F 		.ascii	"ADC_CTRL_TYPE_PID_REV_BUTTON\000"
 3278      4354524C 
 3278      5F545950 
 3278      455F5049 
 3278      445F5245 
 3279              	.LASF262:
 3280 0c5e 61707063 		.ascii	"appconf\000"
 3280      6F6E6600 
 3281              	.LASF198:
 3282 0c66 4E52465F 		.ascii	"NRF_RETR_DELAY_500US\000"
 3282      52455452 
 3282      5F44454C 
 3282      41595F35 
 3282      30305553 
 3283              	.LASF104:
 3284 0c7b 6D757465 		.ascii	"mutex_t\000"
 3284      785F7400 
 3285              	.LASF144:
 3286 0c83 7468726F 		.ascii	"throttle_exp_brake\000"
 3286      74746C65 
 3286      5F657870 
 3286      5F627261 
 3286      6B6500
 3287              	.LASF199:
 3288 0c96 4E52465F 		.ascii	"NRF_RETR_DELAY_750US\000"
 3288      52455452 
 3288      5F44454C 
 3288      41595F37 
 3288      35305553 
 3289              	.LASF186:
 3290 0cab 4E52465F 		.ascii	"NRF_SPEED_2M\000"
 3290      53504545 
 3290      445F324D 
 3290      00
 3291              	.LASF1:
 3292 0cb8 756E7369 		.ascii	"unsigned char\000"
 3292      676E6564 
 3292      20636861 
 3292      7200
 3293              	.LASF232:
 3294 0cc6 6170705F 		.ascii	"app_uart_baudrate\000"
 3294      75617274 
 3294      5F626175 
 3294      64726174 
 3294      6500
 3295              	.LASF149:
 3296 0cd8 74635F6D 		.ascii	"tc_max_diff\000"
ARM GAS  /tmp/ccZSCmtR.s 			page 69


 3296      61785F64 
 3296      69666600 
 3297              	.LASF7:
 3298 0ce4 5F5F7569 		.ascii	"__uint32_t\000"
 3298      6E743332 
 3298      5F7400
 3299              	.LASF70:
 3300 0cef 76697274 		.ascii	"virtual_timers_list_t\000"
 3300      75616C5F 
 3300      74696D65 
 3300      72735F6C 
 3300      6973745F 
 3301              	.LASF38:
 3302 0d05 705F7265 		.ascii	"p_refs\000"
 3302      667300
 3303              	.LASF75:
 3304 0d0c 70616E69 		.ascii	"panic_msg\000"
 3304      635F6D73 
 3304      6700
 3305              	.LASF210:
 3306 0d16 4E52465F 		.ascii	"NRF_RETR_DELAY_3500US\000"
 3306      52455452 
 3306      5F44454C 
 3306      41595F33 
 3306      35303055 
 3307              	.LASF171:
 3308 0d2c 7573655F 		.ascii	"use_filter\000"
 3308      66696C74 
 3308      657200
 3309              	.LASF183:
 3310 0d37 6368756B 		.ascii	"chuk_config\000"
 3310      5F636F6E 
 3310      66696700 
 3311              	.LASF39:
 3312 0d43 705F7072 		.ascii	"p_preempt\000"
 3312      65656D70 
 3312      7400
 3313              	.LASF254:
 3314 0d4d 6170705F 		.ascii	"app_uartcomm_start\000"
 3314      75617274 
 3314      636F6D6D 
 3314      5F737461 
 3314      727400
 3315              	.LASF182:
 3316 0d60 73746963 		.ascii	"stick_erpm_per_s_in_cc\000"
 3316      6B5F6572 
 3316      706D5F70 
 3316      65725F73 
 3316      5F696E5F 
 3317              	.LASF65:
 3318 0d77 76745F6E 		.ascii	"vt_next\000"
 3318      65787400 
 3319              	.LASF247:
 3320 0d7f 6170705F 		.ascii	"app_uartcomm_configure\000"
 3320      75617274 
 3320      636F6D6D 
 3320      5F636F6E 
ARM GAS  /tmp/ccZSCmtR.s 			page 70


 3320      66696775 
 3321              	.LASF250:
 3322 0d96 6E72665F 		.ascii	"nrf_driver_stop\000"
 3322      64726976 
 3322      65725F73 
 3322      746F7000 
 3323              	.LASF243:
 3324 0da6 636F6D6D 		.ascii	"comm_can_set_baud\000"
 3324      5F63616E 
 3324      5F736574 
 3324      5F626175 
 3324      6400
 3325              	.LASF76:
 3326 0db8 63685F73 		.ascii	"ch_system_t\000"
 3326      79737465 
 3326      6D5F7400 
 3327              	.LASF225:
 3328 0dc4 74696D65 		.ascii	"timeout_brake_current\000"
 3328      6F75745F 
 3328      6272616B 
 3328      655F6375 
 3328      7272656E 
 3329              	.LASF221:
 3330 0dda 73656E64 		.ascii	"send_crc_ack\000"
 3330      5F637263 
 3330      5F61636B 
 3330      00
 3331              	.LASF215:
 3332 0de7 706F7765 		.ascii	"power\000"
 3332      7200
 3333              	.LASF218:
 3334 0ded 72657472 		.ascii	"retries\000"
 3334      69657300 
 3335              	.LASF102:
 3336 0df5 6D5F6E65 		.ascii	"m_next\000"
 3336      787400
 3337              	.LASF0:
 3338 0dfc 7369676E 		.ascii	"signed char\000"
 3338      65642063 
 3338      68617200 
 3339              	.LASF248:
 3340 0e08 6170705F 		.ascii	"app_nunchuk_configure\000"
 3340      6E756E63 
 3340      68756B5F 
 3340      636F6E66 
 3340      69677572 
 3341              	.LASF161:
 3342 0e1e 4144435F 		.ascii	"ADC_CTRL_TYPE_DUTY_REV_BUTTON\000"
 3342      4354524C 
 3342      5F545950 
 3342      455F4455 
 3342      54595F52 
 3343              	.LASF58:
 3344 0e3c 725F6374 		.ascii	"r_ctx\000"
 3344      7800
 3345              	.LASF260:
 3346 0e42 6170705F 		.ascii	"app_set_configuration\000"
ARM GAS  /tmp/ccZSCmtR.s 			page 71


 3346      7365745F 
 3346      636F6E66 
 3346      69677572 
 3346      6174696F 
 3347              	.LASF84:
 3348 0e58 73746B61 		.ascii	"stkalign_t\000"
 3348      6C69676E 
 3348      5F7400
 3349              	.LASF116:
 3350 0e63 4150505F 		.ascii	"APP_PPM_UART\000"
 3350      50504D5F 
 3350      55415254 
 3350      00
 3351              	.LASF242:
 3352 0e70 6D656D63 		.ascii	"memcpy\000"
 3352      707900
 3353              	.LASF191:
 3354 0e77 4E52465F 		.ascii	"NRF_POWER_0DBM\000"
 3354      504F5745 
 3354      525F3044 
 3354      424D00
 3355              	.LASF231:
 3356 0e86 6170705F 		.ascii	"app_adc_conf\000"
 3356      6164635F 
 3356      636F6E66 
 3356      00
 3357              	.LASF162:
 3358 0e93 4144435F 		.ascii	"ADC_CTRL_TYPE_PID\000"
 3358      4354524C 
 3358      5F545950 
 3358      455F5049 
 3358      4400
 3359              	.LASF68:
 3360 0ea5 76745F66 		.ascii	"vt_func\000"
 3360      756E6300 
 3361              	.LASF66:
 3362 0ead 76745F70 		.ascii	"vt_prev\000"
 3362      72657600 
 3363              	.LASF257:
 3364 0eb5 6170706C 		.ascii	"applications/app.c\000"
 3364      69636174 
 3364      696F6E73 
 3364      2F617070 
 3364      2E6300
 3365              	.LASF204:
 3366 0ec8 4E52465F 		.ascii	"NRF_RETR_DELAY_2000US\000"
 3366      52455452 
 3366      5F44454C 
 3366      41595F32 
 3366      30303055 
 3367              	.LASF201:
 3368 0ede 4E52465F 		.ascii	"NRF_RETR_DELAY_1250US\000"
 3368      52455452 
 3368      5F44454C 
 3368      41595F31 
 3368      32353055 
 3369              	.LASF184:
ARM GAS  /tmp/ccZSCmtR.s 			page 72


 3370 0ef4 4E52465F 		.ascii	"NRF_SPEED_250K\000"
 3370      53504545 
 3370      445F3235 
 3370      304B00
 3371              	.LASF185:
 3372 0f03 4E52465F 		.ascii	"NRF_SPEED_1M\000"
 3372      53504545 
 3372      445F314D 
 3372      00
 3373              	.LASF125:
 3374 0f10 7468725F 		.ascii	"thr_exp_mode\000"
 3374      6578705F 
 3374      6D6F6465 
 3374      00
 3375              	.LASF259:
 3376 0f1d 6170705F 		.ascii	"app_get_configuration\000"
 3376      6765745F 
 3376      636F6E66 
 3376      69677572 
 3376      6174696F 
 3377              	.LASF92:
 3378 0f33 77747472 		.ascii	"wttrp\000"
 3378      7000
 3379              	.LASF94:
 3380 0f39 77746D74 		.ascii	"wtmtxp\000"
 3380      787000
 3381              	.LASF124:
 3382 0f40 5448525F 		.ascii	"THR_EXP_POLY\000"
 3382      4558505F 
 3382      504F4C59 
 3382      00
 3383              	.LASF134:
 3384 0f4d 70706D5F 		.ascii	"ppm_control_type\000"
 3384      636F6E74 
 3384      726F6C5F 
 3384      74797065 
 3384      00
 3385              	.LASF151:
 3386 0f5e 4144435F 		.ascii	"ADC_CTRL_TYPE_NONE\000"
 3386      4354524C 
 3386      5F545950 
 3386      455F4E4F 
 3386      4E4500
 3387              	.LASF90:
 3388 0f71 65786974 		.ascii	"exitcode\000"
 3388      636F6465 
 3388      00
 3389              	.LASF187:
 3390 0f7a 4E52465F 		.ascii	"NRF_SPEED\000"
 3390      53504545 
 3390      4400
 3391              	.LASF33:
 3392 0f84 705F6E65 		.ascii	"p_newer\000"
 3392      77657200 
 3393              	.LASF177:
 3394 0f8c 6164635F 		.ascii	"adc_config\000"
 3394      636F6E66 
ARM GAS  /tmp/ccZSCmtR.s 			page 73


 3394      696700
 3395              		.ident	"GCC: (4.8.4-1+11-1) 4.8.4 20141219 (release)"
ARM GAS  /tmp/ccZSCmtR.s 			page 74


DEFINED SYMBOLS
                            *ABS*:0000000000000000 app.c
     /tmp/ccZSCmtR.s:21     .text.app_get_configuration:0000000000000000 $t
     /tmp/ccZSCmtR.s:27     .text.app_get_configuration:0000000000000000 app_get_configuration
     /tmp/ccZSCmtR.s:41     .text.app_get_configuration:0000000000000004 $d
     /tmp/ccZSCmtR.s:46     .text.app_set_configuration:0000000000000000 $t
     /tmp/ccZSCmtR.s:52     .text.app_set_configuration:0000000000000000 app_set_configuration
     /tmp/ccZSCmtR.s:105    .text.app_set_configuration:0000000000000038 $d
     /tmp/ccZSCmtR.s:209    .text.app_set_configuration:00000000000000b4 $d
     /tmp/ccZSCmtR.s:219    .bss.appconf:0000000000000000 $d
     /tmp/ccZSCmtR.s:223    .bss.appconf:0000000000000000 appconf
                     .debug_frame:0000000000000010 $d
     /tmp/ccZSCmtR.s:45     .text.app_get_configuration:0000000000000008 $t
     /tmp/ccZSCmtR.s:218    .text.app_set_configuration:00000000000000cc $t
     /tmp/ccZSCmtR.s:112    .text.app_set_configuration:000000000000003f $d
     /tmp/ccZSCmtR.s:112    .text.app_set_configuration:0000000000000040 $t

UNDEFINED SYMBOLS
memcpy
app_ppm_stop
app_adc_stop
app_uartcomm_stop
app_nunchuk_stop
comm_can_set_baud
app_ppm_start
app_ppm_configure
app_adc_configure
app_uartcomm_configure
app_nunchuk_configure
rfhelp_update_conf
nrf_driver_stop
nrf_driver_init
rfhelp_restart
app_adc_start
hw_stop_i2c
app_uartcomm_start
app_nunchuk_start
conf_general_permanent_nrf_found
