ARM GAS  /tmp/ccZSCmtR.s 			page 1


   1              		.syntax unified
   2              		.cpu cortex-m4
   3              		.eabi_attribute 27, 3
   4              		.eabi_attribute 28, 1
   5              		.fpu fpv4-sp-d16
   6              		.eabi_attribute 20, 1
   7              		.eabi_attribute 21, 1
   8              		.eabi_attribute 23, 3
   9              		.eabi_attribute 24, 1
  10              		.eabi_attribute 25, 1
  11              		.eabi_attribute 26, 1
  12              		.eabi_attribute 30, 2
  13              		.eabi_attribute 34, 1
  14              		.eabi_attribute 18, 4
  15              		.thumb
  16              		.file	"app.c"
  17              		.text
  18              	.Ltext0:
  19              		.cfi_sections	.debug_frame
  20              		.section	.text.app_get_configuration,"ax",%progbits
  21              		.align	2
  22              		.p2align 4,,15
  23              		.global	app_get_configuration
  24              		.thumb
  25              		.thumb_func
  26              		.type	app_get_configuration, %function
  27              	app_get_configuration:
  28              	.LFB256:
  29              		.file 1 "applications/app.c"
  30              		.loc 1 31 0
  31              		.cfi_startproc
  32              		@ args = 0, pretend = 0, frame = 0
  33              		@ frame_needed = 0, uses_anonymous_args = 0
  34              		@ link register save eliminated.
  35              		.loc 1 33 0
  36 0000 0048     		ldr	r0, .L2
  37 0002 7047     		bx	lr
  38              	.L3:
  39              		.align	2
  40              	.L2:
  41 0004 00000000 		.word	.LANCHOR0
  42              		.cfi_endproc
  43              	.LFE256:
  44              		.size	app_get_configuration, .-app_get_configuration
  45 0008 AFF30080 		.section	.text.app_set_configuration,"ax",%progbits
  45      AFF30080 
  46              		.align	2
  47              		.p2align 4,,15
  48              		.global	app_set_configuration
  49              		.thumb
  50              		.thumb_func
  51              		.type	app_set_configuration, %function
  52              	app_set_configuration:
  53              	.LFB257:
  54              		.loc 1 41 0
  55              		.cfi_startproc
  56              		@ args = 0, pretend = 0, frame = 0
ARM GAS  /tmp/ccZSCmtR.s 			page 2


  57              		@ frame_needed = 0, uses_anonymous_args = 0
  58              	.LVL0:
  59 0000 70B5     		push	{r4, r5, r6, lr}
  60              		.cfi_def_cfa_offset 16
  61              		.cfi_offset 4, -16
  62              		.cfi_offset 5, -12
  63              		.cfi_offset 6, -8
  64              		.cfi_offset 14, -4
  65              		.loc 1 41 0
  66 0002 0546     		mov	r5, r0
  67              		.loc 1 49 0
  68 0004 2B4E     		ldr	r6, .L17
  69              		.loc 1 42 0
  70 0006 2C48     		ldr	r0, .L17+4
  71              	.LVL1:
  72 0008 2946     		mov	r1, r5
  73 000a C822     		movs	r2, #200
  74 000c FFF7FEFF 		bl	memcpy
  75              	.LVL2:
  76              		.loc 1 44 0
  77 0010 FFF7FEFF 		bl	app_ppm_stop
  78              	.LVL3:
  79              		.loc 1 45 0
  80 0014 FFF7FEFF 		bl	app_adc_stop
  81              	.LVL4:
  82              		.loc 1 46 0
  83 0018 FFF7FEFF 		bl	app_uartcomm_stop
  84              	.LVL5:
  85              		.loc 1 47 0
  86 001c FFF7FEFF 		bl	app_nunchuk_stop
  87              	.LVL6:
  88              		.loc 1 49 0
  89 0020 3378     		ldrb	r3, [r6]	@ zero_extendqisi2
  90 0022 0BB3     		cbz	r3, .L16
  91              	.L5:
  92              		.loc 1 61 0
  93 0024 244C     		ldr	r4, .L17+4
  94              		.loc 1 54 0
  95 0026 287D     		ldrb	r0, [r5, #20]	@ zero_extendqisi2
  96 0028 FFF7FEFF 		bl	comm_can_set_baud
  97              	.LVL7:
  98              		.loc 1 61 0
  99 002c 637D     		ldrb	r3, [r4, #21]	@ zero_extendqisi2
 100 002e 013B     		subs	r3, r3, #1
 101 0030 062B     		cmp	r3, #6
 102 0032 07D8     		bhi	.L6
 103 0034 DFE803F0 		tbb	[pc, r3]
 104              	.L8:
 105 0038 04       		.byte	(.L7-.L8)/2
 106 0039 23       		.byte	(.L9-.L8)/2
 107 003a 27       		.byte	(.L10-.L8)/2
 108 003b 2C       		.byte	(.L11-.L8)/2
 109 003c 33       		.byte	(.L12-.L8)/2
 110 003d 3B       		.byte	(.L13-.L8)/2
 111 003e 1B       		.byte	(.L14-.L8)/2
 112 003f 00       		.p2align 1
 113              	.L7:
ARM GAS  /tmp/ccZSCmtR.s 			page 3


 114              		.loc 1 63 0
 115 0040 FFF7FEFF 		bl	app_ppm_start
 116              	.LVL8:
 117              	.L6:
 118              		.loc 1 109 0
 119 0044 1D48     		ldr	r0, .L17+8
 120 0046 FFF7FEFF 		bl	app_ppm_configure
 121              	.LVL9:
 122              		.loc 1 110 0
 123 004a 1D48     		ldr	r0, .L17+12
 124 004c FFF7FEFF 		bl	app_adc_configure
 125              	.LVL10:
 126              		.loc 1 111 0
 127 0050 D4F89400 		ldr	r0, [r4, #148]
 128 0054 FFF7FEFF 		bl	app_uartcomm_configure
 129              	.LVL11:
 130              		.loc 1 112 0
 131 0058 1A48     		ldr	r0, .L17+16
 132 005a FFF7FEFF 		bl	app_nunchuk_configure
 133              	.LVL12:
 134              		.loc 1 118 0
 135 005e 1A48     		ldr	r0, .L17+20
 136              		.loc 1 119 0
 137 0060 BDE87040 		pop	{r4, r5, r6, lr}
 138              	.LVL13:
 139              		.loc 1 118 0
 140 0064 FFF7FEBF 		b	rfhelp_update_conf
 141              	.LVL14:
 142              	.L16:
 143              		.loc 1 50 0
 144 0068 FFF7FEFF 		bl	nrf_driver_stop
 145              	.LVL15:
 146 006c DAE7     		b	.L5
 147              	.L14:
 148              		.loc 1 92 0
 149 006e 3378     		ldrb	r3, [r6]	@ zero_extendqisi2
 150 0070 002B     		cmp	r3, #0
 151 0072 E7D1     		bne	.L6
 152              		.loc 1 93 0
 153 0074 FFF7FEFF 		bl	nrf_driver_init
 154              	.LVL16:
 155              		.loc 1 94 0
 156 0078 FFF7FEFF 		bl	rfhelp_restart
 157              	.LVL17:
 158 007c E2E7     		b	.L6
 159              	.L9:
 160              		.loc 1 67 0
 161 007e 0120     		movs	r0, #1
 162 0080 FFF7FEFF 		bl	app_adc_start
 163              	.LVL18:
 164              		.loc 1 68 0
 165 0084 DEE7     		b	.L6
 166              	.L10:
 167              		.loc 1 71 0
 168 0086 FFF7FEFF 		bl	hw_stop_i2c
 169              	.LVL19:
 170              		.loc 1 72 0
ARM GAS  /tmp/ccZSCmtR.s 			page 4


 171 008a FFF7FEFF 		bl	app_uartcomm_start
 172              	.LVL20:
 173              		.loc 1 73 0
 174 008e D9E7     		b	.L6
 175              	.L11:
 176              		.loc 1 76 0
 177 0090 FFF7FEFF 		bl	hw_stop_i2c
 178              	.LVL21:
 179              		.loc 1 77 0
 180 0094 FFF7FEFF 		bl	app_ppm_start
 181              	.LVL22:
 182              		.loc 1 78 0
 183 0098 FFF7FEFF 		bl	app_uartcomm_start
 184              	.LVL23:
 185              		.loc 1 79 0
 186 009c D2E7     		b	.L6
 187              	.L12:
 188              		.loc 1 82 0
 189 009e FFF7FEFF 		bl	hw_stop_i2c
 190              	.LVL24:
 191              		.loc 1 83 0
 192 00a2 0020     		movs	r0, #0
 193 00a4 FFF7FEFF 		bl	app_adc_start
 194              	.LVL25:
 195              		.loc 1 84 0
 196 00a8 FFF7FEFF 		bl	app_uartcomm_start
 197              	.LVL26:
 198              		.loc 1 85 0
 199 00ac CAE7     		b	.L6
 200              	.L13:
 201              		.loc 1 88 0
 202 00ae FFF7FEFF 		bl	app_nunchuk_start
 203              	.LVL27:
 204              		.loc 1 89 0
 205 00b2 C7E7     		b	.L6
 206              	.L18:
 207              		.align	2
 208              	.L17:
 209 00b4 00000000 		.word	conf_general_permanent_nrf_found
 210 00b8 00000000 		.word	.LANCHOR0
 211 00bc 18000000 		.word	.LANCHOR0+24
 212 00c0 50000000 		.word	.LANCHOR0+80
 213 00c4 98000000 		.word	.LANCHOR0+152
 214 00c8 BC000000 		.word	.LANCHOR0+188
 215              		.cfi_endproc
 216              	.LFE257:
 217              		.size	app_set_configuration, .-app_set_configuration
 218 00cc AFF30080 		.section	.bss.appconf,"aw",%nobits
 219              		.align	2
 220              		.set	.LANCHOR0,. + 0
 221              		.type	appconf, %object
 222              		.size	appconf, 200
 223              	appconf:
 224 0000 00000000 		.space	200
 224      00000000 
 224      00000000 
 224      00000000 
ARM GAS  /tmp/ccZSCmtR.s 			page 5


 224      00000000 
 225              		.text
 226              	.Letext0:
 227              		.file 2 "/usr/include/newlib/machine/_default_types.h"
 228              		.file 3 "/usr/include/newlib/stdint.h"
 229              		.file 4 "/usr/lib/gcc/arm-none-eabi/4.8/include/stddef.h"
 230              		.file 5 "ChibiOS_3.0.2/os/rt/ports/ARMCMx/compilers/GCC/chtypes.h"
 231              		.file 6 "ChibiOS_3.0.2/os/rt/include/chsystypes.h"
 232              		.file 7 "ChibiOS_3.0.2/os/rt/include/chschd.h"
 233              		.file 8 "ChibiOS_3.0.2/os/rt/ports/ARMCMx/chcore.h"
 234              		.file 9 "ChibiOS_3.0.2/os/rt/ports/ARMCMx/chcore_v7m.h"
 235              		.file 10 "ChibiOS_3.0.2/os/rt/include/chtm.h"
 236              		.file 11 "ChibiOS_3.0.2/os/rt/include/chsem.h"
 237              		.file 12 "ChibiOS_3.0.2/os/rt/include/chmtx.h"
 238              		.file 13 "./datatypes.h"
 239              		.file 14 "ChibiOS_3.0.2/os/ext/CMSIS/include/core_cm4.h"
 240              		.file 15 "./conf_general.h"
 241              		.file 16 "applications/app.h"
 242              		.file 17 "./comm_can.h"
 243              		.file 18 "nrf/rfhelp.h"
 244              		.file 19 "nrf/nrf_driver.h"
 245              		.file 20 "hwconf/hw.h"