ARM GAS  /tmp/ccYNOxGt.s 			page 1


   1              		.syntax unified
   2              		.cpu cortex-m4
   3              		.eabi_attribute 27, 3
   4              		.eabi_attribute 28, 1
   5              		.fpu fpv4-sp-d16
   6              		.eabi_attribute 20, 1
   7              		.eabi_attribute 21, 1
   8              		.eabi_attribute 23, 3
   9              		.eabi_attribute 24, 1
  10              		.eabi_attribute 25, 1
  11              		.eabi_attribute 26, 1
  12              		.eabi_attribute 30, 2
  13              		.eabi_attribute 34, 1
  14              		.eabi_attribute 18, 4
  15              		.thumb
  16              		.file	"app_nunchuk.c"
  17              		.text
  18              	.Ltext0:
  19              		.cfi_sections	.debug_frame
  20              		.section	.text.terminal_cmd_nunchuk_status,"ax",%progbits
  21              		.align	2
  22              		.p2align 4,,15
  23              		.thumb
  24              		.thumb_func
  25              		.type	terminal_cmd_nunchuk_status, %function
  26              	terminal_cmd_nunchuk_status:
  27              	.LFB263:
  28              		.file 1 "applications/app_nunchuk.c"
  29              		.loc 1 488 0
  30              		.cfi_startproc
  31              		@ args = 0, pretend = 0, frame = 0
  32              		@ frame_needed = 0, uses_anonymous_args = 0
  33              	.LVL0:
  34 0000 08B5     		push	{r3, lr}
  35              		.cfi_def_cfa_offset 8
  36              		.cfi_offset 3, -8
  37              		.cfi_offset 14, -4
  38              		.loc 1 492 0
  39 0002 0948     		ldr	r0, .L4
  40              	.LVL1:
  41 0004 FFF7FEFF 		bl	commands_printf
  42              	.LVL2:
  43              		.loc 1 493 0
  44 0008 084B     		ldr	r3, .L4+4
  45 000a 094A     		ldr	r2, .L4+8
  46 000c 1978     		ldrb	r1, [r3]	@ zero_extendqisi2
  47 000e 094B     		ldr	r3, .L4+12
  48 0010 0948     		ldr	r0, .L4+16
  49 0012 0029     		cmp	r1, #0
  50 0014 0CBF     		ite	eq
  51 0016 1146     		moveq	r1, r2
  52 0018 1946     		movne	r1, r3
  53 001a FFF7FEFF 		bl	commands_printf
  54              	.LVL3:
  55              		.loc 1 494 0
  56 001e 0748     		ldr	r0, .L4+20
  57              		.loc 1 495 0
ARM GAS  /tmp/ccYNOxGt.s 			page 2


  58 0020 BDE80840 		pop	{r3, lr}
  59              		.loc 1 494 0
  60 0024 FFF7FEBF 		b	commands_printf
  61              	.LVL4:
  62              	.L5:
  63              		.align	2
  64              	.L4:
  65 0028 08000000 		.word	.LC2
  66 002c 00000000 		.word	.LANCHOR0
  67 0030 04000000 		.word	.LC1
  68 0034 00000000 		.word	.LC0
  69 0038 18000000 		.word	.LC3
  70 003c 24000000 		.word	.LC4
  71              		.cfi_endproc
  72              	.LFE263:
  73              		.size	terminal_cmd_nunchuk_status, .-terminal_cmd_nunchuk_status
  74              		.section	.text.output_thread,"ax",%progbits
  75              		.align	2
  76              		.p2align 4,,15
  77              		.thumb
  78              		.thumb_func
  79              		.type	output_thread, %function
  80              	output_thread:
  81              	.LFB262:
  82              		.loc 1 201 0
  83              		.cfi_startproc
  84              		@ args = 0, pretend = 0, frame = 24
  85              		@ frame_needed = 0, uses_anonymous_args = 0
  86              	.LVL5:
  87 0000 2DE9F04F 		push	{r4, r5, r6, r7, r8, r9, r10, fp, lr}
  88              		.cfi_def_cfa_offset 36
  89              		.cfi_offset 4, -36
  90              		.cfi_offset 5, -32
  91              		.cfi_offset 6, -28
  92              		.cfi_offset 7, -24
  93              		.cfi_offset 8, -20
  94              		.cfi_offset 9, -16
  95              		.cfi_offset 10, -12
  96              		.cfi_offset 11, -8
  97              		.cfi_offset 14, -4
  98              	.LBB87:
  99              	.LBB88:
 100              		.file 2 "ChibiOS_3.0.2/os/rt/include/chregistry.h"
 101              		.loc 2 135 0
 102 0004 BC4E     		ldr	r6, .L188
 103 0006 BD4A     		ldr	r2, .L188+4
 104 0008 B369     		ldr	r3, [r6, #24]
 105 000a BD4C     		ldr	r4, .L188+8
 106 000c BD4D     		ldr	r5, .L188+12
 107 000e DFF838A3 		ldr	r10, .L188+80
 108 0012 BD4F     		ldr	r7, .L188+16
 109 0014 DFF83483 		ldr	r8, .L188+84
 110              	.LBE88:
 111              	.LBE87:
 112              		.loc 1 201 0
 113 0018 2DED0C8B 		fstmfdd	sp!, {d8, d9, d10, d11, d12, d13}
 114              		.cfi_def_cfa_offset 84
ARM GAS  /tmp/ccYNOxGt.s 			page 3


 115              		.cfi_offset 80, -84
 116              		.cfi_offset 82, -76
 117              		.cfi_offset 84, -68
 118              		.cfi_offset 86, -60
 119              		.cfi_offset 88, -52
 120              		.cfi_offset 90, -44
 121              	.LBB90:
 122              		.loc 1 224 0
 123 001c 9FEDBBBA 		flds	s22, .L188+20
 124              	.LBB91:
 125              	.LBB92:
 126              		.loc 1 89 0
 127 0020 DFEDBBAA 		flds	s21, .L188+24
 128              	.LBE92:
 129              	.LBE91:
 130              	.LBB98:
 131              	.LBB99:
 132              	.LBB100:
 133              		.loc 1 448 0
 134 0024 9FEDBB9A 		flds	s18, .L188+28
 135 0028 DFEDBB8A 		flds	s17, .L188+32
 136              	.LBE100:
 137              	.LBE99:
 138              	.LBE98:
 139              	.LBE90:
 140              	.LBB158:
 141              	.LBB89:
 142              		.loc 2 135 0
 143 002c 9A61     		str	r2, [r3, #24]
 144              	.LBE89:
 145              	.LBE158:
 146              		.loc 1 201 0
 147 002e 87B0     		sub	sp, sp, #28
 148              		.cfi_def_cfa_offset 112
 149              	.LVL6:
 150              	.L7:
 151              	.LBB159:
 152              		.loc 1 207 0
 153 0030 0A20     		movs	r0, #10
 154 0032 FFF7FEFF 		bl	chThdSleep
 155              	.LVL7:
 156              		.loc 1 209 0
 157 0036 FFF7FEFF 		bl	timeout_has_timeout
 158              	.LVL8:
 159 003a 0028     		cmp	r0, #0
 160 003c F8D1     		bne	.L7
 161              		.loc 1 209 0 is_stmt 0 discriminator 1
 162 003e 2268     		ldr	r2, [r4]
 163 0040 002A     		cmp	r2, #0
 164 0042 F5D1     		bne	.L7
 165 0044 2A78     		ldrb	r2, [r5]	@ zero_extendqisi2
 166 0046 002A     		cmp	r2, #0
 167 0048 F2D0     		beq	.L7
 168              		.loc 1 215 0 is_stmt 1
 169 004a DAF80020 		ldr	r2, [r10]
 170              	.LVL9:
 171              	.LBB112:
ARM GAS  /tmp/ccYNOxGt.s 			page 4


 172              	.LBB113:
 173              	.LBB114:
 174              	.LBB115:
 175              		.file 3 "ChibiOS_3.0.2/os/rt/include/chvt.h"
 176              		.loc 3 231 0
 177 004e B16A     		ldr	r1, [r6, #40]
 178              	.LBE115:
 179              	.LBE114:
 180              		.loc 3 267 0
 181 0050 891A     		subs	r1, r1, r2
 182              	.LBE113:
 183              	.LBE112:
 184              		.loc 1 215 0
 185 0052 44F62062 		movw	r2, #20000
 186              	.LVL10:
 187 0056 9142     		cmp	r1, r2
 188 0058 EAD8     		bhi	.L7
 189              		.loc 1 219 0
 190 005a 0190     		str	r0, [sp, #4]
 191 005c FFF7FEFF 		bl	mc_interface_get_configuration
 192              	.LVL11:
 193 0060 8146     		mov	r9, r0
 194              	.LVL12:
 195              		.loc 1 222 0
 196 0062 FFF7FEFF 		bl	mc_interface_get_tot_current_directional_filtered
 197              	.LVL13:
 198              		.loc 1 224 0
 199 0066 99ED01CA 		flds	s24, [r9, #4]
 200              		.loc 1 226 0
 201 006a 3A7D     		ldrb	r2, [r7, #20]	@ zero_extendqisi2
 202 006c A649     		ldr	r1, .L188+16
 203 006e 019B     		ldr	r3, [sp, #4]
 204              		.loc 1 222 0
 205 0070 B0EE408A 		fcpys	s16, s0
 206              	.LVL14:
 207              		.loc 1 224 0
 208 0074 2CEE0BCA 		fmuls	s24, s24, s22
 209              	.LVL15:
 210              		.loc 1 226 0
 211 0078 1AB1     		cbz	r2, .L9
 212              		.loc 1 226 0 is_stmt 0 discriminator 1
 213 007a 4A7D     		ldrb	r2, [r1, #21]	@ zero_extendqisi2
 214 007c 002A     		cmp	r2, #0
 215 007e 40F02B82 		bne	.L177
 216              	.L9:
 217              		.loc 1 231 0 is_stmt 1
 218 0082 7A7D     		ldrb	r2, [r7, #21]	@ zero_extendqisi2
 219 0084 02F0FF01 		and	r1, r2, #255
 220 0088 3AB1     		cbz	r2, .L13
 221              		.loc 1 231 0 is_stmt 0 discriminator 1
 222 008a A448     		ldr	r0, .L188+36
 223 008c 0278     		ldrb	r2, [r0]	@ zero_extendqisi2
 224 008e 22B9     		cbnz	r2, .L13
 225 0090 2878     		ldrb	r0, [r5]	@ zero_extendqisi2
 226 0092 C0B2     		uxtb	r0, r0
 227 0094 0128     		cmp	r0, #1
 228 0096 00F0AA82 		beq	.L178
ARM GAS  /tmp/ccYNOxGt.s 			page 5


 229              	.L13:
 230 009a 98F80030 		ldrb	r3, [r8]	@ zero_extendqisi2
 231              	.L12:
 232              		.loc 1 240 0 is_stmt 1
 233 009e 9F49     		ldr	r1, .L188+36
 234              	.LBB116:
 235              	.LBB93:
 236              		.loc 1 89 0
 237 00a0 DFED9F9A 		flds	s19, .L188+40
 238              	.LBE93:
 239              	.LBE116:
 240              		.loc 1 242 0
 241 00a4 1846     		mov	r0, r3
 242              		.loc 1 240 0
 243 00a6 7B7D     		ldrb	r3, [r7, #21]	@ zero_extendqisi2
 244 00a8 0B70     		strb	r3, [r1]
 245              		.loc 1 242 0
 246 00aa FFF7FEFF 		bl	led_external_set_reversed
 247              	.LVL16:
 248              	.LBB117:
 249              	.LBB94:
 250              		.loc 1 89 0
 251 00ae D7ED017A 		flds	s15, [r7, #4]	@ int
 252              	.LBE94:
 253              	.LBE117:
 254              		.loc 1 245 0
 255 00b2 95ED010A 		flds	s0, [r5, #4]
 256              	.LBB118:
 257              	.LBB95:
 258              		.loc 1 89 0
 259 00b6 F8EEE77A 		fsitos	s15, s15
 260              	.LBE95:
 261              	.LBE118:
 262              		.loc 1 245 0
 263 00ba 03A8     		add	r0, sp, #12
 264              	.LBB119:
 265              	.LBB96:
 266              		.loc 1 89 0
 267 00bc 77EEEA7A 		fsubs	s15, s15, s21
 268              	.LBE96:
 269              	.LBE119:
 270              		.loc 1 245 0
 271 00c0 F7EE000A 		fconsts	s1, #112
 272              	.LBB120:
 273              	.LBB97:
 274              		.loc 1 89 0
 275 00c4 67EEA97A 		fmuls	s15, s15, s19
 276              	.LBE97:
 277              	.LBE120:
 278              		.loc 1 244 0
 279 00c8 CDED037A 		fsts	s15, [sp, #12]
 280              		.loc 1 245 0
 281 00cc FFF7FEFF 		bl	utils_deadband
 282              	.LVL17:
 283              		.loc 1 246 0
 284 00d0 D5ED050A 		flds	s1, [r5, #20]
 285 00d4 9DED030A 		flds	s0, [sp, #12]
ARM GAS  /tmp/ccYNOxGt.s 			page 6


 286 00d8 95ED061A 		flds	s2, [r5, #24]
 287 00dc 287F     		ldrb	r0, [r5, #28]	@ zero_extendqisi2
 288 00de FFF7FEFF 		bl	utils_throttle_curve
 289              	.LVL18:
 290              		.loc 1 249 0
 291 00e2 97ED007A 		flds	s14, [r7]	@ int
 292              		.loc 1 250 0
 293 00e6 DFED8F7A 		flds	s15, .L188+44
 294              		.loc 1 246 0
 295 00ea 8DED030A 		fsts	s0, [sp, #12]
 296              		.loc 1 249 0
 297 00ee B8EEC77A 		fsitos	s14, s14
 298              		.loc 1 250 0
 299 00f2 B4EEE70A 		fcmpes	s0, s15
 300              		.loc 1 249 0
 301 00f6 37EE6A7A 		fsubs	s14, s14, s21
 302              		.loc 1 251 0
 303 00fa DFED8B7A 		flds	s15, .L188+48
 304              		.loc 1 249 0
 305 00fe 67EE299A 		fmuls	s19, s14, s19
 306              	.LVL19:
 307              		.loc 1 250 0
 308 0102 F1EE10FA 		fmstat
 309              		.loc 1 251 0
 310 0106 F4EEE79A 		fcmpes	s19, s15
 311              		.loc 1 250 0
 312 010a 58D5     		bpl	.L163
 313              		.loc 1 251 0
 314 010c F1EE10FA 		fmstat
 315 0110 00F12382 		bmi	.L179
 316              		.loc 1 253 0
 317 0114 DFED857A 		flds	s15, .L188+52
 318 0118 F4EEE79A 		fcmpes	s19, s15
 319 011c F1EE10FA 		fmstat
 320              		.loc 1 254 0
 321 0120 CCBF     		ite	gt
 322 0122 0620     		movgt	r0, #6
 323              		.loc 1 256 0
 324 0124 0220     		movle	r0, #2
 325 0126 FFF7FEFF 		bl	led_external_set_state
 326              	.LVL20:
 327              	.L20:
 328              		.loc 1 274 0
 329 012a 814A     		ldr	r2, .L188+56
 330 012c 804B     		ldr	r3, .L188+56
 331 012e D2F800B0 		ldr	fp, [r2]
 332 0132 0BF10102 		add	r2, fp, #1
 333 0136 1A60     		str	r2, [r3]
 334 0138 FFF7FEFF 		bl	mc_interface_get_rpm
 335              	.LVL21:
 336              		.loc 1 275 0
 337 013c 7C48     		ldr	r0, .L188+56
 338              		.loc 1 274 0
 339 013e 7D49     		ldr	r1, .L188+60
 340              		.loc 1 275 0
 341 0140 0268     		ldr	r2, [r0]
 342              		.loc 1 279 0
ARM GAS  /tmp/ccYNOxGt.s 			page 7


 343 0142 DFED837A 		flds	s15, .L188+88
 344              		.loc 1 274 0
 345 0146 01EB8B03 		add	r3, r1, fp, lsl #2
 346              		.loc 1 275 0
 347 014a 072A     		cmp	r2, #7
 348              		.loc 1 274 0
 349 014c 83ED000A 		fsts	s0, [r3]
 350              		.loc 1 276 0
 351 0150 C4BF     		itt	gt
 352 0152 0023     		movgt	r3, #0
 353 0154 0360     		strgt	r3, [r0]
 354              	.LVL22:
 355 0156 774B     		ldr	r3, .L188+60
 356 0158 03F12002 		add	r2, r3, #32
 357              	.LVL23:
 358              	.L29:
 359              	.LBB121:
 360              		.loc 1 281 0 discriminator 2
 361 015c B3EC017A 		fldmias	r3!, {s14}
 362              		.loc 1 280 0 discriminator 2
 363 0160 9342     		cmp	r3, r2
 364              		.loc 1 281 0 discriminator 2
 365 0162 77EE877A 		fadds	s15, s15, s14
 366              	.LVL24:
 367              		.loc 1 280 0 discriminator 2
 368 0166 F9D1     		bne	.L29
 369              	.LVL25:
 370              	.LBE121:
 371              		.loc 1 285 0
 372 0168 3B7D     		ldrb	r3, [r7, #20]	@ zero_extendqisi2
 373 016a 03F0FF02 		and	r2, r3, #255
 374 016e 002B     		cmp	r3, #0
 375 0170 35D0     		beq	.L30
 376              	.LBB122:
 377              		.loc 1 288 0
 378 0172 714A     		ldr	r2, .L188+64
 379 0174 1378     		ldrb	r3, [r2]	@ zero_extendqisi2
 380              	.LBE122:
 381              		.loc 1 283 0
 382 0176 B4EE007A 		fconsts	s14, #64
 383 017a 67EE877A 		fmuls	s15, s15, s14
 384              	.LVL26:
 385              	.LBB132:
 386              		.loc 1 288 0
 387 017e 002B     		cmp	r3, #0
 388 0180 40F04681 		bne	.L31
 389              		.loc 1 289 0
 390 0184 6D48     		ldr	r0, .L188+68
 391              		.loc 1 291 0
 392 0186 98F80030 		ldrb	r3, [r8]	@ zero_extendqisi2
 393              		.loc 1 289 0
 394 018a C0ED007A 		fsts	s15, [r0]
 395              		.loc 1 291 0
 396 018e F5EEC07A 		fcmpezs	s15
 397 0192 002B     		cmp	r3, #0
 398 0194 40F0E981 		bne	.L180
 399              		.loc 1 291 0 is_stmt 0 discriminator 1
ARM GAS  /tmp/ccYNOxGt.s 			page 8


 400 0198 F1EE10FA 		fmstat
 401 019c 00F1E981 		bmi	.L33
 402              	.L168:
 403 01a0 B0EE670A 		fcpys	s0, s15
 404              	.LVL27:
 405              	.L34:
 406              		.loc 1 300 0 is_stmt 1
 407 01a4 644A     		ldr	r2, .L188+64
 408 01a6 0123     		movs	r3, #1
 409 01a8 1370     		strb	r3, [r2]
 410              	.L36:
 411              		.loc 1 325 0
 412 01aa FFF7FEFF 		bl	mc_interface_set_pid_speed
 413              	.LVL28:
 414              		.loc 1 328 0
 415 01ae 6B7F     		ldrb	r3, [r5, #29]	@ zero_extendqisi2
 416 01b0 002B     		cmp	r3, #0
 417 01b2 40F06581 		bne	.L44
 418              	.LVL29:
 419              	.L47:
 420              		.loc 1 342 0
 421 01b6 6249     		ldr	r1, .L188+72
 422 01b8 81ED008A 		fsts	s16, [r1]
 423              		.loc 1 344 0
 424 01bc 38E7     		b	.L7
 425              	.LVL30:
 426              	.L163:
 427              	.LBE132:
 428              		.loc 1 259 0
 429 01be F1EE10FA 		fmstat
 430 01c2 00F1CE81 		bmi	.L181
 431              		.loc 1 261 0
 432 01c6 DFED597A 		flds	s15, .L188+52
 433 01ca F4EEE79A 		fcmpes	s19, s15
 434 01ce F1EE10FA 		fmstat
 435              		.loc 1 262 0
 436 01d2 CCBF     		ite	gt
 437 01d4 0420     		movgt	r0, #4
 438              		.loc 1 264 0
 439 01d6 0120     		movle	r0, #1
 440 01d8 FFF7FEFF 		bl	led_external_set_state
 441              	.LVL31:
 442 01dc A5E7     		b	.L20
 443              	.LVL32:
 444              	.L30:
 445              		.loc 1 351 0
 446 01de DDED037A 		flds	s15, [sp, #12]
 447              	.LVL33:
 448              		.loc 1 347 0
 449 01e2 554B     		ldr	r3, .L188+64
 450              		.loc 1 351 0
 451 01e4 F5EEC07A 		fcmpezs	s15
 452 01e8 F1EE10FA 		fmstat
 453              		.loc 1 354 0
 454 01ec B4BF     		ite	lt
 455 01ee D9ED1E9A 		fldslt	s19, [r9, #120]
 456              	.LVL34:
ARM GAS  /tmp/ccYNOxGt.s 			page 9


 457              		.loc 1 352 0
 458 01f2 D9ED1D9A 		fldsge	s19, [r9, #116]
 459              		.loc 1 347 0
 460 01f6 1A70     		strb	r2, [r3]
 461              	.LVL35:
 462              		.loc 1 354 0
 463 01f8 B8BF     		it	lt
 464 01fa F0EEE99A 		fabsslt	s19, s19
 465 01fe 67EEA99A 		fmuls	s19, s15, s19
 466              	.LVL36:
 467              		.loc 1 358 0
 468 0202 FFF7FEFF 		bl	mc_interface_get_rpm
 469              	.LVL37:
 470              		.loc 1 359 0
 471 0206 98F80030 		ldrb	r3, [r8]	@ zero_extendqisi2
 472              		.loc 1 358 0
 473 020a F0EE40BA 		fcpys	s23, s0
 474              	.LVL38:
 475              		.loc 1 359 0
 476 020e 0BB1     		cbz	r3, .L52
 477              		.loc 1 360 0
 478 0210 F1EE40BA 		fnegs	s23, s0
 479              	.LVL39:
 480              	.L52:
 481              		.loc 1 366 0
 482 0214 6B7F     		ldrb	r3, [r5, #29]	@ zero_extendqisi2
 483 0216 B0EE6BAA 		fcpys	s20, s23
 484 021a 002B     		cmp	r3, #0
 485 021c 3ED0     		beq	.L53
 486              	.LVL40:
 487 021e 4FF0000B 		mov	fp, #0
 488              	.LVL41:
 489              	.L60:
 490              	.LBB133:
 491              	.LBB134:
 492              		.loc 1 368 0
 493 0222 5846     		mov	r0, fp
 494 0224 FFF7FEFF 		bl	comm_can_get_status_msg_index
 495              	.LVL42:
 496              		.loc 1 370 0
 497 0228 0368     		ldr	r3, [r0]
 498 022a 002B     		cmp	r3, #0
 499              	.LBE134:
 500              		.loc 1 367 0
 501 022c 0BF1010B 		add	fp, fp, #1
 502              	.LVL43:
 503              	.LBB141:
 504              		.loc 1 370 0
 505 0230 31DB     		blt	.L54
 506              	.LBB135:
 507              	.LBB136:
 508              	.LBB137:
 509              	.LBB138:
 510              		.loc 3 231 0 discriminator 1
 511 0232 B26A     		ldr	r2, [r6, #40]
 512              	.LBE138:
 513              	.LBE137:
ARM GAS  /tmp/ccYNOxGt.s 			page 10


 514              		.loc 3 267 0 discriminator 1
 515 0234 4368     		ldr	r3, [r0, #4]
 516 0236 D31A     		subs	r3, r2, r3
 517 0238 07EE903A 		fmsr	s15, r3	@ int
 518              	.LBE136:
 519              	.LBE135:
 520              		.loc 1 370 0 discriminator 1
 521 023c F8EE677A 		fuitos	s15, s15
 522              	.LBB139:
 523              		.loc 1 386 0 discriminator 1
 524 0240 F0EEC86A 		fabss	s13, s16
 525              	.LBE139:
 526              		.loc 1 370 0 discriminator 1
 527 0244 C7EE897A 		fdivs	s15, s15, s18
 528 0248 F4EEE87A 		fcmpes	s15, s17
 529 024c F1EE10FA 		fmstat
 530 0250 21D5     		bpl	.L54
 531              	.LBB140:
 532              		.loc 1 372 0
 533 0252 98F80030 		ldrb	r3, [r8]	@ zero_extendqisi2
 534              		.loc 1 371 0
 535 0256 D0ED027A 		flds	s15, [r0, #8]
 536              	.LVL44:
 537              		.loc 1 372 0
 538 025a 0BB1     		cbz	r3, .L56
 539              		.loc 1 373 0
 540 025c F1EE677A 		fnegs	s15, s15
 541              	.LVL45:
 542              	.L56:
 543              		.loc 1 382 0
 544 0260 90ED046A 		flds	s12, [r0, #16]
 545              		.loc 1 381 0
 546 0264 90ED037A 		flds	s14, [r0, #12]
 547              		.loc 1 377 0
 548 0268 F4EE4A7A 		fcmps	s15, s20
 549 026c F1EE10FA 		fmstat
 550              		.loc 1 382 0
 551 0270 B5EEC06A 		fcmpezs	s12
 552              		.loc 1 377 0
 553 0274 48BF     		it	mi
 554 0276 B0EE67AA 		fcpysmi	s20, s15
 555              	.LVL46:
 556              		.loc 1 382 0
 557 027a F1EE10FA 		fmstat
 558              		.loc 1 383 0
 559 027e 48BF     		it	mi
 560 0280 B1EE477A 		fnegsmi	s14, s14
 561              	.LVL47:
 562              		.loc 1 386 0
 563 0284 F0EEC77A 		fabss	s15, s14
 564              	.LVL48:
 565              		.loc 1 387 0
 566 0288 F4EE667A 		fcmps	s15, s13
 567 028c F1EE10FA 		fmstat
 568 0290 C8BF     		it	gt
 569 0292 B0EE478A 		fcpysgt	s16, s14
 570              	.LVL49:
ARM GAS  /tmp/ccYNOxGt.s 			page 11


 571              	.L54:
 572              	.LBE140:
 573              	.LBE141:
 574              		.loc 1 367 0
 575 0296 BBF10A0F 		cmp	fp, #10
 576 029a C2D1     		bne	.L60
 577              	.LVL50:
 578              	.L53:
 579              	.LBE133:
 580              		.loc 1 395 0
 581 029c 2848     		ldr	r0, .L188+72
 582              		.loc 1 394 0
 583 029e D9ED016A 		flds	s13, [r9, #4]
 584              		.loc 1 395 0
 585 02a2 D0ED00CA 		flds	s25, [r0]
 586              		.loc 1 394 0
 587 02a6 99ED026A 		flds	s12, [r9, #8]
 588              	.LVL51:
 589              		.loc 1 395 0
 590 02aa F0EEEC7A 		fabss	s15, s25
 591 02ae B0EEE97A 		fabss	s14, s19
 592 02b2 B4EEE77A 		fcmpes	s14, s15
 593 02b6 F1EE10FA 		fmstat
 594 02ba CCBF     		ite	gt
 595 02bc D5ED027A 		fldsgt	s15, [r5, #8]
 596 02c0 D5ED037A 		fldsle	s15, [r5, #12]
 597              	.LVL52:
 598              		.loc 1 397 0
 599 02c4 9FED1F7A 		flds	s14, .L188+76
 600 02c8 F4EEC77A 		fcmpes	s15, s14
 601 02cc F1EE10FA 		fmstat
 602 02d0 00F30681 		bgt	.L182
 603              	.LVL53:
 604              	.L64:
 605              		.loc 1 427 0
 606 02d4 1A49     		ldr	r1, .L188+72
 607              		.loc 1 429 0
 608 02d6 F5EEC09A 		fcmpezs	s19
 609 02da F1EE10FA 		fmstat
 610              		.loc 1 427 0
 611 02de C1ED009A 		fsts	s19, [r1]
 612              		.loc 1 429 0
 613 02e2 00F1D181 		bmi	.L183
 614              	.LVL54:
 615              	.LBB142:
 616              		.loc 1 444 0
 617 02e6 6B7F     		ldrb	r3, [r5, #29]	@ zero_extendqisi2
 618 02e8 002B     		cmp	r3, #0
 619 02ea 00F08880 		beq	.L82
 620 02ee B0EE698A 		fcpys	s16, s19
 621              	.LVL55:
 622 02f2 4FF0000B 		mov	fp, #0
 623 02f6 36E0     		b	.L90
 624              	.L189:
 625              		.align	2
 626              	.L188:
 627 02f8 00000000 		.word	ch
ARM GAS  /tmp/ccYNOxGt.s 			page 12


 628 02fc 28000000 		.word	.LC5
 629 0300 00000000 		.word	.LANCHOR1
 630 0304 00000000 		.word	.LANCHOR2
 631 0308 00000000 		.word	.LANCHOR4
 632 030c CDCC4C3E 		.word	1045220557
 633 0310 00000043 		.word	1124073472
 634 0314 00401C46 		.word	1176256512
 635 0318 CDCCCC3D 		.word	1036831949
 636 031c 00000000 		.word	.LANCHOR6
 637 0320 0000003C 		.word	1006632960
 638 0324 6F1283BA 		.word	3129152111
 639 0328 CDCCCCBE 		.word	3201092813
 640 032c CDCCCC3E 		.word	1053609165
 641 0330 00000000 		.word	.LANCHOR7
 642 0334 00000000 		.word	.LANCHOR8
 643 0338 00000000 		.word	.LANCHOR9
 644 033c 00000000 		.word	.LANCHOR10
 645 0340 00000000 		.word	.LANCHOR11
 646 0344 0AD7233C 		.word	1008981770
 647 0348 00000000 		.word	.LANCHOR3
 648 034c 00000000 		.word	.LANCHOR5
 649 0350 00000000 		.word	0
 650              	.LVL56:
 651              	.L185:
 652              	.LBB109:
 653              	.LBB106:
 654              		.loc 1 463 0
 655 0354 B1EE480A 		fnegs	s0, s16
 656 0358 FFF7FEFF 		bl	comm_can_set_current
 657              	.LVL57:
 658              	.L83:
 659              	.LBE106:
 660              		.loc 1 445 0
 661 035c 0BF1010B 		add	fp, fp, #1
 662              	.LVL58:
 663 0360 BBF10A0F 		cmp	fp, #10
 664 0364 44D0     		beq	.L184
 665              	.LVL59:
 666              	.L90:
 667              	.LBB107:
 668              		.loc 1 446 0
 669 0366 5846     		mov	r0, fp
 670 0368 FFF7FEFF 		bl	comm_can_get_status_msg_index
 671              	.LVL60:
 672              		.loc 1 448 0
 673 036c 0368     		ldr	r3, [r0]
 674 036e 002B     		cmp	r3, #0
 675 0370 F4DB     		blt	.L83
 676              	.LVL61:
 677              	.LBB101:
 678              	.LBB102:
 679              	.LBB103:
 680              	.LBB104:
 681              		.loc 3 231 0 discriminator 1
 682 0372 B16A     		ldr	r1, [r6, #40]
 683              	.LBE104:
 684              	.LBE103:
ARM GAS  /tmp/ccYNOxGt.s 			page 13


 685              		.loc 3 267 0 discriminator 1
 686 0374 4268     		ldr	r2, [r0, #4]
 687 0376 8A1A     		subs	r2, r1, r2
 688 0378 07EE902A 		fmsr	s15, r2	@ int
 689              	.LBE102:
 690              	.LBE101:
 691              		.loc 1 448 0 discriminator 1
 692 037c F8EE677A 		fuitos	s15, s15
 693 0380 C7EE897A 		fdivs	s15, s15, s18
 694 0384 F4EEE87A 		fcmpes	s15, s17
 695 0388 F1EE10FA 		fmstat
 696 038c E6D5     		bpl	.L83
 697              		.loc 1 449 0
 698 038e AA7F     		ldrb	r2, [r5, #30]	@ zero_extendqisi2
 699 0390 02B3     		cbz	r2, .L85
 700              	.LBB105:
 701              		.loc 1 451 0
 702 0392 98F80030 		ldrb	r3, [r8]	@ zero_extendqisi2
 703              		.loc 1 450 0
 704 0396 90ED020A 		flds	s0, [r0, #8]
 705              	.LVL62:
 706              		.loc 1 451 0
 707 039a 0BB1     		cbz	r3, .L86
 708              		.loc 1 452 0
 709 039c B1EE400A 		fnegs	s0, s0
 710              	.LVL63:
 711              	.L86:
 712              		.loc 1 456 0
 713 03a0 5FED150A 		flds	s1, .L188+88
 714 03a4 95ED081A 		flds	s2, [r5, #32]
 715 03a8 0190     		str	r0, [sp, #4]
 716              	.LVL64:
 717 03aa 30EE4A0A 		fsubs	s0, s0, s20
 718              	.LVL65:
 719 03ae B0EE602A 		fcpys	s4, s1
 720 03b2 F0EE691A 		fcpys	s3, s19
 721 03b6 FFF7FEFF 		bl	utils_map
 722              	.LVL66:
 723              		.loc 1 457 0
 724 03ba D9ED507A 		flds	s15, [r9, #320]
 725 03be 0198     		ldr	r0, [sp, #4]
 726 03c0 B4EEE70A 		fcmpes	s0, s15
 727 03c4 F1EE10FA 		fmstat
 728              		.loc 1 456 0
 729 03c8 B0EE408A 		fcpys	s16, s0
 730              	.LVL67:
 731 03cc 0368     		ldr	r3, [r0]
 732              	.LVL68:
 733              		.loc 1 458 0
 734 03ce 48BF     		it	mi
 735 03d0 1FED218A 		fldsmi	s16, .L188+88
 736              	.LVL69:
 737              	.L85:
 738              	.LBE105:
 739              		.loc 1 462 0
 740 03d4 98F80020 		ldrb	r2, [r8]	@ zero_extendqisi2
 741              		.loc 1 463 0
ARM GAS  /tmp/ccYNOxGt.s 			page 14


 742 03d8 D8B2     		uxtb	r0, r3
 743              		.loc 1 462 0
 744 03da 002A     		cmp	r2, #0
 745 03dc BAD1     		bne	.L185
 746              		.loc 1 465 0
 747 03de B0EE480A 		fcpys	s0, s16
 748              	.LBE107:
 749              		.loc 1 445 0
 750 03e2 0BF1010B 		add	fp, fp, #1
 751              	.LVL70:
 752              	.LBB108:
 753              		.loc 1 465 0
 754 03e6 FFF7FEFF 		bl	comm_can_set_current
 755              	.LVL71:
 756              	.LBE108:
 757              		.loc 1 445 0
 758 03ea BBF10A0F 		cmp	fp, #10
 759 03ee BAD1     		bne	.L90
 760              	.L184:
 761              	.LBE109:
 762              		.loc 1 470 0
 763 03f0 AB7F     		ldrb	r3, [r5, #30]	@ zero_extendqisi2
 764 03f2 BC4A     		ldr	r2, .L190
 765 03f4 002B     		cmp	r3, #0
 766 03f6 40F02D81 		bne	.L186
 767              	.LBB110:
 768 03fa F0EE489A 		fcpys	s19, s16
 769              	.LVL72:
 770              	.L82:
 771              	.LBE110:
 772              		.loc 1 479 0
 773 03fe 98F80030 		ldrb	r3, [r8]	@ zero_extendqisi2
 774 0402 002B     		cmp	r3, #0
 775 0404 63D0     		beq	.L91
 776              		.loc 1 480 0
 777 0406 B1EE690A 		fnegs	s0, s19
 778 040a FFF7FEFF 		bl	mc_interface_set_current
 779              	.LVL73:
 780 040e 0FE6     		b	.L7
 781              	.LVL74:
 782              	.L31:
 783              	.LBE142:
 784              	.LBB143:
 785              		.loc 1 302 0
 786 0410 98F80030 		ldrb	r3, [r8]	@ zero_extendqisi2
 787 0414 002B     		cmp	r3, #0
 788 0416 00F0BC80 		beq	.L37
 789              		.loc 1 307 0
 790 041a D5ED044A 		flds	s9, [r5, #16]
 791 041e 9DED035A 		flds	s10, [sp, #12]
 792 0422 9FEDB16A 		flds	s12, .L190+4
 793              		.loc 1 303 0
 794 0426 B14B     		ldr	r3, .L190+8
 795 0428 DFEDB15A 		flds	s11, .L190+12
 796 042c 93ED007A 		flds	s14, [r3]
 797              		.loc 1 309 0
 798 0430 D5ED046A 		flds	s13, [r5, #16]
ARM GAS  /tmp/ccYNOxGt.s 			page 15


 799              		.loc 1 307 0
 800 0434 AB4A     		ldr	r2, .L190
 801 0436 24EE855A 		fmuls	s10, s9, s10
 802 043a B4EEE57A 		fcmpes	s14, s11
 803 043e 85EE066A 		fdivs	s12, s10, s12
 804 0442 F1EE10FA 		fmstat
 805 0446 C8BF     		it	gt
 806 0448 B0EE657A 		fcpysgt	s14, s11
 807 044c 37EE460A 		fsubs	s0, s14, s12
 808              		.loc 1 309 0
 809 0450 37EEE67A 		fsubs	s14, s15, s13
 810              		.loc 1 307 0
 811 0454 83ED000A 		fsts	s0, [r3]
 812              		.loc 1 309 0
 813 0458 B4EEC70A 		fcmpes	s0, s14
 814 045c F1EE10FA 		fmstat
 815 0460 7FF5A3AE 		bpl	.L36
 816              		.loc 1 310 0
 817 0464 92ED047A 		flds	s14, [r2, #16]
 818 0468 77EEC77A 		fsubs	s15, s15, s14
 819              	.LVL75:
 820 046c B0EE670A 		fcpys	s0, s15
 821 0470 C3ED007A 		fsts	s15, [r3]
 822              		.loc 1 325 0
 823 0474 FFF7FEFF 		bl	mc_interface_set_pid_speed
 824              	.LVL76:
 825              		.loc 1 328 0
 826 0478 6B7F     		ldrb	r3, [r5, #29]	@ zero_extendqisi2
 827 047a 002B     		cmp	r3, #0
 828 047c 3FF49BAE 		beq	.L47
 829              	.L44:
 830              	.LBB123:
 831              		.loc 1 329 0
 832 0480 FFF7FEFF 		bl	mc_interface_get_tot_current_directional_filtered
 833              	.LVL77:
 834              	.LBB124:
 835              		.loc 1 331 0
 836 0484 4FF00009 		mov	r9, #0
 837              	.LVL78:
 838              	.LBE124:
 839              		.loc 1 329 0
 840 0488 F0EE409A 		fcpys	s19, s0
 841              	.LVL79:
 842 048c 03E0     		b	.L48
 843              	.LVL80:
 844              	.L45:
 845              	.LBB131:
 846              		.loc 1 331 0
 847 048e B9F10A0F 		cmp	r9, #10
 848 0492 3FF490AE 		beq	.L47
 849              	.LVL81:
 850              	.L48:
 851              	.LBB125:
 852              		.loc 1 332 0
 853 0496 4846     		mov	r0, r9
 854 0498 FFF7FEFF 		bl	comm_can_get_status_msg_index
 855              	.LVL82:
ARM GAS  /tmp/ccYNOxGt.s 			page 16


 856              		.loc 1 334 0
 857 049c 0368     		ldr	r3, [r0]
 858 049e 002B     		cmp	r3, #0
 859              	.LBE125:
 860              		.loc 1 331 0
 861 04a0 09F10109 		add	r9, r9, #1
 862              	.LVL83:
 863              	.LBB130:
 864              		.loc 1 334 0
 865 04a4 F3DB     		blt	.L45
 866              	.LBB126:
 867              	.LBB127:
 868              		.loc 3 267 0 discriminator 1
 869 04a6 4268     		ldr	r2, [r0, #4]
 870              	.LBB128:
 871              	.LBB129:
 872              		.loc 3 231 0 discriminator 1
 873 04a8 B16A     		ldr	r1, [r6, #40]
 874              	.LBE129:
 875              	.LBE128:
 876              		.loc 3 267 0 discriminator 1
 877 04aa 8A1A     		subs	r2, r1, r2
 878 04ac 07EE902A 		fmsr	s15, r2	@ int
 879              	.LBE127:
 880              	.LBE126:
 881              		.loc 1 334 0 discriminator 1
 882 04b0 F8EE677A 		fuitos	s15, s15
 883 04b4 C7EE897A 		fdivs	s15, s15, s18
 884 04b8 F4EEE87A 		fcmpes	s15, s17
 885 04bc F1EE10FA 		fmstat
 886 04c0 E5D5     		bpl	.L45
 887              		.loc 1 335 0
 888 04c2 D8B2     		uxtb	r0, r3
 889              	.LVL84:
 890 04c4 B0EE690A 		fcpys	s0, s19
 891 04c8 FFF7FEFF 		bl	comm_can_set_current
 892              	.LVL85:
 893 04cc DFE7     		b	.L45
 894              	.LVL86:
 895              	.L91:
 896              	.LBE130:
 897              	.LBE131:
 898              	.LBE123:
 899              	.LBE143:
 900              	.LBB144:
 901              		.loc 1 482 0
 902 04ce B0EE690A 		fcpys	s0, s19
 903 04d2 FFF7FEFF 		bl	mc_interface_set_current
 904              	.LVL87:
 905 04d6 ABE5     		b	.L7
 906              	.LVL88:
 907              	.L177:
 908              	.LBE144:
 909              		.loc 1 227 0
 910 04d8 0720     		movs	r0, #7
 911 04da FFF7FEFF 		bl	led_external_set_state
 912              	.LVL89:
ARM GAS  /tmp/ccYNOxGt.s 			page 17


 913              		.loc 1 228 0
 914 04de A7E5     		b	.L7
 915              	.LVL90:
 916              	.L182:
 917              	.LBB145:
 918              		.loc 1 398 0
 919 04e0 9FED817A 		flds	s14, .L190+4
 920              		.loc 1 400 0
 921 04e4 CDED04CA 		fsts	s25, [sp, #16]
 922              	.LBE145:
 923              		.loc 1 394 0
 924 04e8 B0EEC66A 		fabss	s12, s12
 925              	.LVL91:
 926 04ec 76EE866A 		fadds	s13, s13, s12
 927              	.LBB146:
 928              		.loc 1 398 0
 929 04f0 67EE877A 		fmuls	s15, s15, s14
 930              	.LVL92:
 931              		.loc 1 402 0
 932 04f4 B0EE690A 		fcpys	s0, s19
 933              		.loc 1 398 0
 934 04f8 C6EEA79A 		fdivs	s19, s13, s15
 935              	.LVL93:
 936              		.loc 1 402 0
 937 04fc 04A8     		add	r0, sp, #16
 938              	.LVL94:
 939 04fe F0EE690A 		fcpys	s1, s19
 940 0502 FFF7FEFF 		bl	utils_step_towards
 941              	.LVL95:
 942              		.loc 1 403 0
 943 0506 9DED04DA 		flds	s26, [sp, #16]
 944              	.LVL96:
 945              		.loc 1 408 0
 946 050a 98F80030 		ldrb	r3, [r8]	@ zero_extendqisi2
 947              		.loc 1 407 0
 948 050e 8DED05DA 		fsts	s26, [sp, #20]
 949              		.loc 1 408 0
 950 0512 002B     		cmp	r3, #0
 951 0514 7DD0     		beq	.L66
 952              		.loc 1 409 0
 953 0516 78EE0D7A 		fadds	s15, s16, s26
 954 051a F0EEE77A 		fabss	s15, s15
 955 051e B4EEE7CA 		fcmpes	s24, s15
 956 0522 F1EE10FA 		fmstat
 957 0526 00F1D680 		bmi	.L187
 958              	.L67:
 959              	.LVL97:
 960              		.loc 1 420 0
 961 052a F4EECDCA 		fcmpes	s25, s26
 962 052e F1EE10FA 		fmstat
 963 0532 F0EE4D9A 		fcpys	s19, s26
 964              	.LVL98:
 965 0536 3FF7CDAE 		bgt	.L64
 966              	.LVL99:
 967 053a F0EE4D7A 		fcpys	s15, s26
 968              	.LVL100:
 969              	.L71:
ARM GAS  /tmp/ccYNOxGt.s 			page 18


 970              		.loc 1 420 0 is_stmt 0 discriminator 1
 971 053e DDED036A 		flds	s13, [sp, #12]
 972 0542 9FED6C7A 		flds	s14, .L190+16
 973 0546 F0EEE66A 		fabss	s13, s13
 974 054a F4EEC76A 		fcmpes	s13, s14
 975 054e F1EE10FA 		fmstat
 976 0552 C8BF     		it	gt
 977 0554 F0EE679A 		fcpysgt	s19, s15
 978 0558 BCE6     		b	.L64
 979              	.LVL101:
 980              	.L179:
 981              	.LBE146:
 982              		.loc 1 252 0 is_stmt 1
 983 055a 0520     		movs	r0, #5
 984 055c FFF7FEFF 		bl	led_external_set_state
 985              	.LVL102:
 986 0560 E3E5     		b	.L20
 987              	.L181:
 988              		.loc 1 260 0
 989 0562 0320     		movs	r0, #3
 990 0564 FFF7FEFF 		bl	led_external_set_state
 991              	.LVL103:
 992 0568 DFE5     		b	.L20
 993              	.LVL104:
 994              	.L180:
 995              	.LBB147:
 996              		.loc 1 291 0 discriminator 1
 997 056a F1EE10FA 		fmstat
 998 056e 7FF717AE 		ble	.L168
 999              	.L33:
 1000              		.loc 1 292 0
 1001 0572 99ED497A 		flds	s14, [r9, #292]
 1002 0576 F0EEE77A 		fabss	s15, s15
 1003              	.LVL105:
 1004 057a F4EEC77A 		fcmpes	s15, s14
 1005 057e F1EE10FA 		fmstat
 1006 0582 3FF755AD 		bgt	.L7
 1007              		.loc 1 296 0
 1008 0586 9FED5A0A 		flds	s0, .L190+12
 1009 058a 5849     		ldr	r1, .L190+8
 1010 058c 81ED000A 		fsts	s0, [r1]
 1011              	.LVL106:
 1012 0590 08E6     		b	.L34
 1013              	.LVL107:
 1014              	.L37:
 1015              		.loc 1 317 0
 1016 0592 95ED040A 		flds	s0, [r5, #16]
 1017 0596 9DED035A 		flds	s10, [sp, #12]
 1018 059a DFED535A 		flds	s11, .L190+4
 1019              		.loc 1 313 0
 1020 059e 5348     		ldr	r0, .L190+8
 1021 05a0 9FED536A 		flds	s12, .L190+12
 1022 05a4 90ED007A 		flds	s14, [r0]
 1023              		.loc 1 319 0
 1024 05a8 D5ED046A 		flds	s13, [r5, #16]
 1025              		.loc 1 317 0
 1026 05ac 4D4A     		ldr	r2, .L190
ARM GAS  /tmp/ccYNOxGt.s 			page 19


 1027 05ae 20EE050A 		fmuls	s0, s0, s10
 1028 05b2 B4EEC67A 		fcmpes	s14, s12
 1029 05b6 80EE250A 		fdivs	s0, s0, s11
 1030 05ba F1EE10FA 		fmstat
 1031 05be 48BF     		it	mi
 1032 05c0 B0EE467A 		fcpysmi	s14, s12
 1033 05c4 30EE070A 		fadds	s0, s0, s14
 1034              		.loc 1 319 0
 1035 05c8 36EEA77A 		fadds	s14, s13, s15
 1036              		.loc 1 317 0
 1037 05cc 80ED000A 		fsts	s0, [r0]
 1038              		.loc 1 319 0
 1039 05d0 B4EEC70A 		fcmpes	s0, s14
 1040 05d4 F1EE10FA 		fmstat
 1041 05d8 7FF7E7AD 		ble	.L36
 1042              		.loc 1 320 0
 1043 05dc 92ED047A 		flds	s14, [r2, #16]
 1044 05e0 77EE277A 		fadds	s15, s14, s15
 1045              	.LVL108:
 1046 05e4 C0ED007A 		fsts	s15, [r0]
 1047 05e8 B0EE670A 		fcpys	s0, s15
 1048 05ec DDE5     		b	.L36
 1049              	.LVL109:
 1050              	.L178:
 1051              	.LBE147:
 1052              		.loc 1 232 0 discriminator 1
 1053 05ee F0EEC87A 		fabss	s15, s16
 1054              		.loc 1 231 0 discriminator 1
 1055 05f2 B4EEE7CA 		fcmpes	s24, s15
 1056 05f6 F1EE10FA 		fmstat
 1057 05fa 7FF74EAD 		ble	.L13
 1058              		.loc 1 233 0
 1059 05fe 98F800C0 		ldrb	ip, [r8]	@ zero_extendqisi2
 1060 0602 DFF8F4E0 		ldr	lr, .L190+20
 1061 0606 BCF1000F 		cmp	ip, #0
 1062 060a 67D0     		beq	.L15
 1063              		.loc 1 234 0
 1064 060c 8EF80020 		strb	r2, [lr]
 1065 0610 45E5     		b	.L12
 1066              	.LVL110:
 1067              	.L66:
 1068              	.LBB148:
 1069              		.loc 1 413 0
 1070 0612 7DEE487A 		fsubs	s15, s26, s16
 1071 0616 F0EEE77A 		fabss	s15, s15
 1072 061a B4EEE7CA 		fcmpes	s24, s15
 1073 061e F1EE10FA 		fmstat
 1074 0622 82D5     		bpl	.L67
 1075              		.loc 1 414 0
 1076 0624 B0EE480A 		fcpys	s0, s16
 1077              	.L175:
 1078 0628 79EEA90A 		fadds	s1, s19, s19
 1079 062c 05A8     		add	r0, sp, #20
 1080 062e FFF7FEFF 		bl	utils_step_towards
 1081              	.LVL111:
 1082              		.loc 1 420 0
 1083 0632 F4EECDCA 		fcmpes	s25, s26
ARM GAS  /tmp/ccYNOxGt.s 			page 20


 1084 0636 F1EE10FA 		fmstat
 1085 063a DDED057A 		flds	s15, [sp, #20]
 1086 063e DDED049A 		flds	s19, [sp, #16]
 1087              	.LVL112:
 1088 0642 7FF77CAF 		ble	.L71
 1089              		.loc 1 420 0 is_stmt 0 discriminator 2
 1090 0646 F4EEE97A 		fcmpes	s15, s19
 1091 064a F1EE10FA 		fmstat
 1092 064e 7FF541AE 		bpl	.L64
 1093 0652 74E7     		b	.L71
 1094              	.LVL113:
 1095              	.L186:
 1096              	.LBE148:
 1097              	.LBB149:
 1098              	.LBB111:
 1099              		.loc 1 472 0 is_stmt 1
 1100 0654 DFED260A 		flds	s1, .L190+12
 1101 0658 92ED081A 		flds	s2, [r2, #32]
 1102 065c F0EE691A 		fcpys	s3, s19
 1103 0660 3BEECA0A 		fsubs	s0, s23, s20
 1104              	.LVL114:
 1105 0664 B0EE602A 		fcpys	s4, s1
 1106 0668 FFF7FEFF 		bl	utils_map
 1107              	.LVL115:
 1108              		.loc 1 473 0
 1109 066c 99ED507A 		flds	s14, [r9, #320]
 1110              		.loc 1 474 0
 1111 0670 DFED1F7A 		flds	s15, .L190+12
 1112 0674 B4EE470A 		fcmps	s0, s14
 1113              		.loc 1 472 0
 1114 0678 F0EE409A 		fcpys	s19, s0
 1115              	.LVL116:
 1116              		.loc 1 474 0
 1117 067c F1EE10FA 		fmstat
 1118 0680 48BF     		it	mi
 1119 0682 F0EE679A 		fcpysmi	s19, s15
 1120 0686 BAE6     		b	.L82
 1121              	.LVL117:
 1122              	.L183:
 1123              	.LBE111:
 1124              	.LBE149:
 1125              		.loc 1 430 0
 1126 0688 B0EE690A 		fcpys	s0, s19
 1127 068c FFF7FEFF 		bl	mc_interface_set_brake_current
 1128              	.LVL118:
 1129              	.LBB150:
 1130              		.loc 1 433 0
 1131 0690 4FF00009 		mov	r9, #0
 1132              	.LVL119:
 1133 0694 03E0     		b	.L81
 1134              	.LVL120:
 1135              	.L78:
 1136 0696 B9F10A0F 		cmp	r9, #10
 1137 069a 3FF4C9AC 		beq	.L7
 1138              	.LVL121:
 1139              	.L81:
 1140              	.LBB151:
ARM GAS  /tmp/ccYNOxGt.s 			page 21


 1141              		.loc 1 434 0
 1142 069e 4846     		mov	r0, r9
 1143 06a0 FFF7FEFF 		bl	comm_can_get_status_msg_index
 1144              	.LVL122:
 1145              		.loc 1 436 0
 1146 06a4 0368     		ldr	r3, [r0]
 1147 06a6 002B     		cmp	r3, #0
 1148              	.LBE151:
 1149              		.loc 1 433 0
 1150 06a8 09F10109 		add	r9, r9, #1
 1151              	.LVL123:
 1152              	.LBB156:
 1153              		.loc 1 436 0
 1154 06ac F3DB     		blt	.L78
 1155              	.LBB152:
 1156              	.LBB153:
 1157              		.loc 3 267 0 discriminator 1
 1158 06ae 4268     		ldr	r2, [r0, #4]
 1159              	.LBB154:
 1160              	.LBB155:
 1161              		.loc 3 231 0 discriminator 1
 1162 06b0 B16A     		ldr	r1, [r6, #40]
 1163              	.LBE155:
 1164              	.LBE154:
 1165              		.loc 3 267 0 discriminator 1
 1166 06b2 8A1A     		subs	r2, r1, r2
 1167 06b4 07EE902A 		fmsr	s15, r2	@ int
 1168              	.LBE153:
 1169              	.LBE152:
 1170              		.loc 1 436 0 discriminator 1
 1171 06b8 F8EE677A 		fuitos	s15, s15
 1172 06bc C7EE897A 		fdivs	s15, s15, s18
 1173 06c0 F4EEE87A 		fcmpes	s15, s17
 1174 06c4 F1EE10FA 		fmstat
 1175 06c8 E5D5     		bpl	.L78
 1176              		.loc 1 437 0
 1177 06ca D8B2     		uxtb	r0, r3
 1178              	.LVL124:
 1179 06cc B0EE690A 		fcpys	s0, s19
 1180 06d0 FFF7FEFF 		bl	comm_can_set_current_brake
 1181              	.LVL125:
 1182 06d4 DFE7     		b	.L78
 1183              	.LVL126:
 1184              	.L187:
 1185              	.LBE156:
 1186              	.LBE150:
 1187              	.LBB157:
 1188              		.loc 1 410 0
 1189 06d6 B1EE480A 		fnegs	s0, s16
 1190 06da A5E7     		b	.L175
 1191              	.LVL127:
 1192              	.L15:
 1193              	.LBE157:
 1194              		.loc 1 236 0
 1195 06dc 8EF80000 		strb	r0, [lr]
 1196 06e0 0B46     		mov	r3, r1
 1197 06e2 DCE4     		b	.L12
ARM GAS  /tmp/ccYNOxGt.s 			page 22


 1198              	.L191:
 1199              		.align	2
 1200              	.L190:
 1201 06e4 00000000 		.word	.LANCHOR2
 1202 06e8 00007A44 		.word	1148846080
 1203 06ec 00000000 		.word	.LANCHOR10
 1204 06f0 00000000 		.word	0
 1205 06f4 6F12833A 		.word	981668463
 1206 06f8 00000000 		.word	.LANCHOR5
 1207              	.LBE159:
 1208              		.cfi_endproc
 1209              	.LFE262:
 1210              		.size	output_thread, .-output_thread
 1211 06fc AFF30080 		.section	.text.app_nunchuk_configure,"ax",%progbits
 1212              		.align	2
 1213              		.p2align 4,,15
 1214              		.global	app_nunchuk_configure
 1215              		.thumb
 1216              		.thumb_func
 1217              		.type	app_nunchuk_configure, %function
 1218              	app_nunchuk_configure:
 1219              	.LFB256:
 1220              		.loc 1 59 0
 1221              		.cfi_startproc
 1222              		@ args = 0, pretend = 0, frame = 0
 1223              		@ frame_needed = 0, uses_anonymous_args = 0
 1224              		@ link register save eliminated.
 1225              	.LVL128:
 1226 0000 30B4     		push	{r4, r5}
 1227              		.cfi_def_cfa_offset 8
 1228              		.cfi_offset 4, -8
 1229              		.cfi_offset 5, -4
 1230              		.loc 1 60 0
 1231 0002 0546     		mov	r5, r0
 1232 0004 0FCD     		ldmia	r5!, {r0, r1, r2, r3}
 1233              	.LVL129:
 1234 0006 064C     		ldr	r4, .L193
 1235 0008 0FC4     		stmia	r4!, {r0, r1, r2, r3}
 1236 000a 0FCD     		ldmia	r5!, {r0, r1, r2, r3}
 1237              	.LVL130:
 1238 000c 0FC4     		stmia	r4!, {r0, r1, r2, r3}
 1239 000e 2A68     		ldr	r2, [r5]
 1240 0010 2260     		str	r2, [r4]
 1241              		.loc 1 62 0
 1242 0012 0448     		ldr	r0, .L193+4
 1243 0014 0449     		ldr	r1, .L193+8
 1244 0016 054B     		ldr	r3, .L193+12
 1245 0018 0022     		movs	r2, #0
 1246              		.loc 1 67 0
 1247 001a 30BC     		pop	{r4, r5}
 1248              	.LVL131:
 1249              		.loc 1 62 0
 1250 001c FFF7FEBF 		b	terminal_register_command_callback
 1251              	.LVL132:
 1252              	.L194:
 1253              		.align	2
 1254              	.L193:
ARM GAS  /tmp/ccYNOxGt.s 			page 23


 1255 0020 00000000 		.word	.LANCHOR2
 1256 0024 38000000 		.word	.LC6
 1257 0028 48000000 		.word	.LC7
 1258 002c 00000000 		.word	terminal_cmd_nunchuk_status
 1259              		.cfi_endproc
 1260              	.LFE256:
 1261              		.size	app_nunchuk_configure, .-app_nunchuk_configure
 1262              		.section	.text.app_nunchuk_start,"ax",%progbits
 1263              		.align	2
 1264              		.p2align 4,,15
 1265              		.global	app_nunchuk_start
 1266              		.thumb
 1267              		.thumb_func
 1268              		.type	app_nunchuk_start, %function
 1269              	app_nunchuk_start:
 1270              	.LFB257:
 1271              		.loc 1 69 0
 1272              		.cfi_startproc
 1273              		@ args = 0, pretend = 0, frame = 0
 1274              		@ frame_needed = 0, uses_anonymous_args = 0
 1275 0000 10B5     		push	{r4, lr}
 1276              		.cfi_def_cfa_offset 8
 1277              		.cfi_offset 4, -8
 1278              		.cfi_offset 14, -4
 1279              		.loc 1 70 0
 1280 0002 094A     		ldr	r2, .L196
 1281              		.loc 1 71 0
 1282 0004 094B     		ldr	r3, .L196+4
 1283              		.loc 1 69 0
 1284 0006 82B0     		sub	sp, sp, #8
 1285              		.cfi_def_cfa_offset 16
 1286              		.loc 1 70 0
 1287 0008 8021     		movs	r1, #128
 1288              		.loc 1 71 0
 1289 000a 0024     		movs	r4, #0
 1290              		.loc 1 70 0
 1291 000c 5160     		str	r1, [r2, #4]
 1292              		.loc 1 71 0
 1293 000e 1C70     		strb	r4, [r3]
 1294              		.loc 1 72 0
 1295 0010 FFF7FEFF 		bl	hw_start_i2c
 1296              	.LVL133:
 1297              		.loc 1 73 0
 1298 0014 0094     		str	r4, [sp]
 1299 0016 064B     		ldr	r3, .L196+8
 1300 0018 0648     		ldr	r0, .L196+12
 1301 001a 4FF4B361 		mov	r1, #1432
 1302 001e 4022     		movs	r2, #64
 1303 0020 FFF7FEFF 		bl	chThdCreateStatic
 1304              	.LVL134:
 1305              		.loc 1 74 0
 1306 0024 02B0     		add	sp, sp, #8
 1307              		@ sp needed
 1308 0026 10BD     		pop	{r4, pc}
 1309              	.L197:
 1310              		.align	2
 1311              	.L196:
ARM GAS  /tmp/ccYNOxGt.s 			page 24


 1312 0028 00000000 		.word	.LANCHOR4
 1313 002c 00000000 		.word	.LANCHOR12
 1314 0030 00000000 		.word	chuk_thread
 1315 0034 00000000 		.word	.LANCHOR13
 1316              		.cfi_endproc
 1317              	.LFE257:
 1318              		.size	app_nunchuk_start, .-app_nunchuk_start
 1319 0038 AFF30080 		.section	.text.app_nunchuk_stop,"ax",%progbits
 1319      AFF30080 
 1320              		.align	2
 1321              		.p2align 4,,15
 1322              		.global	app_nunchuk_stop
 1323              		.thumb
 1324              		.thumb_func
 1325              		.type	app_nunchuk_stop, %function
 1326              	app_nunchuk_stop:
 1327              	.LFB258:
 1328              		.loc 1 76 0
 1329              		.cfi_startproc
 1330              		@ args = 0, pretend = 0, frame = 0
 1331              		@ frame_needed = 0, uses_anonymous_args = 0
 1332              		.loc 1 77 0
 1333 0000 084B     		ldr	r3, .L212
 1334              		.loc 1 76 0
 1335 0002 10B5     		push	{r4, lr}
 1336              		.cfi_def_cfa_offset 8
 1337              		.cfi_offset 4, -8
 1338              		.cfi_offset 14, -4
 1339              		.loc 1 77 0
 1340 0004 0122     		movs	r2, #1
 1341              		.loc 1 79 0
 1342 0006 084C     		ldr	r4, .L212+4
 1343              		.loc 1 77 0
 1344 0008 1A70     		strb	r2, [r3]
 1345              		.loc 1 79 0
 1346 000a 2378     		ldrb	r3, [r4]	@ zero_extendqisi2
 1347 000c 1BB1     		cbz	r3, .L209
 1348 000e 06E0     		b	.L211
 1349              	.L202:
 1350              		.loc 1 84 0
 1351 0010 0A20     		movs	r0, #10
 1352 0012 FFF7FEFF 		bl	chThdSleep
 1353              	.LVL135:
 1354              	.L209:
 1355              		.loc 1 83 0
 1356 0016 2378     		ldrb	r3, [r4]	@ zero_extendqisi2
 1357 0018 002B     		cmp	r3, #0
 1358 001a F9D1     		bne	.L202
 1359 001c 10BD     		pop	{r4, pc}
 1360              	.L211:
 1361              		.loc 1 80 0
 1362 001e FFF7FEFF 		bl	hw_stop_i2c
 1363              	.LVL136:
 1364 0022 F8E7     		b	.L209
 1365              	.L213:
 1366              		.align	2
 1367              	.L212:
ARM GAS  /tmp/ccYNOxGt.s 			page 25


 1368 0024 00000000 		.word	.LANCHOR12
 1369 0028 00000000 		.word	.LANCHOR14
 1370              		.cfi_endproc
 1371              	.LFE258:
 1372              		.size	app_nunchuk_stop, .-app_nunchuk_stop
 1373 002c AFF30080 		.section	.text.app_nunchuk_get_decoded_chuk,"ax",%progbits
 1374              		.align	2
 1375              		.p2align 4,,15
 1376              		.global	app_nunchuk_get_decoded_chuk
 1377              		.thumb
 1378              		.thumb_func
 1379              		.type	app_nunchuk_get_decoded_chuk, %function
 1380              	app_nunchuk_get_decoded_chuk:
 1381              	.LFB259:
 1382              		.loc 1 88 0
 1383              		.cfi_startproc
 1384              		@ args = 0, pretend = 0, frame = 0
 1385              		@ frame_needed = 0, uses_anonymous_args = 0
 1386              		@ link register save eliminated.
 1387              		.loc 1 89 0
 1388 0000 064B     		ldr	r3, .L215
 1389 0002 9FED077A 		flds	s14, .L215+4
 1390 0006 93ED010A 		flds	s0, [r3, #4]	@ int
 1391 000a DFED067A 		flds	s15, .L215+8
 1392 000e B8EEC00A 		fsitos	s0, s0
 1393 0012 30EE470A 		fsubs	s0, s0, s14
 1394              		.loc 1 90 0
 1395 0016 20EE270A 		fmuls	s0, s0, s15
 1396 001a 7047     		bx	lr
 1397              	.L216:
 1398              		.align	2
 1399              	.L215:
 1400 001c 00000000 		.word	.LANCHOR4
 1401 0020 00000043 		.word	1124073472
 1402 0024 0000003C 		.word	1006632960
 1403              		.cfi_endproc
 1404              	.LFE259:
 1405              		.size	app_nunchuk_get_decoded_chuk, .-app_nunchuk_get_decoded_chuk
 1406 0028 AFF30080 		.section	.text.app_nunchuk_update_output,"ax",%progbits
 1406      AFF30080 
 1407              		.align	2
 1408              		.p2align 4,,15
 1409              		.global	app_nunchuk_update_output
 1410              		.thumb
 1411              		.thumb_func
 1412              		.type	app_nunchuk_update_output, %function
 1413              	app_nunchuk_update_output:
 1414              	.LFB260:
 1415              		.loc 1 92 0
 1416              		.cfi_startproc
 1417              		@ args = 0, pretend = 0, frame = 0
 1418              		@ frame_needed = 0, uses_anonymous_args = 0
 1419              	.LVL137:
 1420 0000 F0B5     		push	{r4, r5, r6, r7, lr}
 1421              		.cfi_def_cfa_offset 20
 1422              		.cfi_offset 4, -20
 1423              		.cfi_offset 5, -16
ARM GAS  /tmp/ccYNOxGt.s 			page 26


 1424              		.cfi_offset 6, -12
 1425              		.cfi_offset 7, -8
 1426              		.cfi_offset 14, -4
 1427              		.loc 1 93 0
 1428 0002 174C     		ldr	r4, .L221
 1429              		.loc 1 94 0
 1430 0004 174E     		ldr	r6, .L221+4
 1431              		.loc 1 93 0
 1432 0006 2378     		ldrb	r3, [r4]	@ zero_extendqisi2
 1433              		.loc 1 92 0
 1434 0008 83B0     		sub	sp, sp, #12
 1435              		.cfi_def_cfa_offset 32
 1436              		.loc 1 92 0
 1437 000a 0546     		mov	r5, r0
 1438              		.loc 1 93 0
 1439 000c 03F0FF02 		and	r2, r3, #255
 1440 0010 8BB9     		cbnz	r3, .L218
 1441              		.loc 1 96 0
 1442 0012 154F     		ldr	r7, .L221+8
 1443              		.loc 1 97 0
 1444 0014 0092     		str	r2, [sp]
 1445              		.loc 1 95 0
 1446 0016 4FF0010C 		mov	ip, #1
 1447              		.loc 1 96 0
 1448 001a 4FF0800E 		mov	lr, #128
 1449              		.loc 1 94 0
 1450 001e 3260     		str	r2, [r6]
 1451              		.loc 1 97 0
 1452 0020 1248     		ldr	r0, .L221+12
 1453              	.LVL138:
 1454              		.loc 1 95 0
 1455 0022 84F800C0 		strb	ip, [r4]
 1456              		.loc 1 97 0
 1457 0026 124B     		ldr	r3, .L221+16
 1458              		.loc 1 96 0
 1459 0028 C7F804E0 		str	lr, [r7, #4]
 1460              		.loc 1 97 0
 1461 002c 4FF4B361 		mov	r1, #1432
 1462 0030 4022     		movs	r2, #64
 1463 0032 FFF7FEFF 		bl	chThdCreateStatic
 1464              	.LVL139:
 1465              	.L218:
 1466              		.loc 1 100 0
 1467 0036 0FCD     		ldmia	r5!, {r0, r1, r2, r3}
 1468              	.LVL140:
 1469 0038 0B4C     		ldr	r4, .L221+8
 1470 003a 0FC4     		stmia	r4!, {r0, r1, r2, r3}
 1471 003c 95E80300 		ldmia	r5, {r0, r1}
 1472              	.LBB160:
 1473              	.LBB161:
 1474              	.LBB162:
 1475              	.LBB163:
 1476              	.LBB164:
 1477              	.LBB165:
 1478              		.file 4 "ChibiOS_3.0.2/os/ext/CMSIS/include/core_cmFunc.h"
 1479              		.loc 4 546 0
 1480 0040 2023     		movs	r3, #32
ARM GAS  /tmp/ccYNOxGt.s 			page 27


 1481              	.LBE165:
 1482              	.LBE164:
 1483              	.LBE163:
 1484              	.LBE162:
 1485              	.LBE161:
 1486              	.LBE160:
 1487              		.loc 1 100 0
 1488 0042 84E80300 		stmia	r4, {r0, r1}
 1489              	.LVL141:
 1490              	.LBB185:
 1491              	.LBB184:
 1492              	.LBB169:
 1493              	.LBB168:
 1494              	.LBB167:
 1495              	.LBB166:
 1496              		.loc 4 546 0
 1497              	@ 546 "ChibiOS_3.0.2/os/ext/CMSIS/include/core_cmFunc.h" 1
 1498 0046 83F31188 		MSR basepri, r3
 1499              	@ 0 "" 2
 1500              		.thumb
 1501              	.LBE166:
 1502              	.LBE167:
 1503              	.LBE168:
 1504              	.LBE169:
 1505              	.LBB170:
 1506              	.LBB171:
 1507              		.loc 3 231 0
 1508 004a 0A4B     		ldr	r3, .L221+20
 1509              	.LBE171:
 1510              	.LBE170:
 1511              	.LBB173:
 1512              	.LBB174:
 1513              	.LBB175:
 1514              	.LBB176:
 1515              	.LBB177:
 1516              		.loc 4 546 0
 1517 004c 0022     		movs	r2, #0
 1518              	.LBE177:
 1519              	.LBE176:
 1520              	.LBE175:
 1521              	.LBE174:
 1522              	.LBE173:
 1523              	.LBB182:
 1524              	.LBB172:
 1525              		.loc 3 231 0
 1526 004e 9B6A     		ldr	r3, [r3, #40]
 1527              	.LVL142:
 1528              	.LBE172:
 1529              	.LBE182:
 1530              	.LBB183:
 1531              	.LBB181:
 1532              	.LBB180:
 1533              	.LBB179:
 1534              	.LBB178:
 1535              		.loc 4 546 0
 1536              	@ 546 "ChibiOS_3.0.2/os/ext/CMSIS/include/core_cmFunc.h" 1
 1537 0050 82F31188 		MSR basepri, r2
ARM GAS  /tmp/ccYNOxGt.s 			page 28


 1538              	@ 0 "" 2
 1539              		.thumb
 1540              	.LBE178:
 1541              	.LBE179:
 1542              	.LBE180:
 1543              	.LBE181:
 1544              	.LBE183:
 1545              	.LBE184:
 1546              	.LBE185:
 1547              		.loc 1 101 0
 1548 0054 3360     		str	r3, [r6]
 1549              		.loc 1 103 0
 1550 0056 03B0     		add	sp, sp, #12
 1551              		@ sp needed
 1552 0058 BDE8F040 		pop	{r4, r5, r6, r7, lr}
 1553              	.LVL143:
 1554              		.loc 1 102 0
 1555 005c FFF7FEBF 		b	timeout_reset
 1556              	.LVL144:
 1557              	.L222:
 1558              		.align	2
 1559              	.L221:
 1560 0060 00000000 		.word	.LANCHOR0
 1561 0064 00000000 		.word	.LANCHOR3
 1562 0068 00000000 		.word	.LANCHOR4
 1563 006c 00000000 		.word	.LANCHOR15
 1564 0070 00000000 		.word	output_thread
 1565 0074 00000000 		.word	ch
 1566              		.cfi_endproc
 1567              	.LFE260:
 1568              		.size	app_nunchuk_update_output, .-app_nunchuk_update_output
 1569 0078 AFF30080 		.section	.text.chuk_thread,"ax",%progbits
 1569      AFF30080 
 1570              		.align	2
 1571              		.p2align 4,,15
 1572              		.thumb
 1573              		.thumb_func
 1574              		.type	chuk_thread, %function
 1575              	chuk_thread:
 1576              	.LFB261:
 1577              		.loc 1 105 0
 1578              		.cfi_startproc
 1579              		@ args = 0, pretend = 0, frame = 48
 1580              		@ frame_needed = 0, uses_anonymous_args = 0
 1581              	.LVL145:
 1582 0000 2DE9F04F 		push	{r4, r5, r6, r7, r8, r9, r10, fp, lr}
 1583              		.cfi_def_cfa_offset 36
 1584              		.cfi_offset 4, -36
 1585              		.cfi_offset 5, -32
 1586              		.cfi_offset 6, -28
 1587              		.cfi_offset 7, -24
 1588              		.cfi_offset 8, -20
 1589              		.cfi_offset 9, -16
 1590              		.cfi_offset 10, -12
 1591              		.cfi_offset 11, -8
 1592              		.cfi_offset 14, -4
 1593              	.LBB186:
ARM GAS  /tmp/ccYNOxGt.s 			page 29


 1594              	.LBB187:
 1595              		.loc 2 135 0
 1596 0004 6E4B     		ldr	r3, .L243
 1597 0006 6F4A     		ldr	r2, .L243+4
 1598 0008 9B69     		ldr	r3, [r3, #24]
 1599              	.LBE187:
 1600              	.LBE186:
 1601              		.loc 1 109 0
 1602 000a DFF8CC91 		ldr	r9, .L243+24
 1603              	.LBB189:
 1604              	.LBB188:
 1605              		.loc 2 135 0
 1606 000e 9A61     		str	r2, [r3, #24]
 1607              	.LBE188:
 1608              	.LBE189:
 1609              		.loc 1 105 0
 1610 0010 91B0     		sub	sp, sp, #68
 1611              		.cfi_def_cfa_offset 104
 1612              		.loc 1 109 0
 1613 0012 0123     		movs	r3, #1
 1614              	.LBB190:
 1615              		.loc 1 124 0
 1616 0014 6C4E     		ldr	r6, .L243+8
 1617              	.LBE190:
 1618              		.loc 1 109 0
 1619 0016 89F80030 		strb	r3, [r9]
 1620              	.LVL146:
 1621              		.loc 1 118 0
 1622 001a FFF7FEFF 		bl	hw_start_i2c
 1623              	.LVL147:
 1624              		.loc 1 119 0
 1625 001e 6420     		movs	r0, #100
 1626 0020 FFF7FEFF 		bl	chThdSleep
 1627              	.LVL148:
 1628              	.LBB196:
 1629              		.loc 1 124 0
 1630 0024 3378     		ldrb	r3, [r6]	@ zero_extendqisi2
 1631 0026 002B     		cmp	r3, #0
 1632 0028 40F0C780 		bne	.L241
 1633 002c 674D     		ldr	r5, .L243+12
 1634 002e 684F     		ldr	r7, .L243+16
 1635              	.LBB191:
 1636              		.loc 1 173 0
 1637 0030 05F10408 		add	r8, r5, #4
 1638 0034 04AC     		add	r4, sp, #16
 1639 0036 0DE0     		b	.L234
 1640              	.LVL149:
 1641              	.L227:
 1642              	.LBE191:
 1643              		.loc 1 192 0
 1644 0038 0223     		movs	r3, #2
 1645 003a 3B60     		str	r3, [r7]
 1646              		.loc 1 193 0
 1647 003c FFF7FEFF 		bl	hw_try_restore_i2c
 1648              	.LVL150:
 1649              		.loc 1 194 0
 1650 0040 4FF47A70 		mov	r0, #1000
ARM GAS  /tmp/ccYNOxGt.s 			page 30


 1651 0044 FFF7FEFF 		bl	chThdSleep
 1652              	.LVL151:
 1653              	.L232:
 1654              		.loc 1 197 0
 1655 0048 6420     		movs	r0, #100
 1656 004a FFF7FEFF 		bl	chThdSleep
 1657              	.LVL152:
 1658              		.loc 1 124 0
 1659 004e 3378     		ldrb	r3, [r6]	@ zero_extendqisi2
 1660 0050 002B     		cmp	r3, #0
 1661 0052 7CD1     		bne	.L233
 1662              	.L234:
 1663              		.loc 1 130 0
 1664 0054 F022     		movs	r2, #240
 1665              		.loc 1 131 0
 1666 0056 5523     		movs	r3, #85
 1667              		.loc 1 132 0
 1668 0058 5E48     		ldr	r0, .L243+20
 1669              		.loc 1 130 0
 1670 005a 8DF81C20 		strb	r2, [sp, #28]
 1671              		.loc 1 131 0
 1672 005e 8DF81D30 		strb	r3, [sp, #29]
 1673              		.loc 1 133 0
 1674 0062 4FF0320A 		mov	r10, #50
 1675              		.loc 1 132 0
 1676 0066 FFF7FEFF 		bl	i2cAcquireBus
 1677              	.LVL153:
 1678              		.loc 1 133 0
 1679 006a 0023     		movs	r3, #0
 1680 006c 0193     		str	r3, [sp, #4]
 1681 006e 0094     		str	r4, [sp]
 1682 0070 CDF808A0 		str	r10, [sp, #8]
 1683 0074 5748     		ldr	r0, .L243+20
 1684 0076 5221     		movs	r1, #82
 1685 0078 07AA     		add	r2, sp, #28
 1686 007a 0223     		movs	r3, #2
 1687 007c FFF7FEFF 		bl	i2cMasterTransmitTimeout
 1688              	.LVL154:
 1689 0080 8346     		mov	fp, r0
 1690              	.LVL155:
 1691              		.loc 1 134 0
 1692 0082 5448     		ldr	r0, .L243+20
 1693              	.LVL156:
 1694 0084 FFF7FEFF 		bl	i2cReleaseBus
 1695              	.LVL157:
 1696              		.loc 1 137 0
 1697 0088 BBF1000F 		cmp	fp, #0
 1698 008c D4D1     		bne	.L227
 1699              		.loc 1 138 0
 1700 008e FB23     		movs	r3, #251
 1701              		.loc 1 140 0
 1702 0090 5048     		ldr	r0, .L243+20
 1703              		.loc 1 139 0
 1704 0092 8DF81DB0 		strb	fp, [sp, #29]
 1705              		.loc 1 138 0
 1706 0096 8DF81C30 		strb	r3, [sp, #28]
 1707              		.loc 1 140 0
ARM GAS  /tmp/ccYNOxGt.s 			page 31


 1708 009a FFF7FEFF 		bl	i2cAcquireBus
 1709              	.LVL158:
 1710              		.loc 1 141 0
 1711 009e 8DE81008 		stmia	sp, {r4, fp}
 1712 00a2 CDF808A0 		str	r10, [sp, #8]
 1713 00a6 4B48     		ldr	r0, .L243+20
 1714 00a8 5221     		movs	r1, #82
 1715 00aa 07AA     		add	r2, sp, #28
 1716 00ac 0223     		movs	r3, #2
 1717 00ae FFF7FEFF 		bl	i2cMasterTransmitTimeout
 1718              	.LVL159:
 1719 00b2 8346     		mov	fp, r0
 1720              	.LVL160:
 1721              		.loc 1 142 0
 1722 00b4 4748     		ldr	r0, .L243+20
 1723              	.LVL161:
 1724 00b6 FFF7FEFF 		bl	i2cReleaseBus
 1725              	.LVL162:
 1726              		.loc 1 146 0
 1727 00ba BBF1000F 		cmp	fp, #0
 1728 00be BBD1     		bne	.L227
 1729              		.loc 1 148 0
 1730 00c0 4448     		ldr	r0, .L243+20
 1731              		.loc 1 147 0
 1732 00c2 8DF81CB0 		strb	fp, [sp, #28]
 1733              		.loc 1 148 0
 1734 00c6 FFF7FEFF 		bl	i2cAcquireBus
 1735              	.LVL163:
 1736              		.loc 1 149 0
 1737 00ca 8DE81008 		stmia	sp, {r4, fp}
 1738 00ce CDF808A0 		str	r10, [sp, #8]
 1739 00d2 4048     		ldr	r0, .L243+20
 1740 00d4 5221     		movs	r1, #82
 1741 00d6 07AA     		add	r2, sp, #28
 1742 00d8 0123     		movs	r3, #1
 1743 00da FFF7FEFF 		bl	i2cMasterTransmitTimeout
 1744              	.LVL164:
 1745 00de 8346     		mov	fp, r0
 1746              	.LVL165:
 1747              		.loc 1 150 0
 1748 00e0 3C48     		ldr	r0, .L243+20
 1749              	.LVL166:
 1750 00e2 FFF7FEFF 		bl	i2cReleaseBus
 1751              	.LVL167:
 1752              		.loc 1 154 0
 1753 00e6 BBF1000F 		cmp	fp, #0
 1754 00ea A5D1     		bne	.L227
 1755              		.loc 1 155 0
 1756 00ec 1E20     		movs	r0, #30
 1757 00ee FFF7FEFF 		bl	chThdSleep
 1758              	.LVL168:
 1759              		.loc 1 157 0
 1760 00f2 3848     		ldr	r0, .L243+20
 1761 00f4 FFF7FEFF 		bl	i2cAcquireBus
 1762              	.LVL169:
 1763              		.loc 1 158 0
 1764 00f8 CDF800A0 		str	r10, [sp]
ARM GAS  /tmp/ccYNOxGt.s 			page 32


 1765 00fc 3548     		ldr	r0, .L243+20
 1766 00fe 5221     		movs	r1, #82
 1767 0100 2246     		mov	r2, r4
 1768 0102 0623     		movs	r3, #6
 1769 0104 FFF7FEFF 		bl	i2cMasterReceiveTimeout
 1770              	.LVL170:
 1771 0108 8246     		mov	r10, r0
 1772              	.LVL171:
 1773              		.loc 1 159 0
 1774 010a 3248     		ldr	r0, .L243+20
 1775              	.LVL172:
 1776 010c FFF7FEFF 		bl	i2cReleaseBus
 1777              	.LVL173:
 1778              		.loc 1 163 0
 1779 0110 BAF1000F 		cmp	r10, #0
 1780 0114 90D1     		bne	.L227
 1781 0116 5046     		mov	r0, r10
 1782 0118 0123     		movs	r3, #1
 1783              	.L230:
 1784              	.LVL174:
 1785              	.LBB193:
 1786              	.LBB192:
 1787              		.loc 1 168 0
 1788 011a 295C     		ldrb	r1, [r5, r0]	@ zero_extendqisi2
 1789 011c 225C     		ldrb	r2, [r4, r0]	@ zero_extendqisi2
 1790              		.loc 1 167 0
 1791 011e 0130     		adds	r0, r0, #1
 1792              	.LVL175:
 1793              		.loc 1 169 0
 1794 0120 9142     		cmp	r1, r2
 1795 0122 18BF     		it	ne
 1796 0124 0023     		movne	r3, #0
 1797              	.LVL176:
 1798              		.loc 1 167 0
 1799 0126 0628     		cmp	r0, #6
 1800 0128 F7D1     		bne	.L230
 1801              	.LBE192:
 1802              		.loc 1 173 0
 1803 012a 94E80300 		ldmia	r4, {r0, r1}
 1804              	.LVL177:
 1805 012e 2860     		str	r0, [r5]
 1806 0130 A8F80010 		strh	r1, [r8]	@ movhi
 1807              		.loc 1 175 0
 1808 0134 93B1     		cbz	r3, .L242
 1809              	.LVL178:
 1810              	.L231:
 1811              		.loc 1 188 0
 1812 0136 FFF7FEFF 		bl	timeout_has_timeout
 1813              	.LVL179:
 1814 013a 0028     		cmp	r0, #0
 1815 013c 84D0     		beq	.L232
 1816              		.loc 1 189 0
 1817 013e 0123     		movs	r3, #1
 1818              	.LBE193:
 1819              		.loc 1 197 0
 1820 0140 6420     		movs	r0, #100
 1821              	.LBB194:
ARM GAS  /tmp/ccYNOxGt.s 			page 33


 1822              		.loc 1 189 0
 1823 0142 3B60     		str	r3, [r7]
 1824              	.LBE194:
 1825              		.loc 1 197 0
 1826 0144 FFF7FEFF 		bl	chThdSleep
 1827              	.LVL180:
 1828              		.loc 1 124 0
 1829 0148 3378     		ldrb	r3, [r6]	@ zero_extendqisi2
 1830 014a 002B     		cmp	r3, #0
 1831 014c 82D0     		beq	.L234
 1832              	.L233:
 1833              		.loc 1 125 0
 1834 014e 0023     		movs	r3, #0
 1835 0150 89F80030 		strb	r3, [r9]
 1836              		.loc 1 126 0
 1837 0154 3B60     		str	r3, [r7]
 1838              	.LBE196:
 1839              		.loc 1 199 0
 1840 0156 11B0     		add	sp, sp, #68
 1841              		@ sp needed
 1842 0158 BDE8F08F 		pop	{r4, r5, r6, r7, r8, r9, r10, fp, pc}
 1843              	.LVL181:
 1844              	.L242:
 1845              	.LBB197:
 1846              	.LBB195:
 1847              		.loc 1 179 0
 1848 015c 9DF81520 		ldrb	r2, [sp, #21]	@ zero_extendqisi2
 1849              		.loc 1 181 0
 1850 0160 9DF814E0 		ldrb	lr, [sp, #20]	@ zero_extendqisi2
 1851              		.loc 1 179 0
 1852 0164 9DF812C0 		ldrb	ip, [sp, #18]	@ zero_extendqisi2
 1853              		.loc 1 180 0
 1854 0168 9DF813A0 		ldrb	r10, [sp, #19]	@ zero_extendqisi2
 1855              	.LVL182:
 1856              		.loc 1 176 0
 1857 016c 3B60     		str	r3, [r7]
 1858              		.loc 1 179 0
 1859 016e C2F38100 		ubfx	r0, r2, #2, #2
 1860              		.loc 1 181 0
 1861 0172 4FEA8E03 		lsl	r3, lr, #2
 1862              	.LVL183:
 1863              		.loc 1 180 0
 1864 0176 C2F3011E 		ubfx	lr, r2, #4, #2
 1865              		.loc 1 179 0
 1866 017a 40EA8C00 		orr	r0, r0, ip, lsl #2
 1867              		.loc 1 180 0
 1868 017e 4EEA8A0A 		orr	r10, lr, r10, lsl #2
 1869              		.loc 1 182 0
 1870 0182 02F0010C 		and	ip, r2, #1
 1871              		.loc 1 183 0
 1872 0186 C2F3400E 		ubfx	lr, r2, #1, #1
 1873              		.loc 1 177 0
 1874 018a 9DF81010 		ldrb	r1, [sp, #16]	@ zero_extendqisi2
 1875              		.loc 1 179 0
 1876 018e 0C90     		str	r0, [sp, #48]
 1877              		.loc 1 181 0
 1878 0190 43EA9212 		orr	r2, r3, r2, lsr #6
ARM GAS  /tmp/ccYNOxGt.s 			page 34


 1879              		.loc 1 182 0
 1880 0194 8CF0010C 		eor	ip, ip, #1
 1881              		.loc 1 183 0
 1882 0198 8EF0010E 		eor	lr, lr, #1
 1883              		.loc 1 178 0
 1884 019c 9DF81130 		ldrb	r3, [sp, #17]	@ zero_extendqisi2
 1885              		.loc 1 180 0
 1886 01a0 CDF834A0 		str	r10, [sp, #52]
 1887              		.loc 1 185 0
 1888 01a4 0AA8     		add	r0, sp, #40
 1889              		.loc 1 182 0
 1890 01a6 8DF83DC0 		strb	ip, [sp, #61]
 1891              		.loc 1 183 0
 1892 01aa 8DF83CE0 		strb	lr, [sp, #60]
 1893              		.loc 1 181 0
 1894 01ae 0E92     		str	r2, [sp, #56]
 1895              		.loc 1 177 0
 1896 01b0 0A91     		str	r1, [sp, #40]
 1897              		.loc 1 178 0
 1898 01b2 0B93     		str	r3, [sp, #44]
 1899              		.loc 1 185 0
 1900 01b4 FFF7FEFF 		bl	app_nunchuk_update_output
 1901              	.LVL184:
 1902 01b8 BDE7     		b	.L231
 1903              	.LVL185:
 1904              	.L241:
 1905 01ba 054F     		ldr	r7, .L243+16
 1906 01bc C7E7     		b	.L233
 1907              	.L244:
 1908 01be 00BF     		.align	2
 1909              	.L243:
 1910 01c0 00000000 		.word	ch
 1911 01c4 6C000000 		.word	.LC8
 1912 01c8 00000000 		.word	.LANCHOR12
 1913 01cc 00000000 		.word	.LANCHOR16
 1914 01d0 00000000 		.word	.LANCHOR1
 1915 01d4 00000000 		.word	I2CD2
 1916 01d8 00000000 		.word	.LANCHOR14
 1917              	.LBE195:
 1918              	.LBE197:
 1919              		.cfi_endproc
 1920              	.LFE261:
 1921              		.size	chuk_thread, .-chuk_thread
 1922 01dc AFF30080 		.section	.bss.output_running,"aw",%nobits
 1923              		.set	.LANCHOR0,. + 0
 1924              		.type	output_running, %object
 1925              		.size	output_running, 1
 1926              	output_running:
 1927 0000 00       		.space	1
 1928              		.section	.bss.chuk_thread_wa,"aw",%nobits
 1929              		.align	3
 1930              		.set	.LANCHOR13,. + 0
 1931              		.type	chuk_thread_wa, %object
 1932              		.size	chuk_thread_wa, 1432
 1933              	chuk_thread_wa:
 1934 0000 00000000 		.space	1432
 1934      00000000 
ARM GAS  /tmp/ccYNOxGt.s 			page 35


 1934      00000000 
 1934      00000000 
 1934      00000000 
 1935              		.section	.bss.pid_rpm.10378,"aw",%nobits
 1936              		.align	2
 1937              		.set	.LANCHOR10,. + 0
 1938              		.type	pid_rpm.10378, %object
 1939              		.size	pid_rpm.10378, 4
 1940              	pid_rpm.10378:
 1941 0000 00000000 		.space	4
 1942              		.section	.bss.prev_current.10366,"aw",%nobits
 1943              		.align	2
 1944              		.set	.LANCHOR11,. + 0
 1945              		.type	prev_current.10366, %object
 1946              		.size	prev_current.10366, 4
 1947              	prev_current.10366:
 1948 0000 00000000 		.space	4
 1949              		.section	.bss.output_thread_wa,"aw",%nobits
 1950              		.align	3
 1951              		.set	.LANCHOR15,. + 0
 1952              		.type	output_thread_wa, %object
 1953              		.size	output_thread_wa, 1432
 1954              	output_thread_wa:
 1955 0000 00000000 		.space	1432
 1955      00000000 
 1955      00000000 
 1955      00000000 
 1955      00000000 
 1956              		.section	.bss.filter_ptr.10372,"aw",%nobits
 1957              		.align	2
 1958              		.set	.LANCHOR7,. + 0
 1959              		.type	filter_ptr.10372, %object
 1960              		.size	filter_ptr.10372, 4
 1961              	filter_ptr.10372:
 1962 0000 00000000 		.space	4
 1963              		.section	.bss.is_running,"aw",%nobits
 1964              		.set	.LANCHOR14,. + 0
 1965              		.type	is_running, %object
 1966              		.size	is_running, 1
 1967              	is_running:
 1968 0000 00       		.space	1
 1969              		.section	.bss.filter_buffer.10371,"aw",%nobits
 1970              		.align	2
 1971              		.set	.LANCHOR8,. + 0
 1972              		.type	filter_buffer.10371, %object
 1973              		.size	filter_buffer.10371, 32
 1974              	filter_buffer.10371:
 1975 0000 00000000 		.space	32
 1975      00000000 
 1975      00000000 
 1975      00000000 
 1975      00000000 
 1976              		.section	.bss.chuck_d,"aw",%nobits
 1977              		.align	2
 1978              		.set	.LANCHOR4,. + 0
 1979              		.type	chuck_d, %object
 1980              		.size	chuck_d, 24
ARM GAS  /tmp/ccYNOxGt.s 			page 36


 1981              	chuck_d:
 1982 0000 00000000 		.space	24
 1982      00000000 
 1982      00000000 
 1982      00000000 
 1982      00000000 
 1983              		.section	.bss.last_buffer.10351,"aw",%nobits
 1984              		.align	2
 1985              		.set	.LANCHOR16,. + 0
 1986              		.type	last_buffer.10351, %object
 1987              		.size	last_buffer.10351, 6
 1988              	last_buffer.10351:
 1989 0000 00000000 		.space	6
 1989      0000
 1990 0006 0000     		.section	.bss.last_update_time,"aw",%nobits
 1991              		.align	2
 1992              		.set	.LANCHOR3,. + 0
 1993              		.type	last_update_time, %object
 1994              		.size	last_update_time, 4
 1995              	last_update_time:
 1996 0000 00000000 		.space	4
 1997              		.section	.rodata.str1.4,"aMS",%progbits,1
 1998              		.align	2
 1999              	.LC0:
 2000 0000 4F6E00   		.ascii	"On\000"
 2001 0003 00       		.space	1
 2002              	.LC1:
 2003 0004 4F666600 		.ascii	"Off\000"
 2004              	.LC2:
 2005 0008 4E756E63 		.ascii	"Nunchuk Status\000"
 2005      68756B20 
 2005      53746174 
 2005      757300
 2006 0017 00       		.space	1
 2007              	.LC3:
 2008 0018 4F757470 		.ascii	"Output: %s\000"
 2008      75743A20 
 2008      257300
 2009 0023 00       		.space	1
 2010              	.LC4:
 2011 0024 2000     		.ascii	" \000"
 2012 0026 0000     		.space	2
 2013              	.LC5:
 2014 0028 4E756E63 		.ascii	"Nunchuk output\000"
 2014      68756B20 
 2014      6F757470 
 2014      757400
 2015 0037 00       		.space	1
 2016              	.LC6:
 2017 0038 6E756E63 		.ascii	"nunchuk_status\000"
 2017      68756B5F 
 2017      73746174 
 2017      757300
 2018 0047 00       		.space	1
 2019              	.LC7:
 2020 0048 5072696E 		.ascii	"Print the status of the nunchuk app\000"
 2020      74207468 
ARM GAS  /tmp/ccYNOxGt.s 			page 37


 2020      65207374 
 2020      61747573 
 2020      206F6620 
 2021              	.LC8:
 2022 006c 4E756E63 		.ascii	"Nunchuk i2c\000"
 2022      68756B20 
 2022      69326300 
 2023              		.section	.bss.was_pid.10370,"aw",%nobits
 2024              		.set	.LANCHOR9,. + 0
 2025              		.type	was_pid.10370, %object
 2026              		.size	was_pid.10370, 1
 2027              	was_pid.10370:
 2028 0000 00       		.space	1
 2029              		.section	.bss.chuck_error,"aw",%nobits
 2030              		.align	2
 2031              		.set	.LANCHOR1,. + 0
 2032              		.type	chuck_error, %object
 2033              		.size	chuck_error, 4
 2034              	chuck_error:
 2035 0000 00000000 		.space	4
 2036              		.section	.bss.was_z.10364,"aw",%nobits
 2037              		.set	.LANCHOR6,. + 0
 2038              		.type	was_z.10364, %object
 2039              		.size	was_z.10364, 1
 2040              	was_z.10364:
 2041 0000 00       		.space	1
 2042              		.section	.bss.config,"aw",%nobits
 2043              		.align	2
 2044              		.set	.LANCHOR2,. + 0
 2045              		.type	config, %object
 2046              		.size	config, 36
 2047              	config:
 2048 0000 00000000 		.space	36
 2048      00000000 
 2048      00000000 
 2048      00000000 
 2048      00000000 
 2049              		.section	.data.stop_now,"aw",%progbits
 2050              		.set	.LANCHOR12,. + 0
 2051              		.type	stop_now, %object
 2052              		.size	stop_now, 1
 2053              	stop_now:
 2054 0000 01       		.byte	1
 2055              		.section	.bss.is_reverse.10363,"aw",%nobits
 2056              		.set	.LANCHOR5,. + 0
 2057              		.type	is_reverse.10363, %object
 2058              		.size	is_reverse.10363, 1
 2059              	is_reverse.10363:
 2060 0000 00       		.space	1
 2061              		.text
 2062              	.Letext0:
 2063              		.file 5 "/usr/include/newlib/machine/_default_types.h"
 2064              		.file 6 "/usr/include/newlib/stdint.h"
 2065              		.file 7 "/usr/lib/gcc/arm-none-eabi/4.8/include/stddef.h"
 2066              		.file 8 "ChibiOS_3.0.2/os/rt/ports/ARMCMx/compilers/GCC/chtypes.h"
 2067              		.file 9 "ChibiOS_3.0.2/os/rt/include/chsystypes.h"
 2068              		.file 10 "ChibiOS_3.0.2/os/rt/include/chschd.h"
ARM GAS  /tmp/ccYNOxGt.s 			page 38


 2069              		.file 11 "ChibiOS_3.0.2/os/ext/CMSIS/ST/stm32f407xx.h"
 2070              		.file 12 "ChibiOS_3.0.2/os/rt/ports/ARMCMx/chcore.h"
 2071              		.file 13 "ChibiOS_3.0.2/os/rt/ports/ARMCMx/chcore_v7m.h"
 2072              		.file 14 "ChibiOS_3.0.2/os/rt/include/chtm.h"
 2073              		.file 15 "ChibiOS_3.0.2/os/rt/include/chsem.h"
 2074              		.file 16 "ChibiOS_3.0.2/os/rt/include/chmtx.h"
 2075              		.file 17 "ChibiOS_3.0.2/os/rt/include/chthreads.h"
 2076              		.file 18 "./datatypes.h"
 2077              		.file 19 "ChibiOS_3.0.2/os/hal/ports/STM32/STM32F4xx/stm32_dma.h"
 2078              		.file 20 "ChibiOS_3.0.2/os/hal/include/i2c.h"
 2079              		.file 21 "ChibiOS_3.0.2/os/hal/ports/STM32/LLD/I2Cv1/i2c_lld.h"
 2080              		.file 22 "ChibiOS_3.0.2/os/rt/include/chsys.h"
 2081              		.file 23 "ChibiOS_3.0.2/os/ext/CMSIS/include/core_cm4.h"
 2082              		.file 24 "./commands.h"
 2083              		.file 25 "./comm_can.h"
 2084              		.file 26 "./utils.h"
 2085              		.file 27 "./mc_interface.h"
 2086              		.file 28 "./timeout.h"
 2087              		.file 29 "./led_external.h"
 2088              		.file 30 "./terminal.h"
 2089              		.file 31 "hwconf/hw.h"