ARM GAS  /tmp/cc2T4BOZ.s 			page 1


   1              		.syntax unified
   2              		.cpu cortex-m4
   3              		.eabi_attribute 27, 3
   4              		.eabi_attribute 28, 1
   5              		.fpu fpv4-sp-d16
   6              		.eabi_attribute 20, 1
   7              		.eabi_attribute 21, 1
   8              		.eabi_attribute 23, 3
   9              		.eabi_attribute 24, 1
  10              		.eabi_attribute 25, 1
  11              		.eabi_attribute 26, 1
  12              		.eabi_attribute 30, 2
  13              		.eabi_attribute 34, 1
  14              		.eabi_attribute 18, 4
  15              		.thumb
  16              		.file	"app_adc.c"
  17              		.text
  18              	.Ltext0:
  19              		.cfi_sections	.debug_frame
  20              		.section	.text.adc_thread,"ax",%progbits
  21              		.align	2
  22              		.p2align 4,,15
  23              		.thumb
  24              		.thumb_func
  25              		.type	adc_thread, %function
  26              	adc_thread:
  27              	.LFB263:
  28              		.file 1 "applications/app_adc.c"
  29              		.loc 1 88 0
  30              		.cfi_startproc
  31              		@ args = 0, pretend = 0, frame = 16
  32              		@ frame_needed = 0, uses_anonymous_args = 0
  33              	.LVL0:
  34 0000 2DE9F04F 		push	{r4, r5, r6, r7, r8, r9, r10, fp, lr}
  35              		.cfi_def_cfa_offset 36
  36              		.cfi_offset 4, -36
  37              		.cfi_offset 5, -32
  38              		.cfi_offset 6, -28
  39              		.cfi_offset 7, -24
  40              		.cfi_offset 8, -20
  41              		.cfi_offset 9, -16
  42              		.cfi_offset 10, -12
  43              		.cfi_offset 11, -8
  44              		.cfi_offset 14, -4
  45              		.loc 1 94 0
  46 0004 C049     		ldr	r1, .L248
  47              	.LBB64:
  48              	.LBB65:
  49              		.file 2 "ChibiOS_3.0.2/os/rt/include/chregistry.h"
  50              		.loc 2 135 0
  51 0006 C14E     		ldr	r6, .L248+4
  52              	.LBE65:
  53              	.LBE64:
  54              		.loc 1 94 0
  55 0008 0A78     		ldrb	r2, [r1]	@ zero_extendqisi2
  56              	.LBB68:
  57              	.LBB66:
ARM GAS  /tmp/cc2T4BOZ.s 			page 2


  58              		.loc 2 135 0
  59 000a B369     		ldr	r3, [r6, #24]
  60 000c C049     		ldr	r1, .L248+8
  61              	.LBE66:
  62              	.LBE68:
  63              		.loc 1 88 0
  64 000e 2DED088B 		fstmfdd	sp!, {d8, d9, d10, d11}
  65              		.cfi_def_cfa_offset 68
  66              		.cfi_offset 80, -68
  67              		.cfi_offset 82, -60
  68              		.cfi_offset 84, -52
  69              		.cfi_offset 86, -44
  70              	.LBB69:
  71              	.LBB67:
  72              		.loc 2 135 0
  73 0012 9961     		str	r1, [r3, #24]
  74              	.LBE67:
  75              	.LBE69:
  76              		.loc 1 88 0
  77 0014 85B0     		sub	sp, sp, #20
  78              		.cfi_def_cfa_offset 88
  79              		.loc 1 94 0
  80 0016 002A     		cmp	r2, #0
  81 0018 00F05885 		beq	.L2
  82              		.loc 1 95 0
  83 001c BD48     		ldr	r0, .L248+12
  84              	.LVL1:
  85 001e 4021     		movs	r1, #64
  86 0020 2022     		movs	r2, #32
  87 0022 FFF7FEFF 		bl	_pal_lld_setgroupmode
  88              	.LVL2:
  89              		.loc 1 96 0
  90 0026 BB48     		ldr	r0, .L248+12
  91 0028 8021     		movs	r1, #128
  92 002a 2022     		movs	r2, #32
  93 002c FFF7FEFF 		bl	_pal_lld_setgroupmode
  94              	.LVL3:
  95              	.L3:
  96              		.loc 1 101 0
  97 0030 B94A     		ldr	r2, .L248+16
  98 0032 BA4C     		ldr	r4, .L248+20
  99              	.LBB70:
 100              		.loc 1 120 0
 101 0034 9FEDBAAA 		flds	s20, .L248+24
 102              		.loc 1 125 0
 103 0038 DFEDBA9A 		flds	s19, .L248+28
 104              	.LBB71:
 105              	.LBB72:
 106              	.LBB73:
 107              		.loc 1 476 0
 108 003c 9FEDBA8A 		flds	s16, .L248+32
 109 0040 DFEDBA8A 		flds	s17, .L248+36
 110              	.LBE73:
 111              	.LBE72:
 112              	.LBE71:
 113              	.LBE70:
 114              		.loc 1 101 0
ARM GAS  /tmp/cc2T4BOZ.s 			page 3


 115 0044 0123     		movs	r3, #1
 116 0046 1370     		strb	r3, [r2]
 117              	.L4:
 118              	.LBB150:
 119              		.loc 1 105 0
 120 0048 236C     		ldr	r3, [r4, #64]
 121 004a 42F21075 		movw	r5, #10000
 122 004e B5FBF3F5 		udiv	r5, r5, r3
 123              	.LVL4:
 124              		.loc 1 109 0
 125 0052 002D     		cmp	r5, #0
 126 0054 08BF     		it	eq
 127 0056 0125     		moveq	r5, #1
 128              	.LVL5:
 129              		.loc 1 111 0
 130 0058 2846     		mov	r0, r5
 131 005a FFF7FEFF 		bl	chThdSleep
 132              	.LVL6:
 133              		.loc 1 113 0
 134 005e B449     		ldr	r1, .L248+40
 135 0060 0B78     		ldrb	r3, [r1]	@ zero_extendqisi2
 136 0062 002B     		cmp	r3, #0
 137 0064 40F0CA84 		bne	.L235
 138              		.loc 1 119 0
 139 0068 FFF7FEFF 		bl	mc_interface_get_fault
 140              	.LVL7:
 141 006c 18B1     		cbz	r0, .L7
 142              		.loc 1 120 0
 143 006e DFF8F0B2 		ldr	fp, .L248+88
 144 0072 8BED00AA 		fsts	s20, [fp]
 145              	.L7:
 146              		.loc 1 124 0
 147 0076 AF4F     		ldr	r7, .L248+44
 148              		.loc 1 126 0
 149 0078 DFEDAF7A 		flds	s15, .L248+48
 150              		.loc 1 124 0
 151 007c BA8A     		ldrh	r2, [r7, #20]
 152              		.loc 1 128 0
 153 007e AF4B     		ldr	r3, .L248+52
 154              		.loc 1 124 0
 155 0080 92B2     		uxth	r2, r2
 156 0082 06EE902A 		fmsr	s13, r2	@ int
 157 0086 B8EE660A 		fuitos	s0, s13
 158              		.loc 1 125 0
 159 008a 80EE290A 		fdivs	s0, s0, s19
 160              		.loc 1 126 0
 161 008e 20EE270A 		fmuls	s0, s0, s15
 162              		.loc 1 128 0
 163 0092 83ED000A 		fsts	s0, [r3]
 164              		.loc 1 131 0
 165 0096 237F     		ldrb	r3, [r4, #28]	@ zero_extendqisi2
 166              		.loc 1 126 0
 167 0098 8DED020A 		fsts	s0, [sp, #8]
 168              		.loc 1 131 0
 169 009c 2BB3     		cbz	r3, .L8
 170              	.LBB82:
 171              		.loc 1 135 0
ARM GAS  /tmp/cc2T4BOZ.s 			page 4


 172 009e A84B     		ldr	r3, .L248+56
 173 00a0 A848     		ldr	r0, .L248+60
 174 00a2 1968     		ldr	r1, [r3]
 175              	.LBE82:
 176              		.loc 1 109 0
 177 00a4 9FED9E7A 		flds	s14, .L248+24
 178              	.LBB84:
 179              		.loc 1 135 0
 180 00a8 4A1C     		adds	r2, r1, #1
 181              		.loc 1 136 0
 182 00aa 042A     		cmp	r2, #4
 183              		.loc 1 135 0
 184 00ac 1A60     		str	r2, [r3]
 185              		.loc 1 137 0
 186 00ae C4BF     		itt	gt
 187 00b0 0022     		movgt	r2, #0
 188 00b2 1A60     		strgt	r2, [r3]
 189              	.LVL8:
 190              		.loc 1 135 0
 191 00b4 00EB8101 		add	r1, r0, r1, lsl #2
 192 00b8 A24B     		ldr	r3, .L248+60
 193 00ba 81ED000A 		fsts	s0, [r1]
 194 00be 03F11402 		add	r2, r3, #20
 195              	.LVL9:
 196              	.LBB83:
 197              		.loc 1 142 0
 198 00c2 F3EC017A 		fldmias	r3!, {s15}
 199              		.loc 1 141 0
 200 00c6 9342     		cmp	r3, r2
 201              		.loc 1 142 0
 202 00c8 77EE877A 		fadds	s15, s15, s14
 203              		.loc 1 141 0
 204 00cc 07D0     		beq	.L10
 205              	.L236:
 206              		.loc 1 142 0
 207 00ce B0EE677A 		fcpys	s14, s15
 208 00d2 F3EC017A 		fldmias	r3!, {s15}
 209              		.loc 1 141 0
 210 00d6 9342     		cmp	r3, r2
 211              		.loc 1 142 0
 212 00d8 77EE877A 		fadds	s15, s15, s14
 213              		.loc 1 141 0
 214 00dc F7D1     		bne	.L236
 215              	.L10:
 216              	.LBE83:
 217              		.loc 1 144 0
 218 00de B1EE040A 		fconsts	s0, #20
 219 00e2 87EE800A 		fdivs	s0, s15, s0
 220 00e6 8DED020A 		fsts	s0, [sp, #8]
 221              	.L8:
 222              	.LBE84:
 223              		.loc 1 148 0
 224 00ea 2378     		ldrb	r3, [r4]	@ zero_extendqisi2
 225 00ec 8B49     		ldr	r1, .L248+20
 226 00ee 023B     		subs	r3, r3, #2
 227 00f0 DBB2     		uxtb	r3, r3
 228 00f2 0A2B     		cmp	r3, #10
ARM GAS  /tmp/cc2T4BOZ.s 			page 5


 229 00f4 00F23C82 		bhi	.L12
 230 00f8 0122     		movs	r2, #1
 231 00fa 02FA03F3 		lsl	r3, r2, r3
 232 00fe 40F28942 		movw	r2, #1161
 233 0102 1A40     		ands	r2, r2, r3
 234 0104 002A     		cmp	r2, #0
 235 0106 00F03382 		beq	.L12
 236              		.loc 1 154 0
 237 010a D1ED047A 		flds	s15, [r1, #16]
 238 010e B4EEE70A 		fcmpes	s0, s15
 239 0112 F1EE10FA 		fmstat
 240 0116 40F12584 		bpl	.L227
 241              		.loc 1 155 0
 242 011a D1ED020A 		flds	s1, [r1, #8]
 243 011e DFED801A 		flds	s3, .L248+24
 244 0122 91ED041A 		flds	s2, [r1, #16]
 245 0126 B6EE002A 		fconsts	s4, #96
 246 012a FFF7FEFF 		bl	utils_map
 247              	.LVL10:
 248 012e 8DED020A 		fsts	s0, [sp, #8]
 249              	.L15:
 250              		.loc 1 170 0
 251 0132 02A8     		add	r0, sp, #8
 252 0134 9FED7A0A 		flds	s0, .L248+24
 253 0138 F7EE000A 		fconsts	s1, #112
 254 013c FFF7FEFF 		bl	utils_truncate_number
 255              	.LVL11:
 256              		.loc 1 173 0
 257 0140 94F82030 		ldrb	r3, [r4, #32]	@ zero_extendqisi2
 258 0144 002B     		cmp	r3, #0
 259 0146 40F0A682 		bne	.L16
 260 014a 9DED027A 		flds	s14, [sp, #8]
 261              	.L17:
 262              		.loc 1 177 0
 263 014e 7E4B     		ldr	r3, .L248+64
 264              		.loc 1 183 0
 265 0150 DFED797A 		flds	s15, .L248+48
 266              		.loc 1 177 0
 267 0154 83ED007A 		fsts	s14, [r3]
 268              		.loc 1 181 0
 269 0158 FA89     		ldrh	r2, [r7, #14]
 270              		.loc 1 188 0
 271 015a 7C4B     		ldr	r3, .L248+68
 272              		.loc 1 181 0
 273 015c 92B2     		uxth	r2, r2
 274 015e 07EE102A 		fmsr	s14, r2	@ int
 275 0162 B8EE470A 		fuitos	s0, s14
 276              		.loc 1 182 0
 277 0166 80EE290A 		fdivs	s0, s0, s19
 278              		.loc 1 183 0
 279 016a 20EE270A 		fmuls	s0, s0, s15
 280              		.loc 1 188 0
 281 016e 83ED000A 		fsts	s0, [r3]
 282              		.loc 1 191 0
 283 0172 237F     		ldrb	r3, [r4, #28]	@ zero_extendqisi2
 284              		.loc 1 183 0
 285 0174 8DED030A 		fsts	s0, [sp, #12]
ARM GAS  /tmp/cc2T4BOZ.s 			page 6


 286              		.loc 1 191 0
 287 0178 2BB3     		cbz	r3, .L18
 288              	.LBB85:
 289              		.loc 1 195 0
 290 017a 754B     		ldr	r3, .L248+72
 291 017c 7548     		ldr	r0, .L248+76
 292 017e 1968     		ldr	r1, [r3]
 293              	.LBE85:
 294              		.loc 1 174 0
 295 0180 9FED677A 		flds	s14, .L248+24
 296              	.LBB87:
 297              		.loc 1 195 0
 298 0184 4A1C     		adds	r2, r1, #1
 299              		.loc 1 196 0
 300 0186 042A     		cmp	r2, #4
 301              		.loc 1 195 0
 302 0188 1A60     		str	r2, [r3]
 303              		.loc 1 197 0
 304 018a C4BF     		itt	gt
 305 018c 0022     		movgt	r2, #0
 306 018e 1A60     		strgt	r2, [r3]
 307              	.LVL12:
 308              		.loc 1 195 0
 309 0190 00EB8101 		add	r1, r0, r1, lsl #2
 310 0194 6F4B     		ldr	r3, .L248+76
 311 0196 81ED000A 		fsts	s0, [r1]
 312 019a 03F11402 		add	r2, r3, #20
 313              	.LVL13:
 314              	.LBB86:
 315              		.loc 1 202 0
 316 019e F3EC017A 		fldmias	r3!, {s15}
 317              		.loc 1 201 0
 318 01a2 9342     		cmp	r3, r2
 319              		.loc 1 202 0
 320 01a4 77EE877A 		fadds	s15, s15, s14
 321              		.loc 1 201 0
 322 01a8 07D0     		beq	.L20
 323              	.L237:
 324              		.loc 1 202 0
 325 01aa B0EE677A 		fcpys	s14, s15
 326 01ae F3EC017A 		fldmias	r3!, {s15}
 327              		.loc 1 201 0
 328 01b2 9342     		cmp	r3, r2
 329              		.loc 1 202 0
 330 01b4 77EE877A 		fadds	s15, s15, s14
 331              		.loc 1 201 0
 332 01b8 F7D1     		bne	.L237
 333              	.L20:
 334              	.LBE86:
 335              		.loc 1 204 0
 336 01ba B1EE040A 		fconsts	s0, #20
 337 01be 87EE800A 		fdivs	s0, s15, s0
 338 01c2 8DED030A 		fsts	s0, [sp, #12]
 339              	.L18:
 340              	.LBE87:
 341              		.loc 1 208 0
 342 01c6 D4ED050A 		flds	s1, [r4, #20]
ARM GAS  /tmp/cc2T4BOZ.s 			page 7


 343 01ca DFED551A 		flds	s3, .L248+24
 344 01ce 94ED061A 		flds	s2, [r4, #24]
 345 01d2 B7EE002A 		fconsts	s4, #112
 346 01d6 FFF7FEFF 		bl	utils_map
 347              	.LVL14:
 348 01da 04A8     		add	r0, sp, #16
 349 01dc 20ED010A 		fstmdbs	r0!, {s0}
 350              		.loc 1 209 0
 351 01e0 F7EE000A 		fconsts	s1, #112
 352 01e4 9FED4E0A 		flds	s0, .L248+24
 353 01e8 FFF7FEFF 		bl	utils_truncate_number
 354              	.LVL15:
 355              		.loc 1 212 0
 356 01ec 94F82130 		ldrb	r3, [r4, #33]	@ zero_extendqisi2
 357              		.loc 1 213 0
 358 01f0 DDED037A 		flds	s15, [sp, #12]
 359              		.loc 1 212 0
 360 01f4 3BB1     		cbz	r3, .L23
 361              		.loc 1 213 0
 362 01f6 B7EE007A 		fconsts	s14, #112
 363 01fa 37EE677A 		fsubs	s14, s14, s15
 364 01fe F0EE477A 		fcpys	s15, s14
 365 0202 8DED037A 		fsts	s14, [sp, #12]
 366              	.L23:
 367              		.loc 1 216 0
 368 0206 544B     		ldr	r3, .L248+80
 369              		.loc 1 221 0
 370 0208 3F49     		ldr	r1, .L248
 371              		.loc 1 216 0
 372 020a C3ED007A 		fsts	s15, [r3]
 373              	.LVL16:
 374              		.loc 1 221 0
 375 020e 0B78     		ldrb	r3, [r1]	@ zero_extendqisi2
 376 0210 03F0FF02 		and	r2, r3, #255
 377 0214 002B     		cmp	r3, #0
 378 0216 00F02182 		beq	.L24
 379              		.loc 1 222 0
 380 021a 3E4B     		ldr	r3, .L248+12
 381 021c 1A69     		ldr	r2, [r3, #16]
 382              		.loc 1 223 0
 383 021e A37F     		ldrb	r3, [r4, #30]	@ zero_extendqisi2
 384              		.loc 1 222 0
 385 0220 C2F38019 		ubfx	r9, r2, #6, #1
 386 0224 89F00109 		eor	r9, r9, #1
 387              	.LVL17:
 388              		.loc 1 223 0
 389 0228 0BB1     		cbz	r3, .L25
 390              		.loc 1 224 0
 391 022a 89F00109 		eor	r9, r9, #1
 392              	.LVL18:
 393              	.L25:
 394              		.loc 1 226 0
 395 022e 394B     		ldr	r3, .L248+12
 396 0230 1A69     		ldr	r2, [r3, #16]
 397              		.loc 1 227 0
 398 0232 E37F     		ldrb	r3, [r4, #31]	@ zero_extendqisi2
 399              		.loc 1 226 0
ARM GAS  /tmp/cc2T4BOZ.s 			page 8


 400 0234 C2F3C018 		ubfx	r8, r2, #7, #1
 401 0238 88F00108 		eor	r8, r8, #1
 402              	.LVL19:
 403              		.loc 1 227 0
 404 023c 0BB1     		cbz	r3, .L26
 405              		.loc 1 228 0
 406 023e 88F00108 		eor	r8, r8, #1
 407              	.LVL20:
 408              	.L26:
 409              		.loc 1 247 0
 410 0242 2378     		ldrb	r3, [r4]	@ zero_extendqisi2
 411 0244 023B     		subs	r3, r3, #2
 412 0246 DBB2     		uxtb	r3, r3
 413 0248 0B2B     		cmp	r3, #11
 414 024a 17D8     		bhi	.L29
 415 024c 0122     		movs	r2, #1
 416 024e 02FA03F3 		lsl	r3, r2, r3
 417 0252 40F61212 		movw	r2, #2322
 418 0256 1A40     		ands	r2, r2, r3
 419 0258 002A     		cmp	r2, #0
 420 025a 40F04383 		bne	.L30
 421 025e 40F28942 		movw	r2, #1161
 422 0262 1A40     		ands	r2, r2, r3
 423 0264 002A     		cmp	r2, #0
 424 0266 40F07283 		bne	.L31
 425 026a 13F0240F 		tst	r3, #36
 426 026e 05D0     		beq	.L29
 427              		.loc 1 259 0
 428 0270 9DED027A 		flds	s14, [sp, #8]
 429 0274 77EE677A 		fsubs	s15, s14, s15
 430 0278 CDED027A 		fsts	s15, [sp, #8]
 431              	.L29:
 432              		.loc 1 277 0
 433 027c 94ED010A 		flds	s0, [r4, #4]
 434              		.loc 1 285 0
 435 0280 DFF8E0A0 		ldr	r10, .L248+92
 436              		.loc 1 277 0
 437 0284 254F     		ldr	r7, .L248+20
 438 0286 02A8     		add	r0, sp, #8
 439 0288 F7EE000A 		fconsts	s1, #112
 440 028c FFF7FEFF 		bl	utils_deadband
 441              	.LVL21:
 442              		.loc 1 280 0
 443 0290 D4ED090A 		flds	s1, [r4, #36]
 444 0294 9DED020A 		flds	s0, [sp, #8]
 445 0298 94ED0A1A 		flds	s2, [r4, #40]
 446 029c 94F82C00 		ldrb	r0, [r4, #44]	@ zero_extendqisi2
 447 02a0 FFF7FEFF 		bl	utils_throttle_curve
 448              	.LVL22:
 449              		.loc 1 285 0
 450 02a4 DAED007A 		flds	s15, [r10]
 451              		.loc 1 280 0
 452 02a8 8DED020A 		fsts	s0, [sp, #8]
 453              		.loc 1 285 0
 454 02ac F0EEE77A 		fabss	s15, s15
 455 02b0 B0EEC07A 		fabss	s14, s0
 456 02b4 B4EEE77A 		fcmpes	s14, s15
ARM GAS  /tmp/cc2T4BOZ.s 			page 9


 457 02b8 F1EE10FA 		fmstat
 458 02bc CCBF     		ite	gt
 459 02be D7ED0C7A 		fldsgt	s15, [r7, #48]
 460 02c2 D7ED0D7A 		fldsle	s15, [r7, #52]
 461              	.LVL23:
 462              		.loc 1 287 0
 463 02c6 9FED257A 		flds	s14, .L248+84
 464 02ca F4EEC77A 		fcmpes	s15, s14
 465 02ce F1EE10FA 		fmstat
 466 02d2 00F3E582 		bgt	.L238
 467              	.LVL24:
 468              	.L36:
 469              		.loc 1 297 0
 470 02d6 FFF7FEFF 		bl	mc_interface_get_configuration
 471              	.LVL25:
 472 02da 0746     		mov	r7, r0
 473              	.LVL26:
 474              		.loc 1 298 0
 475 02dc FFF7FEFF 		bl	mc_interface_get_rpm
 476              	.LVL27:
 477              		.loc 1 302 0
 478 02e0 2378     		ldrb	r3, [r4]	@ zero_extendqisi2
 479 02e2 013B     		subs	r3, r3, #1
 480 02e4 0C2B     		cmp	r3, #12
 481 02e6 3FF6AFAE 		bhi	.L4
 482 02ea DFE813F0 		tbh	[pc, r3, lsl #1]
 483              	.L40:
 484 02ee 0E01     		.2byte	(.L39-.L40)/2
 485 02f0 0E01     		.2byte	(.L39-.L40)/2
 486 02f2 0E01     		.2byte	(.L39-.L40)/2
 487 02f4 EE00     		.2byte	(.L41-.L40)/2
 488 02f6 EE00     		.2byte	(.L41-.L40)/2
 489 02f8 EE00     		.2byte	(.L41-.L40)/2
 490 02fa EE00     		.2byte	(.L41-.L40)/2
 491 02fc CB00     		.2byte	(.L42-.L40)/2
 492 02fe CB00     		.2byte	(.L42-.L40)/2
 493 0300 CB00     		.2byte	(.L42-.L40)/2
 494 0302 3D00     		.2byte	(.L43-.L40)/2
 495 0304 3D00     		.2byte	(.L43-.L40)/2
 496 0306 3D00     		.2byte	(.L43-.L40)/2
 497              		.p2align 1
 498              	.L249:
 499              		.align	2
 500              	.L248:
 501 0308 00000000 		.word	.LANCHOR0
 502 030c 00000000 		.word	ch
 503 0310 00000000 		.word	.LC0
 504 0314 00080240 		.word	1073874944
 505 0318 00000000 		.word	.LANCHOR1
 506 031c 00000000 		.word	.LANCHOR2
 507 0320 00000000 		.word	0
 508 0324 00F07F45 		.word	1166012416
 509 0328 00401C46 		.word	1176256512
 510 032c CDCCCC3D 		.word	1036831949
 511 0330 00000000 		.word	.LANCHOR3
 512 0334 00000000 		.word	ADC_Value
 513 0338 33335340 		.word	1079194419
ARM GAS  /tmp/cc2T4BOZ.s 			page 10


 514 033c 00000000 		.word	.LANCHOR5
 515 0340 00000000 		.word	.LANCHOR6
 516 0344 00000000 		.word	.LANCHOR7
 517 0348 00000000 		.word	.LANCHOR8
 518 034c 00000000 		.word	.LANCHOR9
 519 0350 00000000 		.word	.LANCHOR10
 520 0354 00000000 		.word	.LANCHOR11
 521 0358 00000000 		.word	.LANCHOR12
 522 035c 0AD7233C 		.word	1008981770
 523 0360 00000000 		.word	.LANCHOR4
 524 0364 00000000 		.word	.LANCHOR13
 525              	.L43:
 526              		.loc 1 355 0
 527 0368 DDED027A 		flds	s15, [sp, #8]
 528 036c F5EEC07A 		fcmpezs	s15
 529 0370 F1EE10FA 		fmstat
 530 0374 C0F24A83 		blt	.L62
 531              		.loc 1 355 0 is_stmt 0 discriminator 1
 532 0378 B5EEC00A 		fcmpezs	s0
 533 037c F1EE10FA 		fmstat
 534 0380 40F34483 		ble	.L62
 535              	.L64:
 536              		.loc 1 356 0 is_stmt 1
 537 0384 D7ED1DAA 		flds	s21, [r7, #116]
 538 0388 67EEAAAA 		fmuls	s21, s15, s21
 539              	.LVL28:
 540              	.L68:
 541              		.loc 1 361 0
 542 038c DFF828B3 		ldr	fp, .L250+12
 543 0390 9FEDC67A 		flds	s14, .L250
 544 0394 DBED006A 		flds	s13, [fp]
 545 0398 F4EEC76A 		fcmpes	s13, s14
 546 039c F1EE10FA 		fmstat
 547 03a0 40F1AB82 		bpl	.L69
 548              		.loc 1 361 0 is_stmt 0 discriminator 1
 549 03a4 627F     		ldrb	r2, [r4, #29]	@ zero_extendqisi2
 550 03a6 002A     		cmp	r2, #0
 551 03a8 00F0A782 		beq	.L69
 552              		.loc 1 299 0 is_stmt 1
 553 03ac 4FF00008 		mov	r8, #0
 554              	.LVL29:
 555              	.L71:
 556              		.loc 1 373 0
 557 03b0 9FEDBF7A 		flds	s14, .L250+4
 558 03b4 F0EEE77A 		fabss	s15, s15
 559 03b8 F4EEC77A 		fcmpes	s15, s14
 560 03bc F1EE10FA 		fmstat
 561 03c0 40F1E582 		bpl	.L232
 562              		.loc 1 374 0
 563 03c4 07EE105A 		fmsr	s14, r5	@ int
 564 03c8 DFEDBA7A 		flds	s15, .L250+8
 565 03cc F8EEC76A 		fsitos	s13, s14
 566 03d0 9BED007A 		flds	s14, [fp]
 567 03d4 66EEA77A 		fmuls	s15, s13, s15
 568              		.loc 1 296 0
 569 03d8 4FF0000A 		mov	r10, #0
 570              		.loc 1 374 0
ARM GAS  /tmp/cc2T4BOZ.s 			page 11


 571 03dc C7EE887A 		fdivs	s15, s15, s16
 572              		.loc 1 295 0
 573 03e0 5546     		mov	r5, r10
 574              	.LVL30:
 575              		.loc 1 374 0
 576 03e2 77EE877A 		fadds	s15, s15, s14
 577 03e6 CBED007A 		fsts	s15, [fp]
 578              	.LVL31:
 579              	.L51:
 580              		.loc 1 383 0
 581 03ea 9BED007A 		flds	s14, [fp]
 582 03ee DFEDAF7A 		flds	s15, .L250
 583 03f2 B14A     		ldr	r2, .L250+12
 584 03f4 B4EEE77A 		fcmpes	s14, s15
 585 03f8 F1EE10FA 		fmstat
 586 03fc 40F1C580 		bpl	.L76
 587              		.loc 1 383 0 is_stmt 0 discriminator 1
 588 0400 617F     		ldrb	r1, [r4, #29]	@ zero_extendqisi2
 589 0402 0029     		cmp	r1, #0
 590 0404 00F0C180 		beq	.L76
 591              	.LBB88:
 592              		.loc 1 385 0 is_stmt 1
 593 0408 AC49     		ldr	r1, .L250+16
 594 040a D2ED007A 		flds	s15, [r2]
 595 040e D1ED006A 		flds	s13, [r1]	@ int
 596 0412 B8EEE67A 		fsitos	s14, s13
 597 0416 B4EE677A 		fcmps	s14, s15
 598 041a F1EE10FA 		fmstat
 599              		.loc 1 386 0
 600 041e 08BF     		it	eq
 601 0420 82ED00AA 		fstseq	s20, [r2]
 602              		.loc 1 388 0
 603 0424 DBED007A 		flds	s15, [fp]
 604 0428 FDEEE77A 		ftosizs	s15, s15
 605 042c C1ED007A 		fsts	s15, [r1]	@ int
 606              		.loc 1 389 0
 607 0430 FFF7FEFF 		bl	timeout_get_brake_current
 608              	.LVL32:
 609 0434 FFF7FEFF 		bl	mc_interface_set_brake_current
 610              	.LVL33:
 611              		.loc 1 391 0
 612 0438 94F83830 		ldrb	r3, [r4, #56]	@ zero_extendqisi2
 613 043c 002B     		cmp	r3, #0
 614 043e 3FF403AE 		beq	.L4
 615 0442 0025     		movs	r5, #0
 616              	.LVL34:
 617 0444 02E0     		b	.L83
 618              	.LVL35:
 619              	.L80:
 620              	.LBB89:
 621              		.loc 1 392 0
 622 0446 0A2D     		cmp	r5, #10
 623 0448 3FF4FEAD 		beq	.L4
 624              	.LVL36:
 625              	.L83:
 626              	.LBB90:
 627              		.loc 1 393 0
ARM GAS  /tmp/cc2T4BOZ.s 			page 12


 628 044c 2846     		mov	r0, r5
 629 044e FFF7FEFF 		bl	comm_can_get_status_msg_index
 630              	.LVL37:
 631              		.loc 1 395 0
 632 0452 0768     		ldr	r7, [r0]
 633 0454 002F     		cmp	r7, #0
 634              	.LBE90:
 635              		.loc 1 392 0
 636 0456 05F10105 		add	r5, r5, #1
 637              	.LVL38:
 638              	.LBB95:
 639              		.loc 1 395 0
 640 045a F4DB     		blt	.L80
 641              	.LBB91:
 642              	.LBB92:
 643              		.file 3 "ChibiOS_3.0.2/os/rt/include/chvt.h"
 644              		.loc 3 267 0 discriminator 1
 645 045c 4368     		ldr	r3, [r0, #4]
 646              	.LBB93:
 647              	.LBB94:
 648              		.loc 3 231 0 discriminator 1
 649 045e B26A     		ldr	r2, [r6, #40]
 650              	.LBE94:
 651              	.LBE93:
 652              		.loc 3 267 0 discriminator 1
 653 0460 D31A     		subs	r3, r2, r3
 654 0462 07EE903A 		fmsr	s15, r3	@ int
 655              	.LBE92:
 656              	.LBE91:
 657              		.loc 1 395 0 discriminator 1
 658 0466 F8EE677A 		fuitos	s15, s15
 659 046a C7EE887A 		fdivs	s15, s15, s16
 660 046e F4EEE87A 		fcmpes	s15, s17
 661 0472 F1EE10FA 		fmstat
 662 0476 E6D5     		bpl	.L80
 663              		.loc 1 396 0
 664 0478 FFF7FEFF 		bl	timeout_get_brake_current
 665              	.LVL39:
 666 047c F8B2     		uxtb	r0, r7
 667 047e FFF7FEFF 		bl	comm_can_set_current_brake
 668              	.LVL40:
 669 0482 E0E7     		b	.L80
 670              	.LVL41:
 671              	.L42:
 672              	.LBE95:
 673              	.LBE89:
 674              	.LBE88:
 675              		.loc 1 342 0
 676 0484 9DED020A 		flds	s0, [sp, #8]
 677              	.LVL42:
 678 0488 DFED897A 		flds	s15, .L250+4
 679 048c B0EEC07A 		fabss	s14, s0
 680 0490 B4EEE77A 		fcmpes	s14, s15
 681 0494 F1EE10FA 		fmstat
 682 0498 00F17D82 		bmi	.L147
 683 049c DFF818B2 		ldr	fp, .L250+12
 684              	.L58:
ARM GAS  /tmp/cc2T4BOZ.s 			page 13


 685              		.loc 1 346 0
 686 04a0 9BED007A 		flds	s14, [fp]
 687 04a4 DFED817A 		flds	s15, .L250
 688 04a8 B4EEE77A 		fcmpes	s14, s15
 689 04ac F1EE10FA 		fmstat
 690 04b0 40F13782 		bpl	.L60
 691              		.loc 1 346 0 is_stmt 0 discriminator 1
 692 04b4 627F     		ldrb	r2, [r4, #29]	@ zero_extendqisi2
 693 04b6 002A     		cmp	r2, #0
 694 04b8 00F03382 		beq	.L60
 695              		.loc 1 299 0 is_stmt 1
 696 04bc 4FF00008 		mov	r8, #0
 697              	.LVL43:
 698              		.loc 1 296 0
 699 04c0 C246     		mov	r10, r8
 700              		.loc 1 295 0
 701 04c2 4546     		mov	r5, r8
 702              	.LVL44:
 703              		.loc 1 294 0
 704 04c4 DFED7EAA 		flds	s21, .L250+20
 705 04c8 8FE7     		b	.L51
 706              	.LVL45:
 707              	.L41:
 708              		.loc 1 323 0
 709 04ca DDED027A 		flds	s15, [sp, #8]
 710 04ce F5EEC07A 		fcmpezs	s15
 711 04d2 F1EE10FA 		fmstat
 712 04d6 C0F2F082 		blt	.L230
 713              		.loc 1 324 0
 714 04da D7ED1DAA 		flds	s21, [r7, #116]
 715 04de 67EEAAAA 		fmuls	s21, s15, s21
 716              	.LVL46:
 717              		.loc 1 296 0
 718 04e2 4FF0000A 		mov	r10, #0
 719              	.LVL47:
 720              	.L55:
 721              		.loc 1 330 0
 722 04e6 9FED727A 		flds	s14, .L250+4
 723 04ea F4EEC77A 		fcmpes	s15, s14
 724 04ee F1EE10FA 		fmstat
 725 04f2 00F16382 		bmi	.L146
 726              		.loc 1 334 0
 727 04f6 2278     		ldrb	r2, [r4]	@ zero_extendqisi2
 728 04f8 DFF8BCB1 		ldr	fp, .L250+12
 729 04fc 042A     		cmp	r2, #4
 730 04fe 00F07382 		beq	.L239
 731              	.L129:
 732              		.loc 1 299 0
 733 0502 4FF00008 		mov	r8, #0
 734              	.LVL48:
 735              		.loc 1 322 0
 736 0506 0125     		movs	r5, #1
 737              	.LVL49:
 738 0508 6FE7     		b	.L51
 739              	.LVL50:
 740              	.L39:
 741              		.loc 1 307 0
ARM GAS  /tmp/cc2T4BOZ.s 			page 14


 742 050a DDED027A 		flds	s15, [sp, #8]
 743 050e F5EEC07A 		fcmpezs	s15
 744 0512 F1EE10FA 		fmstat
 745 0516 C0F29982 		blt	.L44
 746              		.loc 1 307 0 is_stmt 0 discriminator 1
 747 051a B5EEC00A 		fcmpezs	s0
 748 051e F1EE10FA 		fmstat
 749 0522 40F39382 		ble	.L44
 750              	.L46:
 751              		.loc 1 308 0 is_stmt 1
 752 0526 D7ED1DAA 		flds	s21, [r7, #116]
 753 052a 67EEAAAA 		fmuls	s21, s15, s21
 754              	.LVL51:
 755              	.L50:
 756              		.loc 1 313 0
 757 052e 9FED607A 		flds	s14, .L250+4
 758 0532 F0EEE77A 		fabss	s15, s15
 759 0536 F4EEC77A 		fcmpes	s15, s14
 760 053a F1EE10FA 		fmstat
 761 053e 40F11F82 		bpl	.L229
 762              		.loc 1 314 0
 763 0542 06EE905A 		fmsr	s13, r5	@ int
 764 0546 DFED5B7A 		flds	s15, .L250+8
 765 054a DFF86CB1 		ldr	fp, .L250+12
 766 054e B8EEE67A 		fsitos	s14, s13
 767              		.loc 1 299 0
 768 0552 4FF00008 		mov	r8, #0
 769              	.LVL52:
 770              		.loc 1 314 0
 771 0556 67EE277A 		fmuls	s15, s14, s15
 772 055a 9BED007A 		flds	s14, [fp]
 773 055e C7EE887A 		fdivs	s15, s15, s16
 774              		.loc 1 296 0
 775 0562 C246     		mov	r10, r8
 776              		.loc 1 306 0
 777 0564 0125     		movs	r5, #1
 778              	.LVL53:
 779              		.loc 1 314 0
 780 0566 77EE877A 		fadds	s15, s15, s14
 781 056a CBED007A 		fsts	s15, [fp]
 782 056e 3CE7     		b	.L51
 783              	.LVL54:
 784              	.L12:
 785              		.loc 1 165 0
 786 0570 D4ED020A 		flds	s1, [r4, #8]
 787 0574 DFED521A 		flds	s3, .L250+20
 788 0578 94ED031A 		flds	s2, [r4, #12]
 789 057c B7EE002A 		fconsts	s4, #112
 790 0580 FFF7FEFF 		bl	utils_map
 791              	.LVL55:
 792 0584 8DED020A 		fsts	s0, [sp, #8]
 793              		.loc 1 166 0
 794 0588 D3E5     		b	.L15
 795              	.LVL56:
 796              	.L76:
 797              		.loc 1 413 0
 798 058a DFF84CB1 		ldr	fp, .L250+44
ARM GAS  /tmp/cc2T4BOZ.s 			page 15


 799              		.loc 1 405 0
 800 058e FFF7FEFF 		bl	timeout_reset
 801              	.LVL57:
 802              		.loc 1 413 0
 803 0592 DBF80020 		ldr	r2, [fp]
 804 0596 511C     		adds	r1, r2, #1
 805 0598 CBF80010 		str	r1, [fp]
 806 059c 0192     		str	r2, [sp, #4]
 807 059e FFF7FEFF 		bl	mc_interface_get_rpm
 808              	.LVL58:
 809 05a2 019A     		ldr	r2, [sp, #4]
 810              		.loc 1 414 0
 811 05a4 DBF80010 		ldr	r1, [fp]
 812              		.loc 1 413 0
 813 05a8 4648     		ldr	r0, .L250+24
 814 05aa 464B     		ldr	r3, .L250+24
 815              		.loc 1 418 0
 816 05ac DFED447A 		flds	s15, .L250+20
 817              		.loc 1 413 0
 818 05b0 00EB8202 		add	r2, r0, r2, lsl #2
 819              		.loc 1 414 0
 820 05b4 0729     		cmp	r1, #7
 821              		.loc 1 413 0
 822 05b6 82ED000A 		fsts	s0, [r2]
 823              		.loc 1 415 0
 824 05ba C4BF     		itt	gt
 825 05bc 0022     		movgt	r2, #0
 826 05be CBF80020 		strgt	r2, [fp]
 827              	.LVL59:
 828 05c2 03F12002 		add	r2, r3, #32
 829              	.LVL60:
 830              	.L86:
 831              	.LBB96:
 832              		.loc 1 420 0 discriminator 2
 833 05c6 B3EC017A 		fldmias	r3!, {s14}
 834              		.loc 1 419 0 discriminator 2
 835 05ca 9342     		cmp	r3, r2
 836              		.loc 1 420 0 discriminator 2
 837 05cc 77EE877A 		fadds	s15, s15, s14
 838              	.LVL61:
 839              		.loc 1 419 0 discriminator 2
 840 05d0 F9D1     		bne	.L86
 841              	.LVL62:
 842              	.LBE96:
 843              		.loc 1 424 0
 844 05d2 002D     		cmp	r5, #0
 845 05d4 00F08280 		beq	.L87
 846              		.loc 1 424 0 is_stmt 0 discriminator 1
 847 05d8 B9F1000F 		cmp	r9, #0
 848 05dc 7ED0     		beq	.L87
 849 05de DDED026A 		flds	s13, [sp, #8]
 850 05e2 9FED337A 		flds	s14, .L250+4
 851 05e6 F0EEE66A 		fabss	s13, s13
 852 05ea F4EEC76A 		fcmpes	s13, s14
 853 05ee F1EE10FA 		fmstat
 854 05f2 73D5     		bpl	.L87
 855              	.LBB97:
ARM GAS  /tmp/cc2T4BOZ.s 			page 16


 856              		.loc 1 427 0 is_stmt 1
 857 05f4 344B     		ldr	r3, .L250+28
 858 05f6 1A78     		ldrb	r2, [r3]	@ zero_extendqisi2
 859 05f8 002A     		cmp	r2, #0
 860 05fa 00F06E82 		beq	.L89
 861 05fe 334B     		ldr	r3, .L250+32
 862 0600 93ED000A 		flds	s0, [r3]
 863              	.LVL63:
 864              	.L90:
 865              		.loc 1 432 0
 866 0604 FFF7FEFF 		bl	mc_interface_set_pid_speed
 867              	.LVL64:
 868              		.loc 1 435 0
 869 0608 94F83830 		ldrb	r3, [r4, #56]	@ zero_extendqisi2
 870 060c 002B     		cmp	r3, #0
 871 060e 3FF41BAD 		beq	.L4
 872              	.LBB98:
 873              		.loc 1 436 0
 874 0612 FFF7FEFF 		bl	mc_interface_get_tot_current_directional_filtered
 875              	.LVL65:
 876              	.LBB99:
 877              		.loc 1 438 0
 878 0616 0025     		movs	r5, #0
 879              	.LVL66:
 880              	.LBE99:
 881              		.loc 1 436 0
 882 0618 B0EE409A 		fcpys	s18, s0
 883              	.LVL67:
 884 061c 02E0     		b	.L93
 885              	.LVL68:
 886              	.L91:
 887              	.LBB106:
 888              		.loc 1 438 0
 889 061e 0A2D     		cmp	r5, #10
 890 0620 3FF412AD 		beq	.L4
 891              	.LVL69:
 892              	.L93:
 893              	.LBB100:
 894              		.loc 1 439 0
 895 0624 2846     		mov	r0, r5
 896 0626 FFF7FEFF 		bl	comm_can_get_status_msg_index
 897              	.LVL70:
 898              		.loc 1 441 0
 899 062a 0368     		ldr	r3, [r0]
 900 062c 002B     		cmp	r3, #0
 901              	.LBE100:
 902              		.loc 1 438 0
 903 062e 05F10105 		add	r5, r5, #1
 904              	.LVL71:
 905              	.LBB105:
 906              		.loc 1 441 0
 907 0632 F4DB     		blt	.L91
 908              	.LBB101:
 909              	.LBB102:
 910              		.loc 3 267 0 discriminator 1
 911 0634 4268     		ldr	r2, [r0, #4]
 912              	.LBB103:
ARM GAS  /tmp/cc2T4BOZ.s 			page 17


 913              	.LBB104:
 914              		.loc 3 231 0 discriminator 1
 915 0636 B16A     		ldr	r1, [r6, #40]
 916              	.LBE104:
 917              	.LBE103:
 918              		.loc 3 267 0 discriminator 1
 919 0638 8A1A     		subs	r2, r1, r2
 920 063a 07EE902A 		fmsr	s15, r2	@ int
 921              	.LBE102:
 922              	.LBE101:
 923              		.loc 1 441 0 discriminator 1
 924 063e F8EE677A 		fuitos	s15, s15
 925 0642 C7EE887A 		fdivs	s15, s15, s16
 926 0646 F4EEE87A 		fcmpes	s15, s17
 927 064a F1EE10FA 		fmstat
 928 064e E6D5     		bpl	.L91
 929              		.loc 1 442 0
 930 0650 D8B2     		uxtb	r0, r3
 931              	.LVL72:
 932 0652 B0EE490A 		fcpys	s0, s18
 933 0656 FFF7FEFF 		bl	comm_can_set_current
 934              	.LVL73:
 935 065a E0E7     		b	.L91
 936              	.LVL74:
 937              	.L24:
 938              	.LBE105:
 939              	.LBE106:
 940              	.LBE98:
 941              	.LBE97:
 942              		.loc 1 232 0
 943 065c 2178     		ldrb	r1, [r4]	@ zero_extendqisi2
 944 065e 1C4B     		ldr	r3, .L250+36
 945 0660 0329     		cmp	r1, #3
 946 0662 00F00C81 		beq	.L27
 947              		.loc 1 233 0 discriminator 1
 948 0666 1978     		ldrb	r1, [r3]	@ zero_extendqisi2
 949              		.loc 1 232 0 discriminator 1
 950 0668 0629     		cmp	r1, #6
 951 066a 00F00881 		beq	.L27
 952              		.loc 1 234 0
 953 066e 1978     		ldrb	r1, [r3]	@ zero_extendqisi2
 954              		.loc 1 233 0
 955 0670 0A29     		cmp	r1, #10
 956 0672 00F00481 		beq	.L27
 957              		.loc 1 240 0
 958 0676 1749     		ldr	r1, .L250+40
 959 0678 0969     		ldr	r1, [r1, #16]
 960              		.loc 1 241 0
 961 067a 9B7F     		ldrb	r3, [r3, #30]	@ zero_extendqisi2
 962              		.loc 1 240 0
 963 067c C1F34019 		ubfx	r9, r1, #5, #1
 964 0680 89F00109 		eor	r9, r9, #1
 965              	.LVL75:
 966              		.loc 1 241 0
 967 0684 03F0FF08 		and	r8, r3, #255
 968 0688 002B     		cmp	r3, #0
 969 068a 3FF4DAAD 		beq	.L26
ARM GAS  /tmp/cc2T4BOZ.s 			page 18


 970              		.loc 1 242 0
 971 068e 89F00109 		eor	r9, r9, #1
 972              	.LVL76:
 973              		.loc 1 220 0
 974 0692 9046     		mov	r8, r2
 975 0694 D5E5     		b	.L26
 976              	.LVL77:
 977              	.L16:
 978              		.loc 1 174 0
 979 0696 DDED027A 		flds	s15, [sp, #8]
 980 069a B7EE007A 		fconsts	s14, #112
 981 069e 77EE677A 		fsubs	s15, s14, s15
 982 06a2 B0EE677A 		fcpys	s14, s15
 983 06a6 CDED027A 		fsts	s15, [sp, #8]
 984 06aa 50E5     		b	.L17
 985              	.L251:
 986              		.align	2
 987              	.L250:
 988 06ac 0000FA43 		.word	1140457472
 989 06b0 6F12833A 		.word	981668463
 990 06b4 00007A44 		.word	1148846080
 991 06b8 00000000 		.word	.LANCHOR4
 992 06bc 00000000 		.word	.LANCHOR15
 993 06c0 00000000 		.word	0
 994 06c4 00000000 		.word	.LANCHOR17
 995 06c8 00000000 		.word	.LANCHOR18
 996 06cc 00000000 		.word	.LANCHOR19
 997 06d0 00000000 		.word	.LANCHOR2
 998 06d4 00040240 		.word	1073873920
 999 06d8 00000000 		.word	.LANCHOR16
 1000              	.LVL78:
 1001              	.L87:
 1002              		.loc 1 450 0
 1003 06dc D14B     		ldr	r3, .L252
 1004 06de 4FF00009 		mov	r9, #0
 1005              	.LVL79:
 1006 06e2 83F80090 		strb	r9, [r3]
 1007              		.loc 1 453 0
 1008 06e6 FFF7FEFF 		bl	mc_interface_get_rpm
 1009              	.LVL80:
 1010              		.loc 1 455 0
 1011 06ea 94F83830 		ldrb	r3, [r4, #56]	@ zero_extendqisi2
 1012              		.loc 1 453 0
 1013 06ee B0EE40BA 		fcpys	s22, s0
 1014              	.LVL81:
 1015              		.loc 1 455 0
 1016 06f2 B0EE409A 		fcpys	s18, s0
 1017 06f6 2BB3     		cbz	r3, .L94
 1018              	.LVL82:
 1019              	.L97:
 1020              	.LBB107:
 1021              	.LBB108:
 1022              		.loc 1 457 0
 1023 06f8 4846     		mov	r0, r9
 1024 06fa FFF7FEFF 		bl	comm_can_get_status_msg_index
 1025              	.LVL83:
 1026              		.loc 1 459 0
ARM GAS  /tmp/cc2T4BOZ.s 			page 19


 1027 06fe 0368     		ldr	r3, [r0]
 1028 0700 002B     		cmp	r3, #0
 1029              	.LBE108:
 1030              		.loc 1 456 0
 1031 0702 09F10109 		add	r9, r9, #1
 1032              	.LVL84:
 1033              	.LBB115:
 1034              		.loc 1 459 0
 1035 0706 1ADB     		blt	.L95
 1036              	.LBB109:
 1037              	.LBB110:
 1038              	.LBB111:
 1039              	.LBB112:
 1040              		.loc 3 231 0 discriminator 1
 1041 0708 B26A     		ldr	r2, [r6, #40]
 1042              	.LBE112:
 1043              	.LBE111:
 1044              		.loc 3 267 0 discriminator 1
 1045 070a 4368     		ldr	r3, [r0, #4]
 1046 070c D31A     		subs	r3, r2, r3
 1047 070e 07EE903A 		fmsr	s15, r3	@ int
 1048              	.LBE110:
 1049              	.LBE109:
 1050              		.loc 1 459 0 discriminator 1
 1051 0712 F8EE677A 		fuitos	s15, s15
 1052              	.LBB113:
 1053              		.loc 1 462 0 discriminator 1
 1054 0716 B0EEC97A 		fabss	s14, s18
 1055              	.LBE113:
 1056              		.loc 1 459 0 discriminator 1
 1057 071a C7EE887A 		fdivs	s15, s15, s16
 1058 071e F4EEE87A 		fcmpes	s15, s17
 1059 0722 F1EE10FA 		fmstat
 1060 0726 0AD5     		bpl	.L95
 1061              	.LBB114:
 1062              		.loc 1 460 0
 1063 0728 D0ED027A 		flds	s15, [r0, #8]
 1064              	.LVL85:
 1065              		.loc 1 462 0
 1066 072c F0EEE76A 		fabss	s13, s15
 1067              		.loc 1 463 0
 1068 0730 F4EE476A 		fcmps	s13, s14
 1069 0734 F1EE10FA 		fmstat
 1070 0738 48BF     		it	mi
 1071 073a B0EE679A 		fcpysmi	s18, s15
 1072              	.LVL86:
 1073              	.L95:
 1074              	.LBE114:
 1075              	.LBE115:
 1076              		.loc 1 456 0
 1077 073e B9F10A0F 		cmp	r9, #10
 1078 0742 D9D1     		bne	.L97
 1079              	.LVL87:
 1080              	.L94:
 1081              	.LBE107:
 1082              		.loc 1 470 0
 1083 0744 B8F1000F 		cmp	r8, #0
ARM GAS  /tmp/cc2T4BOZ.s 			page 20


 1084 0748 03D0     		beq	.L101
 1085              		.loc 1 470 0 is_stmt 0 discriminator 1
 1086 074a 94F83830 		ldrb	r3, [r4, #56]	@ zero_extendqisi2
 1087 074e 002B     		cmp	r3, #0
 1088 0750 6FD1     		bne	.L240
 1089              	.LVL88:
 1090              	.L101:
 1091              		.loc 1 482 0 is_stmt 1
 1092 0752 002D     		cmp	r5, #0
 1093 0754 3FF478AC 		beq	.L4
 1094              		.loc 1 483 0
 1095 0758 BAF1000F 		cmp	r10, #0
 1096 075c 40F08881 		bne	.L241
 1097              	.LVL89:
 1098              	.LBB116:
 1099              		.loc 1 497 0
 1100 0760 F5EEC0AA 		fcmpezs	s21
 1101 0764 F1EE10FA 		fmstat
 1102 0768 00F1C581 		bmi	.L242
 1103              	.LVL90:
 1104              	.L110:
 1105              		.loc 1 506 0
 1106 076c 94F83830 		ldrb	r3, [r4, #56]	@ zero_extendqisi2
 1107 0770 002B     		cmp	r3, #0
 1108 0772 55D0     		beq	.L112
 1109 0774 F0EE6ABA 		fcpys	s23, s21
 1110 0778 0025     		movs	r5, #0
 1111              	.LVL91:
 1112 077a 06E0     		b	.L120
 1113              	.LVL92:
 1114              	.L244:
 1115              	.LBB117:
 1116              	.LBB118:
 1117              		.loc 1 525 0
 1118 077c B1EE6B0A 		fnegs	s0, s23
 1119 0780 FFF7FEFF 		bl	comm_can_set_current
 1120              	.LVL93:
 1121              	.L113:
 1122              	.LBE118:
 1123              		.loc 1 507 0
 1124 0784 0135     		adds	r5, r5, #1
 1125              	.LVL94:
 1126 0786 0A2D     		cmp	r5, #10
 1127 0788 42D0     		beq	.L243
 1128              	.LVL95:
 1129              	.L120:
 1130              	.LBB124:
 1131              		.loc 1 508 0
 1132 078a 2846     		mov	r0, r5
 1133 078c FFF7FEFF 		bl	comm_can_get_status_msg_index
 1134              	.LVL96:
 1135              		.loc 1 510 0
 1136 0790 0368     		ldr	r3, [r0]
 1137 0792 002B     		cmp	r3, #0
 1138 0794 F6DB     		blt	.L113
 1139              	.LVL97:
 1140              	.LBB119:
ARM GAS  /tmp/cc2T4BOZ.s 			page 21


 1141              	.LBB120:
 1142              	.LBB121:
 1143              	.LBB122:
 1144              		.loc 3 231 0 discriminator 1
 1145 0796 B16A     		ldr	r1, [r6, #40]
 1146              	.LBE122:
 1147              	.LBE121:
 1148              		.loc 3 267 0 discriminator 1
 1149 0798 4268     		ldr	r2, [r0, #4]
 1150 079a 8A1A     		subs	r2, r1, r2
 1151 079c 07EE902A 		fmsr	s15, r2	@ int
 1152              	.LBE120:
 1153              	.LBE119:
 1154              		.loc 1 510 0 discriminator 1
 1155 07a0 F8EE677A 		fuitos	s15, s15
 1156 07a4 C7EE887A 		fdivs	s15, s15, s16
 1157 07a8 F4EEE87A 		fcmpes	s15, s17
 1158 07ac F1EE10FA 		fmstat
 1159 07b0 E8D5     		bpl	.L113
 1160              		.loc 1 511 0
 1161 07b2 94F83920 		ldrb	r2, [r4, #57]	@ zero_extendqisi2
 1162 07b6 02B3     		cbz	r2, .L115
 1163              	.LBB123:
 1164              		.loc 1 512 0
 1165 07b8 90ED020A 		flds	s0, [r0, #8]
 1166              	.LVL98:
 1167              		.loc 1 513 0
 1168 07bc BAF1000F 		cmp	r10, #0
 1169 07c0 01D0     		beq	.L116
 1170              		.loc 1 514 0
 1171 07c2 B1EE400A 		fnegs	s0, s0
 1172              	.LVL99:
 1173              	.L116:
 1174              		.loc 1 518 0
 1175 07c6 DFED980A 		flds	s1, .L252+4
 1176 07ca 94ED0F1A 		flds	s2, [r4, #60]
 1177 07ce 0190     		str	r0, [sp, #4]
 1178              	.LVL100:
 1179 07d0 30EE490A 		fsubs	s0, s0, s18
 1180              	.LVL101:
 1181 07d4 B0EE602A 		fcpys	s4, s1
 1182 07d8 F0EE6A1A 		fcpys	s3, s21
 1183 07dc FFF7FEFF 		bl	utils_map
 1184              	.LVL102:
 1185              		.loc 1 519 0
 1186 07e0 D7ED507A 		flds	s15, [r7, #320]
 1187 07e4 0198     		ldr	r0, [sp, #4]
 1188 07e6 B4EEE70A 		fcmpes	s0, s15
 1189 07ea F1EE10FA 		fmstat
 1190              		.loc 1 518 0
 1191 07ee F0EE40BA 		fcpys	s23, s0
 1192              	.LVL103:
 1193 07f2 0368     		ldr	r3, [r0]
 1194              	.LVL104:
 1195              		.loc 1 520 0
 1196 07f4 48BF     		it	mi
 1197 07f6 DFED8CBA 		fldsmi	s23, .L252+4
ARM GAS  /tmp/cc2T4BOZ.s 			page 22


 1198              	.LVL105:
 1199              	.L115:
 1200              	.LBE123:
 1201              		.loc 1 525 0
 1202 07fa D8B2     		uxtb	r0, r3
 1203              		.loc 1 524 0
 1204 07fc BAF1000F 		cmp	r10, #0
 1205 0800 BCD1     		bne	.L244
 1206              		.loc 1 527 0
 1207 0802 B0EE6B0A 		fcpys	s0, s23
 1208              	.LBE124:
 1209              		.loc 1 507 0
 1210 0806 0135     		adds	r5, r5, #1
 1211              	.LVL106:
 1212              	.LBB125:
 1213              		.loc 1 527 0
 1214 0808 FFF7FEFF 		bl	comm_can_set_current
 1215              	.LVL107:
 1216              	.LBE125:
 1217              		.loc 1 507 0
 1218 080c 0A2D     		cmp	r5, #10
 1219 080e BCD1     		bne	.L120
 1220              	.L243:
 1221              	.LBE117:
 1222              		.loc 1 532 0
 1223 0810 94F83930 		ldrb	r3, [r4, #57]	@ zero_extendqisi2
 1224 0814 854A     		ldr	r2, .L252+8
 1225 0816 002B     		cmp	r3, #0
 1226 0818 40F08281 		bne	.L245
 1227              	.LBB126:
 1228 081c F0EE6BAA 		fcpys	s21, s23
 1229              	.LVL108:
 1230              	.L112:
 1231              	.LBE126:
 1232              		.loc 1 541 0
 1233 0820 BAF1000F 		cmp	r10, #0
 1234 0824 00F01E81 		beq	.L121
 1235              		.loc 1 542 0
 1236 0828 B1EE6A0A 		fnegs	s0, s21
 1237 082c FFF7FEFF 		bl	mc_interface_set_current
 1238              	.LVL109:
 1239 0830 0AE4     		b	.L4
 1240              	.LVL110:
 1241              	.L240:
 1242              	.LBE116:
 1243              	.LBB128:
 1244              		.loc 1 471 0
 1245 0832 FFF7FEFF 		bl	mc_interface_get_duty_cycle_now
 1246              	.LVL111:
 1247              	.LBB80:
 1248              		.loc 1 473 0
 1249 0836 4FF00008 		mov	r8, #0
 1250              	.LVL112:
 1251              	.LBE80:
 1252              		.loc 1 471 0
 1253 083a F0EE40BA 		fcpys	s23, s0
 1254              	.LVL113:
ARM GAS  /tmp/cc2T4BOZ.s 			page 23


 1255 083e 02E0     		b	.L104
 1256              	.LVL114:
 1257              	.L102:
 1258              	.LBB81:
 1259              		.loc 1 473 0
 1260 0840 B8F10A0F 		cmp	r8, #10
 1261 0844 85D0     		beq	.L101
 1262              	.LVL115:
 1263              	.L104:
 1264              	.LBB78:
 1265              		.loc 1 474 0
 1266 0846 4046     		mov	r0, r8
 1267 0848 FFF7FEFF 		bl	comm_can_get_status_msg_index
 1268              	.LVL116:
 1269              		.loc 1 476 0
 1270 084c 0368     		ldr	r3, [r0]
 1271 084e 002B     		cmp	r3, #0
 1272              	.LBE78:
 1273              		.loc 1 473 0
 1274 0850 08F10108 		add	r8, r8, #1
 1275              	.LVL117:
 1276              	.LBB79:
 1277              		.loc 1 476 0
 1278 0854 F4DB     		blt	.L102
 1279              	.LBB74:
 1280              	.LBB75:
 1281              		.loc 3 267 0 discriminator 1
 1282 0856 4268     		ldr	r2, [r0, #4]
 1283              	.LBB76:
 1284              	.LBB77:
 1285              		.loc 3 231 0 discriminator 1
 1286 0858 B16A     		ldr	r1, [r6, #40]
 1287              	.LBE77:
 1288              	.LBE76:
 1289              		.loc 3 267 0 discriminator 1
 1290 085a 8A1A     		subs	r2, r1, r2
 1291 085c 07EE902A 		fmsr	s15, r2	@ int
 1292              	.LBE75:
 1293              	.LBE74:
 1294              		.loc 1 476 0 discriminator 1
 1295 0860 F8EE677A 		fuitos	s15, s15
 1296 0864 C7EE887A 		fdivs	s15, s15, s16
 1297 0868 F4EEE87A 		fcmpes	s15, s17
 1298 086c F1EE10FA 		fmstat
 1299 0870 E6D5     		bpl	.L102
 1300              		.loc 1 477 0
 1301 0872 D8B2     		uxtb	r0, r3
 1302              	.LVL118:
 1303 0874 B0EE6B0A 		fcpys	s0, s23
 1304 0878 FFF7FEFF 		bl	comm_can_set_duty
 1305              	.LVL119:
 1306 087c E0E7     		b	.L102
 1307              	.LVL120:
 1308              	.L27:
 1309              	.LBE79:
 1310              	.LBE81:
 1311              	.LBE128:
ARM GAS  /tmp/cc2T4BOZ.s 			page 24


 1312              		.loc 1 235 0
 1313 087e 6C4B     		ldr	r3, .L252+12
 1314 0880 1A69     		ldr	r2, [r3, #16]
 1315              		.loc 1 236 0
 1316 0882 E37F     		ldrb	r3, [r4, #31]	@ zero_extendqisi2
 1317              		.loc 1 235 0
 1318 0884 C2F34018 		ubfx	r8, r2, #5, #1
 1319 0888 88F00108 		eor	r8, r8, #1
 1320              	.LVL121:
 1321              		.loc 1 236 0
 1322 088c 03F0FF09 		and	r9, r3, #255
 1323 0890 002B     		cmp	r3, #0
 1324 0892 3FF4D6AC 		beq	.L26
 1325              		.loc 1 237 0
 1326 0896 88F00108 		eor	r8, r8, #1
 1327              	.LVL122:
 1328              		.loc 1 219 0
 1329 089a 4FF00009 		mov	r9, #0
 1330 089e D0E4     		b	.L26
 1331              	.LVL123:
 1332              	.L238:
 1333              	.LBB129:
 1334              		.loc 1 288 0
 1335 08a0 644F     		ldr	r7, .L252+16
 1336              	.LBB130:
 1337              	.LBB131:
 1338              	.LBB132:
 1339              	.LBB133:
 1340              		.loc 3 231 0
 1341 08a2 B36A     		ldr	r3, [r6, #40]
 1342              	.LVL124:
 1343              	.LBE133:
 1344              	.LBE132:
 1345              		.loc 3 267 0
 1346 08a4 3A68     		ldr	r2, [r7]
 1347              	.LBE131:
 1348              	.LBE130:
 1349              		.loc 1 288 0
 1350 08a6 6449     		ldr	r1, .L252+20
 1351 08a8 9FED647A 		flds	s14, .L252+24
 1352              		.loc 1 289 0
 1353 08ac 6448     		ldr	r0, .L252+28
 1354              	.LBB135:
 1355              	.LBB134:
 1356              		.loc 3 267 0
 1357 08ae 9A1A     		subs	r2, r3, r2
 1358              	.LBE134:
 1359              	.LBE135:
 1360              		.loc 1 288 0
 1361 08b0 4FF47A73 		mov	r3, #1000
 1362              	.LVL125:
 1363 08b4 03FB02F3 		mul	r3, r3, r2
 1364              	.LVL126:
 1365 08b8 03F51C53 		add	r3, r3, #9984
 1366              	.LVL127:
 1367 08bc 0F33     		adds	r3, r3, #15
 1368              	.LVL128:
ARM GAS  /tmp/cc2T4BOZ.s 			page 25


 1369 08be A1FB0323 		umull	r2, r3, r1, r3
 1370              	.LVL129:
 1371 08c2 5B0B     		lsrs	r3, r3, #13
 1372 08c4 06EE903A 		fmsr	s13, r3	@ int
 1373 08c8 67EE877A 		fmuls	s15, s15, s14
 1374              	.LVL130:
 1375 08cc F8EEE60A 		fsitos	s1, s13
 1376              		.loc 1 289 0
 1377 08d0 C0EEA70A 		fdivs	s1, s1, s15
 1378 08d4 FFF7FEFF 		bl	utils_step_towards
 1379              	.LVL131:
 1380              	.LBB136:
 1381              	.LBB137:
 1382              		.loc 3 231 0
 1383 08d8 B36A     		ldr	r3, [r6, #40]
 1384              	.LBE137:
 1385              	.LBE136:
 1386              		.loc 1 290 0
 1387 08da 3B60     		str	r3, [r7]
 1388              		.loc 1 291 0
 1389 08dc DAF80030 		ldr	r3, [r10]	@ float
 1390 08e0 0293     		str	r3, [sp, #8]	@ float
 1391 08e2 F8E4     		b	.L36
 1392              	.L30:
 1393              	.LBE129:
 1394              		.loc 1 267 0
 1395 08e4 B8F1000F 		cmp	r8, #0
 1396 08e8 3FF4C8AC 		beq	.L29
 1397              		.loc 1 268 0
 1398 08ec DDED027A 		flds	s15, [sp, #8]
 1399 08f0 F1EE677A 		fnegs	s15, s15
 1400 08f4 CDED027A 		fsts	s15, [sp, #8]
 1401 08f8 C0E4     		b	.L29
 1402              	.LVL132:
 1403              	.L69:
 1404              	.LBB138:
 1405              		.loc 1 363 0
 1406 08fa F5EEC07A 		fcmpezs	s15
 1407 08fe F1EE10FA 		fmstat
 1408              		.loc 1 366 0
 1409 0902 B6BF     		itet	lt
 1410 0904 97ED060A 		fldslt	s0, [r7, #24]
 1411              	.LVL133:
 1412              		.loc 1 364 0
 1413 0908 97ED070A 		fldsge	s0, [r7, #28]
 1414              		.loc 1 366 0
 1415 090c B0EEC00A 		fabsslt	s0, s0
 1416 0910 27EE800A 		fmuls	s0, s15, s0
 1417              	.LVL134:
 1418              		.loc 1 369 0
 1419 0914 FFF7FEFF 		bl	mc_interface_set_pid_speed
 1420              	.LVL135:
 1421              		.loc 1 370 0
 1422 0918 4FF00108 		mov	r8, #1
 1423              	.LVL136:
 1424 091c DDED027A 		flds	s15, [sp, #8]
 1425 0920 46E5     		b	.L71
ARM GAS  /tmp/cc2T4BOZ.s 			page 26


 1426              	.LVL137:
 1427              	.L60:
 1428              	.LBE138:
 1429              		.loc 1 347 0
 1430 0922 D7ED161A 		flds	s3, [r7, #88]
 1431 0926 97ED162A 		flds	s4, [r7, #88]
 1432              		.loc 1 294 0
 1433 092a DFED3FAA 		flds	s21, .L252+4
 1434              		.loc 1 347 0
 1435 092e F1EE611A 		fnegs	s3, s3
 1436 0932 FFEE000A 		fconsts	s1, #240
 1437 0936 B7EE001A 		fconsts	s2, #112
 1438 093a FFF7FEFF 		bl	utils_map
 1439              	.LVL138:
 1440              		.loc 1 296 0
 1441 093e 4FF0000A 		mov	r10, #0
 1442              		.loc 1 347 0
 1443 0942 FFF7FEFF 		bl	mc_interface_set_duty
 1444              	.LVL139:
 1445              		.loc 1 295 0
 1446 0946 5546     		mov	r5, r10
 1447              	.LVL140:
 1448              		.loc 1 348 0
 1449 0948 4FF00108 		mov	r8, #1
 1450              	.LVL141:
 1451 094c 4DE5     		b	.L51
 1452              	.LVL142:
 1453              	.L31:
 1454              		.loc 1 254 0
 1455 094e DDED026A 		flds	s13, [sp, #8]
 1456 0952 B0EE007A 		fconsts	s14, #0
 1457 0956 FFEE007A 		fconsts	s15, #240
 1458 095a E6EE877A 		vfma.f32	s15, s13, s14
 1459 095e CDED027A 		fsts	s15, [sp, #8]
 1460              		.loc 1 255 0
 1461 0962 8BE4     		b	.L29
 1462              	.LVL143:
 1463              	.L227:
 1464              		.loc 1 158 0
 1465 0964 D1ED040A 		flds	s1, [r1, #16]
 1466 0968 91ED031A 		flds	s2, [r1, #12]
 1467 096c F6EE001A 		fconsts	s3, #96
 1468 0970 B7EE002A 		fconsts	s4, #112
 1469 0974 FFF7FEFF 		bl	utils_map
 1470              	.LVL144:
 1471 0978 8DED020A 		fsts	s0, [sp, #8]
 1472 097c FFF7D9BB 		b	.L15
 1473              	.LVL145:
 1474              	.L229:
 1475              		.loc 1 299 0
 1476 0980 4FF00008 		mov	r8, #0
 1477              	.LVL146:
 1478              		.loc 1 296 0
 1479 0984 C246     		mov	r10, r8
 1480              		.loc 1 306 0
 1481 0986 0125     		movs	r5, #1
 1482              	.LVL147:
ARM GAS  /tmp/cc2T4BOZ.s 			page 27


 1483 0988 DFF8BCB0 		ldr	fp, .L252+36
 1484 098c 2DE5     		b	.L51
 1485              	.LVL148:
 1486              	.L232:
 1487              		.loc 1 296 0
 1488 098e 4FF0000A 		mov	r10, #0
 1489              		.loc 1 295 0
 1490 0992 5546     		mov	r5, r10
 1491              	.LVL149:
 1492 0994 29E5     		b	.L51
 1493              	.LVL150:
 1494              	.L147:
 1495              		.loc 1 343 0
 1496 0996 06EE905A 		fmsr	s13, r5	@ int
 1497 099a DFED287A 		flds	s15, .L252+24
 1498 099e DFF8A8B0 		ldr	fp, .L252+36
 1499 09a2 B8EEE67A 		fsitos	s14, s13
 1500 09a6 67EE277A 		fmuls	s15, s14, s15
 1501 09aa 9BED007A 		flds	s14, [fp]
 1502 09ae C7EE887A 		fdivs	s15, s15, s16
 1503 09b2 77EE877A 		fadds	s15, s15, s14
 1504 09b6 CBED007A 		fsts	s15, [fp]
 1505 09ba 71E5     		b	.L58
 1506              	.LVL151:
 1507              	.L146:
 1508              		.loc 1 331 0
 1509 09bc 07EE905A 		fmsr	s15, r5	@ int
 1510 09c0 B8EEE77A 		fsitos	s14, s15
 1511 09c4 DFED1D7A 		flds	s15, .L252+24
 1512 09c8 DFF87CB0 		ldr	fp, .L252+36
 1513 09cc 67EE277A 		fmuls	s15, s14, s15
 1514 09d0 9BED007A 		flds	s14, [fp]
 1515 09d4 C7EE887A 		fdivs	s15, s15, s16
 1516 09d8 77EE877A 		fadds	s15, s15, s14
 1517 09dc CBED007A 		fsts	s15, [fp]
 1518              		.loc 1 334 0
 1519 09e0 2278     		ldrb	r2, [r4]	@ zero_extendqisi2
 1520 09e2 042A     		cmp	r2, #4
 1521 09e4 7FF48DAD 		bne	.L129
 1522              	.L239:
 1523              		.loc 1 334 0 is_stmt 0 discriminator 1
 1524 09e8 B8F1000F 		cmp	r8, #0
 1525 09ec 00F08180 		beq	.L130
 1526              		.loc 1 335 0 is_stmt 1
 1527 09f0 F1EE6AAA 		fnegs	s21, s21
 1528              	.LVL152:
 1529              		.loc 1 299 0
 1530 09f4 4FF00008 		mov	r8, #0
 1531              	.LVL153:
 1532              		.loc 1 322 0
 1533 09f8 0125     		movs	r5, #1
 1534              	.LVL154:
 1535 09fa F6E4     		b	.L51
 1536              	.LVL155:
 1537              	.L235:
 1538              		.loc 1 114 0
 1539 09fc 114A     		ldr	r2, .L252+32
ARM GAS  /tmp/cc2T4BOZ.s 			page 28


 1540 09fe 0023     		movs	r3, #0
 1541 0a00 1370     		strb	r3, [r2]
 1542              	.LBE150:
 1543              		.loc 1 549 0
 1544 0a02 05B0     		add	sp, sp, #20
 1545              		@ sp needed
 1546 0a04 BDEC088B 		fldmfdd	sp!, {d8-d11}
 1547 0a08 BDE8F08F 		pop	{r4, r5, r6, r7, r8, r9, r10, fp, pc}
 1548              	.LVL156:
 1549              	.L62:
 1550              	.LBB151:
 1551              		.loc 1 355 0 discriminator 2
 1552 0a0c F5EEC07A 		fcmpezs	s15
 1553 0a10 F1EE10FA 		fmstat
 1554 0a14 78D4     		bmi	.L246
 1555              	.L65:
 1556              		.loc 1 358 0
 1557 0a16 D7ED1EAA 		flds	s21, [r7, #120]
 1558 0a1a F0EEEAAA 		fabss	s21, s21
 1559 0a1e 67EEAAAA 		fmuls	s21, s15, s21
 1560              	.LVL157:
 1561 0a22 B3E4     		b	.L68
 1562              	.L253:
 1563              		.align	2
 1564              	.L252:
 1565 0a24 00000000 		.word	.LANCHOR18
 1566 0a28 00000000 		.word	0
 1567 0a2c 00000000 		.word	.LANCHOR2
 1568 0a30 00040240 		.word	1073873920
 1569 0a34 00000000 		.word	.LANCHOR14
 1570 0a38 5917B7D1 		.word	-776530087
 1571 0a3c 00007A44 		.word	1148846080
 1572 0a40 00000000 		.word	.LANCHOR13
 1573 0a44 00000000 		.word	.LANCHOR1
 1574 0a48 00000000 		.word	.LANCHOR4
 1575              	.LVL158:
 1576              	.L44:
 1577              		.loc 1 307 0 discriminator 2
 1578 0a4c F5EEC07A 		fcmpezs	s15
 1579 0a50 F1EE10FA 		fmstat
 1580 0a54 5ED4     		bmi	.L247
 1581              	.L47:
 1582              		.loc 1 310 0
 1583 0a56 D7ED1EAA 		flds	s21, [r7, #120]
 1584 0a5a F0EEEAAA 		fabss	s21, s21
 1585 0a5e 67EEAAAA 		fmuls	s21, s15, s21
 1586              	.LVL159:
 1587 0a62 64E5     		b	.L50
 1588              	.LVL160:
 1589              	.L121:
 1590              	.LBB139:
 1591              		.loc 1 544 0
 1592 0a64 B0EE6A0A 		fcpys	s0, s21
 1593 0a68 FFF7FEFF 		bl	mc_interface_set_current
 1594              	.LVL161:
 1595 0a6c FFF7ECBA 		b	.L4
 1596              	.LVL162:
ARM GAS  /tmp/cc2T4BOZ.s 			page 29


 1597              	.L241:
 1598              	.LBE139:
 1599              		.loc 1 484 0
 1600 0a70 B0EE6A0A 		fcpys	s0, s21
 1601 0a74 FFF7FEFF 		bl	mc_interface_set_brake_current
 1602              	.LVL163:
 1603              	.LBB140:
 1604              		.loc 1 487 0
 1605 0a78 0025     		movs	r5, #0
 1606              	.LVL164:
 1607 0a7a 02E0     		b	.L109
 1608              	.LVL165:
 1609              	.L107:
 1610 0a7c 0A2D     		cmp	r5, #10
 1611 0a7e 3FF4E3AA 		beq	.L4
 1612              	.LVL166:
 1613              	.L109:
 1614              	.LBB141:
 1615              		.loc 1 488 0
 1616 0a82 2846     		mov	r0, r5
 1617 0a84 FFF7FEFF 		bl	comm_can_get_status_msg_index
 1618              	.LVL167:
 1619              		.loc 1 490 0
 1620 0a88 0368     		ldr	r3, [r0]
 1621 0a8a 002B     		cmp	r3, #0
 1622              	.LBE141:
 1623              		.loc 1 487 0
 1624 0a8c 05F10105 		add	r5, r5, #1
 1625              	.LVL168:
 1626              	.LBB146:
 1627              		.loc 1 490 0
 1628 0a90 F4DB     		blt	.L107
 1629              	.LBB142:
 1630              	.LBB143:
 1631              		.loc 3 267 0 discriminator 1
 1632 0a92 4268     		ldr	r2, [r0, #4]
 1633              	.LBB144:
 1634              	.LBB145:
 1635              		.loc 3 231 0 discriminator 1
 1636 0a94 B16A     		ldr	r1, [r6, #40]
 1637              	.LBE145:
 1638              	.LBE144:
 1639              		.loc 3 267 0 discriminator 1
 1640 0a96 8A1A     		subs	r2, r1, r2
 1641 0a98 07EE902A 		fmsr	s15, r2	@ int
 1642              	.LBE143:
 1643              	.LBE142:
 1644              		.loc 1 490 0 discriminator 1
 1645 0a9c F8EE677A 		fuitos	s15, s15
 1646 0aa0 C7EE887A 		fdivs	s15, s15, s16
 1647 0aa4 F4EEE87A 		fcmpes	s15, s17
 1648 0aa8 F1EE10FA 		fmstat
 1649 0aac E6D5     		bpl	.L107
 1650              		.loc 1 491 0
 1651 0aae D8B2     		uxtb	r0, r3
 1652              	.LVL169:
 1653 0ab0 B0EE6A0A 		fcpys	s0, s21
ARM GAS  /tmp/cc2T4BOZ.s 			page 30


 1654 0ab4 FFF7FEFF 		bl	comm_can_set_current_brake
 1655              	.LVL170:
 1656 0ab8 E0E7     		b	.L107
 1657              	.LVL171:
 1658              	.L230:
 1659              	.LBE146:
 1660              	.LBE140:
 1661              		.loc 1 326 0
 1662 0aba D7ED1EAA 		flds	s21, [r7, #120]
 1663 0abe 67EEAAAA 		fmuls	s21, s15, s21
 1664              		.loc 1 327 0
 1665 0ac2 4FF0010A 		mov	r10, #1
 1666              		.loc 1 326 0
 1667 0ac6 F0EEEAAA 		fabss	s21, s21
 1668              	.LVL172:
 1669 0aca 0CE5     		b	.L55
 1670              	.LVL173:
 1671              	.L2:
 1672              	.LBE151:
 1673              		.loc 1 98 0
 1674 0acc 2021     		movs	r1, #32
 1675 0ace 0A46     		mov	r2, r1
 1676 0ad0 1F48     		ldr	r0, .L254
 1677              	.LVL174:
 1678 0ad2 FFF7FEFF 		bl	_pal_lld_setgroupmode
 1679              	.LVL175:
 1680 0ad6 FFF7ABBA 		b	.L3
 1681              	.LVL176:
 1682              	.L89:
 1683              	.LBB152:
 1684              		.loc 1 422 0
 1685 0ada B4EE007A 		fconsts	s14, #64
 1686 0ade 67EE877A 		fmuls	s15, s15, s14
 1687              	.LVL177:
 1688              	.LBB147:
 1689              		.loc 1 429 0
 1690 0ae2 1C49     		ldr	r1, .L254+4
 1691              		.loc 1 428 0
 1692 0ae4 0122     		movs	r2, #1
 1693              		.loc 1 429 0
 1694 0ae6 B0EE670A 		fcpys	s0, s15
 1695 0aea C1ED007A 		fsts	s15, [r1]
 1696              		.loc 1 428 0
 1697 0aee 1A70     		strb	r2, [r3]
 1698 0af0 88E5     		b	.L90
 1699              	.LVL178:
 1700              	.L130:
 1701              	.LBE147:
 1702              		.loc 1 322 0
 1703 0af2 0125     		movs	r5, #1
 1704              	.LVL179:
 1705 0af4 79E4     		b	.L51
 1706              	.LVL180:
 1707              	.L242:
 1708              	.LBB148:
 1709              		.loc 1 499 0
 1710 0af6 F1EE6AAA 		fnegs	s21, s21
ARM GAS  /tmp/cc2T4BOZ.s 			page 31


 1711              	.LVL181:
 1712              		.loc 1 501 0
 1713 0afa B1EE4BBA 		fnegs	s22, s22
 1714              	.LVL182:
 1715              		.loc 1 502 0
 1716 0afe B1EE499A 		fnegs	s18, s18
 1717              	.LVL183:
 1718              		.loc 1 498 0
 1719 0b02 4FF0010A 		mov	r10, #1
 1720              	.LVL184:
 1721 0b06 31E6     		b	.L110
 1722              	.LVL185:
 1723              	.L246:
 1724              	.LBE148:
 1725              		.loc 1 355 0 discriminator 1
 1726 0b08 B5EEC00A 		fcmpezs	s0
 1727 0b0c F1EE10FA 		fmstat
 1728 0b10 81D5     		bpl	.L65
 1729 0b12 37E4     		b	.L64
 1730              	.LVL186:
 1731              	.L247:
 1732              		.loc 1 307 0 discriminator 1
 1733 0b14 B5EEC00A 		fcmpezs	s0
 1734 0b18 F1EE10FA 		fmstat
 1735 0b1c 9BD5     		bpl	.L47
 1736 0b1e 02E5     		b	.L46
 1737              	.LVL187:
 1738              	.L245:
 1739              	.LBB149:
 1740              	.LBB127:
 1741              		.loc 1 534 0
 1742 0b20 DFED0D0A 		flds	s1, .L254+8
 1743 0b24 92ED0F1A 		flds	s2, [r2, #60]
 1744 0b28 F0EE6A1A 		fcpys	s3, s21
 1745 0b2c 3BEE490A 		fsubs	s0, s22, s18
 1746              	.LVL188:
 1747 0b30 B0EE602A 		fcpys	s4, s1
 1748 0b34 FFF7FEFF 		bl	utils_map
 1749              	.LVL189:
 1750              		.loc 1 535 0
 1751 0b38 D7ED507A 		flds	s15, [r7, #320]
 1752              		.loc 1 536 0
 1753 0b3c B4EE670A 		fcmps	s0, s15
 1754              		.loc 1 534 0
 1755 0b40 F0EE40AA 		fcpys	s21, s0
 1756              	.LVL190:
 1757              		.loc 1 536 0
 1758 0b44 F1EE10FA 		fmstat
 1759 0b48 48BF     		it	mi
 1760 0b4a F0EE4AAA 		fcpysmi	s21, s20
 1761 0b4e 67E6     		b	.L112
 1762              	.L255:
 1763              		.align	2
 1764              	.L254:
 1765 0b50 00040240 		.word	1073873920
 1766 0b54 00000000 		.word	.LANCHOR19
 1767 0b58 00000000 		.word	0
ARM GAS  /tmp/cc2T4BOZ.s 			page 32


 1768              	.LBE127:
 1769              	.LBE149:
 1770              	.LBE152:
 1771              		.cfi_endproc
 1772              	.LFE263:
 1773              		.size	adc_thread, .-adc_thread
 1774 0b5c AFF30080 		.section	.text.app_adc_configure,"ax",%progbits
 1775              		.align	2
 1776              		.p2align 4,,15
 1777              		.global	app_adc_configure
 1778              		.thumb
 1779              		.thumb_func
 1780              		.type	app_adc_configure, %function
 1781              	app_adc_configure:
 1782              	.LFB256:
 1783              		.loc 1 53 0
 1784              		.cfi_startproc
 1785              		@ args = 0, pretend = 0, frame = 0
 1786              		@ frame_needed = 0, uses_anonymous_args = 0
 1787              	.LVL191:
 1788 0000 08B5     		push	{r3, lr}
 1789              		.cfi_def_cfa_offset 8
 1790              		.cfi_offset 3, -8
 1791              		.cfi_offset 14, -4
 1792              		.loc 1 53 0
 1793 0002 0146     		mov	r1, r0
 1794              		.loc 1 54 0
 1795 0004 4422     		movs	r2, #68
 1796 0006 0348     		ldr	r0, .L257
 1797              	.LVL192:
 1798 0008 FFF7FEFF 		bl	memcpy
 1799              	.LVL193:
 1800              		.loc 1 55 0
 1801 000c 024B     		ldr	r3, .L257+4
 1802 000e 0022     		movs	r2, #0
 1803 0010 1A60     		str	r2, [r3]	@ float
 1804 0012 08BD     		pop	{r3, pc}
 1805              	.L258:
 1806              		.align	2
 1807              	.L257:
 1808 0014 00000000 		.word	.LANCHOR2
 1809 0018 00000000 		.word	.LANCHOR4
 1810              		.cfi_endproc
 1811              	.LFE256:
 1812              		.size	app_adc_configure, .-app_adc_configure
 1813 001c AFF30080 		.section	.text.app_adc_start,"ax",%progbits
 1814              		.align	2
 1815              		.p2align 4,,15
 1816              		.global	app_adc_start
 1817              		.thumb
 1818              		.thumb_func
 1819              		.type	app_adc_start, %function
 1820              	app_adc_start:
 1821              	.LFB257:
 1822              		.loc 1 58 0
 1823              		.cfi_startproc
 1824              		@ args = 0, pretend = 0, frame = 0
ARM GAS  /tmp/cc2T4BOZ.s 			page 33


 1825              		@ frame_needed = 0, uses_anonymous_args = 0
 1826              	.LVL194:
 1827 0000 30B5     		push	{r4, r5, lr}
 1828              		.cfi_def_cfa_offset 12
 1829              		.cfi_offset 4, -12
 1830              		.cfi_offset 5, -8
 1831              		.cfi_offset 14, -4
 1832              		.loc 1 59 0
 1833 0002 084A     		ldr	r2, .L260
 1834              		.loc 1 60 0
 1835 0004 084D     		ldr	r5, .L260+4
 1836              		.loc 1 61 0
 1837 0006 094B     		ldr	r3, .L260+8
 1838              		.loc 1 58 0
 1839 0008 83B0     		sub	sp, sp, #12
 1840              		.cfi_def_cfa_offset 24
 1841              		.loc 1 60 0
 1842 000a 0024     		movs	r4, #0
 1843              		.loc 1 58 0
 1844 000c 0146     		mov	r1, r0
 1845              		.loc 1 61 0
 1846 000e 0094     		str	r4, [sp]
 1847 0010 0748     		ldr	r0, .L260+12
 1848              	.LVL195:
 1849              		.loc 1 59 0
 1850 0012 1170     		strb	r1, [r2]
 1851              		.loc 1 61 0
 1852 0014 4FF4B361 		mov	r1, #1432
 1853 0018 4022     		movs	r2, #64
 1854              		.loc 1 60 0
 1855 001a 2C70     		strb	r4, [r5]
 1856              		.loc 1 61 0
 1857 001c FFF7FEFF 		bl	chThdCreateStatic
 1858              	.LVL196:
 1859              		.loc 1 62 0
 1860 0020 03B0     		add	sp, sp, #12
 1861              		@ sp needed
 1862 0022 30BD     		pop	{r4, r5, pc}
 1863              	.L261:
 1864              		.align	2
 1865              	.L260:
 1866 0024 00000000 		.word	.LANCHOR0
 1867 0028 00000000 		.word	.LANCHOR3
 1868 002c 00000000 		.word	adc_thread
 1869 0030 00000000 		.word	.LANCHOR20
 1870              		.cfi_endproc
 1871              	.LFE257:
 1872              		.size	app_adc_start, .-app_adc_start
 1873 0034 AFF30080 		.section	.text.app_adc_stop,"ax",%progbits
 1873      AFF30080 
 1873      AFF30080 
 1874              		.align	2
 1875              		.p2align 4,,15
 1876              		.global	app_adc_stop
 1877              		.thumb
 1878              		.thumb_func
 1879              		.type	app_adc_stop, %function
ARM GAS  /tmp/cc2T4BOZ.s 			page 34


 1880              	app_adc_stop:
 1881              	.LFB258:
 1882              		.loc 1 64 0
 1883              		.cfi_startproc
 1884              		@ args = 0, pretend = 0, frame = 0
 1885              		@ frame_needed = 0, uses_anonymous_args = 0
 1886              		.loc 1 65 0
 1887 0000 064B     		ldr	r3, .L269
 1888              		.loc 1 64 0
 1889 0002 10B5     		push	{r4, lr}
 1890              		.cfi_def_cfa_offset 8
 1891              		.cfi_offset 4, -8
 1892              		.cfi_offset 14, -4
 1893              		.loc 1 65 0
 1894 0004 0122     		movs	r2, #1
 1895              		.loc 1 66 0
 1896 0006 064C     		ldr	r4, .L269+4
 1897              		.loc 1 65 0
 1898 0008 1A70     		strb	r2, [r3]
 1899              		.loc 1 66 0
 1900 000a 2378     		ldrb	r3, [r4]	@ zero_extendqisi2
 1901 000c 2BB1     		cbz	r3, .L262
 1902              	.L265:
 1903              		.loc 1 67 0
 1904 000e 0A20     		movs	r0, #10
 1905 0010 FFF7FEFF 		bl	chThdSleep
 1906              	.LVL197:
 1907              		.loc 1 66 0
 1908 0014 2378     		ldrb	r3, [r4]	@ zero_extendqisi2
 1909 0016 002B     		cmp	r3, #0
 1910 0018 F9D1     		bne	.L265
 1911              	.L262:
 1912 001a 10BD     		pop	{r4, pc}
 1913              	.L270:
 1914              		.align	2
 1915              	.L269:
 1916 001c 00000000 		.word	.LANCHOR3
 1917 0020 00000000 		.word	.LANCHOR1
 1918              		.cfi_endproc
 1919              	.LFE258:
 1920              		.size	app_adc_stop, .-app_adc_stop
 1921 0024 AFF30080 		.section	.text.app_adc_get_decoded_level,"ax",%progbits
 1921      AFF30080 
 1921      AFF30080 
 1922              		.align	2
 1923              		.p2align 4,,15
 1924              		.global	app_adc_get_decoded_level
 1925              		.thumb
 1926              		.thumb_func
 1927              		.type	app_adc_get_decoded_level, %function
 1928              	app_adc_get_decoded_level:
 1929              	.LFB259:
 1930              		.loc 1 71 0
 1931              		.cfi_startproc
 1932              		@ args = 0, pretend = 0, frame = 0
 1933              		@ frame_needed = 0, uses_anonymous_args = 0
 1934              		@ link register save eliminated.
ARM GAS  /tmp/cc2T4BOZ.s 			page 35


 1935              		.loc 1 72 0
 1936 0000 014B     		ldr	r3, .L272
 1937 0002 93ED000A 		flds	s0, [r3]
 1938              		.loc 1 73 0
 1939 0006 7047     		bx	lr
 1940              	.L273:
 1941              		.align	2
 1942              	.L272:
 1943 0008 00000000 		.word	.LANCHOR8
 1944              		.cfi_endproc
 1945              	.LFE259:
 1946              		.size	app_adc_get_decoded_level, .-app_adc_get_decoded_level
 1947 000c AFF30080 		.section	.text.app_adc_get_voltage,"ax",%progbits
 1948              		.align	2
 1949              		.p2align 4,,15
 1950              		.global	app_adc_get_voltage
 1951              		.thumb
 1952              		.thumb_func
 1953              		.type	app_adc_get_voltage, %function
 1954              	app_adc_get_voltage:
 1955              	.LFB260:
 1956              		.loc 1 75 0
 1957              		.cfi_startproc
 1958              		@ args = 0, pretend = 0, frame = 0
 1959              		@ frame_needed = 0, uses_anonymous_args = 0
 1960              		@ link register save eliminated.
 1961              		.loc 1 76 0
 1962 0000 014B     		ldr	r3, .L275
 1963 0002 93ED000A 		flds	s0, [r3]
 1964              		.loc 1 77 0
 1965 0006 7047     		bx	lr
 1966              	.L276:
 1967              		.align	2
 1968              	.L275:
 1969 0008 00000000 		.word	.LANCHOR5
 1970              		.cfi_endproc
 1971              	.LFE260:
 1972              		.size	app_adc_get_voltage, .-app_adc_get_voltage
 1973 000c AFF30080 		.section	.text.app_adc_get_decoded_level2,"ax",%progbits
 1974              		.align	2
 1975              		.p2align 4,,15
 1976              		.global	app_adc_get_decoded_level2
 1977              		.thumb
 1978              		.thumb_func
 1979              		.type	app_adc_get_decoded_level2, %function
 1980              	app_adc_get_decoded_level2:
 1981              	.LFB261:
 1982              		.loc 1 79 0
 1983              		.cfi_startproc
 1984              		@ args = 0, pretend = 0, frame = 0
 1985              		@ frame_needed = 0, uses_anonymous_args = 0
 1986              		@ link register save eliminated.
 1987              		.loc 1 80 0
 1988 0000 014B     		ldr	r3, .L278
 1989 0002 93ED000A 		flds	s0, [r3]
 1990              		.loc 1 81 0
 1991 0006 7047     		bx	lr
ARM GAS  /tmp/cc2T4BOZ.s 			page 36


 1992              	.L279:
 1993              		.align	2
 1994              	.L278:
 1995 0008 00000000 		.word	.LANCHOR12
 1996              		.cfi_endproc
 1997              	.LFE261:
 1998              		.size	app_adc_get_decoded_level2, .-app_adc_get_decoded_level2
 1999 000c AFF30080 		.section	.text.app_adc_get_voltage2,"ax",%progbits
 2000              		.align	2
 2001              		.p2align 4,,15
 2002              		.global	app_adc_get_voltage2
 2003              		.thumb
 2004              		.thumb_func
 2005              		.type	app_adc_get_voltage2, %function
 2006              	app_adc_get_voltage2:
 2007              	.LFB262:
 2008              		.loc 1 83 0
 2009              		.cfi_startproc
 2010              		@ args = 0, pretend = 0, frame = 0
 2011              		@ frame_needed = 0, uses_anonymous_args = 0
 2012              		@ link register save eliminated.
 2013              		.loc 1 84 0
 2014 0000 014B     		ldr	r3, .L281
 2015 0002 93ED000A 		flds	s0, [r3]
 2016              		.loc 1 85 0
 2017 0006 7047     		bx	lr
 2018              	.L282:
 2019              		.align	2
 2020              	.L281:
 2021 0008 00000000 		.word	.LANCHOR9
 2022              		.cfi_endproc
 2023              	.LFE262:
 2024              		.size	app_adc_get_voltage2, .-app_adc_get_voltage2
 2025 000c AFF30080 		.section	.bss.filter_ptr.10188,"aw",%nobits
 2026              		.align	2
 2027              		.set	.LANCHOR16,. + 0
 2028              		.type	filter_ptr.10188, %object
 2029              		.size	filter_ptr.10188, 4
 2030              	filter_ptr.10188:
 2031 0000 00000000 		.space	4
 2032              		.section	.bss.is_running,"aw",%nobits
 2033              		.set	.LANCHOR1,. + 0
 2034              		.type	is_running, %object
 2035              		.size	is_running, 1
 2036              	is_running:
 2037 0000 00       		.space	1
 2038              		.section	.bss.read_voltage2,"aw",%nobits
 2039              		.align	2
 2040              		.set	.LANCHOR9,. + 0
 2041              		.type	read_voltage2, %object
 2042              		.size	read_voltage2, 4
 2043              	read_voltage2:
 2044 0000 00000000 		.space	4
 2045              		.section	.bss.filter_buffer.10187,"aw",%nobits
 2046              		.align	2
 2047              		.set	.LANCHOR17,. + 0
 2048              		.type	filter_buffer.10187, %object
ARM GAS  /tmp/cc2T4BOZ.s 			page 37


 2049              		.size	filter_buffer.10187, 32
 2050              	filter_buffer.10187:
 2051 0000 00000000 		.space	32
 2051      00000000 
 2051      00000000 
 2051      00000000 
 2051      00000000 
 2052              		.section	.bss.read_voltage,"aw",%nobits
 2053              		.align	2
 2054              		.set	.LANCHOR5,. + 0
 2055              		.type	read_voltage, %object
 2056              		.size	read_voltage, 4
 2057              	read_voltage:
 2058 0000 00000000 		.space	4
 2059              		.section	.bss.pwr_ramp.10154,"aw",%nobits
 2060              		.align	2
 2061              		.set	.LANCHOR13,. + 0
 2062              		.type	pwr_ramp.10154, %object
 2063              		.size	pwr_ramp.10154, 4
 2064              	pwr_ramp.10154:
 2065 0000 00000000 		.space	4
 2066              		.section	.bss.filter_ptr2.10134,"aw",%nobits
 2067              		.align	2
 2068              		.set	.LANCHOR10,. + 0
 2069              		.type	filter_ptr2.10134, %object
 2070              		.size	filter_ptr2.10134, 4
 2071              	filter_ptr2.10134:
 2072 0000 00000000 		.space	4
 2073              		.section	.bss.pulses_without_power_before.10180,"aw",%nobits
 2074              		.align	2
 2075              		.set	.LANCHOR15,. + 0
 2076              		.type	pulses_without_power_before.10180, %object
 2077              		.size	pulses_without_power_before.10180, 4
 2078              	pulses_without_power_before.10180:
 2079 0000 00000000 		.space	4
 2080              		.section	.bss.was_pid.10186,"aw",%nobits
 2081              		.set	.LANCHOR18,. + 0
 2082              		.type	was_pid.10186, %object
 2083              		.size	was_pid.10186, 1
 2084              	was_pid.10186:
 2085 0000 00       		.space	1
 2086              		.section	.bss.ms_without_power,"aw",%nobits
 2087              		.align	2
 2088              		.set	.LANCHOR4,. + 0
 2089              		.type	ms_without_power, %object
 2090              		.size	ms_without_power, 4
 2091              	ms_without_power:
 2092 0000 00000000 		.space	4
 2093              		.section	.bss.pid_rpm.10194,"aw",%nobits
 2094              		.align	2
 2095              		.set	.LANCHOR19,. + 0
 2096              		.type	pid_rpm.10194, %object
 2097              		.size	pid_rpm.10194, 4
 2098              	pid_rpm.10194:
 2099 0000 00000000 		.space	4
 2100              		.section	.bss.decoded_level2,"aw",%nobits
 2101              		.align	2
ARM GAS  /tmp/cc2T4BOZ.s 			page 38


 2102              		.set	.LANCHOR12,. + 0
 2103              		.type	decoded_level2, %object
 2104              		.size	decoded_level2, 4
 2105              	decoded_level2:
 2106 0000 00000000 		.space	4
 2107              		.section	.rodata.str1.4,"aMS",%progbits,1
 2108              		.align	2
 2109              	.LC0:
 2110 0000 4150505F 		.ascii	"APP_ADC\000"
 2110      41444300 
 2111              		.section	.bss.filter_buffer2.10133,"aw",%nobits
 2112              		.align	2
 2113              		.set	.LANCHOR11,. + 0
 2114              		.type	filter_buffer2.10133, %object
 2115              		.size	filter_buffer2.10133, 20
 2116              	filter_buffer2.10133:
 2117 0000 00000000 		.space	20
 2117      00000000 
 2117      00000000 
 2117      00000000 
 2117      00000000 
 2118              		.section	.bss.config,"aw",%nobits
 2119              		.align	2
 2120              		.set	.LANCHOR2,. + 0
 2121              		.type	config, %object
 2122              		.size	config, 68
 2123              	config:
 2124 0000 00000000 		.space	68
 2124      00000000 
 2124      00000000 
 2124      00000000 
 2124      00000000 
 2125              		.section	.bss.use_rx_tx_as_buttons,"aw",%nobits
 2126              		.set	.LANCHOR0,. + 0
 2127              		.type	use_rx_tx_as_buttons, %object
 2128              		.size	use_rx_tx_as_buttons, 1
 2129              	use_rx_tx_as_buttons:
 2130 0000 00       		.space	1
 2131              		.section	.bss.filter_ptr.10121,"aw",%nobits
 2132              		.align	2
 2133              		.set	.LANCHOR6,. + 0
 2134              		.type	filter_ptr.10121, %object
 2135              		.size	filter_ptr.10121, 4
 2136              	filter_ptr.10121:
 2137 0000 00000000 		.space	4
 2138              		.section	.data.stop_now,"aw",%progbits
 2139              		.set	.LANCHOR3,. + 0
 2140              		.type	stop_now, %object
 2141              		.size	stop_now, 1
 2142              	stop_now:
 2143 0000 01       		.byte	1
 2144              		.section	.bss.last_time.10153,"aw",%nobits
 2145              		.align	2
 2146              		.set	.LANCHOR14,. + 0
 2147              		.type	last_time.10153, %object
 2148              		.size	last_time.10153, 4
 2149              	last_time.10153:
ARM GAS  /tmp/cc2T4BOZ.s 			page 39


 2150 0000 00000000 		.space	4
 2151              		.section	.bss.filter_buffer.10120,"aw",%nobits
 2152              		.align	2
 2153              		.set	.LANCHOR7,. + 0
 2154              		.type	filter_buffer.10120, %object
 2155              		.size	filter_buffer.10120, 20
 2156              	filter_buffer.10120:
 2157 0000 00000000 		.space	20
 2157      00000000 
 2157      00000000 
 2157      00000000 
 2157      00000000 
 2158              		.section	.bss.decoded_level,"aw",%nobits
 2159              		.align	2
 2160              		.set	.LANCHOR8,. + 0
 2161              		.type	decoded_level, %object
 2162              		.size	decoded_level, 4
 2163              	decoded_level:
 2164 0000 00000000 		.space	4
 2165              		.section	.bss.adc_thread_wa,"aw",%nobits
 2166              		.align	3
 2167              		.set	.LANCHOR20,. + 0
 2168              		.type	adc_thread_wa, %object
 2169              		.size	adc_thread_wa, 1432
 2170              	adc_thread_wa:
 2171 0000 00000000 		.space	1432
 2171      00000000 
 2171      00000000 
 2171      00000000 
 2171      00000000 
 2172              		.text
 2173              	.Letext0:
 2174              		.file 4 "/usr/include/newlib/machine/_default_types.h"
 2175              		.file 5 "/usr/include/newlib/stdint.h"
 2176              		.file 6 "/usr/lib/gcc/arm-none-eabi/4.8/include/stddef.h"
 2177              		.file 7 "ChibiOS_3.0.2/os/rt/ports/ARMCMx/compilers/GCC/chtypes.h"
 2178              		.file 8 "ChibiOS_3.0.2/os/rt/include/chsystypes.h"
 2179              		.file 9 "ChibiOS_3.0.2/os/rt/include/chschd.h"
 2180              		.file 10 "ChibiOS_3.0.2/os/rt/ports/ARMCMx/chcore.h"
 2181              		.file 11 "ChibiOS_3.0.2/os/rt/ports/ARMCMx/chcore_v7m.h"
 2182              		.file 12 "ChibiOS_3.0.2/os/rt/include/chtm.h"
 2183              		.file 13 "ChibiOS_3.0.2/os/rt/include/chsem.h"
 2184              		.file 14 "ChibiOS_3.0.2/os/rt/include/chmtx.h"
 2185              		.file 15 "ChibiOS_3.0.2/os/rt/include/chthreads.h"
 2186              		.file 16 "./datatypes.h"
 2187              		.file 17 "ChibiOS_3.0.2/os/hal/ports/STM32/LLD/GPIOv2/pal_lld.h"
 2188              		.file 18 "ChibiOS_3.0.2/os/ext/CMSIS/include/core_cm4.h"
 2189              		.file 19 "./mc_interface.h"
 2190              		.file 20 "./timeout.h"
 2191              		.file 21 "./comm_can.h"
 2192              		.file 22 "./utils.h"