ARM GAS  /tmp/ccy4nYnm.s 			page 1


   1              		.syntax unified
   2              		.cpu cortex-m4
   3              		.eabi_attribute 27, 3
   4              		.eabi_attribute 28, 1
   5              		.fpu fpv4-sp-d16
   6              		.eabi_attribute 20, 1
   7              		.eabi_attribute 21, 1
   8              		.eabi_attribute 23, 3
   9              		.eabi_attribute 24, 1
  10              		.eabi_attribute 25, 1
  11              		.eabi_attribute 26, 1
  12              		.eabi_attribute 30, 2
  13              		.eabi_attribute 34, 1
  14              		.eabi_attribute 18, 4
  15              		.thumb
  16              		.file	"app_uartcomm.c"
  17              		.text
  18              	.Ltext0:
  19              		.cfi_sections	.debug_frame
  20              		.section	.text.txend1,"ax",%progbits
  21              		.align	2
  22              		.p2align 4,,15
  23              		.thumb
  24              		.thumb_func
  25              		.type	txend1, %function
  26              	txend1:
  27              	.LFB256:
  28              		.file 1 "applications/app_uartcomm.c"
  29              		.loc 1 54 0
  30              		.cfi_startproc
  31              		@ args = 0, pretend = 0, frame = 0
  32              		@ frame_needed = 0, uses_anonymous_args = 0
  33              		@ link register save eliminated.
  34              	.LVL0:
  35 0000 7047     		bx	lr
  36              		.cfi_endproc
  37              	.LFE256:
  38              		.size	txend1, .-txend1
  39 0002 00BFAFF3 		.section	.text.txend2,"ax",%progbits
  39      0080AFF3 
  39      0080AFF3 
  39      0080
  40              		.align	2
  41              		.p2align 4,,15
  42              		.thumb
  43              		.thumb_func
  44              		.type	txend2, %function
  45              	txend2:
  46              	.LFB257:
  47              		.loc 1 61 0
  48              		.cfi_startproc
  49              		@ args = 0, pretend = 0, frame = 0
  50              		@ frame_needed = 0, uses_anonymous_args = 0
  51              		@ link register save eliminated.
  52              	.LVL1:
  53 0000 7047     		bx	lr
  54              		.cfi_endproc
ARM GAS  /tmp/ccy4nYnm.s 			page 2


  55              	.LFE257:
  56              		.size	txend2, .-txend2
  57 0002 00BFAFF3 		.section	.text.rxerr,"ax",%progbits
  57      0080AFF3 
  57      0080AFF3 
  57      0080
  58              		.align	2
  59              		.p2align 4,,15
  60              		.thumb
  61              		.thumb_func
  62              		.type	rxerr, %function
  63              	rxerr:
  64              	.LFB258:
  65              		.loc 1 69 0
  66              		.cfi_startproc
  67              		@ args = 0, pretend = 0, frame = 0
  68              		@ frame_needed = 0, uses_anonymous_args = 0
  69              		@ link register save eliminated.
  70              	.LVL2:
  71 0000 7047     		bx	lr
  72              		.cfi_endproc
  73              	.LFE258:
  74              		.size	rxerr, .-rxerr
  75 0002 00BFAFF3 		.section	.text.rxend,"ax",%progbits
  75      0080AFF3 
  75      0080AFF3 
  75      0080
  76              		.align	2
  77              		.p2align 4,,15
  78              		.thumb
  79              		.thumb_func
  80              		.type	rxend, %function
  81              	rxend:
  82              	.LFB260:
  83              		.loc 1 94 0
  84              		.cfi_startproc
  85              		@ args = 0, pretend = 0, frame = 0
  86              		@ frame_needed = 0, uses_anonymous_args = 0
  87              		@ link register save eliminated.
  88              	.LVL3:
  89 0000 7047     		bx	lr
  90              		.cfi_endproc
  91              	.LFE260:
  92              		.size	rxend, .-rxend
  93 0002 00BFAFF3 		.section	.text.rxchar,"ax",%progbits
  93      0080AFF3 
  93      0080AFF3 
  93      0080
  94              		.align	2
  95              		.p2align 4,,15
  96              		.thumb
  97              		.thumb_func
  98              		.type	rxchar, %function
  99              	rxchar:
 100              	.LFB259:
 101              		.loc 1 78 0
 102              		.cfi_startproc
ARM GAS  /tmp/ccy4nYnm.s 			page 3


 103              		@ args = 0, pretend = 0, frame = 0
 104              		@ frame_needed = 0, uses_anonymous_args = 0
 105              	.LVL4:
 106              		.loc 1 80 0
 107 0000 0B4B     		ldr	r3, .L7
 108 0002 1868     		ldr	r0, [r3]
 109              	.LVL5:
 110 0004 421C     		adds	r2, r0, #1
 111              		.loc 1 78 0
 112 0006 10B5     		push	{r4, lr}
 113              		.cfi_def_cfa_offset 8
 114              		.cfi_offset 4, -8
 115              		.cfi_offset 14, -4
 116              		.loc 1 82 0
 117 0008 B2F5806F 		cmp	r2, #1024
 118              		.loc 1 80 0
 119 000c 094C     		ldr	r4, .L7+4
 120 000e 1A60     		str	r2, [r3]
 121              		.loc 1 83 0
 122 0010 04BF     		itt	eq
 123 0012 0022     		moveq	r2, #0
 124 0014 1A60     		streq	r2, [r3]
 125              		.loc 1 80 0
 126 0016 2154     		strb	r1, [r4, r0]
 127              	.LBB40:
 128              	.LBB41:
 129              	.LBB42:
 130              	.LBB43:
 131              	.LBB44:
 132              		.file 2 "ChibiOS_3.0.2/os/ext/CMSIS/include/core_cmFunc.h"
 133              		.loc 2 546 0
 134 0018 2023     		movs	r3, #32
 135              	@ 546 "ChibiOS_3.0.2/os/ext/CMSIS/include/core_cmFunc.h" 1
 136 001a 83F31188 		MSR basepri, r3
 137              	@ 0 "" 2
 138              		.thumb
 139              	.LBE44:
 140              	.LBE43:
 141              	.LBE42:
 142              	.LBE41:
 143              	.LBE40:
 144              		.loc 1 87 0
 145 001e 064B     		ldr	r3, .L7+8
 146 0020 0121     		movs	r1, #1
 147              	.LVL6:
 148 0022 1868     		ldr	r0, [r3]
 149 0024 FFF7FEFF 		bl	chEvtSignalI
 150              	.LVL7:
 151              	.LBB45:
 152              	.LBB46:
 153              	.LBB47:
 154              	.LBB48:
 155              	.LBB49:
 156              		.loc 2 546 0
 157 0028 0023     		movs	r3, #0
 158              	@ 546 "ChibiOS_3.0.2/os/ext/CMSIS/include/core_cmFunc.h" 1
 159 002a 83F31188 		MSR basepri, r3
ARM GAS  /tmp/ccy4nYnm.s 			page 4


 160              	@ 0 "" 2
 161              		.thumb
 162 002e 10BD     		pop	{r4, pc}
 163              	.L8:
 164              		.align	2
 165              	.L7:
 166 0030 00000000 		.word	.LANCHOR0
 167 0034 00000000 		.word	.LANCHOR1
 168 0038 00000000 		.word	.LANCHOR2
 169              	.LBE49:
 170              	.LBE48:
 171              	.LBE47:
 172              	.LBE46:
 173              	.LBE45:
 174              		.cfi_endproc
 175              	.LFE259:
 176              		.size	rxchar, .-rxchar
 177 003c AFF30080 		.section	.text.packet_process_thread,"ax",%progbits
 178              		.align	2
 179              		.p2align 4,,15
 180              		.thumb
 181              		.thumb_func
 182              		.type	packet_process_thread, %function
 183              	packet_process_thread:
 184              	.LFB267:
 185              		.loc 1 172 0
 186              		.cfi_startproc
 187              		@ args = 0, pretend = 0, frame = 0
 188              		@ frame_needed = 0, uses_anonymous_args = 0
 189              	.LVL8:
 190 0000 2DE9F843 		push	{r3, r4, r5, r6, r7, r8, r9, lr}
 191              		.cfi_def_cfa_offset 32
 192              		.cfi_offset 3, -32
 193              		.cfi_offset 4, -28
 194              		.cfi_offset 5, -24
 195              		.cfi_offset 6, -20
 196              		.cfi_offset 7, -16
 197              		.cfi_offset 8, -12
 198              		.cfi_offset 9, -8
 199              		.cfi_offset 14, -4
 200              	.LBB50:
 201              	.LBB51:
 202              		.file 3 "ChibiOS_3.0.2/os/rt/include/chregistry.h"
 203              		.loc 3 135 0
 204 0004 114B     		ldr	r3, .L16
 205              	.LBE51:
 206              	.LBE50:
 207              		.loc 1 177 0
 208 0006 124A     		ldr	r2, .L16+4
 209              	.LBB53:
 210              	.LBB52:
 211              		.loc 3 135 0
 212 0008 9B69     		ldr	r3, [r3, #24]
 213 000a 124C     		ldr	r4, .L16+8
 214 000c 1249     		ldr	r1, .L16+12
 215 000e 134E     		ldr	r6, .L16+16
 216 0010 DFF84C90 		ldr	r9, .L16+20
ARM GAS  /tmp/ccy4nYnm.s 			page 5


 217 0014 9961     		str	r1, [r3, #24]
 218              	.LBE52:
 219              	.LBE53:
 220              		.loc 1 177 0
 221 0016 1360     		str	r3, [r2]
 222              		.loc 1 183 0
 223 0018 A046     		mov	r8, r4
 224              	.LVL9:
 225              	.L14:
 226              		.loc 1 180 0
 227 001a 0120     		movs	r0, #1
 228 001c FFF7FEFF 		bl	chEvtWaitAny
 229              	.LVL10:
 230              		.loc 1 186 0
 231 0020 0027     		movs	r7, #0
 232              	.L10:
 233 0022 2368     		ldr	r3, [r4]
 234              	.L12:
 235              		.loc 1 182 0 discriminator 1
 236 0024 D9F80020 		ldr	r2, [r9]
 237 0028 9A42     		cmp	r2, r3
 238              		.loc 1 183 0 discriminator 1
 239 002a 03F10105 		add	r5, r3, #1
 240 002e 4FF00101 		mov	r1, #1
 241              		.loc 1 182 0 discriminator 1
 242 0032 F2D0     		beq	.L14
 243              		.loc 1 183 0
 244 0034 F05C     		ldrb	r0, [r6, r3]	@ zero_extendqisi2
 245 0036 2560     		str	r5, [r4]
 246 0038 FFF7FEFF 		bl	packet_process_byte
 247              	.LVL11:
 248              		.loc 1 185 0
 249 003c 2368     		ldr	r3, [r4]
 250 003e B3F5806F 		cmp	r3, #1024
 251 0042 EFD1     		bne	.L12
 252              		.loc 1 186 0
 253 0044 C8F80070 		str	r7, [r8]
 254 0048 EBE7     		b	.L10
 255              	.L17:
 256 004a 00BF     		.align	2
 257              	.L16:
 258 004c 00000000 		.word	ch
 259 0050 00000000 		.word	.LANCHOR2
 260 0054 00000000 		.word	.LANCHOR3
 261 0058 00000000 		.word	.LC0
 262 005c 00000000 		.word	.LANCHOR1
 263 0060 00000000 		.word	.LANCHOR0
 264              		.cfi_endproc
 265              	.LFE267:
 266              		.size	packet_process_thread, .-packet_process_thread
 267 0064 AFF30080 		.section	.text.process_packet,"ax",%progbits
 267      AFF30080 
 267      AFF30080 
 268              		.align	2
 269              		.p2align 4,,15
 270              		.thumb
 271              		.thumb_func
ARM GAS  /tmp/ccy4nYnm.s 			page 6


 272              		.type	process_packet, %function
 273              	process_packet:
 274              	.LFB261:
 275              		.loc 1 113 0
 276              		.cfi_startproc
 277              		@ args = 0, pretend = 0, frame = 0
 278              		@ frame_needed = 0, uses_anonymous_args = 0
 279              	.LVL12:
 280 0000 38B5     		push	{r3, r4, r5, lr}
 281              		.cfi_def_cfa_offset 16
 282              		.cfi_offset 3, -16
 283              		.cfi_offset 4, -12
 284              		.cfi_offset 5, -8
 285              		.cfi_offset 14, -4
 286              		.loc 1 113 0
 287 0002 0446     		mov	r4, r0
 288 0004 0D46     		mov	r5, r1
 289              		.loc 1 114 0
 290 0006 0448     		ldr	r0, .L19
 291              	.LVL13:
 292 0008 FFF7FEFF 		bl	commands_set_send_func
 293              	.LVL14:
 294              		.loc 1 115 0
 295 000c 2046     		mov	r0, r4
 296 000e 2946     		mov	r1, r5
 297              		.loc 1 116 0
 298 0010 BDE83840 		pop	{r3, r4, r5, lr}
 299              	.LVL15:
 300              		.loc 1 115 0
 301 0014 FFF7FEBF 		b	commands_process_packet
 302              	.LVL16:
 303              	.L20:
 304              		.align	2
 305              	.L19:
 306 0018 00000000 		.word	send_packet_wrapper
 307              		.cfi_endproc
 308              	.LFE261:
 309              		.size	process_packet, .-process_packet
 310 001c AFF30080 		.section	.text.send_packet_wrapper,"ax",%progbits
 311              		.align	2
 312              		.p2align 4,,15
 313              		.thumb
 314              		.thumb_func
 315              		.type	send_packet_wrapper, %function
 316              	send_packet_wrapper:
 317              	.LFB262:
 318              		.loc 1 118 0
 319              		.cfi_startproc
 320              		@ args = 0, pretend = 0, frame = 0
 321              		@ frame_needed = 0, uses_anonymous_args = 0
 322              		@ link register save eliminated.
 323              	.LVL17:
 324              		.loc 1 119 0
 325 0000 0122     		movs	r2, #1
 326 0002 FFF7FEBF 		b	packet_send_packet
 327              	.LVL18:
 328              		.cfi_endproc
ARM GAS  /tmp/ccy4nYnm.s 			page 7


 329              	.LFE262:
 330              		.size	send_packet_wrapper, .-send_packet_wrapper
 331 0006 00BFAFF3 		.section	.text.send_packet,"ax",%progbits
 331      0080AFF3 
 331      0080
 332              		.align	2
 333              		.p2align 4,,15
 334              		.thumb
 335              		.thumb_func
 336              		.type	send_packet, %function
 337              	send_packet:
 338              	.LFB263:
 339              		.loc 1 122 0
 340              		.cfi_startproc
 341              		@ args = 0, pretend = 0, frame = 0
 342              		@ frame_needed = 0, uses_anonymous_args = 0
 343              	.LVL19:
 344 0000 70B5     		push	{r4, r5, r6, lr}
 345              		.cfi_def_cfa_offset 16
 346              		.cfi_offset 4, -16
 347              		.cfi_offset 5, -12
 348              		.cfi_offset 6, -8
 349              		.cfi_offset 14, -4
 350              		.loc 1 124 0
 351 0002 0C4C     		ldr	r4, .L26
 352 0004 6378     		ldrb	r3, [r4, #1]	@ zero_extendqisi2
 353 0006 012B     		cmp	r3, #1
 354              		.loc 1 122 0
 355 0008 0646     		mov	r6, r0
 356 000a 0D46     		mov	r5, r1
 357              		.loc 1 124 0
 358 000c 05D1     		bne	.L24
 359              	.LVL20:
 360              	.L25:
 361              		.loc 1 125 0
 362 000e 0120     		movs	r0, #1
 363 0010 FFF7FEFF 		bl	chThdSleep
 364              	.LVL21:
 365              		.loc 1 124 0
 366 0014 6378     		ldrb	r3, [r4, #1]	@ zero_extendqisi2
 367 0016 012B     		cmp	r3, #1
 368 0018 F9D0     		beq	.L25
 369              	.L24:
 370              		.loc 1 131 0
 371 001a 3146     		mov	r1, r6
 372 001c 2A46     		mov	r2, r5
 373 001e 0648     		ldr	r0, .L26+4
 374 0020 FFF7FEFF 		bl	memcpy
 375              	.LVL22:
 376              		.loc 1 133 0
 377 0024 2946     		mov	r1, r5
 378 0026 0348     		ldr	r0, .L26
 379 0028 034A     		ldr	r2, .L26+4
 380              		.loc 1 134 0
 381 002a BDE87040 		pop	{r4, r5, r6, lr}
 382              	.LVL23:
 383              		.loc 1 133 0
ARM GAS  /tmp/ccy4nYnm.s 			page 8


 384 002e FFF7FEBF 		b	uartStartSend
 385              	.LVL24:
 386              	.L27:
 387 0032 00BF     		.align	2
 388              	.L26:
 389 0034 00000000 		.word	UARTD6
 390 0038 00000000 		.word	.LANCHOR4
 391              		.cfi_endproc
 392              	.LFE263:
 393              		.size	send_packet, .-send_packet
 394 003c AFF30080 		.section	.text.app_uartcomm_start,"ax",%progbits
 395              		.align	2
 396              		.p2align 4,,15
 397              		.global	app_uartcomm_start
 398              		.thumb
 399              		.thumb_func
 400              		.type	app_uartcomm_start, %function
 401              	app_uartcomm_start:
 402              	.LFB264:
 403              		.loc 1 136 0
 404              		.cfi_startproc
 405              		@ args = 0, pretend = 0, frame = 0
 406              		@ frame_needed = 0, uses_anonymous_args = 0
 407 0000 30B5     		push	{r4, r5, lr}
 408              		.cfi_def_cfa_offset 12
 409              		.cfi_offset 4, -12
 410              		.cfi_offset 5, -8
 411              		.cfi_offset 14, -4
 412              		.loc 1 141 0
 413 0002 164C     		ldr	r4, .L30
 414              		.loc 1 137 0
 415 0004 1648     		ldr	r0, .L30+4
 416 0006 1749     		ldr	r1, .L30+8
 417 0008 0122     		movs	r2, #1
 418              		.loc 1 136 0
 419 000a 83B0     		sub	sp, sp, #12
 420              		.cfi_def_cfa_offset 24
 421              		.loc 1 137 0
 422 000c FFF7FEFF 		bl	packet_init
 423              	.LVL25:
 424              		.loc 1 141 0
 425 0010 2378     		ldrb	r3, [r4]	@ zero_extendqisi2
 426              		.loc 1 138 0
 427 0012 1548     		ldr	r0, .L30+12
 428              		.loc 1 139 0
 429 0014 1549     		ldr	r1, .L30+16
 430              		.loc 1 138 0
 431 0016 0022     		movs	r2, #0
 432              		.loc 1 141 0
 433 0018 03F0FF05 		and	r5, r3, #255
 434              		.loc 1 138 0
 435 001c 0260     		str	r2, [r0]
 436              		.loc 1 139 0
 437 001e 0A60     		str	r2, [r1]
 438              		.loc 1 141 0
 439 0020 4BB9     		cbnz	r3, .L29
 440              		.loc 1 142 0
ARM GAS  /tmp/ccy4nYnm.s 			page 9


 441 0022 134B     		ldr	r3, .L30+20
 442 0024 0095     		str	r5, [sp]
 443 0026 1348     		ldr	r0, .L30+24
 444 0028 41F29811 		movw	r1, #4504
 445 002c 4022     		movs	r2, #64
 446 002e FFF7FEFF 		bl	chThdCreateStatic
 447              	.LVL26:
 448              		.loc 1 144 0
 449 0032 0123     		movs	r3, #1
 450 0034 2370     		strb	r3, [r4]
 451              	.L29:
 452              		.loc 1 147 0
 453 0036 1048     		ldr	r0, .L30+28
 454 0038 1049     		ldr	r1, .L30+32
 455 003a FFF7FEFF 		bl	uartStart
 456              	.LVL27:
 457              		.loc 1 148 0
 458 003e 1048     		ldr	r0, .L30+36
 459 0040 4021     		movs	r1, #64
 460 0042 40F23A42 		movw	r2, #1082
 461 0046 FFF7FEFF 		bl	_pal_lld_setgroupmode
 462              	.LVL28:
 463              		.loc 1 151 0
 464 004a 0D48     		ldr	r0, .L30+36
 465 004c 8021     		movs	r1, #128
 466 004e 40F23A42 		movw	r2, #1082
 467              		.loc 1 154 0
 468 0052 03B0     		add	sp, sp, #12
 469              		@ sp needed
 470 0054 BDE83040 		pop	{r4, r5, lr}
 471              		.loc 1 151 0
 472 0058 FFF7FEBF 		b	_pal_lld_setgroupmode
 473              	.LVL29:
 474              	.L31:
 475              		.align	2
 476              	.L30:
 477 005c 00000000 		.word	.LANCHOR5
 478 0060 00000000 		.word	send_packet
 479 0064 00000000 		.word	process_packet
 480 0068 00000000 		.word	.LANCHOR3
 481 006c 00000000 		.word	.LANCHOR0
 482 0070 00000000 		.word	packet_process_thread
 483 0074 00000000 		.word	.LANCHOR6
 484 0078 00000000 		.word	UARTD6
 485 007c 00000000 		.word	.LANCHOR7
 486 0080 00080240 		.word	1073874944
 487              		.cfi_endproc
 488              	.LFE264:
 489              		.size	app_uartcomm_start, .-app_uartcomm_start
 490 0084 AFF30080 		.section	.text.app_uartcomm_stop,"ax",%progbits
 490      AFF30080 
 490      AFF30080 
 491              		.align	2
 492              		.p2align 4,,15
 493              		.global	app_uartcomm_stop
 494              		.thumb
 495              		.thumb_func
ARM GAS  /tmp/ccy4nYnm.s 			page 10


 496              		.type	app_uartcomm_stop, %function
 497              	app_uartcomm_stop:
 498              	.LFB265:
 499              		.loc 1 156 0
 500              		.cfi_startproc
 501              		@ args = 0, pretend = 0, frame = 0
 502              		@ frame_needed = 0, uses_anonymous_args = 0
 503 0000 10B5     		push	{r4, lr}
 504              		.cfi_def_cfa_offset 8
 505              		.cfi_offset 4, -8
 506              		.cfi_offset 14, -4
 507              		.loc 1 158 0
 508 0002 084C     		ldr	r4, .L33
 509              		.loc 1 157 0
 510 0004 0848     		ldr	r0, .L33+4
 511 0006 FFF7FEFF 		bl	uartStop
 512              	.LVL30:
 513              		.loc 1 158 0
 514 000a 2046     		mov	r0, r4
 515 000c 4021     		movs	r1, #64
 516 000e 2022     		movs	r2, #32
 517 0010 FFF7FEFF 		bl	_pal_lld_setgroupmode
 518              	.LVL31:
 519              		.loc 1 159 0
 520 0014 2046     		mov	r0, r4
 521 0016 8021     		movs	r1, #128
 522 0018 2022     		movs	r2, #32
 523              		.loc 1 162 0
 524 001a BDE81040 		pop	{r4, lr}
 525              		.loc 1 159 0
 526 001e FFF7FEBF 		b	_pal_lld_setgroupmode
 527              	.LVL32:
 528              	.L34:
 529 0022 00BF     		.align	2
 530              	.L33:
 531 0024 00080240 		.word	1073874944
 532 0028 00000000 		.word	UARTD6
 533              		.cfi_endproc
 534              	.LFE265:
 535              		.size	app_uartcomm_stop, .-app_uartcomm_stop
 536 002c AFF30080 		.section	.text.app_uartcomm_configure,"ax",%progbits
 537              		.align	2
 538              		.p2align 4,,15
 539              		.global	app_uartcomm_configure
 540              		.thumb
 541              		.thumb_func
 542              		.type	app_uartcomm_configure, %function
 543              	app_uartcomm_configure:
 544              	.LFB266:
 545              		.loc 1 164 0
 546              		.cfi_startproc
 547              		@ args = 0, pretend = 0, frame = 0
 548              		@ frame_needed = 0, uses_anonymous_args = 0
 549              		@ link register save eliminated.
 550              	.LVL33:
 551              		.loc 1 167 0
 552 0000 044B     		ldr	r3, .L38
ARM GAS  /tmp/ccy4nYnm.s 			page 11


 553              		.loc 1 165 0
 554 0002 0549     		ldr	r1, .L38+4
 555              		.loc 1 167 0
 556 0004 1B78     		ldrb	r3, [r3]	@ zero_extendqisi2
 557              		.loc 1 165 0
 558 0006 4861     		str	r0, [r1, #20]
 559              		.loc 1 167 0
 560 0008 03B9     		cbnz	r3, .L37
 561 000a 7047     		bx	lr
 562              	.L37:
 563              		.loc 1 168 0
 564 000c 0348     		ldr	r0, .L38+8
 565              	.LVL34:
 566 000e FFF7FEBF 		b	uartStart
 567              	.LVL35:
 568              	.L39:
 569 0012 00BF     		.align	2
 570              	.L38:
 571 0014 00000000 		.word	.LANCHOR5
 572 0018 00000000 		.word	.LANCHOR7
 573 001c 00000000 		.word	UARTD6
 574              		.cfi_endproc
 575              	.LFE266:
 576              		.size	app_uartcomm_configure, .-app_uartcomm_configure
 577              		.section	.bss.serial_rx_write_pos,"aw",%nobits
 578              		.align	2
 579              		.set	.LANCHOR0,. + 0
 580              		.type	serial_rx_write_pos, %object
 581              		.size	serial_rx_write_pos, 4
 582              	serial_rx_write_pos:
 583 0000 00000000 		.space	4
 584              		.section	.bss.is_running,"aw",%nobits
 585              		.set	.LANCHOR5,. + 0
 586              		.type	is_running, %object
 587              		.size	is_running, 1
 588              	is_running:
 589 0000 00       		.space	1
 590              		.section	.data.uart_cfg,"aw",%progbits
 591              		.align	2
 592              		.set	.LANCHOR7,. + 0
 593              		.type	uart_cfg, %object
 594              		.size	uart_cfg, 32
 595              	uart_cfg:
 596 0000 00000000 		.word	txend1
 597 0004 00000000 		.word	txend2
 598 0008 00000000 		.word	rxend
 599 000c 00000000 		.word	rxchar
 600 0010 00000000 		.word	rxerr
 601 0014 00C20100 		.word	115200
 602 0018 0000     		.short	0
 603 001a 0040     		.short	16384
 604 001c 0000     		.short	0
 605 001e 0000     		.space	2
 606              		.section	.bss.packet_process_thread_wa,"aw",%nobits
 607              		.align	3
 608              		.set	.LANCHOR6,. + 0
 609              		.type	packet_process_thread_wa, %object
ARM GAS  /tmp/ccy4nYnm.s 			page 12


 610              		.size	packet_process_thread_wa, 4504
 611              	packet_process_thread_wa:
 612 0000 00000000 		.space	4504
 612      00000000 
 612      00000000 
 612      00000000 
 612      00000000 
 613              		.section	.bss.serial_rx_buffer,"aw",%nobits
 614              		.align	2
 615              		.set	.LANCHOR1,. + 0
 616              		.type	serial_rx_buffer, %object
 617              		.size	serial_rx_buffer, 1024
 618              	serial_rx_buffer:
 619 0000 00000000 		.space	1024
 619      00000000 
 619      00000000 
 619      00000000 
 619      00000000 
 620              		.section	.rodata.str1.4,"aMS",%progbits,1
 621              		.align	2
 622              	.LC0:
 623 0000 75617274 		.ascii	"uartcomm process\000"
 623      636F6D6D 
 623      2070726F 
 623      63657373 
 623      00
 624 0011 000000   		.section	.bss.buffer.9594,"aw",%nobits
 625              		.align	2
 626              		.set	.LANCHOR4,. + 0
 627              		.type	buffer.9594, %object
 628              		.size	buffer.9594, 1029
 629              	buffer.9594:
 630 0000 00000000 		.space	1029
 630      00000000 
 630      00000000 
 630      00000000 
 630      00000000 
 631 0405 000000   		.section	.bss.serial_rx_read_pos,"aw",%nobits
 632              		.align	2
 633              		.set	.LANCHOR3,. + 0
 634              		.type	serial_rx_read_pos, %object
 635              		.size	serial_rx_read_pos, 4
 636              	serial_rx_read_pos:
 637 0000 00000000 		.space	4
 638              		.section	.bss.process_tp,"aw",%nobits
 639              		.align	2
 640              		.set	.LANCHOR2,. + 0
 641              		.type	process_tp, %object
 642              		.size	process_tp, 4
 643              	process_tp:
 644 0000 00000000 		.space	4
 645              		.text
 646              	.Letext0:
 647              		.file 4 "/usr/include/newlib/machine/_default_types.h"
 648              		.file 5 "/usr/include/newlib/stdint.h"
 649              		.file 6 "/usr/lib/gcc/arm-none-eabi/4.8/include/stddef.h"
 650              		.file 7 "ChibiOS_3.0.2/os/rt/ports/ARMCMx/compilers/GCC/chtypes.h"
ARM GAS  /tmp/ccy4nYnm.s 			page 13


 651              		.file 8 "ChibiOS_3.0.2/os/rt/include/chsystypes.h"
 652              		.file 9 "ChibiOS_3.0.2/os/rt/include/chschd.h"
 653              		.file 10 "ChibiOS_3.0.2/os/ext/CMSIS/ST/stm32f407xx.h"
 654              		.file 11 "ChibiOS_3.0.2/os/rt/ports/ARMCMx/chcore.h"
 655              		.file 12 "ChibiOS_3.0.2/os/rt/ports/ARMCMx/chcore_v7m.h"
 656              		.file 13 "ChibiOS_3.0.2/os/rt/include/chtm.h"
 657              		.file 14 "ChibiOS_3.0.2/os/rt/include/chsem.h"
 658              		.file 15 "ChibiOS_3.0.2/os/rt/include/chmtx.h"
 659              		.file 16 "ChibiOS_3.0.2/os/rt/include/chthreads.h"
 660              		.file 17 "ChibiOS_3.0.2/os/hal/ports/STM32/STM32F4xx/stm32_dma.h"
 661              		.file 18 "ChibiOS_3.0.2/os/hal/ports/STM32/LLD/GPIOv2/pal_lld.h"
 662              		.file 19 "ChibiOS_3.0.2/os/hal/include/uart.h"
 663              		.file 20 "ChibiOS_3.0.2/os/hal/ports/STM32/LLD/USARTv1/uart_lld.h"
 664              		.file 21 "ChibiOS_3.0.2/os/rt/include/chsys.h"
 665              		.file 22 "ChibiOS_3.0.2/os/ext/CMSIS/include/core_cm4.h"
 666              		.file 23 "ChibiOS_3.0.2/os/rt/include/chevents.h"
 667              		.file 24 "./packet.h"
 668              		.file 25 "./commands.h"