ARM GAS  /tmp/ccH4mCzN.s 			page 1


   1              		.syntax unified
   2              		.cpu cortex-m4
   3              		.eabi_attribute 27, 3
   4              		.eabi_attribute 28, 1
   5              		.fpu fpv4-sp-d16
   6              		.eabi_attribute 20, 1
   7              		.eabi_attribute 21, 1
   8              		.eabi_attribute 23, 3
   9              		.eabi_attribute 24, 1
  10              		.eabi_attribute 25, 1
  11              		.eabi_attribute 26, 1
  12              		.eabi_attribute 30, 2
  13              		.eabi_attribute 34, 1
  14              		.eabi_attribute 18, 4
  15              		.thumb
  16              		.file	"app_ppm.c"
  17              		.text
  18              	.Ltext0:
  19              		.cfi_sections	.debug_frame
  20              		.section	.text.ppm_thread,"ax",%progbits
  21              		.align	2
  22              		.p2align 4,,15
  23              		.thumb
  24              		.thumb_func
  25              		.type	ppm_thread, %function
  26              	ppm_thread:
  27              	.LFB262:
  28              		.file 1 "applications/app_ppm.c"
  29              		.loc 1 125 0
  30              		.cfi_startproc
  31              		@ args = 0, pretend = 0, frame = 16
  32              		@ frame_needed = 0, uses_anonymous_args = 0
  33              	.LVL0:
  34 0000 2DE9F04F 		push	{r4, r5, r6, r7, r8, r9, r10, fp, lr}
  35              		.cfi_def_cfa_offset 36
  36              		.cfi_offset 4, -36
  37              		.cfi_offset 5, -32
  38              		.cfi_offset 6, -28
  39              		.cfi_offset 7, -24
  40              		.cfi_offset 8, -20
  41              		.cfi_offset 9, -16
  42              		.cfi_offset 10, -12
  43              		.cfi_offset 11, -8
  44              		.cfi_offset 14, -4
  45              	.LBB126:
  46              	.LBB127:
  47              		.file 2 "ChibiOS_3.0.2/os/rt/include/chregistry.h"
  48              		.loc 2 135 0
  49 0004 BD4F     		ldr	r7, .L143
  50              	.LBE127:
  51              	.LBE126:
  52              		.loc 1 131 0
  53 0006 BE4C     		ldr	r4, .L143+4
  54              	.LBB130:
  55              	.LBB128:
  56              		.loc 2 135 0
  57 0008 BB69     		ldr	r3, [r7, #24]
ARM GAS  /tmp/ccH4mCzN.s 			page 2


  58 000a BE49     		ldr	r1, .L143+8
  59              	.LBE128:
  60              	.LBE130:
  61              		.loc 1 129 0
  62 000c BE4A     		ldr	r2, .L143+12
  63              		.loc 1 131 0
  64 000e 94ED030A 		flds	s0, [r4, #12]
  65 0012 D4ED040A 		flds	s1, [r4, #16]
  66 0016 207E     		ldrb	r0, [r4, #24]	@ zero_extendqisi2
  67              	.LVL1:
  68              		.loc 1 133 0
  69 0018 DFF82083 		ldr	r8, .L143+64
  70 001c BB4E     		ldr	r6, .L143+16
  71              		.loc 1 125 0
  72 001e 2DED088B 		fstmfdd	sp!, {d8, d9, d10, d11}
  73              		.cfi_def_cfa_offset 68
  74              		.cfi_offset 80, -68
  75              		.cfi_offset 82, -60
  76              		.cfi_offset 84, -52
  77              		.cfi_offset 86, -44
  78              	.LBB131:
  79              	.LBB129:
  80              		.loc 2 135 0
  81 0022 9961     		str	r1, [r3, #24]
  82              	.LBE129:
  83              	.LBE131:
  84              		.loc 1 125 0
  85 0024 85B0     		sub	sp, sp, #20
  86              		.cfi_def_cfa_offset 88
  87              		.loc 1 129 0
  88 0026 1360     		str	r3, [r2]
  89              		.loc 1 131 0
  90 0028 FFF7FEFF 		bl	servodec_set_pulse_options
  91              	.LVL2:
  92              		.loc 1 132 0
  93 002c B848     		ldr	r0, .L143+20
  94              	.LBB132:
  95              		.loc 1 163 0
  96 002e 9FEDB9AA 		flds	s20, .L143+24
  97              		.loc 1 187 0
  98 0032 DFEDB99A 		flds	s19, .L143+28
  99              	.LBB133:
 100              	.LBB134:
 101              	.LBB135:
 102              		.loc 1 289 0
 103 0036 9FEDB99A 		flds	s18, .L143+32
 104 003a DFEDB98A 		flds	s17, .L143+36
 105              	.LBE135:
 106              	.LBE134:
 107              	.LBE133:
 108              	.LBE132:
 109              		.loc 1 132 0
 110 003e FFF7FEFF 		bl	servodec_init
 111              	.LVL3:
 112              		.loc 1 133 0
 113 0042 0123     		movs	r3, #1
 114 0044 88F80030 		strb	r3, [r8]
ARM GAS  /tmp/ccH4mCzN.s 			page 3


 115 0048 1BE0     		b	.L2
 116              	.LVL4:
 117              	.L134:
 118 004a 0122     		movs	r2, #1
 119 004c 02FA03F3 		lsl	r3, r2, r3
 120 0050 13F0290F 		tst	r3, #41
 121 0054 39D0     		beq	.L4
 122              	.LBB185:
 123              		.loc 1 152 0
 124 0056 DDED037A 		flds	s15, [sp, #12]
 125 005a B24B     		ldr	r3, .L143+40
 126              		.loc 1 153 0
 127 005c B7EE007A 		fconsts	s14, #112
 128 0060 37EE877A 		fadds	s14, s15, s14
 129              		.loc 1 154 0
 130 0064 F6EE006A 		fconsts	s13, #96
 131 0068 27EE267A 		fmuls	s14, s14, s13
 132              		.loc 1 152 0
 133 006c C3ED007A 		fsts	s15, [r3]
 134              		.loc 1 154 0
 135 0070 8DED037A 		fsts	s14, [sp, #12]
 136              		.loc 1 170 0
 137 0074 FFF7FEFF 		bl	timeout_has_timeout
 138              	.LVL5:
 139 0078 0028     		cmp	r0, #0
 140 007a 43D0     		beq	.L9
 141              	.L11:
 142              		.loc 1 172 0
 143 007c AA4B     		ldr	r3, .L143+44
 144 007e 0022     		movs	r2, #0
 145 0080 1A60     		str	r2, [r3]
 146              	.LVL6:
 147              	.L2:
 148              		.loc 1 136 0
 149 0082 0120     		movs	r0, #1
 150 0084 FFF7FEFF 		bl	chEvtWaitAny
 151              	.LVL7:
 152              		.loc 1 138 0
 153 0088 3378     		ldrb	r3, [r6]	@ zero_extendqisi2
 154 008a 03F0FF05 		and	r5, r3, #255
 155 008e 002B     		cmp	r3, #0
 156 0090 40F08980 		bne	.L133
 157              		.loc 1 143 0
 158 0094 FFF7FEFF 		bl	mc_interface_get_configuration
 159              	.LVL8:
 160 0098 8146     		mov	r9, r0
 161              	.LVL9:
 162              		.loc 1 144 0
 163 009a FFF7FEFF 		bl	mc_interface_get_rpm
 164              	.LVL10:
 165              		.loc 1 145 0
 166 009e 2846     		mov	r0, r5
 167              		.loc 1 144 0
 168 00a0 B0EE408A 		fcpys	s16, s0
 169              	.LVL11:
 170              		.loc 1 145 0
 171 00a4 FFF7FEFF 		bl	servodec_get_servo
ARM GAS  /tmp/ccH4mCzN.s 			page 4


 172              	.LVL12:
 173              		.loc 1 146 0
 174 00a8 D4ED031A 		flds	s3, [r4, #12]
 175 00ac 94ED042A 		flds	s4, [r4, #16]
 176              		.loc 1 145 0
 177 00b0 8DED030A 		fsts	s0, [sp, #12]
 178              		.loc 1 146 0
 179 00b4 FFEE000A 		fconsts	s1, #240
 180 00b8 B7EE001A 		fconsts	s2, #112
 181 00bc FFF7FEFF 		bl	utils_map
 182              	.LVL13:
 183              		.loc 1 148 0
 184 00c0 2378     		ldrb	r3, [r4]	@ zero_extendqisi2
 185 00c2 023B     		subs	r3, r3, #2
 186 00c4 DBB2     		uxtb	r3, r3
 187 00c6 052B     		cmp	r3, #5
 188 00c8 BFD9     		bls	.L134
 189              	.L4:
 190              		.loc 1 159 0
 191 00ca D4ED057A 		flds	s15, [r4, #20]
 192 00ce 8C4B     		ldr	r3, .L143+4
 193 00d0 B4EEE70A 		fcmpes	s0, s15
 194 00d4 F1EE10FA 		fmstat
 195 00d8 56D5     		bpl	.L126
 196              		.loc 1 160 0
 197 00da D3ED030A 		flds	s1, [r3, #12]
 198 00de 9FED8D2A 		flds	s4, .L143+24
 199 00e2 93ED051A 		flds	s2, [r3, #20]
 200 00e6 FFEE001A 		fconsts	s3, #240
 201 00ea FFF7FEFF 		bl	utils_map
 202              	.LVL14:
 203 00ee 8DED030A 		fsts	s0, [sp, #12]
 204 00f2 F0EE407A 		fcpys	s15, s0
 205              	.L8:
 206              		.loc 1 166 0
 207 00f6 8B4B     		ldr	r3, .L143+40
 208 00f8 C3ED007A 		fsts	s15, [r3]
 209              		.loc 1 170 0
 210 00fc FFF7FEFF 		bl	timeout_has_timeout
 211              	.LVL15:
 212 0100 0028     		cmp	r0, #0
 213 0102 BBD1     		bne	.L11
 214              	.L9:
 215              		.loc 1 170 0 is_stmt 0 discriminator 1
 216 0104 FFF7FEFF 		bl	servodec_get_time_since_update
 217              	.LVL16:
 218 0108 0546     		mov	r5, r0
 219 010a FFF7FEFF 		bl	timeout_get_timeout_msec
 220              	.LVL17:
 221 010e 8542     		cmp	r5, r0
 222 0110 B4D8     		bhi	.L11
 223              		.loc 1 171 0 is_stmt 1 discriminator 1
 224 0112 FFF7FEFF 		bl	mc_interface_get_fault
 225              	.LVL18:
 226              		.loc 1 170 0 discriminator 1
 227 0116 0028     		cmp	r0, #0
 228 0118 B0D1     		bne	.L11
ARM GAS  /tmp/ccH4mCzN.s 			page 5


 229              		.loc 1 177 0
 230 011a 94ED020A 		flds	s0, [r4, #8]
 231              		.loc 1 185 0
 232 011e 834D     		ldr	r5, .L143+48
 233              		.loc 1 177 0
 234 0120 DFF8DCA1 		ldr	r10, .L143+4
 235 0124 03A8     		add	r0, sp, #12
 236 0126 F7EE000A 		fconsts	s1, #112
 237 012a FFF7FEFF 		bl	utils_deadband
 238              	.LVL19:
 239              		.loc 1 180 0
 240 012e D4ED070A 		flds	s1, [r4, #28]
 241 0132 9DED030A 		flds	s0, [sp, #12]
 242 0136 94ED081A 		flds	s2, [r4, #32]
 243 013a 94F82400 		ldrb	r0, [r4, #36]	@ zero_extendqisi2
 244 013e FFF7FEFF 		bl	utils_throttle_curve
 245              	.LVL20:
 246              		.loc 1 185 0
 247 0142 D5ED007A 		flds	s15, [r5]
 248              		.loc 1 180 0
 249 0146 8DED030A 		fsts	s0, [sp, #12]
 250              		.loc 1 185 0
 251 014a F0EEE77A 		fabss	s15, s15
 252 014e B0EEC07A 		fabss	s14, s0
 253 0152 B4EEE77A 		fcmpes	s14, s15
 254 0156 F1EE10FA 		fmstat
 255 015a CCBF     		ite	gt
 256 015c DAED0A7A 		fldsgt	s15, [r10, #40]
 257 0160 DAED0B7A 		fldsle	s15, [r10, #44]
 258              	.LVL21:
 259              		.loc 1 187 0
 260 0164 F4EEE97A 		fcmpes	s15, s19
 261 0168 F1EE10FA 		fmstat
 262 016c 23DC     		bgt	.L135
 263              	.LVL22:
 264              	.L15:
 265              		.loc 1 199 0
 266 016e 2378     		ldrb	r3, [r4]	@ zero_extendqisi2
 267 0170 013B     		subs	r3, r3, #1
 268 0172 062B     		cmp	r3, #6
 269 0174 85D8     		bhi	.L2
 270 0176 DFE813F0 		tbh	[pc, r3, lsl #1]
 271              	.L18:
 272 017a 9C00     		.2byte	(.L17-.L18)/2
 273 017c 9C00     		.2byte	(.L17-.L18)/2
 274 017e 7E00     		.2byte	(.L19-.L18)/2
 275 0180 E700     		.2byte	(.L20-.L18)/2
 276 0182 E700     		.2byte	(.L20-.L18)/2
 277 0184 4200     		.2byte	(.L21-.L18)/2
 278 0186 4200     		.2byte	(.L21-.L18)/2
 279              	.LVL23:
 280              		.p2align 1
 281              	.L126:
 282              		.loc 1 163 0
 283 0188 D3ED050A 		flds	s1, [r3, #20]
 284 018c DFED611A 		flds	s3, .L143+24
 285 0190 93ED041A 		flds	s2, [r3, #16]
ARM GAS  /tmp/ccH4mCzN.s 			page 6


 286 0194 B7EE002A 		fconsts	s4, #112
 287 0198 FFF7FEFF 		bl	utils_map
 288              	.LVL24:
 289 019c F0EE407A 		fcpys	s15, s0
 290 01a0 8DED030A 		fsts	s0, [sp, #12]
 291 01a4 A7E7     		b	.L8
 292              	.LVL25:
 293              	.L133:
 294              		.loc 1 139 0
 295 01a6 0023     		movs	r3, #0
 296 01a8 88F80030 		strb	r3, [r8]
 297              	.LBE185:
 298              		.loc 1 363 0
 299 01ac 05B0     		add	sp, sp, #20
 300              		@ sp needed
 301 01ae BDEC088B 		fldmfdd	sp!, {d8-d11}
 302 01b2 BDE8F08F 		pop	{r4, r5, r6, r7, r8, r9, r10, fp, pc}
 303              	.LVL26:
 304              	.L135:
 305              	.LBB186:
 306              	.LBB144:
 307              		.loc 1 188 0
 308 01b6 DFF888A1 		ldr	r10, .L143+68
 309              	.LBB145:
 310              	.LBB146:
 311              	.LBB147:
 312              	.LBB148:
 313              		.file 3 "ChibiOS_3.0.2/os/rt/include/chvt.h"
 314              		.loc 3 231 0
 315 01ba B96A     		ldr	r1, [r7, #40]
 316              	.LVL27:
 317              	.LBE148:
 318              	.LBE147:
 319              		.loc 3 267 0
 320 01bc DAF80030 		ldr	r3, [r10]
 321              	.LBE146:
 322              	.LBE145:
 323              		.loc 1 188 0
 324 01c0 5B4A     		ldr	r2, .L143+52
 325 01c2 9FED5C7A 		flds	s14, .L143+56
 326              		.loc 1 189 0
 327 01c6 5948     		ldr	r0, .L143+48
 328              	.LBB150:
 329              	.LBB149:
 330              		.loc 3 267 0
 331 01c8 CB1A     		subs	r3, r1, r3
 332              	.LBE149:
 333              	.LBE150:
 334              		.loc 1 188 0
 335 01ca 4FF47A71 		mov	r1, #1000
 336              	.LVL28:
 337 01ce 01FB03F3 		mul	r3, r1, r3
 338              	.LVL29:
 339 01d2 03F51C53 		add	r3, r3, #9984
 340              	.LVL30:
 341 01d6 0F33     		adds	r3, r3, #15
 342              	.LVL31:
ARM GAS  /tmp/ccH4mCzN.s 			page 7


 343 01d8 A2FB0313 		umull	r1, r3, r2, r3
 344              	.LVL32:
 345 01dc 5B0B     		lsrs	r3, r3, #13
 346 01de 06EE903A 		fmsr	s13, r3	@ int
 347 01e2 67EE877A 		fmuls	s15, s15, s14
 348              	.LVL33:
 349 01e6 F8EEE60A 		fsitos	s1, s13
 350              		.loc 1 189 0
 351 01ea C0EEA70A 		fdivs	s1, s1, s15
 352 01ee FFF7FEFF 		bl	utils_step_towards
 353              	.LVL34:
 354              	.LBB151:
 355              	.LBB152:
 356              		.loc 3 231 0
 357 01f2 BB6A     		ldr	r3, [r7, #40]
 358              	.LBE152:
 359              	.LBE151:
 360              		.loc 1 190 0
 361 01f4 CAF80030 		str	r3, [r10]
 362              		.loc 1 191 0
 363 01f8 2B68     		ldr	r3, [r5]	@ float
 364 01fa 0393     		str	r3, [sp, #12]	@ float
 365 01fc B7E7     		b	.L15
 366              	.LVL35:
 367              	.L21:
 368              	.LBE144:
 369              		.loc 1 242 0
 370 01fe DDED037A 		flds	s15, [sp, #12]
 371 0202 9FED507A 		flds	s14, .L143+72
 372              		.loc 1 243 0
 373 0206 484B     		ldr	r3, .L143+44
 374              		.loc 1 242 0
 375 0208 F0EEE76A 		fabss	s13, s15
 376 020c F4EEC76A 		fcmpes	s13, s14
 377 0210 F1EE10FA 		fmstat
 378              		.loc 1 243 0
 379 0214 42BF     		ittt	mi
 380 0216 1A68     		ldrmi	r2, [r3]
 381 0218 0132     		addmi	r2, r2, #1
 382 021a 1A60     		strmi	r2, [r3]
 383              		.loc 1 246 0
 384 021c 1A68     		ldr	r2, [r3]
 385 021e 312A     		cmp	r2, #49
 386 0220 03DC     		bgt	.L40
 387              		.loc 1 246 0 is_stmt 0 discriminator 1
 388 0222 627E     		ldrb	r2, [r4, #25]	@ zero_extendqisi2
 389 0224 002A     		cmp	r2, #0
 390 0226 40F06281 		bne	.L41
 391              	.L40:
 392              		.loc 1 247 0 is_stmt 1
 393 022a 94ED010A 		flds	s0, [r4, #4]
 394 022e 0093     		str	r3, [sp]
 395 0230 27EE800A 		fmuls	s0, s15, s0
 396 0234 FFF7FEFF 		bl	mc_interface_set_pid_speed
 397              	.LVL36:
 398              		.loc 1 196 0
 399 0238 4FF0000A 		mov	r10, #0
ARM GAS  /tmp/ccH4mCzN.s 			page 8


 400              		.loc 1 194 0
 401 023c DFED35AA 		flds	s21, .L143+24
 402 0240 009B     		ldr	r3, [sp]
 403              		.loc 1 195 0
 404 0242 CDF804A0 		str	r10, [sp, #4]
 405              		.loc 1 248 0
 406 0246 0125     		movs	r5, #1
 407              	.LVL37:
 408              	.L29:
 409              		.loc 1 256 0
 410 0248 1A68     		ldr	r2, [r3]
 411 024a 3749     		ldr	r1, .L143+44
 412 024c 312A     		cmp	r2, #49
 413 024e 00F3A980 		bgt	.L42
 414              		.loc 1 256 0 is_stmt 0 discriminator 1
 415 0252 627E     		ldrb	r2, [r4, #25]	@ zero_extendqisi2
 416 0254 002A     		cmp	r2, #0
 417 0256 00F0A580 		beq	.L42
 418              	.LBB153:
 419              		.loc 1 258 0 is_stmt 1
 420 025a 374A     		ldr	r2, .L143+60
 421 025c 0D68     		ldr	r5, [r1]
 422              	.LVL38:
 423 025e 1068     		ldr	r0, [r2]
 424 0260 8542     		cmp	r5, r0
 425              		.loc 1 259 0
 426 0262 04BF     		itt	eq
 427 0264 0020     		moveq	r0, #0
 428 0266 0860     		streq	r0, [r1]
 429              		.loc 1 261 0
 430 0268 1B68     		ldr	r3, [r3]
 431 026a 1360     		str	r3, [r2]
 432              		.loc 1 262 0
 433 026c FFF7FEFF 		bl	timeout_get_brake_current
 434              	.LVL39:
 435 0270 FFF7FEFF 		bl	mc_interface_set_brake_current
 436              	.LVL40:
 437              		.loc 1 263 0
 438 0274 05E7     		b	.L2
 439              	.LVL41:
 440              	.L19:
 441              	.LBE153:
 442              		.loc 1 216 0
 443 0276 DDED037A 		flds	s15, [sp, #12]
 444 027a F5EEC07A 		fcmpezs	s15
 445 027e F1EE10FA 		fmstat
 446 0282 C0F29F81 		blt	.L129
 447              		.loc 1 217 0
 448 0286 D9ED1DAA 		flds	s21, [r9, #116]
 449 028a 67EEAAAA 		fmuls	s21, s15, s21
 450              	.LVL42:
 451              		.loc 1 196 0
 452 028e 4FF0000A 		mov	r10, #0
 453              	.LVL43:
 454              	.L33:
 455              		.loc 1 223 0
 456 0292 9FED2C7A 		flds	s14, .L143+72
ARM GAS  /tmp/ccH4mCzN.s 			page 9


 457              		.loc 1 224 0
 458 0296 244B     		ldr	r3, .L143+44
 459              		.loc 1 223 0
 460 0298 F4EEC77A 		fcmpes	s15, s14
 461 029c F1EE10FA 		fmstat
 462 02a0 40F12B81 		bpl	.L130
 463              		.loc 1 224 0
 464 02a4 1A68     		ldr	r2, [r3]
 465              		.loc 1 215 0
 466 02a6 0121     		movs	r1, #1
 467              		.loc 1 224 0
 468 02a8 0132     		adds	r2, r2, #1
 469 02aa 1A60     		str	r2, [r3]
 470              		.loc 1 197 0
 471 02ac 0025     		movs	r5, #0
 472              		.loc 1 215 0
 473 02ae 0191     		str	r1, [sp, #4]
 474 02b0 CAE7     		b	.L29
 475              	.LVL44:
 476              	.L17:
 477              		.loc 1 203 0
 478 02b2 DDED037A 		flds	s15, [sp, #12]
 479 02b6 F5EEC07A 		fcmpezs	s15
 480 02ba F1EE10FA 		fmstat
 481 02be C0F22681 		blt	.L22
 482              		.loc 1 203 0 is_stmt 0 discriminator 1
 483 02c2 B5EEC08A 		fcmpezs	s16
 484 02c6 F1EE10FA 		fmstat
 485 02ca 40F32081 		ble	.L22
 486              	.L24:
 487              		.loc 1 204 0 is_stmt 1
 488 02ce D9ED1DAA 		flds	s21, [r9, #116]
 489 02d2 67EEAAAA 		fmuls	s21, s15, s21
 490              	.LVL45:
 491              	.L28:
 492              		.loc 1 209 0
 493 02d6 9FED1B7A 		flds	s14, .L143+72
 494 02da F0EEE77A 		fabss	s15, s15
 495 02de F4EEC77A 		fcmpes	s15, s14
 496 02e2 F1EE10FA 		fmstat
 497 02e6 40F10C81 		bpl	.L128
 498              		.loc 1 210 0
 499 02ea 0F4B     		ldr	r3, .L143+44
 500 02ec 1A68     		ldr	r2, [r3]
 501 02ee 0132     		adds	r2, r2, #1
 502              		.loc 1 197 0
 503 02f0 0025     		movs	r5, #0
 504              		.loc 1 210 0
 505 02f2 1A60     		str	r2, [r3]
 506              		.loc 1 202 0
 507 02f4 0122     		movs	r2, #1
 508              		.loc 1 196 0
 509 02f6 AA46     		mov	r10, r5
 510              		.loc 1 202 0
 511 02f8 0192     		str	r2, [sp, #4]
 512 02fa A5E7     		b	.L29
 513              	.L144:
ARM GAS  /tmp/ccH4mCzN.s 			page 10


 514              		.align	2
 515              	.L143:
 516 02fc 00000000 		.word	ch
 517 0300 00000000 		.word	.LANCHOR1
 518 0304 00000000 		.word	.LC0
 519 0308 00000000 		.word	.LANCHOR0
 520 030c 00000000 		.word	.LANCHOR3
 521 0310 00000000 		.word	servodec_func
 522 0314 00000000 		.word	0
 523 0318 0AD7233C 		.word	1008981770
 524 031c 00401C46 		.word	1176256512
 525 0320 CDCCCC3D 		.word	1036831949
 526 0324 00000000 		.word	.LANCHOR4
 527 0328 00000000 		.word	.LANCHOR5
 528 032c 00000000 		.word	.LANCHOR6
 529 0330 5917B7D1 		.word	-776530087
 530 0334 00007A44 		.word	1148846080
 531 0338 00000000 		.word	.LANCHOR8
 532 033c 00000000 		.word	.LANCHOR2
 533 0340 00000000 		.word	.LANCHOR7
 534 0344 6F12833A 		.word	981668463
 535              	.LVL46:
 536              	.L20:
 537              		.loc 1 230 0
 538 0348 9DED030A 		flds	s0, [sp, #12]
 539 034c 5FED037A 		flds	s15, .L143+72
 540              		.loc 1 231 0
 541 0350 B44B     		ldr	r3, .L145
 542              		.loc 1 230 0
 543 0352 B0EEC07A 		fabss	s14, s0
 544 0356 B4EEE77A 		fcmpes	s14, s15
 545 035a F1EE10FA 		fmstat
 546              		.loc 1 231 0
 547 035e 42BF     		ittt	mi
 548 0360 1A68     		ldrmi	r2, [r3]
 549 0362 0132     		addmi	r2, r2, #1
 550 0364 1A60     		strmi	r2, [r3]
 551              		.loc 1 234 0
 552 0366 1A68     		ldr	r2, [r3]
 553 0368 312A     		cmp	r2, #49
 554 036a 03DC     		bgt	.L37
 555              		.loc 1 234 0 is_stmt 0 discriminator 1
 556 036c 627E     		ldrb	r2, [r4, #25]	@ zero_extendqisi2
 557 036e 002A     		cmp	r2, #0
 558 0370 40F0BD80 		bne	.L41
 559              	.L37:
 560              		.loc 1 235 0 is_stmt 1
 561 0374 D9ED161A 		flds	s3, [r9, #88]
 562 0378 99ED162A 		flds	s4, [r9, #88]
 563 037c 0093     		str	r3, [sp]
 564 037e F1EE611A 		fnegs	s3, s3
 565 0382 FFEE000A 		fconsts	s1, #240
 566 0386 B7EE001A 		fconsts	s2, #112
 567 038a FFF7FEFF 		bl	utils_map
 568              	.LVL47:
 569              		.loc 1 196 0
 570 038e 4FF0000A 		mov	r10, #0
ARM GAS  /tmp/ccH4mCzN.s 			page 11


 571              		.loc 1 235 0
 572 0392 FFF7FEFF 		bl	mc_interface_set_duty
 573              	.LVL48:
 574              		.loc 1 194 0
 575 0396 DFEDA4AA 		flds	s21, .L145+4
 576              		.loc 1 195 0
 577 039a CDF804A0 		str	r10, [sp, #4]
 578              		.loc 1 236 0
 579 039e 0125     		movs	r5, #1
 580 03a0 009B     		ldr	r3, [sp]
 581 03a2 51E7     		b	.L29
 582              	.LVL49:
 583              	.L42:
 584              		.loc 1 267 0
 585 03a4 FFF7FEFF 		bl	mc_interface_get_rpm
 586              	.LVL50:
 587              		.loc 1 269 0
 588 03a8 94F83030 		ldrb	r3, [r4, #48]	@ zero_extendqisi2
 589              		.loc 1 267 0
 590 03ac B0EE40BA 		fcpys	s22, s0
 591              	.LVL51:
 592              		.loc 1 269 0
 593 03b0 B0EE408A 		fcpys	s16, s0
 594              	.LVL52:
 595 03b4 3BB3     		cbz	r3, .L44
 596 03b6 4FF0000B 		mov	fp, #0
 597              	.LVL53:
 598              	.L47:
 599              	.LBB154:
 600              	.LBB155:
 601              		.loc 1 271 0
 602 03ba 5846     		mov	r0, fp
 603 03bc FFF7FEFF 		bl	comm_can_get_status_msg_index
 604              	.LVL54:
 605              		.loc 1 273 0
 606 03c0 0268     		ldr	r2, [r0]
 607 03c2 002A     		cmp	r2, #0
 608              	.LBE155:
 609              		.loc 1 270 0
 610 03c4 0BF1010B 		add	fp, fp, #1
 611              	.LVL55:
 612              	.LBB162:
 613              		.loc 1 273 0
 614 03c8 1ADB     		blt	.L45
 615              	.LBB156:
 616              	.LBB157:
 617              	.LBB158:
 618              	.LBB159:
 619              		.loc 3 231 0 discriminator 1
 620 03ca B96A     		ldr	r1, [r7, #40]
 621              	.LBE159:
 622              	.LBE158:
 623              		.loc 3 267 0 discriminator 1
 624 03cc 4268     		ldr	r2, [r0, #4]
 625 03ce 8A1A     		subs	r2, r1, r2
 626 03d0 07EE902A 		fmsr	s15, r2	@ int
 627              	.LBE157:
ARM GAS  /tmp/ccH4mCzN.s 			page 12


 628              	.LBE156:
 629              		.loc 1 273 0 discriminator 1
 630 03d4 F8EE677A 		fuitos	s15, s15
 631              	.LBB160:
 632              		.loc 1 276 0 discriminator 1
 633 03d8 B0EEC87A 		fabss	s14, s16
 634              	.LBE160:
 635              		.loc 1 273 0 discriminator 1
 636 03dc C7EE897A 		fdivs	s15, s15, s18
 637 03e0 F4EEE87A 		fcmpes	s15, s17
 638 03e4 F1EE10FA 		fmstat
 639 03e8 0AD5     		bpl	.L45
 640              	.LBB161:
 641              		.loc 1 274 0
 642 03ea D0ED027A 		flds	s15, [r0, #8]
 643              	.LVL56:
 644              		.loc 1 276 0
 645 03ee F0EEE76A 		fabss	s13, s15
 646              		.loc 1 277 0
 647 03f2 F4EE476A 		fcmps	s13, s14
 648 03f6 F1EE10FA 		fmstat
 649 03fa 48BF     		it	mi
 650 03fc B0EE678A 		fcpysmi	s16, s15
 651              	.LVL57:
 652              	.L45:
 653              	.LBE161:
 654              	.LBE162:
 655              		.loc 1 270 0
 656 0400 BBF10A0F 		cmp	fp, #10
 657 0404 D9D1     		bne	.L47
 658              	.LVL58:
 659              	.L44:
 660              	.LBE154:
 661              		.loc 1 283 0
 662 0406 25B1     		cbz	r5, .L51
 663              		.loc 1 283 0 is_stmt 0 discriminator 1
 664 0408 94F83030 		ldrb	r3, [r4, #48]	@ zero_extendqisi2
 665 040c 002B     		cmp	r3, #0
 666 040e 40F0B480 		bne	.L136
 667              	.LVL59:
 668              	.L51:
 669              		.loc 1 295 0 is_stmt 1
 670 0412 019A     		ldr	r2, [sp, #4]
 671 0414 002A     		cmp	r2, #0
 672 0416 3FF434AE 		beq	.L2
 673              		.loc 1 296 0
 674 041a BAF1000F 		cmp	r10, #0
 675 041e 40F08780 		bne	.L137
 676              	.LVL60:
 677              	.LBB163:
 678              		.loc 1 310 0
 679 0422 F5EEC0AA 		fcmpezs	s21
 680 0426 F1EE10FA 		fmstat
 681 042a 00F1D480 		bmi	.L138
 682              	.LVL61:
 683              	.L60:
 684              		.loc 1 319 0
ARM GAS  /tmp/ccH4mCzN.s 			page 13


 685 042e 94F83030 		ldrb	r3, [r4, #48]	@ zero_extendqisi2
 686 0432 002B     		cmp	r3, #0
 687 0434 53D0     		beq	.L62
 688 0436 F0EE6ABA 		fcpys	s23, s21
 689 043a 0025     		movs	r5, #0
 690 043c 06E0     		b	.L70
 691              	.LVL62:
 692              	.L140:
 693              	.LBB164:
 694              	.LBB165:
 695              		.loc 1 338 0
 696 043e B1EE6B0A 		fnegs	s0, s23
 697 0442 FFF7FEFF 		bl	comm_can_set_current
 698              	.LVL63:
 699              	.L63:
 700              	.LBE165:
 701              		.loc 1 320 0
 702 0446 0135     		adds	r5, r5, #1
 703              	.LVL64:
 704 0448 0A2D     		cmp	r5, #10
 705 044a 40D0     		beq	.L139
 706              	.LVL65:
 707              	.L70:
 708              	.LBB171:
 709              		.loc 1 321 0
 710 044c 2846     		mov	r0, r5
 711 044e FFF7FEFF 		bl	comm_can_get_status_msg_index
 712              	.LVL66:
 713              		.loc 1 323 0
 714 0452 0368     		ldr	r3, [r0]
 715 0454 002B     		cmp	r3, #0
 716 0456 F6DB     		blt	.L63
 717              	.LVL67:
 718              	.LBB166:
 719              	.LBB167:
 720              	.LBB168:
 721              	.LBB169:
 722              		.loc 3 231 0 discriminator 1
 723 0458 B96A     		ldr	r1, [r7, #40]
 724              	.LBE169:
 725              	.LBE168:
 726              		.loc 3 267 0 discriminator 1
 727 045a 4268     		ldr	r2, [r0, #4]
 728 045c 8A1A     		subs	r2, r1, r2
 729 045e 07EE902A 		fmsr	s15, r2	@ int
 730              	.LBE167:
 731              	.LBE166:
 732              		.loc 1 323 0 discriminator 1
 733 0462 F8EE677A 		fuitos	s15, s15
 734 0466 C7EE897A 		fdivs	s15, s15, s18
 735 046a F4EEE87A 		fcmpes	s15, s17
 736 046e F1EE10FA 		fmstat
 737 0472 E8D5     		bpl	.L63
 738              		.loc 1 324 0
 739 0474 94F83120 		ldrb	r2, [r4, #49]	@ zero_extendqisi2
 740 0478 02B3     		cbz	r2, .L65
 741              	.LBB170:
ARM GAS  /tmp/ccH4mCzN.s 			page 14


 742              		.loc 1 325 0
 743 047a 90ED020A 		flds	s0, [r0, #8]
 744              	.LVL68:
 745              		.loc 1 326 0
 746 047e BAF1000F 		cmp	r10, #0
 747 0482 01D0     		beq	.L66
 748              		.loc 1 327 0
 749 0484 B1EE400A 		fnegs	s0, s0
 750              	.LVL69:
 751              	.L66:
 752              		.loc 1 331 0
 753 0488 DFED670A 		flds	s1, .L145+4
 754 048c 94ED0D1A 		flds	s2, [r4, #52]
 755 0490 0090     		str	r0, [sp]
 756              	.LVL70:
 757 0492 30EE480A 		fsubs	s0, s0, s16
 758              	.LVL71:
 759 0496 B0EE602A 		fcpys	s4, s1
 760 049a F0EE6A1A 		fcpys	s3, s21
 761 049e FFF7FEFF 		bl	utils_map
 762              	.LVL72:
 763              		.loc 1 332 0
 764 04a2 D9ED507A 		flds	s15, [r9, #320]
 765 04a6 0098     		ldr	r0, [sp]
 766 04a8 B4EEE70A 		fcmpes	s0, s15
 767 04ac F1EE10FA 		fmstat
 768              		.loc 1 331 0
 769 04b0 F0EE40BA 		fcpys	s23, s0
 770              	.LVL73:
 771 04b4 0368     		ldr	r3, [r0]
 772              	.LVL74:
 773              		.loc 1 333 0
 774 04b6 48BF     		it	mi
 775 04b8 DFED5BBA 		fldsmi	s23, .L145+4
 776              	.LVL75:
 777              	.L65:
 778              	.LBE170:
 779              		.loc 1 338 0
 780 04bc D8B2     		uxtb	r0, r3
 781              		.loc 1 337 0
 782 04be BAF1000F 		cmp	r10, #0
 783 04c2 BCD1     		bne	.L140
 784              		.loc 1 340 0
 785 04c4 B0EE6B0A 		fcpys	s0, s23
 786 04c8 FFF7FEFF 		bl	comm_can_set_current
 787              	.LVL76:
 788 04cc BBE7     		b	.L63
 789              	.L139:
 790              	.LBE171:
 791              	.LBE164:
 792              		.loc 1 345 0
 793 04ce 94F83130 		ldrb	r3, [r4, #49]	@ zero_extendqisi2
 794 04d2 564A     		ldr	r2, .L145+8
 795 04d4 002B     		cmp	r3, #0
 796 04d6 40F08D80 		bne	.L141
 797              	.LBB172:
 798 04da F0EE6BAA 		fcpys	s21, s23
ARM GAS  /tmp/ccH4mCzN.s 			page 15


 799              	.LVL77:
 800              	.L62:
 801              	.LBE172:
 802              		.loc 1 354 0
 803 04de BAF1000F 		cmp	r10, #0
 804 04e2 20D0     		beq	.L71
 805              		.loc 1 355 0
 806 04e4 B1EE6A0A 		fnegs	s0, s21
 807 04e8 FFF7FEFF 		bl	mc_interface_set_current
 808              	.LVL78:
 809 04ec C9E5     		b	.L2
 810              	.LVL79:
 811              	.L41:
 812              	.LBE163:
 813              		.loc 1 197 0
 814 04ee 0025     		movs	r5, #0
 815              		.loc 1 196 0
 816 04f0 AA46     		mov	r10, r5
 817              		.loc 1 195 0
 818 04f2 0195     		str	r5, [sp, #4]
 819              		.loc 1 194 0
 820 04f4 DFED4CAA 		flds	s21, .L145+4
 821 04f8 A6E6     		b	.L29
 822              	.LVL80:
 823              	.L130:
 824              		.loc 1 215 0
 825 04fa 0121     		movs	r1, #1
 826              		.loc 1 197 0
 827 04fc 0025     		movs	r5, #0
 828              		.loc 1 215 0
 829 04fe 0191     		str	r1, [sp, #4]
 830 0500 A2E6     		b	.L29
 831              	.LVL81:
 832              	.L128:
 833              		.loc 1 197 0
 834 0502 0025     		movs	r5, #0
 835              		.loc 1 202 0
 836 0504 0122     		movs	r2, #1
 837              		.loc 1 196 0
 838 0506 AA46     		mov	r10, r5
 839              		.loc 1 202 0
 840 0508 0192     		str	r2, [sp, #4]
 841 050a 464B     		ldr	r3, .L145
 842 050c 9CE6     		b	.L29
 843              	.LVL82:
 844              	.L22:
 845              		.loc 1 203 0 discriminator 2
 846 050e F5EEC07A 		fcmpezs	s15
 847 0512 F1EE10FA 		fmstat
 848 0516 67D4     		bmi	.L142
 849              	.L25:
 850              		.loc 1 206 0
 851 0518 D9ED1EAA 		flds	s21, [r9, #120]
 852 051c F0EEEAAA 		fabss	s21, s21
 853 0520 67EEAAAA 		fmuls	s21, s15, s21
 854              	.LVL83:
 855 0524 D7E6     		b	.L28
ARM GAS  /tmp/ccH4mCzN.s 			page 16


 856              	.LVL84:
 857              	.L71:
 858              	.LBB174:
 859              		.loc 1 357 0
 860 0526 B0EE6A0A 		fcpys	s0, s21
 861 052a FFF7FEFF 		bl	mc_interface_set_current
 862              	.LVL85:
 863 052e A8E5     		b	.L2
 864              	.LVL86:
 865              	.L137:
 866              	.LBE174:
 867              		.loc 1 297 0
 868 0530 B0EE6A0A 		fcpys	s0, s21
 869 0534 FFF7FEFF 		bl	mc_interface_set_brake_current
 870              	.LVL87:
 871              	.LBB175:
 872              		.loc 1 300 0
 873 0538 0025     		movs	r5, #0
 874 053a 02E0     		b	.L59
 875              	.LVL88:
 876              	.L57:
 877 053c 0A2D     		cmp	r5, #10
 878 053e 3FF4A0AD 		beq	.L2
 879              	.LVL89:
 880              	.L59:
 881              	.LBB176:
 882              		.loc 1 301 0
 883 0542 2846     		mov	r0, r5
 884 0544 FFF7FEFF 		bl	comm_can_get_status_msg_index
 885              	.LVL90:
 886              		.loc 1 303 0
 887 0548 0368     		ldr	r3, [r0]
 888 054a 002B     		cmp	r3, #0
 889              	.LBE176:
 890              		.loc 1 300 0
 891 054c 05F10105 		add	r5, r5, #1
 892              	.LVL91:
 893              	.LBB181:
 894              		.loc 1 303 0
 895 0550 F4DB     		blt	.L57
 896              	.LBB177:
 897              	.LBB178:
 898              		.loc 3 267 0 discriminator 1
 899 0552 4268     		ldr	r2, [r0, #4]
 900              	.LBB179:
 901              	.LBB180:
 902              		.loc 3 231 0 discriminator 1
 903 0554 B96A     		ldr	r1, [r7, #40]
 904              	.LBE180:
 905              	.LBE179:
 906              		.loc 3 267 0 discriminator 1
 907 0556 8A1A     		subs	r2, r1, r2
 908 0558 07EE902A 		fmsr	s15, r2	@ int
 909              	.LBE178:
 910              	.LBE177:
 911              		.loc 1 303 0 discriminator 1
 912 055c F8EE677A 		fuitos	s15, s15
ARM GAS  /tmp/ccH4mCzN.s 			page 17


 913 0560 C7EE897A 		fdivs	s15, s15, s18
 914 0564 F4EEE87A 		fcmpes	s15, s17
 915 0568 F1EE10FA 		fmstat
 916 056c E6D5     		bpl	.L57
 917              		.loc 1 304 0
 918 056e D8B2     		uxtb	r0, r3
 919              	.LVL92:
 920 0570 B0EE6A0A 		fcpys	s0, s21
 921 0574 FFF7FEFF 		bl	comm_can_set_current_brake
 922              	.LVL93:
 923 0578 E0E7     		b	.L57
 924              	.LVL94:
 925              	.L136:
 926              	.LBE181:
 927              	.LBE175:
 928              	.LBB182:
 929              		.loc 1 284 0
 930 057a FFF7FEFF 		bl	mc_interface_get_tot_current_directional_filtered
 931              	.LVL95:
 932              	.LBB142:
 933              		.loc 1 286 0
 934 057e 0025     		movs	r5, #0
 935              	.LVL96:
 936              	.LBE142:
 937              		.loc 1 284 0
 938 0580 F0EE40BA 		fcpys	s23, s0
 939              	.LVL97:
 940 0584 02E0     		b	.L54
 941              	.LVL98:
 942              	.L52:
 943              	.LBB143:
 944              		.loc 1 286 0
 945 0586 0A2D     		cmp	r5, #10
 946 0588 3FF443AF 		beq	.L51
 947              	.LVL99:
 948              	.L54:
 949              	.LBB140:
 950              		.loc 1 287 0
 951 058c 2846     		mov	r0, r5
 952 058e FFF7FEFF 		bl	comm_can_get_status_msg_index
 953              	.LVL100:
 954              		.loc 1 289 0
 955 0592 0368     		ldr	r3, [r0]
 956 0594 002B     		cmp	r3, #0
 957              	.LBE140:
 958              		.loc 1 286 0
 959 0596 05F10105 		add	r5, r5, #1
 960              	.LVL101:
 961              	.LBB141:
 962              		.loc 1 289 0
 963 059a F4DB     		blt	.L52
 964              	.LBB136:
 965              	.LBB137:
 966              		.loc 3 267 0 discriminator 1
 967 059c 4268     		ldr	r2, [r0, #4]
 968              	.LBB138:
 969              	.LBB139:
ARM GAS  /tmp/ccH4mCzN.s 			page 18


 970              		.loc 3 231 0 discriminator 1
 971 059e B96A     		ldr	r1, [r7, #40]
 972              	.LBE139:
 973              	.LBE138:
 974              		.loc 3 267 0 discriminator 1
 975 05a0 8A1A     		subs	r2, r1, r2
 976 05a2 07EE902A 		fmsr	s15, r2	@ int
 977              	.LBE137:
 978              	.LBE136:
 979              		.loc 1 289 0 discriminator 1
 980 05a6 F8EE677A 		fuitos	s15, s15
 981 05aa C7EE897A 		fdivs	s15, s15, s18
 982 05ae F4EEE87A 		fcmpes	s15, s17
 983 05b2 F1EE10FA 		fmstat
 984 05b6 E6D5     		bpl	.L52
 985              		.loc 1 290 0
 986 05b8 D8B2     		uxtb	r0, r3
 987              	.LVL102:
 988 05ba B0EE6B0A 		fcpys	s0, s23
 989 05be FFF7FEFF 		bl	comm_can_set_current
 990              	.LVL103:
 991 05c2 E0E7     		b	.L52
 992              	.LVL104:
 993              	.L129:
 994              	.LBE141:
 995              	.LBE143:
 996              	.LBE182:
 997              		.loc 1 219 0
 998 05c4 D9ED1EAA 		flds	s21, [r9, #120]
 999 05c8 67EEAAAA 		fmuls	s21, s15, s21
 1000              		.loc 1 220 0
 1001 05cc 4FF0010A 		mov	r10, #1
 1002              		.loc 1 219 0
 1003 05d0 F0EEEAAA 		fabss	s21, s21
 1004              	.LVL105:
 1005 05d4 5DE6     		b	.L33
 1006              	.LVL106:
 1007              	.L138:
 1008              	.LBB183:
 1009              		.loc 1 312 0
 1010 05d6 F1EE6AAA 		fnegs	s21, s21
 1011              	.LVL107:
 1012              		.loc 1 314 0
 1013 05da B1EE4BBA 		fnegs	s22, s22
 1014              	.LVL108:
 1015              		.loc 1 315 0
 1016 05de B1EE488A 		fnegs	s16, s16
 1017              	.LVL109:
 1018              		.loc 1 311 0
 1019 05e2 4FF0010A 		mov	r10, #1
 1020              	.LVL110:
 1021 05e6 22E7     		b	.L60
 1022              	.LVL111:
 1023              	.L142:
 1024              	.LBE183:
 1025              		.loc 1 203 0 discriminator 1
 1026 05e8 B5EEC08A 		fcmpezs	s16
ARM GAS  /tmp/ccH4mCzN.s 			page 19


 1027 05ec F1EE10FA 		fmstat
 1028 05f0 92D5     		bpl	.L25
 1029 05f2 6CE6     		b	.L24
 1030              	.LVL112:
 1031              	.L141:
 1032              	.LBB184:
 1033              	.LBB173:
 1034              		.loc 1 347 0
 1035 05f4 DFED0C0A 		flds	s1, .L145+4
 1036 05f8 92ED0D1A 		flds	s2, [r2, #52]
 1037 05fc F0EE6A1A 		fcpys	s3, s21
 1038 0600 3BEE480A 		fsubs	s0, s22, s16
 1039              	.LVL113:
 1040 0604 B0EE602A 		fcpys	s4, s1
 1041 0608 FFF7FEFF 		bl	utils_map
 1042              	.LVL114:
 1043              		.loc 1 348 0
 1044 060c D9ED507A 		flds	s15, [r9, #320]
 1045              		.loc 1 349 0
 1046 0610 B4EE670A 		fcmps	s0, s15
 1047              		.loc 1 347 0
 1048 0614 F0EE40AA 		fcpys	s21, s0
 1049              	.LVL115:
 1050              		.loc 1 349 0
 1051 0618 F1EE10FA 		fmstat
 1052 061c 48BF     		it	mi
 1053 061e F0EE4AAA 		fcpysmi	s21, s20
 1054 0622 5CE7     		b	.L62
 1055              	.L146:
 1056              		.align	2
 1057              	.L145:
 1058 0624 00000000 		.word	.LANCHOR5
 1059 0628 00000000 		.word	0
 1060 062c 00000000 		.word	.LANCHOR1
 1061              	.LBE173:
 1062              	.LBE184:
 1063              	.LBE186:
 1064              		.cfi_endproc
 1065              	.LFE262:
 1066              		.size	ppm_thread, .-ppm_thread
 1067              		.section	.text.servodec_func,"ax",%progbits
 1068              		.align	2
 1069              		.p2align 4,,15
 1070              		.thumb
 1071              		.thumb_func
 1072              		.type	servodec_func, %function
 1073              	servodec_func:
 1074              	.LFB260:
 1075              		.loc 1 107 0
 1076              		.cfi_startproc
 1077              		@ args = 0, pretend = 0, frame = 0
 1078              		@ frame_needed = 0, uses_anonymous_args = 0
 1079              	.LVL116:
 1080 0000 08B5     		push	{r3, lr}
 1081              		.cfi_def_cfa_offset 8
 1082              		.cfi_offset 3, -8
 1083              		.cfi_offset 14, -4
ARM GAS  /tmp/ccH4mCzN.s 			page 20


 1084              	.LBB187:
 1085              	.LBB188:
 1086              	.LBB189:
 1087              	.LBB190:
 1088              	.LBB191:
 1089              		.file 4 "ChibiOS_3.0.2/os/ext/CMSIS/include/core_cmFunc.h"
 1090              		.loc 4 546 0
 1091 0002 2023     		movs	r3, #32
 1092              	@ 546 "ChibiOS_3.0.2/os/ext/CMSIS/include/core_cmFunc.h" 1
 1093 0004 83F31188 		MSR basepri, r3
 1094              	@ 0 "" 2
 1095              		.thumb
 1096              	.LBE191:
 1097              	.LBE190:
 1098              	.LBE189:
 1099              	.LBE188:
 1100              	.LBE187:
 1101              		.loc 1 109 0
 1102 0008 FFF7FEFF 		bl	timeout_reset
 1103              	.LVL117:
 1104              		.loc 1 110 0
 1105 000c 044B     		ldr	r3, .L148
 1106 000e 0121     		movs	r1, #1
 1107 0010 1868     		ldr	r0, [r3]
 1108 0012 FFF7FEFF 		bl	chEvtSignalI
 1109              	.LVL118:
 1110              	.LBB192:
 1111              	.LBB193:
 1112              	.LBB194:
 1113              	.LBB195:
 1114              	.LBB196:
 1115              		.loc 4 546 0
 1116 0016 0023     		movs	r3, #0
 1117              	@ 546 "ChibiOS_3.0.2/os/ext/CMSIS/include/core_cmFunc.h" 1
 1118 0018 83F31188 		MSR basepri, r3
 1119              	@ 0 "" 2
 1120              		.thumb
 1121 001c 08BD     		pop	{r3, pc}
 1122              	.L149:
 1123 001e 00BF     		.align	2
 1124              	.L148:
 1125 0020 00000000 		.word	.LANCHOR0
 1126              	.LBE196:
 1127              	.LBE195:
 1128              	.LBE194:
 1129              	.LBE193:
 1130              	.LBE192:
 1131              		.cfi_endproc
 1132              	.LFE260:
 1133              		.size	servodec_func, .-servodec_func
 1134 0024 AFF30080 		.section	.text.update,"ax",%progbits
 1134      AFF30080 
 1134      AFF30080 
 1135              		.align	2
 1136              		.p2align 4,,15
 1137              		.thumb
 1138              		.thumb_func
ARM GAS  /tmp/ccH4mCzN.s 			page 21


 1139              		.type	update, %function
 1140              	update:
 1141              	.LFB261:
 1142              		.loc 1 114 0
 1143              		.cfi_startproc
 1144              		@ args = 0, pretend = 0, frame = 0
 1145              		@ frame_needed = 0, uses_anonymous_args = 0
 1146              	.LVL119:
 1147              		.loc 1 115 0
 1148 0000 0E4B     		ldr	r3, .L160
 1149 0002 1A78     		ldrb	r2, [r3]	@ zero_extendqisi2
 1150              		.loc 1 114 0
 1151 0004 10B5     		push	{r4, lr}
 1152              		.cfi_def_cfa_offset 8
 1153              		.cfi_offset 4, -8
 1154              		.cfi_offset 14, -4
 1155              		.loc 1 114 0
 1156 0006 0446     		mov	r4, r0
 1157              		.loc 1 115 0
 1158 0008 02B9     		cbnz	r2, .L159
 1159 000a 10BD     		pop	{r4, pc}
 1160              	.L159:
 1161              	.LVL120:
 1162              	.LBB213:
 1163              	.LBB214:
 1164              	.LBB215:
 1165              	.LBB216:
 1166              	.LBB217:
 1167              	.LBB218:
 1168              	.LBB219:
 1169              		.loc 4 546 0
 1170 000c 2023     		movs	r3, #32
 1171              	@ 546 "ChibiOS_3.0.2/os/ext/CMSIS/include/core_cmFunc.h" 1
 1172 000e 83F31188 		MSR basepri, r3
 1173              	@ 0 "" 2
 1174              	.LVL121:
 1175              		.thumb
 1176              	.LBE219:
 1177              	.LBE218:
 1178              	.LBE217:
 1179              	.LBE216:
 1180              	.LBE215:
 1181              	.LBE214:
 1182              	.LBE213:
 1183              		.loc 3 374 0
 1184 0012 0B48     		ldr	r0, .L160+4
 1185              	.LVL122:
 1186              	.LBB230:
 1187              	.LBB229:
 1188              	.LBB220:
 1189              	.LBB221:
 1190              	.LBB222:
 1191              	.LBB223:
 1192              		.loc 3 376 0
 1193 0014 C368     		ldr	r3, [r0, #12]
 1194 0016 0BB1     		cbz	r3, .L152
 1195              		.loc 3 377 0
ARM GAS  /tmp/ccH4mCzN.s 			page 22


 1196 0018 FFF7FEFF 		bl	chVTDoResetI
 1197              	.LVL123:
 1198              	.L152:
 1199              	.LBE223:
 1200              	.LBE222:
 1201              		.loc 3 424 0
 1202 001c 2346     		mov	r3, r4
 1203 001e 094A     		ldr	r2, .L160+8
 1204 0020 0748     		ldr	r0, .L160+4
 1205 0022 1421     		movs	r1, #20
 1206 0024 FFF7FEFF 		bl	chVTDoSetI
 1207              	.LVL124:
 1208              	.LBE221:
 1209              	.LBE220:
 1210              		.loc 1 121 0
 1211 0028 074B     		ldr	r3, .L160+12
 1212 002a 0121     		movs	r1, #1
 1213 002c 1868     		ldr	r0, [r3]
 1214 002e FFF7FEFF 		bl	chEvtSignalI
 1215              	.LVL125:
 1216              	.LBB224:
 1217              	.LBB225:
 1218              	.LBB226:
 1219              	.LBB227:
 1220              	.LBB228:
 1221              		.loc 4 546 0
 1222 0032 0023     		movs	r3, #0
 1223              	@ 546 "ChibiOS_3.0.2/os/ext/CMSIS/include/core_cmFunc.h" 1
 1224 0034 83F31188 		MSR basepri, r3
 1225              	@ 0 "" 2
 1226              		.thumb
 1227 0038 10BD     		pop	{r4, pc}
 1228              	.LVL126:
 1229              	.L161:
 1230 003a 00BF     		.align	2
 1231              	.L160:
 1232 003c 00000000 		.word	.LANCHOR2
 1233 0040 00000000 		.word	.LANCHOR9
 1234 0044 00000000 		.word	update
 1235 0048 00000000 		.word	.LANCHOR0
 1236              	.LBE228:
 1237              	.LBE227:
 1238              	.LBE226:
 1239              	.LBE225:
 1240              	.LBE224:
 1241              	.LBE229:
 1242              	.LBE230:
 1243              		.cfi_endproc
 1244              	.LFE261:
 1245              		.size	update, .-update
 1246 004c AFF30080 		.section	.text.app_ppm_configure,"ax",%progbits
 1247              		.align	2
 1248              		.p2align 4,,15
 1249              		.global	app_ppm_configure
 1250              		.thumb
 1251              		.thumb_func
 1252              		.type	app_ppm_configure, %function
ARM GAS  /tmp/ccH4mCzN.s 			page 23


 1253              	app_ppm_configure:
 1254              	.LFB256:
 1255              		.loc 1 59 0
 1256              		.cfi_startproc
 1257              		@ args = 0, pretend = 0, frame = 0
 1258              		@ frame_needed = 0, uses_anonymous_args = 0
 1259              		@ link register save eliminated.
 1260              	.LVL127:
 1261 0000 F0B4     		push	{r4, r5, r6, r7}
 1262              		.cfi_def_cfa_offset 16
 1263              		.cfi_offset 4, -16
 1264              		.cfi_offset 5, -12
 1265              		.cfi_offset 6, -8
 1266              		.cfi_offset 7, -4
 1267              		.loc 1 61 0
 1268 0002 0546     		mov	r5, r0
 1269 0004 0FCD     		ldmia	r5!, {r0, r1, r2, r3}
 1270              	.LVL128:
 1271 0006 0E4E     		ldr	r6, .L165
 1272              		.loc 1 62 0
 1273 0008 DFF83CC0 		ldr	ip, .L165+8
 1274              		.loc 1 64 0
 1275 000c 0D4F     		ldr	r7, .L165+4
 1276              		.loc 1 61 0
 1277 000e 3446     		mov	r4, r6
 1278 0010 0FC4     		stmia	r4!, {r0, r1, r2, r3}
 1279 0012 0FCD     		ldmia	r5!, {r0, r1, r2, r3}
 1280              	.LVL129:
 1281 0014 0FC4     		stmia	r4!, {r0, r1, r2, r3}
 1282 0016 0FCD     		ldmia	r5!, {r0, r1, r2, r3}
 1283              	.LVL130:
 1284 0018 0FC4     		stmia	r4!, {r0, r1, r2, r3}
 1285 001a 95E80300 		ldmia	r5, {r0, r1}
 1286 001e 84E80300 		stmia	r4, {r0, r1}
 1287              		.loc 1 62 0
 1288 0022 0023     		movs	r3, #0
 1289 0024 CCF80030 		str	r3, [ip]
 1290              		.loc 1 64 0
 1291 0028 3B78     		ldrb	r3, [r7]	@ zero_extendqisi2
 1292 002a 0BB9     		cbnz	r3, .L164
 1293              		.loc 1 70 0
 1294 002c F0BC     		pop	{r4, r5, r6, r7}
 1295              	.LVL131:
 1296 002e 7047     		bx	lr
 1297              	.L164:
 1298              		.loc 1 65 0
 1299 0030 96ED030A 		flds	s0, [r6, #12]
 1300 0034 D6ED040A 		flds	s1, [r6, #16]
 1301 0038 307E     		ldrb	r0, [r6, #24]	@ zero_extendqisi2
 1302              		.loc 1 70 0
 1303 003a F0BC     		pop	{r4, r5, r6, r7}
 1304              		.loc 1 65 0
 1305 003c FFF7FEBF 		b	servodec_set_pulse_options
 1306              	.LVL132:
 1307              	.L166:
 1308              		.align	2
 1309              	.L165:
ARM GAS  /tmp/ccH4mCzN.s 			page 24


 1310 0040 00000000 		.word	.LANCHOR1
 1311 0044 00000000 		.word	.LANCHOR2
 1312 0048 00000000 		.word	.LANCHOR5
 1313              		.cfi_endproc
 1314              	.LFE256:
 1315              		.size	app_ppm_configure, .-app_ppm_configure
 1316 004c AFF30080 		.section	.text.app_ppm_start,"ax",%progbits
 1317              		.align	2
 1318              		.p2align 4,,15
 1319              		.global	app_ppm_start
 1320              		.thumb
 1321              		.thumb_func
 1322              		.type	app_ppm_start, %function
 1323              	app_ppm_start:
 1324              	.LFB257:
 1325              		.loc 1 72 0
 1326              		.cfi_startproc
 1327              		@ args = 0, pretend = 0, frame = 0
 1328              		@ frame_needed = 0, uses_anonymous_args = 0
 1329 0000 30B5     		push	{r4, r5, lr}
 1330              		.cfi_def_cfa_offset 12
 1331              		.cfi_offset 4, -12
 1332              		.cfi_offset 5, -8
 1333              		.cfi_offset 14, -4
 1334 0002 83B0     		sub	sp, sp, #12
 1335              		.cfi_def_cfa_offset 24
 1336              		.loc 1 74 0
 1337 0004 0024     		movs	r4, #0
 1338 0006 0E4D     		ldr	r5, .L172
 1339              		.loc 1 75 0
 1340 0008 0E4B     		ldr	r3, .L172+4
 1341 000a 0094     		str	r4, [sp]
 1342 000c 4FF4B361 		mov	r1, #1432
 1343 0010 4022     		movs	r2, #64
 1344 0012 0D48     		ldr	r0, .L172+8
 1345              		.loc 1 74 0
 1346 0014 2C70     		strb	r4, [r5]
 1347              		.loc 1 75 0
 1348 0016 FFF7FEFF 		bl	chThdCreateStatic
 1349              	.LVL133:
 1350              	.LBB244:
 1351              	.LBB245:
 1352              	.LBB246:
 1353              	.LBB247:
 1354              		.loc 4 546 0
 1355 001a 2023     		movs	r3, #32
 1356              	@ 546 "ChibiOS_3.0.2/os/ext/CMSIS/include/core_cmFunc.h" 1
 1357 001c 83F31188 		MSR basepri, r3
 1358              	@ 0 "" 2
 1359              	.LVL134:
 1360              		.thumb
 1361              	.LBE247:
 1362              	.LBE246:
 1363              	.LBE245:
 1364              	.LBE244:
 1365              		.loc 3 374 0
 1366 0020 0A48     		ldr	r0, .L172+12
ARM GAS  /tmp/ccH4mCzN.s 			page 25


 1367              	.LBB248:
 1368              	.LBB249:
 1369              	.LBB250:
 1370              	.LBB251:
 1371              		.loc 3 376 0
 1372 0022 C368     		ldr	r3, [r0, #12]
 1373 0024 0BB1     		cbz	r3, .L168
 1374              		.loc 3 377 0
 1375 0026 FFF7FEFF 		bl	chVTDoResetI
 1376              	.LVL135:
 1377              	.L168:
 1378              	.LBE251:
 1379              	.LBE250:
 1380              		.loc 3 424 0
 1381 002a 0848     		ldr	r0, .L172+12
 1382 002c 084A     		ldr	r2, .L172+16
 1383 002e 0A21     		movs	r1, #10
 1384 0030 0023     		movs	r3, #0
 1385 0032 FFF7FEFF 		bl	chVTDoSetI
 1386              	.LVL136:
 1387              	.LBE249:
 1388              	.LBE248:
 1389              	.LBB252:
 1390              	.LBB253:
 1391              	.LBB254:
 1392              	.LBB255:
 1393              	.LBB256:
 1394              		.loc 4 546 0
 1395 0036 0023     		movs	r3, #0
 1396              	@ 546 "ChibiOS_3.0.2/os/ext/CMSIS/include/core_cmFunc.h" 1
 1397 0038 83F31188 		MSR basepri, r3
 1398              	@ 0 "" 2
 1399              		.thumb
 1400              	.LBE256:
 1401              	.LBE255:
 1402              	.LBE254:
 1403              	.LBE253:
 1404              	.LBE252:
 1405              		.loc 1 81 0
 1406 003c 03B0     		add	sp, sp, #12
 1407              		@ sp needed
 1408 003e 30BD     		pop	{r4, r5, pc}
 1409              	.L173:
 1410              		.align	2
 1411              	.L172:
 1412 0040 00000000 		.word	.LANCHOR3
 1413 0044 00000000 		.word	ppm_thread
 1414 0048 00000000 		.word	.LANCHOR10
 1415 004c 00000000 		.word	.LANCHOR9
 1416 0050 00000000 		.word	update
 1417              		.cfi_endproc
 1418              	.LFE257:
 1419              		.size	app_ppm_start, .-app_ppm_start
 1420 0054 AFF30080 		.section	.text.app_ppm_stop,"ax",%progbits
 1420      AFF30080 
 1420      AFF30080 
 1421              		.align	2
ARM GAS  /tmp/ccH4mCzN.s 			page 26


 1422              		.p2align 4,,15
 1423              		.global	app_ppm_stop
 1424              		.thumb
 1425              		.thumb_func
 1426              		.type	app_ppm_stop, %function
 1427              	app_ppm_stop:
 1428              	.LFB258:
 1429              		.loc 1 83 0
 1430              		.cfi_startproc
 1431              		@ args = 0, pretend = 0, frame = 0
 1432              		@ frame_needed = 0, uses_anonymous_args = 0
 1433              		.loc 1 85 0
 1434 0000 0A4B     		ldr	r3, .L188
 1435              		.loc 1 83 0
 1436 0002 10B5     		push	{r4, lr}
 1437              		.cfi_def_cfa_offset 8
 1438              		.cfi_offset 4, -8
 1439              		.cfi_offset 14, -4
 1440              		.loc 1 85 0
 1441 0004 0121     		movs	r1, #1
 1442              		.loc 1 87 0
 1443 0006 0A4C     		ldr	r4, .L188+4
 1444              		.loc 1 85 0
 1445 0008 1970     		strb	r1, [r3]
 1446              		.loc 1 87 0
 1447 000a 2378     		ldrb	r3, [r4]	@ zero_extendqisi2
 1448 000c 1BB1     		cbz	r3, .L185
 1449 000e 06E0     		b	.L187
 1450              	.L178:
 1451              		.loc 1 93 0
 1452 0010 0A20     		movs	r0, #10
 1453 0012 FFF7FEFF 		bl	chThdSleep
 1454              	.LVL137:
 1455              	.L185:
 1456              		.loc 1 92 0
 1457 0016 2378     		ldrb	r3, [r4]	@ zero_extendqisi2
 1458 0018 002B     		cmp	r3, #0
 1459 001a F9D1     		bne	.L178
 1460 001c 10BD     		pop	{r4, pc}
 1461              	.L187:
 1462              		.loc 1 88 0
 1463 001e 054B     		ldr	r3, .L188+8
 1464 0020 1868     		ldr	r0, [r3]
 1465 0022 FFF7FEFF 		bl	chEvtSignalI
 1466              	.LVL138:
 1467              		.loc 1 89 0
 1468 0026 FFF7FEFF 		bl	servodec_stop
 1469              	.LVL139:
 1470 002a F4E7     		b	.L185
 1471              	.L189:
 1472              		.align	2
 1473              	.L188:
 1474 002c 00000000 		.word	.LANCHOR3
 1475 0030 00000000 		.word	.LANCHOR2
 1476 0034 00000000 		.word	.LANCHOR0
 1477              		.cfi_endproc
 1478              	.LFE258:
ARM GAS  /tmp/ccH4mCzN.s 			page 27


 1479              		.size	app_ppm_stop, .-app_ppm_stop
 1480 0038 AFF30080 		.section	.text.app_ppm_get_decoded_level,"ax",%progbits
 1480      AFF30080 
 1481              		.align	2
 1482              		.p2align 4,,15
 1483              		.global	app_ppm_get_decoded_level
 1484              		.thumb
 1485              		.thumb_func
 1486              		.type	app_ppm_get_decoded_level, %function
 1487              	app_ppm_get_decoded_level:
 1488              	.LFB259:
 1489              		.loc 1 98 0
 1490              		.cfi_startproc
 1491              		@ args = 0, pretend = 0, frame = 0
 1492              		@ frame_needed = 0, uses_anonymous_args = 0
 1493              		@ link register save eliminated.
 1494              		.loc 1 100 0
 1495 0000 014B     		ldr	r3, .L191
 1496              		.loc 1 104 0
 1497 0002 93ED000A 		flds	s0, [r3]
 1498 0006 7047     		bx	lr
 1499              	.L192:
 1500              		.align	2
 1501              	.L191:
 1502 0008 00000000 		.word	.LANCHOR4
 1503              		.cfi_endproc
 1504              	.LFE259:
 1505              		.size	app_ppm_get_decoded_level, .-app_ppm_get_decoded_level
 1506              		.global	vt
 1507 000c AFF30080 		.section	.bss.is_running,"aw",%nobits
 1508              		.set	.LANCHOR2,. + 0
 1509              		.type	is_running, %object
 1510              		.size	is_running, 1
 1511              	is_running:
 1512 0000 00       		.space	1
 1513              		.section	.bss.pulses_without_power_before.10159,"aw",%nobits
 1514              		.align	2
 1515              		.set	.LANCHOR8,. + 0
 1516              		.type	pulses_without_power_before.10159, %object
 1517              		.size	pulses_without_power_before.10159, 4
 1518              	pulses_without_power_before.10159:
 1519 0000 00000000 		.space	4
 1520              		.section	.bss.ppm_tp,"aw",%nobits
 1521              		.align	2
 1522              		.set	.LANCHOR0,. + 0
 1523              		.type	ppm_tp, %object
 1524              		.size	ppm_tp, 4
 1525              	ppm_tp:
 1526 0000 00000000 		.space	4
 1527              		.section	.bss.ppm_thread_wa,"aw",%nobits
 1528              		.align	3
 1529              		.set	.LANCHOR10,. + 0
 1530              		.type	ppm_thread_wa, %object
 1531              		.size	ppm_thread_wa, 1432
 1532              	ppm_thread_wa:
 1533 0000 00000000 		.space	1432
 1533      00000000 
ARM GAS  /tmp/ccH4mCzN.s 			page 28


 1533      00000000 
 1533      00000000 
 1533      00000000 
 1534              		.section	.bss.pulses_without_power,"aw",%nobits
 1535              		.align	2
 1536              		.set	.LANCHOR5,. + 0
 1537              		.type	pulses_without_power, %object
 1538              		.size	pulses_without_power, 4
 1539              	pulses_without_power:
 1540 0000 00000000 		.space	4
 1541              		.section	.rodata.str1.4,"aMS",%progbits,1
 1542              		.align	2
 1543              	.LC0:
 1544 0000 4150505F 		.ascii	"APP_PPM\000"
 1544      50504D00 
 1545              		.section	.bss.servo_val_ramp.10143,"aw",%nobits
 1546              		.align	2
 1547              		.set	.LANCHOR6,. + 0
 1548              		.type	servo_val_ramp.10143, %object
 1549              		.size	servo_val_ramp.10143, 4
 1550              	servo_val_ramp.10143:
 1551 0000 00000000 		.space	4
 1552              		.section	.bss.vt,"aw",%nobits
 1553              		.align	2
 1554              		.set	.LANCHOR9,. + 0
 1555              		.type	vt, %object
 1556              		.size	vt, 20
 1557              	vt:
 1558 0000 00000000 		.space	20
 1558      00000000 
 1558      00000000 
 1558      00000000 
 1558      00000000 
 1559              		.section	.bss.last_time.10142,"aw",%nobits
 1560              		.align	2
 1561              		.set	.LANCHOR7,. + 0
 1562              		.type	last_time.10142, %object
 1563              		.size	last_time.10142, 4
 1564              	last_time.10142:
 1565 0000 00000000 		.space	4
 1566              		.section	.bss.config,"aw",%nobits
 1567              		.align	2
 1568              		.set	.LANCHOR1,. + 0
 1569              		.type	config, %object
 1570              		.size	config, 56
 1571              	config:
 1572 0000 00000000 		.space	56
 1572      00000000 
 1572      00000000 
 1572      00000000 
 1572      00000000 
 1573              		.section	.data.stop_now,"aw",%progbits
 1574              		.set	.LANCHOR3,. + 0
 1575              		.type	stop_now, %object
 1576              		.size	stop_now, 1
 1577              	stop_now:
 1578 0000 01       		.byte	1
ARM GAS  /tmp/ccH4mCzN.s 			page 29


 1579              		.section	.bss.input_val,"aw",%nobits
 1580              		.align	2
 1581              		.set	.LANCHOR4,. + 0
 1582              		.type	input_val, %object
 1583              		.size	input_val, 4
 1584              	input_val:
 1585 0000 00000000 		.space	4
 1586              		.text
 1587              	.Letext0:
 1588              		.file 5 "/usr/include/newlib/machine/_default_types.h"
 1589              		.file 6 "/usr/include/newlib/stdint.h"
 1590              		.file 7 "/usr/lib/gcc/arm-none-eabi/4.8/include/stddef.h"
 1591              		.file 8 "ChibiOS_3.0.2/os/rt/ports/ARMCMx/compilers/GCC/chtypes.h"
 1592              		.file 9 "ChibiOS_3.0.2/os/rt/include/chsystypes.h"
 1593              		.file 10 "ChibiOS_3.0.2/os/rt/include/chschd.h"
 1594              		.file 11 "ChibiOS_3.0.2/os/rt/ports/ARMCMx/chcore.h"
 1595              		.file 12 "ChibiOS_3.0.2/os/rt/ports/ARMCMx/chcore_v7m.h"
 1596              		.file 13 "ChibiOS_3.0.2/os/rt/include/chtm.h"
 1597              		.file 14 "ChibiOS_3.0.2/os/rt/include/chsem.h"
 1598              		.file 15 "ChibiOS_3.0.2/os/rt/include/chmtx.h"
 1599              		.file 16 "ChibiOS_3.0.2/os/rt/include/chthreads.h"
 1600              		.file 17 "./datatypes.h"
 1601              		.file 18 "ChibiOS_3.0.2/os/rt/include/chsys.h"
 1602              		.file 19 "./comm_can.h"
 1603              		.file 20 "./utils.h"
 1604              		.file 21 "./mc_interface.h"
 1605              		.file 22 "./timeout.h"
 1606              		.file 23 "ChibiOS_3.0.2/os/rt/include/chevents.h"
 1607              		.file 24 "./servo_dec.h"
 1608              		.file 25 "ChibiOS_3.0.2/os/ext/CMSIS/include/core_cm4.h"