ARM GAS  /tmp/ccDixzjA.s 			page 1


   1              		.syntax unified
   2              		.cpu cortex-m4
   3              		.eabi_attribute 27, 3
   4              		.eabi_attribute 28, 1
   5              		.fpu fpv4-sp-d16
   6              		.eabi_attribute 20, 1
   7              		.eabi_attribute 21, 1
   8              		.eabi_attribute 23, 3
   9              		.eabi_attribute 24, 1
  10              		.eabi_attribute 25, 1
  11              		.eabi_attribute 26, 1
  12              		.eabi_attribute 30, 2
  13              		.eabi_attribute 34, 1
  14              		.eabi_attribute 18, 4
  15              		.thumb
  16              		.file	"buffer.c"
  17              		.text
  18              	.Ltext0:
  19              		.cfi_sections	.debug_frame
  20              		.section	.text.buffer_append_int16,"ax",%progbits
  21              		.align	2
  22              		.p2align 4,,15
  23              		.global	buffer_append_int16
  24              		.thumb
  25              		.thumb_func
  26              		.type	buffer_append_int16, %function
  27              	buffer_append_int16:
  28              	.LFB0:
  29              		.file 1 "buffer.c"
  30              		.loc 1 24 0
  31              		.cfi_startproc
  32              		@ args = 0, pretend = 0, frame = 0
  33              		@ frame_needed = 0, uses_anonymous_args = 0
  34              		@ link register save eliminated.
  35              	.LVL0:
  36              		.loc 1 25 0
  37 0000 1368     		ldr	r3, [r2]
  38              		.loc 1 24 0
  39 0002 30B4     		push	{r4, r5}
  40              		.cfi_def_cfa_offset 8
  41              		.cfi_offset 4, -8
  42              		.cfi_offset 5, -4
  43              		.loc 1 25 0
  44 0004 5D1C     		adds	r5, r3, #1
  45 0006 0C12     		asrs	r4, r1, #8
  46 0008 1560     		str	r5, [r2]
  47 000a C454     		strb	r4, [r0, r3]
  48              		.loc 1 26 0
  49 000c 1368     		ldr	r3, [r2]
  50 000e 5C1C     		adds	r4, r3, #1
  51 0010 1460     		str	r4, [r2]
  52 0012 C154     		strb	r1, [r0, r3]
  53              		.loc 1 27 0
  54 0014 30BC     		pop	{r4, r5}
  55 0016 7047     		bx	lr
  56              		.cfi_endproc
  57              	.LFE0:
ARM GAS  /tmp/ccDixzjA.s 			page 2


  58              		.size	buffer_append_int16, .-buffer_append_int16
  59 0018 AFF30080 		.section	.text.buffer_append_uint16,"ax",%progbits
  59      AFF30080 
  60              		.align	2
  61              		.p2align 4,,15
  62              		.global	buffer_append_uint16
  63              		.thumb
  64              		.thumb_func
  65              		.type	buffer_append_uint16, %function
  66              	buffer_append_uint16:
  67              	.LFB1:
  68              		.loc 1 29 0
  69              		.cfi_startproc
  70              		@ args = 0, pretend = 0, frame = 0
  71              		@ frame_needed = 0, uses_anonymous_args = 0
  72              		@ link register save eliminated.
  73              	.LVL1:
  74              		.loc 1 30 0
  75 0000 1368     		ldr	r3, [r2]
  76              		.loc 1 29 0
  77 0002 30B4     		push	{r4, r5}
  78              		.cfi_def_cfa_offset 8
  79              		.cfi_offset 4, -8
  80              		.cfi_offset 5, -4
  81              		.loc 1 30 0
  82 0004 5D1C     		adds	r5, r3, #1
  83 0006 0C0A     		lsrs	r4, r1, #8
  84 0008 1560     		str	r5, [r2]
  85 000a C454     		strb	r4, [r0, r3]
  86              		.loc 1 31 0
  87 000c 1368     		ldr	r3, [r2]
  88 000e 5C1C     		adds	r4, r3, #1
  89 0010 1460     		str	r4, [r2]
  90 0012 C154     		strb	r1, [r0, r3]
  91              		.loc 1 32 0
  92 0014 30BC     		pop	{r4, r5}
  93 0016 7047     		bx	lr
  94              		.cfi_endproc
  95              	.LFE1:
  96              		.size	buffer_append_uint16, .-buffer_append_uint16
  97 0018 AFF30080 		.section	.text.buffer_append_int32,"ax",%progbits
  97      AFF30080 
  98              		.align	2
  99              		.p2align 4,,15
 100              		.global	buffer_append_int32
 101              		.thumb
 102              		.thumb_func
 103              		.type	buffer_append_int32, %function
 104              	buffer_append_int32:
 105              	.LFB2:
 106              		.loc 1 34 0
 107              		.cfi_startproc
 108              		@ args = 0, pretend = 0, frame = 0
 109              		@ frame_needed = 0, uses_anonymous_args = 0
 110              		@ link register save eliminated.
 111              	.LVL2:
 112              		.loc 1 35 0
ARM GAS  /tmp/ccDixzjA.s 			page 3


 113 0000 1368     		ldr	r3, [r2]
 114              		.loc 1 34 0
 115 0002 30B4     		push	{r4, r5}
 116              		.cfi_def_cfa_offset 8
 117              		.cfi_offset 4, -8
 118              		.cfi_offset 5, -4
 119              		.loc 1 35 0
 120 0004 5D1C     		adds	r5, r3, #1
 121 0006 0C16     		asrs	r4, r1, #24
 122 0008 1560     		str	r5, [r2]
 123 000a C454     		strb	r4, [r0, r3]
 124              		.loc 1 36 0
 125 000c 1368     		ldr	r3, [r2]
 126 000e 0C14     		asrs	r4, r1, #16
 127 0010 5D1C     		adds	r5, r3, #1
 128 0012 1560     		str	r5, [r2]
 129 0014 C454     		strb	r4, [r0, r3]
 130              		.loc 1 37 0
 131 0016 1368     		ldr	r3, [r2]
 132 0018 0C12     		asrs	r4, r1, #8
 133 001a 5D1C     		adds	r5, r3, #1
 134 001c 1560     		str	r5, [r2]
 135 001e C454     		strb	r4, [r0, r3]
 136              		.loc 1 38 0
 137 0020 1368     		ldr	r3, [r2]
 138 0022 5C1C     		adds	r4, r3, #1
 139 0024 1460     		str	r4, [r2]
 140 0026 C154     		strb	r1, [r0, r3]
 141              		.loc 1 39 0
 142 0028 30BC     		pop	{r4, r5}
 143 002a 7047     		bx	lr
 144              		.cfi_endproc
 145              	.LFE2:
 146              		.size	buffer_append_int32, .-buffer_append_int32
 147 002c AFF30080 		.section	.text.buffer_append_uint32,"ax",%progbits
 148              		.align	2
 149              		.p2align 4,,15
 150              		.global	buffer_append_uint32
 151              		.thumb
 152              		.thumb_func
 153              		.type	buffer_append_uint32, %function
 154              	buffer_append_uint32:
 155              	.LFB3:
 156              		.loc 1 41 0
 157              		.cfi_startproc
 158              		@ args = 0, pretend = 0, frame = 0
 159              		@ frame_needed = 0, uses_anonymous_args = 0
 160              		@ link register save eliminated.
 161              	.LVL3:
 162              		.loc 1 42 0
 163 0000 1368     		ldr	r3, [r2]
 164              		.loc 1 41 0
 165 0002 30B4     		push	{r4, r5}
 166              		.cfi_def_cfa_offset 8
 167              		.cfi_offset 4, -8
 168              		.cfi_offset 5, -4
 169              		.loc 1 42 0
ARM GAS  /tmp/ccDixzjA.s 			page 4


 170 0004 5D1C     		adds	r5, r3, #1
 171 0006 0C0E     		lsrs	r4, r1, #24
 172 0008 1560     		str	r5, [r2]
 173 000a C454     		strb	r4, [r0, r3]
 174              		.loc 1 43 0
 175 000c 1368     		ldr	r3, [r2]
 176 000e 0C0C     		lsrs	r4, r1, #16
 177 0010 5D1C     		adds	r5, r3, #1
 178 0012 1560     		str	r5, [r2]
 179 0014 C454     		strb	r4, [r0, r3]
 180              		.loc 1 44 0
 181 0016 1368     		ldr	r3, [r2]
 182 0018 0C0A     		lsrs	r4, r1, #8
 183 001a 5D1C     		adds	r5, r3, #1
 184 001c 1560     		str	r5, [r2]
 185 001e C454     		strb	r4, [r0, r3]
 186              		.loc 1 45 0
 187 0020 1368     		ldr	r3, [r2]
 188 0022 5C1C     		adds	r4, r3, #1
 189 0024 1460     		str	r4, [r2]
 190 0026 C154     		strb	r1, [r0, r3]
 191              		.loc 1 46 0
 192 0028 30BC     		pop	{r4, r5}
 193 002a 7047     		bx	lr
 194              		.cfi_endproc
 195              	.LFE3:
 196              		.size	buffer_append_uint32, .-buffer_append_uint32
 197 002c AFF30080 		.section	.text.buffer_append_float16,"ax",%progbits
 198              		.align	2
 199              		.p2align 4,,15
 200              		.global	buffer_append_float16
 201              		.thumb
 202              		.thumb_func
 203              		.type	buffer_append_float16, %function
 204              	buffer_append_float16:
 205              	.LFB4:
 206              		.loc 1 48 0
 207              		.cfi_startproc
 208              		@ args = 0, pretend = 0, frame = 0
 209              		@ frame_needed = 0, uses_anonymous_args = 0
 210              		@ link register save eliminated.
 211              	.LVL4:
 212              		.loc 1 49 0
 213 0000 60EE200A 		fmuls	s1, s0, s1
 214              	.LVL5:
 215              	.LBB6:
 216              	.LBB7:
 217              		.loc 1 25 0
 218 0004 0B68     		ldr	r3, [r1]
 219              	.LBE7:
 220              	.LBE6:
 221              		.loc 1 49 0
 222 0006 FDEEE00A 		ftosizs	s1, s1
 223              		.loc 1 48 0
 224 000a 30B4     		push	{r4, r5}
 225              		.cfi_def_cfa_offset 8
 226              		.cfi_offset 4, -8
ARM GAS  /tmp/ccDixzjA.s 			page 5


 227              		.cfi_offset 5, -4
 228              		.loc 1 49 0
 229 000c 10EE902A 		fmrs	r2, s1	@ int
 230 0010 92B2     		uxth	r2, r2
 231              	.LVL6:
 232              	.LBB9:
 233              	.LBB8:
 234              		.loc 1 25 0
 235 0012 5D1C     		adds	r5, r3, #1
 236 0014 42F30724 		sbfx	r4, r2, #8, #8
 237 0018 0D60     		str	r5, [r1]
 238 001a C454     		strb	r4, [r0, r3]
 239              		.loc 1 26 0
 240 001c 0B68     		ldr	r3, [r1]
 241 001e 5C1C     		adds	r4, r3, #1
 242 0020 0C60     		str	r4, [r1]
 243 0022 C254     		strb	r2, [r0, r3]
 244              	.LBE8:
 245              	.LBE9:
 246              		.loc 1 50 0
 247 0024 30BC     		pop	{r4, r5}
 248 0026 7047     		bx	lr
 249              		.cfi_endproc
 250              	.LFE4:
 251              		.size	buffer_append_float16, .-buffer_append_float16
 252 0028 AFF30080 		.section	.text.buffer_append_float32,"ax",%progbits
 252      AFF30080 
 253              		.align	2
 254              		.p2align 4,,15
 255              		.global	buffer_append_float32
 256              		.thumb
 257              		.thumb_func
 258              		.type	buffer_append_float32, %function
 259              	buffer_append_float32:
 260              	.LFB5:
 261              		.loc 1 52 0
 262              		.cfi_startproc
 263              		@ args = 0, pretend = 0, frame = 0
 264              		@ frame_needed = 0, uses_anonymous_args = 0
 265              		@ link register save eliminated.
 266              	.LVL7:
 267              		.loc 1 53 0
 268 0000 60EE200A 		fmuls	s1, s0, s1
 269              	.LVL8:
 270              		.loc 1 52 0
 271 0004 0A46     		mov	r2, r1
 272              		.loc 1 53 0
 273 0006 FDEEE00A 		ftosizs	s1, s1
 274 000a 10EE901A 		fmrs	r1, s1	@ int
 275              	.LVL9:
 276 000e FFF7FEBF 		b	buffer_append_int32
 277              	.LVL10:
 278              		.cfi_endproc
 279              	.LFE5:
 280              		.size	buffer_append_float32, .-buffer_append_float32
 281 0012 00BFAFF3 		.section	.text.buffer_append_float32_auto,"ax",%progbits
 281      0080AFF3 
ARM GAS  /tmp/ccDixzjA.s 			page 6


 281      0080AFF3 
 281      0080
 282              		.align	2
 283              		.p2align 4,,15
 284              		.global	buffer_append_float32_auto
 285              		.thumb
 286              		.thumb_func
 287              		.type	buffer_append_float32_auto, %function
 288              	buffer_append_float32_auto:
 289              	.LFB6:
 290              		.loc 1 96 0
 291              		.cfi_startproc
 292              		@ args = 0, pretend = 0, frame = 8
 293              		@ frame_needed = 0, uses_anonymous_args = 0
 294              	.LVL11:
 295 0000 70B5     		push	{r4, r5, r6, lr}
 296              		.cfi_def_cfa_offset 16
 297              		.cfi_offset 4, -16
 298              		.cfi_offset 5, -12
 299              		.cfi_offset 6, -8
 300              		.cfi_offset 14, -4
 301 0002 82B0     		sub	sp, sp, #8
 302              		.cfi_def_cfa_offset 24
 303              		.loc 1 97 0
 304 0004 02AB     		add	r3, sp, #8
 305 0006 0024     		movs	r4, #0
 306 0008 43F8044D 		str	r4, [r3, #-4]!
 307              		.loc 1 96 0
 308 000c 0646     		mov	r6, r0
 309              		.loc 1 98 0
 310 000e 1846     		mov	r0, r3
 311              	.LVL12:
 312              		.loc 1 96 0
 313 0010 0D46     		mov	r5, r1
 314              		.loc 1 98 0
 315 0012 FFF7FEFF 		bl	frexpf
 316              	.LVL13:
 317              		.loc 1 102 0
 318 0016 F6EE007A 		fconsts	s15, #96
 319              		.loc 1 99 0
 320 001a B0EEC07A 		fabss	s14, s0
 321              	.LVL14:
 322              		.loc 1 102 0
 323 001e B4EEE77A 		fcmpes	s14, s15
 324 0022 F1EE10FA 		fmstat
 325 0026 11DA     		bge	.L8
 326 0028 0199     		ldr	r1, [sp, #4]
 327              	.LVL15:
 328              	.L9:
 329              		.loc 1 108 0
 330 002a B5EEC00A 		fcmpezs	s0
 331              		.loc 1 107 0
 332 002e C9B2     		uxtb	r1, r1
 333 0030 44EAC151 		orr	r1, r4, r1, lsl #23
 334              	.LVL16:
 335              		.loc 1 108 0
 336 0034 F1EE10FA 		fmstat
ARM GAS  /tmp/ccDixzjA.s 			page 7


 337              		.loc 1 109 0
 338 0038 48BF     		it	mi
 339 003a 41F00041 		orrmi	r1, r1, #-2147483648
 340              	.LVL17:
 341              		.loc 1 112 0
 342 003e 3046     		mov	r0, r6
 343 0040 2A46     		mov	r2, r5
 344              		.loc 1 113 0
 345 0042 02B0     		add	sp, sp, #8
 346              		@ sp needed
 347 0044 BDE87040 		pop	{r4, r5, r6, lr}
 348              	.LVL18:
 349              		.loc 1 112 0
 350 0048 FFF7FEBF 		b	buffer_append_uint32
 351              	.LVL19:
 352              	.L8:
 353              		.loc 1 103 0
 354 004c 77EE677A 		fsubs	s15, s14, s15
 355 0050 DFED076A 		flds	s13, .L14
 356              		.loc 1 104 0
 357 0054 0199     		ldr	r1, [sp, #4]
 358              		.loc 1 103 0
 359 0056 77EEA77A 		fadds	s15, s15, s15
 360              		.loc 1 104 0
 361 005a 7E31     		adds	r1, r1, #126
 362              		.loc 1 103 0
 363 005c 67EEA67A 		fmuls	s15, s15, s13
 364 0060 FCEEE77A 		ftouizs	s15, s15
 365 0064 17EE904A 		fmrs	r4, s15	@ int
 366 0068 C4F31604 		ubfx	r4, r4, #0, #23
 367 006c DDE7     		b	.L9
 368              	.L15:
 369 006e 00BF     		.align	2
 370              	.L14:
 371 0070 0000004B 		.word	1258291200
 372              		.cfi_endproc
 373              	.LFE6:
 374              		.size	buffer_append_float32_auto, .-buffer_append_float32_auto
 375 0074 AFF30080 		.section	.text.buffer_get_int16,"ax",%progbits
 375      AFF30080 
 375      AFF30080 
 376              		.align	2
 377              		.p2align 4,,15
 378              		.global	buffer_get_int16
 379              		.thumb
 380              		.thumb_func
 381              		.type	buffer_get_int16, %function
 382              	buffer_get_int16:
 383              	.LFB7:
 384              		.loc 1 115 0
 385              		.cfi_startproc
 386              		@ args = 0, pretend = 0, frame = 0
 387              		@ frame_needed = 0, uses_anonymous_args = 0
 388              		@ link register save eliminated.
 389              	.LVL20:
 390              		.loc 1 116 0
 391 0000 0B68     		ldr	r3, [r1]
ARM GAS  /tmp/ccDixzjA.s 			page 8


 392              		.loc 1 117 0
 393 0002 C218     		adds	r2, r0, r3
 394              		.loc 1 116 0
 395 0004 C05C     		ldrb	r0, [r0, r3]	@ zero_extendqisi2
 396              	.LVL21:
 397 0006 5278     		ldrb	r2, [r2, #1]	@ zero_extendqisi2
 398              		.loc 1 118 0
 399 0008 0233     		adds	r3, r3, #2
 400              		.loc 1 116 0
 401 000a 42EA0020 		orr	r0, r2, r0, lsl #8
 402              	.LVL22:
 403              		.loc 1 118 0
 404 000e 0B60     		str	r3, [r1]
 405              		.loc 1 120 0
 406 0010 00B2     		sxth	r0, r0
 407              	.LVL23:
 408 0012 7047     		bx	lr
 409              		.cfi_endproc
 410              	.LFE7:
 411              		.size	buffer_get_int16, .-buffer_get_int16
 412 0014 AFF30080 		.section	.text.buffer_get_uint16,"ax",%progbits
 412      AFF30080 
 412      AFF30080 
 413              		.align	2
 414              		.p2align 4,,15
 415              		.global	buffer_get_uint16
 416              		.thumb
 417              		.thumb_func
 418              		.type	buffer_get_uint16, %function
 419              	buffer_get_uint16:
 420              	.LFB8:
 421              		.loc 1 122 0
 422              		.cfi_startproc
 423              		@ args = 0, pretend = 0, frame = 0
 424              		@ frame_needed = 0, uses_anonymous_args = 0
 425              		@ link register save eliminated.
 426              	.LVL24:
 427              		.loc 1 123 0
 428 0000 0B68     		ldr	r3, [r1]
 429              		.loc 1 124 0
 430 0002 C218     		adds	r2, r0, r3
 431              		.loc 1 123 0
 432 0004 C05C     		ldrb	r0, [r0, r3]	@ zero_extendqisi2
 433              	.LVL25:
 434 0006 5278     		ldrb	r2, [r2, #1]	@ zero_extendqisi2
 435              	.LVL26:
 436              		.loc 1 125 0
 437 0008 0233     		adds	r3, r3, #2
 438 000a 0B60     		str	r3, [r1]
 439              		.loc 1 127 0
 440 000c 42EA0020 		orr	r0, r2, r0, lsl #8
 441              	.LVL27:
 442 0010 7047     		bx	lr
 443              		.cfi_endproc
 444              	.LFE8:
 445              		.size	buffer_get_uint16, .-buffer_get_uint16
 446 0012 00BFAFF3 		.section	.text.buffer_get_int32,"ax",%progbits
ARM GAS  /tmp/ccDixzjA.s 			page 9


 446      0080AFF3 
 446      0080AFF3 
 446      0080
 447              		.align	2
 448              		.p2align 4,,15
 449              		.global	buffer_get_int32
 450              		.thumb
 451              		.thumb_func
 452              		.type	buffer_get_int32, %function
 453              	buffer_get_int32:
 454              	.LFB9:
 455              		.loc 1 129 0
 456              		.cfi_startproc
 457              		@ args = 0, pretend = 0, frame = 0
 458              		@ frame_needed = 0, uses_anonymous_args = 0
 459              		@ link register save eliminated.
 460              	.LVL28:
 461 0000 70B4     		push	{r4, r5, r6}
 462              		.cfi_def_cfa_offset 12
 463              		.cfi_offset 4, -12
 464              		.cfi_offset 5, -8
 465              		.cfi_offset 6, -4
 466              		.loc 1 130 0
 467 0002 0B68     		ldr	r3, [r1]
 468              		.loc 1 133 0
 469 0004 C218     		adds	r2, r0, r3
 470              		.loc 1 130 0
 471 0006 C65C     		ldrb	r6, [r0, r3]	@ zero_extendqisi2
 472              		.loc 1 133 0
 473 0008 D578     		ldrb	r5, [r2, #3]	@ zero_extendqisi2
 474              		.loc 1 131 0
 475 000a 5478     		ldrb	r4, [r2, #1]	@ zero_extendqisi2
 476              		.loc 1 132 0
 477 000c 9078     		ldrb	r0, [r2, #2]	@ zero_extendqisi2
 478              	.LVL29:
 479              		.loc 1 130 0
 480 000e 45EA0662 		orr	r2, r5, r6, lsl #24
 481              		.loc 1 131 0
 482 0012 42EA0442 		orr	r2, r2, r4, lsl #16
 483              	.LVL30:
 484              		.loc 1 134 0
 485 0016 0433     		adds	r3, r3, #4
 486              		.loc 1 136 0
 487 0018 42EA0020 		orr	r0, r2, r0, lsl #8
 488              	.LVL31:
 489              		.loc 1 134 0
 490 001c 0B60     		str	r3, [r1]
 491              		.loc 1 136 0
 492 001e 70BC     		pop	{r4, r5, r6}
 493 0020 7047     		bx	lr
 494              		.cfi_endproc
 495              	.LFE9:
 496              		.size	buffer_get_int32, .-buffer_get_int32
 497 0022 00BFAFF3 		.section	.text.buffer_get_uint32,"ax",%progbits
 497      0080AFF3 
 497      0080AFF3 
 497      0080
ARM GAS  /tmp/ccDixzjA.s 			page 10


 498              		.align	2
 499              		.p2align 4,,15
 500              		.global	buffer_get_uint32
 501              		.thumb
 502              		.thumb_func
 503              		.type	buffer_get_uint32, %function
 504              	buffer_get_uint32:
 505              	.LFB10:
 506              		.loc 1 138 0
 507              		.cfi_startproc
 508              		@ args = 0, pretend = 0, frame = 0
 509              		@ frame_needed = 0, uses_anonymous_args = 0
 510              		@ link register save eliminated.
 511              	.LVL32:
 512 0000 70B4     		push	{r4, r5, r6}
 513              		.cfi_def_cfa_offset 12
 514              		.cfi_offset 4, -12
 515              		.cfi_offset 5, -8
 516              		.cfi_offset 6, -4
 517              		.loc 1 139 0
 518 0002 0B68     		ldr	r3, [r1]
 519              		.loc 1 142 0
 520 0004 C218     		adds	r2, r0, r3
 521              		.loc 1 139 0
 522 0006 C65C     		ldrb	r6, [r0, r3]	@ zero_extendqisi2
 523              		.loc 1 142 0
 524 0008 D578     		ldrb	r5, [r2, #3]	@ zero_extendqisi2
 525              		.loc 1 140 0
 526 000a 5478     		ldrb	r4, [r2, #1]	@ zero_extendqisi2
 527              		.loc 1 141 0
 528 000c 9078     		ldrb	r0, [r2, #2]	@ zero_extendqisi2
 529              	.LVL33:
 530              		.loc 1 139 0
 531 000e 45EA0662 		orr	r2, r5, r6, lsl #24
 532              		.loc 1 140 0
 533 0012 42EA0442 		orr	r2, r2, r4, lsl #16
 534              	.LVL34:
 535              		.loc 1 143 0
 536 0016 0433     		adds	r3, r3, #4
 537              		.loc 1 145 0
 538 0018 42EA0020 		orr	r0, r2, r0, lsl #8
 539              	.LVL35:
 540              		.loc 1 143 0
 541 001c 0B60     		str	r3, [r1]
 542              		.loc 1 145 0
 543 001e 70BC     		pop	{r4, r5, r6}
 544 0020 7047     		bx	lr
 545              		.cfi_endproc
 546              	.LFE10:
 547              		.size	buffer_get_uint32, .-buffer_get_uint32
 548 0022 00BFAFF3 		.section	.text.buffer_get_float16,"ax",%progbits
 548      0080AFF3 
 548      0080AFF3 
 548      0080
 549              		.align	2
 550              		.p2align 4,,15
 551              		.global	buffer_get_float16
ARM GAS  /tmp/ccDixzjA.s 			page 11


 552              		.thumb
 553              		.thumb_func
 554              		.type	buffer_get_float16, %function
 555              	buffer_get_float16:
 556              	.LFB11:
 557              		.loc 1 147 0
 558              		.cfi_startproc
 559              		@ args = 0, pretend = 0, frame = 0
 560              		@ frame_needed = 0, uses_anonymous_args = 0
 561              		@ link register save eliminated.
 562              	.LVL36:
 563              	.LBB10:
 564              	.LBB11:
 565              		.loc 1 116 0
 566 0000 0B68     		ldr	r3, [r1]
 567              		.loc 1 117 0
 568 0002 C218     		adds	r2, r0, r3
 569              		.loc 1 116 0
 570 0004 C05C     		ldrb	r0, [r0, r3]	@ zero_extendqisi2
 571              	.LVL37:
 572 0006 5278     		ldrb	r2, [r2, #1]	@ zero_extendqisi2
 573 0008 42EA0022 		orr	r2, r2, r0, lsl #8
 574              	.LVL38:
 575              	.LBE11:
 576              	.LBE10:
 577              		.loc 1 148 0
 578 000c 12B2     		sxth	r2, r2
 579              	.LVL39:
 580 000e 07EE102A 		fmsr	s14, r2	@ int
 581 0012 F8EEC77A 		fsitos	s15, s14
 582              	.LBB13:
 583              	.LBB12:
 584              		.loc 1 118 0
 585 0016 0233     		adds	r3, r3, #2
 586              	.LVL40:
 587 0018 0B60     		str	r3, [r1]
 588              	.LVL41:
 589              	.LBE12:
 590              	.LBE13:
 591              		.loc 1 149 0
 592 001a 87EE800A 		fdivs	s0, s15, s0
 593              	.LVL42:
 594 001e 7047     		bx	lr
 595              		.cfi_endproc
 596              	.LFE11:
 597              		.size	buffer_get_float16, .-buffer_get_float16
 598              		.section	.text.buffer_get_float32,"ax",%progbits
 599              		.align	2
 600              		.p2align 4,,15
 601              		.global	buffer_get_float32
 602              		.thumb
 603              		.thumb_func
 604              		.type	buffer_get_float32, %function
 605              	buffer_get_float32:
 606              	.LFB12:
 607              		.loc 1 151 0
 608              		.cfi_startproc
ARM GAS  /tmp/ccDixzjA.s 			page 12


 609              		@ args = 0, pretend = 0, frame = 0
 610              		@ frame_needed = 0, uses_anonymous_args = 0
 611              	.LVL43:
 612 0000 08B5     		push	{r3, lr}
 613              		.cfi_def_cfa_offset 8
 614              		.cfi_offset 3, -8
 615              		.cfi_offset 14, -4
 616 0002 2DED028B 		fstmfdd	sp!, {d8}
 617              		.cfi_def_cfa_offset 16
 618              		.cfi_offset 80, -16
 619              		.loc 1 151 0
 620 0006 B0EE408A 		fcpys	s16, s0
 621              		.loc 1 152 0
 622 000a FFF7FEFF 		bl	buffer_get_int32
 623              	.LVL44:
 624 000e 07EE900A 		fmsr	s15, r0	@ int
 625 0012 B8EEE70A 		fsitos	s0, s15
 626              		.loc 1 153 0
 627 0016 80EE080A 		fdivs	s0, s0, s16
 628 001a BDEC028B 		fldmfdd	sp!, {d8}
 629              	.LVL45:
 630 001e 08BD     		pop	{r3, pc}
 631              		.cfi_endproc
 632              	.LFE12:
 633              		.size	buffer_get_float32, .-buffer_get_float32
 634              		.section	.text.buffer_get_float32_auto,"ax",%progbits
 635              		.align	2
 636              		.p2align 4,,15
 637              		.global	buffer_get_float32_auto
 638              		.thumb
 639              		.thumb_func
 640              		.type	buffer_get_float32_auto, %function
 641              	buffer_get_float32_auto:
 642              	.LFB13:
 643              		.loc 1 155 0
 644              		.cfi_startproc
 645              		@ args = 0, pretend = 0, frame = 0
 646              		@ frame_needed = 0, uses_anonymous_args = 0
 647              	.LVL46:
 648 0000 08B5     		push	{r3, lr}
 649              		.cfi_def_cfa_offset 8
 650              		.cfi_offset 3, -8
 651              		.cfi_offset 14, -4
 652              		.loc 1 156 0
 653 0002 FFF7FEFF 		bl	buffer_get_uint32
 654              	.LVL47:
 655              		.loc 1 158 0
 656 0006 C0F3C753 		ubfx	r3, r0, #23, #8
 657              	.LVL48:
 658              		.loc 1 159 0
 659 000a C0F31602 		ubfx	r2, r0, #0, #23
 660              	.LVL49:
 661              		.loc 1 160 0
 662 000e 00F00040 		and	r0, r0, #-2147483648
 663              	.LVL50:
 664              		.loc 1 163 0
 665 0012 03B9     		cbnz	r3, .L23
ARM GAS  /tmp/ccDixzjA.s 			page 13


 666              		.loc 1 163 0 is_stmt 0 discriminator 1
 667 0014 92B1     		cbz	r2, .L26
 668              	.L23:
 669              		.loc 1 164 0 is_stmt 1
 670 0016 07EE902A 		fmsr	s15, r2	@ int
 671 001a B8EEE77A 		fsitos	s14, s15
 672 001e DFED097A 		flds	s15, .L30
 673 0022 B6EE000A 		fconsts	s0, #96
 674 0026 A7EE270A 		vfma.f32	s0, s14, s15
 675              	.LVL51:
 676              		.loc 1 165 0
 677 002a 7E3B     		subs	r3, r3, #126
 678              	.LVL52:
 679              	.L24:
 680              		.loc 1 168 0
 681 002c 08B1     		cbz	r0, .L25
 682              		.loc 1 169 0
 683 002e B1EE400A 		fnegs	s0, s0
 684              	.LVL53:
 685              	.L25:
 686              		.loc 1 172 0
 687 0032 1846     		mov	r0, r3
 688              	.LVL54:
 689              		.loc 1 173 0
 690 0034 BDE80840 		pop	{r3, lr}
 691              	.LVL55:
 692              		.loc 1 172 0
 693 0038 FFF7FEBF 		b	ldexpf
 694              	.LVL56:
 695              	.L26:
 696              		.loc 1 162 0
 697 003c 9FED020A 		flds	s0, .L30+4
 698 0040 F4E7     		b	.L24
 699              	.L31:
 700 0042 00BF     		.align	2
 701              	.L30:
 702 0044 00008033 		.word	864026624
 703 0048 00000000 		.word	0
 704              		.cfi_endproc
 705              	.LFE13:
 706              		.size	buffer_get_float32_auto, .-buffer_get_float32_auto
 707 004c AFF30080 		.text
 708              	.Letext0:
 709              		.file 2 "/usr/include/newlib/machine/_default_types.h"
 710              		.file 3 "/usr/include/newlib/stdint.h"
 711              		.file 4 "/usr/include/newlib/math.h"