ARM GAS  /tmp/ccZ557wd.s 			page 1


   1              		.syntax unified
   2              		.cpu cortex-m4
   3              		.eabi_attribute 27, 3
   4              		.eabi_attribute 28, 1
   5              		.fpu fpv4-sp-d16
   6              		.eabi_attribute 20, 1
   7              		.eabi_attribute 21, 1
   8              		.eabi_attribute 23, 3
   9              		.eabi_attribute 24, 1
  10              		.eabi_attribute 25, 1
  11              		.eabi_attribute 26, 1
  12              		.eabi_attribute 30, 2
  13              		.eabi_attribute 34, 1
  14              		.eabi_attribute 18, 4
  15              		.thumb
  16              		.file	"can.c"
  17              		.text
  18              	.Ltext0:
  19              		.cfi_sections	.debug_frame
  20              		.section	.text.canInit,"ax",%progbits
  21              		.align	2
  22              		.p2align 4,,15
  23              		.global	canInit
  24              		.thumb
  25              		.thumb_func
  26              		.type	canInit, %function
  27              	canInit:
  28              	.LFB256:
  29              		.file 1 "ChibiOS_3.0.2/os/hal/src/can.c"
  30              		.loc 1 56 0
  31              		.cfi_startproc
  32              		@ args = 0, pretend = 0, frame = 0
  33              		@ frame_needed = 0, uses_anonymous_args = 0
  34              		@ link register save eliminated.
  35              		.loc 1 58 0
  36 0000 FFF7FEBF 		b	can_lld_init
  37              	.LVL0:
  38              		.cfi_endproc
  39              	.LFE256:
  40              		.size	canInit, .-canInit
  41 0004 AFF30080 		.section	.text.canObjectInit,"ax",%progbits
  41      AFF30080 
  41      AFF30080 
  42              		.align	2
  43              		.p2align 4,,15
  44              		.global	canObjectInit
  45              		.thumb
  46              		.thumb_func
  47              		.type	canObjectInit, %function
  48              	canObjectInit:
  49              	.LFB257:
  50              		.loc 1 68 0
  51              		.cfi_startproc
  52              		@ args = 0, pretend = 0, frame = 0
  53              		@ frame_needed = 0, uses_anonymous_args = 0
  54              		@ link register save eliminated.
  55              	.LVL1:
ARM GAS  /tmp/ccZ557wd.s 			page 2


  56 0000 2DE9F001 		push	{r4, r5, r6, r7, r8}
  57              		.cfi_def_cfa_offset 20
  58              		.cfi_offset 4, -20
  59              		.cfi_offset 5, -16
  60              		.cfi_offset 6, -12
  61              		.cfi_offset 7, -8
  62              		.cfi_offset 8, -4
  63              		.loc 1 72 0
  64 0004 00F10802 		add	r2, r0, #8
  65              	.LVL2:
  66              		.loc 1 70 0
  67 0008 4FF00108 		mov	r8, #1
  68              		.loc 1 74 0
  69 000c 00F11807 		add	r7, r0, #24
  70              		.loc 1 75 0
  71 0010 00F11C06 		add	r6, r0, #28
  72              		.loc 1 76 0
  73 0014 00F12005 		add	r5, r0, #32
  74              		.loc 1 78 0
  75 0018 00F12404 		add	r4, r0, #36
  76              		.loc 1 73 0
  77 001c 00F11003 		add	r3, r0, #16
  78              	.LVL3:
  79              		.loc 1 71 0
  80 0020 4FF0000C 		mov	ip, #0
  81              		.loc 1 79 0
  82 0024 00F12801 		add	r1, r0, #40
  83              		.loc 1 70 0
  84 0028 80F80080 		strb	r8, [r0]
  85              	.LBB174:
  86              	.LBB175:
  87              	.LBB176:
  88              		.file 2 "ChibiOS_3.0.2/os/rt/include/chevents.h"
  89              		.loc 2 172 0
  90 002c 8761     		str	r7, [r0, #24]
  91              	.LBE176:
  92              	.LBE175:
  93              	.LBE174:
  94              	.LBB177:
  95              	.LBB178:
  96              	.LBB179:
  97 002e C661     		str	r6, [r0, #28]
  98              	.LBE179:
  99              	.LBE178:
 100              	.LBE177:
 101              	.LBB180:
 102              	.LBB181:
 103              	.LBB182:
 104 0030 0562     		str	r5, [r0, #32]
 105              	.LBE182:
 106              	.LBE181:
 107              	.LBE180:
 108              	.LBB183:
 109              	.LBB184:
 110              	.LBB185:
 111 0032 4462     		str	r4, [r0, #36]
 112              	.LBE185:
ARM GAS  /tmp/ccZ557wd.s 			page 3


 113              	.LBE184:
 114              	.LBE183:
 115              		.loc 1 71 0
 116 0034 C0F804C0 		str	ip, [r0, #4]
 117              	.LBB186:
 118              	.LBB187:
 119              	.LBB188:
 120              		.loc 2 172 0
 121 0038 8162     		str	r1, [r0, #40]
 122              	.LBE188:
 123              	.LBE187:
 124              	.LBE186:
 125              	.LBB189:
 126              	.LBB190:
 127              	.LBB191:
 128              	.LBB192:
 129              		.file 3 "ChibiOS_3.0.2/os/rt/include/chschd.h"
 130              		.loc 3 604 0
 131 003a 8260     		str	r2, [r0, #8]
 132              		.loc 3 605 0
 133 003c C260     		str	r2, [r0, #12]
 134              	.LBE192:
 135              	.LBE191:
 136              	.LBE190:
 137              	.LBE189:
 138              	.LBB193:
 139              	.LBB194:
 140              	.LBB195:
 141              	.LBB196:
 142              		.loc 3 604 0
 143 003e 0361     		str	r3, [r0, #16]
 144              		.loc 3 605 0
 145 0040 4361     		str	r3, [r0, #20]
 146              	.LVL4:
 147              	.LBE196:
 148              	.LBE195:
 149              	.LBE194:
 150              	.LBE193:
 151              		.loc 1 81 0
 152 0042 BDE8F001 		pop	{r4, r5, r6, r7, r8}
 153 0046 7047     		bx	lr
 154              		.cfi_endproc
 155              	.LFE257:
 156              		.size	canObjectInit, .-canObjectInit
 157 0048 AFF30080 		.section	.text.canStart,"ax",%progbits
 157      AFF30080 
 158              		.align	2
 159              		.p2align 4,,15
 160              		.global	canStart
 161              		.thumb
 162              		.thumb_func
 163              		.type	canStart, %function
 164              	canStart:
 165              	.LFB258:
 166              		.loc 1 95 0
 167              		.cfi_startproc
 168              		@ args = 0, pretend = 0, frame = 0
ARM GAS  /tmp/ccZ557wd.s 			page 4


 169              		@ frame_needed = 0, uses_anonymous_args = 0
 170              	.LVL5:
 171 0000 10B5     		push	{r4, lr}
 172              		.cfi_def_cfa_offset 8
 173              		.cfi_offset 4, -8
 174              		.cfi_offset 14, -4
 175              	.LBB197:
 176              	.LBB198:
 177              	.LBB199:
 178              	.LBB200:
 179              	.LBB201:
 180              		.file 4 "ChibiOS_3.0.2/os/ext/CMSIS/include/core_cmFunc.h"
 181              		.loc 4 546 0
 182 0002 2023     		movs	r3, #32
 183              	.LBE201:
 184              	.LBE200:
 185              	.LBE199:
 186              	.LBE198:
 187              	.LBE197:
 188              		.loc 1 95 0
 189 0004 0446     		mov	r4, r0
 190              	.LBB206:
 191              	.LBB205:
 192              	.LBB204:
 193              	.LBB203:
 194              	.LBB202:
 195              		.loc 4 546 0
 196              	@ 546 "ChibiOS_3.0.2/os/ext/CMSIS/include/core_cmFunc.h" 1
 197 0006 83F31188 		MSR basepri, r3
 198              	@ 0 "" 2
 199              		.thumb
 200              	.LBE202:
 201              	.LBE203:
 202              	.LBE204:
 203              	.LBE205:
 204              	.LBE206:
 205              		.loc 1 103 0
 206 000a 0223     		movs	r3, #2
 207 000c 0370     		strb	r3, [r0]
 208              		.loc 1 104 0
 209 000e 4160     		str	r1, [r0, #4]
 210              		.loc 1 108 0
 211 0010 FFF7FEFF 		bl	can_lld_start
 212              	.LVL6:
 213              		.loc 1 111 0
 214 0014 0323     		movs	r3, #3
 215 0016 2370     		strb	r3, [r4]
 216              	.LVL7:
 217              	.LBB207:
 218              	.LBB208:
 219              	.LBB209:
 220              	.LBB210:
 221              	.LBB211:
 222              	.LBB212:
 223              		.loc 4 546 0
 224 0018 0023     		movs	r3, #0
 225              	@ 546 "ChibiOS_3.0.2/os/ext/CMSIS/include/core_cmFunc.h" 1
ARM GAS  /tmp/ccZ557wd.s 			page 5


 226 001a 83F31188 		MSR basepri, r3
 227              	@ 0 "" 2
 228              		.thumb
 229 001e 10BD     		pop	{r4, pc}
 230              	.LBE212:
 231              	.LBE211:
 232              	.LBE210:
 233              	.LBE209:
 234              	.LBE208:
 235              	.LBE207:
 236              		.cfi_endproc
 237              	.LFE258:
 238              		.size	canStart, .-canStart
 239              		.section	.text.canStop,"ax",%progbits
 240              		.align	2
 241              		.p2align 4,,15
 242              		.global	canStop
 243              		.thumb
 244              		.thumb_func
 245              		.type	canStop, %function
 246              	canStop:
 247              	.LFB259:
 248              		.loc 1 122 0
 249              		.cfi_startproc
 250              		@ args = 0, pretend = 0, frame = 0
 251              		@ frame_needed = 0, uses_anonymous_args = 0
 252              	.LVL8:
 253 0000 10B5     		push	{r4, lr}
 254              		.cfi_def_cfa_offset 8
 255              		.cfi_offset 4, -8
 256              		.cfi_offset 14, -4
 257              	.LBB213:
 258              	.LBB214:
 259              	.LBB215:
 260              	.LBB216:
 261              	.LBB217:
 262              		.loc 4 546 0
 263 0002 2023     		movs	r3, #32
 264              	.LBE217:
 265              	.LBE216:
 266              	.LBE215:
 267              	.LBE214:
 268              	.LBE213:
 269              		.loc 1 122 0
 270 0004 0446     		mov	r4, r0
 271              	.LBB222:
 272              	.LBB221:
 273              	.LBB220:
 274              	.LBB219:
 275              	.LBB218:
 276              		.loc 4 546 0
 277              	@ 546 "ChibiOS_3.0.2/os/ext/CMSIS/include/core_cmFunc.h" 1
 278 0006 83F31188 		MSR basepri, r3
 279              	@ 0 "" 2
 280              		.thumb
 281              	.LBE218:
 282              	.LBE219:
ARM GAS  /tmp/ccZ557wd.s 			page 6


 283              	.LBE220:
 284              	.LBE221:
 285              	.LBE222:
 286              		.loc 1 131 0
 287 000a FFF7FEFF 		bl	can_lld_stop
 288              	.LVL9:
 289              		.loc 1 132 0
 290 000e 2046     		mov	r0, r4
 291 0010 0123     		movs	r3, #1
 292 0012 00F8103B 		strb	r3, [r0], #16
 293              	.LVL10:
 294              	.LBB223:
 295              	.LBB224:
 296              		.file 5 "ChibiOS_3.0.2/os/hal/osal/rt/osal.h"
 297              		.loc 5 810 0
 298 0016 6FF00101 		mvn	r1, #1
 299 001a FFF7FEFF 		bl	chThdDequeueAllI
 300              	.LVL11:
 301              	.LBE224:
 302              	.LBE223:
 303              	.LBB225:
 304              	.LBB226:
 305 001e 04F10800 		add	r0, r4, #8
 306              	.LVL12:
 307 0022 6FF00101 		mvn	r1, #1
 308 0026 FFF7FEFF 		bl	chThdDequeueAllI
 309              	.LVL13:
 310              	.LBE226:
 311              	.LBE225:
 312              	.LBB227:
 313              	.LBB228:
 314              		.loc 5 600 0
 315 002a FFF7FEFF 		bl	chSchRescheduleS
 316              	.LVL14:
 317              	.LBE228:
 318              	.LBE227:
 319              	.LBB229:
 320              	.LBB230:
 321              	.LBB231:
 322              	.LBB232:
 323              	.LBB233:
 324              	.LBB234:
 325              		.loc 4 546 0
 326 002e 0023     		movs	r3, #0
 327              	@ 546 "ChibiOS_3.0.2/os/ext/CMSIS/include/core_cmFunc.h" 1
 328 0030 83F31188 		MSR basepri, r3
 329              	@ 0 "" 2
 330              		.thumb
 331 0034 10BD     		pop	{r4, pc}
 332              	.LBE234:
 333              	.LBE233:
 334              	.LBE232:
 335              	.LBE231:
 336              	.LBE230:
 337              	.LBE229:
 338              		.cfi_endproc
 339              	.LFE259:
ARM GAS  /tmp/ccZ557wd.s 			page 7


 340              		.size	canStop, .-canStop
 341 0036 00BFAFF3 		.section	.text.canTransmit,"ax",%progbits
 341      0080AFF3 
 341      0080
 342              		.align	2
 343              		.p2align 4,,15
 344              		.global	canTransmit
 345              		.thumb
 346              		.thumb_func
 347              		.type	canTransmit, %function
 348              	canTransmit:
 349              	.LFB260:
 350              		.loc 1 166 0
 351              		.cfi_startproc
 352              		@ args = 0, pretend = 0, frame = 0
 353              		@ frame_needed = 0, uses_anonymous_args = 0
 354              	.LVL15:
 355 0000 2DE9F843 		push	{r3, r4, r5, r6, r7, r8, r9, lr}
 356              		.cfi_def_cfa_offset 32
 357              		.cfi_offset 3, -32
 358              		.cfi_offset 4, -28
 359              		.cfi_offset 5, -24
 360              		.cfi_offset 6, -20
 361              		.cfi_offset 7, -16
 362              		.cfi_offset 8, -12
 363              		.cfi_offset 9, -8
 364              		.cfi_offset 14, -4
 365              		.loc 1 166 0
 366 0004 9846     		mov	r8, r3
 367 0006 0446     		mov	r4, r0
 368 0008 0E46     		mov	r6, r1
 369 000a 9146     		mov	r9, r2
 370              	.LBB235:
 371              	.LBB236:
 372              	.LBB237:
 373              	.LBB238:
 374              	.LBB239:
 375              		.loc 4 546 0
 376 000c 2023     		movs	r3, #32
 377              	.LVL16:
 378              	@ 546 "ChibiOS_3.0.2/os/ext/CMSIS/include/core_cmFunc.h" 1
 379 000e 83F31188 		MSR basepri, r3
 380              	@ 0 "" 2
 381              		.thumb
 382              	.LBE239:
 383              	.LBE238:
 384              	.LBE237:
 385              	.LBE236:
 386              	.LBE235:
 387              	.LBB240:
 388              		.loc 1 177 0
 389 0012 00F10807 		add	r7, r0, #8
 390              	.LVL17:
 391              	.L6:
 392              	.LBE240:
 393              		.loc 1 175 0 discriminator 1
 394 0016 2578     		ldrb	r5, [r4]	@ zero_extendqisi2
ARM GAS  /tmp/ccZ557wd.s 			page 8


 395 0018 042D     		cmp	r5, #4
 396 001a 3146     		mov	r1, r6
 397 001c 2046     		mov	r0, r4
 398 001e 02D0     		beq	.L9
 399              	.LVL18:
 400              		.loc 1 175 0 is_stmt 0 discriminator 2
 401 0020 FFF7FEFF 		bl	can_lld_is_tx_empty
 402              	.LVL19:
 403 0024 50B9     		cbnz	r0, .L18
 404              	.L9:
 405              	.LVL20:
 406              	.LBB249:
 407              	.LBB241:
 408              	.LBB242:
 409              		.loc 5 784 0 is_stmt 1
 410 0026 3846     		mov	r0, r7
 411 0028 4146     		mov	r1, r8
 412 002a FFF7FEFF 		bl	chThdEnqueueTimeoutS
 413              	.LVL21:
 414              	.LBE242:
 415              	.LBE241:
 416              		.loc 1 178 0
 417 002e 0028     		cmp	r0, #0
 418 0030 F1D0     		beq	.L6
 419              	.LVL22:
 420              	.LBB243:
 421              	.LBB244:
 422              	.LBB245:
 423              	.LBB246:
 424              	.LBB247:
 425              	.LBB248:
 426              		.loc 4 546 0
 427 0032 0023     		movs	r3, #0
 428              	@ 546 "ChibiOS_3.0.2/os/ext/CMSIS/include/core_cmFunc.h" 1
 429 0034 83F31188 		MSR basepri, r3
 430              	@ 0 "" 2
 431              		.thumb
 432              	.LBE248:
 433              	.LBE247:
 434              	.LBE246:
 435              	.LBE245:
 436              	.LBE244:
 437              	.LBE243:
 438              		.loc 1 180 0
 439 0038 BDE8F883 		pop	{r3, r4, r5, r6, r7, r8, r9, pc}
 440              	.LVL23:
 441              	.L18:
 442              	.LBE249:
 443              		.loc 1 183 0
 444 003c 2046     		mov	r0, r4
 445 003e 3146     		mov	r1, r6
 446 0040 4A46     		mov	r2, r9
 447 0042 FFF7FEFF 		bl	can_lld_transmit
 448              	.LVL24:
 449              	.LBB250:
 450              	.LBB251:
 451              	.LBB252:
ARM GAS  /tmp/ccZ557wd.s 			page 9


 452              	.LBB253:
 453              	.LBB254:
 454              	.LBB255:
 455              		.loc 4 546 0
 456 0046 0020     		movs	r0, #0
 457              	@ 546 "ChibiOS_3.0.2/os/ext/CMSIS/include/core_cmFunc.h" 1
 458 0048 80F31188 		MSR basepri, r0
 459              	@ 0 "" 2
 460              		.thumb
 461              	.LBE255:
 462              	.LBE254:
 463              	.LBE253:
 464              	.LBE252:
 465              	.LBE251:
 466              	.LBE250:
 467              		.loc 1 186 0
 468 004c BDE8F883 		pop	{r3, r4, r5, r6, r7, r8, r9, pc}
 469              		.cfi_endproc
 470              	.LFE260:
 471              		.size	canTransmit, .-canTransmit
 472              		.section	.text.canReceive,"ax",%progbits
 473              		.align	2
 474              		.p2align 4,,15
 475              		.global	canReceive
 476              		.thumb
 477              		.thumb_func
 478              		.type	canReceive, %function
 479              	canReceive:
 480              	.LFB261:
 481              		.loc 1 213 0
 482              		.cfi_startproc
 483              		@ args = 0, pretend = 0, frame = 0
 484              		@ frame_needed = 0, uses_anonymous_args = 0
 485              	.LVL25:
 486 0000 2DE9F843 		push	{r3, r4, r5, r6, r7, r8, r9, lr}
 487              		.cfi_def_cfa_offset 32
 488              		.cfi_offset 3, -32
 489              		.cfi_offset 4, -28
 490              		.cfi_offset 5, -24
 491              		.cfi_offset 6, -20
 492              		.cfi_offset 7, -16
 493              		.cfi_offset 8, -12
 494              		.cfi_offset 9, -8
 495              		.cfi_offset 14, -4
 496              		.loc 1 213 0
 497 0004 9846     		mov	r8, r3
 498 0006 0446     		mov	r4, r0
 499 0008 0E46     		mov	r6, r1
 500 000a 9146     		mov	r9, r2
 501              	.LBB256:
 502              	.LBB257:
 503              	.LBB258:
 504              	.LBB259:
 505              	.LBB260:
 506              		.loc 4 546 0
 507 000c 2023     		movs	r3, #32
 508              	.LVL26:
ARM GAS  /tmp/ccZ557wd.s 			page 10


 509              	@ 546 "ChibiOS_3.0.2/os/ext/CMSIS/include/core_cmFunc.h" 1
 510 000e 83F31188 		MSR basepri, r3
 511              	@ 0 "" 2
 512              		.thumb
 513              	.LBE260:
 514              	.LBE259:
 515              	.LBE258:
 516              	.LBE257:
 517              	.LBE256:
 518              	.LBB261:
 519              		.loc 1 224 0
 520 0012 00F11007 		add	r7, r0, #16
 521              	.LVL27:
 522              	.L20:
 523              	.LBE261:
 524              		.loc 1 222 0 discriminator 1
 525 0016 2578     		ldrb	r5, [r4]	@ zero_extendqisi2
 526 0018 042D     		cmp	r5, #4
 527 001a 3146     		mov	r1, r6
 528 001c 2046     		mov	r0, r4
 529 001e 02D0     		beq	.L23
 530              	.LVL28:
 531              		.loc 1 222 0 is_stmt 0 discriminator 2
 532 0020 FFF7FEFF 		bl	can_lld_is_rx_nonempty
 533              	.LVL29:
 534 0024 50B9     		cbnz	r0, .L31
 535              	.L23:
 536              	.LVL30:
 537              	.LBB270:
 538              	.LBB262:
 539              	.LBB263:
 540              		.loc 5 784 0 is_stmt 1
 541 0026 3846     		mov	r0, r7
 542 0028 4146     		mov	r1, r8
 543 002a FFF7FEFF 		bl	chThdEnqueueTimeoutS
 544              	.LVL31:
 545              	.LBE263:
 546              	.LBE262:
 547              		.loc 1 225 0
 548 002e 0028     		cmp	r0, #0
 549 0030 F1D0     		beq	.L20
 550              	.LVL32:
 551              	.LBB264:
 552              	.LBB265:
 553              	.LBB266:
 554              	.LBB267:
 555              	.LBB268:
 556              	.LBB269:
 557              		.loc 4 546 0
 558 0032 0023     		movs	r3, #0
 559              	@ 546 "ChibiOS_3.0.2/os/ext/CMSIS/include/core_cmFunc.h" 1
 560 0034 83F31188 		MSR basepri, r3
 561              	@ 0 "" 2
 562              		.thumb
 563              	.LBE269:
 564              	.LBE268:
 565              	.LBE267:
ARM GAS  /tmp/ccZ557wd.s 			page 11


 566              	.LBE266:
 567              	.LBE265:
 568              	.LBE264:
 569              		.loc 1 227 0
 570 0038 BDE8F883 		pop	{r3, r4, r5, r6, r7, r8, r9, pc}
 571              	.LVL33:
 572              	.L31:
 573              	.LBE270:
 574              		.loc 1 230 0
 575 003c 2046     		mov	r0, r4
 576 003e 3146     		mov	r1, r6
 577 0040 4A46     		mov	r2, r9
 578 0042 FFF7FEFF 		bl	can_lld_receive
 579              	.LVL34:
 580              	.LBB271:
 581              	.LBB272:
 582              	.LBB273:
 583              	.LBB274:
 584              	.LBB275:
 585              	.LBB276:
 586              		.loc 4 546 0
 587 0046 0020     		movs	r0, #0
 588              	@ 546 "ChibiOS_3.0.2/os/ext/CMSIS/include/core_cmFunc.h" 1
 589 0048 80F31188 		MSR basepri, r0
 590              	@ 0 "" 2
 591              		.thumb
 592              	.LBE276:
 593              	.LBE275:
 594              	.LBE274:
 595              	.LBE273:
 596              	.LBE272:
 597              	.LBE271:
 598              		.loc 1 233 0
 599 004c BDE8F883 		pop	{r3, r4, r5, r6, r7, r8, r9, pc}
 600              		.cfi_endproc
 601              	.LFE261:
 602              		.size	canReceive, .-canReceive
 603              		.section	.text.canSleep,"ax",%progbits
 604              		.align	2
 605              		.p2align 4,,15
 606              		.global	canSleep
 607              		.thumb
 608              		.thumb_func
 609              		.type	canSleep, %function
 610              	canSleep:
 611              	.LFB262:
 612              		.loc 1 248 0
 613              		.cfi_startproc
 614              		@ args = 0, pretend = 0, frame = 0
 615              		@ frame_needed = 0, uses_anonymous_args = 0
 616              	.LVL35:
 617 0000 10B5     		push	{r4, lr}
 618              		.cfi_def_cfa_offset 8
 619              		.cfi_offset 4, -8
 620              		.cfi_offset 14, -4
 621              	.LBB277:
 622              	.LBB278:
ARM GAS  /tmp/ccZ557wd.s 			page 12


 623              	.LBB279:
 624              	.LBB280:
 625              	.LBB281:
 626              		.loc 4 546 0
 627 0002 2023     		movs	r3, #32
 628              	.LBE281:
 629              	.LBE280:
 630              	.LBE279:
 631              	.LBE278:
 632              	.LBE277:
 633              		.loc 1 248 0
 634 0004 0446     		mov	r4, r0
 635              	.LBB286:
 636              	.LBB285:
 637              	.LBB284:
 638              	.LBB283:
 639              	.LBB282:
 640              		.loc 4 546 0
 641              	@ 546 "ChibiOS_3.0.2/os/ext/CMSIS/include/core_cmFunc.h" 1
 642 0006 83F31188 		MSR basepri, r3
 643              	@ 0 "" 2
 644              		.thumb
 645              	.LBE282:
 646              	.LBE283:
 647              	.LBE284:
 648              	.LBE285:
 649              	.LBE286:
 650              		.loc 1 255 0
 651 000a 0378     		ldrb	r3, [r0]	@ zero_extendqisi2
 652 000c 032B     		cmp	r3, #3
 653 000e 03D0     		beq	.L34
 654              	.LVL36:
 655              	.LBB287:
 656              	.LBB288:
 657              	.LBB289:
 658              	.LBB290:
 659              	.LBB291:
 660              	.LBB292:
 661              		.loc 4 546 0
 662 0010 0023     		movs	r3, #0
 663              	@ 546 "ChibiOS_3.0.2/os/ext/CMSIS/include/core_cmFunc.h" 1
 664 0012 83F31188 		MSR basepri, r3
 665              	@ 0 "" 2
 666              		.thumb
 667 0016 10BD     		pop	{r4, pc}
 668              	.LVL37:
 669              	.L34:
 670              	.LBE292:
 671              	.LBE291:
 672              	.LBE290:
 673              	.LBE289:
 674              	.LBE288:
 675              	.LBE287:
 676              		.loc 1 256 0
 677 0018 FFF7FEFF 		bl	can_lld_sleep
 678              	.LVL38:
 679              		.loc 1 257 0
ARM GAS  /tmp/ccZ557wd.s 			page 13


 680 001c 2046     		mov	r0, r4
 681 001e 0423     		movs	r3, #4
 682 0020 00F8243B 		strb	r3, [r0], #36
 683              	.LVL39:
 684              	.LBB298:
 685              	.LBB299:
 686              		.loc 5 844 0
 687 0024 0021     		movs	r1, #0
 688 0026 FFF7FEFF 		bl	chEvtBroadcastFlagsI
 689              	.LVL40:
 690              	.LBE299:
 691              	.LBE298:
 692              	.LBB300:
 693              	.LBB301:
 694              		.loc 5 600 0
 695 002a FFF7FEFF 		bl	chSchRescheduleS
 696              	.LVL41:
 697              	.LBE301:
 698              	.LBE300:
 699              	.LBB302:
 700              	.LBB297:
 701              	.LBB296:
 702              	.LBB295:
 703              	.LBB294:
 704              	.LBB293:
 705              		.loc 4 546 0
 706 002e 0023     		movs	r3, #0
 707              	@ 546 "ChibiOS_3.0.2/os/ext/CMSIS/include/core_cmFunc.h" 1
 708 0030 83F31188 		MSR basepri, r3
 709              	@ 0 "" 2
 710              		.thumb
 711 0034 10BD     		pop	{r4, pc}
 712              	.LBE293:
 713              	.LBE294:
 714              	.LBE295:
 715              	.LBE296:
 716              	.LBE297:
 717              	.LBE302:
 718              		.cfi_endproc
 719              	.LFE262:
 720              		.size	canSleep, .-canSleep
 721 0036 00BFAFF3 		.section	.text.canWakeup,"ax",%progbits
 721      0080AFF3 
 721      0080
 722              		.align	2
 723              		.p2align 4,,15
 724              		.global	canWakeup
 725              		.thumb
 726              		.thumb_func
 727              		.type	canWakeup, %function
 728              	canWakeup:
 729              	.LFB263:
 730              		.loc 1 271 0
 731              		.cfi_startproc
 732              		@ args = 0, pretend = 0, frame = 0
 733              		@ frame_needed = 0, uses_anonymous_args = 0
 734              	.LVL42:
ARM GAS  /tmp/ccZ557wd.s 			page 14


 735 0000 10B5     		push	{r4, lr}
 736              		.cfi_def_cfa_offset 8
 737              		.cfi_offset 4, -8
 738              		.cfi_offset 14, -4
 739              	.LBB303:
 740              	.LBB304:
 741              	.LBB305:
 742              	.LBB306:
 743              	.LBB307:
 744              		.loc 4 546 0
 745 0002 2023     		movs	r3, #32
 746              	.LBE307:
 747              	.LBE306:
 748              	.LBE305:
 749              	.LBE304:
 750              	.LBE303:
 751              		.loc 1 271 0
 752 0004 0446     		mov	r4, r0
 753              	.LBB312:
 754              	.LBB311:
 755              	.LBB310:
 756              	.LBB309:
 757              	.LBB308:
 758              		.loc 4 546 0
 759              	@ 546 "ChibiOS_3.0.2/os/ext/CMSIS/include/core_cmFunc.h" 1
 760 0006 83F31188 		MSR basepri, r3
 761              	@ 0 "" 2
 762              		.thumb
 763              	.LBE308:
 764              	.LBE309:
 765              	.LBE310:
 766              	.LBE311:
 767              	.LBE312:
 768              		.loc 1 278 0
 769 000a 0378     		ldrb	r3, [r0]	@ zero_extendqisi2
 770 000c 042B     		cmp	r3, #4
 771 000e 03D0     		beq	.L37
 772              	.LVL43:
 773              	.LBB313:
 774              	.LBB314:
 775              	.LBB315:
 776              	.LBB316:
 777              	.LBB317:
 778              	.LBB318:
 779              		.loc 4 546 0
 780 0010 0023     		movs	r3, #0
 781              	@ 546 "ChibiOS_3.0.2/os/ext/CMSIS/include/core_cmFunc.h" 1
 782 0012 83F31188 		MSR basepri, r3
 783              	@ 0 "" 2
 784              		.thumb
 785 0016 10BD     		pop	{r4, pc}
 786              	.LVL44:
 787              	.L37:
 788              	.LBE318:
 789              	.LBE317:
 790              	.LBE316:
 791              	.LBE315:
ARM GAS  /tmp/ccZ557wd.s 			page 15


 792              	.LBE314:
 793              	.LBE313:
 794              		.loc 1 279 0
 795 0018 FFF7FEFF 		bl	can_lld_wakeup
 796              	.LVL45:
 797              		.loc 1 280 0
 798 001c 2046     		mov	r0, r4
 799 001e 0323     		movs	r3, #3
 800 0020 00F8283B 		strb	r3, [r0], #40
 801              	.LVL46:
 802              	.LBB324:
 803              	.LBB325:
 804              		.loc 5 844 0
 805 0024 0021     		movs	r1, #0
 806 0026 FFF7FEFF 		bl	chEvtBroadcastFlagsI
 807              	.LVL47:
 808              	.LBE325:
 809              	.LBE324:
 810              	.LBB326:
 811              	.LBB327:
 812              		.loc 5 600 0
 813 002a FFF7FEFF 		bl	chSchRescheduleS
 814              	.LVL48:
 815              	.LBE327:
 816              	.LBE326:
 817              	.LBB328:
 818              	.LBB323:
 819              	.LBB322:
 820              	.LBB321:
 821              	.LBB320:
 822              	.LBB319:
 823              		.loc 4 546 0
 824 002e 0023     		movs	r3, #0
 825              	@ 546 "ChibiOS_3.0.2/os/ext/CMSIS/include/core_cmFunc.h" 1
 826 0030 83F31188 		MSR basepri, r3
 827              	@ 0 "" 2
 828              		.thumb
 829 0034 10BD     		pop	{r4, pc}
 830              	.LBE319:
 831              	.LBE320:
 832              	.LBE321:
 833              	.LBE322:
 834              	.LBE323:
 835              	.LBE328:
 836              		.cfi_endproc
 837              	.LFE263:
 838              		.size	canWakeup, .-canWakeup
 839 0036 00BFAFF3 		.text
 839      0080AFF3 
 839      0080
 840              	.Letext0:
 841              		.file 6 "/usr/include/newlib/machine/_default_types.h"
 842              		.file 7 "/usr/include/newlib/stdint.h"
 843              		.file 8 "ChibiOS_3.0.2/os/rt/ports/ARMCMx/compilers/GCC/chtypes.h"
 844              		.file 9 "ChibiOS_3.0.2/os/rt/include/chsystypes.h"
 845              		.file 10 "ChibiOS_3.0.2/os/ext/CMSIS/ST/stm32f407xx.h"
 846              		.file 11 "ChibiOS_3.0.2/os/rt/ports/ARMCMx/chcore.h"
ARM GAS  /tmp/ccZ557wd.s 			page 16


 847              		.file 12 "ChibiOS_3.0.2/os/rt/ports/ARMCMx/chcore_v7m.h"
 848              		.file 13 "ChibiOS_3.0.2/os/rt/include/chtm.h"
 849              		.file 14 "ChibiOS_3.0.2/os/rt/include/chsem.h"
 850              		.file 15 "ChibiOS_3.0.2/os/rt/include/chmtx.h"
 851              		.file 16 "ChibiOS_3.0.2/os/hal/include/can.h"
 852              		.file 17 "ChibiOS_3.0.2/os/hal/ports/STM32/LLD/can_lld.h"
 853              		.file 18 "ChibiOS_3.0.2/os/rt/include/chsys.h"
 854              		.file 19 "ChibiOS_3.0.2/os/rt/include/chthreads.h"
 855              		.file 20 "ChibiOS_3.0.2/os/ext/CMSIS/include/core_cm4.h"