ARM GAS  /tmp/ccqmHTUq.s 			page 1


   1              		.syntax unified
   2              		.cpu cortex-m4
   3              		.eabi_attribute 27, 3
   4              		.eabi_attribute 28, 1
   5              		.fpu fpv4-sp-d16
   6              		.eabi_attribute 20, 1
   7              		.eabi_attribute 21, 1
   8              		.eabi_attribute 23, 3
   9              		.eabi_attribute 24, 1
  10              		.eabi_attribute 25, 1
  11              		.eabi_attribute 26, 1
  12              		.eabi_attribute 30, 2
  13              		.eabi_attribute 34, 1
  14              		.eabi_attribute 18, 4
  15              		.thumb
  16              		.file	"can_lld.c"
  17              		.text
  18              	.Ltext0:
  19              		.cfi_sections	.debug_frame
  20              		.section	.text.can_lld_set_filters,"ax",%progbits
  21              		.align	2
  22              		.p2align 4,,15
  23              		.thumb
  24              		.thumb_func
  25              		.type	can_lld_set_filters, %function
  26              	can_lld_set_filters:
  27              	.LFB256:
  28              		.file 1 "ChibiOS_3.0.2/os/hal/ports/STM32/LLD/can_lld.c"
  29              		.loc 1 77 0
  30              		.cfi_startproc
  31              		@ args = 0, pretend = 0, frame = 0
  32              		@ frame_needed = 0, uses_anonymous_args = 0
  33              		@ link register save eliminated.
  34              	.LVL0:
  35 0000 F0B4     		push	{r4, r5, r6, r7}
  36              		.cfi_def_cfa_offset 16
  37              		.cfi_offset 4, -16
  38              		.cfi_offset 5, -12
  39              		.cfi_offset 6, -8
  40              		.cfi_offset 7, -4
  41              		.loc 1 80 0
  42 0002 444C     		ldr	r4, .L22
  43              		.loc 1 83 0
  44 0004 444B     		ldr	r3, .L22+4
  45              		.loc 1 80 0
  46 0006 256C     		ldr	r5, [r4, #64]
  47 0008 45F00075 		orr	r5, r5, #33554432
  48 000c 2564     		str	r5, [r4, #64]
  49              		.loc 1 83 0
  50 000e D3F80042 		ldr	r4, [r3, #512]
  51 0012 240C     		lsrs	r4, r4, #16
  52 0014 2404     		lsls	r4, r4, #16
  53 0016 44F00104 		orr	r4, r4, #1
  54 001a 44EA0024 		orr	r4, r4, r0, lsl #8
  55 001e C3F80042 		str	r4, [r3, #512]
  56              		.loc 1 84 0
  57 0022 0029     		cmp	r1, #0
ARM GAS  /tmp/ccqmHTUq.s 			page 2


  58 0024 5BD0     		beq	.L2
  59              	.LBB266:
  60              		.loc 1 88 0
  61 0026 0025     		movs	r5, #0
  62 0028 C3F81C52 		str	r5, [r3, #540]
  63              		.loc 1 92 0
  64 002c 2846     		mov	r0, r5
  65              	.LVL1:
  66              		.loc 1 89 0
  67 002e C3F80452 		str	r5, [r3, #516]
  68              		.loc 1 93 0
  69 0032 2C46     		mov	r4, r5
  70              		.loc 1 90 0
  71 0034 C3F80C52 		str	r5, [r3, #524]
  72              		.loc 1 91 0
  73 0038 C3F81452 		str	r5, [r3, #532]
  74              	.LVL2:
  75              	.L4:
  76 003c C300     		lsls	r3, r0, #3
  77 003e 03F18043 		add	r3, r3, #1073741824
  78 0042 03F5C843 		add	r3, r3, #25600
  79              		.loc 1 92 0 discriminator 2
  80 0046 0130     		adds	r0, r0, #1
  81              	.LVL3:
  82 0048 1C28     		cmp	r0, #28
  83              		.loc 1 93 0 discriminator 2
  84 004a C3F84042 		str	r4, [r3, #576]
  85              		.loc 1 94 0 discriminator 2
  86 004e C3F84442 		str	r4, [r3, #580]
  87              		.loc 1 92 0 discriminator 2
  88 0052 F3D1     		bne	.L4
  89              		.loc 1 101 0
  90 0054 304B     		ldr	r3, .L22+4
  91              		.loc 1 92 0
  92 0056 0026     		movs	r6, #0
  93              		.loc 1 99 0
  94 0058 0127     		movs	r7, #1
  95              	.LVL4:
  96              	.L9:
  97 005a 1568     		ldr	r5, [r2]
  98              		.loc 1 100 0
  99 005c 1479     		ldrb	r4, [r2, #4]	@ zero_extendqisi2
 100 005e E800     		lsls	r0, r5, #3
 101 0060 00F18040 		add	r0, r0, #1073741824
 102 0064 14F0010F 		tst	r4, #1
 103 0068 00F5C840 		add	r0, r0, #25600
 104              		.loc 1 98 0
 105 006c 06F10106 		add	r6, r6, #1
 106              	.LVL5:
 107              		.loc 1 99 0
 108 0070 07FA05F5 		lsl	r5, r7, r5
 109              	.LVL6:
 110              		.loc 1 100 0
 111 0074 05D0     		beq	.L5
 112              		.loc 1 101 0
 113 0076 D3F80442 		ldr	r4, [r3, #516]
 114 007a 2C43     		orrs	r4, r4, r5
ARM GAS  /tmp/ccqmHTUq.s 			page 3


 115 007c C3F80442 		str	r4, [r3, #516]
 116 0080 1479     		ldrb	r4, [r2, #4]	@ zero_extendqisi2
 117              	.L5:
 118              		.loc 1 102 0
 119 0082 14F0020F 		tst	r4, #2
 120 0086 05D0     		beq	.L6
 121              		.loc 1 103 0
 122 0088 D3F80C42 		ldr	r4, [r3, #524]
 123 008c 2C43     		orrs	r4, r4, r5
 124 008e C3F80C42 		str	r4, [r3, #524]
 125 0092 1479     		ldrb	r4, [r2, #4]	@ zero_extendqisi2
 126              	.L6:
 127              		.loc 1 104 0
 128 0094 6407     		lsls	r4, r4, #29
 129 0096 04D5     		bpl	.L7
 130              		.loc 1 105 0
 131 0098 D3F81442 		ldr	r4, [r3, #532]
 132 009c 2C43     		orrs	r4, r4, r5
 133 009e C3F81442 		str	r4, [r3, #532]
 134              	.L7:
 135              		.loc 1 106 0
 136 00a2 9468     		ldr	r4, [r2, #8]
 137 00a4 C0F84042 		str	r4, [r0, #576]
 138              		.loc 1 107 0
 139 00a8 D468     		ldr	r4, [r2, #12]
 140 00aa C0F84442 		str	r4, [r0, #580]
 141              		.loc 1 108 0
 142 00ae D3F81C02 		ldr	r0, [r3, #540]
 143              		.loc 1 98 0
 144 00b2 8E42     		cmp	r6, r1
 145              		.loc 1 108 0
 146 00b4 45EA0005 		orr	r5, r5, r0
 147              	.LVL7:
 148              		.loc 1 109 0
 149 00b8 02F11002 		add	r2, r2, #16
 150              	.LVL8:
 151              		.loc 1 108 0
 152 00bc C3F81C52 		str	r5, [r3, #540]
 153              		.loc 1 98 0
 154 00c0 CBD1     		bne	.L9
 155              	.LVL9:
 156              	.L8:
 157              	.LBE266:
 158              		.loc 1 131 0
 159 00c2 154A     		ldr	r2, .L22+4
 160              		.loc 1 134 0
 161 00c4 134B     		ldr	r3, .L22
 162              		.loc 1 131 0
 163 00c6 D2F80012 		ldr	r1, [r2, #512]
 164              	.LVL10:
 165 00ca 21F00101 		bic	r1, r1, #1
 166 00ce C2F80012 		str	r1, [r2, #512]
 167              		.loc 1 134 0
 168 00d2 1A6C     		ldr	r2, [r3, #64]
 169 00d4 22F00072 		bic	r2, r2, #33554432
 170 00d8 1A64     		str	r2, [r3, #64]
 171              		.loc 1 135 0
ARM GAS  /tmp/ccqmHTUq.s 			page 4


 172 00da F0BC     		pop	{r4, r5, r6, r7}
 173 00dc 7047     		bx	lr
 174              	.LVL11:
 175              	.L2:
 176 00de C200     		lsls	r2, r0, #3
 177              	.LVL12:
 178              		.loc 1 124 0
 179 00e0 0124     		movs	r4, #1
 180 00e2 02F18042 		add	r2, r2, #1073741824
 181 00e6 02F5C842 		add	r2, r2, #25600
 182 00ea 04FA00F0 		lsl	r0, r4, r0
 183              	.LVL13:
 184 00ee 2043     		orrs	r0, r0, r4
 185              		.loc 1 115 0
 186 00f0 C3F84012 		str	r1, [r3, #576]
 187              		.loc 1 116 0
 188 00f4 C3F84412 		str	r1, [r3, #580]
 189              		.loc 1 118 0
 190 00f8 C2F84012 		str	r1, [r2, #576]
 191              		.loc 1 119 0
 192 00fc C2F84412 		str	r1, [r2, #580]
 193              		.loc 1 121 0
 194 0100 C3F80412 		str	r1, [r3, #516]
 195              		.loc 1 122 0
 196 0104 C3F81412 		str	r1, [r3, #532]
 197              		.loc 1 124 0
 198 0108 C3F80C02 		str	r0, [r3, #524]
 199              		.loc 1 125 0
 200 010c C3F81C02 		str	r0, [r3, #540]
 201 0110 D7E7     		b	.L8
 202              	.L23:
 203 0112 00BF     		.align	2
 204              	.L22:
 205 0114 00380240 		.word	1073887232
 206 0118 00640040 		.word	1073767424
 207              		.cfi_endproc
 208              	.LFE256:
 209              		.size	can_lld_set_filters, .-can_lld_set_filters
 210 011c AFF30080 		.section	.text.Vector8C,"ax",%progbits
 211              		.align	2
 212              		.p2align 4,,15
 213              		.global	Vector8C
 214              		.thumb
 215              		.thumb_func
 216              		.type	Vector8C, %function
 217              	Vector8C:
 218              	.LFB261:
 219              		.loc 1 292 0
 220              		.cfi_startproc
 221              		@ args = 0, pretend = 0, frame = 0
 222              		@ frame_needed = 0, uses_anonymous_args = 0
 223              	.LVL14:
 224 0000 10B5     		push	{r4, lr}
 225              		.cfi_def_cfa_offset 8
 226              		.cfi_offset 4, -8
 227              		.cfi_offset 14, -4
 228              	.LBB285:
ARM GAS  /tmp/ccqmHTUq.s 			page 5


 229              	.LBB286:
 230              		.loc 1 147 0
 231 0002 0C4C     		ldr	r4, .L25
 232 0004 0C49     		ldr	r1, .L25+4
 233 0006 E36A     		ldr	r3, [r4, #44]
 234              	.LBB287:
 235              	.LBB288:
 236              	.LBB289:
 237              	.LBB290:
 238              	.LBB291:
 239              	.LBB292:
 240              		.file 2 "ChibiOS_3.0.2/os/ext/CMSIS/include/core_cmFunc.h"
 241              		.loc 2 546 0
 242 0008 2022     		movs	r2, #32
 243              	.LBE292:
 244              	.LBE291:
 245              	.LBE290:
 246              	.LBE289:
 247              	.LBE288:
 248              	.LBE287:
 249              		.loc 1 147 0
 250 000a 9960     		str	r1, [r3, #8]
 251              	.LVL15:
 252              	.LBB298:
 253              	.LBB297:
 254              	.LBB296:
 255              	.LBB295:
 256              	.LBB294:
 257              	.LBB293:
 258              		.loc 2 546 0
 259              	@ 546 "ChibiOS_3.0.2/os/ext/CMSIS/include/core_cmFunc.h" 1
 260 000c 82F31188 		MSR basepri, r2
 261              	@ 0 "" 2
 262              	.LVL16:
 263              		.thumb
 264              	.LBE293:
 265              	.LBE294:
 266              	.LBE295:
 267              	.LBE296:
 268              	.LBE297:
 269              	.LBE298:
 270              	.LBB299:
 271              	.LBB300:
 272              		.file 3 "ChibiOS_3.0.2/os/hal/osal/rt/osal.h"
 273              		.loc 3 810 0
 274 0010 0021     		movs	r1, #0
 275 0012 04F10800 		add	r0, r4, #8
 276 0016 FFF7FEFF 		bl	chThdDequeueAllI
 277              	.LVL17:
 278              	.LBE300:
 279              	.LBE299:
 280              	.LBB301:
 281              	.LBB302:
 282              		.loc 3 844 0
 283 001a 04F11C00 		add	r0, r4, #28
 284 001e 0121     		movs	r1, #1
 285 0020 FFF7FEFF 		bl	chEvtBroadcastFlagsI
ARM GAS  /tmp/ccqmHTUq.s 			page 6


 286              	.LVL18:
 287              	.LBE302:
 288              	.LBE301:
 289              	.LBB303:
 290              	.LBB304:
 291              	.LBB305:
 292              	.LBB306:
 293              	.LBB307:
 294              	.LBB308:
 295              		.loc 2 546 0
 296 0024 0023     		movs	r3, #0
 297              	@ 546 "ChibiOS_3.0.2/os/ext/CMSIS/include/core_cmFunc.h" 1
 298 0026 83F31188 		MSR basepri, r3
 299              	@ 0 "" 2
 300              		.thumb
 301              	.LBE308:
 302              	.LBE307:
 303              	.LBE306:
 304              	.LBE305:
 305              	.LBE304:
 306              	.LBE303:
 307              	.LBE286:
 308              	.LBE285:
 309              		.loc 1 299 0
 310 002a BDE81040 		pop	{r4, lr}
 311              		.loc 1 298 0
 312 002e FFF7FEBF 		b	_port_irq_epilogue
 313              	.LVL19:
 314              	.L26:
 315 0032 00BF     		.align	2
 316              	.L25:
 317 0034 00000000 		.word	.LANCHOR0
 318 0038 01010100 		.word	65793
 319              		.cfi_endproc
 320              	.LFE261:
 321              		.size	Vector8C, .-Vector8C
 322 003c AFF30080 		.section	.text.Vector90,"ax",%progbits
 323              		.align	2
 324              		.p2align 4,,15
 325              		.global	Vector90
 326              		.thumb
 327              		.thumb_func
 328              		.type	Vector90, %function
 329              	Vector90:
 330              	.LFB262:
 331              		.loc 1 306 0
 332              		.cfi_startproc
 333              		@ args = 0, pretend = 0, frame = 0
 334              		@ frame_needed = 0, uses_anonymous_args = 0
 335              	.LVL20:
 336 0000 38B5     		push	{r3, r4, r5, lr}
 337              		.cfi_def_cfa_offset 16
 338              		.cfi_offset 3, -16
 339              		.cfi_offset 4, -12
 340              		.cfi_offset 5, -8
 341              		.cfi_offset 14, -4
 342              	.LBB341:
ARM GAS  /tmp/ccqmHTUq.s 			page 7


 343              	.LBB342:
 344              		.loc 1 164 0
 345 0002 164D     		ldr	r5, .L37
 346 0004 EB6A     		ldr	r3, [r5, #44]
 347 0006 DC68     		ldr	r4, [r3, #12]
 348              	.LVL21:
 349              		.loc 1 165 0
 350 0008 A207     		lsls	r2, r4, #30
 351 000a 11D1     		bne	.L36
 352              	.L28:
 353              		.loc 1 173 0
 354 000c E306     		lsls	r3, r4, #27
 355 000e 0BD5     		bpl	.L29
 356              		.loc 1 175 0
 357 0010 EB6A     		ldr	r3, [r5, #44]
 358 0012 1021     		movs	r1, #16
 359 0014 D960     		str	r1, [r3, #12]
 360              	.LVL22:
 361              	.LBB343:
 362              	.LBB344:
 363              	.LBB345:
 364              	.LBB346:
 365              	.LBB347:
 366              	.LBB348:
 367              		.loc 2 546 0
 368 0016 2023     		movs	r3, #32
 369              	@ 546 "ChibiOS_3.0.2/os/ext/CMSIS/include/core_cmFunc.h" 1
 370 0018 83F31188 		MSR basepri, r3
 371              	@ 0 "" 2
 372              	.LVL23:
 373              		.thumb
 374              	.LBE348:
 375              	.LBE347:
 376              	.LBE346:
 377              	.LBE345:
 378              	.LBE344:
 379              	.LBE343:
 380              	.LBB349:
 381              	.LBB350:
 382              		.loc 3 844 0
 383 001c 1048     		ldr	r0, .L37+4
 384 001e FFF7FEFF 		bl	chEvtBroadcastFlagsI
 385              	.LVL24:
 386              	.LBE350:
 387              	.LBE349:
 388              	.LBB351:
 389              	.LBB352:
 390              	.LBB353:
 391              	.LBB354:
 392              	.LBB355:
 393              	.LBB356:
 394              		.loc 2 546 0
 395 0022 0023     		movs	r3, #0
 396              	@ 546 "ChibiOS_3.0.2/os/ext/CMSIS/include/core_cmFunc.h" 1
 397 0024 83F31188 		MSR basepri, r3
 398              	@ 0 "" 2
 399              	.LVL25:
ARM GAS  /tmp/ccqmHTUq.s 			page 8


 400              		.thumb
 401              	.L29:
 402              	.LBE356:
 403              	.LBE355:
 404              	.LBE354:
 405              	.LBE353:
 406              	.LBE352:
 407              	.LBE351:
 408              	.LBE342:
 409              	.LBE341:
 410              		.loc 1 313 0
 411 0028 BDE83840 		pop	{r3, r4, r5, lr}
 412              	.LVL26:
 413              		.loc 1 312 0
 414 002c FFF7FEBF 		b	_port_irq_epilogue
 415              	.LVL27:
 416              	.L36:
 417              	.LBB374:
 418              	.LBB373:
 419              		.loc 1 167 0
 420 0030 5A69     		ldr	r2, [r3, #20]
 421 0032 22F00202 		bic	r2, r2, #2
 422 0036 5A61     		str	r2, [r3, #20]
 423              	.LVL28:
 424              	.LBB357:
 425              	.LBB358:
 426              	.LBB359:
 427              	.LBB360:
 428              	.LBB361:
 429              	.LBB362:
 430              		.loc 2 546 0
 431 0038 2023     		movs	r3, #32
 432              	@ 546 "ChibiOS_3.0.2/os/ext/CMSIS/include/core_cmFunc.h" 1
 433 003a 83F31188 		MSR basepri, r3
 434              	@ 0 "" 2
 435              	.LVL29:
 436              		.thumb
 437              	.LBE362:
 438              	.LBE361:
 439              	.LBE360:
 440              	.LBE359:
 441              	.LBE358:
 442              	.LBE357:
 443              	.LBB363:
 444              	.LBB364:
 445              		.loc 3 810 0
 446 003e 0021     		movs	r1, #0
 447 0040 05F11000 		add	r0, r5, #16
 448 0044 FFF7FEFF 		bl	chThdDequeueAllI
 449              	.LVL30:
 450              	.LBE364:
 451              	.LBE363:
 452              	.LBB365:
 453              	.LBB366:
 454              		.loc 3 844 0
 455 0048 05F11800 		add	r0, r5, #24
 456 004c 0121     		movs	r1, #1
ARM GAS  /tmp/ccqmHTUq.s 			page 9


 457 004e FFF7FEFF 		bl	chEvtBroadcastFlagsI
 458              	.LVL31:
 459              	.LBE366:
 460              	.LBE365:
 461              	.LBB367:
 462              	.LBB368:
 463              	.LBB369:
 464              	.LBB370:
 465              	.LBB371:
 466              	.LBB372:
 467              		.loc 2 546 0
 468 0052 0023     		movs	r3, #0
 469              	@ 546 "ChibiOS_3.0.2/os/ext/CMSIS/include/core_cmFunc.h" 1
 470 0054 83F31188 		MSR basepri, r3
 471              	@ 0 "" 2
 472              		.thumb
 473 0058 D8E7     		b	.L28
 474              	.L38:
 475 005a 00BF     		.align	2
 476              	.L37:
 477 005c 00000000 		.word	.LANCHOR0
 478 0060 20000000 		.word	.LANCHOR0+32
 479              	.LBE372:
 480              	.LBE371:
 481              	.LBE370:
 482              	.LBE369:
 483              	.LBE368:
 484              	.LBE367:
 485              	.LBE373:
 486              	.LBE374:
 487              		.cfi_endproc
 488              	.LFE262:
 489              		.size	Vector90, .-Vector90
 490 0064 AFF30080 		.section	.text.Vector94,"ax",%progbits
 490      AFF30080 
 490      AFF30080 
 491              		.align	2
 492              		.p2align 4,,15
 493              		.global	Vector94
 494              		.thumb
 495              		.thumb_func
 496              		.type	Vector94, %function
 497              	Vector94:
 498              	.LFB263:
 499              		.loc 1 320 0
 500              		.cfi_startproc
 501              		@ args = 0, pretend = 0, frame = 0
 502              		@ frame_needed = 0, uses_anonymous_args = 0
 503              	.LVL32:
 504 0000 38B5     		push	{r3, r4, r5, lr}
 505              		.cfi_def_cfa_offset 16
 506              		.cfi_offset 3, -16
 507              		.cfi_offset 4, -12
 508              		.cfi_offset 5, -8
 509              		.cfi_offset 14, -4
 510              	.LBB407:
 511              	.LBB408:
ARM GAS  /tmp/ccqmHTUq.s 			page 10


 512              		.loc 1 192 0
 513 0002 164D     		ldr	r5, .L49
 514 0004 EB6A     		ldr	r3, [r5, #44]
 515 0006 1C69     		ldr	r4, [r3, #16]
 516              	.LVL33:
 517              		.loc 1 193 0
 518 0008 A207     		lsls	r2, r4, #30
 519 000a 11D1     		bne	.L48
 520              	.L40:
 521              		.loc 1 201 0
 522 000c E306     		lsls	r3, r4, #27
 523 000e 0BD5     		bpl	.L41
 524              		.loc 1 203 0
 525 0010 EB6A     		ldr	r3, [r5, #44]
 526 0012 1021     		movs	r1, #16
 527 0014 1961     		str	r1, [r3, #16]
 528              	.LVL34:
 529              	.LBB409:
 530              	.LBB410:
 531              	.LBB411:
 532              	.LBB412:
 533              	.LBB413:
 534              	.LBB414:
 535              		.loc 2 546 0
 536 0016 2023     		movs	r3, #32
 537              	@ 546 "ChibiOS_3.0.2/os/ext/CMSIS/include/core_cmFunc.h" 1
 538 0018 83F31188 		MSR basepri, r3
 539              	@ 0 "" 2
 540              	.LVL35:
 541              		.thumb
 542              	.LBE414:
 543              	.LBE413:
 544              	.LBE412:
 545              	.LBE411:
 546              	.LBE410:
 547              	.LBE409:
 548              	.LBB415:
 549              	.LBB416:
 550              		.loc 3 844 0
 551 001c 1048     		ldr	r0, .L49+4
 552 001e FFF7FEFF 		bl	chEvtBroadcastFlagsI
 553              	.LVL36:
 554              	.LBE416:
 555              	.LBE415:
 556              	.LBB417:
 557              	.LBB418:
 558              	.LBB419:
 559              	.LBB420:
 560              	.LBB421:
 561              	.LBB422:
 562              		.loc 2 546 0
 563 0022 0023     		movs	r3, #0
 564              	@ 546 "ChibiOS_3.0.2/os/ext/CMSIS/include/core_cmFunc.h" 1
 565 0024 83F31188 		MSR basepri, r3
 566              	@ 0 "" 2
 567              	.LVL37:
 568              		.thumb
ARM GAS  /tmp/ccqmHTUq.s 			page 11


 569              	.L41:
 570              	.LBE422:
 571              	.LBE421:
 572              	.LBE420:
 573              	.LBE419:
 574              	.LBE418:
 575              	.LBE417:
 576              	.LBE408:
 577              	.LBE407:
 578              		.loc 1 327 0
 579 0028 BDE83840 		pop	{r3, r4, r5, lr}
 580              	.LVL38:
 581              		.loc 1 326 0
 582 002c FFF7FEBF 		b	_port_irq_epilogue
 583              	.LVL39:
 584              	.L48:
 585              	.LBB440:
 586              	.LBB439:
 587              		.loc 1 195 0
 588 0030 5A69     		ldr	r2, [r3, #20]
 589 0032 22F01002 		bic	r2, r2, #16
 590 0036 5A61     		str	r2, [r3, #20]
 591              	.LVL40:
 592              	.LBB423:
 593              	.LBB424:
 594              	.LBB425:
 595              	.LBB426:
 596              	.LBB427:
 597              	.LBB428:
 598              		.loc 2 546 0
 599 0038 2023     		movs	r3, #32
 600              	@ 546 "ChibiOS_3.0.2/os/ext/CMSIS/include/core_cmFunc.h" 1
 601 003a 83F31188 		MSR basepri, r3
 602              	@ 0 "" 2
 603              	.LVL41:
 604              		.thumb
 605              	.LBE428:
 606              	.LBE427:
 607              	.LBE426:
 608              	.LBE425:
 609              	.LBE424:
 610              	.LBE423:
 611              	.LBB429:
 612              	.LBB430:
 613              		.loc 3 810 0
 614 003e 0021     		movs	r1, #0
 615 0040 05F11000 		add	r0, r5, #16
 616 0044 FFF7FEFF 		bl	chThdDequeueAllI
 617              	.LVL42:
 618              	.LBE430:
 619              	.LBE429:
 620              	.LBB431:
 621              	.LBB432:
 622              		.loc 3 844 0
 623 0048 05F11800 		add	r0, r5, #24
 624 004c 0221     		movs	r1, #2
 625 004e FFF7FEFF 		bl	chEvtBroadcastFlagsI
ARM GAS  /tmp/ccqmHTUq.s 			page 12


 626              	.LVL43:
 627              	.LBE432:
 628              	.LBE431:
 629              	.LBB433:
 630              	.LBB434:
 631              	.LBB435:
 632              	.LBB436:
 633              	.LBB437:
 634              	.LBB438:
 635              		.loc 2 546 0
 636 0052 0023     		movs	r3, #0
 637              	@ 546 "ChibiOS_3.0.2/os/ext/CMSIS/include/core_cmFunc.h" 1
 638 0054 83F31188 		MSR basepri, r3
 639              	@ 0 "" 2
 640              		.thumb
 641 0058 D8E7     		b	.L40
 642              	.L50:
 643 005a 00BF     		.align	2
 644              	.L49:
 645 005c 00000000 		.word	.LANCHOR0
 646 0060 20000000 		.word	.LANCHOR0+32
 647              	.LBE438:
 648              	.LBE437:
 649              	.LBE436:
 650              	.LBE435:
 651              	.LBE434:
 652              	.LBE433:
 653              	.LBE439:
 654              	.LBE440:
 655              		.cfi_endproc
 656              	.LFE263:
 657              		.size	Vector94, .-Vector94
 658 0064 AFF30080 		.section	.text.Vector98,"ax",%progbits
 658      AFF30080 
 658      AFF30080 
 659              		.align	2
 660              		.p2align 4,,15
 661              		.global	Vector98
 662              		.thumb
 663              		.thumb_func
 664              		.type	Vector98, %function
 665              	Vector98:
 666              	.LFB264:
 667              		.loc 1 334 0
 668              		.cfi_startproc
 669              		@ args = 0, pretend = 0, frame = 0
 670              		@ frame_needed = 0, uses_anonymous_args = 0
 671              	.LVL44:
 672 0000 38B5     		push	{r3, r4, r5, lr}
 673              		.cfi_def_cfa_offset 16
 674              		.cfi_offset 3, -16
 675              		.cfi_offset 4, -12
 676              		.cfi_offset 5, -8
 677              		.cfi_offset 14, -4
 678              	.LBB472:
 679              	.LBB473:
 680              		.loc 1 220 0
ARM GAS  /tmp/ccqmHTUq.s 			page 13


 681 0002 1B4D     		ldr	r5, .L65
 682 0004 EB6A     		ldr	r3, [r5, #44]
 683 0006 5C68     		ldr	r4, [r3, #4]
 684              	.LVL45:
 685              		.loc 1 221 0
 686 0008 1C22     		movs	r2, #28
 687 000a 5A60     		str	r2, [r3, #4]
 688              		.loc 1 224 0
 689 000c 2207     		lsls	r2, r4, #28
 690 000e 1DD4     		bmi	.L64
 691              	.L52:
 692              		.loc 1 233 0
 693 0010 6307     		lsls	r3, r4, #29
 694 0012 17D5     		bpl	.L53
 695              	.LBB474:
 696              		.loc 1 235 0
 697 0014 EA6A     		ldr	r2, [r5, #44]
 698 0016 9369     		ldr	r3, [r2, #24]
 699              	.LVL46:
 700              		.loc 1 237 0
 701 0018 9169     		ldr	r1, [r2, #24]
 702 001a 21F07001 		bic	r1, r1, #112
 703 001e 9161     		str	r1, [r2, #24]
 704              		.loc 1 239 0
 705 0020 13F0700F 		tst	r3, #112
 706              		.loc 1 238 0
 707 0024 03F00701 		and	r1, r3, #7
 708              	.LVL47:
 709              		.loc 1 240 0
 710 0028 18BF     		it	ne
 711 002a 41F00801 		orrne	r1, r1, #8
 712              	.LVL48:
 713              	.LBB475:
 714              	.LBB476:
 715              	.LBB477:
 716              	.LBB478:
 717              	.LBB479:
 718              	.LBB480:
 719              		.loc 2 546 0
 720 002e 2022     		movs	r2, #32
 721              	@ 546 "ChibiOS_3.0.2/os/ext/CMSIS/include/core_cmFunc.h" 1
 722 0030 82F31188 		MSR basepri, r2
 723              	@ 0 "" 2
 724              	.LVL49:
 725              		.thumb
 726              	.LBE480:
 727              	.LBE479:
 728              	.LBE478:
 729              	.LBE477:
 730              	.LBE476:
 731              	.LBE475:
 732              	.LBB481:
 733              	.LBB482:
 734              		.loc 3 844 0
 735 0034 0F48     		ldr	r0, .L65+4
 736 0036 41EA0341 		orr	r1, r1, r3, lsl #16
 737              	.LVL50:
ARM GAS  /tmp/ccqmHTUq.s 			page 14


 738 003a FFF7FEFF 		bl	chEvtBroadcastFlagsI
 739              	.LVL51:
 740              	.LBE482:
 741              	.LBE481:
 742              	.LBB483:
 743              	.LBB484:
 744              	.LBB485:
 745              	.LBB486:
 746              	.LBB487:
 747              	.LBB488:
 748              		.loc 2 546 0
 749 003e 0023     		movs	r3, #0
 750              	@ 546 "ChibiOS_3.0.2/os/ext/CMSIS/include/core_cmFunc.h" 1
 751 0040 83F31188 		MSR basepri, r3
 752              	@ 0 "" 2
 753              	.LVL52:
 754              		.thumb
 755              	.L53:
 756              	.LBE488:
 757              	.LBE487:
 758              	.LBE486:
 759              	.LBE485:
 760              	.LBE484:
 761              	.LBE483:
 762              	.LBE474:
 763              	.LBE473:
 764              	.LBE472:
 765              		.loc 1 341 0
 766 0044 BDE83840 		pop	{r3, r4, r5, lr}
 767              	.LVL53:
 768              		.loc 1 340 0
 769 0048 FFF7FEBF 		b	_port_irq_epilogue
 770              	.LVL54:
 771              	.L64:
 772              	.LBB510:
 773              	.LBB509:
 774              		.loc 1 226 0
 775 004c 1968     		ldr	r1, [r3]
 776              		.loc 1 225 0
 777 004e 2846     		mov	r0, r5
 778              		.loc 1 226 0
 779 0050 21F00201 		bic	r1, r1, #2
 780              		.loc 1 225 0
 781 0054 0322     		movs	r2, #3
 782 0056 00F8282B 		strb	r2, [r0], #40
 783              	.LBB489:
 784              	.LBB490:
 785              	.LBB491:
 786              	.LBB492:
 787              	.LBB493:
 788              	.LBB494:
 789              		.loc 2 546 0
 790 005a 2022     		movs	r2, #32
 791              	.LBE494:
 792              	.LBE493:
 793              	.LBE492:
 794              	.LBE491:
ARM GAS  /tmp/ccqmHTUq.s 			page 15


 795              	.LBE490:
 796              	.LBE489:
 797              		.loc 1 226 0
 798 005c 1960     		str	r1, [r3]
 799              	.LVL55:
 800              	.LBB500:
 801              	.LBB499:
 802              	.LBB498:
 803              	.LBB497:
 804              	.LBB496:
 805              	.LBB495:
 806              		.loc 2 546 0
 807              	@ 546 "ChibiOS_3.0.2/os/ext/CMSIS/include/core_cmFunc.h" 1
 808 005e 82F31188 		MSR basepri, r2
 809              	@ 0 "" 2
 810              	.LVL56:
 811              		.thumb
 812              	.LBE495:
 813              	.LBE496:
 814              	.LBE497:
 815              	.LBE498:
 816              	.LBE499:
 817              	.LBE500:
 818              	.LBB501:
 819              	.LBB502:
 820              		.loc 3 844 0
 821 0062 0021     		movs	r1, #0
 822 0064 FFF7FEFF 		bl	chEvtBroadcastFlagsI
 823              	.LVL57:
 824              	.LBE502:
 825              	.LBE501:
 826              	.LBB503:
 827              	.LBB504:
 828              	.LBB505:
 829              	.LBB506:
 830              	.LBB507:
 831              	.LBB508:
 832              		.loc 2 546 0
 833 0068 0023     		movs	r3, #0
 834              	@ 546 "ChibiOS_3.0.2/os/ext/CMSIS/include/core_cmFunc.h" 1
 835 006a 83F31188 		MSR basepri, r3
 836              	@ 0 "" 2
 837              		.thumb
 838 006e CFE7     		b	.L52
 839              	.L66:
 840              		.align	2
 841              	.L65:
 842 0070 00000000 		.word	.LANCHOR0
 843 0074 20000000 		.word	.LANCHOR0+32
 844              	.LBE508:
 845              	.LBE507:
 846              	.LBE506:
 847              	.LBE505:
 848              	.LBE504:
 849              	.LBE503:
 850              	.LBE509:
 851              	.LBE510:
ARM GAS  /tmp/ccqmHTUq.s 			page 16


 852              		.cfi_endproc
 853              	.LFE264:
 854              		.size	Vector98, .-Vector98
 855 0078 AFF30080 		.section	.text.can_lld_init,"ax",%progbits
 855      AFF30080 
 856              		.align	2
 857              		.p2align 4,,15
 858              		.global	can_lld_init
 859              		.thumb
 860              		.thumb_func
 861              		.type	can_lld_init, %function
 862              	can_lld_init:
 863              	.LFB265:
 864              		.loc 1 445 0
 865              		.cfi_startproc
 866              		@ args = 0, pretend = 0, frame = 0
 867              		@ frame_needed = 0, uses_anonymous_args = 0
 868 0000 10B5     		push	{r4, lr}
 869              		.cfi_def_cfa_offset 8
 870              		.cfi_offset 4, -8
 871              		.cfi_offset 14, -4
 872              		.loc 1 449 0
 873 0002 064C     		ldr	r4, .L68
 874 0004 2046     		mov	r0, r4
 875 0006 FFF7FEFF 		bl	canObjectInit
 876              	.LVL58:
 877              		.loc 1 460 0
 878 000a 0021     		movs	r1, #0
 879              		.loc 1 450 0
 880 000c 044B     		ldr	r3, .L68+4
 881 000e E362     		str	r3, [r4, #44]
 882              		.loc 1 460 0
 883 0010 0A46     		mov	r2, r1
 884 0012 0E20     		movs	r0, #14
 885              		.loc 1 464 0
 886 0014 BDE81040 		pop	{r4, lr}
 887              		.loc 1 460 0
 888 0018 FFF7FEBF 		b	can_lld_set_filters
 889              	.LVL59:
 890              	.L69:
 891              		.align	2
 892              	.L68:
 893 001c 00000000 		.word	.LANCHOR0
 894 0020 00640040 		.word	1073767424
 895              		.cfi_endproc
 896              	.LFE265:
 897              		.size	can_lld_init, .-can_lld_init
 898 0024 AFF30080 		.section	.text.can_lld_start,"ax",%progbits
 898      AFF30080 
 898      AFF30080 
 899              		.align	2
 900              		.p2align 4,,15
 901              		.global	can_lld_start
 902              		.thumb
 903              		.thumb_func
 904              		.type	can_lld_start, %function
 905              	can_lld_start:
ARM GAS  /tmp/ccqmHTUq.s 			page 17


 906              	.LFB266:
 907              		.loc 1 473 0
 908              		.cfi_startproc
 909              		@ args = 0, pretend = 0, frame = 0
 910              		@ frame_needed = 0, uses_anonymous_args = 0
 911              	.LVL60:
 912              		.loc 1 477 0
 913 0000 184B     		ldr	r3, .L75
 914 0002 9842     		cmp	r0, r3
 915              		.loc 1 473 0
 916 0004 10B5     		push	{r4, lr}
 917              		.cfi_def_cfa_offset 8
 918              		.cfi_offset 4, -8
 919              		.cfi_offset 14, -4
 920              		.loc 1 473 0
 921 0006 0446     		mov	r4, r0
 922              		.loc 1 477 0
 923 0008 15D0     		beq	.L74
 924              	.LVL61:
 925              	.L71:
 926              		.loc 1 507 0
 927 000a E36A     		ldr	r3, [r4, #44]
 928 000c 0122     		movs	r2, #1
 929 000e 1A60     		str	r2, [r3]
 930              		.loc 1 508 0
 931 0010 5A68     		ldr	r2, [r3, #4]
 932 0012 D107     		lsls	r1, r2, #31
 933 0014 07D4     		bmi	.L72
 934              	.L73:
 935              	.LVL62:
 936              	.LBB511:
 937              	.LBB512:
 938              	.LBB513:
 939              		.file 4 "ChibiOS_3.0.2/os/rt/include/chthreads.h"
 940              		.loc 4 268 0
 941 0016 0820     		movs	r0, #8
 942 0018 0121     		movs	r1, #1
 943 001a FFF7FEFF 		bl	chSchGoSleepTimeoutS
 944              	.LVL63:
 945              	.LBE513:
 946              	.LBE512:
 947              	.LBE511:
 948              		.loc 1 508 0
 949 001e E36A     		ldr	r3, [r4, #44]
 950 0020 5A68     		ldr	r2, [r3, #4]
 951 0022 D207     		lsls	r2, r2, #31
 952 0024 F7D5     		bpl	.L73
 953              	.LVL64:
 954              	.L72:
 955              		.loc 1 510 0
 956 0026 6268     		ldr	r2, [r4, #4]
 957              		.loc 1 514 0
 958 0028 0F49     		ldr	r1, .L75+4
 959              		.loc 1 510 0
 960 002a 5068     		ldr	r0, [r2, #4]
 961              		.loc 1 511 0
 962 002c 1268     		ldr	r2, [r2]
ARM GAS  /tmp/ccqmHTUq.s 			page 18


 963              		.loc 1 510 0
 964 002e D861     		str	r0, [r3, #28]
 965              		.loc 1 511 0
 966 0030 1A60     		str	r2, [r3]
 967              		.loc 1 514 0
 968 0032 5961     		str	r1, [r3, #20]
 969 0034 10BD     		pop	{r4, pc}
 970              	.LVL65:
 971              	.L74:
 972              		.loc 1 481 0
 973 0036 1320     		movs	r0, #19
 974              	.LVL66:
 975 0038 0B21     		movs	r1, #11
 976 003a FFF7FEFF 		bl	nvicEnableVector
 977              	.LVL67:
 978              		.loc 1 482 0
 979 003e 1420     		movs	r0, #20
 980 0040 0B21     		movs	r1, #11
 981 0042 FFF7FEFF 		bl	nvicEnableVector
 982              	.LVL68:
 983              		.loc 1 483 0
 984 0046 1520     		movs	r0, #21
 985 0048 0B21     		movs	r1, #11
 986 004a FFF7FEFF 		bl	nvicEnableVector
 987              	.LVL69:
 988              		.loc 1 484 0
 989 004e 1620     		movs	r0, #22
 990 0050 0B21     		movs	r1, #11
 991 0052 FFF7FEFF 		bl	nvicEnableVector
 992              	.LVL70:
 993              		.loc 1 486 0
 994 0056 054B     		ldr	r3, .L75+8
 995 0058 1A6C     		ldr	r2, [r3, #64]
 996 005a 42F00072 		orr	r2, r2, #33554432
 997 005e 1A64     		str	r2, [r3, #64]
 998 0060 D3E7     		b	.L71
 999              	.L76:
 1000 0062 00BF     		.align	2
 1001              	.L75:
 1002 0064 00000000 		.word	.LANCHOR0
 1003 0068 5B8F0100 		.word	102235
 1004 006c 00380240 		.word	1073887232
 1005              		.cfi_endproc
 1006              	.LFE266:
 1007              		.size	can_lld_start, .-can_lld_start
 1008              		.section	.text.can_lld_stop,"ax",%progbits
 1009              		.align	2
 1010              		.p2align 4,,15
 1011              		.global	can_lld_stop
 1012              		.thumb
 1013              		.thumb_func
 1014              		.type	can_lld_stop, %function
 1015              	can_lld_stop:
 1016              	.LFB267:
 1017              		.loc 1 527 0
 1018              		.cfi_startproc
 1019              		@ args = 0, pretend = 0, frame = 0
ARM GAS  /tmp/ccqmHTUq.s 			page 19


 1020              		@ frame_needed = 0, uses_anonymous_args = 0
 1021              	.LVL71:
 1022 0000 08B5     		push	{r3, lr}
 1023              		.cfi_def_cfa_offset 8
 1024              		.cfi_offset 3, -8
 1025              		.cfi_offset 14, -4
 1026              		.loc 1 530 0
 1027 0002 0378     		ldrb	r3, [r0]	@ zero_extendqisi2
 1028 0004 032B     		cmp	r3, #3
 1029 0006 00D0     		beq	.L79
 1030              	.LVL72:
 1031              	.L77:
 1032 0008 08BD     		pop	{r3, pc}
 1033              	.LVL73:
 1034              	.L79:
 1035              		.loc 1 532 0
 1036 000a 0D4B     		ldr	r3, .L80
 1037 000c 9842     		cmp	r0, r3
 1038 000e FBD1     		bne	.L77
 1039              		.loc 1 538 0
 1040 0010 0C4B     		ldr	r3, .L80+4
 1041 0012 0D4A     		ldr	r2, .L80+8
 1042 0014 1A60     		str	r2, [r3]
 1043              		.loc 1 539 0
 1044 0016 0022     		movs	r2, #0
 1045 0018 5A61     		str	r2, [r3, #20]
 1046              		.loc 1 543 0
 1047 001a 1320     		movs	r0, #19
 1048              	.LVL74:
 1049 001c FFF7FEFF 		bl	nvicDisableVector
 1050              	.LVL75:
 1051              		.loc 1 544 0
 1052 0020 1420     		movs	r0, #20
 1053 0022 FFF7FEFF 		bl	nvicDisableVector
 1054              	.LVL76:
 1055              		.loc 1 545 0
 1056 0026 1520     		movs	r0, #21
 1057 0028 FFF7FEFF 		bl	nvicDisableVector
 1058              	.LVL77:
 1059              		.loc 1 546 0
 1060 002c 1620     		movs	r0, #22
 1061 002e FFF7FEFF 		bl	nvicDisableVector
 1062              	.LVL78:
 1063              		.loc 1 548 0
 1064 0032 064B     		ldr	r3, .L80+12
 1065 0034 1A6C     		ldr	r2, [r3, #64]
 1066 0036 22F00072 		bic	r2, r2, #33554432
 1067 003a 1A64     		str	r2, [r3, #64]
 1068 003c E4E7     		b	.L77
 1069              	.L81:
 1070 003e 00BF     		.align	2
 1071              	.L80:
 1072 0040 00000000 		.word	.LANCHOR0
 1073 0044 00640040 		.word	1073767424
 1074 0048 02000100 		.word	65538
 1075 004c 00380240 		.word	1073887232
 1076              		.cfi_endproc
ARM GAS  /tmp/ccqmHTUq.s 			page 20


 1077              	.LFE267:
 1078              		.size	can_lld_stop, .-can_lld_stop
 1079              		.section	.text.can_lld_is_tx_empty,"ax",%progbits
 1080              		.align	2
 1081              		.p2align 4,,15
 1082              		.global	can_lld_is_tx_empty
 1083              		.thumb
 1084              		.thumb_func
 1085              		.type	can_lld_is_tx_empty, %function
 1086              	can_lld_is_tx_empty:
 1087              	.LFB268:
 1088              		.loc 1 581 0
 1089              		.cfi_startproc
 1090              		@ args = 0, pretend = 0, frame = 0
 1091              		@ frame_needed = 0, uses_anonymous_args = 0
 1092              		@ link register save eliminated.
 1093              	.LVL79:
 1094              		.loc 1 583 0
 1095 0000 0329     		cmp	r1, #3
 1096 0002 1AD8     		bhi	.L89
 1097 0004 DFE801F0 		tbb	[pc, r1]
 1098              	.L85:
 1099 0008 11       		.byte	(.L84-.L85)/2
 1100 0009 0C       		.byte	(.L86-.L85)/2
 1101 000a 07       		.byte	(.L87-.L85)/2
 1102 000b 02       		.byte	(.L88-.L85)/2
 1103              		.p2align 1
 1104              	.L88:
 1105              		.loc 1 591 0
 1106 000c C36A     		ldr	r3, [r0, #44]
 1107 000e 9868     		ldr	r0, [r3, #8]
 1108              	.LVL80:
 1109 0010 C0F30070 		ubfx	r0, r0, #28, #1
 1110 0014 7047     		bx	lr
 1111              	.LVL81:
 1112              	.L87:
 1113              		.loc 1 589 0
 1114 0016 C36A     		ldr	r3, [r0, #44]
 1115 0018 9868     		ldr	r0, [r3, #8]
 1116              	.LVL82:
 1117 001a C0F3C060 		ubfx	r0, r0, #27, #1
 1118 001e 7047     		bx	lr
 1119              	.LVL83:
 1120              	.L86:
 1121              		.loc 1 587 0
 1122 0020 C36A     		ldr	r3, [r0, #44]
 1123 0022 9868     		ldr	r0, [r3, #8]
 1124              	.LVL84:
 1125 0024 C0F38060 		ubfx	r0, r0, #26, #1
 1126 0028 7047     		bx	lr
 1127              	.LVL85:
 1128              	.L84:
 1129              		.loc 1 585 0
 1130 002a C36A     		ldr	r3, [r0, #44]
 1131 002c 9B68     		ldr	r3, [r3, #8]
 1132 002e 13F0E05F 		tst	r3, #469762048
 1133 0032 0CBF     		ite	eq
ARM GAS  /tmp/ccqmHTUq.s 			page 21


 1134 0034 0020     		moveq	r0, #0
 1135 0036 0120     		movne	r0, #1
 1136              	.LVL86:
 1137 0038 7047     		bx	lr
 1138              	.LVL87:
 1139              	.L89:
 1140              		.loc 1 593 0
 1141 003a 0020     		movs	r0, #0
 1142              	.LVL88:
 1143              		.loc 1 595 0
 1144 003c 7047     		bx	lr
 1145              		.cfi_endproc
 1146              	.LFE268:
 1147              		.size	can_lld_is_tx_empty, .-can_lld_is_tx_empty
 1148 003e 00BF     		.section	.text.can_lld_transmit,"ax",%progbits
 1149              		.align	2
 1150              		.p2align 4,,15
 1151              		.global	can_lld_transmit
 1152              		.thumb
 1153              		.thumb_func
 1154              		.type	can_lld_transmit, %function
 1155              	can_lld_transmit:
 1156              	.LFB269:
 1157              		.loc 1 608 0
 1158              		.cfi_startproc
 1159              		@ args = 0, pretend = 0, frame = 0
 1160              		@ frame_needed = 0, uses_anonymous_args = 0
 1161              		@ link register save eliminated.
 1162              	.LVL89:
 1163 0000 10B4     		push	{r4}
 1164              		.cfi_def_cfa_offset 4
 1165              		.cfi_offset 4, -4
 1166              		.loc 1 613 0
 1167 0002 0329     		cmp	r1, #3
 1168 0004 1BD8     		bhi	.L90
 1169 0006 DFE801F0 		tbb	[pc, r1]
 1170              	.L93:
 1171 000a 2E       		.byte	(.L92-.L93)/2
 1172 000b 2A       		.byte	(.L94-.L93)/2
 1173 000c 1D       		.byte	(.L95-.L93)/2
 1174 000d 02       		.byte	(.L96-.L93)/2
 1175              		.p2align 1
 1176              	.L96:
 1177              		.loc 1 624 0
 1178 000e C36A     		ldr	r3, [r0, #44]
 1179 0010 03F5D073 		add	r3, r3, #416
 1180              	.LVL90:
 1181              	.L97:
 1182              		.loc 1 631 0
 1183 0014 1178     		ldrb	r1, [r2]	@ zero_extendqisi2
 1184 0016 8806     		lsls	r0, r1, #26
 1185              	.LVL91:
 1186 0018 1AD5     		bpl	.L98
 1187              	.L100:
 1188              		.loc 1 632 0
 1189 001a C1F30010 		ubfx	r0, r1, #4, #1
 1190 001e 5468     		ldr	r4, [r2, #4]
ARM GAS  /tmp/ccqmHTUq.s 			page 22


 1191 0020 4000     		lsls	r0, r0, #1
 1192 0022 40EAC400 		orr	r0, r0, r4, lsl #3
 1193 0026 40F00400 		orr	r0, r0, #4
 1194              	.LVL92:
 1195              	.L99:
 1196              		.loc 1 636 0
 1197 002a 01F00F01 		and	r1, r1, #15
 1198 002e 5960     		str	r1, [r3, #4]
 1199              		.loc 1 637 0
 1200 0030 9168     		ldr	r1, [r2, #8]
 1201 0032 9960     		str	r1, [r3, #8]
 1202              		.loc 1 638 0
 1203 0034 D268     		ldr	r2, [r2, #12]
 1204              	.LVL93:
 1205 0036 DA60     		str	r2, [r3, #12]
 1206              		.loc 1 639 0
 1207 0038 40F00101 		orr	r1, r0, #1
 1208 003c 1960     		str	r1, [r3]
 1209              	.LVL94:
 1210              	.L90:
 1211              		.loc 1 640 0
 1212 003e 5DF8044B 		ldr	r4, [sp], #4
 1213 0042 7047     		bx	lr
 1214              	.LVL95:
 1215              	.L95:
 1216              		.loc 1 631 0
 1217 0044 1178     		ldrb	r1, [r2]	@ zero_extendqisi2
 1218              	.LVL96:
 1219              		.loc 1 621 0
 1220 0046 C36A     		ldr	r3, [r0, #44]
 1221              		.loc 1 631 0
 1222 0048 8806     		lsls	r0, r1, #26
 1223              	.LVL97:
 1224              		.loc 1 621 0
 1225 004a 03F5C873 		add	r3, r3, #400
 1226              	.LVL98:
 1227              		.loc 1 631 0
 1228 004e E4D4     		bmi	.L100
 1229              	.L98:
 1230              		.loc 1 635 0
 1231 0050 9488     		ldrh	r4, [r2, #4]
 1232 0052 C1F30010 		ubfx	r0, r1, #4, #1
 1233 0056 6405     		lsls	r4, r4, #21
 1234 0058 44EA4000 		orr	r0, r4, r0, lsl #1
 1235              	.LVL99:
 1236 005c E5E7     		b	.L99
 1237              	.LVL100:
 1238              	.L94:
 1239              		.loc 1 618 0
 1240 005e C36A     		ldr	r3, [r0, #44]
 1241 0060 03F5C073 		add	r3, r3, #384
 1242              	.LVL101:
 1243              		.loc 1 619 0
 1244 0064 D6E7     		b	.L97
 1245              	.LVL102:
 1246              	.L92:
 1247              		.loc 1 615 0
ARM GAS  /tmp/ccqmHTUq.s 			page 23


 1248 0066 C16A     		ldr	r1, [r0, #44]
 1249              	.LVL103:
 1250 0068 8B68     		ldr	r3, [r1, #8]
 1251 006a C3F30163 		ubfx	r3, r3, #24, #2
 1252 006e 1833     		adds	r3, r3, #24
 1253 0070 01EB0313 		add	r3, r1, r3, lsl #4
 1254              	.LVL104:
 1255              		.loc 1 616 0
 1256 0074 CEE7     		b	.L97
 1257              		.cfi_endproc
 1258              	.LFE269:
 1259              		.size	can_lld_transmit, .-can_lld_transmit
 1260 0076 00BFAFF3 		.section	.text.can_lld_is_rx_nonempty,"ax",%progbits
 1260      0080AFF3 
 1260      0080
 1261              		.align	2
 1262              		.p2align 4,,15
 1263              		.global	can_lld_is_rx_nonempty
 1264              		.thumb
 1265              		.thumb_func
 1266              		.type	can_lld_is_rx_nonempty, %function
 1267              	can_lld_is_rx_nonempty:
 1268              	.LFB270:
 1269              		.loc 1 654 0
 1270              		.cfi_startproc
 1271              		@ args = 0, pretend = 0, frame = 0
 1272              		@ frame_needed = 0, uses_anonymous_args = 0
 1273              		@ link register save eliminated.
 1274              	.LVL105:
 1275              		.loc 1 656 0
 1276 0000 0129     		cmp	r1, #1
 1277 0002 11D0     		beq	.L103
 1278 0004 0AD3     		bcc	.L104
 1279 0006 0229     		cmp	r1, #2
 1280 0008 06D1     		bne	.L111
 1281              		.loc 1 663 0
 1282 000a C36A     		ldr	r3, [r0, #44]
 1283              	.L110:
 1284 000c 1869     		ldr	r0, [r3, #16]
 1285              	.LVL106:
 1286 000e 10F00300 		ands	r0, r0, #3
 1287 0012 18BF     		it	ne
 1288 0014 0120     		movne	r0, #1
 1289 0016 7047     		bx	lr
 1290              	.LVL107:
 1291              	.L111:
 1292              		.loc 1 665 0
 1293 0018 0020     		movs	r0, #0
 1294              	.LVL108:
 1295              		.loc 1 667 0
 1296 001a 7047     		bx	lr
 1297              	.LVL109:
 1298              	.L104:
 1299              		.loc 1 658 0
 1300 001c C36A     		ldr	r3, [r0, #44]
 1301 001e DA68     		ldr	r2, [r3, #12]
 1302 0020 9207     		lsls	r2, r2, #30
ARM GAS  /tmp/ccqmHTUq.s 			page 24


 1303 0022 F3D0     		beq	.L110
 1304 0024 0120     		movs	r0, #1
 1305              	.LVL110:
 1306 0026 7047     		bx	lr
 1307              	.LVL111:
 1308              	.L103:
 1309              		.loc 1 661 0
 1310 0028 C36A     		ldr	r3, [r0, #44]
 1311 002a D868     		ldr	r0, [r3, #12]
 1312              	.LVL112:
 1313 002c 10F00300 		ands	r0, r0, #3
 1314 0030 18BF     		it	ne
 1315 0032 0120     		movne	r0, #1
 1316 0034 7047     		bx	lr
 1317              		.cfi_endproc
 1318              	.LFE270:
 1319              		.size	can_lld_is_rx_nonempty, .-can_lld_is_rx_nonempty
 1320 0036 00BFAFF3 		.section	.text.can_lld_receive,"ax",%progbits
 1320      0080AFF3 
 1320      0080
 1321              		.align	2
 1322              		.p2align 4,,15
 1323              		.global	can_lld_receive
 1324              		.thumb
 1325              		.thumb_func
 1326              		.type	can_lld_receive, %function
 1327              	can_lld_receive:
 1328              	.LFB271:
 1329              		.loc 1 680 0
 1330              		.cfi_startproc
 1331              		@ args = 0, pretend = 0, frame = 0
 1332              		@ frame_needed = 0, uses_anonymous_args = 0
 1333              		@ link register save eliminated.
 1334              	.LVL113:
 1335 0000 10B4     		push	{r4}
 1336              		.cfi_def_cfa_offset 4
 1337              		.cfi_offset 4, -4
 1338              		.loc 1 683 0
 1339 0002 0029     		cmp	r1, #0
 1340 0004 30D1     		bne	.L113
 1341              		.loc 1 684 0
 1342 0006 C36A     		ldr	r3, [r0, #44]
 1343 0008 D968     		ldr	r1, [r3, #12]
 1344              	.LVL114:
 1345 000a 8907     		lsls	r1, r1, #30
 1346 000c 33D0     		beq	.L122
 1347              	.L114:
 1348              	.LVL115:
 1349              		.loc 1 696 0
 1350 000e D3F8B041 		ldr	r4, [r3, #432]
 1351              	.LVL116:
 1352              		.loc 1 697 0
 1353 0012 D3F8B411 		ldr	r1, [r3, #436]
 1354              	.LVL117:
 1355              		.loc 1 698 0
 1356 0016 D3F8B831 		ldr	r3, [r3, #440]
 1357 001a D360     		str	r3, [r2, #12]
ARM GAS  /tmp/ccqmHTUq.s 			page 25


 1358              		.loc 1 699 0
 1359 001c C36A     		ldr	r3, [r0, #44]
 1360 001e D3F8BC31 		ldr	r3, [r3, #444]
 1361 0022 1361     		str	r3, [r2, #16]
 1362              		.loc 1 702 0
 1363 0024 C36A     		ldr	r3, [r0, #44]
 1364 0026 2020     		movs	r0, #32
 1365              	.LVL118:
 1366 0028 D860     		str	r0, [r3, #12]
 1367              		.loc 1 706 0
 1368 002a D868     		ldr	r0, [r3, #12]
 1369 002c 8007     		lsls	r0, r0, #30
 1370 002e 41D0     		beq	.L123
 1371              	.L119:
 1372              		.loc 1 730 0
 1373 0030 1079     		ldrb	r0, [r2, #4]	@ zero_extendqisi2
 1374 0032 C4F34003 		ubfx	r3, r4, #1, #1
 1375 0036 63F30410 		bfi	r0, r3, #4, #1
 1376              		.loc 1 731 0
 1377 003a C4F38003 		ubfx	r3, r4, #2, #1
 1378 003e 63F34510 		bfi	r0, r3, #5, #1
 1379 0042 1071     		strb	r0, [r2, #4]
 1380              		.loc 1 732 0
 1381 0044 002B     		cmp	r3, #0
 1382 0046 2FD0     		beq	.L120
 1383              		.loc 1 733 0
 1384 0048 9368     		ldr	r3, [r2, #8]
 1385 004a E408     		lsrs	r4, r4, #3
 1386              	.LVL119:
 1387 004c 64F31C03 		bfi	r3, r4, #0, #29
 1388 0050 9360     		str	r3, [r2, #8]
 1389              	.L121:
 1390              		.loc 1 736 0
 1391 0052 1379     		ldrb	r3, [r2, #4]	@ zero_extendqisi2
 1392              		.loc 1 739 0
 1393 0054 5DF8044B 		ldr	r4, [sp], #4
 1394              		.loc 1 737 0
 1395 0058 080A     		lsrs	r0, r1, #8
 1396              		.loc 1 736 0
 1397 005a 61F30303 		bfi	r3, r1, #0, #4
 1398              		.loc 1 738 0
 1399 005e 090C     		lsrs	r1, r1, #16
 1400              	.LVL120:
 1401              		.loc 1 736 0
 1402 0060 1371     		strb	r3, [r2, #4]
 1403              		.loc 1 737 0
 1404 0062 1070     		strb	r0, [r2]
 1405              		.loc 1 738 0
 1406 0064 5180     		strh	r1, [r2, #2]	@ movhi
 1407              		.loc 1 739 0
 1408 0066 7047     		bx	lr
 1409              	.LVL121:
 1410              	.L113:
 1411              		.loc 1 693 0
 1412 0068 0129     		cmp	r1, #1
 1413 006a 28D0     		beq	.L117
 1414 006c 0229     		cmp	r1, #2
ARM GAS  /tmp/ccqmHTUq.s 			page 26


 1415 006e 28D0     		beq	.L124
 1416              	.LVL122:
 1417              	.L112:
 1418              		.loc 1 739 0
 1419 0070 5DF8044B 		ldr	r4, [sp], #4
 1420 0074 7047     		bx	lr
 1421              	.L122:
 1422              		.loc 1 686 0
 1423 0076 1969     		ldr	r1, [r3, #16]
 1424 0078 8C07     		lsls	r4, r1, #30
 1425 007a F9D0     		beq	.L112
 1426              	.L115:
 1427              	.LVL123:
 1428              		.loc 1 711 0
 1429 007c D3F8C041 		ldr	r4, [r3, #448]
 1430              	.LVL124:
 1431              		.loc 1 712 0
 1432 0080 D3F8C411 		ldr	r1, [r3, #452]
 1433              	.LVL125:
 1434              		.loc 1 713 0
 1435 0084 D3F8C831 		ldr	r3, [r3, #456]
 1436 0088 D360     		str	r3, [r2, #12]
 1437              		.loc 1 714 0
 1438 008a C36A     		ldr	r3, [r0, #44]
 1439 008c D3F8CC31 		ldr	r3, [r3, #460]
 1440 0090 1361     		str	r3, [r2, #16]
 1441              		.loc 1 717 0
 1442 0092 C36A     		ldr	r3, [r0, #44]
 1443 0094 2020     		movs	r0, #32
 1444              	.LVL126:
 1445 0096 1861     		str	r0, [r3, #16]
 1446              		.loc 1 721 0
 1447 0098 1869     		ldr	r0, [r3, #16]
 1448 009a 8007     		lsls	r0, r0, #30
 1449 009c C8D1     		bne	.L119
 1450              		.loc 1 722 0
 1451 009e 5869     		ldr	r0, [r3, #20]
 1452 00a0 40F01000 		orr	r0, r0, #16
 1453 00a4 5861     		str	r0, [r3, #20]
 1454 00a6 C3E7     		b	.L119
 1455              	.L120:
 1456              		.loc 1 735 0
 1457 00a8 1389     		ldrh	r3, [r2, #8]
 1458 00aa 640D     		lsrs	r4, r4, #21
 1459              	.LVL127:
 1460 00ac 64F30A03 		bfi	r3, r4, #0, #11
 1461 00b0 1381     		strh	r3, [r2, #8]	@ movhi
 1462 00b2 CEE7     		b	.L121
 1463              	.LVL128:
 1464              	.L123:
 1465              		.loc 1 707 0
 1466 00b4 5869     		ldr	r0, [r3, #20]
 1467 00b6 40F00200 		orr	r0, r0, #2
 1468 00ba 5861     		str	r0, [r3, #20]
 1469 00bc B8E7     		b	.L119
 1470              	.LVL129:
 1471              	.L117:
ARM GAS  /tmp/ccqmHTUq.s 			page 27


 1472 00be C36A     		ldr	r3, [r0, #44]
 1473 00c0 A5E7     		b	.L114
 1474              	.L124:
 1475 00c2 C36A     		ldr	r3, [r0, #44]
 1476 00c4 DAE7     		b	.L115
 1477              		.cfi_endproc
 1478              	.LFE271:
 1479              		.size	can_lld_receive, .-can_lld_receive
 1480 00c6 00BFAFF3 		.section	.text.can_lld_sleep,"ax",%progbits
 1480      0080AFF3 
 1480      0080
 1481              		.align	2
 1482              		.p2align 4,,15
 1483              		.global	can_lld_sleep
 1484              		.thumb
 1485              		.thumb_func
 1486              		.type	can_lld_sleep, %function
 1487              	can_lld_sleep:
 1488              	.LFB272:
 1489              		.loc 1 749 0
 1490              		.cfi_startproc
 1491              		@ args = 0, pretend = 0, frame = 0
 1492              		@ frame_needed = 0, uses_anonymous_args = 0
 1493              		@ link register save eliminated.
 1494              	.LVL130:
 1495              		.loc 1 751 0
 1496 0000 C36A     		ldr	r3, [r0, #44]
 1497 0002 1A68     		ldr	r2, [r3]
 1498 0004 42F00202 		orr	r2, r2, #2
 1499 0008 1A60     		str	r2, [r3]
 1500 000a 7047     		bx	lr
 1501              		.cfi_endproc
 1502              	.LFE272:
 1503              		.size	can_lld_sleep, .-can_lld_sleep
 1504 000c AFF30080 		.section	.text.can_lld_wakeup,"ax",%progbits
 1505              		.align	2
 1506              		.p2align 4,,15
 1507              		.global	can_lld_wakeup
 1508              		.thumb
 1509              		.thumb_func
 1510              		.type	can_lld_wakeup, %function
 1511              	can_lld_wakeup:
 1512              	.LFB273:
 1513              		.loc 1 761 0
 1514              		.cfi_startproc
 1515              		@ args = 0, pretend = 0, frame = 0
 1516              		@ frame_needed = 0, uses_anonymous_args = 0
 1517              		@ link register save eliminated.
 1518              	.LVL131:
 1519              		.loc 1 763 0
 1520 0000 C36A     		ldr	r3, [r0, #44]
 1521 0002 1A68     		ldr	r2, [r3]
 1522 0004 22F00202 		bic	r2, r2, #2
 1523 0008 1A60     		str	r2, [r3]
 1524 000a 7047     		bx	lr
 1525              		.cfi_endproc
 1526              	.LFE273:
ARM GAS  /tmp/ccqmHTUq.s 			page 28


 1527              		.size	can_lld_wakeup, .-can_lld_wakeup
 1528 000c AFF30080 		.section	.text.canSTM32SetFilters,"ax",%progbits
 1529              		.align	2
 1530              		.p2align 4,,15
 1531              		.global	canSTM32SetFilters
 1532              		.thumb
 1533              		.thumb_func
 1534              		.type	canSTM32SetFilters, %function
 1535              	canSTM32SetFilters:
 1536              	.LFB274:
 1537              		.loc 1 779 0
 1538              		.cfi_startproc
 1539              		@ args = 0, pretend = 0, frame = 0
 1540              		@ frame_needed = 0, uses_anonymous_args = 0
 1541              		@ link register save eliminated.
 1542              	.LVL132:
 1543              		.loc 1 791 0
 1544 0000 FFF7FEBF 		b	can_lld_set_filters
 1545              	.LVL133:
 1546              		.cfi_endproc
 1547              	.LFE274:
 1548              		.size	canSTM32SetFilters, .-canSTM32SetFilters
 1549              		.global	CAND1
 1550 0004 AFF30080 		.section	.bss.CAND1,"aw",%nobits
 1550      AFF30080 
 1550      AFF30080 
 1551              		.align	2
 1552              		.set	.LANCHOR0,. + 0
 1553              		.type	CAND1, %object
 1554              		.size	CAND1, 48
 1555              	CAND1:
 1556 0000 00000000 		.space	48
 1556      00000000 
 1556      00000000 
 1556      00000000 
 1556      00000000 
 1557              		.text
 1558              	.Letext0:
 1559              		.file 5 "/usr/lib/gcc/arm-none-eabi/4.8/include/stddef.h"
 1560              		.file 6 "/usr/include/newlib/machine/_default_types.h"
 1561              		.file 7 "/usr/include/newlib/stdint.h"
 1562              		.file 8 "ChibiOS_3.0.2/os/rt/ports/ARMCMx/compilers/GCC/chtypes.h"
 1563              		.file 9 "ChibiOS_3.0.2/os/rt/include/chsystypes.h"
 1564              		.file 10 "ChibiOS_3.0.2/os/rt/include/chschd.h"
 1565              		.file 11 "ChibiOS_3.0.2/os/ext/CMSIS/ST/stm32f407xx.h"
 1566              		.file 12 "ChibiOS_3.0.2/os/rt/ports/ARMCMx/chcore.h"
 1567              		.file 13 "ChibiOS_3.0.2/os/rt/ports/ARMCMx/chcore_v7m.h"
 1568              		.file 14 "ChibiOS_3.0.2/os/rt/include/chtm.h"
 1569              		.file 15 "ChibiOS_3.0.2/os/rt/include/chsem.h"
 1570              		.file 16 "ChibiOS_3.0.2/os/rt/include/chmtx.h"
 1571              		.file 17 "ChibiOS_3.0.2/os/rt/include/chevents.h"
 1572              		.file 18 "ChibiOS_3.0.2/os/hal/include/can.h"
 1573              		.file 19 "ChibiOS_3.0.2/os/hal/ports/STM32/LLD/can_lld.h"
 1574              		.file 20 "ChibiOS_3.0.2/os/rt/include/chsys.h"
 1575              		.file 21 "ChibiOS_3.0.2/os/ext/CMSIS/include/core_cm4.h"
 1576              		.file 22 "ChibiOS_3.0.2/os/hal/ports/common/ARMCMx/nvic.h"