ARM GAS  /tmp/ccioCThw.s 			page 1


   1              		.syntax unified
   2              		.cpu cortex-m4
   3              		.eabi_attribute 27, 3
   4              		.eabi_attribute 28, 1
   5              		.fpu fpv4-sp-d16
   6              		.eabi_attribute 20, 1
   7              		.eabi_attribute 21, 1
   8              		.eabi_attribute 23, 3
   9              		.eabi_attribute 24, 1
  10              		.eabi_attribute 25, 1
  11              		.eabi_attribute 26, 1
  12              		.eabi_attribute 30, 2
  13              		.eabi_attribute 34, 1
  14              		.eabi_attribute 18, 4
  15              		.thumb
  16              		.file	"chcond.c"
  17              		.text
  18              	.Ltext0:
  19              		.cfi_sections	.debug_frame
  20              		.section	.text.chCondObjectInit,"ax",%progbits
  21              		.align	2
  22              		.p2align 4,,15
  23              		.global	chCondObjectInit
  24              		.thumb
  25              		.thumb_func
  26              		.type	chCondObjectInit, %function
  27              	chCondObjectInit:
  28              	.LFB219:
  29              		.file 1 "ChibiOS_3.0.2/os/rt/src/chcond.c"
  30              		.loc 1 75 0
  31              		.cfi_startproc
  32              		@ args = 0, pretend = 0, frame = 0
  33              		@ frame_needed = 0, uses_anonymous_args = 0
  34              		@ link register save eliminated.
  35              	.LVL0:
  36              	.LBB83:
  37              	.LBB84:
  38              		.file 2 "ChibiOS_3.0.2/os/rt/include/chschd.h"
  39              		.loc 2 604 0
  40 0000 0060     		str	r0, [r0]
  41              		.loc 2 605 0
  42 0002 4060     		str	r0, [r0, #4]
  43 0004 7047     		bx	lr
  44              	.LBE84:
  45              	.LBE83:
  46              		.cfi_endproc
  47              	.LFE219:
  48              		.size	chCondObjectInit, .-chCondObjectInit
  49 0006 00BFAFF3 		.section	.text.chCondSignal,"ax",%progbits
  49      0080AFF3 
  49      0080
  50              		.align	2
  51              		.p2align 4,,15
  52              		.global	chCondSignal
  53              		.thumb
  54              		.thumb_func
  55              		.type	chCondSignal, %function
ARM GAS  /tmp/ccioCThw.s 			page 2


  56              	chCondSignal:
  57              	.LFB220:
  58              		.loc 1 89 0
  59              		.cfi_startproc
  60              		@ args = 0, pretend = 0, frame = 0
  61              		@ frame_needed = 0, uses_anonymous_args = 0
  62              	.LVL1:
  63 0000 08B5     		push	{r3, lr}
  64              		.cfi_def_cfa_offset 8
  65              		.cfi_offset 3, -8
  66              		.cfi_offset 14, -4
  67              	.LBB85:
  68              	.LBB86:
  69              	.LBB87:
  70              	.LBB88:
  71              		.file 3 "ChibiOS_3.0.2/os/ext/CMSIS/include/core_cmFunc.h"
  72              		.loc 3 546 0
  73 0002 2022     		movs	r2, #32
  74              	.LBE88:
  75              	.LBE87:
  76              	.LBE86:
  77              	.LBE85:
  78              		.loc 1 89 0
  79 0004 0346     		mov	r3, r0
  80              	.LBB92:
  81              	.LBB91:
  82              	.LBB90:
  83              	.LBB89:
  84              		.loc 3 546 0
  85              	@ 546 "ChibiOS_3.0.2/os/ext/CMSIS/include/core_cmFunc.h" 1
  86 0006 82F31188 		MSR basepri, r2
  87              	@ 0 "" 2
  88              	.LVL2:
  89              		.thumb
  90              	.LBE89:
  91              	.LBE90:
  92              	.LBE91:
  93              	.LBE92:
  94              	.LBB93:
  95              	.LBB94:
  96              		.loc 2 631 0
  97 000a 0068     		ldr	r0, [r0]
  98              	.LVL3:
  99              	.LBE94:
 100              	.LBE93:
 101              		.loc 1 94 0
 102 000c 8342     		cmp	r3, r0
 103 000e 05D0     		beq	.L3
 104              	.LVL4:
 105              	.LBB95:
 106              	.LBB96:
 107              		.loc 2 674 0
 108 0010 0268     		ldr	r2, [r0]
 109 0012 1A60     		str	r2, [r3]
 110              	.LBE96:
 111              	.LBE95:
 112              		.loc 1 95 0
ARM GAS  /tmp/ccioCThw.s 			page 3


 113 0014 0021     		movs	r1, #0
 114              	.LBB98:
 115              	.LBB97:
 116              		.loc 2 675 0
 117 0016 5360     		str	r3, [r2, #4]
 118              	.LBE97:
 119              	.LBE98:
 120              		.loc 1 95 0
 121 0018 FFF7FEFF 		bl	chSchWakeupS
 122              	.LVL5:
 123              	.L3:
 124              	.LBB99:
 125              	.LBB100:
 126              	.LBB101:
 127              	.LBB102:
 128              	.LBB103:
 129              		.loc 3 546 0
 130 001c 0023     		movs	r3, #0
 131              	@ 546 "ChibiOS_3.0.2/os/ext/CMSIS/include/core_cmFunc.h" 1
 132 001e 83F31188 		MSR basepri, r3
 133              	@ 0 "" 2
 134              		.thumb
 135 0022 08BD     		pop	{r3, pc}
 136              	.LBE103:
 137              	.LBE102:
 138              	.LBE101:
 139              	.LBE100:
 140              	.LBE99:
 141              		.cfi_endproc
 142              	.LFE220:
 143              		.size	chCondSignal, .-chCondSignal
 144 0024 AFF30080 		.section	.text.chCondSignalI,"ax",%progbits
 144      AFF30080 
 144      AFF30080 
 145              		.align	2
 146              		.p2align 4,,15
 147              		.global	chCondSignalI
 148              		.thumb
 149              		.thumb_func
 150              		.type	chCondSignalI, %function
 151              	chCondSignalI:
 152              	.LFB221:
 153              		.loc 1 111 0
 154              		.cfi_startproc
 155              		@ args = 0, pretend = 0, frame = 0
 156              		@ frame_needed = 0, uses_anonymous_args = 0
 157              		@ link register save eliminated.
 158              	.LVL6:
 159              	.LBB104:
 160              	.LBB105:
 161              		.loc 2 631 0
 162 0000 0368     		ldr	r3, [r0]
 163              	.LBE105:
 164              	.LBE104:
 165              		.loc 1 116 0
 166 0002 9842     		cmp	r0, r3
 167 0004 07D0     		beq	.L5
ARM GAS  /tmp/ccioCThw.s 			page 4


 168              	.LVL7:
 169              	.LBB106:
 170              	.LBB107:
 171              	.LBB108:
 172              		.loc 2 674 0
 173 0006 1A68     		ldr	r2, [r3]
 174 0008 0260     		str	r2, [r0]
 175              	.LBE108:
 176              	.LBE107:
 177              		.loc 1 118 0
 178 000a 0021     		movs	r1, #0
 179              	.LBB110:
 180              	.LBB109:
 181              		.loc 2 675 0
 182 000c 5060     		str	r0, [r2, #4]
 183              	.LBE109:
 184              	.LBE110:
 185              		.loc 1 119 0
 186 000e 1846     		mov	r0, r3
 187              	.LVL8:
 188              		.loc 1 118 0
 189 0010 5962     		str	r1, [r3, #36]
 190              		.loc 1 119 0
 191 0012 FFF7FEBF 		b	chSchReadyI
 192              	.LVL9:
 193              	.L5:
 194 0016 7047     		bx	lr
 195              	.LBE106:
 196              		.cfi_endproc
 197              	.LFE221:
 198              		.size	chCondSignalI, .-chCondSignalI
 199 0018 AFF30080 		.section	.text.chCondBroadcastI,"ax",%progbits
 199      AFF30080 
 200              		.align	2
 201              		.p2align 4,,15
 202              		.global	chCondBroadcastI
 203              		.thumb
 204              		.thumb_func
 205              		.type	chCondBroadcastI, %function
 206              	chCondBroadcastI:
 207              	.LFB223:
 208              		.loc 1 149 0
 209              		.cfi_startproc
 210              		@ args = 0, pretend = 0, frame = 0
 211              		@ frame_needed = 0, uses_anonymous_args = 0
 212              	.LVL10:
 213 0000 38B5     		push	{r3, r4, r5, lr}
 214              		.cfi_def_cfa_offset 16
 215              		.cfi_offset 3, -16
 216              		.cfi_offset 4, -12
 217              		.cfi_offset 5, -8
 218              		.cfi_offset 14, -4
 219              		.loc 1 149 0
 220 0002 0446     		mov	r4, r0
 221              	.LVL11:
 222              	.LBB111:
 223              	.LBB112:
ARM GAS  /tmp/ccioCThw.s 			page 5


 224              		.loc 2 631 0
 225 0004 0068     		ldr	r0, [r0]
 226              	.LVL12:
 227              	.LBE112:
 228              	.LBE111:
 229              		.loc 1 157 0
 230 0006 8442     		cmp	r4, r0
 231 0008 0AD0     		beq	.L7
 232              		.loc 1 158 0
 233 000a 6FF00105 		mvn	r5, #1
 234              	.L10:
 235              	.LVL13:
 236              	.LBB114:
 237              	.LBB115:
 238              		.loc 2 674 0
 239 000e 0368     		ldr	r3, [r0]
 240 0010 2360     		str	r3, [r4]
 241              		.loc 2 675 0
 242 0012 5C60     		str	r4, [r3, #4]
 243              	.LBE115:
 244              	.LBE114:
 245              		.loc 1 158 0
 246 0014 FFF7FEFF 		bl	chSchReadyI
 247              	.LVL14:
 248 0018 4562     		str	r5, [r0, #36]
 249              	.LBB116:
 250              	.LBB113:
 251              		.loc 2 631 0
 252 001a 2068     		ldr	r0, [r4]
 253              	.LBE113:
 254              	.LBE116:
 255              		.loc 1 157 0
 256 001c A042     		cmp	r0, r4
 257 001e F6D1     		bne	.L10
 258              	.LVL15:
 259              	.L7:
 260 0020 38BD     		pop	{r3, r4, r5, pc}
 261              		.cfi_endproc
 262              	.LFE223:
 263              		.size	chCondBroadcastI, .-chCondBroadcastI
 264 0022 00BFAFF3 		.section	.text.chCondBroadcast,"ax",%progbits
 264      0080AFF3 
 264      0080AFF3 
 264      0080
 265              		.align	2
 266              		.p2align 4,,15
 267              		.global	chCondBroadcast
 268              		.thumb
 269              		.thumb_func
 270              		.type	chCondBroadcast, %function
 271              	chCondBroadcast:
 272              	.LFB222:
 273              		.loc 1 130 0
 274              		.cfi_startproc
 275              		@ args = 0, pretend = 0, frame = 0
 276              		@ frame_needed = 0, uses_anonymous_args = 0
 277              	.LVL16:
ARM GAS  /tmp/ccioCThw.s 			page 6


 278 0000 08B5     		push	{r3, lr}
 279              		.cfi_def_cfa_offset 8
 280              		.cfi_offset 3, -8
 281              		.cfi_offset 14, -4
 282              	.LBB117:
 283              	.LBB118:
 284              	.LBB119:
 285              	.LBB120:
 286              		.loc 3 546 0
 287 0002 2023     		movs	r3, #32
 288              	@ 546 "ChibiOS_3.0.2/os/ext/CMSIS/include/core_cmFunc.h" 1
 289 0004 83F31188 		MSR basepri, r3
 290              	@ 0 "" 2
 291              		.thumb
 292              	.LBE120:
 293              	.LBE119:
 294              	.LBE118:
 295              	.LBE117:
 296              		.loc 1 133 0
 297 0008 FFF7FEFF 		bl	chCondBroadcastI
 298              	.LVL17:
 299              		.loc 1 134 0
 300 000c FFF7FEFF 		bl	chSchRescheduleS
 301              	.LVL18:
 302              	.LBB121:
 303              	.LBB122:
 304              	.LBB123:
 305              	.LBB124:
 306              	.LBB125:
 307              		.loc 3 546 0
 308 0010 0023     		movs	r3, #0
 309              	@ 546 "ChibiOS_3.0.2/os/ext/CMSIS/include/core_cmFunc.h" 1
 310 0012 83F31188 		MSR basepri, r3
 311              	@ 0 "" 2
 312              		.thumb
 313 0016 08BD     		pop	{r3, pc}
 314              	.LBE125:
 315              	.LBE124:
 316              	.LBE123:
 317              	.LBE122:
 318              	.LBE121:
 319              		.cfi_endproc
 320              	.LFE222:
 321              		.size	chCondBroadcast, .-chCondBroadcast
 322 0018 AFF30080 		.section	.text.chCondWaitS,"ax",%progbits
 322      AFF30080 
 323              		.align	2
 324              		.p2align 4,,15
 325              		.global	chCondWaitS
 326              		.thumb
 327              		.thumb_func
 328              		.type	chCondWaitS, %function
 329              	chCondWaitS:
 330              	.LFB225:
 331              		.loc 1 205 0
 332              		.cfi_startproc
 333              		@ args = 0, pretend = 0, frame = 0
ARM GAS  /tmp/ccioCThw.s 			page 7


 334              		@ frame_needed = 0, uses_anonymous_args = 0
 335              	.LVL19:
 336              		.loc 1 206 0
 337 0000 0F4B     		ldr	r3, .L18
 338              		.loc 1 205 0
 339 0002 70B5     		push	{r4, r5, r6, lr}
 340              		.cfi_def_cfa_offset 16
 341              		.cfi_offset 4, -16
 342              		.cfi_offset 5, -12
 343              		.cfi_offset 6, -8
 344              		.cfi_offset 14, -4
 345              		.loc 1 206 0
 346 0004 9C69     		ldr	r4, [r3, #24]
 347              	.LVL20:
 348              	.LBB126:
 349              	.LBB127:
 350              		.file 4 "ChibiOS_3.0.2/os/rt/include/chmtx.h"
 351              		.loc 4 146 0
 352 0006 E66B     		ldr	r6, [r4, #60]
 353              	.LBE127:
 354              	.LBE126:
 355              		.loc 1 205 0
 356 0008 0546     		mov	r5, r0
 357              		.loc 1 216 0
 358 000a 3046     		mov	r0, r6
 359              	.LVL21:
 360 000c FFF7FEFF 		bl	chMtxUnlockS
 361              	.LVL22:
 362              		.loc 1 220 0
 363 0010 6562     		str	r5, [r4, #36]
 364              	.LVL23:
 365              	.LBB128:
 366              	.LBB129:
 367              		.loc 2 653 0
 368 0012 2B46     		mov	r3, r5
 369 0014 03E0     		b	.L15
 370              	.LVL24:
 371              	.L17:
 372              		.loc 2 656 0
 373 0016 9968     		ldr	r1, [r3, #8]
 374 0018 A268     		ldr	r2, [r4, #8]
 375 001a 9142     		cmp	r1, r2
 376 001c 02D3     		bcc	.L14
 377              	.L15:
 378              		.loc 2 655 0
 379 001e 1B68     		ldr	r3, [r3]
 380              	.LVL25:
 381              		.loc 2 656 0
 382 0020 9D42     		cmp	r5, r3
 383 0022 F8D1     		bne	.L17
 384              	.L14:
 385              		.loc 2 658 0
 386 0024 5A68     		ldr	r2, [r3, #4]
 387 0026 6260     		str	r2, [r4, #4]
 388              		.loc 2 657 0
 389 0028 2360     		str	r3, [r4]
 390              	.LBE129:
ARM GAS  /tmp/ccioCThw.s 			page 8


 391              	.LBE128:
 392              		.loc 1 222 0
 393 002a 0720     		movs	r0, #7
 394              	.LBB131:
 395              	.LBB130:
 396              		.loc 2 659 0
 397 002c 1460     		str	r4, [r2]
 398              		.loc 2 660 0
 399 002e 5C60     		str	r4, [r3, #4]
 400              	.LBE130:
 401              	.LBE131:
 402              		.loc 1 222 0
 403 0030 FFF7FEFF 		bl	chSchGoSleepS
 404              	.LVL26:
 405              		.loc 1 223 0
 406 0034 646A     		ldr	r4, [r4, #36]
 407              	.LVL27:
 408              		.loc 1 224 0
 409 0036 3046     		mov	r0, r6
 410 0038 FFF7FEFF 		bl	chMtxLockS
 411              	.LVL28:
 412              		.loc 1 227 0
 413 003c 2046     		mov	r0, r4
 414 003e 70BD     		pop	{r4, r5, r6, pc}
 415              	.LVL29:
 416              	.L19:
 417              		.align	2
 418              	.L18:
 419 0040 00000000 		.word	ch
 420              		.cfi_endproc
 421              	.LFE225:
 422              		.size	chCondWaitS, .-chCondWaitS
 423 0044 AFF30080 		.section	.text.chCondWait,"ax",%progbits
 423      AFF30080 
 423      AFF30080 
 424              		.align	2
 425              		.p2align 4,,15
 426              		.global	chCondWait
 427              		.thumb
 428              		.thumb_func
 429              		.type	chCondWait, %function
 430              	chCondWait:
 431              	.LFB224:
 432              		.loc 1 179 0
 433              		.cfi_startproc
 434              		@ args = 0, pretend = 0, frame = 0
 435              		@ frame_needed = 0, uses_anonymous_args = 0
 436              	.LVL30:
 437 0000 08B5     		push	{r3, lr}
 438              		.cfi_def_cfa_offset 8
 439              		.cfi_offset 3, -8
 440              		.cfi_offset 14, -4
 441              	.LBB132:
 442              	.LBB133:
 443              	.LBB134:
 444              	.LBB135:
 445              		.loc 3 546 0
ARM GAS  /tmp/ccioCThw.s 			page 9


 446 0002 2023     		movs	r3, #32
 447              	@ 546 "ChibiOS_3.0.2/os/ext/CMSIS/include/core_cmFunc.h" 1
 448 0004 83F31188 		MSR basepri, r3
 449              	@ 0 "" 2
 450              		.thumb
 451              	.LBE135:
 452              	.LBE134:
 453              	.LBE133:
 454              	.LBE132:
 455              		.loc 1 183 0
 456 0008 FFF7FEFF 		bl	chCondWaitS
 457              	.LVL31:
 458              	.LBB136:
 459              	.LBB137:
 460              	.LBB138:
 461              	.LBB139:
 462              	.LBB140:
 463              		.loc 3 546 0
 464 000c 0023     		movs	r3, #0
 465              	@ 546 "ChibiOS_3.0.2/os/ext/CMSIS/include/core_cmFunc.h" 1
 466 000e 83F31188 		MSR basepri, r3
 467              	@ 0 "" 2
 468              		.thumb
 469              	.LBE140:
 470              	.LBE139:
 471              	.LBE138:
 472              	.LBE137:
 473              	.LBE136:
 474              		.loc 1 186 0
 475 0012 08BD     		pop	{r3, pc}
 476              		.cfi_endproc
 477              	.LFE224:
 478              		.size	chCondWait, .-chCondWait
 479 0014 AFF30080 		.section	.text.chCondWaitTimeoutS,"ax",%progbits
 479      AFF30080 
 479      AFF30080 
 480              		.align	2
 481              		.p2align 4,,15
 482              		.global	chCondWaitTimeoutS
 483              		.thumb
 484              		.thumb_func
 485              		.type	chCondWaitTimeoutS, %function
 486              	chCondWaitTimeoutS:
 487              	.LFB227:
 488              		.loc 1 296 0
 489              		.cfi_startproc
 490              		@ args = 0, pretend = 0, frame = 0
 491              		@ frame_needed = 0, uses_anonymous_args = 0
 492              	.LVL32:
 493 0000 2DE9F041 		push	{r4, r5, r6, r7, r8, lr}
 494              		.cfi_def_cfa_offset 24
 495              		.cfi_offset 4, -24
 496              		.cfi_offset 5, -20
 497              		.cfi_offset 6, -16
 498              		.cfi_offset 7, -12
 499              		.cfi_offset 8, -8
 500              		.cfi_offset 14, -4
ARM GAS  /tmp/ccioCThw.s 			page 10


 501              	.LBB141:
 502              	.LBB142:
 503              	.LBB143:
 504              	.LBB144:
 505              		.file 5 "ChibiOS_3.0.2/os/rt/include/chthreads.h"
 506              		.loc 5 176 0
 507 0004 124C     		ldr	r4, .L27
 508              	.LBE144:
 509              	.LBE143:
 510              		.loc 4 146 0
 511 0006 A369     		ldr	r3, [r4, #24]
 512 0008 DF6B     		ldr	r7, [r3, #60]
 513              	.LBE142:
 514              	.LBE141:
 515              		.loc 1 296 0
 516 000a 0646     		mov	r6, r0
 517              		.loc 1 306 0
 518 000c 3846     		mov	r0, r7
 519              	.LVL33:
 520              		.loc 1 296 0
 521 000e 8846     		mov	r8, r1
 522              		.loc 1 306 0
 523 0010 FFF7FEFF 		bl	chMtxUnlockS
 524              	.LVL34:
 525              		.loc 1 310 0
 526 0014 A569     		ldr	r5, [r4, #24]
 527              	.LBB145:
 528              	.LBB146:
 529              		.loc 2 653 0
 530 0016 3346     		mov	r3, r6
 531              	.LBE146:
 532              	.LBE145:
 533              		.loc 1 310 0
 534 0018 6E62     		str	r6, [r5, #36]
 535              	.LVL35:
 536 001a 03E0     		b	.L26
 537              	.LVL36:
 538              	.L22:
 539              	.LBB150:
 540              	.LBB147:
 541              		.loc 2 656 0
 542 001c 9C68     		ldr	r4, [r3, #8]
 543 001e AA68     		ldr	r2, [r5, #8]
 544 0020 9442     		cmp	r4, r2
 545 0022 02D3     		bcc	.L25
 546              	.L26:
 547              		.loc 2 655 0
 548 0024 1B68     		ldr	r3, [r3]
 549              	.LVL37:
 550              		.loc 2 656 0
 551 0026 9E42     		cmp	r6, r3
 552 0028 F8D1     		bne	.L22
 553              	.L25:
 554              		.loc 2 658 0
 555 002a 5A68     		ldr	r2, [r3, #4]
 556 002c 6A60     		str	r2, [r5, #4]
 557              		.loc 2 657 0
ARM GAS  /tmp/ccioCThw.s 			page 11


 558 002e 2B60     		str	r3, [r5]
 559              	.LBE147:
 560              	.LBE150:
 561              		.loc 1 312 0
 562 0030 4146     		mov	r1, r8
 563              	.LBB151:
 564              	.LBB148:
 565              		.loc 2 659 0
 566 0032 1560     		str	r5, [r2]
 567              	.LBE148:
 568              	.LBE151:
 569              		.loc 1 312 0
 570 0034 0720     		movs	r0, #7
 571              	.LBB152:
 572              	.LBB149:
 573              		.loc 2 660 0
 574 0036 5D60     		str	r5, [r3, #4]
 575              	.LBE149:
 576              	.LBE152:
 577              		.loc 1 312 0
 578 0038 FFF7FEFF 		bl	chSchGoSleepTimeoutS
 579              	.LVL38:
 580              		.loc 1 313 0
 581 003c 431C     		adds	r3, r0, #1
 582              		.loc 1 312 0
 583 003e 0446     		mov	r4, r0
 584              	.LVL39:
 585              		.loc 1 313 0
 586 0040 02D0     		beq	.L24
 587              		.loc 1 314 0
 588 0042 3846     		mov	r0, r7
 589              	.LVL40:
 590 0044 FFF7FEFF 		bl	chMtxLockS
 591              	.LVL41:
 592              	.L24:
 593              		.loc 1 318 0
 594 0048 2046     		mov	r0, r4
 595 004a BDE8F081 		pop	{r4, r5, r6, r7, r8, pc}
 596              	.LVL42:
 597              	.L28:
 598 004e 00BF     		.align	2
 599              	.L27:
 600 0050 00000000 		.word	ch
 601              		.cfi_endproc
 602              	.LFE227:
 603              		.size	chCondWaitTimeoutS, .-chCondWaitTimeoutS
 604 0054 AFF30080 		.section	.text.chCondWaitTimeout,"ax",%progbits
 604      AFF30080 
 604      AFF30080 
 605              		.align	2
 606              		.p2align 4,,15
 607              		.global	chCondWaitTimeout
 608              		.thumb
 609              		.thumb_func
 610              		.type	chCondWaitTimeout, %function
 611              	chCondWaitTimeout:
 612              	.LFB226:
ARM GAS  /tmp/ccioCThw.s 			page 12


 613              		.loc 1 258 0
 614              		.cfi_startproc
 615              		@ args = 0, pretend = 0, frame = 0
 616              		@ frame_needed = 0, uses_anonymous_args = 0
 617              	.LVL43:
 618 0000 08B5     		push	{r3, lr}
 619              		.cfi_def_cfa_offset 8
 620              		.cfi_offset 3, -8
 621              		.cfi_offset 14, -4
 622              	.LBB153:
 623              	.LBB154:
 624              	.LBB155:
 625              	.LBB156:
 626              		.loc 3 546 0
 627 0002 2023     		movs	r3, #32
 628              	@ 546 "ChibiOS_3.0.2/os/ext/CMSIS/include/core_cmFunc.h" 1
 629 0004 83F31188 		MSR basepri, r3
 630              	@ 0 "" 2
 631              		.thumb
 632              	.LBE156:
 633              	.LBE155:
 634              	.LBE154:
 635              	.LBE153:
 636              		.loc 1 262 0
 637 0008 FFF7FEFF 		bl	chCondWaitTimeoutS
 638              	.LVL44:
 639              	.LBB157:
 640              	.LBB158:
 641              	.LBB159:
 642              	.LBB160:
 643              	.LBB161:
 644              		.loc 3 546 0
 645 000c 0023     		movs	r3, #0
 646              	@ 546 "ChibiOS_3.0.2/os/ext/CMSIS/include/core_cmFunc.h" 1
 647 000e 83F31188 		MSR basepri, r3
 648              	@ 0 "" 2
 649              		.thumb
 650              	.LBE161:
 651              	.LBE160:
 652              	.LBE159:
 653              	.LBE158:
 654              	.LBE157:
 655              		.loc 1 266 0
 656 0012 08BD     		pop	{r3, pc}
 657              		.cfi_endproc
 658              	.LFE226:
 659              		.size	chCondWaitTimeout, .-chCondWaitTimeout
 660 0014 AFF30080 		.text
 660      AFF30080 
 660      AFF30080 
 661              	.Letext0:
 662              		.file 6 "/usr/include/newlib/machine/_default_types.h"
 663              		.file 7 "/usr/include/newlib/stdint.h"
 664              		.file 8 "ChibiOS_3.0.2/os/rt/ports/ARMCMx/compilers/GCC/chtypes.h"
 665              		.file 9 "ChibiOS_3.0.2/os/rt/include/chsystypes.h"
 666              		.file 10 "ChibiOS_3.0.2/os/rt/ports/ARMCMx/chcore.h"
 667              		.file 11 "ChibiOS_3.0.2/os/rt/ports/ARMCMx/chcore_v7m.h"
ARM GAS  /tmp/ccioCThw.s 			page 13


 668              		.file 12 "ChibiOS_3.0.2/os/rt/include/chtm.h"
 669              		.file 13 "ChibiOS_3.0.2/os/rt/include/chsem.h"
 670              		.file 14 "ChibiOS_3.0.2/os/rt/include/chcond.h"
 671              		.file 15 "ChibiOS_3.0.2/os/rt/include/chsys.h"
 672              		.file 16 "ChibiOS_3.0.2/os/ext/CMSIS/include/core_cm4.h"