ARM GAS  /tmp/ccj0qfT5.s 			page 1


   1              		.syntax unified
   2              		.cpu cortex-m4
   3              		.eabi_attribute 27, 3
   4              		.eabi_attribute 28, 1
   5              		.fpu fpv4-sp-d16
   6              		.eabi_attribute 20, 1
   7              		.eabi_attribute 21, 1
   8              		.eabi_attribute 23, 3
   9              		.eabi_attribute 24, 1
  10              		.eabi_attribute 25, 1
  11              		.eabi_attribute 26, 1
  12              		.eabi_attribute 30, 2
  13              		.eabi_attribute 34, 1
  14              		.eabi_attribute 18, 4
  15              		.thumb
  16              		.file	"chdynamic.c"
  17              		.text
  18              	.Ltext0:
  19              		.cfi_sections	.debug_frame
  20              		.section	.text.chThdAddRef,"ax",%progbits
  21              		.align	2
  22              		.p2align 4,,15
  23              		.global	chThdAddRef
  24              		.thumb
  25              		.thumb_func
  26              		.type	chThdAddRef, %function
  27              	chThdAddRef:
  28              	.LFB219:
  29              		.file 1 "ChibiOS_3.0.2/os/rt/src/chdynamic.c"
  30              		.loc 1 68 0
  31              		.cfi_startproc
  32              		@ args = 0, pretend = 0, frame = 0
  33              		@ frame_needed = 0, uses_anonymous_args = 0
  34              		@ link register save eliminated.
  35              	.LVL0:
  36              	.LBB54:
  37              	.LBB55:
  38              	.LBB56:
  39              	.LBB57:
  40              		.file 2 "ChibiOS_3.0.2/os/ext/CMSIS/include/core_cmFunc.h"
  41              		.loc 2 546 0
  42 0000 2022     		movs	r2, #32
  43              	@ 546 "ChibiOS_3.0.2/os/ext/CMSIS/include/core_cmFunc.h" 1
  44 0002 82F31188 		MSR basepri, r2
  45              	@ 0 "" 2
  46              		.thumb
  47              	.LBE57:
  48              	.LBE56:
  49              	.LBE55:
  50              	.LBE54:
  51              		.loc 1 72 0
  52 0006 827F     		ldrb	r2, [r0, #30]	@ zero_extendqisi2
  53 0008 0132     		adds	r2, r2, #1
  54 000a 8277     		strb	r2, [r0, #30]
  55              	.LVL1:
  56              	.LBB58:
  57              	.LBB59:
ARM GAS  /tmp/ccj0qfT5.s 			page 2


  58              	.LBB60:
  59              	.LBB61:
  60              	.LBB62:
  61              		.loc 2 546 0
  62 000c 0023     		movs	r3, #0
  63              	@ 546 "ChibiOS_3.0.2/os/ext/CMSIS/include/core_cmFunc.h" 1
  64 000e 83F31188 		MSR basepri, r3
  65              	@ 0 "" 2
  66              		.thumb
  67              	.LBE62:
  68              	.LBE61:
  69              	.LBE60:
  70              	.LBE59:
  71              	.LBE58:
  72              		.loc 1 76 0
  73 0012 7047     		bx	lr
  74              		.cfi_endproc
  75              	.LFE219:
  76              		.size	chThdAddRef, .-chThdAddRef
  77 0014 AFF30080 		.section	.text.chThdRelease,"ax",%progbits
  77      AFF30080 
  77      AFF30080 
  78              		.align	2
  79              		.p2align 4,,15
  80              		.global	chThdRelease
  81              		.thumb
  82              		.thumb_func
  83              		.type	chThdRelease, %function
  84              	chThdRelease:
  85              	.LFB220:
  86              		.loc 1 91 0
  87              		.cfi_startproc
  88              		@ args = 0, pretend = 0, frame = 0
  89              		@ frame_needed = 0, uses_anonymous_args = 0
  90              		@ link register save eliminated.
  91              	.LVL2:
  92              		.loc 1 91 0
  93 0000 0146     		mov	r1, r0
  94              	.LBB63:
  95              	.LBB64:
  96              	.LBB65:
  97              	.LBB66:
  98              		.loc 2 546 0
  99 0002 2023     		movs	r3, #32
 100              	@ 546 "ChibiOS_3.0.2/os/ext/CMSIS/include/core_cmFunc.h" 1
 101 0004 83F31188 		MSR basepri, r3
 102              	@ 0 "" 2
 103              		.thumb
 104              	.LBE66:
 105              	.LBE65:
 106              	.LBE64:
 107              	.LBE63:
 108              		.loc 1 96 0
 109 0008 837F     		ldrb	r3, [r0, #30]	@ zero_extendqisi2
 110 000a 013B     		subs	r3, r3, #1
 111 000c DBB2     		uxtb	r3, r3
 112 000e 8377     		strb	r3, [r0, #30]
ARM GAS  /tmp/ccj0qfT5.s 			page 3


 113              	.LVL3:
 114              	.LBB67:
 115              	.LBB68:
 116              	.LBB69:
 117              	.LBB70:
 118              	.LBB71:
 119              		.loc 2 546 0
 120 0010 0022     		movs	r2, #0
 121              	@ 546 "ChibiOS_3.0.2/os/ext/CMSIS/include/core_cmFunc.h" 1
 122 0012 82F31188 		MSR basepri, r2
 123              	@ 0 "" 2
 124              		.thumb
 125              	.LBE71:
 126              	.LBE70:
 127              	.LBE69:
 128              	.LBE68:
 129              	.LBE67:
 130              		.loc 1 103 0
 131 0016 13B9     		cbnz	r3, .L2
 132              		.loc 1 103 0 is_stmt 0 discriminator 1
 133 0018 037F     		ldrb	r3, [r0, #28]	@ zero_extendqisi2
 134              	.LVL4:
 135 001a 0F2B     		cmp	r3, #15
 136 001c 00D0     		beq	.L7
 137              	.L2:
 138 001e 7047     		bx	lr
 139              	.L7:
 140              		.loc 1 104 0 is_stmt 1
 141 0020 437F     		ldrb	r3, [r0, #29]	@ zero_extendqisi2
 142 0022 03F00303 		and	r3, r3, #3
 143 0026 012B     		cmp	r3, #1
 144 0028 02D0     		beq	.L4
 145 002a 022B     		cmp	r3, #2
 146 002c 07D0     		beq	.L5
 147 002e 7047     		bx	lr
 148              	.L4:
 149              		.loc 1 108 0
 150 0030 4369     		ldr	r3, [r0, #20]
 151 0032 0269     		ldr	r2, [r0, #16]
 152 0034 1A61     		str	r2, [r3, #16]
 153 0036 0269     		ldr	r2, [r0, #16]
 154 0038 5361     		str	r3, [r2, #20]
 155              		.loc 1 110 0
 156 003a FFF7FEBF 		b	chHeapFree
 157              	.LVL5:
 158              	.L5:
 159              		.loc 1 116 0
 160 003e 4369     		ldr	r3, [r0, #20]
 161 0040 0269     		ldr	r2, [r0, #16]
 162 0042 1A61     		str	r2, [r3, #16]
 163 0044 0269     		ldr	r2, [r0, #16]
 164              		.loc 1 118 0
 165 0046 406C     		ldr	r0, [r0, #68]
 166              	.LVL6:
 167              		.loc 1 116 0
 168 0048 5361     		str	r3, [r2, #20]
 169              		.loc 1 118 0
ARM GAS  /tmp/ccj0qfT5.s 			page 4


 170 004a FFF7FEBF 		b	chPoolFree
 171              	.LVL7:
 172              		.cfi_endproc
 173              	.LFE220:
 174              		.size	chThdRelease, .-chThdRelease
 175 004e 00BF     		.section	.text.chThdCreateFromHeap,"ax",%progbits
 176              		.align	2
 177              		.p2align 4,,15
 178              		.global	chThdCreateFromHeap
 179              		.thumb
 180              		.thumb_func
 181              		.type	chThdCreateFromHeap, %function
 182              	chThdCreateFromHeap:
 183              	.LFB221:
 184              		.loc 1 153 0
 185              		.cfi_startproc
 186              		@ args = 4, pretend = 0, frame = 0
 187              		@ frame_needed = 0, uses_anonymous_args = 0
 188              	.LVL8:
 189 0000 F0B5     		push	{r4, r5, r6, r7, lr}
 190              		.cfi_def_cfa_offset 20
 191              		.cfi_offset 4, -20
 192              		.cfi_offset 5, -16
 193              		.cfi_offset 6, -12
 194              		.cfi_offset 7, -8
 195              		.cfi_offset 14, -4
 196 0002 83B0     		sub	sp, sp, #12
 197              		.cfi_def_cfa_offset 32
 198              		.loc 1 153 0
 199 0004 1746     		mov	r7, r2
 200 0006 1E46     		mov	r6, r3
 201 0008 0D46     		mov	r5, r1
 202              		.loc 1 157 0
 203 000a FFF7FEFF 		bl	chHeapAlloc
 204              	.LVL9:
 205              		.loc 1 158 0
 206 000e 98B1     		cbz	r0, .L9
 207              	.LVL10:
 208              	.LBB72:
 209              	.LBB73:
 210              	.LBB74:
 211              	.LBB75:
 212              		.loc 2 546 0
 213 0010 2023     		movs	r3, #32
 214              	@ 546 "ChibiOS_3.0.2/os/ext/CMSIS/include/core_cmFunc.h" 1
 215 0012 83F31188 		MSR basepri, r3
 216              	@ 0 "" 2
 217              		.thumb
 218              	.LBE75:
 219              	.LBE74:
 220              	.LBE73:
 221              	.LBE72:
 222              		.loc 1 172 0
 223 0016 089B     		ldr	r3, [sp, #32]
 224 0018 0093     		str	r3, [sp]
 225 001a 2946     		mov	r1, r5
 226 001c 3A46     		mov	r2, r7
ARM GAS  /tmp/ccj0qfT5.s 			page 5


 227 001e 3346     		mov	r3, r6
 228 0020 FFF7FEFF 		bl	chThdCreateI
 229              	.LVL11:
 230              		.loc 1 173 0
 231 0024 0123     		movs	r3, #1
 232 0026 4377     		strb	r3, [r0, #29]
 233              		.loc 1 174 0
 234 0028 0021     		movs	r1, #0
 235              		.loc 1 172 0
 236 002a 0446     		mov	r4, r0
 237              	.LVL12:
 238              		.loc 1 174 0
 239 002c FFF7FEFF 		bl	chSchWakeupS
 240              	.LVL13:
 241              	.LBB76:
 242              	.LBB77:
 243              	.LBB78:
 244              	.LBB79:
 245              	.LBB80:
 246              		.loc 2 546 0
 247 0030 0023     		movs	r3, #0
 248              	@ 546 "ChibiOS_3.0.2/os/ext/CMSIS/include/core_cmFunc.h" 1
 249 0032 83F31188 		MSR basepri, r3
 250              	@ 0 "" 2
 251              		.thumb
 252              	.LBE80:
 253              	.LBE79:
 254              	.LBE78:
 255              	.LBE77:
 256              	.LBE76:
 257              		.loc 1 177 0
 258 0036 2046     		mov	r0, r4
 259              	.LVL14:
 260              	.L9:
 261              		.loc 1 178 0
 262 0038 03B0     		add	sp, sp, #12
 263              		@ sp needed
 264 003a F0BD     		pop	{r4, r5, r6, r7, pc}
 265              		.cfi_endproc
 266              	.LFE221:
 267              		.size	chThdCreateFromHeap, .-chThdCreateFromHeap
 268 003c AFF30080 		.section	.text.chThdCreateFromMemoryPool,"ax",%progbits
 269              		.align	2
 270              		.p2align 4,,15
 271              		.global	chThdCreateFromMemoryPool
 272              		.thumb
 273              		.thumb_func
 274              		.type	chThdCreateFromMemoryPool, %function
 275              	chThdCreateFromMemoryPool:
 276              	.LFB222:
 277              		.loc 1 205 0
 278              		.cfi_startproc
 279              		@ args = 0, pretend = 0, frame = 0
 280              		@ frame_needed = 0, uses_anonymous_args = 0
 281              	.LVL15:
 282 0000 F0B5     		push	{r4, r5, r6, r7, lr}
 283              		.cfi_def_cfa_offset 20
ARM GAS  /tmp/ccj0qfT5.s 			page 6


 284              		.cfi_offset 4, -20
 285              		.cfi_offset 5, -16
 286              		.cfi_offset 6, -12
 287              		.cfi_offset 7, -8
 288              		.cfi_offset 14, -4
 289 0002 83B0     		sub	sp, sp, #12
 290              		.cfi_def_cfa_offset 32
 291              		.loc 1 205 0
 292 0004 0F46     		mov	r7, r1
 293 0006 1646     		mov	r6, r2
 294 0008 1C46     		mov	r4, r3
 295 000a 0546     		mov	r5, r0
 296              		.loc 1 211 0
 297 000c FFF7FEFF 		bl	chPoolAlloc
 298              	.LVL16:
 299              		.loc 1 212 0
 300 0010 98B1     		cbz	r0, .L12
 301              	.LVL17:
 302              	.LBB81:
 303              	.LBB82:
 304              	.LBB83:
 305              	.LBB84:
 306              		.loc 2 546 0
 307 0012 2023     		movs	r3, #32
 308              	@ 546 "ChibiOS_3.0.2/os/ext/CMSIS/include/core_cmFunc.h" 1
 309 0014 83F31188 		MSR basepri, r3
 310              	@ 0 "" 2
 311              		.thumb
 312              	.LBE84:
 313              	.LBE83:
 314              	.LBE82:
 315              	.LBE81:
 316              		.loc 1 226 0
 317 0018 6968     		ldr	r1, [r5, #4]
 318 001a 0094     		str	r4, [sp]
 319 001c 3A46     		mov	r2, r7
 320 001e 3346     		mov	r3, r6
 321 0020 FFF7FEFF 		bl	chThdCreateI
 322              	.LVL18:
 323              		.loc 1 227 0
 324 0024 0223     		movs	r3, #2
 325 0026 4377     		strb	r3, [r0, #29]
 326              		.loc 1 228 0
 327 0028 4564     		str	r5, [r0, #68]
 328              		.loc 1 229 0
 329 002a 0021     		movs	r1, #0
 330              		.loc 1 226 0
 331 002c 0446     		mov	r4, r0
 332              	.LVL19:
 333              		.loc 1 229 0
 334 002e FFF7FEFF 		bl	chSchWakeupS
 335              	.LVL20:
 336              	.LBB85:
 337              	.LBB86:
 338              	.LBB87:
 339              	.LBB88:
 340              	.LBB89:
ARM GAS  /tmp/ccj0qfT5.s 			page 7


 341              		.loc 2 546 0
 342 0032 0023     		movs	r3, #0
 343              	@ 546 "ChibiOS_3.0.2/os/ext/CMSIS/include/core_cmFunc.h" 1
 344 0034 83F31188 		MSR basepri, r3
 345              	@ 0 "" 2
 346              		.thumb
 347              	.LBE89:
 348              	.LBE88:
 349              	.LBE87:
 350              	.LBE86:
 351              	.LBE85:
 352              		.loc 1 232 0
 353 0038 2046     		mov	r0, r4
 354              	.LVL21:
 355              	.L12:
 356              		.loc 1 233 0
 357 003a 03B0     		add	sp, sp, #12
 358              		@ sp needed
 359 003c F0BD     		pop	{r4, r5, r6, r7, pc}
 360              		.cfi_endproc
 361              	.LFE222:
 362              		.size	chThdCreateFromMemoryPool, .-chThdCreateFromMemoryPool
 363 003e 00BF     		.text
 364              	.Letext0:
 365              		.file 3 "/usr/lib/gcc/arm-none-eabi/4.8/include/stddef.h"
 366              		.file 4 "/usr/include/newlib/machine/_default_types.h"
 367              		.file 5 "/usr/include/newlib/stdint.h"
 368              		.file 6 "ChibiOS_3.0.2/os/rt/ports/ARMCMx/compilers/GCC/chtypes.h"
 369              		.file 7 "ChibiOS_3.0.2/os/rt/include/chsystypes.h"
 370              		.file 8 "ChibiOS_3.0.2/os/rt/include/chschd.h"
 371              		.file 9 "ChibiOS_3.0.2/os/rt/ports/ARMCMx/chcore.h"
 372              		.file 10 "ChibiOS_3.0.2/os/rt/ports/ARMCMx/chcore_v7m.h"
 373              		.file 11 "ChibiOS_3.0.2/os/rt/include/chtm.h"
 374              		.file 12 "ChibiOS_3.0.2/os/rt/include/chsem.h"
 375              		.file 13 "ChibiOS_3.0.2/os/rt/include/chmtx.h"
 376              		.file 14 "ChibiOS_3.0.2/os/rt/include/chthreads.h"
 377              		.file 15 "ChibiOS_3.0.2/os/rt/include/chmemcore.h"
 378              		.file 16 "ChibiOS_3.0.2/os/rt/include/chheap.h"
 379              		.file 17 "ChibiOS_3.0.2/os/rt/include/chmempools.h"
 380              		.file 18 "ChibiOS_3.0.2/os/rt/include/chsys.h"
 381              		.file 19 "ChibiOS_3.0.2/os/ext/CMSIS/include/core_cm4.h"