ARM GAS  /tmp/ccnffE2y.s 			page 1


   1              		.syntax unified
   2              		.cpu cortex-m4
   3              		.eabi_attribute 27, 3
   4              		.eabi_attribute 28, 1
   5              		.fpu fpv4-sp-d16
   6              		.eabi_attribute 20, 1
   7              		.eabi_attribute 21, 1
   8              		.eabi_attribute 23, 3
   9              		.eabi_attribute 24, 1
  10              		.eabi_attribute 25, 1
  11              		.eabi_attribute 26, 1
  12              		.eabi_attribute 30, 2
  13              		.eabi_attribute 34, 1
  14              		.eabi_attribute 18, 4
  15              		.thumb
  16              		.file	"chevents.c"
  17              		.text
  18              	.Ltext0:
  19              		.cfi_sections	.debug_frame
  20              		.section	.text.chEvtRegisterMaskWithFlags,"ax",%progbits
  21              		.align	2
  22              		.p2align 4,,15
  23              		.global	chEvtRegisterMaskWithFlags
  24              		.thumb
  25              		.thumb_func
  26              		.type	chEvtRegisterMaskWithFlags, %function
  27              	chEvtRegisterMaskWithFlags:
  28              	.LFB219:
  29              		.file 1 "ChibiOS_3.0.2/os/rt/src/chevents.c"
  30              		.loc 1 106 0
  31              		.cfi_startproc
  32              		@ args = 0, pretend = 0, frame = 0
  33              		@ frame_needed = 0, uses_anonymous_args = 0
  34              		@ link register save eliminated.
  35              	.LVL0:
  36 0000 30B4     		push	{r4, r5}
  37              		.cfi_def_cfa_offset 8
  38              		.cfi_offset 4, -8
  39              		.cfi_offset 5, -4
  40              	.LBB174:
  41              	.LBB175:
  42              	.LBB176:
  43              	.LBB177:
  44              		.file 2 "ChibiOS_3.0.2/os/ext/CMSIS/include/core_cmFunc.h"
  45              		.loc 2 546 0
  46 0002 2024     		movs	r4, #32
  47              	@ 546 "ChibiOS_3.0.2/os/ext/CMSIS/include/core_cmFunc.h" 1
  48 0004 84F31188 		MSR basepri, r4
  49              	@ 0 "" 2
  50              		.thumb
  51              	.LBE177:
  52              	.LBE176:
  53              	.LBE175:
  54              	.LBE174:
  55              		.loc 1 113 0
  56 0008 064D     		ldr	r5, .L2
  57              		.loc 1 111 0
ARM GAS  /tmp/ccnffE2y.s 			page 2


  58 000a 0468     		ldr	r4, [r0]
  59              		.loc 1 113 0
  60 000c AD69     		ldr	r5, [r5, #24]
  61              		.loc 1 111 0
  62 000e 0C60     		str	r4, [r1]
  63              		.loc 1 115 0
  64 0010 0024     		movs	r4, #0
  65              		.loc 1 112 0
  66 0012 0160     		str	r1, [r0]
  67              		.loc 1 113 0
  68 0014 4D60     		str	r5, [r1, #4]
  69              		.loc 1 114 0
  70 0016 8A60     		str	r2, [r1, #8]
  71              		.loc 1 116 0
  72 0018 0B61     		str	r3, [r1, #16]
  73              	.LVL1:
  74              		.loc 1 115 0
  75 001a CC60     		str	r4, [r1, #12]
  76              	.LBB178:
  77              	.LBB179:
  78              	.LBB180:
  79              	.LBB181:
  80              	.LBB182:
  81              		.loc 2 546 0
  82              	@ 546 "ChibiOS_3.0.2/os/ext/CMSIS/include/core_cmFunc.h" 1
  83 001c 84F31188 		MSR basepri, r4
  84              	@ 0 "" 2
  85              		.thumb
  86              	.LBE182:
  87              	.LBE181:
  88              	.LBE180:
  89              	.LBE179:
  90              	.LBE178:
  91              		.loc 1 118 0
  92 0020 30BC     		pop	{r4, r5}
  93 0022 7047     		bx	lr
  94              	.L3:
  95              		.align	2
  96              	.L2:
  97 0024 00000000 		.word	ch
  98              		.cfi_endproc
  99              	.LFE219:
 100              		.size	chEvtRegisterMaskWithFlags, .-chEvtRegisterMaskWithFlags
 101 0028 AFF30080 		.section	.text.chEvtUnregister,"ax",%progbits
 101      AFF30080 
 102              		.align	2
 103              		.p2align 4,,15
 104              		.global	chEvtUnregister
 105              		.thumb
 106              		.thumb_func
 107              		.type	chEvtUnregister, %function
 108              	chEvtUnregister:
 109              	.LFB220:
 110              		.loc 1 133 0
 111              		.cfi_startproc
 112              		@ args = 0, pretend = 0, frame = 0
 113              		@ frame_needed = 0, uses_anonymous_args = 0
ARM GAS  /tmp/ccnffE2y.s 			page 3


 114              		@ link register save eliminated.
 115              	.LVL2:
 116              	.LBB183:
 117              	.LBB184:
 118              	.LBB185:
 119              	.LBB186:
 120              		.loc 2 546 0
 121 0000 2023     		movs	r3, #32
 122              	@ 546 "ChibiOS_3.0.2/os/ext/CMSIS/include/core_cmFunc.h" 1
 123 0002 83F31188 		MSR basepri, r3
 124              	@ 0 "" 2
 125              		.thumb
 126              	.LBE186:
 127              	.LBE185:
 128              	.LBE184:
 129              	.LBE183:
 130              		.loc 1 139 0
 131 0006 0246     		mov	r2, r0
 132 0008 02E0     		b	.L5
 133              	.LVL3:
 134              	.L8:
 135              		.loc 1 145 0
 136 000a 8B42     		cmp	r3, r1
 137 000c 07D0     		beq	.L10
 138 000e 1A46     		mov	r2, r3
 139              	.LVL4:
 140              	.L5:
 141              		.loc 1 143 0 discriminator 1
 142 0010 1368     		ldr	r3, [r2]
 143 0012 8342     		cmp	r3, r0
 144 0014 F9D1     		bne	.L8
 145              	.LVL5:
 146              	.LBB187:
 147              	.LBB188:
 148              	.LBB189:
 149              	.LBB190:
 150              	.LBB191:
 151              		.loc 2 546 0
 152 0016 0023     		movs	r3, #0
 153              	@ 546 "ChibiOS_3.0.2/os/ext/CMSIS/include/core_cmFunc.h" 1
 154 0018 83F31188 		MSR basepri, r3
 155              	@ 0 "" 2
 156              		.thumb
 157 001c 7047     		bx	lr
 158              	.LVL6:
 159              	.L10:
 160              	.LBE191:
 161              	.LBE190:
 162              	.LBE189:
 163              	.LBE188:
 164              	.LBE187:
 165              		.loc 1 146 0
 166 001e 0B68     		ldr	r3, [r1]
 167 0020 1360     		str	r3, [r2]
 168              	.LVL7:
 169              	.LBB196:
 170              	.LBB195:
ARM GAS  /tmp/ccnffE2y.s 			page 4


 171              	.LBB194:
 172              	.LBB193:
 173              	.LBB192:
 174              		.loc 2 546 0
 175 0022 0023     		movs	r3, #0
 176              	@ 546 "ChibiOS_3.0.2/os/ext/CMSIS/include/core_cmFunc.h" 1
 177 0024 83F31188 		MSR basepri, r3
 178              	@ 0 "" 2
 179              		.thumb
 180 0028 7047     		bx	lr
 181              	.LBE192:
 182              	.LBE193:
 183              	.LBE194:
 184              	.LBE195:
 185              	.LBE196:
 186              		.cfi_endproc
 187              	.LFE220:
 188              		.size	chEvtUnregister, .-chEvtUnregister
 189 002a 00BFAFF3 		.section	.text.chEvtGetAndClearEvents,"ax",%progbits
 189      0080
 190              		.align	2
 191              		.p2align 4,,15
 192              		.global	chEvtGetAndClearEvents
 193              		.thumb
 194              		.thumb_func
 195              		.type	chEvtGetAndClearEvents, %function
 196              	chEvtGetAndClearEvents:
 197              	.LFB221:
 198              		.loc 1 162 0
 199              		.cfi_startproc
 200              		@ args = 0, pretend = 0, frame = 0
 201              		@ frame_needed = 0, uses_anonymous_args = 0
 202              		@ link register save eliminated.
 203              	.LVL8:
 204              	.LBB197:
 205              	.LBB198:
 206              	.LBB199:
 207              	.LBB200:
 208              		.loc 2 546 0
 209 0000 2023     		movs	r3, #32
 210              	@ 546 "ChibiOS_3.0.2/os/ext/CMSIS/include/core_cmFunc.h" 1
 211 0002 83F31188 		MSR basepri, r3
 212              	@ 0 "" 2
 213              		.thumb
 214              	.LBE200:
 215              	.LBE199:
 216              	.LBE198:
 217              	.LBE197:
 218              		.loc 1 166 0
 219 0006 054B     		ldr	r3, .L12
 220 0008 9A69     		ldr	r2, [r3, #24]
 221 000a 936B     		ldr	r3, [r2, #56]
 222              	.LVL9:
 223              		.loc 1 167 0
 224 000c 23EA0001 		bic	r1, r3, r0
 225 0010 9163     		str	r1, [r2, #56]
 226              	.LVL10:
ARM GAS  /tmp/ccnffE2y.s 			page 5


 227              	.LBB201:
 228              	.LBB202:
 229              	.LBB203:
 230              	.LBB204:
 231              	.LBB205:
 232              		.loc 2 546 0
 233 0012 0022     		movs	r2, #0
 234              	@ 546 "ChibiOS_3.0.2/os/ext/CMSIS/include/core_cmFunc.h" 1
 235 0014 82F31188 		MSR basepri, r2
 236              	@ 0 "" 2
 237              		.thumb
 238              	.LBE205:
 239              	.LBE204:
 240              	.LBE203:
 241              	.LBE202:
 242              	.LBE201:
 243              		.loc 1 171 0
 244 0018 1840     		ands	r0, r0, r3
 245              	.LVL11:
 246 001a 7047     		bx	lr
 247              	.L13:
 248              		.align	2
 249              	.L12:
 250 001c 00000000 		.word	ch
 251              		.cfi_endproc
 252              	.LFE221:
 253              		.size	chEvtGetAndClearEvents, .-chEvtGetAndClearEvents
 254              		.section	.text.chEvtAddEvents,"ax",%progbits
 255              		.align	2
 256              		.p2align 4,,15
 257              		.global	chEvtAddEvents
 258              		.thumb
 259              		.thumb_func
 260              		.type	chEvtAddEvents, %function
 261              	chEvtAddEvents:
 262              	.LFB222:
 263              		.loc 1 182 0
 264              		.cfi_startproc
 265              		@ args = 0, pretend = 0, frame = 0
 266              		@ frame_needed = 0, uses_anonymous_args = 0
 267              		@ link register save eliminated.
 268              	.LVL12:
 269              	.LBB206:
 270              	.LBB207:
 271              	.LBB208:
 272              	.LBB209:
 273              		.loc 2 546 0
 274 0000 2023     		movs	r3, #32
 275              	@ 546 "ChibiOS_3.0.2/os/ext/CMSIS/include/core_cmFunc.h" 1
 276 0002 83F31188 		MSR basepri, r3
 277              	@ 0 "" 2
 278              		.thumb
 279              	.LBE209:
 280              	.LBE208:
 281              	.LBE207:
 282              	.LBE206:
 283              		.loc 1 185 0
ARM GAS  /tmp/ccnffE2y.s 			page 6


 284 0006 044B     		ldr	r3, .L15
 285 0008 9B69     		ldr	r3, [r3, #24]
 286 000a 9A6B     		ldr	r2, [r3, #56]
 287 000c 1043     		orrs	r0, r0, r2
 288              	.LVL13:
 289 000e 9863     		str	r0, [r3, #56]
 290              	.LVL14:
 291              	.LBB210:
 292              	.LBB211:
 293              	.LBB212:
 294              	.LBB213:
 295              	.LBB214:
 296              		.loc 2 546 0
 297 0010 0023     		movs	r3, #0
 298              	@ 546 "ChibiOS_3.0.2/os/ext/CMSIS/include/core_cmFunc.h" 1
 299 0012 83F31188 		MSR basepri, r3
 300              	@ 0 "" 2
 301              		.thumb
 302              	.LBE214:
 303              	.LBE213:
 304              	.LBE212:
 305              	.LBE211:
 306              	.LBE210:
 307              		.loc 1 190 0
 308 0016 7047     		bx	lr
 309              	.L16:
 310              		.align	2
 311              	.L15:
 312 0018 00000000 		.word	ch
 313              		.cfi_endproc
 314              	.LFE222:
 315              		.size	chEvtAddEvents, .-chEvtAddEvents
 316 001c AFF30080 		.section	.text.chEvtGetAndClearFlags,"ax",%progbits
 317              		.align	2
 318              		.p2align 4,,15
 319              		.global	chEvtGetAndClearFlags
 320              		.thumb
 321              		.thumb_func
 322              		.type	chEvtGetAndClearFlags, %function
 323              	chEvtGetAndClearFlags:
 324              	.LFB224:
 325              		.loc 1 241 0
 326              		.cfi_startproc
 327              		@ args = 0, pretend = 0, frame = 0
 328              		@ frame_needed = 0, uses_anonymous_args = 0
 329              		@ link register save eliminated.
 330              	.LVL15:
 331              		.loc 1 241 0
 332 0000 0246     		mov	r2, r0
 333              	.LBB215:
 334              	.LBB216:
 335              	.LBB217:
 336              	.LBB218:
 337              		.loc 2 546 0
 338 0002 2023     		movs	r3, #32
 339              	@ 546 "ChibiOS_3.0.2/os/ext/CMSIS/include/core_cmFunc.h" 1
 340 0004 83F31188 		MSR basepri, r3
ARM GAS  /tmp/ccnffE2y.s 			page 7


 341              	@ 0 "" 2
 342              		.thumb
 343              	.LBE218:
 344              	.LBE217:
 345              	.LBE216:
 346              	.LBE215:
 347              		.loc 1 246 0
 348 0008 0023     		movs	r3, #0
 349              		.loc 1 245 0
 350 000a C068     		ldr	r0, [r0, #12]
 351              	.LVL16:
 352              		.loc 1 246 0
 353 000c D360     		str	r3, [r2, #12]
 354              	.LVL17:
 355              	.LBB219:
 356              	.LBB220:
 357              	.LBB221:
 358              	.LBB222:
 359              	.LBB223:
 360              		.loc 2 546 0
 361              	@ 546 "ChibiOS_3.0.2/os/ext/CMSIS/include/core_cmFunc.h" 1
 362 000e 83F31188 		MSR basepri, r3
 363              	@ 0 "" 2
 364              		.thumb
 365              	.LBE223:
 366              	.LBE222:
 367              	.LBE221:
 368              	.LBE220:
 369              	.LBE219:
 370              		.loc 1 250 0
 371 0012 7047     		bx	lr
 372              		.cfi_endproc
 373              	.LFE224:
 374              		.size	chEvtGetAndClearFlags, .-chEvtGetAndClearFlags
 375 0014 AFF30080 		.section	.text.chEvtSignalI,"ax",%progbits
 375      AFF30080 
 375      AFF30080 
 376              		.align	2
 377              		.p2align 4,,15
 378              		.global	chEvtSignalI
 379              		.thumb
 380              		.thumb_func
 381              		.type	chEvtSignalI, %function
 382              	chEvtSignalI:
 383              	.LFB226:
 384              		.loc 1 282 0
 385              		.cfi_startproc
 386              		@ args = 0, pretend = 0, frame = 0
 387              		@ frame_needed = 0, uses_anonymous_args = 0
 388              		@ link register save eliminated.
 389              	.LVL18:
 390              		.loc 1 287 0
 391 0000 826B     		ldr	r2, [r0, #56]
 392              		.loc 1 289 0
 393 0002 037F     		ldrb	r3, [r0, #28]	@ zero_extendqisi2
 394              		.loc 1 287 0
 395 0004 1143     		orrs	r1, r1, r2
ARM GAS  /tmp/ccnffE2y.s 			page 8


 396              	.LVL19:
 397              		.loc 1 289 0
 398 0006 0A2B     		cmp	r3, #10
 399              		.loc 1 287 0
 400 0008 8163     		str	r1, [r0, #56]
 401              		.loc 1 289 0
 402 000a 0AD0     		beq	.L22
 403              		.loc 1 290 0
 404 000c 0B2B     		cmp	r3, #11
 405 000e 00D0     		beq	.L23
 406              	.L18:
 407 0010 7047     		bx	lr
 408              	.L23:
 409              		.loc 1 292 0
 410 0012 436A     		ldr	r3, [r0, #36]
 411 0014 1940     		ands	r1, r1, r3
 412              		.loc 1 291 0
 413 0016 8B42     		cmp	r3, r1
 414 0018 FAD1     		bne	.L18
 415              	.L20:
 416              		.loc 1 293 0
 417 001a 0023     		movs	r3, #0
 418 001c 4362     		str	r3, [r0, #36]
 419              		.loc 1 294 0
 420 001e FFF7FEBF 		b	chSchReadyI
 421              	.LVL20:
 422              	.L22:
 423              		.loc 1 290 0 discriminator 1
 424 0022 436A     		ldr	r3, [r0, #36]
 425              		.loc 1 289 0 discriminator 1
 426 0024 1942     		tst	r1, r3
 427 0026 F8D1     		bne	.L20
 428 0028 7047     		bx	lr
 429              		.cfi_endproc
 430              	.LFE226:
 431              		.size	chEvtSignalI, .-chEvtSignalI
 432 002a 00BFAFF3 		.section	.text.chEvtBroadcastFlagsI,"ax",%progbits
 432      0080
 433              		.align	2
 434              		.p2align 4,,15
 435              		.global	chEvtBroadcastFlagsI
 436              		.thumb
 437              		.thumb_func
 438              		.type	chEvtBroadcastFlagsI, %function
 439              	chEvtBroadcastFlagsI:
 440              	.LFB223:
 441              		.loc 1 209 0
 442              		.cfi_startproc
 443              		@ args = 0, pretend = 0, frame = 0
 444              		@ frame_needed = 0, uses_anonymous_args = 0
 445              	.LVL21:
 446 0000 70B5     		push	{r4, r5, r6, lr}
 447              		.cfi_def_cfa_offset 16
 448              		.cfi_offset 4, -16
 449              		.cfi_offset 5, -12
 450              		.cfi_offset 6, -8
 451              		.cfi_offset 14, -4
ARM GAS  /tmp/ccnffE2y.s 			page 9


 452              		.loc 1 215 0
 453 0002 0468     		ldr	r4, [r0]
 454              	.LVL22:
 455              		.loc 1 217 0
 456 0004 A042     		cmp	r0, r4
 457              		.loc 1 209 0
 458 0006 0646     		mov	r6, r0
 459 0008 0D46     		mov	r5, r1
 460              		.loc 1 217 0
 461 000a 0DD0     		beq	.L24
 462              	.LVL23:
 463              	.L29:
 464              		.loc 1 219 0
 465 000c E368     		ldr	r3, [r4, #12]
 466 000e 2B43     		orrs	r3, r3, r5
 467 0010 E360     		str	r3, [r4, #12]
 468              		.loc 1 222 0
 469 0012 15B1     		cbz	r5, .L26
 470              		.loc 1 223 0 discriminator 1
 471 0014 2269     		ldr	r2, [r4, #16]
 472              		.loc 1 222 0 discriminator 1
 473 0016 1342     		tst	r3, r2
 474 0018 03D0     		beq	.L27
 475              	.L26:
 476              		.loc 1 224 0
 477 001a 6068     		ldr	r0, [r4, #4]
 478 001c A168     		ldr	r1, [r4, #8]
 479 001e FFF7FEFF 		bl	chEvtSignalI
 480              	.LVL24:
 481              	.L27:
 482              		.loc 1 226 0
 483 0022 2468     		ldr	r4, [r4]
 484              	.LVL25:
 485              		.loc 1 217 0
 486 0024 A642     		cmp	r6, r4
 487 0026 F1D1     		bne	.L29
 488              	.L24:
 489 0028 70BD     		pop	{r4, r5, r6, pc}
 490              		.cfi_endproc
 491              	.LFE223:
 492              		.size	chEvtBroadcastFlagsI, .-chEvtBroadcastFlagsI
 493 002a 00BFAFF3 		.section	.text.chEvtSignal,"ax",%progbits
 493      0080
 494              		.align	2
 495              		.p2align 4,,15
 496              		.global	chEvtSignal
 497              		.thumb
 498              		.thumb_func
 499              		.type	chEvtSignal, %function
 500              	chEvtSignal:
 501              	.LFB225:
 502              		.loc 1 260 0
 503              		.cfi_startproc
 504              		@ args = 0, pretend = 0, frame = 0
 505              		@ frame_needed = 0, uses_anonymous_args = 0
 506              	.LVL26:
 507 0000 08B5     		push	{r3, lr}
ARM GAS  /tmp/ccnffE2y.s 			page 10


 508              		.cfi_def_cfa_offset 8
 509              		.cfi_offset 3, -8
 510              		.cfi_offset 14, -4
 511              	.LBB224:
 512              	.LBB225:
 513              	.LBB226:
 514              	.LBB227:
 515              		.loc 2 546 0
 516 0002 2023     		movs	r3, #32
 517              	@ 546 "ChibiOS_3.0.2/os/ext/CMSIS/include/core_cmFunc.h" 1
 518 0004 83F31188 		MSR basepri, r3
 519              	@ 0 "" 2
 520              		.thumb
 521              	.LBE227:
 522              	.LBE226:
 523              	.LBE225:
 524              	.LBE224:
 525              		.loc 1 265 0
 526 0008 FFF7FEFF 		bl	chEvtSignalI
 527              	.LVL27:
 528              		.loc 1 266 0
 529 000c FFF7FEFF 		bl	chSchRescheduleS
 530              	.LVL28:
 531              	.LBB228:
 532              	.LBB229:
 533              	.LBB230:
 534              	.LBB231:
 535              	.LBB232:
 536              		.loc 2 546 0
 537 0010 0023     		movs	r3, #0
 538              	@ 546 "ChibiOS_3.0.2/os/ext/CMSIS/include/core_cmFunc.h" 1
 539 0012 83F31188 		MSR basepri, r3
 540              	@ 0 "" 2
 541              		.thumb
 542 0016 08BD     		pop	{r3, pc}
 543              	.LBE232:
 544              	.LBE231:
 545              	.LBE230:
 546              	.LBE229:
 547              	.LBE228:
 548              		.cfi_endproc
 549              	.LFE225:
 550              		.size	chEvtSignal, .-chEvtSignal
 551 0018 AFF30080 		.section	.text.chEvtBroadcastFlags,"ax",%progbits
 551      AFF30080 
 552              		.align	2
 553              		.p2align 4,,15
 554              		.global	chEvtBroadcastFlags
 555              		.thumb
 556              		.thumb_func
 557              		.type	chEvtBroadcastFlags, %function
 558              	chEvtBroadcastFlags:
 559              	.LFB227:
 560              		.loc 1 311 0
 561              		.cfi_startproc
 562              		@ args = 0, pretend = 0, frame = 0
 563              		@ frame_needed = 0, uses_anonymous_args = 0
ARM GAS  /tmp/ccnffE2y.s 			page 11


 564              	.LVL29:
 565 0000 08B5     		push	{r3, lr}
 566              		.cfi_def_cfa_offset 8
 567              		.cfi_offset 3, -8
 568              		.cfi_offset 14, -4
 569              	.LBB233:
 570              	.LBB234:
 571              	.LBB235:
 572              	.LBB236:
 573              		.loc 2 546 0
 574 0002 2023     		movs	r3, #32
 575              	@ 546 "ChibiOS_3.0.2/os/ext/CMSIS/include/core_cmFunc.h" 1
 576 0004 83F31188 		MSR basepri, r3
 577              	@ 0 "" 2
 578              		.thumb
 579              	.LBE236:
 580              	.LBE235:
 581              	.LBE234:
 582              	.LBE233:
 583              		.loc 1 314 0
 584 0008 FFF7FEFF 		bl	chEvtBroadcastFlagsI
 585              	.LVL30:
 586              		.loc 1 315 0
 587 000c FFF7FEFF 		bl	chSchRescheduleS
 588              	.LVL31:
 589              	.LBB237:
 590              	.LBB238:
 591              	.LBB239:
 592              	.LBB240:
 593              	.LBB241:
 594              		.loc 2 546 0
 595 0010 0023     		movs	r3, #0
 596              	@ 546 "ChibiOS_3.0.2/os/ext/CMSIS/include/core_cmFunc.h" 1
 597 0012 83F31188 		MSR basepri, r3
 598              	@ 0 "" 2
 599              		.thumb
 600 0016 08BD     		pop	{r3, pc}
 601              	.LBE241:
 602              	.LBE240:
 603              	.LBE239:
 604              	.LBE238:
 605              	.LBE237:
 606              		.cfi_endproc
 607              	.LFE227:
 608              		.size	chEvtBroadcastFlags, .-chEvtBroadcastFlags
 609 0018 AFF30080 		.section	.text.chEvtGetAndClearFlagsI,"ax",%progbits
 609      AFF30080 
 610              		.align	2
 611              		.p2align 4,,15
 612              		.global	chEvtGetAndClearFlagsI
 613              		.thumb
 614              		.thumb_func
 615              		.type	chEvtGetAndClearFlagsI, %function
 616              	chEvtGetAndClearFlagsI:
 617              	.LFB228:
 618              		.loc 1 330 0
 619              		.cfi_startproc
ARM GAS  /tmp/ccnffE2y.s 			page 12


 620              		@ args = 0, pretend = 0, frame = 0
 621              		@ frame_needed = 0, uses_anonymous_args = 0
 622              		@ link register save eliminated.
 623              	.LVL32:
 624              		.loc 1 330 0
 625 0000 0346     		mov	r3, r0
 626              		.loc 1 334 0
 627 0002 0022     		movs	r2, #0
 628              		.loc 1 333 0
 629 0004 C068     		ldr	r0, [r0, #12]
 630              	.LVL33:
 631              		.loc 1 334 0
 632 0006 DA60     		str	r2, [r3, #12]
 633              		.loc 1 337 0
 634 0008 7047     		bx	lr
 635              		.cfi_endproc
 636              	.LFE228:
 637              		.size	chEvtGetAndClearFlagsI, .-chEvtGetAndClearFlagsI
 638 000a 00BFAFF3 		.section	.text.chEvtDispatch,"ax",%progbits
 638      0080
 639              		.align	2
 640              		.p2align 4,,15
 641              		.global	chEvtDispatch
 642              		.thumb
 643              		.thumb_func
 644              		.type	chEvtDispatch, %function
 645              	chEvtDispatch:
 646              	.LFB229:
 647              		.loc 1 348 0
 648              		.cfi_startproc
 649              		@ args = 0, pretend = 0, frame = 0
 650              		@ frame_needed = 0, uses_anonymous_args = 0
 651              	.LVL34:
 652 0000 F8B5     		push	{r3, r4, r5, r6, r7, lr}
 653              		.cfi_def_cfa_offset 24
 654              		.cfi_offset 3, -24
 655              		.cfi_offset 4, -20
 656              		.cfi_offset 5, -16
 657              		.cfi_offset 6, -12
 658              		.cfi_offset 7, -8
 659              		.cfi_offset 14, -4
 660              		.loc 1 354 0
 661 0002 0D46     		mov	r5, r1
 662              		.loc 1 348 0
 663 0004 0646     		mov	r6, r0
 664              		.loc 1 354 0
 665 0006 99B1     		cbz	r1, .L39
 666              		.loc 1 353 0
 667 0008 0024     		movs	r4, #0
 668              		.loc 1 357 0
 669 000a 0127     		movs	r7, #1
 670 000c 01E0     		b	.L43
 671              	.LVL35:
 672              	.L41:
 673              		.loc 1 360 0
 674 000e 0134     		adds	r4, r4, #1
 675              	.LVL36:
ARM GAS  /tmp/ccnffE2y.s 			page 13


 676              		.loc 1 354 0
 677 0010 75B1     		cbz	r5, .L39
 678              	.LVL37:
 679              	.L43:
 680              		.loc 1 355 0
 681 0012 25FA04F3 		lsr	r3, r5, r4
 682 0016 DB07     		lsls	r3, r3, #31
 683 0018 F9D5     		bpl	.L41
 684              		.loc 1 357 0
 685 001a 07FA04F2 		lsl	r2, r7, r4
 686              		.loc 1 358 0
 687 001e 56F82430 		ldr	r3, [r6, r4, lsl #2]
 688 0022 2046     		mov	r0, r4
 689              		.loc 1 357 0
 690 0024 25EA0205 		bic	r5, r5, r2
 691              	.LVL38:
 692              		.loc 1 360 0
 693 0028 0134     		adds	r4, r4, #1
 694              	.LVL39:
 695              		.loc 1 358 0
 696 002a 9847     		blx	r3
 697              	.LVL40:
 698              		.loc 1 354 0
 699 002c 002D     		cmp	r5, #0
 700 002e F0D1     		bne	.L43
 701              	.LVL41:
 702              	.L39:
 703 0030 F8BD     		pop	{r3, r4, r5, r6, r7, pc}
 704              		.cfi_endproc
 705              	.LFE229:
 706              		.size	chEvtDispatch, .-chEvtDispatch
 707 0032 00BFAFF3 		.section	.text.chEvtWaitOne,"ax",%progbits
 707      0080AFF3 
 707      0080AFF3 
 707      0080
 708              		.align	2
 709              		.p2align 4,,15
 710              		.global	chEvtWaitOne
 711              		.thumb
 712              		.thumb_func
 713              		.type	chEvtWaitOne, %function
 714              	chEvtWaitOne:
 715              	.LFB230:
 716              		.loc 1 383 0
 717              		.cfi_startproc
 718              		@ args = 0, pretend = 0, frame = 0
 719              		@ frame_needed = 0, uses_anonymous_args = 0
 720              	.LVL42:
 721 0000 38B5     		push	{r3, r4, r5, lr}
 722              		.cfi_def_cfa_offset 16
 723              		.cfi_offset 3, -16
 724              		.cfi_offset 4, -12
 725              		.cfi_offset 5, -8
 726              		.cfi_offset 14, -4
 727              		.loc 1 384 0
 728 0002 0D4B     		ldr	r3, .L52
 729              		.loc 1 383 0
ARM GAS  /tmp/ccnffE2y.s 			page 14


 730 0004 0546     		mov	r5, r0
 731              		.loc 1 384 0
 732 0006 9C69     		ldr	r4, [r3, #24]
 733              	.LVL43:
 734              	.LBB242:
 735              	.LBB243:
 736              	.LBB244:
 737              	.LBB245:
 738              		.loc 2 546 0
 739 0008 2023     		movs	r3, #32
 740              	@ 546 "ChibiOS_3.0.2/os/ext/CMSIS/include/core_cmFunc.h" 1
 741 000a 83F31188 		MSR basepri, r3
 742              	@ 0 "" 2
 743              		.thumb
 744              	.LBE245:
 745              	.LBE244:
 746              	.LBE243:
 747              	.LBE242:
 748              		.loc 1 388 0
 749 000e A36B     		ldr	r3, [r4, #56]
 750              	.LVL44:
 751              		.loc 1 389 0
 752 0010 10EA0302 		ands	r2, r0, r3
 753              	.LVL45:
 754 0014 06D1     		bne	.L51
 755              		.loc 1 390 0
 756 0016 6062     		str	r0, [r4, #36]
 757              		.loc 1 391 0
 758 0018 0A20     		movs	r0, #10
 759              	.LVL46:
 760 001a FFF7FEFF 		bl	chSchGoSleepS
 761              	.LVL47:
 762              		.loc 1 392 0
 763 001e A36B     		ldr	r3, [r4, #56]
 764 0020 05EA0302 		and	r2, r5, r3
 765              	.LVL48:
 766              	.L51:
 767              		.loc 1 394 0
 768 0024 5042     		negs	r0, r2
 769 0026 1040     		ands	r0, r0, r2
 770              	.LVL49:
 771              		.loc 1 395 0
 772 0028 23EA0003 		bic	r3, r3, r0
 773 002c A363     		str	r3, [r4, #56]
 774              	.LVL50:
 775              	.LBB246:
 776              	.LBB247:
 777              	.LBB248:
 778              	.LBB249:
 779              	.LBB250:
 780              		.loc 2 546 0
 781 002e 0023     		movs	r3, #0
 782              	@ 546 "ChibiOS_3.0.2/os/ext/CMSIS/include/core_cmFunc.h" 1
 783 0030 83F31188 		MSR basepri, r3
 784              	@ 0 "" 2
 785              		.thumb
 786              	.LBE250:
ARM GAS  /tmp/ccnffE2y.s 			page 15


 787              	.LBE249:
 788              	.LBE248:
 789              	.LBE247:
 790              	.LBE246:
 791              		.loc 1 399 0
 792 0034 38BD     		pop	{r3, r4, r5, pc}
 793              	.LVL51:
 794              	.L53:
 795 0036 00BF     		.align	2
 796              	.L52:
 797 0038 00000000 		.word	ch
 798              		.cfi_endproc
 799              	.LFE230:
 800              		.size	chEvtWaitOne, .-chEvtWaitOne
 801 003c AFF30080 		.section	.text.chEvtWaitAny,"ax",%progbits
 802              		.align	2
 803              		.p2align 4,,15
 804              		.global	chEvtWaitAny
 805              		.thumb
 806              		.thumb_func
 807              		.type	chEvtWaitAny, %function
 808              	chEvtWaitAny:
 809              	.LFB231:
 810              		.loc 1 413 0
 811              		.cfi_startproc
 812              		@ args = 0, pretend = 0, frame = 0
 813              		@ frame_needed = 0, uses_anonymous_args = 0
 814              	.LVL52:
 815 0000 38B5     		push	{r3, r4, r5, lr}
 816              		.cfi_def_cfa_offset 16
 817              		.cfi_offset 3, -16
 818              		.cfi_offset 4, -12
 819              		.cfi_offset 5, -8
 820              		.cfi_offset 14, -4
 821              		.loc 1 414 0
 822 0002 0B4B     		ldr	r3, .L56
 823              		.loc 1 413 0
 824 0004 0546     		mov	r5, r0
 825              		.loc 1 414 0
 826 0006 9C69     		ldr	r4, [r3, #24]
 827              	.LVL53:
 828              	.LBB251:
 829              	.LBB252:
 830              	.LBB253:
 831              	.LBB254:
 832              		.loc 2 546 0
 833 0008 2023     		movs	r3, #32
 834              	@ 546 "ChibiOS_3.0.2/os/ext/CMSIS/include/core_cmFunc.h" 1
 835 000a 83F31188 		MSR basepri, r3
 836              	@ 0 "" 2
 837              		.thumb
 838              	.LBE254:
 839              	.LBE253:
 840              	.LBE252:
 841              	.LBE251:
 842              		.loc 1 418 0
 843 000e A36B     		ldr	r3, [r4, #56]
ARM GAS  /tmp/ccnffE2y.s 			page 16


 844              	.LVL54:
 845              		.loc 1 419 0
 846 0010 1840     		ands	r0, r0, r3
 847              	.LVL55:
 848 0012 06D1     		bne	.L55
 849              		.loc 1 421 0
 850 0014 0A20     		movs	r0, #10
 851              	.LVL56:
 852              		.loc 1 420 0
 853 0016 6562     		str	r5, [r4, #36]
 854              		.loc 1 421 0
 855 0018 FFF7FEFF 		bl	chSchGoSleepS
 856              	.LVL57:
 857              		.loc 1 422 0
 858 001c A36B     		ldr	r3, [r4, #56]
 859 001e 05EA0300 		and	r0, r5, r3
 860              	.LVL58:
 861              	.L55:
 862              		.loc 1 424 0
 863 0022 23EA0003 		bic	r3, r3, r0
 864 0026 A363     		str	r3, [r4, #56]
 865              	.LVL59:
 866              	.LBB255:
 867              	.LBB256:
 868              	.LBB257:
 869              	.LBB258:
 870              	.LBB259:
 871              		.loc 2 546 0
 872 0028 0023     		movs	r3, #0
 873              	@ 546 "ChibiOS_3.0.2/os/ext/CMSIS/include/core_cmFunc.h" 1
 874 002a 83F31188 		MSR basepri, r3
 875              	@ 0 "" 2
 876              		.thumb
 877              	.LBE259:
 878              	.LBE258:
 879              	.LBE257:
 880              	.LBE256:
 881              	.LBE255:
 882              		.loc 1 428 0
 883 002e 38BD     		pop	{r3, r4, r5, pc}
 884              	.LVL60:
 885              	.L57:
 886              		.align	2
 887              	.L56:
 888 0030 00000000 		.word	ch
 889              		.cfi_endproc
 890              	.LFE231:
 891              		.size	chEvtWaitAny, .-chEvtWaitAny
 892 0034 AFF30080 		.section	.text.chEvtWaitAll,"ax",%progbits
 892      AFF30080 
 892      AFF30080 
 893              		.align	2
 894              		.p2align 4,,15
 895              		.global	chEvtWaitAll
 896              		.thumb
 897              		.thumb_func
 898              		.type	chEvtWaitAll, %function
ARM GAS  /tmp/ccnffE2y.s 			page 17


 899              	chEvtWaitAll:
 900              	.LFB232:
 901              		.loc 1 441 0
 902              		.cfi_startproc
 903              		@ args = 0, pretend = 0, frame = 0
 904              		@ frame_needed = 0, uses_anonymous_args = 0
 905              	.LVL61:
 906 0000 38B5     		push	{r3, r4, r5, lr}
 907              		.cfi_def_cfa_offset 16
 908              		.cfi_offset 3, -16
 909              		.cfi_offset 4, -12
 910              		.cfi_offset 5, -8
 911              		.cfi_offset 14, -4
 912              		.loc 1 442 0
 913 0002 0C4B     		ldr	r3, .L60
 914              		.loc 1 441 0
 915 0004 0446     		mov	r4, r0
 916              		.loc 1 442 0
 917 0006 9D69     		ldr	r5, [r3, #24]
 918              	.LVL62:
 919              	.LBB260:
 920              	.LBB261:
 921              	.LBB262:
 922              	.LBB263:
 923              		.loc 2 546 0
 924 0008 2023     		movs	r3, #32
 925              	@ 546 "ChibiOS_3.0.2/os/ext/CMSIS/include/core_cmFunc.h" 1
 926 000a 83F31188 		MSR basepri, r3
 927              	@ 0 "" 2
 928              		.thumb
 929              	.LBE263:
 930              	.LBE262:
 931              	.LBE261:
 932              	.LBE260:
 933              		.loc 1 445 0
 934 000e AB6B     		ldr	r3, [r5, #56]
 935 0010 00EA0302 		and	r2, r0, r3
 936 0014 8242     		cmp	r2, r0
 937 0016 04D0     		beq	.L59
 938              		.loc 1 446 0
 939 0018 6862     		str	r0, [r5, #36]
 940              		.loc 1 447 0
 941 001a 0B20     		movs	r0, #11
 942              	.LVL63:
 943 001c FFF7FEFF 		bl	chSchGoSleepS
 944              	.LVL64:
 945 0020 AB6B     		ldr	r3, [r5, #56]
 946              	.L59:
 947              		.loc 1 449 0
 948 0022 23EA0403 		bic	r3, r3, r4
 949 0026 AB63     		str	r3, [r5, #56]
 950              	.LVL65:
 951              	.LBB264:
 952              	.LBB265:
 953              	.LBB266:
 954              	.LBB267:
 955              	.LBB268:
ARM GAS  /tmp/ccnffE2y.s 			page 18


 956              		.loc 2 546 0
 957 0028 0023     		movs	r3, #0
 958              	@ 546 "ChibiOS_3.0.2/os/ext/CMSIS/include/core_cmFunc.h" 1
 959 002a 83F31188 		MSR basepri, r3
 960              	@ 0 "" 2
 961              		.thumb
 962              	.LBE268:
 963              	.LBE267:
 964              	.LBE266:
 965              	.LBE265:
 966              	.LBE264:
 967              		.loc 1 453 0
 968 002e 2046     		mov	r0, r4
 969 0030 38BD     		pop	{r3, r4, r5, pc}
 970              	.LVL66:
 971              	.L61:
 972 0032 00BF     		.align	2
 973              	.L60:
 974 0034 00000000 		.word	ch
 975              		.cfi_endproc
 976              	.LFE232:
 977              		.size	chEvtWaitAll, .-chEvtWaitAll
 978 0038 AFF30080 		.section	.text.chEvtWaitOneTimeout,"ax",%progbits
 978      AFF30080 
 979              		.align	2
 980              		.p2align 4,,15
 981              		.global	chEvtWaitOneTimeout
 982              		.thumb
 983              		.thumb_func
 984              		.type	chEvtWaitOneTimeout, %function
 985              	chEvtWaitOneTimeout:
 986              	.LFB233:
 987              		.loc 1 479 0
 988              		.cfi_startproc
 989              		@ args = 0, pretend = 0, frame = 0
 990              		@ frame_needed = 0, uses_anonymous_args = 0
 991              	.LVL67:
 992              		.loc 1 480 0
 993 0000 124B     		ldr	r3, .L68
 994              		.loc 1 479 0
 995 0002 70B5     		push	{r4, r5, r6, lr}
 996              		.cfi_def_cfa_offset 16
 997              		.cfi_offset 4, -16
 998              		.cfi_offset 5, -12
 999              		.cfi_offset 6, -8
 1000              		.cfi_offset 14, -4
 1001              		.loc 1 479 0
 1002 0004 0446     		mov	r4, r0
 1003              		.loc 1 480 0
 1004 0006 9D69     		ldr	r5, [r3, #24]
 1005              	.LVL68:
 1006              		.loc 1 479 0
 1007 0008 0846     		mov	r0, r1
 1008              	.LVL69:
 1009              	.LBB269:
 1010              	.LBB270:
 1011              	.LBB271:
ARM GAS  /tmp/ccnffE2y.s 			page 19


 1012              	.LBB272:
 1013              		.loc 2 546 0
 1014 000a 2023     		movs	r3, #32
 1015              	@ 546 "ChibiOS_3.0.2/os/ext/CMSIS/include/core_cmFunc.h" 1
 1016 000c 83F31188 		MSR basepri, r3
 1017              	@ 0 "" 2
 1018              		.thumb
 1019              	.LBE272:
 1020              	.LBE271:
 1021              	.LBE270:
 1022              	.LBE269:
 1023              		.loc 1 484 0
 1024 0010 AB6B     		ldr	r3, [r5, #56]
 1025              	.LVL70:
 1026              		.loc 1 485 0
 1027 0012 14EA0306 		ands	r6, r4, r3
 1028              	.LVL71:
 1029 0016 0CD1     		bne	.L63
 1030              		.loc 1 486 0
 1031 0018 11B9     		cbnz	r1, .L64
 1032              	.LVL72:
 1033              	.LBB273:
 1034              	.LBB274:
 1035              	.LBB275:
 1036              	.LBB276:
 1037              	.LBB277:
 1038              		.loc 2 546 0
 1039              	@ 546 "ChibiOS_3.0.2/os/ext/CMSIS/include/core_cmFunc.h" 1
 1040 001a 81F31188 		MSR basepri, r1
 1041              	@ 0 "" 2
 1042              		.thumb
 1043              	.LBE277:
 1044              	.LBE276:
 1045              	.LBE275:
 1046              	.LBE274:
 1047              	.LBE273:
 1048              		.loc 1 488 0
 1049 001e 70BD     		pop	{r4, r5, r6, pc}
 1050              	.LVL73:
 1051              	.L64:
 1052              		.loc 1 490 0
 1053 0020 6C62     		str	r4, [r5, #36]
 1054              		.loc 1 491 0
 1055 0022 0A20     		movs	r0, #10
 1056 0024 FFF7FEFF 		bl	chSchGoSleepTimeoutS
 1057              	.LVL74:
 1058 0028 0028     		cmp	r0, #0
 1059 002a 0BDB     		blt	.L67
 1060              		.loc 1 495 0
 1061 002c AB6B     		ldr	r3, [r5, #56]
 1062 002e 04EA0306 		and	r6, r4, r3
 1063              	.LVL75:
 1064              	.L63:
 1065              		.loc 1 497 0
 1066 0032 7042     		negs	r0, r6
 1067 0034 3040     		ands	r0, r0, r6
 1068              	.LVL76:
ARM GAS  /tmp/ccnffE2y.s 			page 20


 1069              		.loc 1 498 0
 1070 0036 23EA0003 		bic	r3, r3, r0
 1071 003a AB63     		str	r3, [r5, #56]
 1072              	.LVL77:
 1073              	.LBB278:
 1074              	.LBB279:
 1075              	.LBB280:
 1076              	.LBB281:
 1077              	.LBB282:
 1078              		.loc 2 546 0
 1079 003c 0023     		movs	r3, #0
 1080              	@ 546 "ChibiOS_3.0.2/os/ext/CMSIS/include/core_cmFunc.h" 1
 1081 003e 83F31188 		MSR basepri, r3
 1082              	@ 0 "" 2
 1083              		.thumb
 1084              	.LBE282:
 1085              	.LBE281:
 1086              	.LBE280:
 1087              	.LBE279:
 1088              	.LBE278:
 1089              		.loc 1 502 0
 1090 0042 70BD     		pop	{r4, r5, r6, pc}
 1091              	.LVL78:
 1092              	.L67:
 1093              	.LBB283:
 1094              	.LBB284:
 1095              	.LBB285:
 1096              	.LBB286:
 1097              	.LBB287:
 1098              		.loc 2 546 0
 1099              	@ 546 "ChibiOS_3.0.2/os/ext/CMSIS/include/core_cmFunc.h" 1
 1100 0044 86F31188 		MSR basepri, r6
 1101              	@ 0 "" 2
 1102              		.thumb
 1103              	.LBE287:
 1104              	.LBE286:
 1105              	.LBE285:
 1106              	.LBE284:
 1107              	.LBE283:
 1108              		.loc 1 493 0
 1109 0048 3046     		mov	r0, r6
 1110 004a 70BD     		pop	{r4, r5, r6, pc}
 1111              	.LVL79:
 1112              	.L69:
 1113              		.align	2
 1114              	.L68:
 1115 004c 00000000 		.word	ch
 1116              		.cfi_endproc
 1117              	.LFE233:
 1118              		.size	chEvtWaitOneTimeout, .-chEvtWaitOneTimeout
 1119              		.section	.text.chEvtWaitAnyTimeout,"ax",%progbits
 1120              		.align	2
 1121              		.p2align 4,,15
 1122              		.global	chEvtWaitAnyTimeout
 1123              		.thumb
 1124              		.thumb_func
 1125              		.type	chEvtWaitAnyTimeout, %function
ARM GAS  /tmp/ccnffE2y.s 			page 21


 1126              	chEvtWaitAnyTimeout:
 1127              	.LFB234:
 1128              		.loc 1 522 0
 1129              		.cfi_startproc
 1130              		@ args = 0, pretend = 0, frame = 0
 1131              		@ frame_needed = 0, uses_anonymous_args = 0
 1132              	.LVL80:
 1133              		.loc 1 523 0
 1134 0000 124B     		ldr	r3, .L76
 1135              		.loc 1 522 0
 1136 0002 70B5     		push	{r4, r5, r6, lr}
 1137              		.cfi_def_cfa_offset 16
 1138              		.cfi_offset 4, -16
 1139              		.cfi_offset 5, -12
 1140              		.cfi_offset 6, -8
 1141              		.cfi_offset 14, -4
 1142              		.loc 1 522 0
 1143 0004 0446     		mov	r4, r0
 1144              		.loc 1 523 0
 1145 0006 9D69     		ldr	r5, [r3, #24]
 1146              	.LVL81:
 1147              		.loc 1 522 0
 1148 0008 0846     		mov	r0, r1
 1149              	.LVL82:
 1150              	.LBB288:
 1151              	.LBB289:
 1152              	.LBB290:
 1153              	.LBB291:
 1154              		.loc 2 546 0
 1155 000a 2023     		movs	r3, #32
 1156              	@ 546 "ChibiOS_3.0.2/os/ext/CMSIS/include/core_cmFunc.h" 1
 1157 000c 83F31188 		MSR basepri, r3
 1158              	@ 0 "" 2
 1159              		.thumb
 1160              	.LBE291:
 1161              	.LBE290:
 1162              	.LBE289:
 1163              	.LBE288:
 1164              		.loc 1 527 0
 1165 0010 AB6B     		ldr	r3, [r5, #56]
 1166              	.LVL83:
 1167              		.loc 1 528 0
 1168 0012 14EA0306 		ands	r6, r4, r3
 1169              	.LVL84:
 1170 0016 0CD1     		bne	.L71
 1171              		.loc 1 529 0
 1172 0018 11B9     		cbnz	r1, .L72
 1173              	.LVL85:
 1174              	.LBB292:
 1175              	.LBB293:
 1176              	.LBB294:
 1177              	.LBB295:
 1178              	.LBB296:
 1179              		.loc 2 546 0
 1180              	@ 546 "ChibiOS_3.0.2/os/ext/CMSIS/include/core_cmFunc.h" 1
 1181 001a 81F31188 		MSR basepri, r1
 1182              	@ 0 "" 2
ARM GAS  /tmp/ccnffE2y.s 			page 22


 1183              		.thumb
 1184              	.LBE296:
 1185              	.LBE295:
 1186              	.LBE294:
 1187              	.LBE293:
 1188              	.LBE292:
 1189              		.loc 1 531 0
 1190 001e 70BD     		pop	{r4, r5, r6, pc}
 1191              	.LVL86:
 1192              	.L72:
 1193              		.loc 1 533 0
 1194 0020 6C62     		str	r4, [r5, #36]
 1195              		.loc 1 534 0
 1196 0022 0A20     		movs	r0, #10
 1197 0024 FFF7FEFF 		bl	chSchGoSleepTimeoutS
 1198              	.LVL87:
 1199 0028 0028     		cmp	r0, #0
 1200 002a 0ADB     		blt	.L75
 1201              		.loc 1 538 0
 1202 002c AB6B     		ldr	r3, [r5, #56]
 1203 002e 04EA0306 		and	r6, r4, r3
 1204              	.LVL88:
 1205              	.L71:
 1206              		.loc 1 540 0
 1207 0032 23EA0603 		bic	r3, r3, r6
 1208 0036 AB63     		str	r3, [r5, #56]
 1209              	.LVL89:
 1210              	.LBB297:
 1211              	.LBB298:
 1212              	.LBB299:
 1213              	.LBB300:
 1214              	.LBB301:
 1215              		.loc 2 546 0
 1216 0038 0023     		movs	r3, #0
 1217              	@ 546 "ChibiOS_3.0.2/os/ext/CMSIS/include/core_cmFunc.h" 1
 1218 003a 83F31188 		MSR basepri, r3
 1219              	@ 0 "" 2
 1220              		.thumb
 1221              	.LBE301:
 1222              	.LBE300:
 1223              	.LBE299:
 1224              	.LBE298:
 1225              	.LBE297:
 1226              		.loc 1 543 0
 1227 003e 3046     		mov	r0, r6
 1228              		.loc 1 544 0
 1229 0040 70BD     		pop	{r4, r5, r6, pc}
 1230              	.LVL90:
 1231              	.L75:
 1232              	.LBB302:
 1233              	.LBB303:
 1234              	.LBB304:
 1235              	.LBB305:
 1236              	.LBB306:
 1237              		.loc 2 546 0
 1238              	@ 546 "ChibiOS_3.0.2/os/ext/CMSIS/include/core_cmFunc.h" 1
 1239 0042 86F31188 		MSR basepri, r6
ARM GAS  /tmp/ccnffE2y.s 			page 23


 1240              	@ 0 "" 2
 1241              		.thumb
 1242              	.LBE306:
 1243              	.LBE305:
 1244              	.LBE304:
 1245              	.LBE303:
 1246              	.LBE302:
 1247              		.loc 1 536 0
 1248 0046 3046     		mov	r0, r6
 1249 0048 70BD     		pop	{r4, r5, r6, pc}
 1250              	.LVL91:
 1251              	.L77:
 1252 004a 00BF     		.align	2
 1253              	.L76:
 1254 004c 00000000 		.word	ch
 1255              		.cfi_endproc
 1256              	.LFE234:
 1257              		.size	chEvtWaitAnyTimeout, .-chEvtWaitAnyTimeout
 1258              		.section	.text.chEvtWaitAllTimeout,"ax",%progbits
 1259              		.align	2
 1260              		.p2align 4,,15
 1261              		.global	chEvtWaitAllTimeout
 1262              		.thumb
 1263              		.thumb_func
 1264              		.type	chEvtWaitAllTimeout, %function
 1265              	chEvtWaitAllTimeout:
 1266              	.LFB235:
 1267              		.loc 1 563 0
 1268              		.cfi_startproc
 1269              		@ args = 0, pretend = 0, frame = 0
 1270              		@ frame_needed = 0, uses_anonymous_args = 0
 1271              	.LVL92:
 1272 0000 38B5     		push	{r3, r4, r5, lr}
 1273              		.cfi_def_cfa_offset 16
 1274              		.cfi_offset 3, -16
 1275              		.cfi_offset 4, -12
 1276              		.cfi_offset 5, -8
 1277              		.cfi_offset 14, -4
 1278              		.loc 1 564 0
 1279 0002 104B     		ldr	r3, .L84
 1280              		.loc 1 563 0
 1281 0004 0446     		mov	r4, r0
 1282              		.loc 1 564 0
 1283 0006 9D69     		ldr	r5, [r3, #24]
 1284              	.LVL93:
 1285              		.loc 1 563 0
 1286 0008 0846     		mov	r0, r1
 1287              	.LVL94:
 1288              	.LBB307:
 1289              	.LBB308:
 1290              	.LBB309:
 1291              	.LBB310:
 1292              		.loc 2 546 0
 1293 000a 2023     		movs	r3, #32
 1294              	@ 546 "ChibiOS_3.0.2/os/ext/CMSIS/include/core_cmFunc.h" 1
 1295 000c 83F31188 		MSR basepri, r3
 1296              	@ 0 "" 2
ARM GAS  /tmp/ccnffE2y.s 			page 24


 1297              		.thumb
 1298              	.LBE310:
 1299              	.LBE309:
 1300              	.LBE308:
 1301              	.LBE307:
 1302              		.loc 1 567 0
 1303 0010 AB6B     		ldr	r3, [r5, #56]
 1304 0012 04EA0302 		and	r2, r4, r3
 1305 0016 A242     		cmp	r2, r4
 1306 0018 0AD0     		beq	.L79
 1307              		.loc 1 568 0
 1308 001a 11B9     		cbnz	r1, .L80
 1309              	.LVL95:
 1310              	.L83:
 1311              	.LBB311:
 1312              	.LBB312:
 1313              	.LBB313:
 1314              	.LBB314:
 1315              	.LBB315:
 1316              		.loc 2 546 0
 1317              	@ 546 "ChibiOS_3.0.2/os/ext/CMSIS/include/core_cmFunc.h" 1
 1318 001c 80F31188 		MSR basepri, r0
 1319              	@ 0 "" 2
 1320              		.thumb
 1321              	.LBE315:
 1322              	.LBE314:
 1323              	.LBE313:
 1324              	.LBE312:
 1325              	.LBE311:
 1326              		.loc 1 575 0
 1327 0020 38BD     		pop	{r3, r4, r5, pc}
 1328              	.LVL96:
 1329              	.L80:
 1330              		.loc 1 572 0
 1331 0022 6C62     		str	r4, [r5, #36]
 1332              		.loc 1 573 0
 1333 0024 0B20     		movs	r0, #11
 1334              	.LVL97:
 1335 0026 FFF7FEFF 		bl	chSchGoSleepTimeoutS
 1336              	.LVL98:
 1337 002a 0028     		cmp	r0, #0
 1338 002c 08DB     		blt	.L82
 1339 002e AB6B     		ldr	r3, [r5, #56]
 1340              	.L79:
 1341              		.loc 1 578 0
 1342 0030 23EA0403 		bic	r3, r3, r4
 1343 0034 AB63     		str	r3, [r5, #56]
 1344              	.LVL99:
 1345              	.LBB320:
 1346              	.LBB321:
 1347              	.LBB322:
 1348              	.LBB323:
 1349              	.LBB324:
 1350              		.loc 2 546 0
 1351 0036 0023     		movs	r3, #0
 1352              	@ 546 "ChibiOS_3.0.2/os/ext/CMSIS/include/core_cmFunc.h" 1
 1353 0038 83F31188 		MSR basepri, r3
ARM GAS  /tmp/ccnffE2y.s 			page 25


 1354              	@ 0 "" 2
 1355              		.thumb
 1356              	.LBE324:
 1357              	.LBE323:
 1358              	.LBE322:
 1359              	.LBE321:
 1360              	.LBE320:
 1361              		.loc 1 581 0
 1362 003c 2046     		mov	r0, r4
 1363              		.loc 1 582 0
 1364 003e 38BD     		pop	{r3, r4, r5, pc}
 1365              	.LVL100:
 1366              	.L82:
 1367              	.LBB325:
 1368              	.LBB319:
 1369              	.LBB318:
 1370              	.LBB317:
 1371              	.LBB316:
 1372              		.loc 2 546 0
 1373 0040 0020     		movs	r0, #0
 1374 0042 EBE7     		b	.L83
 1375              	.L85:
 1376              		.align	2
 1377              	.L84:
 1378 0044 00000000 		.word	ch
 1379              	.LBE316:
 1380              	.LBE317:
 1381              	.LBE318:
 1382              	.LBE319:
 1383              	.LBE325:
 1384              		.cfi_endproc
 1385              	.LFE235:
 1386              		.size	chEvtWaitAllTimeout, .-chEvtWaitAllTimeout
 1387 0048 AFF30080 		.text
 1387      AFF30080 
 1388              	.Letext0:
 1389              		.file 3 "/usr/include/newlib/machine/_default_types.h"
 1390              		.file 4 "/usr/include/newlib/stdint.h"
 1391              		.file 5 "ChibiOS_3.0.2/os/rt/ports/ARMCMx/compilers/GCC/chtypes.h"
 1392              		.file 6 "ChibiOS_3.0.2/os/rt/include/chsystypes.h"
 1393              		.file 7 "ChibiOS_3.0.2/os/rt/include/chschd.h"
 1394              		.file 8 "ChibiOS_3.0.2/os/rt/ports/ARMCMx/chcore.h"
 1395              		.file 9 "ChibiOS_3.0.2/os/rt/ports/ARMCMx/chcore_v7m.h"
 1396              		.file 10 "ChibiOS_3.0.2/os/rt/include/chtm.h"
 1397              		.file 11 "ChibiOS_3.0.2/os/rt/include/chsem.h"
 1398              		.file 12 "ChibiOS_3.0.2/os/rt/include/chmtx.h"
 1399              		.file 13 "ChibiOS_3.0.2/os/rt/include/chevents.h"
 1400              		.file 14 "ChibiOS_3.0.2/os/rt/include/chsys.h"
 1401              		.file 15 "ChibiOS_3.0.2/os/ext/CMSIS/include/core_cm4.h"