ARM GAS  /tmp/ccoawyZT.s 			page 1


   1              		.syntax unified
   2              		.cpu cortex-m4
   3              		.eabi_attribute 27, 3
   4              		.eabi_attribute 28, 1
   5              		.fpu fpv4-sp-d16
   6              		.eabi_attribute 20, 1
   7              		.eabi_attribute 21, 1
   8              		.eabi_attribute 23, 3
   9              		.eabi_attribute 24, 1
  10              		.eabi_attribute 25, 1
  11              		.eabi_attribute 26, 1
  12              		.eabi_attribute 30, 2
  13              		.eabi_attribute 34, 1
  14              		.eabi_attribute 18, 4
  15              		.thumb
  16              		.file	"chheap.c"
  17              		.text
  18              	.Ltext0:
  19              		.cfi_sections	.debug_frame
  20              		.section	.text._heap_init,"ax",%progbits
  21              		.align	2
  22              		.p2align 4,,15
  23              		.global	_heap_init
  24              		.thumb
  25              		.thumb_func
  26              		.type	_heap_init, %function
  27              	_heap_init:
  28              	.LFB219:
  29              		.file 1 "ChibiOS_3.0.2/os/rt/src/chheap.c"
  30              		.loc 1 91 0
  31              		.cfi_startproc
  32              		@ args = 0, pretend = 0, frame = 0
  33              		@ frame_needed = 0, uses_anonymous_args = 0
  34              		@ link register save eliminated.
  35              		.loc 1 93 0
  36 0000 044B     		ldr	r3, .L2
  37 0002 054A     		ldr	r2, .L2+4
  38 0004 1A60     		str	r2, [r3]
  39              		.loc 1 97 0
  40 0006 03F11000 		add	r0, r3, #16
  41              		.loc 1 94 0
  42 000a 0022     		movs	r2, #0
  43 000c 9A60     		str	r2, [r3, #8]
  44              		.loc 1 95 0
  45 000e DA60     		str	r2, [r3, #12]
  46              		.loc 1 97 0
  47 0010 FFF7FEBF 		b	chMtxObjectInit
  48              	.LVL0:
  49              	.L3:
  50              		.align	2
  51              	.L2:
  52 0014 00000000 		.word	.LANCHOR0
  53 0018 00000000 		.word	chCoreAlloc
  54              		.cfi_endproc
  55              	.LFE219:
  56              		.size	_heap_init, .-_heap_init
  57 001c AFF30080 		.section	.text.chHeapObjectInit,"ax",%progbits
ARM GAS  /tmp/ccoawyZT.s 			page 2


  58              		.align	2
  59              		.p2align 4,,15
  60              		.global	chHeapObjectInit
  61              		.thumb
  62              		.thumb_func
  63              		.type	chHeapObjectInit, %function
  64              	chHeapObjectInit:
  65              	.LFB220:
  66              		.loc 1 114 0
  67              		.cfi_startproc
  68              		@ args = 0, pretend = 0, frame = 0
  69              		@ frame_needed = 0, uses_anonymous_args = 0
  70              		@ link register save eliminated.
  71              	.LVL1:
  72              		.loc 1 119 0
  73 0000 0023     		movs	r3, #0
  74              		.loc 1 123 0
  75 0002 083A     		subs	r2, r2, #8
  76              	.LVL2:
  77              		.loc 1 120 0
  78 0004 8160     		str	r1, [r0, #8]
  79              		.loc 1 119 0
  80 0006 0360     		str	r3, [r0]
  81              		.loc 1 121 0
  82 0008 C360     		str	r3, [r0, #12]
  83              		.loc 1 125 0
  84 000a 1030     		adds	r0, r0, #16
  85              	.LVL3:
  86              		.loc 1 123 0
  87 000c 4A60     		str	r2, [r1, #4]
  88              		.loc 1 122 0
  89 000e 0B60     		str	r3, [r1]
  90              		.loc 1 125 0
  91 0010 FFF7FEBF 		b	chMtxObjectInit
  92              	.LVL4:
  93              		.cfi_endproc
  94              	.LFE220:
  95              		.size	chHeapObjectInit, .-chHeapObjectInit
  96 0014 AFF30080 		.section	.text.chHeapAlloc,"ax",%progbits
  96      AFF30080 
  96      AFF30080 
  97              		.align	2
  98              		.p2align 4,,15
  99              		.global	chHeapAlloc
 100              		.thumb
 101              		.thumb_func
 102              		.type	chHeapAlloc, %function
 103              	chHeapAlloc:
 104              	.LFB221:
 105              		.loc 1 147 0
 106              		.cfi_startproc
 107              		@ args = 0, pretend = 0, frame = 0
 108              		@ frame_needed = 0, uses_anonymous_args = 0
 109              	.LVL5:
 110 0000 F8B5     		push	{r3, r4, r5, r6, r7, lr}
 111              		.cfi_def_cfa_offset 24
 112              		.cfi_offset 3, -24
ARM GAS  /tmp/ccoawyZT.s 			page 3


 113              		.cfi_offset 4, -20
 114              		.cfi_offset 5, -16
 115              		.cfi_offset 6, -12
 116              		.cfi_offset 7, -8
 117              		.cfi_offset 14, -4
 118              		.loc 1 151 0
 119 0002 214E     		ldr	r6, .L21
 120 0004 0028     		cmp	r0, #0
 121 0006 18BF     		it	ne
 122 0008 0646     		movne	r6, r0
 123              	.LVL6:
 124              		.loc 1 157 0
 125 000a 06F11007 		add	r7, r6, #16
 126              		.loc 1 154 0
 127 000e 0731     		adds	r1, r1, #7
 128              	.LVL7:
 129              		.loc 1 157 0
 130 0010 3846     		mov	r0, r7
 131              		.loc 1 154 0
 132 0012 21F00705 		bic	r5, r1, #7
 133              	.LVL8:
 134              		.loc 1 155 0
 135 0016 06F10804 		add	r4, r6, #8
 136              	.LVL9:
 137              		.loc 1 157 0
 138 001a FFF7FEFF 		bl	chMtxLock
 139              	.LVL10:
 140              		.loc 1 158 0
 141 001e 03E0     		b	.L7
 142              	.LVL11:
 143              	.L12:
 144              		.loc 1 160 0
 145 0020 5A68     		ldr	r2, [r3, #4]
 146 0022 9542     		cmp	r5, r2
 147 0024 12D9     		bls	.L20
 148 0026 1C46     		mov	r4, r3
 149              	.LVL12:
 150              	.L7:
 151              		.loc 1 158 0 discriminator 1
 152 0028 2368     		ldr	r3, [r4]
 153              	.LVL13:
 154 002a 002B     		cmp	r3, #0
 155 002c F8D1     		bne	.L12
 156              		.loc 1 186 0
 157 002e 3846     		mov	r0, r7
 158 0030 FFF7FEFF 		bl	chMtxUnlock
 159              	.LVL14:
 160              		.loc 1 190 0
 161 0034 3368     		ldr	r3, [r6]
 162 0036 2BB3     		cbz	r3, .L14
 163              		.loc 1 191 0
 164 0038 05F10800 		add	r0, r5, #8
 165 003c 9847     		blx	r3
 166              	.LVL15:
 167              		.loc 1 192 0
 168 003e 08B3     		cbz	r0, .L14
 169              		.loc 1 193 0
ARM GAS  /tmp/ccoawyZT.s 			page 4


 170 0040 0660     		str	r6, [r0]
 171              		.loc 1 194 0
 172 0042 4560     		str	r5, [r0, #4]
 173              	.LVL16:
 174              		.loc 1 198 0
 175 0044 00F10804 		add	r4, r0, #8
 176              	.LVL17:
 177              	.L11:
 178              		.loc 1 204 0
 179 0048 2046     		mov	r0, r4
 180 004a F8BD     		pop	{r3, r4, r5, r6, r7, pc}
 181              	.LVL18:
 182              	.L20:
 183              		.loc 1 161 0
 184 004c 05F10801 		add	r1, r5, #8
 185 0050 9142     		cmp	r1, r2
 186 0052 09D9     		bls	.L9
 187              		.loc 1 165 0
 188 0054 1A68     		ldr	r2, [r3]
 189 0056 2260     		str	r2, [r4]
 190              	.L10:
 191              		.loc 1 177 0
 192 0058 1C46     		mov	r4, r3
 193              	.LVL19:
 194              		.loc 1 178 0
 195 005a 3846     		mov	r0, r7
 196              		.loc 1 177 0
 197 005c 44F8086B 		str	r6, [r4], #8
 198              		.loc 1 178 0
 199 0060 FFF7FEFF 		bl	chMtxUnlock
 200              	.LVL20:
 201              		.loc 1 204 0
 202 0064 2046     		mov	r0, r4
 203 0066 F8BD     		pop	{r3, r4, r5, r6, r7, pc}
 204              	.LVL21:
 205              	.L9:
 206              		.loc 1 173 0
 207 0068 6FF00700 		mvn	r0, #7
 208 006c 401B     		subs	r0, r0, r5
 209              		.loc 1 170 0
 210 006e 03EB010E 		add	lr, r3, r1
 211              	.LVL22:
 212              		.loc 1 173 0
 213 0072 0244     		add	r2, r2, r0
 214              		.loc 1 172 0
 215 0074 1868     		ldr	r0, [r3]
 216 0076 5850     		str	r0, [r3, r1]
 217              		.loc 1 173 0
 218 0078 CEF80420 		str	r2, [lr, #4]
 219              		.loc 1 174 0
 220 007c C4F800E0 		str	lr, [r4]
 221              		.loc 1 175 0
 222 0080 5D60     		str	r5, [r3, #4]
 223 0082 E9E7     		b	.L10
 224              	.LVL23:
 225              	.L14:
 226              		.loc 1 203 0
ARM GAS  /tmp/ccoawyZT.s 			page 5


 227 0084 0024     		movs	r4, #0
 228              	.LVL24:
 229 0086 DFE7     		b	.L11
 230              	.L22:
 231              		.align	2
 232              	.L21:
 233 0088 00000000 		.word	.LANCHOR0
 234              		.cfi_endproc
 235              	.LFE221:
 236              		.size	chHeapAlloc, .-chHeapAlloc
 237 008c AFF30080 		.section	.text.chHeapFree,"ax",%progbits
 238              		.align	2
 239              		.p2align 4,,15
 240              		.global	chHeapFree
 241              		.thumb
 242              		.thumb_func
 243              		.type	chHeapFree, %function
 244              	chHeapFree:
 245              	.LFB222:
 246              		.loc 1 213 0
 247              		.cfi_startproc
 248              		@ args = 0, pretend = 0, frame = 0
 249              		@ frame_needed = 0, uses_anonymous_args = 0
 250              	.LVL25:
 251 0000 F8B5     		push	{r3, r4, r5, r6, r7, lr}
 252              		.cfi_def_cfa_offset 24
 253              		.cfi_offset 3, -24
 254              		.cfi_offset 4, -20
 255              		.cfi_offset 5, -16
 256              		.cfi_offset 6, -12
 257              		.cfi_offset 7, -8
 258              		.cfi_offset 14, -4
 259              		.loc 1 222 0
 260 0002 50F8085C 		ldr	r5, [r0, #-8]
 261              		.loc 1 225 0
 262 0006 05F11007 		add	r7, r5, #16
 263              		.loc 1 213 0
 264 000a 0646     		mov	r6, r0
 265              		.loc 1 220 0
 266 000c A0F10804 		sub	r4, r0, #8
 267              	.LVL26:
 268              		.loc 1 223 0
 269 0010 0835     		adds	r5, r5, #8
 270              	.LVL27:
 271              		.loc 1 225 0
 272 0012 3846     		mov	r0, r7
 273              	.LVL28:
 274 0014 FFF7FEFF 		bl	chMtxLock
 275              	.LVL29:
 276              		.loc 1 223 0
 277 0018 2B46     		mov	r3, r5
 278              	.LVL30:
 279              	.L30:
 280              		.loc 1 229 0
 281 001a AB42     		cmp	r3, r5
 282 001c 04D0     		beq	.L24
 283              	.L35:
ARM GAS  /tmp/ccoawyZT.s 			page 6


 284              		.loc 1 229 0 is_stmt 0 discriminator 2
 285 001e A342     		cmp	r3, r4
 286 0020 02D3     		bcc	.L24
 287 0022 1B68     		ldr	r3, [r3]
 288              	.LVL31:
 289              		.loc 1 229 0
 290 0024 AB42     		cmp	r3, r5
 291 0026 FAD1     		bne	.L35
 292              	.L24:
 293              		.loc 1 230 0 is_stmt 1 discriminator 1
 294 0028 1A68     		ldr	r2, [r3]
 295              		.loc 1 229 0 discriminator 1
 296 002a 1AB1     		cbz	r2, .L26
 297              		.loc 1 230 0
 298 002c 9442     		cmp	r4, r2
 299 002e 01D3     		bcc	.L26
 300 0030 1346     		mov	r3, r2
 301              	.LVL32:
 302              		.loc 1 248 0
 303 0032 F2E7     		b	.L30
 304              	.LVL33:
 305              	.L26:
 306              		.loc 1 235 0
 307 0034 56F8041C 		ldr	r1, [r6, #-4]
 308              		.loc 1 232 0
 309 0038 46F8082C 		str	r2, [r6, #-8]
 310              		.loc 1 233 0
 311 003c 1C60     		str	r4, [r3]
 312              		.loc 1 235 0
 313 003e 01F10802 		add	r2, r1, #8
 314 0042 56F8085C 		ldr	r5, [r6, #-8]
 315              	.LVL34:
 316 0046 A018     		adds	r0, r4, r2
 317 0048 A842     		cmp	r0, r5
 318 004a 0AD0     		beq	.L36
 319              		.loc 1 240 0
 320 004c 5A68     		ldr	r2, [r3, #4]
 321 004e 02F10801 		add	r1, r2, #8
 322 0052 1944     		add	r1, r1, r3
 323 0054 8C42     		cmp	r4, r1
 324 0056 12D0     		beq	.L37
 325              	.L29:
 326              		.loc 1 249 0
 327 0058 3846     		mov	r0, r7
 328              		.loc 1 252 0
 329 005a BDE8F840 		pop	{r3, r4, r5, r6, r7, lr}
 330              	.LVL35:
 331              		.loc 1 249 0
 332 005e FFF7FEBF 		b	chMtxUnlock
 333              	.LVL36:
 334              	.L36:
 335              		.loc 1 237 0
 336 0062 4068     		ldr	r0, [r0, #4]
 337              		.loc 1 238 0
 338 0064 A258     		ldr	r2, [r4, r2]
 339 0066 46F8082C 		str	r2, [r6, #-8]
 340              		.loc 1 237 0
ARM GAS  /tmp/ccoawyZT.s 			page 7


 341 006a 0A18     		adds	r2, r1, r0
 342 006c 0832     		adds	r2, r2, #8
 343 006e 46F8042C 		str	r2, [r6, #-4]
 344              		.loc 1 240 0
 345 0072 5A68     		ldr	r2, [r3, #4]
 346 0074 02F10801 		add	r1, r2, #8
 347 0078 1944     		add	r1, r1, r3
 348 007a 8C42     		cmp	r4, r1
 349 007c ECD1     		bne	.L29
 350              	.L37:
 351              		.loc 1 242 0
 352 007e 56F8040C 		ldr	r0, [r6, #-4]
 353              		.loc 1 243 0
 354 0082 56F8081C 		ldr	r1, [r6, #-8]
 355 0086 1960     		str	r1, [r3]
 356              		.loc 1 242 0
 357 0088 0244     		add	r2, r2, r0
 358 008a 0832     		adds	r2, r2, #8
 359 008c 5A60     		str	r2, [r3, #4]
 360              		.loc 1 249 0
 361 008e 3846     		mov	r0, r7
 362              		.loc 1 252 0
 363 0090 BDE8F840 		pop	{r3, r4, r5, r6, r7, lr}
 364              	.LVL37:
 365              		.loc 1 249 0
 366 0094 FFF7FEBF 		b	chMtxUnlock
 367              	.LVL38:
 368              		.cfi_endproc
 369              	.LFE222:
 370              		.size	chHeapFree, .-chHeapFree
 371 0098 AFF30080 		.section	.text.chHeapStatus,"ax",%progbits
 371      AFF30080 
 372              		.align	2
 373              		.p2align 4,,15
 374              		.global	chHeapStatus
 375              		.thumb
 376              		.thumb_func
 377              		.type	chHeapStatus, %function
 378              	chHeapStatus:
 379              	.LFB223:
 380              		.loc 1 267 0
 381              		.cfi_startproc
 382              		@ args = 0, pretend = 0, frame = 0
 383              		@ frame_needed = 0, uses_anonymous_args = 0
 384              	.LVL39:
 385 0000 F8B5     		push	{r3, r4, r5, r6, r7, lr}
 386              		.cfi_def_cfa_offset 24
 387              		.cfi_offset 3, -24
 388              		.cfi_offset 4, -20
 389              		.cfi_offset 5, -16
 390              		.cfi_offset 6, -12
 391              		.cfi_offset 7, -8
 392              		.cfi_offset 14, -4
 393              		.loc 1 272 0
 394 0002 0E4C     		ldr	r4, .L51
 395 0004 0028     		cmp	r0, #0
 396 0006 18BF     		it	ne
ARM GAS  /tmp/ccoawyZT.s 			page 8


 397 0008 0446     		movne	r4, r0
 398              	.LVL40:
 399              		.loc 1 275 0
 400 000a 04F11006 		add	r6, r4, #16
 401 000e 3046     		mov	r0, r6
 402              		.loc 1 267 0
 403 0010 0F46     		mov	r7, r1
 404              		.loc 1 275 0
 405 0012 FFF7FEFF 		bl	chMtxLock
 406              	.LVL41:
 407              		.loc 1 279 0
 408 0016 A368     		ldr	r3, [r4, #8]
 409 0018 6BB1     		cbz	r3, .L44
 410              		.loc 1 276 0
 411 001a 0022     		movs	r2, #0
 412              		.loc 1 277 0
 413 001c 1446     		mov	r4, r2
 414              	.LVL42:
 415              	.L41:
 416              		.loc 1 279 0
 417 001e 28CB     		ldmia	r3, {r3, r5}
 418              		.loc 1 281 0
 419 0020 0134     		adds	r4, r4, #1
 420              	.LVL43:
 421              		.loc 1 280 0
 422 0022 2A44     		add	r2, r2, r5
 423              	.LVL44:
 424              		.loc 1 279 0
 425 0024 002B     		cmp	r3, #0
 426 0026 FAD1     		bne	.L41
 427              	.LVL45:
 428              	.L40:
 429              		.loc 1 284 0
 430 0028 07B1     		cbz	r7, .L42
 431              		.loc 1 285 0
 432 002a 3A60     		str	r2, [r7]
 433              	.L42:
 434              		.loc 1 287 0
 435 002c 3046     		mov	r0, r6
 436 002e FFF7FEFF 		bl	chMtxUnlock
 437              	.LVL46:
 438              		.loc 1 290 0
 439 0032 2046     		mov	r0, r4
 440 0034 F8BD     		pop	{r3, r4, r5, r6, r7, pc}
 441              	.LVL47:
 442              	.L44:
 443              		.loc 1 276 0
 444 0036 1A46     		mov	r2, r3
 445              		.loc 1 277 0
 446 0038 1C46     		mov	r4, r3
 447              	.LVL48:
 448 003a F5E7     		b	.L40
 449              	.L52:
 450              		.align	2
 451              	.L51:
 452 003c 00000000 		.word	.LANCHOR0
 453              		.cfi_endproc
ARM GAS  /tmp/ccoawyZT.s 			page 9


 454              	.LFE223:
 455              		.size	chHeapStatus, .-chHeapStatus
 456              		.section	.bss.default_heap,"aw",%nobits
 457              		.align	3
 458              		.set	.LANCHOR0,. + 0
 459              		.type	default_heap, %object
 460              		.size	default_heap, 32
 461              	default_heap:
 462 0000 00000000 		.space	32
 462      00000000 
 462      00000000 
 462      00000000 
 462      00000000 
 463              		.text
 464              	.Letext0:
 465              		.file 2 "/usr/lib/gcc/arm-none-eabi/4.8/include/stddef.h"
 466              		.file 3 "/usr/include/newlib/machine/_default_types.h"
 467              		.file 4 "/usr/include/newlib/stdint.h"
 468              		.file 5 "ChibiOS_3.0.2/os/rt/ports/ARMCMx/compilers/GCC/chtypes.h"
 469              		.file 6 "ChibiOS_3.0.2/os/rt/include/chsystypes.h"
 470              		.file 7 "ChibiOS_3.0.2/os/rt/include/chschd.h"
 471              		.file 8 "ChibiOS_3.0.2/os/rt/ports/ARMCMx/chcore.h"
 472              		.file 9 "ChibiOS_3.0.2/os/rt/ports/ARMCMx/chcore_v7m.h"
 473              		.file 10 "ChibiOS_3.0.2/os/rt/include/chtm.h"
 474              		.file 11 "ChibiOS_3.0.2/os/rt/include/chsem.h"
 475              		.file 12 "ChibiOS_3.0.2/os/rt/include/chmtx.h"
 476              		.file 13 "ChibiOS_3.0.2/os/rt/include/chmemcore.h"
 477              		.file 14 "ChibiOS_3.0.2/os/rt/include/chheap.h"
 478              		.file 15 "ChibiOS_3.0.2/os/ext/CMSIS/include/core_cm4.h"