ARM GAS  /tmp/cce3Y40E.s 			page 1


   1              		.syntax unified
   2              		.cpu cortex-m4
   3              		.eabi_attribute 27, 3
   4              		.eabi_attribute 28, 1
   5              		.fpu fpv4-sp-d16
   6              		.eabi_attribute 20, 1
   7              		.eabi_attribute 21, 1
   8              		.eabi_attribute 23, 3
   9              		.eabi_attribute 24, 1
  10              		.eabi_attribute 25, 1
  11              		.eabi_attribute 26, 1
  12              		.eabi_attribute 30, 2
  13              		.eabi_attribute 34, 1
  14              		.eabi_attribute 18, 4
  15              		.thumb
  16              		.file	"chmboxes.c"
  17              		.text
  18              	.Ltext0:
  19              		.cfi_sections	.debug_frame
  20              		.section	.text.chMBObjectInit,"ax",%progbits
  21              		.align	2
  22              		.p2align 4,,15
  23              		.global	chMBObjectInit
  24              		.thumb
  25              		.thumb_func
  26              		.type	chMBObjectInit, %function
  27              	chMBObjectInit:
  28              	.LFB219:
  29              		.file 1 "ChibiOS_3.0.2/os/rt/src/chmboxes.c"
  30              		.loc 1 86 0
  31              		.cfi_startproc
  32              		@ args = 0, pretend = 0, frame = 0
  33              		@ frame_needed = 0, uses_anonymous_args = 0
  34              	.LVL0:
  35 0000 10B5     		push	{r4, lr}
  36              		.cfi_def_cfa_offset 8
  37              		.cfi_offset 4, -8
  38              		.cfi_offset 14, -4
  39              		.loc 1 86 0
  40 0002 0B46     		mov	r3, r1
  41              		.loc 1 93 0
  42 0004 01EB8201 		add	r1, r1, r2, lsl #2
  43              	.LVL1:
  44 0008 4160     		str	r1, [r0, #4]
  45              		.loc 1 86 0
  46 000a 0446     		mov	r4, r0
  47              		.loc 1 90 0
  48 000c 0360     		str	r3, [r0]
  49              		.loc 1 91 0
  50 000e C360     		str	r3, [r0, #12]
  51              		.loc 1 92 0
  52 0010 8360     		str	r3, [r0, #8]
  53              		.loc 1 94 0
  54 0012 1146     		mov	r1, r2
  55 0014 1C30     		adds	r0, r0, #28
  56              	.LVL2:
  57 0016 FFF7FEFF 		bl	chSemObjectInit
ARM GAS  /tmp/cce3Y40E.s 			page 2


  58              	.LVL3:
  59              		.loc 1 95 0
  60 001a 04F11000 		add	r0, r4, #16
  61 001e 0021     		movs	r1, #0
  62              		.loc 1 96 0
  63 0020 BDE81040 		pop	{r4, lr}
  64              	.LVL4:
  65              		.loc 1 95 0
  66 0024 FFF7FEBF 		b	chSemObjectInit
  67              	.LVL5:
  68              		.cfi_endproc
  69              	.LFE219:
  70              		.size	chMBObjectInit, .-chMBObjectInit
  71 0028 AFF30080 		.section	.text.chMBResetI,"ax",%progbits
  71      AFF30080 
  72              		.align	2
  73              		.p2align 4,,15
  74              		.global	chMBResetI
  75              		.thumb
  76              		.thumb_func
  77              		.type	chMBResetI, %function
  78              	chMBResetI:
  79              	.LFB221:
  80              		.loc 1 124 0
  81              		.cfi_startproc
  82              		@ args = 0, pretend = 0, frame = 0
  83              		@ frame_needed = 0, uses_anonymous_args = 0
  84              	.LVL6:
  85 0000 10B5     		push	{r4, lr}
  86              		.cfi_def_cfa_offset 8
  87              		.cfi_offset 4, -8
  88              		.cfi_offset 14, -4
  89              		.loc 1 124 0
  90 0002 0446     		mov	r4, r0
  91              		.loc 1 131 0
  92 0004 1C30     		adds	r0, r0, #28
  93              	.LVL7:
  94              		.loc 1 129 0
  95 0006 2368     		ldr	r3, [r4]
  96              		.loc 1 131 0
  97 0008 6168     		ldr	r1, [r4, #4]
  98              		.loc 1 129 0
  99 000a A360     		str	r3, [r4, #8]
 100              		.loc 1 131 0
 101 000c C91A     		subs	r1, r1, r3
 102              		.loc 1 130 0
 103 000e E360     		str	r3, [r4, #12]
 104              		.loc 1 131 0
 105 0010 8910     		asrs	r1, r1, #2
 106 0012 FFF7FEFF 		bl	chSemResetI
 107              	.LVL8:
 108              		.loc 1 132 0
 109 0016 04F11000 		add	r0, r4, #16
 110 001a 0021     		movs	r1, #0
 111              		.loc 1 133 0
 112 001c BDE81040 		pop	{r4, lr}
 113              	.LVL9:
ARM GAS  /tmp/cce3Y40E.s 			page 3


 114              		.loc 1 132 0
 115 0020 FFF7FEBF 		b	chSemResetI
 116              	.LVL10:
 117              		.cfi_endproc
 118              	.LFE221:
 119              		.size	chMBResetI, .-chMBResetI
 120 0024 AFF30080 		.section	.text.chMBReset,"ax",%progbits
 120      AFF30080 
 120      AFF30080 
 121              		.align	2
 122              		.p2align 4,,15
 123              		.global	chMBReset
 124              		.thumb
 125              		.thumb_func
 126              		.type	chMBReset, %function
 127              	chMBReset:
 128              	.LFB220:
 129              		.loc 1 107 0
 130              		.cfi_startproc
 131              		@ args = 0, pretend = 0, frame = 0
 132              		@ frame_needed = 0, uses_anonymous_args = 0
 133              	.LVL11:
 134 0000 08B5     		push	{r3, lr}
 135              		.cfi_def_cfa_offset 8
 136              		.cfi_offset 3, -8
 137              		.cfi_offset 14, -4
 138              	.LBB66:
 139              	.LBB67:
 140              	.LBB68:
 141              	.LBB69:
 142              		.file 2 "ChibiOS_3.0.2/os/ext/CMSIS/include/core_cmFunc.h"
 143              		.loc 2 546 0
 144 0002 2023     		movs	r3, #32
 145              	@ 546 "ChibiOS_3.0.2/os/ext/CMSIS/include/core_cmFunc.h" 1
 146 0004 83F31188 		MSR basepri, r3
 147              	@ 0 "" 2
 148              		.thumb
 149              	.LBE69:
 150              	.LBE68:
 151              	.LBE67:
 152              	.LBE66:
 153              		.loc 1 110 0
 154 0008 FFF7FEFF 		bl	chMBResetI
 155              	.LVL12:
 156              		.loc 1 111 0
 157 000c FFF7FEFF 		bl	chSchRescheduleS
 158              	.LVL13:
 159              	.LBB70:
 160              	.LBB71:
 161              	.LBB72:
 162              	.LBB73:
 163              	.LBB74:
 164              		.loc 2 546 0
 165 0010 0023     		movs	r3, #0
 166              	@ 546 "ChibiOS_3.0.2/os/ext/CMSIS/include/core_cmFunc.h" 1
 167 0012 83F31188 		MSR basepri, r3
 168              	@ 0 "" 2
ARM GAS  /tmp/cce3Y40E.s 			page 4


 169              		.thumb
 170 0016 08BD     		pop	{r3, pc}
 171              	.LBE74:
 172              	.LBE73:
 173              	.LBE72:
 174              	.LBE71:
 175              	.LBE70:
 176              		.cfi_endproc
 177              	.LFE220:
 178              		.size	chMBReset, .-chMBReset
 179 0018 AFF30080 		.section	.text.chMBPostS,"ax",%progbits
 179      AFF30080 
 180              		.align	2
 181              		.p2align 4,,15
 182              		.global	chMBPostS
 183              		.thumb
 184              		.thumb_func
 185              		.type	chMBPostS, %function
 186              	chMBPostS:
 187              	.LFB223:
 188              		.loc 1 183 0
 189              		.cfi_startproc
 190              		@ args = 0, pretend = 0, frame = 0
 191              		@ frame_needed = 0, uses_anonymous_args = 0
 192              	.LVL14:
 193 0000 70B5     		push	{r4, r5, r6, lr}
 194              		.cfi_def_cfa_offset 16
 195              		.cfi_offset 4, -16
 196              		.cfi_offset 5, -12
 197              		.cfi_offset 6, -8
 198              		.cfi_offset 14, -4
 199              		.loc 1 183 0
 200 0002 0446     		mov	r4, r0
 201 0004 0E46     		mov	r6, r1
 202              		.loc 1 189 0
 203 0006 1C30     		adds	r0, r0, #28
 204              	.LVL15:
 205 0008 1146     		mov	r1, r2
 206              	.LVL16:
 207 000a FFF7FEFF 		bl	chSemWaitTimeoutS
 208              	.LVL17:
 209              		.loc 1 190 0
 210 000e 0546     		mov	r5, r0
 211 0010 78B9     		cbnz	r0, .L5
 212              		.loc 1 191 0
 213 0012 A268     		ldr	r2, [r4, #8]
 214              		.loc 1 192 0
 215 0014 6168     		ldr	r1, [r4, #4]
 216              		.loc 1 191 0
 217 0016 131D     		adds	r3, r2, #4
 218              		.loc 1 192 0
 219 0018 8B42     		cmp	r3, r1
 220              		.loc 1 191 0
 221 001a A360     		str	r3, [r4, #8]
 222              		.loc 1 193 0
 223 001c 28BF     		it	cs
 224 001e 2368     		ldrcs	r3, [r4]
ARM GAS  /tmp/cce3Y40E.s 			page 5


 225              		.loc 1 191 0
 226 0020 1660     		str	r6, [r2]
 227              		.loc 1 195 0
 228 0022 04F11000 		add	r0, r4, #16
 229              	.LVL18:
 230              		.loc 1 193 0
 231 0026 28BF     		it	cs
 232 0028 A360     		strcs	r3, [r4, #8]
 233              		.loc 1 195 0
 234 002a FFF7FEFF 		bl	chSemSignalI
 235              	.LVL19:
 236              		.loc 1 196 0
 237 002e FFF7FEFF 		bl	chSchRescheduleS
 238              	.LVL20:
 239              	.L5:
 240              		.loc 1 200 0
 241 0032 2846     		mov	r0, r5
 242 0034 70BD     		pop	{r4, r5, r6, pc}
 243              		.cfi_endproc
 244              	.LFE223:
 245              		.size	chMBPostS, .-chMBPostS
 246 0036 00BFAFF3 		.section	.text.chMBPost,"ax",%progbits
 246      0080AFF3 
 246      0080
 247              		.align	2
 248              		.p2align 4,,15
 249              		.global	chMBPost
 250              		.thumb
 251              		.thumb_func
 252              		.type	chMBPost, %function
 253              	chMBPost:
 254              	.LFB222:
 255              		.loc 1 154 0
 256              		.cfi_startproc
 257              		@ args = 0, pretend = 0, frame = 0
 258              		@ frame_needed = 0, uses_anonymous_args = 0
 259              	.LVL21:
 260 0000 08B5     		push	{r3, lr}
 261              		.cfi_def_cfa_offset 8
 262              		.cfi_offset 3, -8
 263              		.cfi_offset 14, -4
 264              	.LBB75:
 265              	.LBB76:
 266              	.LBB77:
 267              	.LBB78:
 268              		.loc 2 546 0
 269 0002 2023     		movs	r3, #32
 270              	@ 546 "ChibiOS_3.0.2/os/ext/CMSIS/include/core_cmFunc.h" 1
 271 0004 83F31188 		MSR basepri, r3
 272              	@ 0 "" 2
 273              		.thumb
 274              	.LBE78:
 275              	.LBE77:
 276              	.LBE76:
 277              	.LBE75:
 278              		.loc 1 158 0
 279 0008 FFF7FEFF 		bl	chMBPostS
ARM GAS  /tmp/cce3Y40E.s 			page 6


 280              	.LVL22:
 281              	.LBB79:
 282              	.LBB80:
 283              	.LBB81:
 284              	.LBB82:
 285              	.LBB83:
 286              		.loc 2 546 0
 287 000c 0023     		movs	r3, #0
 288              	@ 546 "ChibiOS_3.0.2/os/ext/CMSIS/include/core_cmFunc.h" 1
 289 000e 83F31188 		MSR basepri, r3
 290              	@ 0 "" 2
 291              		.thumb
 292              	.LBE83:
 293              	.LBE82:
 294              	.LBE81:
 295              	.LBE80:
 296              	.LBE79:
 297              		.loc 1 162 0
 298 0012 08BD     		pop	{r3, pc}
 299              		.cfi_endproc
 300              	.LFE222:
 301              		.size	chMBPost, .-chMBPost
 302 0014 AFF30080 		.section	.text.chMBPostI,"ax",%progbits
 302      AFF30080 
 302      AFF30080 
 303              		.align	2
 304              		.p2align 4,,15
 305              		.global	chMBPostI
 306              		.thumb
 307              		.thumb_func
 308              		.type	chMBPostI, %function
 309              	chMBPostI:
 310              	.LFB224:
 311              		.loc 1 216 0
 312              		.cfi_startproc
 313              		@ args = 0, pretend = 0, frame = 0
 314              		@ frame_needed = 0, uses_anonymous_args = 0
 315              	.LVL23:
 316 0000 38B5     		push	{r3, r4, r5, lr}
 317              		.cfi_def_cfa_offset 16
 318              		.cfi_offset 3, -16
 319              		.cfi_offset 4, -12
 320              		.cfi_offset 5, -8
 321              		.cfi_offset 14, -4
 322              		.loc 1 221 0
 323 0002 436A     		ldr	r3, [r0, #36]
 324              	.LVL24:
 325 0004 002B     		cmp	r3, #0
 326 0006 12DD     		ble	.L12
 327              	.LVL25:
 328              		.loc 1 226 0
 329 0008 8468     		ldr	r4, [r0, #8]
 330              		.loc 1 227 0
 331 000a 4568     		ldr	r5, [r0, #4]
 332              		.loc 1 226 0
 333 000c 221D     		adds	r2, r4, #4
 334              	.LBB84:
ARM GAS  /tmp/cce3Y40E.s 			page 7


 335              	.LBB85:
 336              		.file 3 "ChibiOS_3.0.2/os/rt/include/chsem.h"
 337              		.loc 3 122 0
 338 000e 013B     		subs	r3, r3, #1
 339              	.LBE85:
 340              	.LBE84:
 341              		.loc 1 227 0
 342 0010 AA42     		cmp	r2, r5
 343              	.LBB87:
 344              	.LBB86:
 345              		.loc 3 122 0
 346 0012 4362     		str	r3, [r0, #36]
 347              	.LBE86:
 348              	.LBE87:
 349              		.loc 1 228 0
 350 0014 28BF     		it	cs
 351 0016 0368     		ldrcs	r3, [r0]
 352              		.loc 1 226 0
 353 0018 8260     		str	r2, [r0, #8]
 354 001a 2160     		str	r1, [r4]
 355              		.loc 1 230 0
 356 001c 00F11000 		add	r0, r0, #16
 357              	.LVL26:
 358              		.loc 1 228 0
 359 0020 28BF     		it	cs
 360 0022 40F8083C 		strcs	r3, [r0, #-8]
 361              		.loc 1 230 0
 362 0026 FFF7FEFF 		bl	chSemSignalI
 363              	.LVL27:
 364              		.loc 1 232 0
 365 002a 0020     		movs	r0, #0
 366 002c 38BD     		pop	{r3, r4, r5, pc}
 367              	.LVL28:
 368              	.L12:
 369              		.loc 1 222 0
 370 002e 4FF0FF30 		mov	r0, #-1
 371              	.LVL29:
 372              		.loc 1 233 0
 373 0032 38BD     		pop	{r3, r4, r5, pc}
 374              		.cfi_endproc
 375              	.LFE224:
 376              		.size	chMBPostI, .-chMBPostI
 377 0034 AFF30080 		.section	.text.chMBPostAheadS,"ax",%progbits
 377      AFF30080 
 377      AFF30080 
 378              		.align	2
 379              		.p2align 4,,15
 380              		.global	chMBPostAheadS
 381              		.thumb
 382              		.thumb_func
 383              		.type	chMBPostAheadS, %function
 384              	chMBPostAheadS:
 385              	.LFB226:
 386              		.loc 1 283 0
 387              		.cfi_startproc
 388              		@ args = 0, pretend = 0, frame = 0
 389              		@ frame_needed = 0, uses_anonymous_args = 0
ARM GAS  /tmp/cce3Y40E.s 			page 8


 390              	.LVL30:
 391 0000 70B5     		push	{r4, r5, r6, lr}
 392              		.cfi_def_cfa_offset 16
 393              		.cfi_offset 4, -16
 394              		.cfi_offset 5, -12
 395              		.cfi_offset 6, -8
 396              		.cfi_offset 14, -4
 397              		.loc 1 283 0
 398 0002 0446     		mov	r4, r0
 399 0004 0E46     		mov	r6, r1
 400              		.loc 1 289 0
 401 0006 1C30     		adds	r0, r0, #28
 402              	.LVL31:
 403 0008 1146     		mov	r1, r2
 404              	.LVL32:
 405 000a FFF7FEFF 		bl	chSemWaitTimeoutS
 406              	.LVL33:
 407              		.loc 1 290 0
 408 000e 0546     		mov	r5, r0
 409 0010 60B9     		cbnz	r0, .L14
 410              		.loc 1 291 0
 411 0012 E368     		ldr	r3, [r4, #12]
 412 0014 2268     		ldr	r2, [r4]
 413 0016 043B     		subs	r3, r3, #4
 414 0018 9342     		cmp	r3, r2
 415 001a E360     		str	r3, [r4, #12]
 416 001c 08D3     		bcc	.L16
 417              	.L15:
 418              		.loc 1 294 0
 419 001e 1E60     		str	r6, [r3]
 420              		.loc 1 295 0
 421 0020 04F11000 		add	r0, r4, #16
 422              	.LVL34:
 423 0024 FFF7FEFF 		bl	chSemSignalI
 424              	.LVL35:
 425              		.loc 1 296 0
 426 0028 FFF7FEFF 		bl	chSchRescheduleS
 427              	.LVL36:
 428              	.L14:
 429              		.loc 1 300 0
 430 002c 2846     		mov	r0, r5
 431 002e 70BD     		pop	{r4, r5, r6, pc}
 432              	.LVL37:
 433              	.L16:
 434              		.loc 1 292 0
 435 0030 6368     		ldr	r3, [r4, #4]
 436 0032 043B     		subs	r3, r3, #4
 437 0034 E360     		str	r3, [r4, #12]
 438 0036 F2E7     		b	.L15
 439              		.cfi_endproc
 440              	.LFE226:
 441              		.size	chMBPostAheadS, .-chMBPostAheadS
 442 0038 AFF30080 		.section	.text.chMBPostAhead,"ax",%progbits
 442      AFF30080 
 443              		.align	2
 444              		.p2align 4,,15
 445              		.global	chMBPostAhead
ARM GAS  /tmp/cce3Y40E.s 			page 9


 446              		.thumb
 447              		.thumb_func
 448              		.type	chMBPostAhead, %function
 449              	chMBPostAhead:
 450              	.LFB225:
 451              		.loc 1 254 0
 452              		.cfi_startproc
 453              		@ args = 0, pretend = 0, frame = 0
 454              		@ frame_needed = 0, uses_anonymous_args = 0
 455              	.LVL38:
 456 0000 08B5     		push	{r3, lr}
 457              		.cfi_def_cfa_offset 8
 458              		.cfi_offset 3, -8
 459              		.cfi_offset 14, -4
 460              	.LBB88:
 461              	.LBB89:
 462              	.LBB90:
 463              	.LBB91:
 464              		.loc 2 546 0
 465 0002 2023     		movs	r3, #32
 466              	@ 546 "ChibiOS_3.0.2/os/ext/CMSIS/include/core_cmFunc.h" 1
 467 0004 83F31188 		MSR basepri, r3
 468              	@ 0 "" 2
 469              		.thumb
 470              	.LBE91:
 471              	.LBE90:
 472              	.LBE89:
 473              	.LBE88:
 474              		.loc 1 258 0
 475 0008 FFF7FEFF 		bl	chMBPostAheadS
 476              	.LVL39:
 477              	.LBB92:
 478              	.LBB93:
 479              	.LBB94:
 480              	.LBB95:
 481              	.LBB96:
 482              		.loc 2 546 0
 483 000c 0023     		movs	r3, #0
 484              	@ 546 "ChibiOS_3.0.2/os/ext/CMSIS/include/core_cmFunc.h" 1
 485 000e 83F31188 		MSR basepri, r3
 486              	@ 0 "" 2
 487              		.thumb
 488              	.LBE96:
 489              	.LBE95:
 490              	.LBE94:
 491              	.LBE93:
 492              	.LBE92:
 493              		.loc 1 262 0
 494 0012 08BD     		pop	{r3, pc}
 495              		.cfi_endproc
 496              	.LFE225:
 497              		.size	chMBPostAhead, .-chMBPostAhead
 498 0014 AFF30080 		.section	.text.chMBPostAheadI,"ax",%progbits
 498      AFF30080 
 498      AFF30080 
 499              		.align	2
 500              		.p2align 4,,15
ARM GAS  /tmp/cce3Y40E.s 			page 10


 501              		.global	chMBPostAheadI
 502              		.thumb
 503              		.thumb_func
 504              		.type	chMBPostAheadI, %function
 505              	chMBPostAheadI:
 506              	.LFB227:
 507              		.loc 1 316 0
 508              		.cfi_startproc
 509              		@ args = 0, pretend = 0, frame = 0
 510              		@ frame_needed = 0, uses_anonymous_args = 0
 511              	.LVL40:
 512              		.loc 1 321 0
 513 0000 426A     		ldr	r2, [r0, #36]
 514              	.LVL41:
 515 0002 002A     		cmp	r2, #0
 516              		.loc 1 316 0
 517 0004 10B5     		push	{r4, lr}
 518              		.cfi_def_cfa_offset 8
 519              		.cfi_offset 4, -8
 520              		.cfi_offset 14, -4
 521              		.loc 1 321 0
 522 0006 10DD     		ble	.L21
 523              	.LVL42:
 524              		.loc 1 325 0
 525 0008 C368     		ldr	r3, [r0, #12]
 526 000a 0468     		ldr	r4, [r0]
 527 000c 043B     		subs	r3, r3, #4
 528              	.LBB97:
 529              	.LBB98:
 530              		.loc 3 122 0
 531 000e 013A     		subs	r2, r2, #1
 532              	.LBE98:
 533              	.LBE97:
 534              		.loc 1 325 0
 535 0010 A342     		cmp	r3, r4
 536              	.LBB100:
 537              	.LBB99:
 538              		.loc 3 122 0
 539 0012 4262     		str	r2, [r0, #36]
 540              	.LBE99:
 541              	.LBE100:
 542              		.loc 1 325 0
 543 0014 C360     		str	r3, [r0, #12]
 544 0016 02D2     		bcs	.L20
 545              		.loc 1 326 0
 546 0018 4368     		ldr	r3, [r0, #4]
 547 001a 043B     		subs	r3, r3, #4
 548 001c C360     		str	r3, [r0, #12]
 549              	.L20:
 550              		.loc 1 328 0
 551 001e 1960     		str	r1, [r3]
 552              		.loc 1 329 0
 553 0020 1030     		adds	r0, r0, #16
 554              	.LVL43:
 555 0022 FFF7FEFF 		bl	chSemSignalI
 556              	.LVL44:
 557              		.loc 1 331 0
ARM GAS  /tmp/cce3Y40E.s 			page 11


 558 0026 0020     		movs	r0, #0
 559 0028 10BD     		pop	{r4, pc}
 560              	.LVL45:
 561              	.L21:
 562              		.loc 1 322 0
 563 002a 4FF0FF30 		mov	r0, #-1
 564              	.LVL46:
 565              		.loc 1 332 0
 566 002e 10BD     		pop	{r4, pc}
 567              		.cfi_endproc
 568              	.LFE227:
 569              		.size	chMBPostAheadI, .-chMBPostAheadI
 570              		.section	.text.chMBFetchS,"ax",%progbits
 571              		.align	2
 572              		.p2align 4,,15
 573              		.global	chMBFetchS
 574              		.thumb
 575              		.thumb_func
 576              		.type	chMBFetchS, %function
 577              	chMBFetchS:
 578              	.LFB229:
 579              		.loc 1 382 0
 580              		.cfi_startproc
 581              		@ args = 0, pretend = 0, frame = 0
 582              		@ frame_needed = 0, uses_anonymous_args = 0
 583              	.LVL47:
 584 0000 70B5     		push	{r4, r5, r6, lr}
 585              		.cfi_def_cfa_offset 16
 586              		.cfi_offset 4, -16
 587              		.cfi_offset 5, -12
 588              		.cfi_offset 6, -8
 589              		.cfi_offset 14, -4
 590              		.loc 1 382 0
 591 0002 0446     		mov	r4, r0
 592 0004 0E46     		mov	r6, r1
 593              		.loc 1 388 0
 594 0006 1030     		adds	r0, r0, #16
 595              	.LVL48:
 596 0008 1146     		mov	r1, r2
 597              	.LVL49:
 598 000a FFF7FEFF 		bl	chSemWaitTimeoutS
 599              	.LVL50:
 600              		.loc 1 389 0
 601 000e 0546     		mov	r5, r0
 602 0010 80B9     		cbnz	r0, .L23
 603              		.loc 1 390 0
 604 0012 E368     		ldr	r3, [r4, #12]
 605              		.loc 1 391 0
 606 0014 6268     		ldr	r2, [r4, #4]
 607              		.loc 1 390 0
 608 0016 1968     		ldr	r1, [r3]
 609 0018 0433     		adds	r3, r3, #4
 610              		.loc 1 391 0
 611 001a 9342     		cmp	r3, r2
 612              		.loc 1 390 0
 613 001c E360     		str	r3, [r4, #12]
 614              		.loc 1 392 0
ARM GAS  /tmp/cce3Y40E.s 			page 12


 615 001e 28BF     		it	cs
 616 0020 2368     		ldrcs	r3, [r4]
 617              		.loc 1 390 0
 618 0022 3160     		str	r1, [r6]
 619              		.loc 1 394 0
 620 0024 04F11C00 		add	r0, r4, #28
 621              	.LVL51:
 622              		.loc 1 392 0
 623 0028 28BF     		it	cs
 624 002a E360     		strcs	r3, [r4, #12]
 625              		.loc 1 394 0
 626 002c FFF7FEFF 		bl	chSemSignalI
 627              	.LVL52:
 628              		.loc 1 395 0
 629 0030 FFF7FEFF 		bl	chSchRescheduleS
 630              	.LVL53:
 631              	.L23:
 632              		.loc 1 399 0
 633 0034 2846     		mov	r0, r5
 634 0036 70BD     		pop	{r4, r5, r6, pc}
 635              		.cfi_endproc
 636              	.LFE229:
 637              		.size	chMBFetchS, .-chMBFetchS
 638 0038 AFF30080 		.section	.text.chMBFetch,"ax",%progbits
 638      AFF30080 
 639              		.align	2
 640              		.p2align 4,,15
 641              		.global	chMBFetch
 642              		.thumb
 643              		.thumb_func
 644              		.type	chMBFetch, %function
 645              	chMBFetch:
 646              	.LFB228:
 647              		.loc 1 353 0
 648              		.cfi_startproc
 649              		@ args = 0, pretend = 0, frame = 0
 650              		@ frame_needed = 0, uses_anonymous_args = 0
 651              	.LVL54:
 652 0000 08B5     		push	{r3, lr}
 653              		.cfi_def_cfa_offset 8
 654              		.cfi_offset 3, -8
 655              		.cfi_offset 14, -4
 656              	.LBB101:
 657              	.LBB102:
 658              	.LBB103:
 659              	.LBB104:
 660              		.loc 2 546 0
 661 0002 2023     		movs	r3, #32
 662              	@ 546 "ChibiOS_3.0.2/os/ext/CMSIS/include/core_cmFunc.h" 1
 663 0004 83F31188 		MSR basepri, r3
 664              	@ 0 "" 2
 665              		.thumb
 666              	.LBE104:
 667              	.LBE103:
 668              	.LBE102:
 669              	.LBE101:
 670              		.loc 1 357 0
ARM GAS  /tmp/cce3Y40E.s 			page 13


 671 0008 FFF7FEFF 		bl	chMBFetchS
 672              	.LVL55:
 673              	.LBB105:
 674              	.LBB106:
 675              	.LBB107:
 676              	.LBB108:
 677              	.LBB109:
 678              		.loc 2 546 0
 679 000c 0023     		movs	r3, #0
 680              	@ 546 "ChibiOS_3.0.2/os/ext/CMSIS/include/core_cmFunc.h" 1
 681 000e 83F31188 		MSR basepri, r3
 682              	@ 0 "" 2
 683              		.thumb
 684              	.LBE109:
 685              	.LBE108:
 686              	.LBE107:
 687              	.LBE106:
 688              	.LBE105:
 689              		.loc 1 361 0
 690 0012 08BD     		pop	{r3, pc}
 691              		.cfi_endproc
 692              	.LFE228:
 693              		.size	chMBFetch, .-chMBFetch
 694 0014 AFF30080 		.section	.text.chMBFetchI,"ax",%progbits
 694      AFF30080 
 694      AFF30080 
 695              		.align	2
 696              		.p2align 4,,15
 697              		.global	chMBFetchI
 698              		.thumb
 699              		.thumb_func
 700              		.type	chMBFetchI, %function
 701              	chMBFetchI:
 702              	.LFB230:
 703              		.loc 1 415 0
 704              		.cfi_startproc
 705              		@ args = 0, pretend = 0, frame = 0
 706              		@ frame_needed = 0, uses_anonymous_args = 0
 707              	.LVL56:
 708              		.loc 1 420 0
 709 0000 8369     		ldr	r3, [r0, #24]
 710              	.LVL57:
 711 0002 002B     		cmp	r3, #0
 712              		.loc 1 415 0
 713 0004 10B5     		push	{r4, lr}
 714              		.cfi_def_cfa_offset 8
 715              		.cfi_offset 4, -8
 716              		.cfi_offset 14, -4
 717              		.loc 1 420 0
 718 0006 13DD     		ble	.L29
 719              	.LVL58:
 720              	.LBB110:
 721              	.LBB111:
 722              		.loc 3 122 0
 723 0008 5A1E     		subs	r2, r3, #1
 724              	.LBE111:
 725              	.LBE110:
ARM GAS  /tmp/cce3Y40E.s 			page 14


 726              		.loc 1 424 0
 727 000a C368     		ldr	r3, [r0, #12]
 728              	.LBB113:
 729              	.LBB112:
 730              		.loc 3 122 0
 731 000c 8261     		str	r2, [r0, #24]
 732              	.LBE112:
 733              	.LBE113:
 734              		.loc 1 425 0
 735 000e 4268     		ldr	r2, [r0, #4]
 736              		.loc 1 424 0
 737 0010 1C68     		ldr	r4, [r3]
 738 0012 0433     		adds	r3, r3, #4
 739              		.loc 1 425 0
 740 0014 9342     		cmp	r3, r2
 741              		.loc 1 424 0
 742 0016 C360     		str	r3, [r0, #12]
 743              		.loc 1 426 0
 744 0018 28BF     		it	cs
 745 001a 0368     		ldrcs	r3, [r0]
 746              		.loc 1 424 0
 747 001c 0C60     		str	r4, [r1]
 748              		.loc 1 428 0
 749 001e 00F11C00 		add	r0, r0, #28
 750              	.LVL59:
 751              		.loc 1 426 0
 752 0022 28BF     		it	cs
 753 0024 40F8103C 		strcs	r3, [r0, #-16]
 754              		.loc 1 428 0
 755 0028 FFF7FEFF 		bl	chSemSignalI
 756              	.LVL60:
 757              		.loc 1 430 0
 758 002c 0020     		movs	r0, #0
 759 002e 10BD     		pop	{r4, pc}
 760              	.LVL61:
 761              	.L29:
 762              		.loc 1 421 0
 763 0030 4FF0FF30 		mov	r0, #-1
 764              	.LVL62:
 765              		.loc 1 431 0
 766 0034 10BD     		pop	{r4, pc}
 767              		.cfi_endproc
 768              	.LFE230:
 769              		.size	chMBFetchI, .-chMBFetchI
 770 0036 00BFAFF3 		.text
 770      0080AFF3 
 770      0080
 771              	.Letext0:
 772              		.file 4 "/usr/include/newlib/machine/_default_types.h"
 773              		.file 5 "/usr/include/newlib/stdint.h"
 774              		.file 6 "ChibiOS_3.0.2/os/rt/ports/ARMCMx/compilers/GCC/chtypes.h"
 775              		.file 7 "ChibiOS_3.0.2/os/rt/include/chsystypes.h"
 776              		.file 8 "ChibiOS_3.0.2/os/rt/include/chschd.h"
 777              		.file 9 "ChibiOS_3.0.2/os/rt/ports/ARMCMx/chcore.h"
 778              		.file 10 "ChibiOS_3.0.2/os/rt/ports/ARMCMx/chcore_v7m.h"
 779              		.file 11 "ChibiOS_3.0.2/os/rt/include/chtm.h"
 780              		.file 12 "ChibiOS_3.0.2/os/rt/include/chmtx.h"
ARM GAS  /tmp/cce3Y40E.s 			page 15


 781              		.file 13 "ChibiOS_3.0.2/os/rt/include/chmboxes.h"
 782              		.file 14 "ChibiOS_3.0.2/os/rt/include/chsys.h"
 783              		.file 15 "ChibiOS_3.0.2/os/ext/CMSIS/include/core_cm4.h"