ARM GAS  /tmp/ccs4Npr2.s 			page 1


   1              		.syntax unified
   2              		.cpu cortex-m4
   3              		.eabi_attribute 27, 3
   4              		.eabi_attribute 28, 1
   5              		.fpu fpv4-sp-d16
   6              		.eabi_attribute 20, 1
   7              		.eabi_attribute 21, 1
   8              		.eabi_attribute 23, 3
   9              		.eabi_attribute 24, 1
  10              		.eabi_attribute 25, 1
  11              		.eabi_attribute 26, 1
  12              		.eabi_attribute 30, 2
  13              		.eabi_attribute 34, 1
  14              		.eabi_attribute 18, 4
  15              		.thumb
  16              		.file	"chmempools.c"
  17              		.text
  18              	.Ltext0:
  19              		.cfi_sections	.debug_frame
  20              		.section	.text.chPoolObjectInit,"ax",%progbits
  21              		.align	2
  22              		.p2align 4,,15
  23              		.global	chPoolObjectInit
  24              		.thumb
  25              		.thumb_func
  26              		.type	chPoolObjectInit, %function
  27              	chPoolObjectInit:
  28              	.LFB219:
  29              		.file 1 "ChibiOS_3.0.2/os/rt/src/chmempools.c"
  30              		.loc 1 75 0
  31              		.cfi_startproc
  32              		@ args = 0, pretend = 0, frame = 0
  33              		@ frame_needed = 0, uses_anonymous_args = 0
  34              		@ link register save eliminated.
  35              	.LVL0:
  36              		.loc 1 79 0
  37 0000 0023     		movs	r3, #0
  38              		.loc 1 80 0
  39 0002 4160     		str	r1, [r0, #4]
  40              		.loc 1 81 0
  41 0004 8260     		str	r2, [r0, #8]
  42              		.loc 1 79 0
  43 0006 0360     		str	r3, [r0]
  44 0008 7047     		bx	lr
  45              		.cfi_endproc
  46              	.LFE219:
  47              		.size	chPoolObjectInit, .-chPoolObjectInit
  48 000a 00BFAFF3 		.section	.text.chPoolLoadArray,"ax",%progbits
  48      0080
  49              		.align	2
  50              		.p2align 4,,15
  51              		.global	chPoolLoadArray
  52              		.thumb
  53              		.thumb_func
  54              		.type	chPoolLoadArray, %function
  55              	chPoolLoadArray:
  56              	.LFB220:
ARM GAS  /tmp/ccs4Npr2.s 			page 2


  57              		.loc 1 97 0
  58              		.cfi_startproc
  59              		@ args = 0, pretend = 0, frame = 0
  60              		@ frame_needed = 0, uses_anonymous_args = 0
  61              		@ link register save eliminated.
  62              	.LVL1:
  63 0000 30B4     		push	{r4, r5}
  64              		.cfi_def_cfa_offset 8
  65              		.cfi_offset 4, -8
  66              		.cfi_offset 5, -4
  67              		.loc 1 101 0
  68 0002 62B1     		cbz	r2, .L2
  69              	.LBB77:
  70              	.LBB78:
  71              	.LBB79:
  72              	.LBB80:
  73              	.LBB81:
  74              	.LBB82:
  75              		.file 2 "ChibiOS_3.0.2/os/ext/CMSIS/include/core_cmFunc.h"
  76              		.loc 2 546 0
  77 0004 2025     		movs	r5, #32
  78              	.LBE82:
  79              	.LBE81:
  80              	.LBE80:
  81              	.LBE79:
  82              	.LBB86:
  83              	.LBB87:
  84              	.LBB88:
  85              	.LBB89:
  86              	.LBB90:
  87 0006 0024     		movs	r4, #0
  88              	.LVL2:
  89              	.L5:
  90              	.LBE90:
  91              	.LBE89:
  92              	.LBE88:
  93              	.LBE87:
  94              	.LBE86:
  95              	.LBB95:
  96              	.LBB85:
  97              	.LBB84:
  98              	.LBB83:
  99              	@ 546 "ChibiOS_3.0.2/os/ext/CMSIS/include/core_cmFunc.h" 1
 100 0008 85F31188 		MSR basepri, r5
 101              	@ 0 "" 2
 102              	.LVL3:
 103              		.thumb
 104              	.LBE83:
 105              	.LBE84:
 106              	.LBE85:
 107              	.LBE95:
 108              	.LBB96:
 109              	.LBB97:
 110              		.loc 1 177 0
 111 000c 0368     		ldr	r3, [r0]
 112 000e 0B60     		str	r3, [r1]
 113              		.loc 1 178 0
ARM GAS  /tmp/ccs4Npr2.s 			page 3


 114 0010 0160     		str	r1, [r0]
 115              	.LVL4:
 116              	.LBE97:
 117              	.LBE96:
 118              	.LBB98:
 119              	.LBB94:
 120              	.LBB93:
 121              	.LBB92:
 122              	.LBB91:
 123              		.loc 2 546 0
 124              	@ 546 "ChibiOS_3.0.2/os/ext/CMSIS/include/core_cmFunc.h" 1
 125 0012 84F31188 		MSR basepri, r4
 126              	@ 0 "" 2
 127              		.thumb
 128              	.LBE91:
 129              	.LBE92:
 130              	.LBE93:
 131              	.LBE94:
 132              	.LBE98:
 133              	.LBE78:
 134              	.LBE77:
 135              		.loc 1 104 0
 136 0016 4368     		ldr	r3, [r0, #4]
 137              		.loc 1 101 0
 138 0018 013A     		subs	r2, r2, #1
 139              	.LVL5:
 140              		.loc 1 104 0
 141 001a 1944     		add	r1, r1, r3
 142              	.LVL6:
 143              		.loc 1 101 0
 144 001c F4D1     		bne	.L5
 145              	.LVL7:
 146              	.L2:
 147              		.loc 1 108 0
 148 001e 30BC     		pop	{r4, r5}
 149 0020 7047     		bx	lr
 150              		.cfi_endproc
 151              	.LFE220:
 152              		.size	chPoolLoadArray, .-chPoolLoadArray
 153 0022 00BFAFF3 		.section	.text.chPoolAllocI,"ax",%progbits
 153      0080AFF3 
 153      0080AFF3 
 153      0080
 154              		.align	2
 155              		.p2align 4,,15
 156              		.global	chPoolAllocI
 157              		.thumb
 158              		.thumb_func
 159              		.type	chPoolAllocI, %function
 160              	chPoolAllocI:
 161              	.LFB221:
 162              		.loc 1 120 0
 163              		.cfi_startproc
 164              		@ args = 0, pretend = 0, frame = 0
 165              		@ frame_needed = 0, uses_anonymous_args = 0
 166              	.LVL8:
 167 0000 08B5     		push	{r3, lr}
ARM GAS  /tmp/ccs4Npr2.s 			page 4


 168              		.cfi_def_cfa_offset 8
 169              		.cfi_offset 3, -8
 170              		.cfi_offset 14, -4
 171              		.loc 1 120 0
 172 0002 0346     		mov	r3, r0
 173              		.loc 1 126 0
 174 0004 0068     		ldr	r0, [r0]
 175              	.LVL9:
 176              		.loc 1 128 0
 177 0006 10B1     		cbz	r0, .L12
 178              		.loc 1 129 0
 179 0008 0268     		ldr	r2, [r0]
 180 000a 1A60     		str	r2, [r3]
 181 000c 08BD     		pop	{r3, pc}
 182              	.LVL10:
 183              	.L12:
 184              		.loc 1 131 0
 185 000e 9A68     		ldr	r2, [r3, #8]
 186 0010 0AB1     		cbz	r2, .L13
 187              		.loc 1 132 0
 188 0012 5868     		ldr	r0, [r3, #4]
 189              	.LVL11:
 190 0014 9047     		blx	r2
 191              	.LVL12:
 192              	.L13:
 193              		.loc 1 137 0
 194 0016 08BD     		pop	{r3, pc}
 195              		.cfi_endproc
 196              	.LFE221:
 197              		.size	chPoolAllocI, .-chPoolAllocI
 198 0018 AFF30080 		.section	.text.chPoolAlloc,"ax",%progbits
 198      AFF30080 
 199              		.align	2
 200              		.p2align 4,,15
 201              		.global	chPoolAlloc
 202              		.thumb
 203              		.thumb_func
 204              		.type	chPoolAlloc, %function
 205              	chPoolAlloc:
 206              	.LFB222:
 207              		.loc 1 149 0
 208              		.cfi_startproc
 209              		@ args = 0, pretend = 0, frame = 0
 210              		@ frame_needed = 0, uses_anonymous_args = 0
 211              	.LVL13:
 212 0000 08B5     		push	{r3, lr}
 213              		.cfi_def_cfa_offset 8
 214              		.cfi_offset 3, -8
 215              		.cfi_offset 14, -4
 216              	.LBB99:
 217              	.LBB100:
 218              	.LBB101:
 219              	.LBB102:
 220              		.loc 2 546 0
 221 0002 2022     		movs	r2, #32
 222              	.LBE102:
 223              	.LBE101:
ARM GAS  /tmp/ccs4Npr2.s 			page 5


 224              	.LBE100:
 225              	.LBE99:
 226              		.loc 1 149 0
 227 0004 0346     		mov	r3, r0
 228              	.LBB106:
 229              	.LBB105:
 230              	.LBB104:
 231              	.LBB103:
 232              		.loc 2 546 0
 233              	@ 546 "ChibiOS_3.0.2/os/ext/CMSIS/include/core_cmFunc.h" 1
 234 0006 82F31188 		MSR basepri, r2
 235              	@ 0 "" 2
 236              	.LVL14:
 237              		.thumb
 238              	.LBE103:
 239              	.LBE104:
 240              	.LBE105:
 241              	.LBE106:
 242              	.LBB107:
 243              	.LBB108:
 244              		.loc 1 126 0
 245 000a 0068     		ldr	r0, [r0]
 246              	.LVL15:
 247              		.loc 1 128 0
 248 000c 28B1     		cbz	r0, .L18
 249              		.loc 1 129 0
 250 000e 0268     		ldr	r2, [r0]
 251 0010 1A60     		str	r2, [r3]
 252              	.L19:
 253              	.LVL16:
 254              	.LBE108:
 255              	.LBE107:
 256              	.LBB110:
 257              	.LBB111:
 258              	.LBB112:
 259              	.LBB113:
 260              	.LBB114:
 261              		.loc 2 546 0
 262 0012 0023     		movs	r3, #0
 263              	.LVL17:
 264              	@ 546 "ChibiOS_3.0.2/os/ext/CMSIS/include/core_cmFunc.h" 1
 265 0014 83F31188 		MSR basepri, r3
 266              	@ 0 "" 2
 267              		.thumb
 268              	.LBE114:
 269              	.LBE113:
 270              	.LBE112:
 271              	.LBE111:
 272              	.LBE110:
 273              		.loc 1 157 0
 274 0018 08BD     		pop	{r3, pc}
 275              	.LVL18:
 276              	.L18:
 277              	.LBB119:
 278              	.LBB109:
 279              		.loc 1 131 0
 280 001a 9A68     		ldr	r2, [r3, #8]
ARM GAS  /tmp/ccs4Npr2.s 			page 6


 281 001c 002A     		cmp	r2, #0
 282 001e F8D0     		beq	.L19
 283              		.loc 1 132 0
 284 0020 5868     		ldr	r0, [r3, #4]
 285              	.LVL19:
 286 0022 9047     		blx	r2
 287              	.LVL20:
 288              	.LBE109:
 289              	.LBE119:
 290              	.LBB120:
 291              	.LBB118:
 292              	.LBB117:
 293              	.LBB116:
 294              	.LBB115:
 295              		.loc 2 546 0
 296 0024 0023     		movs	r3, #0
 297              	@ 546 "ChibiOS_3.0.2/os/ext/CMSIS/include/core_cmFunc.h" 1
 298 0026 83F31188 		MSR basepri, r3
 299              	@ 0 "" 2
 300              		.thumb
 301              	.LBE115:
 302              	.LBE116:
 303              	.LBE117:
 304              	.LBE118:
 305              	.LBE120:
 306              		.loc 1 157 0
 307 002a 08BD     		pop	{r3, pc}
 308              		.cfi_endproc
 309              	.LFE222:
 310              		.size	chPoolAlloc, .-chPoolAlloc
 311 002c AFF30080 		.section	.text.chPoolFreeI,"ax",%progbits
 312              		.align	2
 313              		.p2align 4,,15
 314              		.global	chPoolFreeI
 315              		.thumb
 316              		.thumb_func
 317              		.type	chPoolFreeI, %function
 318              	chPoolFreeI:
 319              	.LFB223:
 320              		.loc 1 171 0
 321              		.cfi_startproc
 322              		@ args = 0, pretend = 0, frame = 0
 323              		@ frame_needed = 0, uses_anonymous_args = 0
 324              		@ link register save eliminated.
 325              	.LVL21:
 326              		.loc 1 177 0
 327 0000 0368     		ldr	r3, [r0]
 328 0002 0B60     		str	r3, [r1]
 329              		.loc 1 178 0
 330 0004 0160     		str	r1, [r0]
 331 0006 7047     		bx	lr
 332              		.cfi_endproc
 333              	.LFE223:
 334              		.size	chPoolFreeI, .-chPoolFreeI
 335 0008 AFF30080 		.section	.text.chPoolFree,"ax",%progbits
 335      AFF30080 
 336              		.align	2
ARM GAS  /tmp/ccs4Npr2.s 			page 7


 337              		.p2align 4,,15
 338              		.global	chPoolFree
 339              		.thumb
 340              		.thumb_func
 341              		.type	chPoolFree, %function
 342              	chPoolFree:
 343              	.LFB224:
 344              		.loc 1 193 0
 345              		.cfi_startproc
 346              		@ args = 0, pretend = 0, frame = 0
 347              		@ frame_needed = 0, uses_anonymous_args = 0
 348              		@ link register save eliminated.
 349              	.LVL22:
 350              	.LBB121:
 351              	.LBB122:
 352              	.LBB123:
 353              	.LBB124:
 354              		.loc 2 546 0
 355 0000 2023     		movs	r3, #32
 356              	@ 546 "ChibiOS_3.0.2/os/ext/CMSIS/include/core_cmFunc.h" 1
 357 0002 83F31188 		MSR basepri, r3
 358              	@ 0 "" 2
 359              	.LVL23:
 360              		.thumb
 361              	.LBE124:
 362              	.LBE123:
 363              	.LBE122:
 364              	.LBE121:
 365              	.LBB125:
 366              	.LBB126:
 367              		.loc 1 177 0
 368 0006 0368     		ldr	r3, [r0]
 369 0008 0B60     		str	r3, [r1]
 370              	.LBE126:
 371              	.LBE125:
 372              	.LBB128:
 373              	.LBB129:
 374              	.LBB130:
 375              	.LBB131:
 376              	.LBB132:
 377              		.loc 2 546 0
 378 000a 0023     		movs	r3, #0
 379              	.LBE132:
 380              	.LBE131:
 381              	.LBE130:
 382              	.LBE129:
 383              	.LBE128:
 384              	.LBB137:
 385              	.LBB127:
 386              		.loc 1 178 0
 387 000c 0160     		str	r1, [r0]
 388              	.LVL24:
 389              	.LBE127:
 390              	.LBE137:
 391              	.LBB138:
 392              	.LBB136:
 393              	.LBB135:
ARM GAS  /tmp/ccs4Npr2.s 			page 8


 394              	.LBB134:
 395              	.LBB133:
 396              		.loc 2 546 0
 397              	@ 546 "ChibiOS_3.0.2/os/ext/CMSIS/include/core_cmFunc.h" 1
 398 000e 83F31188 		MSR basepri, r3
 399              	@ 0 "" 2
 400              		.thumb
 401 0012 7047     		bx	lr
 402              	.LBE133:
 403              	.LBE134:
 404              	.LBE135:
 405              	.LBE136:
 406              	.LBE138:
 407              		.cfi_endproc
 408              	.LFE224:
 409              		.size	chPoolFree, .-chPoolFree
 410 0014 AFF30080 		.text
 410      AFF30080 
 410      AFF30080 
 411              	.Letext0:
 412              		.file 3 "/usr/lib/gcc/arm-none-eabi/4.8/include/stddef.h"
 413              		.file 4 "/usr/include/newlib/machine/_default_types.h"
 414              		.file 5 "/usr/include/newlib/stdint.h"
 415              		.file 6 "ChibiOS_3.0.2/os/rt/ports/ARMCMx/compilers/GCC/chtypes.h"
 416              		.file 7 "ChibiOS_3.0.2/os/rt/include/chsystypes.h"
 417              		.file 8 "ChibiOS_3.0.2/os/rt/include/chschd.h"
 418              		.file 9 "ChibiOS_3.0.2/os/rt/ports/ARMCMx/chcore.h"
 419              		.file 10 "ChibiOS_3.0.2/os/rt/ports/ARMCMx/chcore_v7m.h"
 420              		.file 11 "ChibiOS_3.0.2/os/rt/include/chtm.h"
 421              		.file 12 "ChibiOS_3.0.2/os/rt/include/chsem.h"
 422              		.file 13 "ChibiOS_3.0.2/os/rt/include/chmtx.h"
 423              		.file 14 "ChibiOS_3.0.2/os/rt/include/chmemcore.h"
 424              		.file 15 "ChibiOS_3.0.2/os/rt/include/chmempools.h"
 425              		.file 16 "ChibiOS_3.0.2/os/rt/include/chsys.h"
 426              		.file 17 "ChibiOS_3.0.2/os/ext/CMSIS/include/core_cm4.h"