ARM GAS  /tmp/ccCoK6yP.s 			page 1


   1              		.syntax unified
   2              		.cpu cortex-m4
   3              		.eabi_attribute 27, 3
   4              		.eabi_attribute 28, 1
   5              		.fpu fpv4-sp-d16
   6              		.eabi_attribute 20, 1
   7              		.eabi_attribute 21, 1
   8              		.eabi_attribute 23, 3
   9              		.eabi_attribute 24, 1
  10              		.eabi_attribute 25, 1
  11              		.eabi_attribute 26, 1
  12              		.eabi_attribute 30, 2
  13              		.eabi_attribute 34, 1
  14              		.eabi_attribute 18, 4
  15              		.thumb
  16              		.file	"chmemcore.c"
  17              		.text
  18              	.Ltext0:
  19              		.cfi_sections	.debug_frame
  20              		.section	.text._core_init,"ax",%progbits
  21              		.align	2
  22              		.p2align 4,,15
  23              		.global	_core_init
  24              		.thumb
  25              		.thumb_func
  26              		.type	_core_init, %function
  27              	_core_init:
  28              	.LFB219:
  29              		.file 1 "ChibiOS_3.0.2/os/rt/src/chmemcore.c"
  30              		.loc 1 78 0
  31              		.cfi_startproc
  32              		@ args = 0, pretend = 0, frame = 0
  33              		@ frame_needed = 0, uses_anonymous_args = 0
  34              		@ link register save eliminated.
  35              		.loc 1 84 0
  36 0000 0548     		ldr	r0, .L2
  37              		.loc 1 85 0
  38 0002 064A     		ldr	r2, .L2+4
  39              		.loc 1 84 0
  40 0004 0649     		ldr	r1, .L2+8
  41              		.loc 1 85 0
  42 0006 074B     		ldr	r3, .L2+12
  43              		.loc 1 84 0
  44 0008 20F00700 		bic	r0, r0, #7
  45              		.loc 1 85 0
  46 000c 22F00702 		bic	r2, r2, #7
  47              		.loc 1 84 0
  48 0010 0860     		str	r0, [r1]
  49              		.loc 1 85 0
  50 0012 1A60     		str	r2, [r3]
  51 0014 7047     		bx	lr
  52              	.L3:
  53 0016 00BF     		.align	2
  54              	.L2:
  55 0018 07000000 		.word	__heap_base__+7
  56 001c 00000000 		.word	__heap_end__
  57 0020 00000000 		.word	.LANCHOR0
ARM GAS  /tmp/ccCoK6yP.s 			page 2


  58 0024 00000000 		.word	.LANCHOR1
  59              		.cfi_endproc
  60              	.LFE219:
  61              		.size	_core_init, .-_core_init
  62 0028 AFF30080 		.section	.text.chCoreAlloc,"ax",%progbits
  62      AFF30080 
  63              		.align	2
  64              		.p2align 4,,15
  65              		.global	chCoreAlloc
  66              		.thumb
  67              		.thumb_func
  68              		.type	chCoreAlloc, %function
  69              	chCoreAlloc:
  70              	.LFB220:
  71              		.loc 1 109 0
  72              		.cfi_startproc
  73              		@ args = 0, pretend = 0, frame = 0
  74              		@ frame_needed = 0, uses_anonymous_args = 0
  75              		@ link register save eliminated.
  76              	.LVL0:
  77              	.LBB26:
  78              	.LBB27:
  79              	.LBB28:
  80              	.LBB29:
  81              		.file 2 "ChibiOS_3.0.2/os/ext/CMSIS/include/core_cmFunc.h"
  82              		.loc 2 546 0
  83 0000 2023     		movs	r3, #32
  84              	@ 546 "ChibiOS_3.0.2/os/ext/CMSIS/include/core_cmFunc.h" 1
  85 0002 83F31188 		MSR basepri, r3
  86              	@ 0 "" 2
  87              	.LVL1:
  88              		.thumb
  89              	.LBE29:
  90              	.LBE28:
  91              	.LBE27:
  92              	.LBE26:
  93              	.LBB30:
  94              	.LBB31:
  95              		.loc 1 138 0
  96 0006 094A     		ldr	r2, .L7
  97 0008 0949     		ldr	r1, .L7+4
  98 000a 1368     		ldr	r3, [r2]
  99 000c 0968     		ldr	r1, [r1]
 100              		.loc 1 136 0
 101 000e 0730     		adds	r0, r0, #7
 102              	.LVL2:
 103 0010 20F00700 		bic	r0, r0, #7
 104              	.LVL3:
 105              		.loc 1 138 0
 106 0014 C91A     		subs	r1, r1, r3
 107 0016 8842     		cmp	r0, r1
 108              	.LVL4:
 109              		.loc 1 143 0
 110 0018 9BBF     		ittet	ls
 111 001a C018     		addls	r0, r0, r3
 112              	.LVL5:
 113 001c 1060     		strls	r0, [r2]
ARM GAS  /tmp/ccCoK6yP.s 			page 3


 114              		.loc 1 140 0
 115 001e 0020     		movhi	r0, #0
 116              	.LVL6:
 117              		.loc 1 145 0
 118 0020 1846     		movls	r0, r3
 119              	.LBE31:
 120              	.LBE30:
 121              	.LBB32:
 122              	.LBB33:
 123              	.LBB34:
 124              	.LBB35:
 125              	.LBB36:
 126              		.loc 2 546 0
 127 0022 0023     		movs	r3, #0
 128              	.LVL7:
 129              	@ 546 "ChibiOS_3.0.2/os/ext/CMSIS/include/core_cmFunc.h" 1
 130 0024 83F31188 		MSR basepri, r3
 131              	@ 0 "" 2
 132              		.thumb
 133              	.LBE36:
 134              	.LBE35:
 135              	.LBE34:
 136              	.LBE33:
 137              	.LBE32:
 138              		.loc 1 117 0
 139 0028 7047     		bx	lr
 140              	.L8:
 141 002a 00BF     		.align	2
 142              	.L7:
 143 002c 00000000 		.word	.LANCHOR0
 144 0030 00000000 		.word	.LANCHOR1
 145              		.cfi_endproc
 146              	.LFE220:
 147              		.size	chCoreAlloc, .-chCoreAlloc
 148 0034 AFF30080 		.section	.text.chCoreAllocI,"ax",%progbits
 148      AFF30080 
 148      AFF30080 
 149              		.align	2
 150              		.p2align 4,,15
 151              		.global	chCoreAllocI
 152              		.thumb
 153              		.thumb_func
 154              		.type	chCoreAllocI, %function
 155              	chCoreAllocI:
 156              	.LFB221:
 157              		.loc 1 131 0
 158              		.cfi_startproc
 159              		@ args = 0, pretend = 0, frame = 0
 160              		@ frame_needed = 0, uses_anonymous_args = 0
 161              		@ link register save eliminated.
 162              	.LVL8:
 163              		.loc 1 138 0
 164 0000 074A     		ldr	r2, .L12
 165 0002 0849     		ldr	r1, .L12+4
 166 0004 1368     		ldr	r3, [r2]
 167 0006 0968     		ldr	r1, [r1]
 168              		.loc 1 136 0
ARM GAS  /tmp/ccCoK6yP.s 			page 4


 169 0008 0730     		adds	r0, r0, #7
 170              	.LVL9:
 171 000a 20F00700 		bic	r0, r0, #7
 172              	.LVL10:
 173              		.loc 1 138 0
 174 000e C91A     		subs	r1, r1, r3
 175 0010 8842     		cmp	r0, r1
 176              	.LVL11:
 177              		.loc 1 143 0
 178 0012 9DBF     		ittte	ls
 179 0014 C018     		addls	r0, r0, r3
 180              	.LVL12:
 181 0016 1060     		strls	r0, [r2]
 182              		.loc 1 145 0
 183 0018 1846     		movls	r0, r3
 184              		.loc 1 140 0
 185 001a 0020     		movhi	r0, #0
 186              		.loc 1 146 0
 187 001c 7047     		bx	lr
 188              	.L13:
 189 001e 00BF     		.align	2
 190              	.L12:
 191 0020 00000000 		.word	.LANCHOR0
 192 0024 00000000 		.word	.LANCHOR1
 193              		.cfi_endproc
 194              	.LFE221:
 195              		.size	chCoreAllocI, .-chCoreAllocI
 196 0028 AFF30080 		.section	.text.chCoreGetStatusX,"ax",%progbits
 196      AFF30080 
 197              		.align	2
 198              		.p2align 4,,15
 199              		.global	chCoreGetStatusX
 200              		.thumb
 201              		.thumb_func
 202              		.type	chCoreGetStatusX, %function
 203              	chCoreGetStatusX:
 204              	.LFB222:
 205              		.loc 1 155 0
 206              		.cfi_startproc
 207              		@ args = 0, pretend = 0, frame = 0
 208              		@ frame_needed = 0, uses_anonymous_args = 0
 209              		@ link register save eliminated.
 210              		.loc 1 158 0
 211 0000 024A     		ldr	r2, .L15
 212 0002 034B     		ldr	r3, .L15+4
 213 0004 1068     		ldr	r0, [r2]
 214 0006 1B68     		ldr	r3, [r3]
 215              		.loc 1 160 0
 216 0008 C01A     		subs	r0, r0, r3
 217 000a 7047     		bx	lr
 218              	.L16:
 219              		.align	2
 220              	.L15:
 221 000c 00000000 		.word	.LANCHOR1
 222 0010 00000000 		.word	.LANCHOR0
 223              		.cfi_endproc
 224              	.LFE222:
ARM GAS  /tmp/ccCoK6yP.s 			page 5


 225              		.size	chCoreGetStatusX, .-chCoreGetStatusX
 226 0014 AFF30080 		.section	.bss.endmem,"aw",%nobits
 226      AFF30080 
 226      AFF30080 
 227              		.align	2
 228              		.set	.LANCHOR1,. + 0
 229              		.type	endmem, %object
 230              		.size	endmem, 4
 231              	endmem:
 232 0000 00000000 		.space	4
 233              		.section	.bss.nextmem,"aw",%nobits
 234              		.align	2
 235              		.set	.LANCHOR0,. + 0
 236              		.type	nextmem, %object
 237              		.size	nextmem, 4
 238              	nextmem:
 239 0000 00000000 		.space	4
 240              		.text
 241              	.Letext0:
 242              		.file 3 "/usr/lib/gcc/arm-none-eabi/4.8/include/stddef.h"
 243              		.file 4 "/usr/include/newlib/machine/_default_types.h"
 244              		.file 5 "/usr/include/newlib/stdint.h"
 245              		.file 6 "ChibiOS_3.0.2/os/rt/ports/ARMCMx/compilers/GCC/chtypes.h"
 246              		.file 7 "ChibiOS_3.0.2/os/rt/include/chsystypes.h"
 247              		.file 8 "ChibiOS_3.0.2/os/rt/include/chschd.h"
 248              		.file 9 "ChibiOS_3.0.2/os/rt/ports/ARMCMx/chcore.h"
 249              		.file 10 "ChibiOS_3.0.2/os/rt/ports/ARMCMx/chcore_v7m.h"
 250              		.file 11 "ChibiOS_3.0.2/os/rt/include/chtm.h"
 251              		.file 12 "ChibiOS_3.0.2/os/rt/include/chsem.h"
 252              		.file 13 "ChibiOS_3.0.2/os/rt/include/chmtx.h"
 253              		.file 14 "ChibiOS_3.0.2/os/rt/include/chsys.h"
 254              		.file 15 "ChibiOS_3.0.2/os/ext/CMSIS/include/core_cm4.h"