ARM GAS  /tmp/ccZP0YhK.s 			page 1


   1              		.syntax unified
   2              		.cpu cortex-m4
   3              		.eabi_attribute 27, 3
   4              		.eabi_attribute 28, 1
   5              		.fpu fpv4-sp-d16
   6              		.eabi_attribute 20, 1
   7              		.eabi_attribute 21, 1
   8              		.eabi_attribute 23, 3
   9              		.eabi_attribute 24, 1
  10              		.eabi_attribute 25, 1
  11              		.eabi_attribute 26, 1
  12              		.eabi_attribute 30, 2
  13              		.eabi_attribute 34, 1
  14              		.eabi_attribute 18, 4
  15              		.thumb
  16              		.file	"chmsg.c"
  17              		.text
  18              	.Ltext0:
  19              		.cfi_sections	.debug_frame
  20              		.section	.text.chMsgSend,"ax",%progbits
  21              		.align	2
  22              		.p2align 4,,15
  23              		.global	chMsgSend
  24              		.thumb
  25              		.thumb_func
  26              		.type	chMsgSend, %function
  27              	chMsgSend:
  28              	.LFB219:
  29              		.file 1 "ChibiOS_3.0.2/os/rt/src/chmsg.c"
  30              		.loc 1 87 0
  31              		.cfi_startproc
  32              		@ args = 0, pretend = 0, frame = 0
  33              		@ frame_needed = 0, uses_anonymous_args = 0
  34              	.LVL0:
  35              		.loc 1 88 0
  36 0000 0E4B     		ldr	r3, .L5
  37              		.loc 1 87 0
  38 0002 70B5     		push	{r4, r5, r6, lr}
  39              		.cfi_def_cfa_offset 16
  40              		.cfi_offset 4, -16
  41              		.cfi_offset 5, -12
  42              		.cfi_offset 6, -8
  43              		.cfi_offset 14, -4
  44              	.LBB52:
  45              	.LBB53:
  46              	.LBB54:
  47              	.LBB55:
  48              		.file 2 "ChibiOS_3.0.2/os/ext/CMSIS/include/core_cmFunc.h"
  49              		.loc 2 546 0
  50 0004 2022     		movs	r2, #32
  51              	.LBE55:
  52              	.LBE54:
  53              	.LBE53:
  54              	.LBE52:
  55              		.loc 1 88 0
  56 0006 9C69     		ldr	r4, [r3, #24]
  57              	.LVL1:
ARM GAS  /tmp/ccZP0YhK.s 			page 2


  58              	.LBB59:
  59              	.LBB58:
  60              	.LBB57:
  61              	.LBB56:
  62              		.loc 2 546 0
  63              	@ 546 "ChibiOS_3.0.2/os/ext/CMSIS/include/core_cmFunc.h" 1
  64 0008 82F31188 		MSR basepri, r2
  65              	@ 0 "" 2
  66              		.thumb
  67              	.LBE56:
  68              	.LBE57:
  69              	.LBE58:
  70              	.LBE59:
  71              		.loc 1 94 0
  72 000c 00F12C05 		add	r5, r0, #44
  73              		.loc 1 96 0
  74 0010 067F     		ldrb	r6, [r0, #28]	@ zero_extendqisi2
  75              		.loc 1 94 0
  76 0012 6562     		str	r5, [r4, #36]
  77              	.LVL2:
  78              	.LBB60:
  79              	.LBB61:
  80              		.file 3 "ChibiOS_3.0.2/os/rt/include/chschd.h"
  81              		.loc 3 666 0
  82 0014 026B     		ldr	r2, [r0, #48]
  83 0016 6260     		str	r2, [r4, #4]
  84              	.LBE61:
  85              	.LBE60:
  86              		.loc 1 96 0
  87 0018 0E2E     		cmp	r6, #14
  88              		.loc 1 93 0
  89 001a 6163     		str	r1, [r4, #52]
  90              	.LBB63:
  91              	.LBB62:
  92              		.loc 3 665 0
  93 001c 2560     		str	r5, [r4]
  94              		.loc 3 667 0
  95 001e 1460     		str	r4, [r2]
  96              		.loc 3 668 0
  97 0020 0463     		str	r4, [r0, #48]
  98              	.LBE62:
  99              	.LBE63:
 100              		.loc 1 96 0
 101 0022 07D0     		beq	.L4
 102              	.LVL3:
 103              	.L2:
 104              		.loc 1 99 0
 105 0024 0C20     		movs	r0, #12
 106 0026 FFF7FEFF 		bl	chSchGoSleepS
 107              	.LVL4:
 108              		.loc 1 100 0
 109 002a 606A     		ldr	r0, [r4, #36]
 110              	.LVL5:
 111              	.LBB64:
 112              	.LBB65:
 113              	.LBB66:
 114              	.LBB67:
ARM GAS  /tmp/ccZP0YhK.s 			page 3


 115              	.LBB68:
 116              		.loc 2 546 0
 117 002c 0023     		movs	r3, #0
 118              	@ 546 "ChibiOS_3.0.2/os/ext/CMSIS/include/core_cmFunc.h" 1
 119 002e 83F31188 		MSR basepri, r3
 120              	@ 0 "" 2
 121              		.thumb
 122              	.LBE68:
 123              	.LBE67:
 124              	.LBE66:
 125              	.LBE65:
 126              	.LBE64:
 127              		.loc 1 104 0
 128 0032 70BD     		pop	{r4, r5, r6, pc}
 129              	.LVL6:
 130              	.L4:
 131              		.loc 1 97 0
 132 0034 FFF7FEFF 		bl	chSchReadyI
 133              	.LVL7:
 134 0038 F4E7     		b	.L2
 135              	.L6:
 136 003a 00BF     		.align	2
 137              	.L5:
 138 003c 00000000 		.word	ch
 139              		.cfi_endproc
 140              	.LFE219:
 141              		.size	chMsgSend, .-chMsgSend
 142              		.section	.text.chMsgWait,"ax",%progbits
 143              		.align	2
 144              		.p2align 4,,15
 145              		.global	chMsgWait
 146              		.thumb
 147              		.thumb_func
 148              		.type	chMsgWait, %function
 149              	chMsgWait:
 150              	.LFB220:
 151              		.loc 1 120 0
 152              		.cfi_startproc
 153              		@ args = 0, pretend = 0, frame = 0
 154              		@ frame_needed = 0, uses_anonymous_args = 0
 155              	.LVL8:
 156 0000 10B5     		push	{r4, lr}
 157              		.cfi_def_cfa_offset 8
 158              		.cfi_offset 4, -8
 159              		.cfi_offset 14, -4
 160              	.LBB69:
 161              	.LBB70:
 162              	.LBB71:
 163              	.LBB72:
 164              		.loc 2 546 0
 165 0002 2023     		movs	r3, #32
 166              	@ 546 "ChibiOS_3.0.2/os/ext/CMSIS/include/core_cmFunc.h" 1
 167 0004 83F31188 		MSR basepri, r3
 168              	@ 0 "" 2
 169              		.thumb
 170              	.LBE72:
 171              	.LBE71:
ARM GAS  /tmp/ccZP0YhK.s 			page 4


 172              	.LBE70:
 173              	.LBE69:
 174              		.loc 1 124 0
 175 0008 0B4C     		ldr	r4, .L10
 176 000a A269     		ldr	r2, [r4, #24]
 177              	.LVL9:
 178              	.LBB73:
 179              	.LBB74:
 180              		.file 4 "ChibiOS_3.0.2/os/rt/include/chmsg.h"
 181              		.loc 4 83 0
 182 000c 1346     		mov	r3, r2
 183 000e 53F82C0F 		ldr	r0, [r3, #44]!
 184              	.LBE74:
 185              	.LBE73:
 186              		.loc 1 124 0
 187 0012 9842     		cmp	r0, r3
 188 0014 08D0     		beq	.L9
 189              	.LVL10:
 190              	.L8:
 191              	.LBB75:
 192              	.LBB76:
 193              		.loc 3 674 0
 194 0016 0168     		ldr	r1, [r0]
 195 0018 D162     		str	r1, [r2, #44]
 196              	.LBE76:
 197              	.LBE75:
 198              		.loc 1 128 0
 199 001a 0D22     		movs	r2, #13
 200              	.LBB78:
 201              	.LBB77:
 202              		.loc 3 675 0
 203 001c 4B60     		str	r3, [r1, #4]
 204              	.LBE77:
 205              	.LBE78:
 206              	.LBB79:
 207              	.LBB80:
 208              	.LBB81:
 209              	.LBB82:
 210              	.LBB83:
 211              		.loc 2 546 0
 212 001e 0023     		movs	r3, #0
 213              	.LVL11:
 214              	.LBE83:
 215              	.LBE82:
 216              	.LBE81:
 217              	.LBE80:
 218              	.LBE79:
 219              		.loc 1 128 0
 220 0020 0277     		strb	r2, [r0, #28]
 221              	.LVL12:
 222              	.LBB88:
 223              	.LBB87:
 224              	.LBB86:
 225              	.LBB85:
 226              	.LBB84:
 227              		.loc 2 546 0
 228              	@ 546 "ChibiOS_3.0.2/os/ext/CMSIS/include/core_cmFunc.h" 1
ARM GAS  /tmp/ccZP0YhK.s 			page 5


 229 0022 83F31188 		MSR basepri, r3
 230              	@ 0 "" 2
 231              		.thumb
 232              	.LBE84:
 233              	.LBE85:
 234              	.LBE86:
 235              	.LBE87:
 236              	.LBE88:
 237              		.loc 1 132 0
 238 0026 10BD     		pop	{r4, pc}
 239              	.LVL13:
 240              	.L9:
 241              		.loc 1 125 0
 242 0028 0E20     		movs	r0, #14
 243 002a FFF7FEFF 		bl	chSchGoSleepS
 244              	.LVL14:
 245 002e A269     		ldr	r2, [r4, #24]
 246 0030 D06A     		ldr	r0, [r2, #44]
 247 0032 02F12C03 		add	r3, r2, #44
 248 0036 EEE7     		b	.L8
 249              	.L11:
 250              		.align	2
 251              	.L10:
 252 0038 00000000 		.word	ch
 253              		.cfi_endproc
 254              	.LFE220:
 255              		.size	chMsgWait, .-chMsgWait
 256 003c AFF30080 		.section	.text.chMsgRelease,"ax",%progbits
 257              		.align	2
 258              		.p2align 4,,15
 259              		.global	chMsgRelease
 260              		.thumb
 261              		.thumb_func
 262              		.type	chMsgRelease, %function
 263              	chMsgRelease:
 264              	.LFB221:
 265              		.loc 1 144 0
 266              		.cfi_startproc
 267              		@ args = 0, pretend = 0, frame = 0
 268              		@ frame_needed = 0, uses_anonymous_args = 0
 269              	.LVL15:
 270 0000 08B5     		push	{r3, lr}
 271              		.cfi_def_cfa_offset 8
 272              		.cfi_offset 3, -8
 273              		.cfi_offset 14, -4
 274              	.LBB89:
 275              	.LBB90:
 276              	.LBB91:
 277              	.LBB92:
 278              		.loc 2 546 0
 279 0002 2023     		movs	r3, #32
 280              	@ 546 "ChibiOS_3.0.2/os/ext/CMSIS/include/core_cmFunc.h" 1
 281 0004 83F31188 		MSR basepri, r3
 282              	@ 0 "" 2
 283              	.LVL16:
 284              		.thumb
 285              	.LBE92:
ARM GAS  /tmp/ccZP0YhK.s 			page 6


 286              	.LBE91:
 287              	.LBE90:
 288              	.LBE89:
 289              	.LBB93:
 290              	.LBB94:
 291              		.loc 4 115 0
 292 0008 FFF7FEFF 		bl	chSchWakeupS
 293              	.LVL17:
 294              	.LBE94:
 295              	.LBE93:
 296              	.LBB95:
 297              	.LBB96:
 298              	.LBB97:
 299              	.LBB98:
 300              	.LBB99:
 301              		.loc 2 546 0
 302 000c 0023     		movs	r3, #0
 303              	@ 546 "ChibiOS_3.0.2/os/ext/CMSIS/include/core_cmFunc.h" 1
 304 000e 83F31188 		MSR basepri, r3
 305              	@ 0 "" 2
 306              		.thumb
 307 0012 08BD     		pop	{r3, pc}
 308              	.LBE99:
 309              	.LBE98:
 310              	.LBE97:
 311              	.LBE96:
 312              	.LBE95:
 313              		.cfi_endproc
 314              	.LFE221:
 315              		.size	chMsgRelease, .-chMsgRelease
 316 0014 AFF30080 		.text
 316      AFF30080 
 316      AFF30080 
 317              	.Letext0:
 318              		.file 5 "/usr/include/newlib/machine/_default_types.h"
 319              		.file 6 "/usr/include/newlib/stdint.h"
 320              		.file 7 "ChibiOS_3.0.2/os/rt/ports/ARMCMx/compilers/GCC/chtypes.h"
 321              		.file 8 "ChibiOS_3.0.2/os/rt/include/chsystypes.h"
 322              		.file 9 "ChibiOS_3.0.2/os/rt/ports/ARMCMx/chcore.h"
 323              		.file 10 "ChibiOS_3.0.2/os/rt/ports/ARMCMx/chcore_v7m.h"
 324              		.file 11 "ChibiOS_3.0.2/os/rt/include/chtm.h"
 325              		.file 12 "ChibiOS_3.0.2/os/rt/include/chsem.h"
 326              		.file 13 "ChibiOS_3.0.2/os/rt/include/chmtx.h"
 327              		.file 14 "ChibiOS_3.0.2/os/rt/include/chsys.h"
 328              		.file 15 "ChibiOS_3.0.2/os/ext/CMSIS/include/core_cm4.h"