ARM GAS  /tmp/ccSFlF6o.s 			page 1


   1              		.syntax unified
   2              		.cpu cortex-m4
   3              		.eabi_attribute 27, 3
   4              		.eabi_attribute 28, 1
   5              		.fpu fpv4-sp-d16
   6              		.eabi_attribute 20, 1
   7              		.eabi_attribute 21, 1
   8              		.eabi_attribute 23, 3
   9              		.eabi_attribute 24, 1
  10              		.eabi_attribute 25, 1
  11              		.eabi_attribute 26, 1
  12              		.eabi_attribute 30, 2
  13              		.eabi_attribute 34, 1
  14              		.eabi_attribute 18, 4
  15              		.thumb
  16              		.file	"chmtx.c"
  17              		.text
  18              	.Ltext0:
  19              		.cfi_sections	.debug_frame
  20              		.section	.text.chMtxObjectInit,"ax",%progbits
  21              		.align	2
  22              		.p2align 4,,15
  23              		.global	chMtxObjectInit
  24              		.thumb
  25              		.thumb_func
  26              		.type	chMtxObjectInit, %function
  27              	chMtxObjectInit:
  28              	.LFB219:
  29              		.file 1 "ChibiOS_3.0.2/os/rt/src/chmtx.c"
  30              		.loc 1 103 0
  31              		.cfi_startproc
  32              		@ args = 0, pretend = 0, frame = 0
  33              		@ frame_needed = 0, uses_anonymous_args = 0
  34              		@ link register save eliminated.
  35              	.LVL0:
  36              		.loc 1 108 0
  37 0000 0023     		movs	r3, #0
  38              	.LBB103:
  39              	.LBB104:
  40              		.file 2 "ChibiOS_3.0.2/os/rt/include/chschd.h"
  41              		.loc 2 604 0
  42 0002 0060     		str	r0, [r0]
  43              		.loc 2 605 0
  44 0004 4060     		str	r0, [r0, #4]
  45              	.LBE104:
  46              	.LBE103:
  47              		.loc 1 108 0
  48 0006 8360     		str	r3, [r0, #8]
  49 0008 7047     		bx	lr
  50              		.cfi_endproc
  51              	.LFE219:
  52              		.size	chMtxObjectInit, .-chMtxObjectInit
  53 000a 00BFAFF3 		.section	.text.chMtxLockS,"ax",%progbits
  53      0080
  54              		.align	2
  55              		.p2align 4,,15
  56              		.global	chMtxLockS
ARM GAS  /tmp/ccSFlF6o.s 			page 2


  57              		.thumb
  58              		.thumb_func
  59              		.type	chMtxLockS, %function
  60              	chMtxLockS:
  61              	.LFB221:
  62              		.loc 1 139 0
  63              		.cfi_startproc
  64              		@ args = 0, pretend = 0, frame = 0
  65              		@ frame_needed = 0, uses_anonymous_args = 0
  66              	.LVL1:
  67 0000 70B5     		push	{r4, r5, r6, lr}
  68              		.cfi_def_cfa_offset 16
  69              		.cfi_offset 4, -16
  70              		.cfi_offset 5, -12
  71              		.cfi_offset 6, -8
  72              		.cfi_offset 14, -4
  73              		.loc 1 140 0
  74 0002 2F4B     		ldr	r3, .L23
  75              		.loc 1 139 0
  76 0004 0546     		mov	r5, r0
  77              		.loc 1 146 0
  78 0006 8068     		ldr	r0, [r0, #8]
  79              	.LVL2:
  80              		.loc 1 140 0
  81 0008 9C69     		ldr	r4, [r3, #24]
  82              	.LVL3:
  83              		.loc 1 146 0
  84 000a 0028     		cmp	r0, #0
  85 000c 53D0     		beq	.L3
  86              	.LVL4:
  87              	.LBB105:
  88              		.loc 1 165 0 discriminator 1
  89 000e A268     		ldr	r2, [r4, #8]
  90 0010 8368     		ldr	r3, [r0, #8]
  91 0012 9A42     		cmp	r2, r3
  92 0014 06D9     		bls	.L5
  93              	.L14:
  94              		.loc 1 170 0
  95 0016 037F     		ldrb	r3, [r0, #28]	@ zero_extendqisi2
  96              		.loc 1 167 0
  97 0018 8260     		str	r2, [r0, #8]
  98              		.loc 1 170 0
  99 001a 062B     		cmp	r3, #6
 100 001c 32D0     		beq	.L6
 101 001e 072B     		cmp	r3, #7
 102 0020 1CD0     		beq	.L7
 103 0022 9BB1     		cbz	r3, .L22
 104              	.LVL5:
 105              	.L5:
 106              	.LBB106:
 107              	.LBB107:
 108              		.loc 2 653 0
 109 0024 2B46     		mov	r3, r5
 110 0026 03E0     		b	.L20
 111              	.LVL6:
 112              	.L18:
 113              		.loc 2 656 0
ARM GAS  /tmp/ccSFlF6o.s 			page 3


 114 0028 9968     		ldr	r1, [r3, #8]
 115 002a A268     		ldr	r2, [r4, #8]
 116 002c 9142     		cmp	r1, r2
 117 002e 02D3     		bcc	.L19
 118              	.L20:
 119              		.loc 2 655 0
 120 0030 1B68     		ldr	r3, [r3]
 121              	.LVL7:
 122              		.loc 2 656 0
 123 0032 9D42     		cmp	r5, r3
 124 0034 F8D1     		bne	.L18
 125              	.L19:
 126              		.loc 2 658 0
 127 0036 5A68     		ldr	r2, [r3, #4]
 128 0038 6260     		str	r2, [r4, #4]
 129              		.loc 2 657 0
 130 003a 2360     		str	r3, [r4]
 131              		.loc 2 659 0
 132 003c 1460     		str	r4, [r2]
 133              		.loc 2 660 0
 134 003e 5C60     		str	r4, [r3, #4]
 135              	.LBE107:
 136              	.LBE106:
 137              		.loc 1 213 0
 138 0040 6562     		str	r5, [r4, #36]
 139              		.loc 1 214 0
 140 0042 0620     		movs	r0, #6
 141              	.LBE105:
 142              		.loc 1 236 0
 143 0044 BDE87040 		pop	{r4, r5, r6, lr}
 144              	.LVL8:
 145              	.LBB122:
 146              		.loc 1 214 0
 147 0048 FFF7FEBF 		b	chSchGoSleepS
 148              	.LVL9:
 149              	.L22:
 150              	.LBB108:
 151              	.LBB109:
 152              		.loc 2 691 0
 153 004c 90E80C00 		ldmia	r0, {r2, r3}
 154 0050 1A60     		str	r2, [r3]
 155              		.loc 2 692 0
 156 0052 0268     		ldr	r2, [r0]
 157 0054 5360     		str	r3, [r2, #4]
 158              	.LBE109:
 159              	.LBE108:
 160              		.loc 1 202 0
 161 0056 FFF7FEFF 		bl	chSchReadyI
 162              	.LVL10:
 163              		.loc 1 203 0
 164 005a E3E7     		b	.L5
 165              	.LVL11:
 166              	.L7:
 167              	.LBB110:
 168              	.LBB111:
 169              		.loc 2 691 0
 170 005c 90E80A00 		ldmia	r0, {r1, r3}
ARM GAS  /tmp/ccSFlF6o.s 			page 4


 171 0060 1960     		str	r1, [r3]
 172              	.LBE111:
 173              	.LBE110:
 174              		.loc 1 193 0
 175 0062 466A     		ldr	r6, [r0, #36]
 176              	.LVL12:
 177              	.LBB113:
 178              	.LBB112:
 179              		.loc 2 692 0
 180 0064 0168     		ldr	r1, [r0]
 181 0066 4B60     		str	r3, [r1, #4]
 182              	.LBE112:
 183              	.LBE113:
 184              	.LBB114:
 185              	.LBB115:
 186              		.loc 2 653 0
 187 0068 3346     		mov	r3, r6
 188 006a 02E0     		b	.L17
 189              	.LVL13:
 190              	.L15:
 191              		.loc 2 656 0
 192 006c 9968     		ldr	r1, [r3, #8]
 193 006e 8A42     		cmp	r2, r1
 194 0070 02D8     		bhi	.L16
 195              	.L17:
 196              		.loc 2 655 0
 197 0072 1B68     		ldr	r3, [r3]
 198              	.LVL14:
 199              		.loc 2 656 0
 200 0074 9E42     		cmp	r6, r3
 201 0076 F9D1     		bne	.L15
 202              	.L16:
 203              		.loc 2 658 0
 204 0078 5A68     		ldr	r2, [r3, #4]
 205 007a 4260     		str	r2, [r0, #4]
 206              		.loc 2 657 0
 207 007c 0360     		str	r3, [r0]
 208              		.loc 2 659 0
 209 007e 1060     		str	r0, [r2]
 210              		.loc 2 660 0
 211 0080 5860     		str	r0, [r3, #4]
 212 0082 CFE7     		b	.L5
 213              	.LVL15:
 214              	.L6:
 215              	.LBE115:
 216              	.LBE114:
 217              	.LBB116:
 218              	.LBB117:
 219              		.loc 2 691 0
 220 0084 90E80A00 		ldmia	r0, {r1, r3}
 221 0088 1960     		str	r1, [r3]
 222              	.LBE117:
 223              	.LBE116:
 224              		.loc 1 173 0
 225 008a 466A     		ldr	r6, [r0, #36]
 226              	.LVL16:
 227              	.LBB119:
ARM GAS  /tmp/ccSFlF6o.s 			page 5


 228              	.LBB118:
 229              		.loc 2 692 0
 230 008c 0168     		ldr	r1, [r0]
 231 008e 4B60     		str	r3, [r1, #4]
 232              	.LBE118:
 233              	.LBE119:
 234              	.LBB120:
 235              	.LBB121:
 236              		.loc 2 653 0
 237 0090 3346     		mov	r3, r6
 238 0092 02E0     		b	.L13
 239              	.LVL17:
 240              	.L9:
 241              		.loc 2 656 0
 242 0094 9968     		ldr	r1, [r3, #8]
 243 0096 9142     		cmp	r1, r2
 244 0098 02D3     		bcc	.L12
 245              	.L13:
 246              		.loc 2 655 0
 247 009a 1B68     		ldr	r3, [r3]
 248              	.LVL18:
 249              		.loc 2 656 0
 250 009c 9E42     		cmp	r6, r3
 251 009e F9D1     		bne	.L9
 252              	.L12:
 253              		.loc 2 658 0
 254 00a0 5A68     		ldr	r2, [r3, #4]
 255 00a2 4260     		str	r2, [r0, #4]
 256              		.loc 2 657 0
 257 00a4 0360     		str	r3, [r0]
 258              		.loc 2 659 0
 259 00a6 1060     		str	r0, [r2]
 260              		.loc 2 660 0
 261 00a8 5860     		str	r0, [r3, #4]
 262              	.LBE121:
 263              	.LBE120:
 264              		.loc 1 174 0
 265 00aa B068     		ldr	r0, [r6, #8]
 266              	.LVL19:
 267              		.loc 1 165 0
 268 00ac A268     		ldr	r2, [r4, #8]
 269 00ae 8368     		ldr	r3, [r0, #8]
 270              	.LVL20:
 271 00b0 9342     		cmp	r3, r2
 272 00b2 B0D3     		bcc	.L14
 273 00b4 B6E7     		b	.L5
 274              	.LVL21:
 275              	.L3:
 276              	.LBE122:
 277              		.loc 1 233 0
 278 00b6 E36B     		ldr	r3, [r4, #60]
 279 00b8 EB60     		str	r3, [r5, #12]
 280              		.loc 1 232 0
 281 00ba AC60     		str	r4, [r5, #8]
 282              		.loc 1 234 0
 283 00bc E563     		str	r5, [r4, #60]
 284 00be 70BD     		pop	{r4, r5, r6, pc}
ARM GAS  /tmp/ccSFlF6o.s 			page 6


 285              	.LVL22:
 286              	.L24:
 287              		.align	2
 288              	.L23:
 289 00c0 00000000 		.word	ch
 290              		.cfi_endproc
 291              	.LFE221:
 292              		.size	chMtxLockS, .-chMtxLockS
 293 00c4 AFF30080 		.section	.text.chMtxLock,"ax",%progbits
 293      AFF30080 
 293      AFF30080 
 294              		.align	2
 295              		.p2align 4,,15
 296              		.global	chMtxLock
 297              		.thumb
 298              		.thumb_func
 299              		.type	chMtxLock, %function
 300              	chMtxLock:
 301              	.LFB220:
 302              		.loc 1 123 0
 303              		.cfi_startproc
 304              		@ args = 0, pretend = 0, frame = 0
 305              		@ frame_needed = 0, uses_anonymous_args = 0
 306              	.LVL23:
 307 0000 08B5     		push	{r3, lr}
 308              		.cfi_def_cfa_offset 8
 309              		.cfi_offset 3, -8
 310              		.cfi_offset 14, -4
 311              	.LBB123:
 312              	.LBB124:
 313              	.LBB125:
 314              	.LBB126:
 315              		.file 3 "ChibiOS_3.0.2/os/ext/CMSIS/include/core_cmFunc.h"
 316              		.loc 3 546 0
 317 0002 2023     		movs	r3, #32
 318              	@ 546 "ChibiOS_3.0.2/os/ext/CMSIS/include/core_cmFunc.h" 1
 319 0004 83F31188 		MSR basepri, r3
 320              	@ 0 "" 2
 321              		.thumb
 322              	.LBE126:
 323              	.LBE125:
 324              	.LBE124:
 325              	.LBE123:
 326              		.loc 1 126 0
 327 0008 FFF7FEFF 		bl	chMtxLockS
 328              	.LVL24:
 329              	.LBB127:
 330              	.LBB128:
 331              	.LBB129:
 332              	.LBB130:
 333              	.LBB131:
 334              		.loc 3 546 0
 335 000c 0023     		movs	r3, #0
 336              	@ 546 "ChibiOS_3.0.2/os/ext/CMSIS/include/core_cmFunc.h" 1
 337 000e 83F31188 		MSR basepri, r3
 338              	@ 0 "" 2
 339              		.thumb
ARM GAS  /tmp/ccSFlF6o.s 			page 7


 340 0012 08BD     		pop	{r3, pc}
 341              	.LBE131:
 342              	.LBE130:
 343              	.LBE129:
 344              	.LBE128:
 345              	.LBE127:
 346              		.cfi_endproc
 347              	.LFE220:
 348              		.size	chMtxLock, .-chMtxLock
 349 0014 AFF30080 		.section	.text.chMtxTryLock,"ax",%progbits
 349      AFF30080 
 349      AFF30080 
 350              		.align	2
 351              		.p2align 4,,15
 352              		.global	chMtxTryLock
 353              		.thumb
 354              		.thumb_func
 355              		.type	chMtxTryLock, %function
 356              	chMtxTryLock:
 357              	.LFB222:
 358              		.loc 1 255 0
 359              		.cfi_startproc
 360              		@ args = 0, pretend = 0, frame = 0
 361              		@ frame_needed = 0, uses_anonymous_args = 0
 362              		@ link register save eliminated.
 363              	.LVL25:
 364              		.loc 1 255 0
 365 0000 0346     		mov	r3, r0
 366              	.LBB132:
 367              	.LBB133:
 368              	.LBB134:
 369              	.LBB135:
 370              		.loc 3 546 0
 371 0002 2022     		movs	r2, #32
 372              	@ 546 "ChibiOS_3.0.2/os/ext/CMSIS/include/core_cmFunc.h" 1
 373 0004 82F31188 		MSR basepri, r2
 374              	@ 0 "" 2
 375              	.LVL26:
 376              		.thumb
 377              	.LBE135:
 378              	.LBE134:
 379              	.LBE133:
 380              	.LBE132:
 381              	.LBB136:
 382              	.LBB137:
 383              		.loc 1 287 0
 384 0008 8268     		ldr	r2, [r0, #8]
 385 000a 22B1     		cbz	r2, .L29
 386              		.loc 1 297 0
 387 000c 0020     		movs	r0, #0
 388              	.LVL27:
 389              	.LBE137:
 390              	.LBE136:
 391              	.LBB139:
 392              	.LBB140:
 393              	.LBB141:
 394              	.LBB142:
ARM GAS  /tmp/ccSFlF6o.s 			page 8


 395              	.LBB143:
 396              		.loc 3 546 0
 397 000e 0023     		movs	r3, #0
 398              	.LVL28:
 399              	@ 546 "ChibiOS_3.0.2/os/ext/CMSIS/include/core_cmFunc.h" 1
 400 0010 83F31188 		MSR basepri, r3
 401              	@ 0 "" 2
 402              		.thumb
 403              	.LBE143:
 404              	.LBE142:
 405              	.LBE141:
 406              	.LBE140:
 407              	.LBE139:
 408              		.loc 1 263 0
 409 0014 7047     		bx	lr
 410              	.LVL29:
 411              	.L29:
 412              	.LBB148:
 413              	.LBB138:
 414              		.loc 1 305 0
 415 0016 054A     		ldr	r2, .L30
 416 0018 9269     		ldr	r2, [r2, #24]
 417 001a 8260     		str	r2, [r0, #8]
 418              		.loc 1 306 0
 419 001c D16B     		ldr	r1, [r2, #60]
 420 001e C160     		str	r1, [r0, #12]
 421              		.loc 1 307 0
 422 0020 D363     		str	r3, [r2, #60]
 423              	.LVL30:
 424              		.loc 1 308 0
 425 0022 0120     		movs	r0, #1
 426              	.LVL31:
 427              	.LBE138:
 428              	.LBE148:
 429              	.LBB149:
 430              	.LBB147:
 431              	.LBB146:
 432              	.LBB145:
 433              	.LBB144:
 434              		.loc 3 546 0
 435 0024 0023     		movs	r3, #0
 436              	.LVL32:
 437              	@ 546 "ChibiOS_3.0.2/os/ext/CMSIS/include/core_cmFunc.h" 1
 438 0026 83F31188 		MSR basepri, r3
 439              	@ 0 "" 2
 440              		.thumb
 441              	.LBE144:
 442              	.LBE145:
 443              	.LBE146:
 444              	.LBE147:
 445              	.LBE149:
 446              		.loc 1 263 0
 447 002a 7047     		bx	lr
 448              	.L31:
 449              		.align	2
 450              	.L30:
 451 002c 00000000 		.word	ch
ARM GAS  /tmp/ccSFlF6o.s 			page 9


 452              		.cfi_endproc
 453              	.LFE222:
 454              		.size	chMtxTryLock, .-chMtxTryLock
 455              		.section	.text.chMtxTryLockS,"ax",%progbits
 456              		.align	2
 457              		.p2align 4,,15
 458              		.global	chMtxTryLockS
 459              		.thumb
 460              		.thumb_func
 461              		.type	chMtxTryLockS, %function
 462              	chMtxTryLockS:
 463              	.LFB223:
 464              		.loc 1 282 0
 465              		.cfi_startproc
 466              		@ args = 0, pretend = 0, frame = 0
 467              		@ frame_needed = 0, uses_anonymous_args = 0
 468              		@ link register save eliminated.
 469              	.LVL33:
 470              		.loc 1 287 0
 471 0000 8268     		ldr	r2, [r0, #8]
 472              		.loc 1 282 0
 473 0002 0346     		mov	r3, r0
 474              		.loc 1 287 0
 475 0004 0AB1     		cbz	r2, .L35
 476              		.loc 1 297 0
 477 0006 0020     		movs	r0, #0
 478              	.LVL34:
 479              		.loc 1 309 0
 480 0008 7047     		bx	lr
 481              	.LVL35:
 482              	.L35:
 483              		.loc 1 305 0
 484 000a 044A     		ldr	r2, .L36
 485 000c 9269     		ldr	r2, [r2, #24]
 486 000e 8260     		str	r2, [r0, #8]
 487              		.loc 1 306 0
 488 0010 D16B     		ldr	r1, [r2, #60]
 489 0012 C160     		str	r1, [r0, #12]
 490              		.loc 1 308 0
 491 0014 0120     		movs	r0, #1
 492              	.LVL36:
 493              		.loc 1 307 0
 494 0016 D363     		str	r3, [r2, #60]
 495              		.loc 1 308 0
 496 0018 7047     		bx	lr
 497              	.L37:
 498 001a 00BF     		.align	2
 499              	.L36:
 500 001c 00000000 		.word	ch
 501              		.cfi_endproc
 502              	.LFE223:
 503              		.size	chMtxTryLockS, .-chMtxTryLockS
 504              		.section	.text.chMtxUnlock,"ax",%progbits
 505              		.align	2
 506              		.p2align 4,,15
 507              		.global	chMtxUnlock
 508              		.thumb
ARM GAS  /tmp/ccSFlF6o.s 			page 10


 509              		.thumb_func
 510              		.type	chMtxUnlock, %function
 511              	chMtxUnlock:
 512              	.LFB224:
 513              		.loc 1 323 0
 514              		.cfi_startproc
 515              		@ args = 0, pretend = 0, frame = 0
 516              		@ frame_needed = 0, uses_anonymous_args = 0
 517              	.LVL37:
 518 0000 38B5     		push	{r3, r4, r5, lr}
 519              		.cfi_def_cfa_offset 16
 520              		.cfi_offset 3, -16
 521              		.cfi_offset 4, -12
 522              		.cfi_offset 5, -8
 523              		.cfi_offset 14, -4
 524              		.loc 1 324 0
 525 0002 174B     		ldr	r3, .L50
 526              		.loc 1 323 0
 527 0004 0446     		mov	r4, r0
 528              		.loc 1 324 0
 529 0006 9869     		ldr	r0, [r3, #24]
 530              	.LVL38:
 531              	.LBB150:
 532              	.LBB151:
 533              	.LBB152:
 534              	.LBB153:
 535              		.loc 3 546 0
 536 0008 2023     		movs	r3, #32
 537              	@ 546 "ChibiOS_3.0.2/os/ext/CMSIS/include/core_cmFunc.h" 1
 538 000a 83F31188 		MSR basepri, r3
 539              	@ 0 "" 2
 540              		.thumb
 541              	.LBE153:
 542              	.LBE152:
 543              	.LBE151:
 544              	.LBE150:
 545              	.LBB154:
 546              	.LBB155:
 547              	.LBB156:
 548              	.LBB157:
 549              		.loc 2 631 0
 550 000e 2568     		ldr	r5, [r4]
 551              	.LBE157:
 552              	.LBE156:
 553              	.LBE155:
 554              	.LBE154:
 555              		.loc 1 344 0
 556 0010 E368     		ldr	r3, [r4, #12]
 557 0012 C363     		str	r3, [r0, #60]
 558              	.LVL39:
 559              		.loc 1 347 0
 560 0014 AC42     		cmp	r4, r5
 561 0016 1CD0     		beq	.L39
 562              	.LBB158:
 563              		.loc 1 352 0
 564 0018 016C     		ldr	r1, [r0, #64]
 565              	.LVL40:
ARM GAS  /tmp/ccSFlF6o.s 			page 11


 566              		.loc 1 354 0
 567 001a 4BB1     		cbz	r3, .L40
 568              	.L42:
 569              	.LVL41:
 570              	.LBB159:
 571              	.LBB160:
 572              	.LBB161:
 573              	.LBB162:
 574              		.loc 2 631 0
 575 001c 1A68     		ldr	r2, [r3]
 576              	.LBE162:
 577              	.LBE161:
 578              	.LBE160:
 579              	.LBE159:
 580              		.loc 1 358 0
 581 001e 9342     		cmp	r3, r2
 582 0020 03D0     		beq	.L41
 583              		.loc 1 359 0 discriminator 1
 584 0022 9268     		ldr	r2, [r2, #8]
 585 0024 9142     		cmp	r1, r2
 586 0026 38BF     		it	cc
 587 0028 1146     		movcc	r1, r2
 588              	.LVL42:
 589              	.L41:
 590              		.loc 1 362 0
 591 002a DB68     		ldr	r3, [r3, #12]
 592              	.LVL43:
 593              		.loc 1 354 0
 594 002c 002B     		cmp	r3, #0
 595 002e F5D1     		bne	.L42
 596              	.L40:
 597              	.LBB163:
 598              	.LBB164:
 599              		.loc 2 674 0
 600 0030 2B68     		ldr	r3, [r5]
 601              	.LVL44:
 602              	.LBE164:
 603              	.LBE163:
 604              		.loc 1 376 0
 605 0032 EA6B     		ldr	r2, [r5, #60]
 606              		.loc 1 367 0
 607 0034 8160     		str	r1, [r0, #8]
 608              	.LVL45:
 609              	.LBB167:
 610              	.LBB165:
 611              		.loc 2 674 0
 612 0036 2360     		str	r3, [r4]
 613              	.LBE165:
 614              	.LBE167:
 615              		.loc 1 383 0
 616 0038 2846     		mov	r0, r5
 617              	.LVL46:
 618              	.LBB168:
 619              	.LBB166:
 620              		.loc 2 675 0
 621 003a 5C60     		str	r4, [r3, #4]
 622              	.LBE166:
ARM GAS  /tmp/ccSFlF6o.s 			page 12


 623              	.LBE168:
 624              		.loc 1 376 0
 625 003c E260     		str	r2, [r4, #12]
 626              		.loc 1 375 0
 627 003e A560     		str	r5, [r4, #8]
 628              		.loc 1 377 0
 629 0040 EC63     		str	r4, [r5, #60]
 630              		.loc 1 383 0
 631 0042 FFF7FEFF 		bl	chSchReadyI
 632              	.LVL47:
 633              		.loc 1 384 0
 634 0046 FFF7FEFF 		bl	chSchRescheduleS
 635              	.LVL48:
 636              	.LBE158:
 637              	.LBB169:
 638              	.LBB170:
 639              	.LBB171:
 640              	.LBB172:
 641              	.LBB173:
 642              		.loc 3 546 0
 643 004a 0023     		movs	r3, #0
 644              	@ 546 "ChibiOS_3.0.2/os/ext/CMSIS/include/core_cmFunc.h" 1
 645 004c 83F31188 		MSR basepri, r3
 646              	@ 0 "" 2
 647              		.thumb
 648 0050 38BD     		pop	{r3, r4, r5, pc}
 649              	.LVL49:
 650              	.L39:
 651              	.LBE173:
 652              	.LBE172:
 653              	.LBE171:
 654              	.LBE170:
 655              	.LBE169:
 656              		.loc 1 387 0
 657 0052 0023     		movs	r3, #0
 658 0054 A360     		str	r3, [r4, #8]
 659              	.LVL50:
 660              	.LBB178:
 661              	.LBB177:
 662              	.LBB176:
 663              	.LBB175:
 664              	.LBB174:
 665              		.loc 3 546 0
 666 0056 0023     		movs	r3, #0
 667              	@ 546 "ChibiOS_3.0.2/os/ext/CMSIS/include/core_cmFunc.h" 1
 668 0058 83F31188 		MSR basepri, r3
 669              	@ 0 "" 2
 670              		.thumb
 671 005c 38BD     		pop	{r3, r4, r5, pc}
 672              	.LVL51:
 673              	.L51:
 674 005e 00BF     		.align	2
 675              	.L50:
 676 0060 00000000 		.word	ch
 677              	.LBE174:
 678              	.LBE175:
 679              	.LBE176:
ARM GAS  /tmp/ccSFlF6o.s 			page 13


 680              	.LBE177:
 681              	.LBE178:
 682              		.cfi_endproc
 683              	.LFE224:
 684              		.size	chMtxUnlock, .-chMtxUnlock
 685 0064 AFF30080 		.section	.text.chMtxUnlockS,"ax",%progbits
 685      AFF30080 
 685      AFF30080 
 686              		.align	2
 687              		.p2align 4,,15
 688              		.global	chMtxUnlockS
 689              		.thumb
 690              		.thumb_func
 691              		.type	chMtxUnlockS, %function
 692              	chMtxUnlockS:
 693              	.LFB225:
 694              		.loc 1 410 0
 695              		.cfi_startproc
 696              		@ args = 0, pretend = 0, frame = 0
 697              		@ frame_needed = 0, uses_anonymous_args = 0
 698              		@ link register save eliminated.
 699              	.LVL52:
 700              		.loc 1 411 0
 701 0000 124B     		ldr	r3, .L63
 702              		.loc 1 410 0
 703 0002 30B4     		push	{r4, r5}
 704              		.cfi_def_cfa_offset 8
 705              		.cfi_offset 4, -8
 706              		.cfi_offset 5, -4
 707              		.loc 1 410 0
 708 0004 0446     		mov	r4, r0
 709              	.LBB179:
 710              	.LBB180:
 711              	.LBB181:
 712              	.LBB182:
 713              		.loc 2 631 0
 714 0006 0568     		ldr	r5, [r0]
 715              	.LBE182:
 716              	.LBE181:
 717              	.LBE180:
 718              	.LBE179:
 719              		.loc 1 411 0
 720 0008 9869     		ldr	r0, [r3, #24]
 721              	.LVL53:
 722              		.loc 1 430 0
 723 000a E368     		ldr	r3, [r4, #12]
 724 000c C363     		str	r3, [r0, #60]
 725              	.LVL54:
 726              		.loc 1 433 0
 727 000e AC42     		cmp	r4, r5
 728 0010 17D0     		beq	.L53
 729              	.LBB183:
 730              		.loc 1 438 0
 731 0012 016C     		ldr	r1, [r0, #64]
 732              	.LVL55:
 733              		.loc 1 440 0
 734 0014 4BB1     		cbz	r3, .L54
ARM GAS  /tmp/ccSFlF6o.s 			page 14


 735              	.L56:
 736              	.LVL56:
 737              	.LBB184:
 738              	.LBB185:
 739              	.LBB186:
 740              	.LBB187:
 741              		.loc 2 631 0
 742 0016 1A68     		ldr	r2, [r3]
 743              	.LBE187:
 744              	.LBE186:
 745              	.LBE185:
 746              	.LBE184:
 747              		.loc 1 444 0
 748 0018 9342     		cmp	r3, r2
 749 001a 03D0     		beq	.L55
 750              		.loc 1 445 0 discriminator 1
 751 001c 9268     		ldr	r2, [r2, #8]
 752 001e 9142     		cmp	r1, r2
 753 0020 38BF     		it	cc
 754 0022 1146     		movcc	r1, r2
 755              	.LVL57:
 756              	.L55:
 757              		.loc 1 448 0
 758 0024 DB68     		ldr	r3, [r3, #12]
 759              	.LVL58:
 760              		.loc 1 440 0
 761 0026 002B     		cmp	r3, #0
 762 0028 F5D1     		bne	.L56
 763              	.L54:
 764              	.LBB188:
 765              	.LBB189:
 766              		.loc 2 674 0
 767 002a 2B68     		ldr	r3, [r5]
 768              	.LVL59:
 769              	.LBE189:
 770              	.LBE188:
 771              		.loc 1 462 0
 772 002c EA6B     		ldr	r2, [r5, #60]
 773              		.loc 1 453 0
 774 002e 8160     		str	r1, [r0, #8]
 775              	.LVL60:
 776              	.LBB192:
 777              	.LBB190:
 778              		.loc 2 674 0
 779 0030 2360     		str	r3, [r4]
 780              	.LBE190:
 781              	.LBE192:
 782              		.loc 1 464 0
 783 0032 2846     		mov	r0, r5
 784              	.LVL61:
 785              	.LBB193:
 786              	.LBB191:
 787              		.loc 2 675 0
 788 0034 5C60     		str	r4, [r3, #4]
 789              	.LBE191:
 790              	.LBE193:
 791              		.loc 1 461 0
ARM GAS  /tmp/ccSFlF6o.s 			page 15


 792 0036 A560     		str	r5, [r4, #8]
 793              		.loc 1 462 0
 794 0038 E260     		str	r2, [r4, #12]
 795              		.loc 1 463 0
 796 003a EC63     		str	r4, [r5, #60]
 797              	.LBE183:
 798              		.loc 1 472 0
 799 003c 30BC     		pop	{r4, r5}
 800              	.LVL62:
 801              	.LBB194:
 802              		.loc 1 464 0
 803 003e FFF7FEBF 		b	chSchReadyI
 804              	.LVL63:
 805              	.L53:
 806              	.LBE194:
 807              		.loc 1 467 0
 808 0042 0023     		movs	r3, #0
 809 0044 A360     		str	r3, [r4, #8]
 810              		.loc 1 472 0
 811 0046 30BC     		pop	{r4, r5}
 812              	.LVL64:
 813 0048 7047     		bx	lr
 814              	.L64:
 815 004a 00BF     		.align	2
 816              	.L63:
 817 004c 00000000 		.word	ch
 818              		.cfi_endproc
 819              	.LFE225:
 820              		.size	chMtxUnlockS, .-chMtxUnlockS
 821              		.section	.text.chMtxUnlockAll,"ax",%progbits
 822              		.align	2
 823              		.p2align 4,,15
 824              		.global	chMtxUnlockAll
 825              		.thumb
 826              		.thumb_func
 827              		.type	chMtxUnlockAll, %function
 828              	chMtxUnlockAll:
 829              	.LFB226:
 830              		.loc 1 485 0
 831              		.cfi_startproc
 832              		@ args = 0, pretend = 0, frame = 0
 833              		@ frame_needed = 0, uses_anonymous_args = 0
 834              		.loc 1 486 0
 835 0000 134A     		ldr	r2, .L76
 836              		.loc 1 485 0
 837 0002 70B5     		push	{r4, r5, r6, lr}
 838              		.cfi_def_cfa_offset 16
 839              		.cfi_offset 4, -16
 840              		.cfi_offset 5, -12
 841              		.cfi_offset 6, -8
 842              		.cfi_offset 14, -4
 843              	.LBB195:
 844              	.LBB196:
 845              	.LBB197:
 846              	.LBB198:
 847              		.loc 3 546 0
 848 0004 2023     		movs	r3, #32
ARM GAS  /tmp/ccSFlF6o.s 			page 16


 849              	.LBE198:
 850              	.LBE197:
 851              	.LBE196:
 852              	.LBE195:
 853              		.loc 1 486 0
 854 0006 9469     		ldr	r4, [r2, #24]
 855              	.LVL65:
 856              	.LBB202:
 857              	.LBB201:
 858              	.LBB200:
 859              	.LBB199:
 860              		.loc 3 546 0
 861              	@ 546 "ChibiOS_3.0.2/os/ext/CMSIS/include/core_cmFunc.h" 1
 862 0008 83F31188 		MSR basepri, r3
 863              	@ 0 "" 2
 864              		.thumb
 865              	.LBE199:
 866              	.LBE200:
 867              	.LBE201:
 868              	.LBE202:
 869              		.loc 1 489 0
 870 000c E36B     		ldr	r3, [r4, #60]
 871 000e D3B1     		cbz	r3, .L66
 872              	.LBB203:
 873              		.loc 1 507 0
 874 0010 0026     		movs	r6, #0
 875 0012 0BE0     		b	.L70
 876              	.LVL66:
 877              	.L75:
 878              	.LBB204:
 879              	.LBB205:
 880              	.LBB206:
 881              		.loc 2 674 0
 882 0014 1168     		ldr	r1, [r2]
 883              	.LBE206:
 884              	.LBE205:
 885              		.loc 1 499 0
 886 0016 D56B     		ldr	r5, [r2, #60]
 887              	.LBB209:
 888              	.LBB207:
 889              		.loc 2 674 0
 890 0018 1960     		str	r1, [r3]
 891              	.LBE207:
 892              	.LBE209:
 893              		.loc 1 501 0
 894 001a 1046     		mov	r0, r2
 895              	.LBB210:
 896              	.LBB208:
 897              		.loc 2 675 0
 898 001c 4B60     		str	r3, [r1, #4]
 899              	.LBE208:
 900              	.LBE210:
 901              		.loc 1 498 0
 902 001e 9A60     		str	r2, [r3, #8]
 903              		.loc 1 499 0
 904 0020 DD60     		str	r5, [r3, #12]
 905              		.loc 1 500 0
ARM GAS  /tmp/ccSFlF6o.s 			page 17


 906 0022 D363     		str	r3, [r2, #60]
 907              		.loc 1 501 0
 908 0024 FFF7FEFF 		bl	chSchReadyI
 909              	.LVL67:
 910              	.LBE204:
 911              	.LBE203:
 912              		.loc 1 509 0
 913 0028 E36B     		ldr	r3, [r4, #60]
 914 002a 43B1     		cbz	r3, .L74
 915              	.L70:
 916              	.LVL68:
 917              	.LBB215:
 918              	.LBB211:
 919              	.LBB212:
 920              	.LBB213:
 921              	.LBB214:
 922              		.loc 2 631 0
 923 002c 1A68     		ldr	r2, [r3]
 924              	.LVL69:
 925              	.LBE214:
 926              	.LBE213:
 927              	.LBE212:
 928              	.LBE211:
 929              		.loc 1 492 0
 930 002e D968     		ldr	r1, [r3, #12]
 931 0030 E163     		str	r1, [r4, #60]
 932              	.LVL70:
 933              		.loc 1 493 0
 934 0032 9342     		cmp	r3, r2
 935 0034 EED1     		bne	.L75
 936              		.loc 1 507 0
 937 0036 9E60     		str	r6, [r3, #8]
 938              	.LBE215:
 939              		.loc 1 509 0
 940 0038 E36B     		ldr	r3, [r4, #60]
 941              	.LVL71:
 942 003a 002B     		cmp	r3, #0
 943 003c F6D1     		bne	.L70
 944              	.LVL72:
 945              	.L74:
 946              		.loc 1 510 0
 947 003e 236C     		ldr	r3, [r4, #64]
 948 0040 A360     		str	r3, [r4, #8]
 949              		.loc 1 511 0
 950 0042 FFF7FEFF 		bl	chSchRescheduleS
 951              	.LVL73:
 952              	.L66:
 953              	.LBB216:
 954              	.LBB217:
 955              	.LBB218:
 956              	.LBB219:
 957              	.LBB220:
 958              		.loc 3 546 0
 959 0046 0023     		movs	r3, #0
 960              	@ 546 "ChibiOS_3.0.2/os/ext/CMSIS/include/core_cmFunc.h" 1
 961 0048 83F31188 		MSR basepri, r3
 962              	@ 0 "" 2
ARM GAS  /tmp/ccSFlF6o.s 			page 18


 963              		.thumb
 964 004c 70BD     		pop	{r4, r5, r6, pc}
 965              	.LVL74:
 966              	.L77:
 967 004e 00BF     		.align	2
 968              	.L76:
 969 0050 00000000 		.word	ch
 970              	.LBE220:
 971              	.LBE219:
 972              	.LBE218:
 973              	.LBE217:
 974              	.LBE216:
 975              		.cfi_endproc
 976              	.LFE226:
 977              		.size	chMtxUnlockAll, .-chMtxUnlockAll
 978 0054 AFF30080 		.text
 978      AFF30080 
 978      AFF30080 
 979              	.Letext0:
 980              		.file 4 "/usr/include/newlib/machine/_default_types.h"
 981              		.file 5 "/usr/include/newlib/stdint.h"
 982              		.file 6 "ChibiOS_3.0.2/os/rt/ports/ARMCMx/compilers/GCC/chtypes.h"
 983              		.file 7 "ChibiOS_3.0.2/os/rt/include/chsystypes.h"
 984              		.file 8 "ChibiOS_3.0.2/os/rt/ports/ARMCMx/chcore.h"
 985              		.file 9 "ChibiOS_3.0.2/os/rt/ports/ARMCMx/chcore_v7m.h"
 986              		.file 10 "ChibiOS_3.0.2/os/rt/include/chtm.h"
 987              		.file 11 "ChibiOS_3.0.2/os/rt/include/chsem.h"
 988              		.file 12 "ChibiOS_3.0.2/os/rt/include/chmtx.h"
 989              		.file 13 "ChibiOS_3.0.2/os/rt/include/chsys.h"
 990              		.file 14 "ChibiOS_3.0.2/os/ext/CMSIS/include/core_cm4.h"