ARM GAS  /tmp/ccSFlF6o.s 			page 1


   1              		.syntax unified
   2              		.cpu cortex-m4
   3              		.eabi_attribute 27, 3
   4              		.eabi_attribute 28, 1
   5              		.fpu fpv4-sp-d16
   6              		.eabi_attribute 20, 1
   7              		.eabi_attribute 21, 1
   8              		.eabi_attribute 23, 3
   9              		.eabi_attribute 24, 1
  10              		.eabi_attribute 25, 1
  11              		.eabi_attribute 26, 1
  12              		.eabi_attribute 30, 2
  13              		.eabi_attribute 34, 1
  14              		.eabi_attribute 18, 4
  15              		.thumb
  16              		.file	"chmtx.c"
  17              		.text
  18              	.Ltext0:
  19              		.cfi_sections	.debug_frame
  20              		.section	.text.chMtxObjectInit,"ax",%progbits
  21              		.align	2
  22              		.p2align 4,,15
  23              		.global	chMtxObjectInit
  24              		.thumb
  25              		.thumb_func
  26              		.type	chMtxObjectInit, %function
  27              	chMtxObjectInit:
  28              	.LFB219:
  29              		.file 1 "ChibiOS_3.0.2/os/rt/src/chmtx.c"
  30              		.loc 1 103 0
  31              		.cfi_startproc
  32              		@ args = 0, pretend = 0, frame = 0
  33              		@ frame_needed = 0, uses_anonymous_args = 0
  34              		@ link register save eliminated.
  35              	.LVL0:
  36              		.loc 1 108 0
  37 0000 0023     		movs	r3, #0
  38              	.LBB103:
  39              	.LBB104:
  40              		.file 2 "ChibiOS_3.0.2/os/rt/include/chschd.h"
  41              		.loc 2 604 0
  42 0002 0060     		str	r0, [r0]
  43              		.loc 2 605 0
  44 0004 4060     		str	r0, [r0, #4]
  45              	.LBE104:
  46              	.LBE103:
  47              		.loc 1 108 0
  48 0006 8360     		str	r3, [r0, #8]
  49 0008 7047     		bx	lr
  50              		.cfi_endproc
  51              	.LFE219:
  52              		.size	chMtxObjectInit, .-chMtxObjectInit
  53 000a 00BFAFF3 		.section	.text.chMtxLockS,"ax",%progbits
  53      0080
  54              		.align	2
  55              		.p2align 4,,15
  56              		.global	chMtxLockS
ARM GAS  /tmp/ccSFlF6o.s 			page 2


  57              		.thumb
  58              		.thumb_func
  59              		.type	chMtxLockS, %function
  60              	chMtxLockS:
  61              	.LFB221:
  62              		.loc 1 139 0
  63              		.cfi_startproc
  64              		@ args = 0, pretend = 0, frame = 0
  65              		@ frame_needed = 0, uses_anonymous_args = 0
  66              	.LVL1:
  67 0000 70B5     		push	{r4, r5, r6, lr}
  68              		.cfi_def_cfa_offset 16
  69              		.cfi_offset 4, -16
  70              		.cfi_offset 5, -12
  71              		.cfi_offset 6, -8
  72              		.cfi_offset 14, -4
  73              		.loc 1 140 0
  74 0002 2F4B     		ldr	r3, .L23
  75              		.loc 1 139 0
  76 0004 0546     		mov	r5, r0
  77              		.loc 1 146 0
  78 0006 8068     		ldr	r0, [r0, #8]
  79              	.LVL2:
  80              		.loc 1 140 0
  81 0008 9C69     		ldr	r4, [r3, #24]
  82              	.LVL3:
  83              		.loc 1 146 0
  84 000a 0028     		cmp	r0, #0
  85 000c 53D0     		beq	.L3
  86              	.LVL4:
  87              	.LBB105:
  88              		.loc 1 165 0 discriminator 1
  89 000e A268     		ldr	r2, [r4, #8]
  90 0010 8368     		ldr	r3, [r0, #8]
  91 0012 9A42     		cmp	r2, r3
  92 0014 06D9     		bls	.L5
  93              	.L14:
  94              		.loc 1 170 0
  95 0016 037F     		ldrb	r3, [r0, #28]	@ zero_extendqisi2
  96              		.loc 1 167 0
  97 0018 8260     		str	r2, [r0, #8]
  98              		.loc 1 170 0
  99 001a 062B     		cmp	r3, #6
 100 001c 32D0     		beq	.L6
 101 001e 072B     		cmp	r3, #7
 102 0020 1CD0     		beq	.L7
 103 0022 9BB1     		cbz	r3, .L22
 104              	.LVL5:
 105              	.L5:
 106              	.LBB106:
 107              	.LBB107:
 108              		.loc 2 653 0
 109 0024 2B46     		mov	r3, r5
 110 0026 03E0     		b	.L20
 111              	.LVL6:
 112              	.L18:
 113              		.loc 2 656 0
ARM GAS  /tmp/ccSFlF6o.s 			page 3


 114 0028 9968     		ldr	r1, [r3, #8]
 115 002a A268     		ldr	r2, [r4, #8]
 116 002c 9142     		cmp	r1, r2
 117 002e 02D3     		bcc	.L19
 118              	.L20:
 119              		.loc 2 655 0
 120 0030 1B68     		ldr	r3, [r3]
 121              	.LVL7:
 122              		.loc 2 656 0
 123 0032 9D42     		cmp	r5, r3
 124 0034 F8D1     		bne	.L18
 125              	.L19:
 126              		.loc 2 658 0
 127 0036 5A68     		ldr	r2, [r3, #4]
 128 0038 6260     		str	r2, [r4, #4]
 129              		.loc 2 657 0
 130 003a 2360     		str	r3, [r4]
 131              		.loc 2 659 0
 132 003c 1460     		str	r4, [r2]
 133              		.loc 2 660 0
 134 003e 5C60     		str	r4, [r3, #4]
 135              	.LBE107:
 136              	.LBE106:
 137              		.loc 1 213 0
 138 0040 6562     		str	r5, [r4, #36]
 139              		.loc 1 214 0
 140 0042 0620     		movs	r0, #6
 141              	.LBE105:
 142              		.loc 1 236 0
 143 0044 BDE87040 		pop	{r4, r5, r6, lr}
 144              	.LVL8:
 145              	.LBB122:
 146              		.loc 1 214 0
 147 0048 FFF7FEBF 		b	chSchGoSleepS
 148              	.LVL9:
 149              	.L22:
 150              	.LBB108:
 151              	.LBB109:
 152              		.loc 2 691 0
 153 004c 90E80C00 		ldmia	r0, {r2, r3}
 154 0050 1A60     		str	r2, [r3]
 155              		.loc 2 692 0
 156 0052 0268     		ldr	r2, [r0]
 157 0054 5360     		str	r3, [r2, #4]
 158              	.LBE109:
 159              	.LBE108:
 160              		.loc 1 202 0
 161 0056 FFF7FEFF 		bl	chSchReadyI
 162              	.LVL10:
 163              		.loc 1 203 0
 164 005a E3E7     		b	.L5
 165              	.LVL11:
 166              	.L7:
 167              	.LBB110:
 168              	.LBB111:
 169              		.loc 2 691 0
 170 005c 90E80A00 		ldmia	r0, {r1, r3}
ARM GAS  /tmp/ccSFlF6o.s 			page 4


 171 0060 1960     		str	r1, [r3]
 172              	.LBE111:
 173              	.LBE110:
 174              		.loc 1 193 0
 175 0062 466A     		ldr	r6, [r0, #36]
 176              	.LVL12:
 177              	.LBB113:
 178              	.LBB112:
 179              		.loc 2 692 0
 180 0064 0168     		ldr	r1, [r0]
 181 0066 4B60     		str	r3, [r1, #4]
 182              	.LBE112:
 183              	.LBE113:
 184              	.LBB114:
 185              	.LBB115:
 186              		.loc 2 653 0
 187 0068 3346     		mov	r3, r6
 188 006a 02E0     		b	.L17
 189              	.LVL13:
 190              	.L15:
 191              		.loc 2 656 0
 192 006c 9968     		ldr	r1, [r3, #8]
 193 006e 8A42     		cmp	r2, r1
 194 0070 02D8     		bhi	.L16
 195              	.L17:
 196              		.loc 2 655 0
 197 0072 1B68     		ldr	r3, [r3]
 198              	.LVL14:
 199              		.loc 2 656 0
 200 0074 9E42     		cmp	r6, r3
 201 0076 F9D1     		bne	.L15
 202              	.L16:
 203              		.loc 2 658 0
 204 0078 5A68     		ldr	r2, [r3, #4]
 205 007a 4260     		str	r2, [r0, #4]
 206              		.loc 2 657 0
 207 007c 0360     		str	r3, [r0]
 208              		.loc 2 659 0
 209 007e 1060     		str	r0, [r2]
 210              		.loc 2 660 0
 211 0080 5860     		str	r0, [r3, #4]
 212 0082 CFE7     		b	.L5
 213              	.LVL15:
 214              	.L6:
 215              	.LBE115:
 216              	.LBE114:
 217              	.LBB116:
 218              	.LBB117:
 219              		.loc 2 691 0
 220 0084 90E80A00 		ldmia	r0, {r1, r3}
 221 0088 1960     		str	r1, [r3]
 222              	.LBE117:
 223              	.LBE116:
 224              		.loc 1 173 0
 225 008a 466A     		ldr	r6, [r0, #36]
 226              	.LVL16:
 227              	.LBB119:
ARM GAS  /tmp/ccSFlF6o.s 			page 5


 228              	.LBB118:
 229              		.loc 2 692 0
 230 008c 0168     		ldr	r1, [r0]
 231 008e 4B60     		str	r3, [r1, #4]
 232              	.LBE118:
 233              	.LBE119:
 234              	.LBB120:
 235              	.LBB121:
 236              		.loc 2 653 0
 237 0090 3346     		mov	r3, r6
 238 0092 02E0     		b	.L13
 239              	.LVL17:
 240              	.L9:
 241              		.loc 2 656 0
 242 0094 9968     		ldr	r1, [r3, #8]
 243 0096 9142     		cmp	r1, r2
 244 0098 02D3     		bcc	.L12
 245              	.L13:
 246              		.loc 2 655 0
 247 009a 1B68     		ldr	r3, [r3]
 248              	.LVL18:
 249              		.loc 2 656 0
 250 009c 9E42     		cmp	r6, r3
 251 009e F9D1     		bne	.L9
 252              	.L12:
 253              		.loc 2 658 0
 254 00a0 5A68     		ldr	r2, [r3, #4]
 255 00a2 4260     		str	r2, [r0, #4]
 256              		.loc 2 657 0
 257 00a4 0360     		str	r3, [r0]
 258              		.loc 2 659 0
 259 00a6 1060     		str	r0, [r2]
 260              		.loc 2 660 0
 261 00a8 5860     		str	r0, [r3, #4]
 262              	.LBE121:
 263              	.LBE120:
 264              		.loc 1 174 0
 265 00aa B068     		ldr	r0, [r6, #8]
 266              	.LVL19:
 267              		.loc 1 165 0
 268 00ac A268     		ldr	r2, [r4, #8]
 269 00ae 8368     		ldr	r3, [r0, #8]
 270              	.LVL20:
 271 00b0 9342     		cmp	r3, r2
 272 00b2 B0D3     		bcc	.L14
 273 00b4 B6E7     		b	.L5
 274              	.LVL21:
 275              	.L3:
 276              	.LBE122:
 277              		.loc 1 233 0
 278 00b6 E36B     		ldr	r3, [r4, #60]
 279 00b8 EB60     		str	r3, [r5, #12]
 280              		.loc 1 232 0
 281 00ba AC60     		str	r4, [r5, #8]
 282              		.loc 1 234 0
 283 00bc E563     		str	r5, [r4, #60]
 284 00be 70BD     		pop	{r4, r5, r6, pc}
ARM GAS  /tmp/ccSFlF6o.s 			page 6


 285              	.LVL22:
 286              	.L24:
 287              		.align	2
 288              	.L23:
 289 00c0 00000000 		.word	ch
 290              		.cfi_endproc
 291              	.LFE221:
 292              		.size	chMtxLockS, .-chMtxLockS
 293 00c4 AFF30080 		.section	.text.chMtxLock,"ax",%progbits
 293      AFF30080 
 293      AFF30080 
 294              		.align	2
 295              		.p2align 4,,15
 296              		.global	chMtxLock
 297              		.thumb
 298              		.thumb_func
 299              		.type	chMtxLock, %function
 300              	chMtxLock:
 301              	.LFB220:
 302              		.loc 1 123 0
 303              		.cfi_startproc
 304              		@ args = 0, pretend = 0, frame = 0
 305              		@ frame_needed = 0, uses_anonymous_args = 0
 306              	.LVL23:
 307 0000 08B5     		push	{r3, lr}
 308              		.cfi_def_cfa_offset 8
 309              		.cfi_offset 3, -8
 310              		.cfi_offset 14, -4
 311              	.LBB123:
 312              	.LBB124:
 313              	.LBB125:
 314              	.LBB126:
 315              		.file 3 "ChibiOS_3.0.2/os/ext/CMSIS/include/core_cmFunc.h"
 316              		.loc 3 546 0
 317 0002 2023     		movs	r3, #32
 318              	@ 546 "ChibiOS_3.0.2/os/ext/CMSIS/include/core_cmFunc.h" 1
 319 0004 83F31188 		MSR basepri, r3
 320              	@ 0 "" 2
 321              		.thumb
 322              	.LBE126:
 323              	.LBE125:
 324              	.LBE124:
 325              	.LBE123:
 326              		.loc 1 126 0
 327 0008 FFF7FEFF 		bl	chMtxLockS
 328              	.LVL24:
 329              	.LBB127:
 330              	.LBB128:
 331              	.LBB129:
 332              	.LBB130:
 333              	.LBB131:
 334              		.loc 3 546 0
 335 000c 0023     		movs	r3, #0
 336              	@ 546 "ChibiOS_3.0.2/os/ext/CMSIS/include/core_cmFunc.h" 1
 337 000e 83F31188 		MSR basepri, r3
 338              	@ 0 "" 2
 339              		.thumb
ARM GAS  /tmp/ccSFlF6o.s 			page 7


 340 0012 08BD     		pop	{r3, pc}
 341              	.LBE131:
 342              	.LBE130:
 343              	.LBE129:
 344              	.LBE128:
 345              	.LBE127:
 346              		.cfi_endproc
 347              	.LFE220:
 348              		.size	chMtxLock, .-chMtxLock
 349 0014 AFF30080 		.section	.text.chMtxTryLock,"ax",%progbits
 349      AFF30080 
 349      AFF30080 
 350              		.align	2
 351              		.p2align 4,,15
 352              		.global	chMtxTryLock
 353              		.thumb
 354              		.thumb_func
 355              		.type	chMtxTryLock, %function
 356              	chMtxTryLock:
 357              	.LFB222:
 358              		.loc 1 255 0
 359              		.cfi_startproc
 360              		@ args = 0, pretend = 0, frame = 0
 361              		@ frame_needed = 0, uses_anonymous_args = 0
 362              		@ link register save eliminated.
 363              	.LVL25:
 364              		.loc 1 255 0
 365 0000 0346     		mov	r3, r0
 366              	.LBB132:
 367              	.LBB133:
 368              	.LBB134:
 369              	.LBB135:
 370              		.loc 3 546 0
 371 0002 2022     		movs	r2, #32
 372              	@ 546 "ChibiOS_3.0.2/os/ext/CMSIS/include/core_cmFunc.h" 1
 373 0004 82F31188 		MSR basepri, r2
 374              	@ 0 "" 2
 375              	.LVL26:
 376              		.thumb
 377              	.LBE135:
 378              	.LBE134:
 379              	.LBE133:
 380              	.LBE132:
 381              	.LBB136:
 382              	.LBB137:
 383              		.loc 1 287 0
 384 0008 8268     		ldr	r2, [r0, #8]
 385 000a 22B1     		cbz	r2, .L29
 386              		.loc 1 297 0
 387 000c 0020     		movs	r0, #0
 388              	.LVL27:
 389              	.LBE137:
 390              	.LBE136:
 391              	.LBB139:
 392              	.LBB140:
 393              	.LBB141:
 394              	.LBB142:
ARM GAS  /tmp/ccSFlF6o.s 			page 8


 395              	.LBB143:
 396              		.loc 3 546 0
 397 000e 0023     		movs	r3, #0
 398              	.LVL28:
 399              	@ 546 "ChibiOS_3.0.2/os/ext/CMSIS/include/core_cmFunc.h" 1
 400 0010 83F31188 		MSR basepri, r3
 401              	@ 0 "" 2
 402              		.thumb
 403              	.LBE143:
 404              	.LBE142:
 405              	.LBE141:
 406              	.LBE140:
 407              	.LBE139:
 408              		.loc 1 263 0
 409 0014 7047     		bx	lr
 410              	.LVL29:
 411              	.L29:
 412              	.LBB148:
 413              	.LBB138:
 414              		.loc 1 305 0
 415 0016 054A     		ldr	r2, .L30
 416 0018 9269     		ldr	r2, [r2, #24]
 417 001a 8260     		str	r2, [r0, #8]
 418              		.loc 1 306 0
 419 001c D16B     		ldr	r1, [r2, #60]
 420 001e C160     		str	r1, [r0, #12]
 421              		.loc 1 307 0
 422 0020 D363     		str	r3, [r2, #60]
 423              	.LVL30:
 424              		.loc 1 308 0
 425 0022 0120     		movs	r0, #1
 426              	.LVL31:
 427              	.LBE138:
 428              	.LBE148:
 429              	.LBB149:
 430              	.LBB147:
 431              	.LBB146:
 432              	.LBB145:
 433              	.LBB144:
 434              		.loc 3 546 0
 435 0024 0023     		movs	r3, #0
 436              	.LVL32:
 437              	@ 546 "ChibiOS_3.0.2/os/ext/CMSIS/include/core_cmFunc.h" 1
 438 0026 83F31188 		MSR basepri, r3
 439              	@ 0 "" 2
 440              		.thumb
 441              	.LBE144:
 442              	.LBE145:
 443              	.LBE146:
 444              	.LBE147:
 445              	.LBE149:
 446              		.loc 1 263 0
 447 002a 7047     		bx	lr
 448              	.L31:
 449              		.align	2
 450              	.L30:
 451 002c 00000000 		.word	ch
ARM GAS  /tmp/ccSFlF6o.s 			page 9


 452              		.cfi_endproc
 453              	.LFE222:
 454              		.size	chMtxTryLock, .-chMtxTryLock
 455              		.section	.text.chMtxTryLockS,"ax",%progbits
 456              		.align	2
 457              		.p2align 4,,15
 458              		.global	chMtxTryLockS
 459              		.thumb
 460              		.thumb_func
 461              		.type	chMtxTryLockS, %function
 462              	chMtxTryLockS:
 463              	.LFB223:
 464              		.loc 1 282 0
 465              		.cfi_startproc
 466              		@ args = 0, pretend = 0, frame = 0
 467              		@ frame_needed = 0, uses_anonymous_args = 0
 468              		@ link register save eliminated.
 469              	.LVL33:
 470              		.loc 1 287 0
 471 0000 8268     		ldr	r2, [r0, #8]
 472              		.loc 1 282 0
 473 0002 0346     		mov	r3, r0
 474              		.loc 1 287 0
 475 0004 0AB1     		cbz	r2, .L35
 476              		.loc 1 297 0
 477 0006 0020     		movs	r0, #0
 478              	.LVL34:
 479              		.loc 1 309 0
 480 0008 7047     		bx	lr
 481              	.LVL35:
 482              	.L35:
 483              		.loc 1 305 0
 484 000a 044A     		ldr	r2, .L36
 485 000c 9269     		ldr	r2, [r2, #24]
 486 000e 8260     		str	r2, [r0, #8]
 487              		.loc 1 306 0
 488 0010 D16B     		ldr	r1, [r2, #60]
 489 0012 C160     		str	r1, [r0, #12]
 490              		.loc 1 308 0
 491 0014 0120     		movs	r0, #1
 492              	.LVL36:
 493              		.loc 1 307 0
 494 0016 D363     		str	r3, [r2, #60]
 495              		.loc 1 308 0
 496 0018 7047     		bx	lr
 497              	.L37:
 498 001a 00BF     		.align	2
 499              	.L36:
 500 001c 00000000 		.word	ch
 501              		.cfi_endproc
 502              	.LFE223:
 503              		.size	chMtxTryLockS, .-chMtxTryLockS
 504              		.section	.text.chMtxUnlock,"ax",%progbits
 505              		.align	2
 506              		.p2align 4,,15
 507              		.global	chMtxUnlock
 508              		.thumb
ARM GAS  /tmp/ccSFlF6o.s 			page 10


 509              		.thumb_func
 510              		.type	chMtxUnlock, %function
 511              	chMtxUnlock:
 512              	.LFB224:
 513              		.loc 1 323 0
 514              		.cfi_startproc
 515              		@ args = 0, pretend = 0, frame = 0
 516              		@ frame_needed = 0, uses_anonymous_args = 0
 517              	.LVL37:
 518 0000 38B5     		push	{r3, r4, r5, lr}
 519              		.cfi_def_cfa_offset 16
 520              		.cfi_offset 3, -16
 521              		.cfi_offset 4, -12
 522              		.cfi_offset 5, -8
 523              		.cfi_offset 14, -4
 524              		.loc 1 324 0
 525 0002 174B     		ldr	r3, .L50
 526              		.loc 1 323 0
 527 0004 0446     		mov	r4, r0
 528              		.loc 1 324 0
 529 0006 9869     		ldr	r0, [r3, #24]
 530              	.LVL38:
 531              	.LBB150:
 532              	.LBB151:
 533              	.LBB152:
 534              	.LBB153:
 535              		.loc 3 546 0
 536 0008 2023     		movs	r3, #32
 537              	@ 546 "ChibiOS_3.0.2/os/ext/CMSIS/include/core_cmFunc.h" 1
 538 000a 83F31188 		MSR basepri, r3
 539              	@ 0 "" 2
 540              		.thumb
 541              	.LBE153:
 542              	.LBE152:
 543              	.LBE151:
 544              	.LBE150:
 545              	.LBB154:
 546              	.LBB155:
 547              	.LBB156:
 548              	.LBB157:
 549              		.loc 2 631 0
 550 000e 2568     		ldr	r5, [r4]
 551              	.LBE157:
 552              	.LBE156:
 553              	.LBE155:
 554              	.LBE154:
 555              		.loc 1 344 0
 556 0010 E368     		ldr	r3, [r4, #12]
 557 0012 C363     		str	r3, [r0, #60]
 558              	.LVL39:
 559              		.loc 1 347 0
 560 0014 AC42     		cmp	r4, r5
 561 0016 1CD0     		beq	.L39
 562              	.LBB158:
 563              		.loc 1 352 0
 564 0018 016C     		ldr	r1, [r0, #64]
 565              	.LVL40:
ARM GAS  /tmp/ccSFlF6o.s 			page 11


 566              		.loc 1 354 0
 567 001a 4BB1     		cbz	r3, .L40
 568              	.L42:
 569              	.LVL41:
 570              	.LBB159:
 571              	.LBB160:
 572              	.LBB161:
 573              	.LBB162:
 574              		.loc 2 631 0
 575 001c 1A68     		ldr	r2, [r3]
 576              	.LBE162:
 577              	.LBE161:
 578              	.LBE160:
 579              	.LBE159:
 580              		.loc 1 358 0
 581 001e 9342     		cmp	r3, r2
 582 0020 03D0     		beq	.L41
 583              		.loc 1 359 0 discriminator 1
 584 0022 9268     		ldr	r2, [r2, #8]
 585 0024 9142     		cmp	r1, r2
 586 0026 38BF     		it	cc
 587 0028 1146     		movcc	r1, r2
 588              	.LVL42:
 589              	.L41:
 590              		.loc 1 362 0
 591 002a DB68     		ldr	r3, [r3, #12]
 592              	.LVL43:
 593              		.loc 1 354 0
 594 002c 002B     		cmp	r3, #0
 595 002e F5D1     		bne	.L42
 596              	.L40:
 597              	.LBB163:
 598              	.LBB164:
 599              		.loc 2 674 0
 600 0030 2B68     		ldr	r3, [r5]
 601              	.LVL44:
 602              	.LBE164:
 603              	.LBE163:
 604              		.loc 1 376 0
 605 0032 EA6B     		ldr	r2, [r5, #60]
 606              		.loc 1 367 0
 607 0034 8160     		str	r1, [r0, #8]
 608              	.LVL45:
 609              	.LBB167:
 610              	.LBB165:
 611              		.loc 2 674 0
 612 0036 2360     		str	r3, [r4]
 613              	.LBE165:
 614              	.LBE167:
 615              		.loc 1 383 0
 616 0038 2846     		mov	r0, r5
 617              	.LVL46:
 618              	.LBB168:
 619              	.LBB166:
 620              		.loc 2 675 0
 621 003a 5C60     		str	r4, [r3, #4]
 622              	.LBE166:
ARM GAS  /tmp/ccSFlF6o.s 			page 12


 623              	.LBE168:
 624              		.loc 1 376 0
 625 003c E260     		str	r2, [r4, #12]
 626              		.loc 1 375 0
 627 003e A560     		str	r5, [r4, #8]
 628              		.loc 1 377 0
 629 0040 EC63     		str	r4, [r5, #60]
 630              		.loc 1 383 0
 631 0042 FFF7FEFF 		bl	chSchReadyI
 632              	.LVL47:
 633              		.loc 1 384 0
 634 0046 FFF7FEFF 		bl	chSchRescheduleS
 635              	.LVL48:
 636              	.LBE158:
 637              	.LBB169:
 638              	.LBB170:
 639              	.LBB171:
 640              	.LBB172:
 641              	.LBB173:
 642              		.loc 3 546 0
 643 004a 0023     		movs	r3, #0
 644              	@ 546 "ChibiOS_3.0.2/os/ext/CMSIS/include/core_cmFunc.h" 1
 645 004c 83F31188 		MSR basepri, r3
 646              	@ 0 "" 2
 647              		.thumb
 648 0050 38BD     		pop	{r3, r4, r5, pc}
 649              	.LVL49:
 650              	.L39:
 651              	.LBE173:
 652              	.LBE172:
 653              	.LBE171:
 654              	.LBE170:
 655              	.LBE169:
 656              		.loc 1 387 0
 657 0052 0023     		movs	r3, #0
 658 0054 A360     		str	r3, [r4, #8]
 659              	.LVL50:
 660              	.LBB178:
 661              	.LBB177:
 662              	.LBB176:
 663              	.LBB175:
 664              	.LBB174:
 665              		.loc 3 546 0
 666 0056 0023     		movs	r3, #0
 667              	@ 546 "ChibiOS_3.0.2/os/ext/CMSIS/include/core_cmFunc.h" 1
 668 0058 83F31188 		MSR basepri, r3
 669              	@ 0 "" 2
 670              		.thumb
 671 005c 38BD     		pop	{r3, r4, r5, pc}
 672              	.LVL51:
 673              	.L51:
 674 005e 00BF     		.align	2
 675              	.L50:
 676 0060 00000000 		.word	ch
 677              	.LBE174:
 678              	.LBE175:
 679              	.LBE176:
ARM GAS  /tmp/ccSFlF6o.s 			page 13


 680              	.LBE177:
 681              	.LBE178:
 682              		.cfi_endproc
 683              	.LFE224:
 684              		.size	chMtxUnlock, .-chMtxUnlock
 685 0064 AFF30080 		.section	.text.chMtxUnlockS,"ax",%progbits
 685      AFF30080 
 685      AFF30080 
 686              		.align	2
 687              		.p2align 4,,15
 688              		.global	chMtxUnlockS
 689              		.thumb
 690              		.thumb_func
 691              		.type	chMtxUnlockS, %function
 692              	chMtxUnlockS:
 693              	.LFB225:
 694              		.loc 1 410 0
 695              		.cfi_startproc
 696              		@ args = 0, pretend = 0, frame = 0
 697              		@ frame_needed = 0, uses_anonymous_args = 0
 698              		@ link register save eliminated.
 699              	.LVL52:
 700              		.loc 1 411 0
 701 0000 124B     		ldr	r3, .L63
 702              		.loc 1 410 0
 703 0002 30B4     		push	{r4, r5}
 704              		.cfi_def_cfa_offset 8
 705              		.cfi_offset 4, -8
 706              		.cfi_offset 5, -4
 707              		.loc 1 410 0
 708 0004 0446     		mov	r4, r0
 709              	.LBB179:
 710              	.LBB180:
 711              	.LBB181:
 712              	.LBB182:
 713              		.loc 2 631 0
 714 0006 0568     		ldr	r5, [r0]
 715              	.LBE182:
 716              	.LBE181:
 717              	.LBE180:
 718              	.LBE179:
 719              		.loc 1 411 0
 720 0008 9869     		ldr	r0, [r3, #24]
 721              	.LVL53:
 722              		.loc 1 430 0
 723 000a E368     		ldr	r3, [r4, #12]
 724 000c C363     		str	r3, [r0, #60]
 725              	.LVL54:
 726              		.loc 1 433 0
 727 000e AC42     		cmp	r4, r5
 728 0010 17D0     		beq	.L53
 729              	.LBB183:
 730              		.loc 1 438 0
 731 0012 016C     		ldr	r1, [r0, #64]
 732              	.LVL55:
 733              		.loc 1 440 0
 734 0014 4BB1     		cbz	r3, .L54
ARM GAS  /tmp/ccSFlF6o.s 			page 14


 735              	.L56:
 736              	.LVL56:
 737              	.LBB184:
 738              	.LBB185:
 739              	.LBB186:
 740              	.LBB187:
 741              		.loc 2 631 0
 742 0016 1A68     		ldr	r2, [r3]
 743              	.LBE187:
 744              	.LBE186:
 745              	.LBE185:
 746              	.LBE184:
 747              		.loc 1 444 0
 748 0018 9342     		cmp	r3, r2
 749 001a 03D0     		beq	.L55
 750              		.loc 1 445 0 discriminator 1
 751 001c 9268     		ldr	r2, [r2, #8]
 752 001e 9142     		cmp	r1, r2
 753 0020 38BF     		it	cc
 754 0022 1146     		movcc	r1, r2
 755              	.LVL57:
 756              	.L55:
 757              		.loc 1 448 0
 758 0024 DB68     		ldr	r3, [r3, #12]
 759              	.LVL58:
 760              		.loc 1 440 0
 761 0026 002B     		cmp	r3, #0
 762 0028 F5D1     		bne	.L56
 763              	.L54:
 764              	.LBB188:
 765              	.LBB189:
 766              		.loc 2 674 0
 767 002a 2B68     		ldr	r3, [r5]
 768              	.LVL59:
 769              	.LBE189:
 770              	.LBE188:
 771              		.loc 1 462 0
 772 002c EA6B     		ldr	r2, [r5, #60]
 773              		.loc 1 453 0
 774 002e 8160     		str	r1, [r0, #8]
 775              	.LVL60:
 776              	.LBB192:
 777              	.LBB190:
 778              		.loc 2 674 0
 779 0030 2360     		str	r3, [r4]
 780              	.LBE190:
 781              	.LBE192:
 782              		.loc 1 464 0
 783 0032 2846     		mov	r0, r5
 784              	.LVL61:
 785              	.LBB193:
 786              	.LBB191:
 787              		.loc 2 675 0
 788 0034 5C60     		str	r4, [r3, #4]
 789              	.LBE191:
 790              	.LBE193:
 791              		.loc 1 461 0
ARM GAS  /tmp/ccSFlF6o.s 			page 15


 792 0036 A560     		str	r5, [r4, #8]
 793              		.loc 1 462 0
 794 0038 E260     		str	r2, [r4, #12]
 795              		.loc 1 463 0
 796 003a EC63     		str	r4, [r5, #60]
 797              	.LBE183:
 798              		.loc 1 472 0
 799 003c 30BC     		pop	{r4, r5}
 800              	.LVL62:
 801              	.LBB194:
 802              		.loc 1 464 0
 803 003e FFF7FEBF 		b	chSchReadyI
 804              	.LVL63:
 805              	.L53:
 806              	.LBE194:
 807              		.loc 1 467 0
 808 0042 0023     		movs	r3, #0
 809 0044 A360     		str	r3, [r4, #8]
 810              		.loc 1 472 0
 811 0046 30BC     		pop	{r4, r5}
 812              	.LVL64:
 813 0048 7047     		bx	lr
 814              	.L64:
 815 004a 00BF     		.align	2
 816              	.L63:
 817 004c 00000000 		.word	ch
 818              		.cfi_endproc
 819              	.LFE225:
 820              		.size	chMtxUnlockS, .-chMtxUnlockS
 821              		.section	.text.chMtxUnlockAll,"ax",%progbits
 822              		.align	2
 823              		.p2align 4,,15
 824              		.global	chMtxUnlockAll
 825              		.thumb
 826              		.thumb_func
 827              		.type	chMtxUnlockAll, %function
 828              	chMtxUnlockAll:
 829              	.LFB226:
 830              		.loc 1 485 0
 831              		.cfi_startproc
 832              		@ args = 0, pretend = 0, frame = 0
 833              		@ frame_needed = 0, uses_anonymous_args = 0
 834              		.loc 1 486 0
 835 0000 134A     		ldr	r2, .L76
 836              		.loc 1 485 0
 837 0002 70B5     		push	{r4, r5, r6, lr}
 838              		.cfi_def_cfa_offset 16
 839              		.cfi_offset 4, -16
 840              		.cfi_offset 5, -12
 841              		.cfi_offset 6, -8
 842              		.cfi_offset 14, -4
 843              	.LBB195:
 844              	.LBB196:
 845              	.LBB197:
 846              	.LBB198:
 847              		.loc 3 546 0
 848 0004 2023     		movs	r3, #32
ARM GAS  /tmp/ccSFlF6o.s 			page 16


 849              	.LBE198:
 850              	.LBE197:
 851              	.LBE196:
 852              	.LBE195:
 853              		.loc 1 486 0
 854 0006 9469     		ldr	r4, [r2, #24]
 855              	.LVL65:
 856              	.LBB202:
 857              	.LBB201:
 858              	.LBB200:
 859              	.LBB199:
 860              		.loc 3 546 0
 861              	@ 546 "ChibiOS_3.0.2/os/ext/CMSIS/include/core_cmFunc.h" 1
 862 0008 83F31188 		MSR basepri, r3
 863              	@ 0 "" 2
 864              		.thumb
 865              	.LBE199:
 866              	.LBE200:
 867              	.LBE201:
 868              	.LBE202:
 869              		.loc 1 489 0
 870 000c E36B     		ldr	r3, [r4, #60]
 871 000e D3B1     		cbz	r3, .L66
 872              	.LBB203:
 873              		.loc 1 507 0
 874 0010 0026     		movs	r6, #0
 875 0012 0BE0     		b	.L70
 876              	.LVL66:
 877              	.L75:
 878              	.LBB204:
 879              	.LBB205:
 880              	.LBB206:
 881              		.loc 2 674 0
 882 0014 1168     		ldr	r1, [r2]
 883              	.LBE206:
 884              	.LBE205:
 885              		.loc 1 499 0
 886 0016 D56B     		ldr	r5, [r2, #60]
 887              	.LBB209:
 888              	.LBB207:
 889              		.loc 2 674 0
 890 0018 1960     		str	r1, [r3]
 891              	.LBE207:
 892              	.LBE209:
 893              		.loc 1 501 0
 894 001a 1046     		mov	r0, r2
 895              	.LBB210:
 896              	.LBB208:
 897              		.loc 2 675 0
 898 001c 4B60     		str	r3, [r1, #4]
 899              	.LBE208:
 900              	.LBE210:
 901              		.loc 1 498 0
 902 001e 9A60     		str	r2, [r3, #8]
 903              		.loc 1 499 0
 904 0020 DD60     		str	r5, [r3, #12]
 905              		.loc 1 500 0
ARM GAS  /tmp/ccSFlF6o.s 			page 17


 906 0022 D363     		str	r3, [r2, #60]
 907              		.loc 1 501 0
 908 0024 FFF7FEFF 		bl	chSchReadyI
 909              	.LVL67:
 910              	.LBE204:
 911              	.LBE203:
 912              		.loc 1 509 0
 913 0028 E36B     		ldr	r3, [r4, #60]
 914 002a 43B1     		cbz	r3, .L74
 915              	.L70:
 916              	.LVL68:
 917              	.LBB215:
 918              	.LBB211:
 919              	.LBB212:
 920              	.LBB213:
 921              	.LBB214:
 922              		.loc 2 631 0
 923 002c 1A68     		ldr	r2, [r3]
 924              	.LVL69:
 925              	.LBE214:
 926              	.LBE213:
 927              	.LBE212:
 928              	.LBE211:
 929              		.loc 1 492 0
 930 002e D968     		ldr	r1, [r3, #12]
 931 0030 E163     		str	r1, [r4, #60]
 932              	.LVL70:
 933              		.loc 1 493 0
 934 0032 9342     		cmp	r3, r2
 935 0034 EED1     		bne	.L75
 936              		.loc 1 507 0
 937 0036 9E60     		str	r6, [r3, #8]
 938              	.LBE215:
 939              		.loc 1 509 0
 940 0038 E36B     		ldr	r3, [r4, #60]
 941              	.LVL71:
 942 003a 002B     		cmp	r3, #0
 943 003c F6D1     		bne	.L70
 944              	.LVL72:
 945              	.L74:
 946              		.loc 1 510 0
 947 003e 236C     		ldr	r3, [r4, #64]
 948 0040 A360     		str	r3, [r4, #8]
 949              		.loc 1 511 0
 950 0042 FFF7FEFF 		bl	chSchRescheduleS
 951              	.LVL73:
 952              	.L66:
 953              	.LBB216:
 954              	.LBB217:
 955              	.LBB218:
 956              	.LBB219:
 957              	.LBB220:
 958              		.loc 3 546 0
 959 0046 0023     		movs	r3, #0
 960              	@ 546 "ChibiOS_3.0.2/os/ext/CMSIS/include/core_cmFunc.h" 1
 961 0048 83F31188 		MSR basepri, r3
 962              	@ 0 "" 2
ARM GAS  /tmp/ccSFlF6o.s 			page 18


 963              		.thumb
 964 004c 70BD     		pop	{r4, r5, r6, pc}
 965              	.LVL74:
 966              	.L77:
 967 004e 00BF     		.align	2
 968              	.L76:
 969 0050 00000000 		.word	ch
 970              	.LBE220:
 971              	.LBE219:
 972              	.LBE218:
 973              	.LBE217:
 974              	.LBE216:
 975              		.cfi_endproc
 976              	.LFE226:
 977              		.size	chMtxUnlockAll, .-chMtxUnlockAll
 978 0054 AFF30080 		.text
 978      AFF30080 
 978      AFF30080 
 979              	.Letext0:
 980              		.file 4 "/usr/include/newlib/machine/_default_types.h"
 981              		.file 5 "/usr/include/newlib/stdint.h"
 982              		.file 6 "ChibiOS_3.0.2/os/rt/ports/ARMCMx/compilers/GCC/chtypes.h"
 983              		.file 7 "ChibiOS_3.0.2/os/rt/include/chsystypes.h"
 984              		.file 8 "ChibiOS_3.0.2/os/rt/ports/ARMCMx/chcore.h"
 985              		.file 9 "ChibiOS_3.0.2/os/rt/ports/ARMCMx/chcore_v7m.h"
 986              		.file 10 "ChibiOS_3.0.2/os/rt/include/chtm.h"
 987              		.file 11 "ChibiOS_3.0.2/os/rt/include/chsem.h"
 988              		.file 12 "ChibiOS_3.0.2/os/rt/include/chmtx.h"
 989              		.file 13 "ChibiOS_3.0.2/os/rt/include/chsys.h"
 990              		.file 14 "ChibiOS_3.0.2/os/ext/CMSIS/include/core_cm4.h"
 991              		.section	.debug_info,"",%progbits
 992              	.Ldebug_info0:
 993 0000 9F100000 		.4byte	0x109f
 994 0004 0400     		.2byte	0x4
 995 0006 00000000 		.4byte	.Ldebug_abbrev0
 996 000a 04       		.byte	0x4
 997 000b 01       		.uleb128 0x1
 998 000c 49010000 		.4byte	.LASF128
 999 0010 01       		.byte	0x1
 1000 0011 FA050000 		.4byte	.LASF129
 1001 0015 8B020000 		.4byte	.LASF130
 1002 0019 38010000 		.4byte	.Ldebug_ranges0+0x138
 1003 001d 00000000 		.4byte	0
 1004 0021 00000000 		.4byte	.Ldebug_line0
 1005 0025 02       		.uleb128 0x2
 1006 0026 04       		.byte	0x4
 1007 0027 05       		.byte	0x5
 1008 0028 696E7400 		.ascii	"int\000"
 1009 002c 03       		.uleb128 0x3
 1010 002d 04       		.byte	0x4
 1011 002e 07       		.byte	0x7
 1012 002f E8020000 		.4byte	.LASF0
 1013 0033 03       		.uleb128 0x3
 1014 0034 01       		.byte	0x1
 1015 0035 06       		.byte	0x6
 1016 0036 D7000000 		.4byte	.LASF1
 1017 003a 04       		.uleb128 0x4
ARM GAS  /tmp/ccSFlF6o.s 			page 19


 1018 003b 23000000 		.4byte	.LASF5
 1019 003f 04       		.byte	0x4
 1020 0040 1D       		.byte	0x1d
 1021 0041 45000000 		.4byte	0x45
 1022 0045 03       		.uleb128 0x3
 1023 0046 01       		.byte	0x1
 1024 0047 08       		.byte	0x8
 1025 0048 AB040000 		.4byte	.LASF2
 1026 004c 03       		.uleb128 0x3
 1027 004d 02       		.byte	0x2
 1028 004e 05       		.byte	0x5
 1029 004f CB040000 		.4byte	.LASF3
 1030 0053 03       		.uleb128 0x3
 1031 0054 02       		.byte	0x2
 1032 0055 07       		.byte	0x7
 1033 0056 25030000 		.4byte	.LASF4
 1034 005a 04       		.uleb128 0x4
 1035 005b 9A030000 		.4byte	.LASF6
 1036 005f 04       		.byte	0x4
 1037 0060 3F       		.byte	0x3f
 1038 0061 65000000 		.4byte	0x65
 1039 0065 03       		.uleb128 0x3
 1040 0066 04       		.byte	0x4
 1041 0067 05       		.byte	0x5
 1042 0068 1A010000 		.4byte	.LASF7
 1043 006c 04       		.uleb128 0x4
 1044 006d CA050000 		.4byte	.LASF8
 1045 0071 04       		.byte	0x4
 1046 0072 41       		.byte	0x41
 1047 0073 77000000 		.4byte	0x77
 1048 0077 03       		.uleb128 0x3
 1049 0078 04       		.byte	0x4
 1050 0079 07       		.byte	0x7
 1051 007a 7A050000 		.4byte	.LASF9
 1052 007e 03       		.uleb128 0x3
 1053 007f 08       		.byte	0x8
 1054 0080 05       		.byte	0x5
 1055 0081 B2020000 		.4byte	.LASF10
 1056 0085 04       		.uleb128 0x4
 1057 0086 4B040000 		.4byte	.LASF11
 1058 008a 04       		.byte	0x4
 1059 008b 5B       		.byte	0x5b
 1060 008c 90000000 		.4byte	0x90
 1061 0090 03       		.uleb128 0x3
 1062 0091 08       		.byte	0x8
 1063 0092 07       		.byte	0x7
 1064 0093 5D000000 		.4byte	.LASF12
 1065 0097 04       		.uleb128 0x4
 1066 0098 57060000 		.4byte	.LASF13
 1067 009c 05       		.byte	0x5
 1068 009d 2A       		.byte	0x2a
 1069 009e 3A000000 		.4byte	0x3a
 1070 00a2 04       		.uleb128 0x4
 1071 00a3 A3040000 		.4byte	.LASF14
 1072 00a7 05       		.byte	0x5
 1073 00a8 41       		.byte	0x41
 1074 00a9 5A000000 		.4byte	0x5a
ARM GAS  /tmp/ccSFlF6o.s 			page 20


 1075 00ad 04       		.uleb128 0x4
 1076 00ae 46050000 		.4byte	.LASF15
 1077 00b2 05       		.byte	0x5
 1078 00b3 42       		.byte	0x42
 1079 00b4 6C000000 		.4byte	0x6c
 1080 00b8 04       		.uleb128 0x4
 1081 00b9 1A000000 		.4byte	.LASF16
 1082 00bd 05       		.byte	0x5
 1083 00be 4E       		.byte	0x4e
 1084 00bf 85000000 		.4byte	0x85
 1085 00c3 05       		.uleb128 0x5
 1086 00c4 A2000000 		.4byte	0xa2
 1087 00c8 04       		.uleb128 0x4
 1088 00c9 22060000 		.4byte	.LASF17
 1089 00cd 06       		.byte	0x6
 1090 00ce 45       		.byte	0x45
 1091 00cf AD000000 		.4byte	0xad
 1092 00d3 04       		.uleb128 0x4
 1093 00d4 6B030000 		.4byte	.LASF18
 1094 00d8 06       		.byte	0x6
 1095 00d9 48       		.byte	0x48
 1096 00da 97000000 		.4byte	0x97
 1097 00de 04       		.uleb128 0x4
 1098 00df 31010000 		.4byte	.LASF19
 1099 00e3 06       		.byte	0x6
 1100 00e4 49       		.byte	0x49
 1101 00e5 97000000 		.4byte	0x97
 1102 00e9 04       		.uleb128 0x4
 1103 00ea 56040000 		.4byte	.LASF20
 1104 00ee 06       		.byte	0x6
 1105 00ef 4A       		.byte	0x4a
 1106 00f0 97000000 		.4byte	0x97
 1107 00f4 04       		.uleb128 0x4
 1108 00f5 06010000 		.4byte	.LASF21
 1109 00f9 06       		.byte	0x6
 1110 00fa 4B       		.byte	0x4b
 1111 00fb 97000000 		.4byte	0x97
 1112 00ff 04       		.uleb128 0x4
 1113 0100 75040000 		.4byte	.LASF22
 1114 0104 06       		.byte	0x6
 1115 0105 4C       		.byte	0x4c
 1116 0106 AD000000 		.4byte	0xad
 1117 010a 04       		.uleb128 0x4
 1118 010b 42030000 		.4byte	.LASF23
 1119 010f 06       		.byte	0x6
 1120 0110 4D       		.byte	0x4d
 1121 0111 A2000000 		.4byte	0xa2
 1122 0115 04       		.uleb128 0x4
 1123 0116 81030000 		.4byte	.LASF24
 1124 011a 06       		.byte	0x6
 1125 011b 4F       		.byte	0x4f
 1126 011c AD000000 		.4byte	0xad
 1127 0120 04       		.uleb128 0x4
 1128 0121 D5020000 		.4byte	.LASF25
 1129 0125 06       		.byte	0x6
 1130 0126 51       		.byte	0x51
 1131 0127 A2000000 		.4byte	0xa2
ARM GAS  /tmp/ccSFlF6o.s 			page 21


 1132 012b 04       		.uleb128 0x4
 1133 012c AC050000 		.4byte	.LASF26
 1134 0130 07       		.byte	0x7
 1135 0131 33       		.byte	0x33
 1136 0132 AD000000 		.4byte	0xad
 1137 0136 04       		.uleb128 0x4
 1138 0137 91050000 		.4byte	.LASF27
 1139 013b 07       		.byte	0x7
 1140 013c 3F       		.byte	0x3f
 1141 013d 41010000 		.4byte	0x141
 1142 0141 06       		.uleb128 0x6
 1143 0142 38030000 		.4byte	.LASF49
 1144 0146 48       		.byte	0x48
 1145 0147 02       		.byte	0x2
 1146 0148 C2       		.byte	0xc2
 1147 0149 46020000 		.4byte	0x246
 1148 014d 07       		.uleb128 0x7
 1149 014e ED040000 		.4byte	.LASF28
 1150 0152 02       		.byte	0x2
 1151 0153 C3       		.byte	0xc3
 1152 0154 51020000 		.4byte	0x251
 1153 0158 00       		.byte	0
 1154 0159 07       		.uleb128 0x7
 1155 015a 6E040000 		.4byte	.LASF29
 1156 015e 02       		.byte	0x2
 1157 015f C5       		.byte	0xc5
 1158 0160 51020000 		.4byte	0x251
 1159 0164 04       		.byte	0x4
 1160 0165 07       		.uleb128 0x7
 1161 0166 BC000000 		.4byte	.LASF30
 1162 016a 02       		.byte	0x2
 1163 016b C7       		.byte	0xc7
 1164 016c FF000000 		.4byte	0xff
 1165 0170 08       		.byte	0x8
 1166 0171 07       		.uleb128 0x7
 1167 0172 AF060000 		.4byte	.LASF31
 1168 0176 02       		.byte	0x2
 1169 0177 C8       		.byte	0xc8
 1170 0178 81040000 		.4byte	0x481
 1171 017c 0C       		.byte	0xc
 1172 017d 07       		.uleb128 0x7
 1173 017e 51020000 		.4byte	.LASF32
 1174 0182 02       		.byte	0x2
 1175 0183 CA       		.byte	0xca
 1176 0184 51020000 		.4byte	0x251
 1177 0188 10       		.byte	0x10
 1178 0189 07       		.uleb128 0x7
 1179 018a 13040000 		.4byte	.LASF33
 1180 018e 02       		.byte	0x2
 1181 018f CB       		.byte	0xcb
 1182 0190 51020000 		.4byte	0x251
 1183 0194 14       		.byte	0x14
 1184 0195 07       		.uleb128 0x7
 1185 0196 66060000 		.4byte	.LASF34
 1186 019a 02       		.byte	0x2
 1187 019b D2       		.byte	0xd2
 1188 019c C6060000 		.4byte	0x6c6
ARM GAS  /tmp/ccSFlF6o.s 			page 22


 1189 01a0 18       		.byte	0x18
 1190 01a1 07       		.uleb128 0x7
 1191 01a2 B9040000 		.4byte	.LASF35
 1192 01a6 02       		.byte	0x2
 1193 01a7 DD       		.byte	0xdd
 1194 01a8 DE000000 		.4byte	0xde
 1195 01ac 1C       		.byte	0x1c
 1196 01ad 07       		.uleb128 0x7
 1197 01ae F4040000 		.4byte	.LASF36
 1198 01b2 02       		.byte	0x2
 1199 01b3 E1       		.byte	0xe1
 1200 01b4 D3000000 		.4byte	0xd3
 1201 01b8 1D       		.byte	0x1d
 1202 01b9 07       		.uleb128 0x7
 1203 01ba 4A060000 		.4byte	.LASF37
 1204 01be 02       		.byte	0x2
 1205 01bf E6       		.byte	0xe6
 1206 01c0 E9000000 		.4byte	0xe9
 1207 01c4 1E       		.byte	0x1e
 1208 01c5 07       		.uleb128 0x7
 1209 01c6 D5040000 		.4byte	.LASF38
 1210 01ca 02       		.byte	0x2
 1211 01cb EC       		.byte	0xec
 1212 01cc F4000000 		.4byte	0xf4
 1213 01d0 1F       		.byte	0x1f
 1214 01d1 07       		.uleb128 0x7
 1215 01d2 FD020000 		.4byte	.LASF39
 1216 01d6 02       		.byte	0x2
 1217 01d7 F3       		.byte	0xf3
 1218 01d8 D8060000 		.4byte	0x6d8
 1219 01dc 20       		.byte	0x20
 1220 01dd 08       		.uleb128 0x8
 1221 01de 705F7500 		.ascii	"p_u\000"
 1222 01e2 02       		.byte	0x2
 1223 01e3 3101     		.2byte	0x131
 1224 01e5 01060000 		.4byte	0x601
 1225 01e9 24       		.byte	0x24
 1226 01ea 09       		.uleb128 0x9
 1227 01eb BE030000 		.4byte	.LASF40
 1228 01ef 02       		.byte	0x2
 1229 01f0 3601     		.2byte	0x136
 1230 01f2 57020000 		.4byte	0x257
 1231 01f6 28       		.byte	0x28
 1232 01f7 09       		.uleb128 0x9
 1233 01f8 14030000 		.4byte	.LASF41
 1234 01fc 02       		.byte	0x2
 1235 01fd 3C01     		.2byte	0x13c
 1236 01ff 7B020000 		.4byte	0x27b
 1237 0203 2C       		.byte	0x2c
 1238 0204 09       		.uleb128 0x9
 1239 0205 84060000 		.4byte	.LASF42
 1240 0209 02       		.byte	0x2
 1241 020a 4001     		.2byte	0x140
 1242 020c 0A010000 		.4byte	0x10a
 1243 0210 34       		.byte	0x34
 1244 0211 09       		.uleb128 0x9
 1245 0212 3B050000 		.4byte	.LASF43
ARM GAS  /tmp/ccSFlF6o.s 			page 23


 1246 0216 02       		.byte	0x2
 1247 0217 4601     		.2byte	0x146
 1248 0219 15010000 		.4byte	0x115
 1249 021d 38       		.byte	0x38
 1250 021e 09       		.uleb128 0x9
 1251 021f C1040000 		.4byte	.LASF44
 1252 0223 02       		.byte	0x2
 1253 0224 4D01     		.2byte	0x14d
 1254 0226 C0060000 		.4byte	0x6c0
 1255 022a 3C       		.byte	0x3c
 1256 022b 09       		.uleb128 0x9
 1257 022c B6050000 		.4byte	.LASF45
 1258 0230 02       		.byte	0x2
 1259 0231 5101     		.2byte	0x151
 1260 0233 FF000000 		.4byte	0xff
 1261 0237 40       		.byte	0x40
 1262 0238 09       		.uleb128 0x9
 1263 0239 E3000000 		.4byte	.LASF46
 1264 023d 02       		.byte	0x2
 1265 023e 5801     		.2byte	0x158
 1266 0240 2E030000 		.4byte	0x32e
 1267 0244 44       		.byte	0x44
 1268 0245 00       		.byte	0
 1269 0246 04       		.uleb128 0x4
 1270 0247 D1030000 		.4byte	.LASF47
 1271 024b 07       		.byte	0x7
 1272 024c 44       		.byte	0x44
 1273 024d 51020000 		.4byte	0x251
 1274 0251 0A       		.uleb128 0xa
 1275 0252 04       		.byte	0x4
 1276 0253 36010000 		.4byte	0x136
 1277 0257 04       		.uleb128 0x4
 1278 0258 AF030000 		.4byte	.LASF48
 1279 025c 07       		.byte	0x7
 1280 025d 49       		.byte	0x49
 1281 025e 62020000 		.4byte	0x262
 1282 0262 06       		.uleb128 0x6
 1283 0263 6A050000 		.4byte	.LASF50
 1284 0267 04       		.byte	0x4
 1285 0268 02       		.byte	0x2
 1286 0269 B0       		.byte	0xb0
 1287 026a 7B020000 		.4byte	0x27b
 1288 026e 07       		.uleb128 0x7
 1289 026f ED040000 		.4byte	.LASF28
 1290 0273 02       		.byte	0x2
 1291 0274 B1       		.byte	0xb1
 1292 0275 51020000 		.4byte	0x251
 1293 0279 00       		.byte	0
 1294 027a 00       		.byte	0
 1295 027b 04       		.uleb128 0x4
 1296 027c 31060000 		.4byte	.LASF51
 1297 0280 07       		.byte	0x7
 1298 0281 50       		.byte	0x50
 1299 0282 86020000 		.4byte	0x286
 1300 0286 06       		.uleb128 0x6
 1301 0287 AB000000 		.4byte	.LASF52
 1302 028b 08       		.byte	0x8
ARM GAS  /tmp/ccSFlF6o.s 			page 24


 1303 028c 02       		.byte	0x2
 1304 028d B7       		.byte	0xb7
 1305 028e AB020000 		.4byte	0x2ab
 1306 0292 07       		.uleb128 0x7
 1307 0293 ED040000 		.4byte	.LASF28
 1308 0297 02       		.byte	0x2
 1309 0298 B8       		.byte	0xb8
 1310 0299 51020000 		.4byte	0x251
 1311 029d 00       		.byte	0
 1312 029e 07       		.uleb128 0x7
 1313 029f 6E040000 		.4byte	.LASF29
 1314 02a3 02       		.byte	0x2
 1315 02a4 B9       		.byte	0xb9
 1316 02a5 51020000 		.4byte	0x251
 1317 02a9 04       		.byte	0x4
 1318 02aa 00       		.byte	0
 1319 02ab 04       		.uleb128 0x4
 1320 02ac 00000000 		.4byte	.LASF53
 1321 02b0 07       		.byte	0x7
 1322 02b1 57       		.byte	0x57
 1323 02b2 B6020000 		.4byte	0x2b6
 1324 02b6 0B       		.uleb128 0xb
 1325 02b7 73030000 		.4byte	.LASF54
 1326 02bb 1C       		.byte	0x1c
 1327 02bc 02       		.byte	0x2
 1328 02bd 9001     		.2byte	0x190
 1329 02bf 12030000 		.4byte	0x312
 1330 02c3 09       		.uleb128 0x9
 1331 02c4 56050000 		.4byte	.LASF55
 1332 02c8 02       		.byte	0x2
 1333 02c9 9101     		.2byte	0x191
 1334 02cb 7B020000 		.4byte	0x27b
 1335 02cf 00       		.byte	0
 1336 02d0 09       		.uleb128 0x9
 1337 02d1 DF040000 		.4byte	.LASF56
 1338 02d5 02       		.byte	0x2
 1339 02d6 9201     		.2byte	0x192
 1340 02d8 FF000000 		.4byte	0xff
 1341 02dc 08       		.byte	0x8
 1342 02dd 09       		.uleb128 0x9
 1343 02de 1B040000 		.4byte	.LASF57
 1344 02e2 02       		.byte	0x2
 1345 02e3 9401     		.2byte	0x194
 1346 02e5 81040000 		.4byte	0x481
 1347 02e9 0C       		.byte	0xc
 1348 02ea 09       		.uleb128 0x9
 1349 02eb 72020000 		.4byte	.LASF58
 1350 02ef 02       		.byte	0x2
 1351 02f0 9701     		.2byte	0x197
 1352 02f2 51020000 		.4byte	0x251
 1353 02f6 10       		.byte	0x10
 1354 02f7 09       		.uleb128 0x9
 1355 02f8 43040000 		.4byte	.LASF59
 1356 02fc 02       		.byte	0x2
 1357 02fd 9801     		.2byte	0x198
 1358 02ff 51020000 		.4byte	0x251
 1359 0303 14       		.byte	0x14
ARM GAS  /tmp/ccSFlF6o.s 			page 25


 1360 0304 09       		.uleb128 0x9
 1361 0305 39040000 		.4byte	.LASF60
 1362 0309 02       		.byte	0x2
 1363 030a 9B01     		.2byte	0x19b
 1364 030c 51020000 		.4byte	0x251
 1365 0310 18       		.byte	0x18
 1366 0311 00       		.byte	0
 1367 0312 04       		.uleb128 0x4
 1368 0313 C1050000 		.4byte	.LASF61
 1369 0317 07       		.byte	0x7
 1370 0318 5C       		.byte	0x5c
 1371 0319 1D030000 		.4byte	0x31d
 1372 031d 0A       		.uleb128 0xa
 1373 031e 04       		.byte	0x4
 1374 031f 23030000 		.4byte	0x323
 1375 0323 0C       		.uleb128 0xc
 1376 0324 2E030000 		.4byte	0x32e
 1377 0328 0D       		.uleb128 0xd
 1378 0329 2E030000 		.4byte	0x32e
 1379 032d 00       		.byte	0
 1380 032e 0E       		.uleb128 0xe
 1381 032f 04       		.byte	0x4
 1382 0330 04       		.uleb128 0x4
 1383 0331 5E040000 		.4byte	.LASF62
 1384 0335 07       		.byte	0x7
 1385 0336 61       		.byte	0x61
 1386 0337 3B030000 		.4byte	0x33b
 1387 033b 0B       		.uleb128 0xb
 1388 033c 0F050000 		.4byte	.LASF63
 1389 0340 14       		.byte	0x14
 1390 0341 02       		.byte	0x2
 1391 0342 6B01     		.2byte	0x16b
 1392 0344 8A030000 		.4byte	0x38a
 1393 0348 09       		.uleb128 0x9
 1394 0349 F5020000 		.4byte	.LASF64
 1395 034d 02       		.byte	0x2
 1396 034e 6C01     		.2byte	0x16c
 1397 0350 DD060000 		.4byte	0x6dd
 1398 0354 00       		.byte	0
 1399 0355 09       		.uleb128 0x9
 1400 0356 83020000 		.4byte	.LASF65
 1401 035a 02       		.byte	0x2
 1402 035b 6D01     		.2byte	0x16d
 1403 035d DD060000 		.4byte	0x6dd
 1404 0361 04       		.byte	0x4
 1405 0362 09       		.uleb128 0x9
 1406 0363 0B030000 		.4byte	.LASF66
 1407 0367 02       		.byte	0x2
 1408 0368 6E01     		.2byte	0x16e
 1409 036a 2B010000 		.4byte	0x12b
 1410 036e 08       		.byte	0x8
 1411 036f 09       		.uleb128 0x9
 1412 0370 B5060000 		.4byte	.LASF67
 1413 0374 02       		.byte	0x2
 1414 0375 6F01     		.2byte	0x16f
 1415 0377 12030000 		.4byte	0x312
 1416 037b 0C       		.byte	0xc
ARM GAS  /tmp/ccSFlF6o.s 			page 26


 1417 037c 09       		.uleb128 0x9
 1418 037d 2A060000 		.4byte	.LASF68
 1419 0381 02       		.byte	0x2
 1420 0382 7101     		.2byte	0x171
 1421 0384 2E030000 		.4byte	0x32e
 1422 0388 10       		.byte	0x10
 1423 0389 00       		.byte	0
 1424 038a 04       		.uleb128 0x4
 1425 038b 88000000 		.4byte	.LASF69
 1426 038f 07       		.byte	0x7
 1427 0390 66       		.byte	0x66
 1428 0391 95030000 		.4byte	0x395
 1429 0395 0B       		.uleb128 0xb
 1430 0396 E4030000 		.4byte	.LASF70
 1431 039a 10       		.byte	0x10
 1432 039b 02       		.byte	0x2
 1433 039c 7B01     		.2byte	0x17b
 1434 039e D7030000 		.4byte	0x3d7
 1435 03a2 09       		.uleb128 0x9
 1436 03a3 F5020000 		.4byte	.LASF64
 1437 03a7 02       		.byte	0x2
 1438 03a8 7C01     		.2byte	0x17c
 1439 03aa DD060000 		.4byte	0x6dd
 1440 03ae 00       		.byte	0
 1441 03af 09       		.uleb128 0x9
 1442 03b0 83020000 		.4byte	.LASF65
 1443 03b4 02       		.byte	0x2
 1444 03b5 7E01     		.2byte	0x17e
 1445 03b7 DD060000 		.4byte	0x6dd
 1446 03bb 04       		.byte	0x4
 1447 03bc 09       		.uleb128 0x9
 1448 03bd 0B030000 		.4byte	.LASF66
 1449 03c1 02       		.byte	0x2
 1450 03c2 8001     		.2byte	0x180
 1451 03c4 2B010000 		.4byte	0x12b
 1452 03c8 08       		.byte	0x8
 1453 03c9 09       		.uleb128 0x9
 1454 03ca 6D060000 		.4byte	.LASF71
 1455 03ce 02       		.byte	0x2
 1456 03cf 8201     		.2byte	0x182
 1457 03d1 D8060000 		.4byte	0x6d8
 1458 03d5 0C       		.byte	0xc
 1459 03d6 00       		.byte	0
 1460 03d7 04       		.uleb128 0x4
 1461 03d8 39000000 		.4byte	.LASF72
 1462 03dc 07       		.byte	0x7
 1463 03dd 6B       		.byte	0x6b
 1464 03de E2030000 		.4byte	0x3e2
 1465 03e2 0B       		.uleb128 0xb
 1466 03e3 8D040000 		.4byte	.LASF73
 1467 03e7 04       		.byte	0x4
 1468 03e8 02       		.byte	0x2
 1469 03e9 A201     		.2byte	0x1a2
 1470 03eb FD030000 		.4byte	0x3fd
 1471 03ef 09       		.uleb128 0x9
 1472 03f0 E9050000 		.4byte	.LASF74
 1473 03f4 02       		.byte	0x2
ARM GAS  /tmp/ccSFlF6o.s 			page 27


 1474 03f5 AA01     		.2byte	0x1aa
 1475 03f7 E3060000 		.4byte	0x6e3
 1476 03fb 00       		.byte	0
 1477 03fc 00       		.byte	0
 1478 03fd 04       		.uleb128 0x4
 1479 03fe 48030000 		.4byte	.LASF75
 1480 0402 07       		.byte	0x7
 1481 0403 70       		.byte	0x70
 1482 0404 08040000 		.4byte	0x408
 1483 0408 0F       		.uleb128 0xf
 1484 0409 10010000 		.4byte	.LASF76
 1485 040d 5802     		.2byte	0x258
 1486 040f 02       		.byte	0x2
 1487 0410 C201     		.2byte	0x1c2
 1488 0412 64040000 		.4byte	0x464
 1489 0416 09       		.uleb128 0x9
 1490 0417 51060000 		.4byte	.LASF77
 1491 041b 02       		.byte	0x2
 1492 041c C601     		.2byte	0x1c6
 1493 041e AB020000 		.4byte	0x2ab
 1494 0422 00       		.byte	0
 1495 0423 09       		.uleb128 0x9
 1496 0424 F3000000 		.4byte	.LASF78
 1497 0428 02       		.byte	0x2
 1498 0429 CA01     		.2byte	0x1ca
 1499 042b 8A030000 		.4byte	0x38a
 1500 042f 1C       		.byte	0x1c
 1501 0430 08       		.uleb128 0x8
 1502 0431 64626700 		.ascii	"dbg\000"
 1503 0435 02       		.byte	0x2
 1504 0436 CE01     		.2byte	0x1ce
 1505 0438 D7030000 		.4byte	0x3d7
 1506 043c 2C       		.byte	0x2c
 1507 043d 09       		.uleb128 0x9
 1508 043e 7D000000 		.4byte	.LASF79
 1509 0442 02       		.byte	0x2
 1510 0443 D201     		.2byte	0x1d2
 1511 0445 36010000 		.4byte	0x136
 1512 0449 30       		.byte	0x30
 1513 044a 08       		.uleb128 0x8
 1514 044b 746D00   		.ascii	"tm\000"
 1515 044e 02       		.byte	0x2
 1516 044f D701     		.2byte	0x1d7
 1517 0451 F6050000 		.4byte	0x5f6
 1518 0455 78       		.byte	0x78
 1519 0456 09       		.uleb128 0x9
 1520 0457 C6020000 		.4byte	.LASF80
 1521 045b 02       		.byte	0x2
 1522 045c E301     		.2byte	0x1e3
 1523 045e E8060000 		.4byte	0x6e8
 1524 0462 80       		.byte	0x80
 1525 0463 00       		.byte	0
 1526 0464 03       		.uleb128 0x3
 1527 0465 04       		.byte	0x4
 1528 0466 07       		.byte	0x7
 1529 0467 C8030000 		.4byte	.LASF81
 1530 046b 04       		.uleb128 0x4
ARM GAS  /tmp/ccSFlF6o.s 			page 28


 1531 046c 7A020000 		.4byte	.LASF82
 1532 0470 08       		.byte	0x8
 1533 0471 65       		.byte	0x65
 1534 0472 2E030000 		.4byte	0x32e
 1535 0476 04       		.uleb128 0x4
 1536 0477 A4030000 		.4byte	.LASF83
 1537 047b 08       		.byte	0x8
 1538 047c 6D       		.byte	0x6d
 1539 047d B8000000 		.4byte	0xb8
 1540 0481 06       		.uleb128 0x6
 1541 0482 1A060000 		.4byte	.LASF84
 1542 0486 04       		.byte	0x4
 1543 0487 08       		.byte	0x8
 1544 0488 89       		.byte	0x89
 1545 0489 9A040000 		.4byte	0x49a
 1546 048d 10       		.uleb128 0x10
 1547 048e 72313300 		.ascii	"r13\000"
 1548 0492 08       		.byte	0x8
 1549 0493 8A       		.byte	0x8a
 1550 0494 DB050000 		.4byte	0x5db
 1551 0498 00       		.byte	0
 1552 0499 00       		.byte	0
 1553 049a 06       		.uleb128 0x6
 1554 049b 2D000000 		.4byte	.LASF85
 1555 049f 64       		.byte	0x64
 1556 04a0 09       		.byte	0x9
 1557 04a1 F4       		.byte	0xf4
 1558 04a2 DB050000 		.4byte	0x5db
 1559 04a6 10       		.uleb128 0x10
 1560 04a7 73313600 		.ascii	"s16\000"
 1561 04ab 09       		.byte	0x9
 1562 04ac F6       		.byte	0xf6
 1563 04ad 6B040000 		.4byte	0x46b
 1564 04b1 00       		.byte	0
 1565 04b2 10       		.uleb128 0x10
 1566 04b3 73313700 		.ascii	"s17\000"
 1567 04b7 09       		.byte	0x9
 1568 04b8 F7       		.byte	0xf7
 1569 04b9 6B040000 		.4byte	0x46b
 1570 04bd 04       		.byte	0x4
 1571 04be 10       		.uleb128 0x10
 1572 04bf 73313800 		.ascii	"s18\000"
 1573 04c3 09       		.byte	0x9
 1574 04c4 F8       		.byte	0xf8
 1575 04c5 6B040000 		.4byte	0x46b
 1576 04c9 08       		.byte	0x8
 1577 04ca 10       		.uleb128 0x10
 1578 04cb 73313900 		.ascii	"s19\000"
 1579 04cf 09       		.byte	0x9
 1580 04d0 F9       		.byte	0xf9
 1581 04d1 6B040000 		.4byte	0x46b
 1582 04d5 0C       		.byte	0xc
 1583 04d6 10       		.uleb128 0x10
 1584 04d7 73323000 		.ascii	"s20\000"
 1585 04db 09       		.byte	0x9
 1586 04dc FA       		.byte	0xfa
 1587 04dd 6B040000 		.4byte	0x46b
ARM GAS  /tmp/ccSFlF6o.s 			page 29


 1588 04e1 10       		.byte	0x10
 1589 04e2 10       		.uleb128 0x10
 1590 04e3 73323100 		.ascii	"s21\000"
 1591 04e7 09       		.byte	0x9
 1592 04e8 FB       		.byte	0xfb
 1593 04e9 6B040000 		.4byte	0x46b
 1594 04ed 14       		.byte	0x14
 1595 04ee 10       		.uleb128 0x10
 1596 04ef 73323200 		.ascii	"s22\000"
 1597 04f3 09       		.byte	0x9
 1598 04f4 FC       		.byte	0xfc
 1599 04f5 6B040000 		.4byte	0x46b
 1600 04f9 18       		.byte	0x18
 1601 04fa 10       		.uleb128 0x10
 1602 04fb 73323300 		.ascii	"s23\000"
 1603 04ff 09       		.byte	0x9
 1604 0500 FD       		.byte	0xfd
 1605 0501 6B040000 		.4byte	0x46b
 1606 0505 1C       		.byte	0x1c
 1607 0506 10       		.uleb128 0x10
 1608 0507 73323400 		.ascii	"s24\000"
 1609 050b 09       		.byte	0x9
 1610 050c FE       		.byte	0xfe
 1611 050d 6B040000 		.4byte	0x46b
 1612 0511 20       		.byte	0x20
 1613 0512 10       		.uleb128 0x10
 1614 0513 73323500 		.ascii	"s25\000"
 1615 0517 09       		.byte	0x9
 1616 0518 FF       		.byte	0xff
 1617 0519 6B040000 		.4byte	0x46b
 1618 051d 24       		.byte	0x24
 1619 051e 08       		.uleb128 0x8
 1620 051f 73323600 		.ascii	"s26\000"
 1621 0523 09       		.byte	0x9
 1622 0524 0001     		.2byte	0x100
 1623 0526 6B040000 		.4byte	0x46b
 1624 052a 28       		.byte	0x28
 1625 052b 08       		.uleb128 0x8
 1626 052c 73323700 		.ascii	"s27\000"
 1627 0530 09       		.byte	0x9
 1628 0531 0101     		.2byte	0x101
 1629 0533 6B040000 		.4byte	0x46b
 1630 0537 2C       		.byte	0x2c
 1631 0538 08       		.uleb128 0x8
 1632 0539 73323800 		.ascii	"s28\000"
 1633 053d 09       		.byte	0x9
 1634 053e 0201     		.2byte	0x102
 1635 0540 6B040000 		.4byte	0x46b
 1636 0544 30       		.byte	0x30
 1637 0545 08       		.uleb128 0x8
 1638 0546 73323900 		.ascii	"s29\000"
 1639 054a 09       		.byte	0x9
 1640 054b 0301     		.2byte	0x103
 1641 054d 6B040000 		.4byte	0x46b
 1642 0551 34       		.byte	0x34
 1643 0552 08       		.uleb128 0x8
 1644 0553 73333000 		.ascii	"s30\000"
ARM GAS  /tmp/ccSFlF6o.s 			page 30


 1645 0557 09       		.byte	0x9
 1646 0558 0401     		.2byte	0x104
 1647 055a 6B040000 		.4byte	0x46b
 1648 055e 38       		.byte	0x38
 1649 055f 08       		.uleb128 0x8
 1650 0560 73333100 		.ascii	"s31\000"
 1651 0564 09       		.byte	0x9
 1652 0565 0501     		.2byte	0x105
 1653 0567 6B040000 		.4byte	0x46b
 1654 056b 3C       		.byte	0x3c
 1655 056c 08       		.uleb128 0x8
 1656 056d 723400   		.ascii	"r4\000"
 1657 0570 09       		.byte	0x9
 1658 0571 0701     		.2byte	0x107
 1659 0573 6B040000 		.4byte	0x46b
 1660 0577 40       		.byte	0x40
 1661 0578 08       		.uleb128 0x8
 1662 0579 723500   		.ascii	"r5\000"
 1663 057c 09       		.byte	0x9
 1664 057d 0801     		.2byte	0x108
 1665 057f 6B040000 		.4byte	0x46b
 1666 0583 44       		.byte	0x44
 1667 0584 08       		.uleb128 0x8
 1668 0585 723600   		.ascii	"r6\000"
 1669 0588 09       		.byte	0x9
 1670 0589 0901     		.2byte	0x109
 1671 058b 6B040000 		.4byte	0x46b
 1672 058f 48       		.byte	0x48
 1673 0590 08       		.uleb128 0x8
 1674 0591 723700   		.ascii	"r7\000"
 1675 0594 09       		.byte	0x9
 1676 0595 0A01     		.2byte	0x10a
 1677 0597 6B040000 		.4byte	0x46b
 1678 059b 4C       		.byte	0x4c
 1679 059c 08       		.uleb128 0x8
 1680 059d 723800   		.ascii	"r8\000"
 1681 05a0 09       		.byte	0x9
 1682 05a1 0B01     		.2byte	0x10b
 1683 05a3 6B040000 		.4byte	0x46b
 1684 05a7 50       		.byte	0x50
 1685 05a8 08       		.uleb128 0x8
 1686 05a9 723900   		.ascii	"r9\000"
 1687 05ac 09       		.byte	0x9
 1688 05ad 0C01     		.2byte	0x10c
 1689 05af 6B040000 		.4byte	0x46b
 1690 05b3 54       		.byte	0x54
 1691 05b4 08       		.uleb128 0x8
 1692 05b5 72313000 		.ascii	"r10\000"
 1693 05b9 09       		.byte	0x9
 1694 05ba 0D01     		.2byte	0x10d
 1695 05bc 6B040000 		.4byte	0x46b
 1696 05c0 58       		.byte	0x58
 1697 05c1 08       		.uleb128 0x8
 1698 05c2 72313100 		.ascii	"r11\000"
 1699 05c6 09       		.byte	0x9
 1700 05c7 0E01     		.2byte	0x10e
 1701 05c9 6B040000 		.4byte	0x46b
ARM GAS  /tmp/ccSFlF6o.s 			page 31


 1702 05cd 5C       		.byte	0x5c
 1703 05ce 08       		.uleb128 0x8
 1704 05cf 6C7200   		.ascii	"lr\000"
 1705 05d2 09       		.byte	0x9
 1706 05d3 0F01     		.2byte	0x10f
 1707 05d5 6B040000 		.4byte	0x46b
 1708 05d9 60       		.byte	0x60
 1709 05da 00       		.byte	0
 1710 05db 0A       		.uleb128 0xa
 1711 05dc 04       		.byte	0x4
 1712 05dd 9A040000 		.4byte	0x49a
 1713 05e1 11       		.uleb128 0x11
 1714 05e2 04       		.byte	0x4
 1715 05e3 0A       		.byte	0xa
 1716 05e4 38       		.byte	0x38
 1717 05e5 F6050000 		.4byte	0x5f6
 1718 05e9 07       		.uleb128 0x7
 1719 05ea F3050000 		.4byte	.LASF86
 1720 05ee 0A       		.byte	0xa
 1721 05ef 3C       		.byte	0x3c
 1722 05f0 C8000000 		.4byte	0xc8
 1723 05f4 00       		.byte	0
 1724 05f5 00       		.byte	0
 1725 05f6 04       		.uleb128 0x4
 1726 05f7 21040000 		.4byte	.LASF87
 1727 05fb 0A       		.byte	0xa
 1728 05fc 3D       		.byte	0x3d
 1729 05fd E1050000 		.4byte	0x5e1
 1730 0601 12       		.uleb128 0x12
 1731 0602 04       		.byte	0x4
 1732 0603 02       		.byte	0x2
 1733 0604 FA       		.byte	0xfa
 1734 0605 5E060000 		.4byte	0x65e
 1735 0609 13       		.uleb128 0x13
 1736 060a 13000000 		.4byte	.LASF88
 1737 060e 02       		.byte	0x2
 1738 060f 0101     		.2byte	0x101
 1739 0611 0A010000 		.4byte	0x10a
 1740 0615 13       		.uleb128 0x13
 1741 0616 74000000 		.4byte	.LASF89
 1742 061a 02       		.byte	0x2
 1743 061b 0801     		.2byte	0x108
 1744 061d 0A010000 		.4byte	0x10a
 1745 0621 13       		.uleb128 0x13
 1746 0622 5F060000 		.4byte	.LASF90
 1747 0626 02       		.byte	0x2
 1748 0627 0F01     		.2byte	0x10f
 1749 0629 2E030000 		.4byte	0x32e
 1750 062d 13       		.uleb128 0x13
 1751 062e 0D000000 		.4byte	.LASF91
 1752 0632 02       		.byte	0x2
 1753 0633 1601     		.2byte	0x116
 1754 0635 5E060000 		.4byte	0x65e
 1755 0639 13       		.uleb128 0x13
 1756 063a 04030000 		.4byte	.LASF92
 1757 063e 02       		.byte	0x2
 1758 063f 1E01     		.2byte	0x11e
ARM GAS  /tmp/ccSFlF6o.s 			page 32


 1759 0641 89060000 		.4byte	0x689
 1760 0645 13       		.uleb128 0x13
 1761 0646 4F050000 		.4byte	.LASF93
 1762 064a 02       		.byte	0x2
 1763 064b 2701     		.2byte	0x127
 1764 064d C0060000 		.4byte	0x6c0
 1765 0651 13       		.uleb128 0x13
 1766 0652 E6040000 		.4byte	.LASF94
 1767 0656 02       		.byte	0x2
 1768 0657 2F01     		.2byte	0x12f
 1769 0659 15010000 		.4byte	0x115
 1770 065d 00       		.byte	0
 1771 065e 0A       		.uleb128 0xa
 1772 065f 04       		.byte	0x4
 1773 0660 46020000 		.4byte	0x246
 1774 0664 06       		.uleb128 0x6
 1775 0665 20050000 		.4byte	.LASF95
 1776 0669 0C       		.byte	0xc
 1777 066a 0B       		.byte	0xb
 1778 066b 34       		.byte	0x34
 1779 066c 89060000 		.4byte	0x689
 1780 0670 07       		.uleb128 0x7
 1781 0671 59020000 		.4byte	.LASF96
 1782 0675 0B       		.byte	0xb
 1783 0676 35       		.byte	0x35
 1784 0677 7B020000 		.4byte	0x27b
 1785 067b 00       		.byte	0
 1786 067c 07       		.uleb128 0x7
 1787 067d 1F030000 		.4byte	.LASF97
 1788 0681 0B       		.byte	0xb
 1789 0682 37       		.byte	0x37
 1790 0683 20010000 		.4byte	0x120
 1791 0687 08       		.byte	0x8
 1792 0688 00       		.byte	0
 1793 0689 0A       		.uleb128 0xa
 1794 068a 04       		.byte	0x4
 1795 068b 64060000 		.4byte	0x664
 1796 068f 06       		.uleb128 0x6
 1797 0690 41060000 		.4byte	.LASF98
 1798 0694 10       		.byte	0x10
 1799 0695 0C       		.byte	0xc
 1800 0696 39       		.byte	0x39
 1801 0697 C0060000 		.4byte	0x6c0
 1802 069b 07       		.uleb128 0x7
 1803 069c EB000000 		.4byte	.LASF99
 1804 06a0 0C       		.byte	0xc
 1805 06a1 3A       		.byte	0x3a
 1806 06a2 7B020000 		.4byte	0x27b
 1807 06a6 00       		.byte	0
 1808 06a7 07       		.uleb128 0x7
 1809 06a8 A7060000 		.4byte	.LASF100
 1810 06ac 0C       		.byte	0xc
 1811 06ad 3C       		.byte	0x3c
 1812 06ae 51020000 		.4byte	0x251
 1813 06b2 08       		.byte	0x8
 1814 06b3 07       		.uleb128 0x7
 1815 06b4 32040000 		.4byte	.LASF101
ARM GAS  /tmp/ccSFlF6o.s 			page 33


 1816 06b8 0C       		.byte	0xc
 1817 06b9 3E       		.byte	0x3e
 1818 06ba 03070000 		.4byte	0x703
 1819 06be 0C       		.byte	0xc
 1820 06bf 00       		.byte	0
 1821 06c0 0A       		.uleb128 0xa
 1822 06c1 04       		.byte	0x4
 1823 06c2 8F060000 		.4byte	0x68f
 1824 06c6 0A       		.uleb128 0xa
 1825 06c7 04       		.byte	0x4
 1826 06c8 CC060000 		.4byte	0x6cc
 1827 06cc 14       		.uleb128 0x14
 1828 06cd D1060000 		.4byte	0x6d1
 1829 06d1 03       		.uleb128 0x3
 1830 06d2 01       		.byte	0x1
 1831 06d3 08       		.byte	0x8
 1832 06d4 8C050000 		.4byte	.LASF102
 1833 06d8 05       		.uleb128 0x5
 1834 06d9 2B010000 		.4byte	0x12b
 1835 06dd 0A       		.uleb128 0xa
 1836 06de 04       		.byte	0x4
 1837 06df 30030000 		.4byte	0x330
 1838 06e3 05       		.uleb128 0x5
 1839 06e4 C6060000 		.4byte	0x6c6
 1840 06e8 15       		.uleb128 0x15
 1841 06e9 76040000 		.4byte	0x476
 1842 06ed F8060000 		.4byte	0x6f8
 1843 06f1 16       		.uleb128 0x16
 1844 06f2 64040000 		.4byte	0x464
 1845 06f6 3A       		.byte	0x3a
 1846 06f7 00       		.byte	0
 1847 06f8 04       		.uleb128 0x4
 1848 06f9 C3000000 		.4byte	.LASF103
 1849 06fd 0C       		.byte	0xc
 1850 06fe 34       		.byte	0x34
 1851 06ff 8F060000 		.4byte	0x68f
 1852 0703 0A       		.uleb128 0xa
 1853 0704 04       		.byte	0x4
 1854 0705 F8060000 		.4byte	0x6f8
 1855 0709 17       		.uleb128 0x17
 1856 070a FB030000 		.4byte	.LASF108
 1857 070e 03       		.byte	0x3
 1858 070f 2002     		.2byte	0x220
 1859 0711 03       		.byte	0x3
 1860 0712 23070000 		.4byte	0x723
 1861 0716 18       		.uleb128 0x18
 1862 0717 C0020000 		.4byte	.LASF106
 1863 071b 03       		.byte	0x3
 1864 071c 2002     		.2byte	0x220
 1865 071e AD000000 		.4byte	0xad
 1866 0722 00       		.byte	0
 1867 0723 19       		.uleb128 0x19
 1868 0724 53000000 		.4byte	.LASF104
 1869 0728 09       		.byte	0x9
 1870 0729 BC01     		.2byte	0x1bc
 1871 072b 03       		.byte	0x3
 1872 072c 19       		.uleb128 0x19
ARM GAS  /tmp/ccSFlF6o.s 			page 34


 1873 072d FA000000 		.4byte	.LASF105
 1874 0731 09       		.byte	0x9
 1875 0732 CA01     		.2byte	0x1ca
 1876 0734 03       		.byte	0x3
 1877 0735 1A       		.uleb128 0x1a
 1878 0736 3A010000 		.4byte	.LASF110
 1879 073a 02       		.byte	0x2
 1880 073b 7502     		.2byte	0x275
 1881 073d 53070000 		.4byte	0x753
 1882 0741 03       		.byte	0x3
 1883 0742 53070000 		.4byte	0x753
 1884 0746 1B       		.uleb128 0x1b
 1885 0747 74717000 		.ascii	"tqp\000"
 1886 074b 02       		.byte	0x2
 1887 074c 7502     		.2byte	0x275
 1888 074e 5A070000 		.4byte	0x75a
 1889 0752 00       		.byte	0
 1890 0753 03       		.uleb128 0x3
 1891 0754 01       		.byte	0x1
 1892 0755 02       		.byte	0x2
 1893 0756 9D040000 		.4byte	.LASF107
 1894 075a 0A       		.uleb128 0xa
 1895 075b 04       		.byte	0x4
 1896 075c 60070000 		.4byte	0x760
 1897 0760 14       		.uleb128 0x14
 1898 0761 7B020000 		.4byte	0x27b
 1899 0765 17       		.uleb128 0x17
 1900 0766 48000000 		.4byte	.LASF109
 1901 076a 02       		.byte	0x2
 1902 076b 5A02     		.2byte	0x25a
 1903 076d 03       		.byte	0x3
 1904 076e 7F070000 		.4byte	0x77f
 1905 0772 1B       		.uleb128 0x1b
 1906 0773 74717000 		.ascii	"tqp\000"
 1907 0777 02       		.byte	0x2
 1908 0778 5A02     		.2byte	0x25a
 1909 077a 7F070000 		.4byte	0x77f
 1910 077e 00       		.byte	0
 1911 077f 0A       		.uleb128 0xa
 1912 0780 04       		.byte	0x4
 1913 0781 7B020000 		.4byte	0x27b
 1914 0785 1A       		.uleb128 0x1a
 1915 0786 23010000 		.4byte	.LASF111
 1916 078a 02       		.byte	0x2
 1917 078b B102     		.2byte	0x2b1
 1918 078d 51020000 		.4byte	0x251
 1919 0791 03       		.byte	0x3
 1920 0792 A2070000 		.4byte	0x7a2
 1921 0796 1B       		.uleb128 0x1b
 1922 0797 747000   		.ascii	"tp\000"
 1923 079a 02       		.byte	0x2
 1924 079b B102     		.2byte	0x2b1
 1925 079d 51020000 		.4byte	0x251
 1926 07a1 00       		.byte	0
 1927 07a2 17       		.uleb128 0x17
 1928 07a3 95060000 		.4byte	.LASF112
 1929 07a7 02       		.byte	0x2
ARM GAS  /tmp/ccSFlF6o.s 			page 35


 1930 07a8 8B02     		.2byte	0x28b
 1931 07aa 03       		.byte	0x3
 1932 07ab D2070000 		.4byte	0x7d2
 1933 07af 1B       		.uleb128 0x1b
 1934 07b0 747000   		.ascii	"tp\000"
 1935 07b3 02       		.byte	0x2
 1936 07b4 8B02     		.2byte	0x28b
 1937 07b6 51020000 		.4byte	0x251
 1938 07ba 1B       		.uleb128 0x1b
 1939 07bb 74717000 		.ascii	"tqp\000"
 1940 07bf 02       		.byte	0x2
 1941 07c0 8B02     		.2byte	0x28b
 1942 07c2 7F070000 		.4byte	0x77f
 1943 07c6 1C       		.uleb128 0x1c
 1944 07c7 637000   		.ascii	"cp\000"
 1945 07ca 02       		.byte	0x2
 1946 07cb 8D02     		.2byte	0x28d
 1947 07cd 51020000 		.4byte	0x251
 1948 07d1 00       		.byte	0
 1949 07d2 19       		.uleb128 0x19
 1950 07d3 05050000 		.4byte	.LASF113
 1951 07d7 0D       		.byte	0xd
 1952 07d8 5A01     		.2byte	0x15a
 1953 07da 03       		.byte	0x3
 1954 07db 17       		.uleb128 0x17
 1955 07dc 78060000 		.4byte	.LASF114
 1956 07e0 0D       		.byte	0xd
 1957 07e1 6601     		.2byte	0x166
 1958 07e3 03       		.byte	0x3
 1959 07e4 F6070000 		.4byte	0x7f6
 1960 07e8 1D       		.uleb128 0x1d
 1961 07e9 FC040000 		.4byte	.LASF115
 1962 07ed 06080000 		.4byte	0x806
 1963 07f1 78060000 		.4byte	.LASF114
 1964 07f5 00       		.byte	0
 1965 07f6 15       		.uleb128 0x15
 1966 07f7 D1060000 		.4byte	0x6d1
 1967 07fb 06080000 		.4byte	0x806
 1968 07ff 16       		.uleb128 0x16
 1969 0800 64040000 		.4byte	0x464
 1970 0804 0B       		.byte	0xb
 1971 0805 00       		.byte	0
 1972 0806 14       		.uleb128 0x14
 1973 0807 F6070000 		.4byte	0x7f6
 1974 080b 1E       		.uleb128 0x1e
 1975 080c 43020000 		.4byte	.LASF116
 1976 0810 01       		.byte	0x1
 1977 0811 1A01     		.2byte	0x11a
 1978 0813 53070000 		.4byte	0x753
 1979 0817 01       		.byte	0x1
 1980 0818 35080000 		.4byte	0x835
 1981 081c 1B       		.uleb128 0x1b
 1982 081d 6D7000   		.ascii	"mp\000"
 1983 0820 01       		.byte	0x1
 1984 0821 1A01     		.2byte	0x11a
 1985 0823 03070000 		.4byte	0x703
 1986 0827 1D       		.uleb128 0x1d
ARM GAS  /tmp/ccSFlF6o.s 			page 36


 1987 0828 FC040000 		.4byte	.LASF115
 1988 082c 45080000 		.4byte	0x845
 1989 0830 43020000 		.4byte	.LASF116
 1990 0834 00       		.byte	0
 1991 0835 15       		.uleb128 0x15
 1992 0836 D1060000 		.4byte	0x6d1
 1993 083a 45080000 		.4byte	0x845
 1994 083e 16       		.uleb128 0x16
 1995 083f 64040000 		.4byte	0x464
 1996 0843 0D       		.byte	0xd
 1997 0844 00       		.byte	0
 1998 0845 14       		.uleb128 0x14
 1999 0846 35080000 		.4byte	0x835
 2000 084a 1F       		.uleb128 0x1f
 2001 084b D5050000 		.4byte	.LASF117
 2002 084f 0C       		.byte	0xc
 2003 0850 81       		.byte	0x81
 2004 0851 53070000 		.4byte	0x753
 2005 0855 03       		.byte	0x3
 2006 0856 65080000 		.4byte	0x865
 2007 085a 20       		.uleb128 0x20
 2008 085b 6D7000   		.ascii	"mp\000"
 2009 085e 0C       		.byte	0xc
 2010 085f 81       		.byte	0x81
 2011 0860 03070000 		.4byte	0x703
 2012 0864 00       		.byte	0
 2013 0865 1A       		.uleb128 0x1a
 2014 0866 9A050000 		.4byte	.LASF118
 2015 086a 02       		.byte	0x2
 2016 086b 9F02     		.2byte	0x29f
 2017 086d 51020000 		.4byte	0x251
 2018 0871 03       		.byte	0x3
 2019 0872 8E080000 		.4byte	0x88e
 2020 0876 1B       		.uleb128 0x1b
 2021 0877 74717000 		.ascii	"tqp\000"
 2022 087b 02       		.byte	0x2
 2023 087c 9F02     		.2byte	0x29f
 2024 087e 7F070000 		.4byte	0x77f
 2025 0882 1C       		.uleb128 0x1c
 2026 0883 747000   		.ascii	"tp\000"
 2027 0886 02       		.byte	0x2
 2028 0887 A002     		.2byte	0x2a0
 2029 0889 51020000 		.4byte	0x251
 2030 088d 00       		.byte	0
 2031 088e 21       		.uleb128 0x21
 2032 088f 7D040000 		.4byte	.LASF119
 2033 0893 01       		.byte	0x1
 2034 0894 67       		.byte	0x67
 2035 0895 00000000 		.4byte	.LFB219
 2036 0899 0A000000 		.4byte	.LFE219-.LFB219
 2037 089d 01       		.uleb128 0x1
 2038 089e 9C       		.byte	0x9c
 2039 089f D0080000 		.4byte	0x8d0
 2040 08a3 22       		.uleb128 0x22
 2041 08a4 6D7000   		.ascii	"mp\000"
 2042 08a7 01       		.byte	0x1
 2043 08a8 67       		.byte	0x67
ARM GAS  /tmp/ccSFlF6o.s 			page 37


 2044 08a9 03070000 		.4byte	0x703
 2045 08ad 01       		.uleb128 0x1
 2046 08ae 50       		.byte	0x50
 2047 08af 23       		.uleb128 0x23
 2048 08b0 FC040000 		.4byte	.LASF115
 2049 08b4 E0080000 		.4byte	0x8e0
 2050 08b8 24       		.uleb128 0x24
 2051 08b9 65070000 		.4byte	0x765
 2052 08bd 02000000 		.4byte	.LBB103
 2053 08c1 04000000 		.4byte	.LBE103-.LBB103
 2054 08c5 01       		.byte	0x1
 2055 08c6 6B       		.byte	0x6b
 2056 08c7 25       		.uleb128 0x25
 2057 08c8 72070000 		.4byte	0x772
 2058 08cc 01       		.uleb128 0x1
 2059 08cd 50       		.byte	0x50
 2060 08ce 00       		.byte	0
 2061 08cf 00       		.byte	0
 2062 08d0 15       		.uleb128 0x15
 2063 08d1 D1060000 		.4byte	0x6d1
 2064 08d5 E0080000 		.4byte	0x8e0
 2065 08d9 16       		.uleb128 0x16
 2066 08da 64040000 		.4byte	0x464
 2067 08de 0F       		.byte	0xf
 2068 08df 00       		.byte	0
 2069 08e0 14       		.uleb128 0x14
 2070 08e1 D0080000 		.4byte	0x8d0
 2071 08e5 21       		.uleb128 0x21
 2072 08e6 8A060000 		.4byte	.LASF120
 2073 08ea 01       		.byte	0x1
 2074 08eb 8B       		.byte	0x8b
 2075 08ec 00000000 		.4byte	.LFB221
 2076 08f0 C4000000 		.4byte	.LFE221-.LFB221
 2077 08f4 01       		.uleb128 0x1
 2078 08f5 9C       		.byte	0x9c
 2079 08f6 530A0000 		.4byte	0xa53
 2080 08fa 26       		.uleb128 0x26
 2081 08fb 6D7000   		.ascii	"mp\000"
 2082 08fe 01       		.byte	0x1
 2083 08ff 8B       		.byte	0x8b
 2084 0900 03070000 		.4byte	0x703
 2085 0904 00000000 		.4byte	.LLST0
 2086 0908 27       		.uleb128 0x27
 2087 0909 63747000 		.ascii	"ctp\000"
 2088 090d 01       		.byte	0x1
 2089 090e 8C       		.byte	0x8c
 2090 090f 51020000 		.4byte	0x251
 2091 0913 46000000 		.4byte	.LLST1
 2092 0917 23       		.uleb128 0x23
 2093 0918 FC040000 		.4byte	.LASF115
 2094 091c 630A0000 		.4byte	0xa63
 2095 0920 28       		.uleb128 0x28
 2096 0921 00000000 		.4byte	.Ldebug_ranges0+0
 2097 0925 27       		.uleb128 0x27
 2098 0926 747000   		.ascii	"tp\000"
 2099 0929 01       		.byte	0x1
 2100 092a A1       		.byte	0xa1
ARM GAS  /tmp/ccSFlF6o.s 			page 38


 2101 092b 51020000 		.4byte	0x251
 2102 092f 70000000 		.4byte	.LLST2
 2103 0933 29       		.uleb128 0x29
 2104 0934 A2070000 		.4byte	0x7a2
 2105 0938 24000000 		.4byte	.LBB106
 2106 093c 1C000000 		.4byte	.LBE106-.LBB106
 2107 0940 01       		.byte	0x1
 2108 0941 D4       		.byte	0xd4
 2109 0942 6C090000 		.4byte	0x96c
 2110 0946 2A       		.uleb128 0x2a
 2111 0947 BA070000 		.4byte	0x7ba
 2112 094b 99000000 		.4byte	.LLST3
 2113 094f 2A       		.uleb128 0x2a
 2114 0950 AF070000 		.4byte	0x7af
 2115 0954 C9000000 		.4byte	.LLST4
 2116 0958 2B       		.uleb128 0x2b
 2117 0959 24000000 		.4byte	.LBB107
 2118 095d 1C000000 		.4byte	.LBE107-.LBB107
 2119 0961 2C       		.uleb128 0x2c
 2120 0962 C6070000 		.4byte	0x7c6
 2121 0966 E8000000 		.4byte	.LLST5
 2122 096a 00       		.byte	0
 2123 096b 00       		.byte	0
 2124 096c 29       		.uleb128 0x29
 2125 096d 85070000 		.4byte	0x785
 2126 0971 4C000000 		.4byte	.LBB108
 2127 0975 0A000000 		.4byte	.LBE108-.LBB108
 2128 0979 01       		.byte	0x1
 2129 097a CA       		.byte	0xca
 2130 097b 89090000 		.4byte	0x989
 2131 097f 2A       		.uleb128 0x2a
 2132 0980 96070000 		.4byte	0x796
 2133 0984 06010000 		.4byte	.LLST6
 2134 0988 00       		.byte	0
 2135 0989 2D       		.uleb128 0x2d
 2136 098a 85070000 		.4byte	0x785
 2137 098e 5C000000 		.4byte	.LBB110
 2138 0992 18000000 		.4byte	.Ldebug_ranges0+0x18
 2139 0996 01       		.byte	0x1
 2140 0997 C1       		.byte	0xc1
 2141 0998 A6090000 		.4byte	0x9a6
 2142 099c 2A       		.uleb128 0x2a
 2143 099d 96070000 		.4byte	0x796
 2144 09a1 19010000 		.4byte	.LLST7
 2145 09a5 00       		.byte	0
 2146 09a6 29       		.uleb128 0x29
 2147 09a7 A2070000 		.4byte	0x7a2
 2148 09ab 68000000 		.4byte	.LBB114
 2149 09af 1C000000 		.4byte	.LBE114-.LBB114
 2150 09b3 01       		.byte	0x1
 2151 09b4 C1       		.byte	0xc1
 2152 09b5 DF090000 		.4byte	0x9df
 2153 09b9 2A       		.uleb128 0x2a
 2154 09ba BA070000 		.4byte	0x7ba
 2155 09be 2C010000 		.4byte	.LLST8
 2156 09c2 2A       		.uleb128 0x2a
 2157 09c3 AF070000 		.4byte	0x7af
ARM GAS  /tmp/ccSFlF6o.s 			page 39


 2158 09c7 3F010000 		.4byte	.LLST9
 2159 09cb 2B       		.uleb128 0x2b
 2160 09cc 68000000 		.4byte	.LBB115
 2161 09d0 1C000000 		.4byte	.LBE115-.LBB115
 2162 09d4 2C       		.uleb128 0x2c
 2163 09d5 C6070000 		.4byte	0x7c6
 2164 09d9 52010000 		.4byte	.LLST10
 2165 09dd 00       		.byte	0
 2166 09de 00       		.byte	0
 2167 09df 2D       		.uleb128 0x2d
 2168 09e0 85070000 		.4byte	0x785
 2169 09e4 84000000 		.4byte	.LBB116
 2170 09e8 30000000 		.4byte	.Ldebug_ranges0+0x30
 2171 09ec 01       		.byte	0x1
 2172 09ed AD       		.byte	0xad
 2173 09ee FC090000 		.4byte	0x9fc
 2174 09f2 2A       		.uleb128 0x2a
 2175 09f3 96070000 		.4byte	0x796
 2176 09f7 70010000 		.4byte	.LLST11
 2177 09fb 00       		.byte	0
 2178 09fc 29       		.uleb128 0x29
 2179 09fd A2070000 		.4byte	0x7a2
 2180 0a01 90000000 		.4byte	.LBB120
 2181 0a05 1A000000 		.4byte	.LBE120-.LBB120
 2182 0a09 01       		.byte	0x1
 2183 0a0a AD       		.byte	0xad
 2184 0a0b 350A0000 		.4byte	0xa35
 2185 0a0f 2A       		.uleb128 0x2a
 2186 0a10 BA070000 		.4byte	0x7ba
 2187 0a14 8F010000 		.4byte	.LLST12
 2188 0a18 2A       		.uleb128 0x2a
 2189 0a19 AF070000 		.4byte	0x7af
 2190 0a1d A2010000 		.4byte	.LLST13
 2191 0a21 2B       		.uleb128 0x2b
 2192 0a22 90000000 		.4byte	.LBB121
 2193 0a26 1A000000 		.4byte	.LBE121-.LBB121
 2194 0a2a 2C       		.uleb128 0x2c
 2195 0a2b C6070000 		.4byte	0x7c6
 2196 0a2f C1010000 		.4byte	.LLST14
 2197 0a33 00       		.byte	0
 2198 0a34 00       		.byte	0
 2199 0a35 2E       		.uleb128 0x2e
 2200 0a36 4C000000 		.4byte	.LVL9
 2201 0a3a 72100000 		.4byte	0x1072
 2202 0a3e 480A0000 		.4byte	0xa48
 2203 0a42 2F       		.uleb128 0x2f
 2204 0a43 01       		.uleb128 0x1
 2205 0a44 50       		.byte	0x50
 2206 0a45 01       		.uleb128 0x1
 2207 0a46 36       		.byte	0x36
 2208 0a47 00       		.byte	0
 2209 0a48 30       		.uleb128 0x30
 2210 0a49 5A000000 		.4byte	.LVL10
 2211 0a4d 84100000 		.4byte	0x1084
 2212 0a51 00       		.byte	0
 2213 0a52 00       		.byte	0
 2214 0a53 15       		.uleb128 0x15
ARM GAS  /tmp/ccSFlF6o.s 			page 40


 2215 0a54 D1060000 		.4byte	0x6d1
 2216 0a58 630A0000 		.4byte	0xa63
 2217 0a5c 16       		.uleb128 0x16
 2218 0a5d 64040000 		.4byte	0x464
 2219 0a61 0A       		.byte	0xa
 2220 0a62 00       		.byte	0
 2221 0a63 14       		.uleb128 0x14
 2222 0a64 530A0000 		.4byte	0xa53
 2223 0a68 21       		.uleb128 0x21
 2224 0a69 09040000 		.4byte	.LASF121
 2225 0a6d 01       		.byte	0x1
 2226 0a6e 7B       		.byte	0x7b
 2227 0a6f 00000000 		.4byte	.LFB220
 2228 0a73 14000000 		.4byte	.LFE220-.LFB220
 2229 0a77 01       		.uleb128 0x1
 2230 0a78 9C       		.byte	0x9c
 2231 0a79 240B0000 		.4byte	0xb24
 2232 0a7d 26       		.uleb128 0x26
 2233 0a7e 6D7000   		.ascii	"mp\000"
 2234 0a81 01       		.byte	0x1
 2235 0a82 7B       		.byte	0x7b
 2236 0a83 03070000 		.4byte	0x703
 2237 0a87 DF010000 		.4byte	.LLST15
 2238 0a8b 29       		.uleb128 0x29
 2239 0a8c D2070000 		.4byte	0x7d2
 2240 0a90 02000000 		.4byte	.LBB123
 2241 0a94 06000000 		.4byte	.LBE123-.LBB123
 2242 0a98 01       		.byte	0x1
 2243 0a99 7D       		.byte	0x7d
 2244 0a9a C70A0000 		.4byte	0xac7
 2245 0a9e 31       		.uleb128 0x31
 2246 0a9f 23070000 		.4byte	0x723
 2247 0aa3 02000000 		.4byte	.LBB124
 2248 0aa7 06000000 		.4byte	.LBE124-.LBB124
 2249 0aab 0D       		.byte	0xd
 2250 0aac 5C01     		.2byte	0x15c
 2251 0aae 31       		.uleb128 0x31
 2252 0aaf 09070000 		.4byte	0x709
 2253 0ab3 02000000 		.4byte	.LBB125
 2254 0ab7 06000000 		.4byte	.LBE125-.LBB125
 2255 0abb 09       		.byte	0x9
 2256 0abc BF01     		.2byte	0x1bf
 2257 0abe 32       		.uleb128 0x32
 2258 0abf 16070000 		.4byte	0x716
 2259 0ac3 20       		.byte	0x20
 2260 0ac4 00       		.byte	0
 2261 0ac5 00       		.byte	0
 2262 0ac6 00       		.byte	0
 2263 0ac7 29       		.uleb128 0x29
 2264 0ac8 DB070000 		.4byte	0x7db
 2265 0acc 0C000000 		.4byte	.LBB127
 2266 0ad0 08000000 		.4byte	.LBE127-.LBB127
 2267 0ad4 01       		.byte	0x1
 2268 0ad5 7F       		.byte	0x7f
 2269 0ad6 120B0000 		.4byte	0xb12
 2270 0ada 2B       		.uleb128 0x2b
 2271 0adb 0C000000 		.4byte	.LBB128
ARM GAS  /tmp/ccSFlF6o.s 			page 41


 2272 0adf 08000000 		.4byte	.LBE128-.LBB128
 2273 0ae3 33       		.uleb128 0x33
 2274 0ae4 E8070000 		.4byte	0x7e8
 2275 0ae8 31       		.uleb128 0x31
 2276 0ae9 2C070000 		.4byte	0x72c
 2277 0aed 0C000000 		.4byte	.LBB129
 2278 0af1 08000000 		.4byte	.LBE129-.LBB129
 2279 0af5 0D       		.byte	0xd
 2280 0af6 7301     		.2byte	0x173
 2281 0af8 31       		.uleb128 0x31
 2282 0af9 09070000 		.4byte	0x709
 2283 0afd 0C000000 		.4byte	.LBB130
 2284 0b01 08000000 		.4byte	.LBE130-.LBB130
 2285 0b05 09       		.byte	0x9
 2286 0b06 CD01     		.2byte	0x1cd
 2287 0b08 32       		.uleb128 0x32
 2288 0b09 16070000 		.4byte	0x716
 2289 0b0d 00       		.byte	0
 2290 0b0e 00       		.byte	0
 2291 0b0f 00       		.byte	0
 2292 0b10 00       		.byte	0
 2293 0b11 00       		.byte	0
 2294 0b12 34       		.uleb128 0x34
 2295 0b13 0C000000 		.4byte	.LVL24
 2296 0b17 E5080000 		.4byte	0x8e5
 2297 0b1b 2F       		.uleb128 0x2f
 2298 0b1c 01       		.uleb128 0x1
 2299 0b1d 50       		.byte	0x50
 2300 0b1e 03       		.uleb128 0x3
 2301 0b1f F3       		.byte	0xf3
 2302 0b20 01       		.uleb128 0x1
 2303 0b21 50       		.byte	0x50
 2304 0b22 00       		.byte	0
 2305 0b23 00       		.byte	0
 2306 0b24 35       		.uleb128 0x35
 2307 0b25 8D030000 		.4byte	.LASF131
 2308 0b29 01       		.byte	0x1
 2309 0b2a FF       		.byte	0xff
 2310 0b2b 53070000 		.4byte	0x753
 2311 0b2f 00000000 		.4byte	.LFB222
 2312 0b33 30000000 		.4byte	.LFE222-.LFB222
 2313 0b37 01       		.uleb128 0x1
 2314 0b38 9C       		.byte	0x9c
 2315 0b39 030C0000 		.4byte	0xc03
 2316 0b3d 26       		.uleb128 0x26
 2317 0b3e 6D7000   		.ascii	"mp\000"
 2318 0b41 01       		.byte	0x1
 2319 0b42 FF       		.byte	0xff
 2320 0b43 03070000 		.4byte	0x703
 2321 0b47 00020000 		.4byte	.LLST16
 2322 0b4b 1C       		.uleb128 0x1c
 2323 0b4c 6200     		.ascii	"b\000"
 2324 0b4e 01       		.byte	0x1
 2325 0b4f 0001     		.2byte	0x100
 2326 0b51 53070000 		.4byte	0x753
 2327 0b55 36       		.uleb128 0x36
 2328 0b56 D2070000 		.4byte	0x7d2
ARM GAS  /tmp/ccSFlF6o.s 			page 42


 2329 0b5a 02000000 		.4byte	.LBB132
 2330 0b5e 06000000 		.4byte	.LBE132-.LBB132
 2331 0b62 01       		.byte	0x1
 2332 0b63 0201     		.2byte	0x102
 2333 0b65 920B0000 		.4byte	0xb92
 2334 0b69 31       		.uleb128 0x31
 2335 0b6a 23070000 		.4byte	0x723
 2336 0b6e 02000000 		.4byte	.LBB133
 2337 0b72 06000000 		.4byte	.LBE133-.LBB133
 2338 0b76 0D       		.byte	0xd
 2339 0b77 5C01     		.2byte	0x15c
 2340 0b79 31       		.uleb128 0x31
 2341 0b7a 09070000 		.4byte	0x709
 2342 0b7e 02000000 		.4byte	.LBB134
 2343 0b82 06000000 		.4byte	.LBE134-.LBB134
 2344 0b86 09       		.byte	0x9
 2345 0b87 BF01     		.2byte	0x1bf
 2346 0b89 32       		.uleb128 0x32
 2347 0b8a 16070000 		.4byte	0x716
 2348 0b8e 20       		.byte	0x20
 2349 0b8f 00       		.byte	0
 2350 0b90 00       		.byte	0
 2351 0b91 00       		.byte	0
 2352 0b92 37       		.uleb128 0x37
 2353 0b93 0B080000 		.4byte	0x80b
 2354 0b97 08000000 		.4byte	.LBB136
 2355 0b9b 48000000 		.4byte	.Ldebug_ranges0+0x48
 2356 0b9f 01       		.byte	0x1
 2357 0ba0 0301     		.2byte	0x103
 2358 0ba2 BB0B0000 		.4byte	0xbbb
 2359 0ba6 2A       		.uleb128 0x2a
 2360 0ba7 1C080000 		.4byte	0x81c
 2361 0bab 4E020000 		.4byte	.LLST17
 2362 0baf 28       		.uleb128 0x28
 2363 0bb0 48000000 		.4byte	.Ldebug_ranges0+0x48
 2364 0bb4 33       		.uleb128 0x33
 2365 0bb5 27080000 		.4byte	0x827
 2366 0bb9 00       		.byte	0
 2367 0bba 00       		.byte	0
 2368 0bbb 38       		.uleb128 0x38
 2369 0bbc DB070000 		.4byte	0x7db
 2370 0bc0 0E000000 		.4byte	.LBB139
 2371 0bc4 60000000 		.4byte	.Ldebug_ranges0+0x60
 2372 0bc8 01       		.byte	0x1
 2373 0bc9 0401     		.2byte	0x104
 2374 0bcb 28       		.uleb128 0x28
 2375 0bcc 60000000 		.4byte	.Ldebug_ranges0+0x60
 2376 0bd0 33       		.uleb128 0x33
 2377 0bd1 E8070000 		.4byte	0x7e8
 2378 0bd5 38       		.uleb128 0x38
 2379 0bd6 2C070000 		.4byte	0x72c
 2380 0bda 0E000000 		.4byte	.LBB141
 2381 0bde 60000000 		.4byte	.Ldebug_ranges0+0x60
 2382 0be2 0D       		.byte	0xd
 2383 0be3 7301     		.2byte	0x173
 2384 0be5 38       		.uleb128 0x38
 2385 0be6 09070000 		.4byte	0x709
ARM GAS  /tmp/ccSFlF6o.s 			page 43


 2386 0bea 0E000000 		.4byte	.LBB142
 2387 0bee 60000000 		.4byte	.Ldebug_ranges0+0x60
 2388 0bf2 09       		.byte	0x9
 2389 0bf3 CD01     		.2byte	0x1cd
 2390 0bf5 2A       		.uleb128 0x2a
 2391 0bf6 16070000 		.4byte	0x716
 2392 0bfa 9C020000 		.4byte	.LLST18
 2393 0bfe 00       		.byte	0
 2394 0bff 00       		.byte	0
 2395 0c00 00       		.byte	0
 2396 0c01 00       		.byte	0
 2397 0c02 00       		.byte	0
 2398 0c03 39       		.uleb128 0x39
 2399 0c04 0B080000 		.4byte	0x80b
 2400 0c08 00000000 		.4byte	.LFB223
 2401 0c0c 20000000 		.4byte	.LFE223-.LFB223
 2402 0c10 01       		.uleb128 0x1
 2403 0c11 9C       		.byte	0x9c
 2404 0c12 250C0000 		.4byte	0xc25
 2405 0c16 2A       		.uleb128 0x2a
 2406 0c17 1C080000 		.4byte	0x81c
 2407 0c1b BC020000 		.4byte	.LLST19
 2408 0c1f 33       		.uleb128 0x33
 2409 0c20 27080000 		.4byte	0x827
 2410 0c24 00       		.byte	0
 2411 0c25 3A       		.uleb128 0x3a
 2412 0c26 CB000000 		.4byte	.LASF122
 2413 0c2a 01       		.byte	0x1
 2414 0c2b 4301     		.2byte	0x143
 2415 0c2d 00000000 		.4byte	.LFB224
 2416 0c31 64000000 		.4byte	.LFE224-.LFB224
 2417 0c35 01       		.uleb128 0x1
 2418 0c36 9C       		.byte	0x9c
 2419 0c37 D90D0000 		.4byte	0xdd9
 2420 0c3b 3B       		.uleb128 0x3b
 2421 0c3c 6D7000   		.ascii	"mp\000"
 2422 0c3f 01       		.byte	0x1
 2423 0c40 4301     		.2byte	0x143
 2424 0c42 03070000 		.4byte	0x703
 2425 0c46 F0020000 		.4byte	.LLST20
 2426 0c4a 3C       		.uleb128 0x3c
 2427 0c4b 63747000 		.ascii	"ctp\000"
 2428 0c4f 01       		.byte	0x1
 2429 0c50 4401     		.2byte	0x144
 2430 0c52 51020000 		.4byte	0x251
 2431 0c56 1C030000 		.4byte	.LLST21
 2432 0c5a 3C       		.uleb128 0x3c
 2433 0c5b 6C6D7000 		.ascii	"lmp\000"
 2434 0c5f 01       		.byte	0x1
 2435 0c60 4501     		.2byte	0x145
 2436 0c62 03070000 		.4byte	0x703
 2437 0c66 3A030000 		.4byte	.LLST22
 2438 0c6a 23       		.uleb128 0x23
 2439 0c6b FC040000 		.4byte	.LASF115
 2440 0c6f D90D0000 		.4byte	0xdd9
 2441 0c73 36       		.uleb128 0x36
 2442 0c74 D2070000 		.4byte	0x7d2
ARM GAS  /tmp/ccSFlF6o.s 			page 44


 2443 0c78 08000000 		.4byte	.LBB150
 2444 0c7c 06000000 		.4byte	.LBE150-.LBB150
 2445 0c80 01       		.byte	0x1
 2446 0c81 4901     		.2byte	0x149
 2447 0c83 B00C0000 		.4byte	0xcb0
 2448 0c87 31       		.uleb128 0x31
 2449 0c88 23070000 		.4byte	0x723
 2450 0c8c 08000000 		.4byte	.LBB151
 2451 0c90 06000000 		.4byte	.LBE151-.LBB151
 2452 0c94 0D       		.byte	0xd
 2453 0c95 5C01     		.2byte	0x15c
 2454 0c97 31       		.uleb128 0x31
 2455 0c98 09070000 		.4byte	0x709
 2456 0c9c 08000000 		.4byte	.LBB152
 2457 0ca0 06000000 		.4byte	.LBE152-.LBB152
 2458 0ca4 09       		.byte	0x9
 2459 0ca5 BF01     		.2byte	0x1bf
 2460 0ca7 32       		.uleb128 0x32
 2461 0ca8 16070000 		.4byte	0x716
 2462 0cac 20       		.byte	0x20
 2463 0cad 00       		.byte	0
 2464 0cae 00       		.byte	0
 2465 0caf 00       		.byte	0
 2466 0cb0 36       		.uleb128 0x36
 2467 0cb1 4A080000 		.4byte	0x84a
 2468 0cb5 0E000000 		.4byte	.LBB154
 2469 0cb9 02000000 		.4byte	.LBE154-.LBB154
 2470 0cbd 01       		.byte	0x1
 2471 0cbe 5B01     		.2byte	0x15b
 2472 0cc0 E70C0000 		.4byte	0xce7
 2473 0cc4 2A       		.uleb128 0x2a
 2474 0cc5 5A080000 		.4byte	0x85a
 2475 0cc9 4D030000 		.4byte	.LLST23
 2476 0ccd 24       		.uleb128 0x24
 2477 0cce 35070000 		.4byte	0x735
 2478 0cd2 0E000000 		.4byte	.LBB156
 2479 0cd6 02000000 		.4byte	.LBE156-.LBB156
 2480 0cda 0C       		.byte	0xc
 2481 0cdb 85       		.byte	0x85
 2482 0cdc 2A       		.uleb128 0x2a
 2483 0cdd 46070000 		.4byte	0x746
 2484 0ce1 4D030000 		.4byte	.LLST23
 2485 0ce5 00       		.byte	0
 2486 0ce6 00       		.byte	0
 2487 0ce7 3D       		.uleb128 0x3d
 2488 0ce8 18000000 		.4byte	.LBB158
 2489 0cec 32000000 		.4byte	.LBE158-.LBB158
 2490 0cf0 910D0000 		.4byte	0xd91
 2491 0cf4 1C       		.uleb128 0x1c
 2492 0cf5 747000   		.ascii	"tp\000"
 2493 0cf8 01       		.byte	0x1
 2494 0cf9 5C01     		.2byte	0x15c
 2495 0cfb 51020000 		.4byte	0x251
 2496 0cff 3E       		.uleb128 0x3e
 2497 0d00 63030000 		.4byte	.LASF123
 2498 0d04 01       		.byte	0x1
 2499 0d05 6001     		.2byte	0x160
ARM GAS  /tmp/ccSFlF6o.s 			page 45


 2500 0d07 FF000000 		.4byte	0xff
 2501 0d0b 6E030000 		.4byte	.LLST25
 2502 0d0f 36       		.uleb128 0x36
 2503 0d10 4A080000 		.4byte	0x84a
 2504 0d14 1C000000 		.4byte	.LBB159
 2505 0d18 02000000 		.4byte	.LBE159-.LBB159
 2506 0d1c 01       		.byte	0x1
 2507 0d1d 6601     		.2byte	0x166
 2508 0d1f 460D0000 		.4byte	0xd46
 2509 0d23 2A       		.uleb128 0x2a
 2510 0d24 5A080000 		.4byte	0x85a
 2511 0d28 81030000 		.4byte	.LLST26
 2512 0d2c 24       		.uleb128 0x24
 2513 0d2d 35070000 		.4byte	0x735
 2514 0d31 1C000000 		.4byte	.LBB161
 2515 0d35 02000000 		.4byte	.LBE161-.LBB161
 2516 0d39 0C       		.byte	0xc
 2517 0d3a 85       		.byte	0x85
 2518 0d3b 2A       		.uleb128 0x2a
 2519 0d3c 46070000 		.4byte	0x746
 2520 0d40 81030000 		.4byte	.LLST26
 2521 0d44 00       		.byte	0
 2522 0d45 00       		.byte	0
 2523 0d46 37       		.uleb128 0x37
 2524 0d47 65080000 		.4byte	0x865
 2525 0d4b 30000000 		.4byte	.LBB163
 2526 0d4f 78000000 		.4byte	.Ldebug_ranges0+0x78
 2527 0d53 01       		.byte	0x1
 2528 0d54 7601     		.2byte	0x176
 2529 0d56 730D0000 		.4byte	0xd73
 2530 0d5a 2A       		.uleb128 0x2a
 2531 0d5b 76080000 		.4byte	0x876
 2532 0d5f 94030000 		.4byte	.LLST28
 2533 0d63 28       		.uleb128 0x28
 2534 0d64 78000000 		.4byte	.Ldebug_ranges0+0x78
 2535 0d68 2C       		.uleb128 0x2c
 2536 0d69 82080000 		.4byte	0x882
 2537 0d6d A7030000 		.4byte	.LLST29
 2538 0d71 00       		.byte	0
 2539 0d72 00       		.byte	0
 2540 0d73 3F       		.uleb128 0x3f
 2541 0d74 46000000 		.4byte	.LVL47
 2542 0d78 84100000 		.4byte	0x1084
 2543 0d7c 870D0000 		.4byte	0xd87
 2544 0d80 2F       		.uleb128 0x2f
 2545 0d81 01       		.uleb128 0x1
 2546 0d82 50       		.byte	0x50
 2547 0d83 02       		.uleb128 0x2
 2548 0d84 75       		.byte	0x75
 2549 0d85 00       		.sleb128 0
 2550 0d86 00       		.byte	0
 2551 0d87 30       		.uleb128 0x30
 2552 0d88 4A000000 		.4byte	.LVL48
 2553 0d8c 9A100000 		.4byte	0x109a
 2554 0d90 00       		.byte	0
 2555 0d91 38       		.uleb128 0x38
 2556 0d92 DB070000 		.4byte	0x7db
ARM GAS  /tmp/ccSFlF6o.s 			page 46


 2557 0d96 4A000000 		.4byte	.LBB169
 2558 0d9a 98000000 		.4byte	.Ldebug_ranges0+0x98
 2559 0d9e 01       		.byte	0x1
 2560 0d9f 8901     		.2byte	0x189
 2561 0da1 28       		.uleb128 0x28
 2562 0da2 98000000 		.4byte	.Ldebug_ranges0+0x98
 2563 0da6 33       		.uleb128 0x33
 2564 0da7 E8070000 		.4byte	0x7e8
 2565 0dab 38       		.uleb128 0x38
 2566 0dac 2C070000 		.4byte	0x72c
 2567 0db0 4A000000 		.4byte	.LBB171
 2568 0db4 98000000 		.4byte	.Ldebug_ranges0+0x98
 2569 0db8 0D       		.byte	0xd
 2570 0db9 7301     		.2byte	0x173
 2571 0dbb 38       		.uleb128 0x38
 2572 0dbc 09070000 		.4byte	0x709
 2573 0dc0 4A000000 		.4byte	.LBB172
 2574 0dc4 98000000 		.4byte	.Ldebug_ranges0+0x98
 2575 0dc8 09       		.byte	0x9
 2576 0dc9 CD01     		.2byte	0x1cd
 2577 0dcb 2A       		.uleb128 0x2a
 2578 0dcc 16070000 		.4byte	0x716
 2579 0dd0 BA030000 		.4byte	.LLST30
 2580 0dd4 00       		.byte	0
 2581 0dd5 00       		.byte	0
 2582 0dd6 00       		.byte	0
 2583 0dd7 00       		.byte	0
 2584 0dd8 00       		.byte	0
 2585 0dd9 14       		.uleb128 0x14
 2586 0dda F6070000 		.4byte	0x7f6
 2587 0dde 3A       		.uleb128 0x3a
 2588 0ddf DB020000 		.4byte	.LASF124
 2589 0de3 01       		.byte	0x1
 2590 0de4 9A01     		.2byte	0x19a
 2591 0de6 00000000 		.4byte	.LFB225
 2592 0dea 50000000 		.4byte	.LFE225-.LFB225
 2593 0dee 01       		.uleb128 0x1
 2594 0def 9C       		.byte	0x9c
 2595 0df0 F20E0000 		.4byte	0xef2
 2596 0df4 3B       		.uleb128 0x3b
 2597 0df5 6D7000   		.ascii	"mp\000"
 2598 0df8 01       		.byte	0x1
 2599 0df9 9A01     		.2byte	0x19a
 2600 0dfb 03070000 		.4byte	0x703
 2601 0dff DA030000 		.4byte	.LLST31
 2602 0e03 3C       		.uleb128 0x3c
 2603 0e04 63747000 		.ascii	"ctp\000"
 2604 0e08 01       		.byte	0x1
 2605 0e09 9B01     		.2byte	0x19b
 2606 0e0b 51020000 		.4byte	0x251
 2607 0e0f 2B040000 		.4byte	.LLST32
 2608 0e13 3C       		.uleb128 0x3c
 2609 0e14 6C6D7000 		.ascii	"lmp\000"
 2610 0e18 01       		.byte	0x1
 2611 0e19 9C01     		.2byte	0x19c
 2612 0e1b 03070000 		.4byte	0x703
 2613 0e1f 49040000 		.4byte	.LLST33
ARM GAS  /tmp/ccSFlF6o.s 			page 47


 2614 0e23 23       		.uleb128 0x23
 2615 0e24 FC040000 		.4byte	.LASF115
 2616 0e28 020F0000 		.4byte	0xf02
 2617 0e2c 36       		.uleb128 0x36
 2618 0e2d 4A080000 		.4byte	0x84a
 2619 0e31 06000000 		.4byte	.LBB179
 2620 0e35 02000000 		.4byte	.LBE179-.LBB179
 2621 0e39 01       		.byte	0x1
 2622 0e3a B101     		.2byte	0x1b1
 2623 0e3c 630E0000 		.4byte	0xe63
 2624 0e40 2A       		.uleb128 0x2a
 2625 0e41 5A080000 		.4byte	0x85a
 2626 0e45 5C040000 		.4byte	.LLST34
 2627 0e49 24       		.uleb128 0x24
 2628 0e4a 35070000 		.4byte	0x735
 2629 0e4e 06000000 		.4byte	.LBB181
 2630 0e52 02000000 		.4byte	.LBE181-.LBB181
 2631 0e56 0C       		.byte	0xc
 2632 0e57 85       		.byte	0x85
 2633 0e58 2A       		.uleb128 0x2a
 2634 0e59 46070000 		.4byte	0x746
 2635 0e5d 5C040000 		.4byte	.LLST34
 2636 0e61 00       		.byte	0
 2637 0e62 00       		.byte	0
 2638 0e63 28       		.uleb128 0x28
 2639 0e64 B0000000 		.4byte	.Ldebug_ranges0+0xb0
 2640 0e68 1C       		.uleb128 0x1c
 2641 0e69 747000   		.ascii	"tp\000"
 2642 0e6c 01       		.byte	0x1
 2643 0e6d B201     		.2byte	0x1b2
 2644 0e6f 51020000 		.4byte	0x251
 2645 0e73 3E       		.uleb128 0x3e
 2646 0e74 63030000 		.4byte	.LASF123
 2647 0e78 01       		.byte	0x1
 2648 0e79 B601     		.2byte	0x1b6
 2649 0e7b FF000000 		.4byte	0xff
 2650 0e7f A2040000 		.4byte	.LLST36
 2651 0e83 36       		.uleb128 0x36
 2652 0e84 4A080000 		.4byte	0x84a
 2653 0e88 16000000 		.4byte	.LBB184
 2654 0e8c 02000000 		.4byte	.LBE184-.LBB184
 2655 0e90 01       		.byte	0x1
 2656 0e91 BC01     		.2byte	0x1bc
 2657 0e93 BA0E0000 		.4byte	0xeba
 2658 0e97 2A       		.uleb128 0x2a
 2659 0e98 5A080000 		.4byte	0x85a
 2660 0e9c B5040000 		.4byte	.LLST37
 2661 0ea0 24       		.uleb128 0x24
 2662 0ea1 35070000 		.4byte	0x735
 2663 0ea5 16000000 		.4byte	.LBB186
 2664 0ea9 02000000 		.4byte	.LBE186-.LBB186
 2665 0ead 0C       		.byte	0xc
 2666 0eae 85       		.byte	0x85
 2667 0eaf 2A       		.uleb128 0x2a
 2668 0eb0 46070000 		.4byte	0x746
 2669 0eb4 B5040000 		.4byte	.LLST37
 2670 0eb8 00       		.byte	0
ARM GAS  /tmp/ccSFlF6o.s 			page 48


 2671 0eb9 00       		.byte	0
 2672 0eba 37       		.uleb128 0x37
 2673 0ebb 65080000 		.4byte	0x865
 2674 0ebf 2A000000 		.4byte	.LBB188
 2675 0ec3 C8000000 		.4byte	.Ldebug_ranges0+0xc8
 2676 0ec7 01       		.byte	0x1
 2677 0ec8 CC01     		.2byte	0x1cc
 2678 0eca E70E0000 		.4byte	0xee7
 2679 0ece 2A       		.uleb128 0x2a
 2680 0ecf 76080000 		.4byte	0x876
 2681 0ed3 C8040000 		.4byte	.LLST39
 2682 0ed7 28       		.uleb128 0x28
 2683 0ed8 C8000000 		.4byte	.Ldebug_ranges0+0xc8
 2684 0edc 2C       		.uleb128 0x2c
 2685 0edd 82080000 		.4byte	0x882
 2686 0ee1 F5040000 		.4byte	.LLST40
 2687 0ee5 00       		.byte	0
 2688 0ee6 00       		.byte	0
 2689 0ee7 40       		.uleb128 0x40
 2690 0ee8 42000000 		.4byte	.LVL63
 2691 0eec 84100000 		.4byte	0x1084
 2692 0ef0 00       		.byte	0
 2693 0ef1 00       		.byte	0
 2694 0ef2 15       		.uleb128 0x15
 2695 0ef3 D1060000 		.4byte	0x6d1
 2696 0ef7 020F0000 		.4byte	0xf02
 2697 0efb 16       		.uleb128 0x16
 2698 0efc 64040000 		.4byte	0x464
 2699 0f00 0C       		.byte	0xc
 2700 0f01 00       		.byte	0
 2701 0f02 14       		.uleb128 0x14
 2702 0f03 F20E0000 		.4byte	0xef2
 2703 0f07 3A       		.uleb128 0x3a
 2704 0f08 54030000 		.4byte	.LASF125
 2705 0f0c 01       		.byte	0x1
 2706 0f0d E501     		.2byte	0x1e5
 2707 0f0f 00000000 		.4byte	.LFB226
 2708 0f13 54000000 		.4byte	.LFE226-.LFB226
 2709 0f17 01       		.uleb128 0x1
 2710 0f18 9C       		.byte	0x9c
 2711 0f19 5B100000 		.4byte	0x105b
 2712 0f1d 3C       		.uleb128 0x3c
 2713 0f1e 63747000 		.ascii	"ctp\000"
 2714 0f22 01       		.byte	0x1
 2715 0f23 E601     		.2byte	0x1e6
 2716 0f25 51020000 		.4byte	0x251
 2717 0f29 13050000 		.4byte	.LLST41
 2718 0f2d 37       		.uleb128 0x37
 2719 0f2e D2070000 		.4byte	0x7d2
 2720 0f32 04000000 		.4byte	.LBB195
 2721 0f36 E8000000 		.4byte	.Ldebug_ranges0+0xe8
 2722 0f3a 01       		.byte	0x1
 2723 0f3b E801     		.2byte	0x1e8
 2724 0f3d 6A0F0000 		.4byte	0xf6a
 2725 0f41 38       		.uleb128 0x38
 2726 0f42 23070000 		.4byte	0x723
 2727 0f46 04000000 		.4byte	.LBB196
ARM GAS  /tmp/ccSFlF6o.s 			page 49


 2728 0f4a E8000000 		.4byte	.Ldebug_ranges0+0xe8
 2729 0f4e 0D       		.byte	0xd
 2730 0f4f 5C01     		.2byte	0x15c
 2731 0f51 38       		.uleb128 0x38
 2732 0f52 09070000 		.4byte	0x709
 2733 0f56 04000000 		.4byte	.LBB197
 2734 0f5a E8000000 		.4byte	.Ldebug_ranges0+0xe8
 2735 0f5e 09       		.byte	0x9
 2736 0f5f BF01     		.2byte	0x1bf
 2737 0f61 32       		.uleb128 0x32
 2738 0f62 16070000 		.4byte	0x716
 2739 0f66 20       		.byte	0x20
 2740 0f67 00       		.byte	0
 2741 0f68 00       		.byte	0
 2742 0f69 00       		.byte	0
 2743 0f6a 41       		.uleb128 0x41
 2744 0f6b 00010000 		.4byte	.Ldebug_ranges0+0x100
 2745 0f6f 05100000 		.4byte	0x1005
 2746 0f73 3C       		.uleb128 0x3c
 2747 0f74 6D7000   		.ascii	"mp\000"
 2748 0f77 01       		.byte	0x1
 2749 0f78 EB01     		.2byte	0x1eb
 2750 0f7a 03070000 		.4byte	0x703
 2751 0f7e 26050000 		.4byte	.LLST42
 2752 0f82 3D       		.uleb128 0x3d
 2753 0f83 14000000 		.4byte	.LBB204
 2754 0f87 14000000 		.4byte	.LBE204-.LBB204
 2755 0f8b D10F0000 		.4byte	0xfd1
 2756 0f8f 1C       		.uleb128 0x1c
 2757 0f90 747000   		.ascii	"tp\000"
 2758 0f93 01       		.byte	0x1
 2759 0f94 F101     		.2byte	0x1f1
 2760 0f96 51020000 		.4byte	0x251
 2761 0f9a 37       		.uleb128 0x37
 2762 0f9b 65080000 		.4byte	0x865
 2763 0f9f 14000000 		.4byte	.LBB205
 2764 0fa3 18010000 		.4byte	.Ldebug_ranges0+0x118
 2765 0fa7 01       		.byte	0x1
 2766 0fa8 F101     		.2byte	0x1f1
 2767 0faa C70F0000 		.4byte	0xfc7
 2768 0fae 2A       		.uleb128 0x2a
 2769 0faf 76080000 		.4byte	0x876
 2770 0fb3 26050000 		.4byte	.LLST42
 2771 0fb7 28       		.uleb128 0x28
 2772 0fb8 18010000 		.4byte	.Ldebug_ranges0+0x118
 2773 0fbc 2C       		.uleb128 0x2c
 2774 0fbd 82080000 		.4byte	0x882
 2775 0fc1 44050000 		.4byte	.LLST44
 2776 0fc5 00       		.byte	0
 2777 0fc6 00       		.byte	0
 2778 0fc7 30       		.uleb128 0x30
 2779 0fc8 28000000 		.4byte	.LVL67
 2780 0fcc 84100000 		.4byte	0x1084
 2781 0fd0 00       		.byte	0
 2782 0fd1 31       		.uleb128 0x31
 2783 0fd2 4A080000 		.4byte	0x84a
 2784 0fd6 2C000000 		.4byte	.LBB211
ARM GAS  /tmp/ccSFlF6o.s 			page 50


 2785 0fda 02000000 		.4byte	.LBE211-.LBB211
 2786 0fde 01       		.byte	0x1
 2787 0fdf ED01     		.2byte	0x1ed
 2788 0fe1 2A       		.uleb128 0x2a
 2789 0fe2 5A080000 		.4byte	0x85a
 2790 0fe6 62050000 		.4byte	.LLST45
 2791 0fea 24       		.uleb128 0x24
 2792 0feb 35070000 		.4byte	0x735
 2793 0fef 2C000000 		.4byte	.LBB213
 2794 0ff3 02000000 		.4byte	.LBE213-.LBB213
 2795 0ff7 0C       		.byte	0xc
 2796 0ff8 85       		.byte	0x85
 2797 0ff9 2A       		.uleb128 0x2a
 2798 0ffa 46070000 		.4byte	0x746
 2799 0ffe 62050000 		.4byte	.LLST45
 2800 1002 00       		.byte	0
 2801 1003 00       		.byte	0
 2802 1004 00       		.byte	0
 2803 1005 36       		.uleb128 0x36
 2804 1006 DB070000 		.4byte	0x7db
 2805 100a 46000000 		.4byte	.LBB216
 2806 100e 0E000000 		.4byte	.LBE216-.LBB216
 2807 1012 01       		.byte	0x1
 2808 1013 0102     		.2byte	0x201
 2809 1015 51100000 		.4byte	0x1051
 2810 1019 2B       		.uleb128 0x2b
 2811 101a 46000000 		.4byte	.LBB217
 2812 101e 0E000000 		.4byte	.LBE217-.LBB217
 2813 1022 33       		.uleb128 0x33
 2814 1023 E8070000 		.4byte	0x7e8
 2815 1027 31       		.uleb128 0x31
 2816 1028 2C070000 		.4byte	0x72c
 2817 102c 46000000 		.4byte	.LBB218
 2818 1030 0E000000 		.4byte	.LBE218-.LBB218
 2819 1034 0D       		.byte	0xd
 2820 1035 7301     		.2byte	0x173
 2821 1037 31       		.uleb128 0x31
 2822 1038 09070000 		.4byte	0x709
 2823 103c 46000000 		.4byte	.LBB219
 2824 1040 0E000000 		.4byte	.LBE219-.LBB219
 2825 1044 09       		.byte	0x9
 2826 1045 CD01     		.2byte	0x1cd
 2827 1047 32       		.uleb128 0x32
 2828 1048 16070000 		.4byte	0x716
 2829 104c 00       		.byte	0
 2830 104d 00       		.byte	0
 2831 104e 00       		.byte	0
 2832 104f 00       		.byte	0
 2833 1050 00       		.byte	0
 2834 1051 30       		.uleb128 0x30
 2835 1052 46000000 		.4byte	.LVL73
 2836 1056 9A100000 		.4byte	0x109a
 2837 105a 00       		.byte	0
 2838 105b 42       		.uleb128 0x42
 2839 105c 9E000000 		.4byte	.LASF126
 2840 1060 0E       		.byte	0xe
 2841 1061 A706     		.2byte	0x6a7
ARM GAS  /tmp/ccSFlF6o.s 			page 51


 2842 1063 C3000000 		.4byte	0xc3
 2843 1067 43       		.uleb128 0x43
 2844 1068 636800   		.ascii	"ch\000"
 2845 106b 02       		.byte	0x2
 2846 106c 0902     		.2byte	0x209
 2847 106e FD030000 		.4byte	0x3fd
 2848 1072 44       		.uleb128 0x44
 2849 1073 2D050000 		.4byte	.LASF132
 2850 1077 02       		.byte	0x2
 2851 1078 1402     		.2byte	0x214
 2852 107a 84100000 		.4byte	0x1084
 2853 107e 0D       		.uleb128 0xd
 2854 107f DE000000 		.4byte	0xde
 2855 1083 00       		.byte	0
 2856 1084 45       		.uleb128 0x45
 2857 1085 5E050000 		.4byte	.LASF127
 2858 1089 02       		.byte	0x2
 2859 108a 1302     		.2byte	0x213
 2860 108c 51020000 		.4byte	0x251
 2861 1090 9A100000 		.4byte	0x109a
 2862 1094 0D       		.uleb128 0xd
 2863 1095 51020000 		.4byte	0x251
 2864 1099 00       		.byte	0
 2865 109a 46       		.uleb128 0x46
 2866 109b 61020000 		.4byte	.LASF133
 2867 109f 02       		.byte	0x2
 2868 10a0 1702     		.2byte	0x217
 2869 10a2 00       		.byte	0
 2870              		.section	.debug_abbrev,"",%progbits
 2871              	.Ldebug_abbrev0:
 2872 0000 01       		.uleb128 0x1
 2873 0001 11       		.uleb128 0x11
 2874 0002 01       		.byte	0x1
 2875 0003 25       		.uleb128 0x25
 2876 0004 0E       		.uleb128 0xe
 2877 0005 13       		.uleb128 0x13
 2878 0006 0B       		.uleb128 0xb
 2879 0007 03       		.uleb128 0x3
 2880 0008 0E       		.uleb128 0xe
 2881 0009 1B       		.uleb128 0x1b
 2882 000a 0E       		.uleb128 0xe
 2883 000b 55       		.uleb128 0x55
 2884 000c 17       		.uleb128 0x17
 2885 000d 11       		.uleb128 0x11
 2886 000e 01       		.uleb128 0x1
 2887 000f 10       		.uleb128 0x10
 2888 0010 17       		.uleb128 0x17
 2889 0011 00       		.byte	0
 2890 0012 00       		.byte	0
 2891 0013 02       		.uleb128 0x2
 2892 0014 24       		.uleb128 0x24
 2893 0015 00       		.byte	0
 2894 0016 0B       		.uleb128 0xb
 2895 0017 0B       		.uleb128 0xb
 2896 0018 3E       		.uleb128 0x3e
 2897 0019 0B       		.uleb128 0xb
 2898 001a 03       		.uleb128 0x3
ARM GAS  /tmp/ccSFlF6o.s 			page 52


 2899 001b 08       		.uleb128 0x8
 2900 001c 00       		.byte	0
 2901 001d 00       		.byte	0
 2902 001e 03       		.uleb128 0x3
 2903 001f 24       		.uleb128 0x24
 2904 0020 00       		.byte	0
 2905 0021 0B       		.uleb128 0xb
 2906 0022 0B       		.uleb128 0xb
 2907 0023 3E       		.uleb128 0x3e
 2908 0024 0B       		.uleb128 0xb
 2909 0025 03       		.uleb128 0x3
 2910 0026 0E       		.uleb128 0xe
 2911 0027 00       		.byte	0
 2912 0028 00       		.byte	0
 2913 0029 04       		.uleb128 0x4
 2914 002a 16       		.uleb128 0x16
 2915 002b 00       		.byte	0
 2916 002c 03       		.uleb128 0x3
 2917 002d 0E       		.uleb128 0xe
 2918 002e 3A       		.uleb128 0x3a
 2919 002f 0B       		.uleb128 0xb
 2920 0030 3B       		.uleb128 0x3b
 2921 0031 0B       		.uleb128 0xb
 2922 0032 49       		.uleb128 0x49
 2923 0033 13       		.uleb128 0x13
 2924 0034 00       		.byte	0
 2925 0035 00       		.byte	0
 2926 0036 05       		.uleb128 0x5
 2927 0037 35       		.uleb128 0x35
 2928 0038 00       		.byte	0
 2929 0039 49       		.uleb128 0x49
 2930 003a 13       		.uleb128 0x13
 2931 003b 00       		.byte	0
 2932 003c 00       		.byte	0
 2933 003d 06       		.uleb128 0x6
 2934 003e 13       		.uleb128 0x13
 2935 003f 01       		.byte	0x1
 2936 0040 03       		.uleb128 0x3
 2937 0041 0E       		.uleb128 0xe
 2938 0042 0B       		.uleb128 0xb
 2939 0043 0B       		.uleb128 0xb
 2940 0044 3A       		.uleb128 0x3a
 2941 0045 0B       		.uleb128 0xb
 2942 0046 3B       		.uleb128 0x3b
 2943 0047 0B       		.uleb128 0xb
 2944 0048 01       		.uleb128 0x1
 2945 0049 13       		.uleb128 0x13
 2946 004a 00       		.byte	0
 2947 004b 00       		.byte	0
 2948 004c 07       		.uleb128 0x7
 2949 004d 0D       		.uleb128 0xd
 2950 004e 00       		.byte	0
 2951 004f 03       		.uleb128 0x3
 2952 0050 0E       		.uleb128 0xe
 2953 0051 3A       		.uleb128 0x3a
 2954 0052 0B       		.uleb128 0xb
 2955 0053 3B       		.uleb128 0x3b
ARM GAS  /tmp/ccSFlF6o.s 			page 53


 2956 0054 0B       		.uleb128 0xb
 2957 0055 49       		.uleb128 0x49
 2958 0056 13       		.uleb128 0x13
 2959 0057 38       		.uleb128 0x38
 2960 0058 0B       		.uleb128 0xb
 2961 0059 00       		.byte	0
 2962 005a 00       		.byte	0
 2963 005b 08       		.uleb128 0x8
 2964 005c 0D       		.uleb128 0xd
 2965 005d 00       		.byte	0
 2966 005e 03       		.uleb128 0x3
 2967 005f 08       		.uleb128 0x8
 2968 0060 3A       		.uleb128 0x3a
 2969 0061 0B       		.uleb128 0xb
 2970 0062 3B       		.uleb128 0x3b
 2971 0063 05       		.uleb128 0x5
 2972 0064 49       		.uleb128 0x49
 2973 0065 13       		.uleb128 0x13
 2974 0066 38       		.uleb128 0x38
 2975 0067 0B       		.uleb128 0xb
 2976 0068 00       		.byte	0
 2977 0069 00       		.byte	0
 2978 006a 09       		.uleb128 0x9
 2979 006b 0D       		.uleb128 0xd
 2980 006c 00       		.byte	0
 2981 006d 03       		.uleb128 0x3
 2982 006e 0E       		.uleb128 0xe
 2983 006f 3A       		.uleb128 0x3a
 2984 0070 0B       		.uleb128 0xb
 2985 0071 3B       		.uleb128 0x3b
 2986 0072 05       		.uleb128 0x5
 2987 0073 49       		.uleb128 0x49
 2988 0074 13       		.uleb128 0x13
 2989 0075 38       		.uleb128 0x38
 2990 0076 0B       		.uleb128 0xb
 2991 0077 00       		.byte	0
 2992 0078 00       		.byte	0
 2993 0079 0A       		.uleb128 0xa
 2994 007a 0F       		.uleb128 0xf
 2995 007b 00       		.byte	0
 2996 007c 0B       		.uleb128 0xb
 2997 007d 0B       		.uleb128 0xb
 2998 007e 49       		.uleb128 0x49
 2999 007f 13       		.uleb128 0x13
 3000 0080 00       		.byte	0
 3001 0081 00       		.byte	0
 3002 0082 0B       		.uleb128 0xb
 3003 0083 13       		.uleb128 0x13
 3004 0084 01       		.byte	0x1
 3005 0085 03       		.uleb128 0x3
 3006 0086 0E       		.uleb128 0xe
 3007 0087 0B       		.uleb128 0xb
 3008 0088 0B       		.uleb128 0xb
 3009 0089 3A       		.uleb128 0x3a
 3010 008a 0B       		.uleb128 0xb
 3011 008b 3B       		.uleb128 0x3b
 3012 008c 05       		.uleb128 0x5
ARM GAS  /tmp/ccSFlF6o.s 			page 54


 3013 008d 01       		.uleb128 0x1
 3014 008e 13       		.uleb128 0x13
 3015 008f 00       		.byte	0
 3016 0090 00       		.byte	0
 3017 0091 0C       		.uleb128 0xc
 3018 0092 15       		.uleb128 0x15
 3019 0093 01       		.byte	0x1
 3020 0094 27       		.uleb128 0x27
 3021 0095 19       		.uleb128 0x19
 3022 0096 01       		.uleb128 0x1
 3023 0097 13       		.uleb128 0x13
 3024 0098 00       		.byte	0
 3025 0099 00       		.byte	0
 3026 009a 0D       		.uleb128 0xd
 3027 009b 05       		.uleb128 0x5
 3028 009c 00       		.byte	0
 3029 009d 49       		.uleb128 0x49
 3030 009e 13       		.uleb128 0x13
 3031 009f 00       		.byte	0
 3032 00a0 00       		.byte	0
 3033 00a1 0E       		.uleb128 0xe
 3034 00a2 0F       		.uleb128 0xf
 3035 00a3 00       		.byte	0
 3036 00a4 0B       		.uleb128 0xb
 3037 00a5 0B       		.uleb128 0xb
 3038 00a6 00       		.byte	0
 3039 00a7 00       		.byte	0
 3040 00a8 0F       		.uleb128 0xf
 3041 00a9 13       		.uleb128 0x13
 3042 00aa 01       		.byte	0x1
 3043 00ab 03       		.uleb128 0x3
 3044 00ac 0E       		.uleb128 0xe
 3045 00ad 0B       		.uleb128 0xb
 3046 00ae 05       		.uleb128 0x5
 3047 00af 3A       		.uleb128 0x3a
 3048 00b0 0B       		.uleb128 0xb
 3049 00b1 3B       		.uleb128 0x3b
 3050 00b2 05       		.uleb128 0x5
 3051 00b3 01       		.uleb128 0x1
 3052 00b4 13       		.uleb128 0x13
 3053 00b5 00       		.byte	0
 3054 00b6 00       		.byte	0
 3055 00b7 10       		.uleb128 0x10
 3056 00b8 0D       		.uleb128 0xd
 3057 00b9 00       		.byte	0
 3058 00ba 03       		.uleb128 0x3
 3059 00bb 08       		.uleb128 0x8
 3060 00bc 3A       		.uleb128 0x3a
 3061 00bd 0B       		.uleb128 0xb
 3062 00be 3B       		.uleb128 0x3b
 3063 00bf 0B       		.uleb128 0xb
 3064 00c0 49       		.uleb128 0x49
 3065 00c1 13       		.uleb128 0x13
 3066 00c2 38       		.uleb128 0x38
 3067 00c3 0B       		.uleb128 0xb
 3068 00c4 00       		.byte	0
 3069 00c5 00       		.byte	0
ARM GAS  /tmp/ccSFlF6o.s 			page 55


 3070 00c6 11       		.uleb128 0x11
 3071 00c7 13       		.uleb128 0x13
 3072 00c8 01       		.byte	0x1
 3073 00c9 0B       		.uleb128 0xb
 3074 00ca 0B       		.uleb128 0xb
 3075 00cb 3A       		.uleb128 0x3a
 3076 00cc 0B       		.uleb128 0xb
 3077 00cd 3B       		.uleb128 0x3b
 3078 00ce 0B       		.uleb128 0xb
 3079 00cf 01       		.uleb128 0x1
 3080 00d0 13       		.uleb128 0x13
 3081 00d1 00       		.byte	0
 3082 00d2 00       		.byte	0
 3083 00d3 12       		.uleb128 0x12
 3084 00d4 17       		.uleb128 0x17
 3085 00d5 01       		.byte	0x1
 3086 00d6 0B       		.uleb128 0xb
 3087 00d7 0B       		.uleb128 0xb
 3088 00d8 3A       		.uleb128 0x3a
 3089 00d9 0B       		.uleb128 0xb
 3090 00da 3B       		.uleb128 0x3b
 3091 00db 0B       		.uleb128 0xb
 3092 00dc 01       		.uleb128 0x1
 3093 00dd 13       		.uleb128 0x13
 3094 00de 00       		.byte	0
 3095 00df 00       		.byte	0
 3096 00e0 13       		.uleb128 0x13
 3097 00e1 0D       		.uleb128 0xd
 3098 00e2 00       		.byte	0
 3099 00e3 03       		.uleb128 0x3
 3100 00e4 0E       		.uleb128 0xe
 3101 00e5 3A       		.uleb128 0x3a
 3102 00e6 0B       		.uleb128 0xb
 3103 00e7 3B       		.uleb128 0x3b
 3104 00e8 05       		.uleb128 0x5
 3105 00e9 49       		.uleb128 0x49
 3106 00ea 13       		.uleb128 0x13
 3107 00eb 00       		.byte	0
 3108 00ec 00       		.byte	0
 3109 00ed 14       		.uleb128 0x14
 3110 00ee 26       		.uleb128 0x26
 3111 00ef 00       		.byte	0
 3112 00f0 49       		.uleb128 0x49
 3113 00f1 13       		.uleb128 0x13
 3114 00f2 00       		.byte	0
 3115 00f3 00       		.byte	0
 3116 00f4 15       		.uleb128 0x15
 3117 00f5 01       		.uleb128 0x1
 3118 00f6 01       		.byte	0x1
 3119 00f7 49       		.uleb128 0x49
 3120 00f8 13       		.uleb128 0x13
 3121 00f9 01       		.uleb128 0x1
 3122 00fa 13       		.uleb128 0x13
 3123 00fb 00       		.byte	0
 3124 00fc 00       		.byte	0
 3125 00fd 16       		.uleb128 0x16
 3126 00fe 21       		.uleb128 0x21
ARM GAS  /tmp/ccSFlF6o.s 			page 56


 3127 00ff 00       		.byte	0
 3128 0100 49       		.uleb128 0x49
 3129 0101 13       		.uleb128 0x13
 3130 0102 2F       		.uleb128 0x2f
 3131 0103 0B       		.uleb128 0xb
 3132 0104 00       		.byte	0
 3133 0105 00       		.byte	0
 3134 0106 17       		.uleb128 0x17
 3135 0107 2E       		.uleb128 0x2e
 3136 0108 01       		.byte	0x1
 3137 0109 03       		.uleb128 0x3
 3138 010a 0E       		.uleb128 0xe
 3139 010b 3A       		.uleb128 0x3a
 3140 010c 0B       		.uleb128 0xb
 3141 010d 3B       		.uleb128 0x3b
 3142 010e 05       		.uleb128 0x5
 3143 010f 27       		.uleb128 0x27
 3144 0110 19       		.uleb128 0x19
 3145 0111 20       		.uleb128 0x20
 3146 0112 0B       		.uleb128 0xb
 3147 0113 01       		.uleb128 0x1
 3148 0114 13       		.uleb128 0x13
 3149 0115 00       		.byte	0
 3150 0116 00       		.byte	0
 3151 0117 18       		.uleb128 0x18
 3152 0118 05       		.uleb128 0x5
 3153 0119 00       		.byte	0
 3154 011a 03       		.uleb128 0x3
 3155 011b 0E       		.uleb128 0xe
 3156 011c 3A       		.uleb128 0x3a
 3157 011d 0B       		.uleb128 0xb
 3158 011e 3B       		.uleb128 0x3b
 3159 011f 05       		.uleb128 0x5
 3160 0120 49       		.uleb128 0x49
 3161 0121 13       		.uleb128 0x13
 3162 0122 00       		.byte	0
 3163 0123 00       		.byte	0
 3164 0124 19       		.uleb128 0x19
 3165 0125 2E       		.uleb128 0x2e
 3166 0126 00       		.byte	0
 3167 0127 03       		.uleb128 0x3
 3168 0128 0E       		.uleb128 0xe
 3169 0129 3A       		.uleb128 0x3a
 3170 012a 0B       		.uleb128 0xb
 3171 012b 3B       		.uleb128 0x3b
 3172 012c 05       		.uleb128 0x5
 3173 012d 27       		.uleb128 0x27
 3174 012e 19       		.uleb128 0x19
 3175 012f 20       		.uleb128 0x20
 3176 0130 0B       		.uleb128 0xb
 3177 0131 00       		.byte	0
 3178 0132 00       		.byte	0
 3179 0133 1A       		.uleb128 0x1a
 3180 0134 2E       		.uleb128 0x2e
 3181 0135 01       		.byte	0x1
 3182 0136 03       		.uleb128 0x3
 3183 0137 0E       		.uleb128 0xe
ARM GAS  /tmp/ccSFlF6o.s 			page 57


 3184 0138 3A       		.uleb128 0x3a
 3185 0139 0B       		.uleb128 0xb
 3186 013a 3B       		.uleb128 0x3b
 3187 013b 05       		.uleb128 0x5
 3188 013c 27       		.uleb128 0x27
 3189 013d 19       		.uleb128 0x19
 3190 013e 49       		.uleb128 0x49
 3191 013f 13       		.uleb128 0x13
 3192 0140 20       		.uleb128 0x20
 3193 0141 0B       		.uleb128 0xb
 3194 0142 01       		.uleb128 0x1
 3195 0143 13       		.uleb128 0x13
 3196 0144 00       		.byte	0
 3197 0145 00       		.byte	0
 3198 0146 1B       		.uleb128 0x1b
 3199 0147 05       		.uleb128 0x5
 3200 0148 00       		.byte	0
 3201 0149 03       		.uleb128 0x3
 3202 014a 08       		.uleb128 0x8
 3203 014b 3A       		.uleb128 0x3a
 3204 014c 0B       		.uleb128 0xb
 3205 014d 3B       		.uleb128 0x3b
 3206 014e 05       		.uleb128 0x5
 3207 014f 49       		.uleb128 0x49
 3208 0150 13       		.uleb128 0x13
 3209 0151 00       		.byte	0
 3210 0152 00       		.byte	0
 3211 0153 1C       		.uleb128 0x1c
 3212 0154 34       		.uleb128 0x34
 3213 0155 00       		.byte	0
 3214 0156 03       		.uleb128 0x3
 3215 0157 08       		.uleb128 0x8
 3216 0158 3A       		.uleb128 0x3a
 3217 0159 0B       		.uleb128 0xb
 3218 015a 3B       		.uleb128 0x3b
 3219 015b 05       		.uleb128 0x5
 3220 015c 49       		.uleb128 0x49
 3221 015d 13       		.uleb128 0x13
 3222 015e 00       		.byte	0
 3223 015f 00       		.byte	0
 3224 0160 1D       		.uleb128 0x1d
 3225 0161 34       		.uleb128 0x34
 3226 0162 00       		.byte	0
 3227 0163 03       		.uleb128 0x3
 3228 0164 0E       		.uleb128 0xe
 3229 0165 49       		.uleb128 0x49
 3230 0166 13       		.uleb128 0x13
 3231 0167 34       		.uleb128 0x34
 3232 0168 19       		.uleb128 0x19
 3233 0169 1C       		.uleb128 0x1c
 3234 016a 0E       		.uleb128 0xe
 3235 016b 00       		.byte	0
 3236 016c 00       		.byte	0
 3237 016d 1E       		.uleb128 0x1e
 3238 016e 2E       		.uleb128 0x2e
 3239 016f 01       		.byte	0x1
 3240 0170 3F       		.uleb128 0x3f
ARM GAS  /tmp/ccSFlF6o.s 			page 58


 3241 0171 19       		.uleb128 0x19
 3242 0172 03       		.uleb128 0x3
 3243 0173 0E       		.uleb128 0xe
 3244 0174 3A       		.uleb128 0x3a
 3245 0175 0B       		.uleb128 0xb
 3246 0176 3B       		.uleb128 0x3b
 3247 0177 05       		.uleb128 0x5
 3248 0178 27       		.uleb128 0x27
 3249 0179 19       		.uleb128 0x19
 3250 017a 49       		.uleb128 0x49
 3251 017b 13       		.uleb128 0x13
 3252 017c 20       		.uleb128 0x20
 3253 017d 0B       		.uleb128 0xb
 3254 017e 01       		.uleb128 0x1
 3255 017f 13       		.uleb128 0x13
 3256 0180 00       		.byte	0
 3257 0181 00       		.byte	0
 3258 0182 1F       		.uleb128 0x1f
 3259 0183 2E       		.uleb128 0x2e
 3260 0184 01       		.byte	0x1
 3261 0185 03       		.uleb128 0x3
 3262 0186 0E       		.uleb128 0xe
 3263 0187 3A       		.uleb128 0x3a
 3264 0188 0B       		.uleb128 0xb
 3265 0189 3B       		.uleb128 0x3b
 3266 018a 0B       		.uleb128 0xb
 3267 018b 27       		.uleb128 0x27
 3268 018c 19       		.uleb128 0x19
 3269 018d 49       		.uleb128 0x49
 3270 018e 13       		.uleb128 0x13
 3271 018f 20       		.uleb128 0x20
 3272 0190 0B       		.uleb128 0xb
 3273 0191 01       		.uleb128 0x1
 3274 0192 13       		.uleb128 0x13
 3275 0193 00       		.byte	0
 3276 0194 00       		.byte	0
 3277 0195 20       		.uleb128 0x20
 3278 0196 05       		.uleb128 0x5
 3279 0197 00       		.byte	0
 3280 0198 03       		.uleb128 0x3
 3281 0199 08       		.uleb128 0x8
 3282 019a 3A       		.uleb128 0x3a
 3283 019b 0B       		.uleb128 0xb
 3284 019c 3B       		.uleb128 0x3b
 3285 019d 0B       		.uleb128 0xb
 3286 019e 49       		.uleb128 0x49
 3287 019f 13       		.uleb128 0x13
 3288 01a0 00       		.byte	0
 3289 01a1 00       		.byte	0
 3290 01a2 21       		.uleb128 0x21
 3291 01a3 2E       		.uleb128 0x2e
 3292 01a4 01       		.byte	0x1
 3293 01a5 3F       		.uleb128 0x3f
 3294 01a6 19       		.uleb128 0x19
 3295 01a7 03       		.uleb128 0x3
 3296 01a8 0E       		.uleb128 0xe
 3297 01a9 3A       		.uleb128 0x3a
ARM GAS  /tmp/ccSFlF6o.s 			page 59


 3298 01aa 0B       		.uleb128 0xb
 3299 01ab 3B       		.uleb128 0x3b
 3300 01ac 0B       		.uleb128 0xb
 3301 01ad 27       		.uleb128 0x27
 3302 01ae 19       		.uleb128 0x19
 3303 01af 11       		.uleb128 0x11
 3304 01b0 01       		.uleb128 0x1
 3305 01b1 12       		.uleb128 0x12
 3306 01b2 06       		.uleb128 0x6
 3307 01b3 40       		.uleb128 0x40
 3308 01b4 18       		.uleb128 0x18
 3309 01b5 9742     		.uleb128 0x2117
 3310 01b7 19       		.uleb128 0x19
 3311 01b8 01       		.uleb128 0x1
 3312 01b9 13       		.uleb128 0x13
 3313 01ba 00       		.byte	0
 3314 01bb 00       		.byte	0
 3315 01bc 22       		.uleb128 0x22
 3316 01bd 05       		.uleb128 0x5
 3317 01be 00       		.byte	0
 3318 01bf 03       		.uleb128 0x3
 3319 01c0 08       		.uleb128 0x8
 3320 01c1 3A       		.uleb128 0x3a
 3321 01c2 0B       		.uleb128 0xb
 3322 01c3 3B       		.uleb128 0x3b
 3323 01c4 0B       		.uleb128 0xb
 3324 01c5 49       		.uleb128 0x49
 3325 01c6 13       		.uleb128 0x13
 3326 01c7 02       		.uleb128 0x2
 3327 01c8 18       		.uleb128 0x18
 3328 01c9 00       		.byte	0
 3329 01ca 00       		.byte	0
 3330 01cb 23       		.uleb128 0x23
 3331 01cc 34       		.uleb128 0x34
 3332 01cd 00       		.byte	0
 3333 01ce 03       		.uleb128 0x3
 3334 01cf 0E       		.uleb128 0xe
 3335 01d0 49       		.uleb128 0x49
 3336 01d1 13       		.uleb128 0x13
 3337 01d2 34       		.uleb128 0x34
 3338 01d3 19       		.uleb128 0x19
 3339 01d4 00       		.byte	0
 3340 01d5 00       		.byte	0
 3341 01d6 24       		.uleb128 0x24
 3342 01d7 1D       		.uleb128 0x1d
 3343 01d8 01       		.byte	0x1
 3344 01d9 31       		.uleb128 0x31
 3345 01da 13       		.uleb128 0x13
 3346 01db 11       		.uleb128 0x11
 3347 01dc 01       		.uleb128 0x1
 3348 01dd 12       		.uleb128 0x12
 3349 01de 06       		.uleb128 0x6
 3350 01df 58       		.uleb128 0x58
 3351 01e0 0B       		.uleb128 0xb
 3352 01e1 59       		.uleb128 0x59
 3353 01e2 0B       		.uleb128 0xb
 3354 01e3 00       		.byte	0
ARM GAS  /tmp/ccSFlF6o.s 			page 60


 3355 01e4 00       		.byte	0
 3356 01e5 25       		.uleb128 0x25
 3357 01e6 05       		.uleb128 0x5
 3358 01e7 00       		.byte	0
 3359 01e8 31       		.uleb128 0x31
 3360 01e9 13       		.uleb128 0x13
 3361 01ea 02       		.uleb128 0x2
 3362 01eb 18       		.uleb128 0x18
 3363 01ec 00       		.byte	0
 3364 01ed 00       		.byte	0
 3365 01ee 26       		.uleb128 0x26
 3366 01ef 05       		.uleb128 0x5
 3367 01f0 00       		.byte	0
 3368 01f1 03       		.uleb128 0x3
 3369 01f2 08       		.uleb128 0x8
 3370 01f3 3A       		.uleb128 0x3a
 3371 01f4 0B       		.uleb128 0xb
 3372 01f5 3B       		.uleb128 0x3b
 3373 01f6 0B       		.uleb128 0xb
 3374 01f7 49       		.uleb128 0x49
 3375 01f8 13       		.uleb128 0x13
 3376 01f9 02       		.uleb128 0x2
 3377 01fa 17       		.uleb128 0x17
 3378 01fb 00       		.byte	0
 3379 01fc 00       		.byte	0
 3380 01fd 27       		.uleb128 0x27
 3381 01fe 34       		.uleb128 0x34
 3382 01ff 00       		.byte	0
 3383 0200 03       		.uleb128 0x3
 3384 0201 08       		.uleb128 0x8
 3385 0202 3A       		.uleb128 0x3a
 3386 0203 0B       		.uleb128 0xb
 3387 0204 3B       		.uleb128 0x3b
 3388 0205 0B       		.uleb128 0xb
 3389 0206 49       		.uleb128 0x49
 3390 0207 13       		.uleb128 0x13
 3391 0208 02       		.uleb128 0x2
 3392 0209 17       		.uleb128 0x17
 3393 020a 00       		.byte	0
 3394 020b 00       		.byte	0
 3395 020c 28       		.uleb128 0x28
 3396 020d 0B       		.uleb128 0xb
 3397 020e 01       		.byte	0x1
 3398 020f 55       		.uleb128 0x55
 3399 0210 17       		.uleb128 0x17
 3400 0211 00       		.byte	0
 3401 0212 00       		.byte	0
 3402 0213 29       		.uleb128 0x29
 3403 0214 1D       		.uleb128 0x1d
 3404 0215 01       		.byte	0x1
 3405 0216 31       		.uleb128 0x31
 3406 0217 13       		.uleb128 0x13
 3407 0218 11       		.uleb128 0x11
 3408 0219 01       		.uleb128 0x1
 3409 021a 12       		.uleb128 0x12
 3410 021b 06       		.uleb128 0x6
 3411 021c 58       		.uleb128 0x58
ARM GAS  /tmp/ccSFlF6o.s 			page 61


 3412 021d 0B       		.uleb128 0xb
 3413 021e 59       		.uleb128 0x59
 3414 021f 0B       		.uleb128 0xb
 3415 0220 01       		.uleb128 0x1
 3416 0221 13       		.uleb128 0x13
 3417 0222 00       		.byte	0
 3418 0223 00       		.byte	0
 3419 0224 2A       		.uleb128 0x2a
 3420 0225 05       		.uleb128 0x5
 3421 0226 00       		.byte	0
 3422 0227 31       		.uleb128 0x31
 3423 0228 13       		.uleb128 0x13
 3424 0229 02       		.uleb128 0x2
 3425 022a 17       		.uleb128 0x17
 3426 022b 00       		.byte	0
 3427 022c 00       		.byte	0
 3428 022d 2B       		.uleb128 0x2b
 3429 022e 0B       		.uleb128 0xb
 3430 022f 01       		.byte	0x1
 3431 0230 11       		.uleb128 0x11
 3432 0231 01       		.uleb128 0x1
 3433 0232 12       		.uleb128 0x12
 3434 0233 06       		.uleb128 0x6
 3435 0234 00       		.byte	0
 3436 0235 00       		.byte	0
 3437 0236 2C       		.uleb128 0x2c
 3438 0237 34       		.uleb128 0x34
 3439 0238 00       		.byte	0
 3440 0239 31       		.uleb128 0x31
 3441 023a 13       		.uleb128 0x13
 3442 023b 02       		.uleb128 0x2
 3443 023c 17       		.uleb128 0x17
 3444 023d 00       		.byte	0
 3445 023e 00       		.byte	0
 3446 023f 2D       		.uleb128 0x2d
 3447 0240 1D       		.uleb128 0x1d
 3448 0241 01       		.byte	0x1
 3449 0242 31       		.uleb128 0x31
 3450 0243 13       		.uleb128 0x13
 3451 0244 52       		.uleb128 0x52
 3452 0245 01       		.uleb128 0x1
 3453 0246 55       		.uleb128 0x55
 3454 0247 17       		.uleb128 0x17
 3455 0248 58       		.uleb128 0x58
 3456 0249 0B       		.uleb128 0xb
 3457 024a 59       		.uleb128 0x59
 3458 024b 0B       		.uleb128 0xb
 3459 024c 01       		.uleb128 0x1
 3460 024d 13       		.uleb128 0x13
 3461 024e 00       		.byte	0
 3462 024f 00       		.byte	0
 3463 0250 2E       		.uleb128 0x2e
 3464 0251 898201   		.uleb128 0x4109
 3465 0254 01       		.byte	0x1
 3466 0255 11       		.uleb128 0x11
 3467 0256 01       		.uleb128 0x1
 3468 0257 9542     		.uleb128 0x2115
ARM GAS  /tmp/ccSFlF6o.s 			page 62


 3469 0259 19       		.uleb128 0x19
 3470 025a 31       		.uleb128 0x31
 3471 025b 13       		.uleb128 0x13
 3472 025c 01       		.uleb128 0x1
 3473 025d 13       		.uleb128 0x13
 3474 025e 00       		.byte	0
 3475 025f 00       		.byte	0
 3476 0260 2F       		.uleb128 0x2f
 3477 0261 8A8201   		.uleb128 0x410a
 3478 0264 00       		.byte	0
 3479 0265 02       		.uleb128 0x2
 3480 0266 18       		.uleb128 0x18
 3481 0267 9142     		.uleb128 0x2111
 3482 0269 18       		.uleb128 0x18
 3483 026a 00       		.byte	0
 3484 026b 00       		.byte	0
 3485 026c 30       		.uleb128 0x30
 3486 026d 898201   		.uleb128 0x4109
 3487 0270 00       		.byte	0
 3488 0271 11       		.uleb128 0x11
 3489 0272 01       		.uleb128 0x1
 3490 0273 31       		.uleb128 0x31
 3491 0274 13       		.uleb128 0x13
 3492 0275 00       		.byte	0
 3493 0276 00       		.byte	0
 3494 0277 31       		.uleb128 0x31
 3495 0278 1D       		.uleb128 0x1d
 3496 0279 01       		.byte	0x1
 3497 027a 31       		.uleb128 0x31
 3498 027b 13       		.uleb128 0x13
 3499 027c 11       		.uleb128 0x11
 3500 027d 01       		.uleb128 0x1
 3501 027e 12       		.uleb128 0x12
 3502 027f 06       		.uleb128 0x6
 3503 0280 58       		.uleb128 0x58
 3504 0281 0B       		.uleb128 0xb
 3505 0282 59       		.uleb128 0x59
 3506 0283 05       		.uleb128 0x5
 3507 0284 00       		.byte	0
 3508 0285 00       		.byte	0
 3509 0286 32       		.uleb128 0x32
 3510 0287 05       		.uleb128 0x5
 3511 0288 00       		.byte	0
 3512 0289 31       		.uleb128 0x31
 3513 028a 13       		.uleb128 0x13
 3514 028b 1C       		.uleb128 0x1c
 3515 028c 0B       		.uleb128 0xb
 3516 028d 00       		.byte	0
 3517 028e 00       		.byte	0
 3518 028f 33       		.uleb128 0x33
 3519 0290 34       		.uleb128 0x34
 3520 0291 00       		.byte	0
 3521 0292 31       		.uleb128 0x31
 3522 0293 13       		.uleb128 0x13
 3523 0294 00       		.byte	0
 3524 0295 00       		.byte	0
 3525 0296 34       		.uleb128 0x34
ARM GAS  /tmp/ccSFlF6o.s 			page 63


 3526 0297 898201   		.uleb128 0x4109
 3527 029a 01       		.byte	0x1
 3528 029b 11       		.uleb128 0x11
 3529 029c 01       		.uleb128 0x1
 3530 029d 31       		.uleb128 0x31
 3531 029e 13       		.uleb128 0x13
 3532 029f 00       		.byte	0
 3533 02a0 00       		.byte	0
 3534 02a1 35       		.uleb128 0x35
 3535 02a2 2E       		.uleb128 0x2e
 3536 02a3 01       		.byte	0x1
 3537 02a4 3F       		.uleb128 0x3f
 3538 02a5 19       		.uleb128 0x19
 3539 02a6 03       		.uleb128 0x3
 3540 02a7 0E       		.uleb128 0xe
 3541 02a8 3A       		.uleb128 0x3a
 3542 02a9 0B       		.uleb128 0xb
 3543 02aa 3B       		.uleb128 0x3b
 3544 02ab 0B       		.uleb128 0xb
 3545 02ac 27       		.uleb128 0x27
 3546 02ad 19       		.uleb128 0x19
 3547 02ae 49       		.uleb128 0x49
 3548 02af 13       		.uleb128 0x13
 3549 02b0 11       		.uleb128 0x11
 3550 02b1 01       		.uleb128 0x1
 3551 02b2 12       		.uleb128 0x12
 3552 02b3 06       		.uleb128 0x6
 3553 02b4 40       		.uleb128 0x40
 3554 02b5 18       		.uleb128 0x18
 3555 02b6 9742     		.uleb128 0x2117
 3556 02b8 19       		.uleb128 0x19
 3557 02b9 01       		.uleb128 0x1
 3558 02ba 13       		.uleb128 0x13
 3559 02bb 00       		.byte	0
 3560 02bc 00       		.byte	0
 3561 02bd 36       		.uleb128 0x36
 3562 02be 1D       		.uleb128 0x1d
 3563 02bf 01       		.byte	0x1
 3564 02c0 31       		.uleb128 0x31
 3565 02c1 13       		.uleb128 0x13
 3566 02c2 11       		.uleb128 0x11
 3567 02c3 01       		.uleb128 0x1
 3568 02c4 12       		.uleb128 0x12
 3569 02c5 06       		.uleb128 0x6
 3570 02c6 58       		.uleb128 0x58
 3571 02c7 0B       		.uleb128 0xb
 3572 02c8 59       		.uleb128 0x59
 3573 02c9 05       		.uleb128 0x5
 3574 02ca 01       		.uleb128 0x1
 3575 02cb 13       		.uleb128 0x13
 3576 02cc 00       		.byte	0
 3577 02cd 00       		.byte	0
 3578 02ce 37       		.uleb128 0x37
 3579 02cf 1D       		.uleb128 0x1d
 3580 02d0 01       		.byte	0x1
 3581 02d1 31       		.uleb128 0x31
 3582 02d2 13       		.uleb128 0x13
ARM GAS  /tmp/ccSFlF6o.s 			page 64


 3583 02d3 52       		.uleb128 0x52
 3584 02d4 01       		.uleb128 0x1
 3585 02d5 55       		.uleb128 0x55
 3586 02d6 17       		.uleb128 0x17
 3587 02d7 58       		.uleb128 0x58
 3588 02d8 0B       		.uleb128 0xb
 3589 02d9 59       		.uleb128 0x59
 3590 02da 05       		.uleb128 0x5
 3591 02db 01       		.uleb128 0x1
 3592 02dc 13       		.uleb128 0x13
 3593 02dd 00       		.byte	0
 3594 02de 00       		.byte	0
 3595 02df 38       		.uleb128 0x38
 3596 02e0 1D       		.uleb128 0x1d
 3597 02e1 01       		.byte	0x1
 3598 02e2 31       		.uleb128 0x31
 3599 02e3 13       		.uleb128 0x13
 3600 02e4 52       		.uleb128 0x52
 3601 02e5 01       		.uleb128 0x1
 3602 02e6 55       		.uleb128 0x55
 3603 02e7 17       		.uleb128 0x17
 3604 02e8 58       		.uleb128 0x58
 3605 02e9 0B       		.uleb128 0xb
 3606 02ea 59       		.uleb128 0x59
 3607 02eb 05       		.uleb128 0x5
 3608 02ec 00       		.byte	0
 3609 02ed 00       		.byte	0
 3610 02ee 39       		.uleb128 0x39
 3611 02ef 2E       		.uleb128 0x2e
 3612 02f0 01       		.byte	0x1
 3613 02f1 31       		.uleb128 0x31
 3614 02f2 13       		.uleb128 0x13
 3615 02f3 11       		.uleb128 0x11
 3616 02f4 01       		.uleb128 0x1
 3617 02f5 12       		.uleb128 0x12
 3618 02f6 06       		.uleb128 0x6
 3619 02f7 40       		.uleb128 0x40
 3620 02f8 18       		.uleb128 0x18
 3621 02f9 9742     		.uleb128 0x2117
 3622 02fb 19       		.uleb128 0x19
 3623 02fc 01       		.uleb128 0x1
 3624 02fd 13       		.uleb128 0x13
 3625 02fe 00       		.byte	0
 3626 02ff 00       		.byte	0
 3627 0300 3A       		.uleb128 0x3a
 3628 0301 2E       		.uleb128 0x2e
 3629 0302 01       		.byte	0x1
 3630 0303 3F       		.uleb128 0x3f
 3631 0304 19       		.uleb128 0x19
 3632 0305 03       		.uleb128 0x3
 3633 0306 0E       		.uleb128 0xe
 3634 0307 3A       		.uleb128 0x3a
 3635 0308 0B       		.uleb128 0xb
 3636 0309 3B       		.uleb128 0x3b
 3637 030a 05       		.uleb128 0x5
 3638 030b 27       		.uleb128 0x27
 3639 030c 19       		.uleb128 0x19
ARM GAS  /tmp/ccSFlF6o.s 			page 65


 3640 030d 11       		.uleb128 0x11
 3641 030e 01       		.uleb128 0x1
 3642 030f 12       		.uleb128 0x12
 3643 0310 06       		.uleb128 0x6
 3644 0311 40       		.uleb128 0x40
 3645 0312 18       		.uleb128 0x18
 3646 0313 9742     		.uleb128 0x2117
 3647 0315 19       		.uleb128 0x19
 3648 0316 01       		.uleb128 0x1
 3649 0317 13       		.uleb128 0x13
 3650 0318 00       		.byte	0
 3651 0319 00       		.byte	0
 3652 031a 3B       		.uleb128 0x3b
 3653 031b 05       		.uleb128 0x5
 3654 031c 00       		.byte	0
 3655 031d 03       		.uleb128 0x3
 3656 031e 08       		.uleb128 0x8
 3657 031f 3A       		.uleb128 0x3a
 3658 0320 0B       		.uleb128 0xb
 3659 0321 3B       		.uleb128 0x3b
 3660 0322 05       		.uleb128 0x5
 3661 0323 49       		.uleb128 0x49
 3662 0324 13       		.uleb128 0x13
 3663 0325 02       		.uleb128 0x2
 3664 0326 17       		.uleb128 0x17
 3665 0327 00       		.byte	0
 3666 0328 00       		.byte	0
 3667 0329 3C       		.uleb128 0x3c
 3668 032a 34       		.uleb128 0x34
 3669 032b 00       		.byte	0
 3670 032c 03       		.uleb128 0x3
 3671 032d 08       		.uleb128 0x8
 3672 032e 3A       		.uleb128 0x3a
 3673 032f 0B       		.uleb128 0xb
 3674 0330 3B       		.uleb128 0x3b
 3675 0331 05       		.uleb128 0x5
 3676 0332 49       		.uleb128 0x49
 3677 0333 13       		.uleb128 0x13
 3678 0334 02       		.uleb128 0x2
 3679 0335 17       		.uleb128 0x17
 3680 0336 00       		.byte	0
 3681 0337 00       		.byte	0
 3682 0338 3D       		.uleb128 0x3d
 3683 0339 0B       		.uleb128 0xb
 3684 033a 01       		.byte	0x1
 3685 033b 11       		.uleb128 0x11
 3686 033c 01       		.uleb128 0x1
 3687 033d 12       		.uleb128 0x12
 3688 033e 06       		.uleb128 0x6
 3689 033f 01       		.uleb128 0x1
 3690 0340 13       		.uleb128 0x13
 3691 0341 00       		.byte	0
 3692 0342 00       		.byte	0
 3693 0343 3E       		.uleb128 0x3e
 3694 0344 34       		.uleb128 0x34
 3695 0345 00       		.byte	0
 3696 0346 03       		.uleb128 0x3
ARM GAS  /tmp/ccSFlF6o.s 			page 66


 3697 0347 0E       		.uleb128 0xe
 3698 0348 3A       		.uleb128 0x3a
 3699 0349 0B       		.uleb128 0xb
 3700 034a 3B       		.uleb128 0x3b
 3701 034b 05       		.uleb128 0x5
 3702 034c 49       		.uleb128 0x49
 3703 034d 13       		.uleb128 0x13
 3704 034e 02       		.uleb128 0x2
 3705 034f 17       		.uleb128 0x17
 3706 0350 00       		.byte	0
 3707 0351 00       		.byte	0
 3708 0352 3F       		.uleb128 0x3f
 3709 0353 898201   		.uleb128 0x4109
 3710 0356 01       		.byte	0x1
 3711 0357 11       		.uleb128 0x11
 3712 0358 01       		.uleb128 0x1
 3713 0359 31       		.uleb128 0x31
 3714 035a 13       		.uleb128 0x13
 3715 035b 01       		.uleb128 0x1
 3716 035c 13       		.uleb128 0x13
 3717 035d 00       		.byte	0
 3718 035e 00       		.byte	0
 3719 035f 40       		.uleb128 0x40
 3720 0360 898201   		.uleb128 0x4109
 3721 0363 00       		.byte	0
 3722 0364 11       		.uleb128 0x11
 3723 0365 01       		.uleb128 0x1
 3724 0366 9542     		.uleb128 0x2115
 3725 0368 19       		.uleb128 0x19
 3726 0369 31       		.uleb128 0x31
 3727 036a 13       		.uleb128 0x13
 3728 036b 00       		.byte	0
 3729 036c 00       		.byte	0
 3730 036d 41       		.uleb128 0x41
 3731 036e 0B       		.uleb128 0xb
 3732 036f 01       		.byte	0x1
 3733 0370 55       		.uleb128 0x55
 3734 0371 17       		.uleb128 0x17
 3735 0372 01       		.uleb128 0x1
 3736 0373 13       		.uleb128 0x13
 3737 0374 00       		.byte	0
 3738 0375 00       		.byte	0
 3739 0376 42       		.uleb128 0x42
 3740 0377 34       		.uleb128 0x34
 3741 0378 00       		.byte	0
 3742 0379 03       		.uleb128 0x3
 3743 037a 0E       		.uleb128 0xe
 3744 037b 3A       		.uleb128 0x3a
 3745 037c 0B       		.uleb128 0xb
 3746 037d 3B       		.uleb128 0x3b
 3747 037e 05       		.uleb128 0x5
 3748 037f 49       		.uleb128 0x49
 3749 0380 13       		.uleb128 0x13
 3750 0381 3F       		.uleb128 0x3f
 3751 0382 19       		.uleb128 0x19
 3752 0383 3C       		.uleb128 0x3c
 3753 0384 19       		.uleb128 0x19
ARM GAS  /tmp/ccSFlF6o.s 			page 67


 3754 0385 00       		.byte	0
 3755 0386 00       		.byte	0
 3756 0387 43       		.uleb128 0x43
 3757 0388 34       		.uleb128 0x34
 3758 0389 00       		.byte	0
 3759 038a 03       		.uleb128 0x3
 3760 038b 08       		.uleb128 0x8
 3761 038c 3A       		.uleb128 0x3a
 3762 038d 0B       		.uleb128 0xb
 3763 038e 3B       		.uleb128 0x3b
 3764 038f 05       		.uleb128 0x5
 3765 0390 49       		.uleb128 0x49
 3766 0391 13       		.uleb128 0x13
 3767 0392 3F       		.uleb128 0x3f
 3768 0393 19       		.uleb128 0x19
 3769 0394 3C       		.uleb128 0x3c
 3770 0395 19       		.uleb128 0x19
 3771 0396 00       		.byte	0
 3772 0397 00       		.byte	0
 3773 0398 44       		.uleb128 0x44
 3774 0399 2E       		.uleb128 0x2e
 3775 039a 01       		.byte	0x1
 3776 039b 3F       		.uleb128 0x3f
 3777 039c 19       		.uleb128 0x19
 3778 039d 03       		.uleb128 0x3
 3779 039e 0E       		.uleb128 0xe
 3780 039f 3A       		.uleb128 0x3a
 3781 03a0 0B       		.uleb128 0xb
 3782 03a1 3B       		.uleb128 0x3b
 3783 03a2 05       		.uleb128 0x5
 3784 03a3 27       		.uleb128 0x27
 3785 03a4 19       		.uleb128 0x19
 3786 03a5 3C       		.uleb128 0x3c
 3787 03a6 19       		.uleb128 0x19
 3788 03a7 01       		.uleb128 0x1
 3789 03a8 13       		.uleb128 0x13
 3790 03a9 00       		.byte	0
 3791 03aa 00       		.byte	0
 3792 03ab 45       		.uleb128 0x45
 3793 03ac 2E       		.uleb128 0x2e
 3794 03ad 01       		.byte	0x1
 3795 03ae 3F       		.uleb128 0x3f
 3796 03af 19       		.uleb128 0x19
 3797 03b0 03       		.uleb128 0x3
 3798 03b1 0E       		.uleb128 0xe
 3799 03b2 3A       		.uleb128 0x3a
 3800 03b3 0B       		.uleb128 0xb
 3801 03b4 3B       		.uleb128 0x3b
 3802 03b5 05       		.uleb128 0x5
 3803 03b6 27       		.uleb128 0x27
 3804 03b7 19       		.uleb128 0x19
 3805 03b8 49       		.uleb128 0x49
 3806 03b9 13       		.uleb128 0x13
 3807 03ba 3C       		.uleb128 0x3c
 3808 03bb 19       		.uleb128 0x19
 3809 03bc 01       		.uleb128 0x1
 3810 03bd 13       		.uleb128 0x13
ARM GAS  /tmp/ccSFlF6o.s 			page 68


 3811 03be 00       		.byte	0
 3812 03bf 00       		.byte	0
 3813 03c0 46       		.uleb128 0x46
 3814 03c1 2E       		.uleb128 0x2e
 3815 03c2 00       		.byte	0
 3816 03c3 3F       		.uleb128 0x3f
 3817 03c4 19       		.uleb128 0x19
 3818 03c5 03       		.uleb128 0x3
 3819 03c6 0E       		.uleb128 0xe
 3820 03c7 3A       		.uleb128 0x3a
 3821 03c8 0B       		.uleb128 0xb
 3822 03c9 3B       		.uleb128 0x3b
 3823 03ca 05       		.uleb128 0x5
 3824 03cb 27       		.uleb128 0x27
 3825 03cc 19       		.uleb128 0x19
 3826 03cd 3C       		.uleb128 0x3c
 3827 03ce 19       		.uleb128 0x19
 3828 03cf 00       		.byte	0
 3829 03d0 00       		.byte	0
 3830 03d1 00       		.byte	0
 3831              		.section	.debug_loc,"",%progbits
 3832              	.Ldebug_loc0:
 3833              	.LLST0:
 3834 0000 00000000 		.4byte	.LVL1
 3835 0004 08000000 		.4byte	.LVL2
 3836 0008 0100     		.2byte	0x1
 3837 000a 50       		.byte	0x50
 3838 000b 08000000 		.4byte	.LVL2
 3839 000f 48000000 		.4byte	.LVL8
 3840 0013 0100     		.2byte	0x1
 3841 0015 55       		.byte	0x55
 3842 0016 48000000 		.4byte	.LVL8
 3843 001a 4B000000 		.4byte	.LVL9-1
 3844 001e 0500     		.2byte	0x5
 3845 0020 73       		.byte	0x73
 3846 0021 04       		.sleb128 4
 3847 0022 06       		.byte	0x6
 3848 0023 23       		.byte	0x23
 3849 0024 24       		.uleb128 0x24
 3850 0025 4B000000 		.4byte	.LVL9-1
 3851 0029 4C000000 		.4byte	.LVL9
 3852 002d 0400     		.2byte	0x4
 3853 002f F3       		.byte	0xf3
 3854 0030 01       		.uleb128 0x1
 3855 0031 50       		.byte	0x50
 3856 0032 9F       		.byte	0x9f
 3857 0033 4C000000 		.4byte	.LVL9
 3858 0037 C0000000 		.4byte	.LVL22
 3859 003b 0100     		.2byte	0x1
 3860 003d 55       		.byte	0x55
 3861 003e 00000000 		.4byte	0
 3862 0042 00000000 		.4byte	0
 3863              	.LLST1:
 3864 0046 0A000000 		.4byte	.LVL3
 3865 004a 48000000 		.4byte	.LVL8
 3866 004e 0100     		.2byte	0x1
 3867 0050 54       		.byte	0x54
ARM GAS  /tmp/ccSFlF6o.s 			page 69


 3868 0051 48000000 		.4byte	.LVL8
 3869 0055 4B000000 		.4byte	.LVL9-1
 3870 0059 0200     		.2byte	0x2
 3871 005b 73       		.byte	0x73
 3872 005c 04       		.sleb128 4
 3873 005d 4C000000 		.4byte	.LVL9
 3874 0061 C0000000 		.4byte	.LVL22
 3875 0065 0100     		.2byte	0x1
 3876 0067 54       		.byte	0x54
 3877 0068 00000000 		.4byte	0
 3878 006c 00000000 		.4byte	0
 3879              	.LLST2:
 3880 0070 0E000000 		.4byte	.LVL4
 3881 0074 24000000 		.4byte	.LVL5
 3882 0078 0100     		.2byte	0x1
 3883 007a 50       		.byte	0x50
 3884 007b 4C000000 		.4byte	.LVL9
 3885 007f 59000000 		.4byte	.LVL10-1
 3886 0083 0100     		.2byte	0x1
 3887 0085 50       		.byte	0x50
 3888 0086 5C000000 		.4byte	.LVL11
 3889 008a B6000000 		.4byte	.LVL21
 3890 008e 0100     		.2byte	0x1
 3891 0090 50       		.byte	0x50
 3892 0091 00000000 		.4byte	0
 3893 0095 00000000 		.4byte	0
 3894              	.LLST3:
 3895 0099 24000000 		.4byte	.LVL5
 3896 009d 48000000 		.4byte	.LVL8
 3897 00a1 0100     		.2byte	0x1
 3898 00a3 55       		.byte	0x55
 3899 00a4 48000000 		.4byte	.LVL8
 3900 00a8 4B000000 		.4byte	.LVL9-1
 3901 00ac 0500     		.2byte	0x5
 3902 00ae 73       		.byte	0x73
 3903 00af 04       		.sleb128 4
 3904 00b0 06       		.byte	0x6
 3905 00b1 23       		.byte	0x23
 3906 00b2 24       		.uleb128 0x24
 3907 00b3 4B000000 		.4byte	.LVL9-1
 3908 00b7 4C000000 		.4byte	.LVL9
 3909 00bb 0400     		.2byte	0x4
 3910 00bd F3       		.byte	0xf3
 3911 00be 01       		.uleb128 0x1
 3912 00bf 50       		.byte	0x50
 3913 00c0 9F       		.byte	0x9f
 3914 00c1 00000000 		.4byte	0
 3915 00c5 00000000 		.4byte	0
 3916              	.LLST4:
 3917 00c9 24000000 		.4byte	.LVL5
 3918 00cd 48000000 		.4byte	.LVL8
 3919 00d1 0100     		.2byte	0x1
 3920 00d3 54       		.byte	0x54
 3921 00d4 48000000 		.4byte	.LVL8
 3922 00d8 4B000000 		.4byte	.LVL9-1
 3923 00dc 0200     		.2byte	0x2
 3924 00de 73       		.byte	0x73
ARM GAS  /tmp/ccSFlF6o.s 			page 70


 3925 00df 04       		.sleb128 4
 3926 00e0 00000000 		.4byte	0
 3927 00e4 00000000 		.4byte	0
 3928              	.LLST5:
 3929 00e8 24000000 		.4byte	.LVL5
 3930 00ec 28000000 		.4byte	.LVL6
 3931 00f0 0100     		.2byte	0x1
 3932 00f2 55       		.byte	0x55
 3933 00f3 28000000 		.4byte	.LVL6
 3934 00f7 4B000000 		.4byte	.LVL9-1
 3935 00fb 0100     		.2byte	0x1
 3936 00fd 53       		.byte	0x53
 3937 00fe 00000000 		.4byte	0
 3938 0102 00000000 		.4byte	0
 3939              	.LLST6:
 3940 0106 4C000000 		.4byte	.LVL9
 3941 010a 59000000 		.4byte	.LVL10-1
 3942 010e 0100     		.2byte	0x1
 3943 0110 50       		.byte	0x50
 3944 0111 00000000 		.4byte	0
 3945 0115 00000000 		.4byte	0
 3946              	.LLST7:
 3947 0119 5C000000 		.4byte	.LVL11
 3948 011d 84000000 		.4byte	.LVL15
 3949 0121 0100     		.2byte	0x1
 3950 0123 50       		.byte	0x50
 3951 0124 00000000 		.4byte	0
 3952 0128 00000000 		.4byte	0
 3953              	.LLST8:
 3954 012c 64000000 		.4byte	.LVL12
 3955 0130 84000000 		.4byte	.LVL15
 3956 0134 0100     		.2byte	0x1
 3957 0136 56       		.byte	0x56
 3958 0137 00000000 		.4byte	0
 3959 013b 00000000 		.4byte	0
 3960              	.LLST9:
 3961 013f 64000000 		.4byte	.LVL12
 3962 0143 84000000 		.4byte	.LVL15
 3963 0147 0100     		.2byte	0x1
 3964 0149 50       		.byte	0x50
 3965 014a 00000000 		.4byte	0
 3966 014e 00000000 		.4byte	0
 3967              	.LLST10:
 3968 0152 64000000 		.4byte	.LVL12
 3969 0156 6C000000 		.4byte	.LVL13
 3970 015a 0100     		.2byte	0x1
 3971 015c 56       		.byte	0x56
 3972 015d 6C000000 		.4byte	.LVL13
 3973 0161 84000000 		.4byte	.LVL15
 3974 0165 0100     		.2byte	0x1
 3975 0167 53       		.byte	0x53
 3976 0168 00000000 		.4byte	0
 3977 016c 00000000 		.4byte	0
 3978              	.LLST11:
 3979 0170 84000000 		.4byte	.LVL15
 3980 0174 AC000000 		.4byte	.LVL19
 3981 0178 0100     		.2byte	0x1
ARM GAS  /tmp/ccSFlF6o.s 			page 71


 3982 017a 50       		.byte	0x50
 3983 017b AC000000 		.4byte	.LVL19
 3984 017f B0000000 		.4byte	.LVL20
 3985 0183 0200     		.2byte	0x2
 3986 0185 73       		.byte	0x73
 3987 0186 04       		.sleb128 4
 3988 0187 00000000 		.4byte	0
 3989 018b 00000000 		.4byte	0
 3990              	.LLST12:
 3991 018f 8C000000 		.4byte	.LVL16
 3992 0193 B6000000 		.4byte	.LVL21
 3993 0197 0100     		.2byte	0x1
 3994 0199 56       		.byte	0x56
 3995 019a 00000000 		.4byte	0
 3996 019e 00000000 		.4byte	0
 3997              	.LLST13:
 3998 01a2 8C000000 		.4byte	.LVL16
 3999 01a6 AC000000 		.4byte	.LVL19
 4000 01aa 0100     		.2byte	0x1
 4001 01ac 50       		.byte	0x50
 4002 01ad AC000000 		.4byte	.LVL19
 4003 01b1 B0000000 		.4byte	.LVL20
 4004 01b5 0200     		.2byte	0x2
 4005 01b7 73       		.byte	0x73
 4006 01b8 04       		.sleb128 4
 4007 01b9 00000000 		.4byte	0
 4008 01bd 00000000 		.4byte	0
 4009              	.LLST14:
 4010 01c1 8C000000 		.4byte	.LVL16
 4011 01c5 94000000 		.4byte	.LVL17
 4012 01c9 0100     		.2byte	0x1
 4013 01cb 56       		.byte	0x56
 4014 01cc 94000000 		.4byte	.LVL17
 4015 01d0 B0000000 		.4byte	.LVL20
 4016 01d4 0100     		.2byte	0x1
 4017 01d6 53       		.byte	0x53
 4018 01d7 00000000 		.4byte	0
 4019 01db 00000000 		.4byte	0
 4020              	.LLST15:
 4021 01df 00000000 		.4byte	.LVL23
 4022 01e3 0B000000 		.4byte	.LVL24-1
 4023 01e7 0100     		.2byte	0x1
 4024 01e9 50       		.byte	0x50
 4025 01ea 0B000000 		.4byte	.LVL24-1
 4026 01ee 14000000 		.4byte	.LFE220
 4027 01f2 0400     		.2byte	0x4
 4028 01f4 F3       		.byte	0xf3
 4029 01f5 01       		.uleb128 0x1
 4030 01f6 50       		.byte	0x50
 4031 01f7 9F       		.byte	0x9f
 4032 01f8 00000000 		.4byte	0
 4033 01fc 00000000 		.4byte	0
 4034              	.LLST16:
 4035 0200 00000000 		.4byte	.LVL25
 4036 0204 0E000000 		.4byte	.LVL27
 4037 0208 0100     		.2byte	0x1
 4038 020a 50       		.byte	0x50
ARM GAS  /tmp/ccSFlF6o.s 			page 72


 4039 020b 0E000000 		.4byte	.LVL27
 4040 020f 10000000 		.4byte	.LVL28
 4041 0213 0100     		.2byte	0x1
 4042 0215 53       		.byte	0x53
 4043 0216 10000000 		.4byte	.LVL28
 4044 021a 16000000 		.4byte	.LVL29
 4045 021e 0400     		.2byte	0x4
 4046 0220 F3       		.byte	0xf3
 4047 0221 01       		.uleb128 0x1
 4048 0222 50       		.byte	0x50
 4049 0223 9F       		.byte	0x9f
 4050 0224 16000000 		.4byte	.LVL29
 4051 0228 24000000 		.4byte	.LVL31
 4052 022c 0100     		.2byte	0x1
 4053 022e 50       		.byte	0x50
 4054 022f 24000000 		.4byte	.LVL31
 4055 0233 26000000 		.4byte	.LVL32
 4056 0237 0100     		.2byte	0x1
 4057 0239 53       		.byte	0x53
 4058 023a 26000000 		.4byte	.LVL32
 4059 023e 30000000 		.4byte	.LFE222
 4060 0242 0200     		.2byte	0x2
 4061 0244 72       		.byte	0x72
 4062 0245 3C       		.sleb128 60
 4063 0246 00000000 		.4byte	0
 4064 024a 00000000 		.4byte	0
 4065              	.LLST17:
 4066 024e 08000000 		.4byte	.LVL26
 4067 0252 0E000000 		.4byte	.LVL27
 4068 0256 0100     		.2byte	0x1
 4069 0258 50       		.byte	0x50
 4070 0259 0E000000 		.4byte	.LVL27
 4071 025d 10000000 		.4byte	.LVL28
 4072 0261 0100     		.2byte	0x1
 4073 0263 53       		.byte	0x53
 4074 0264 10000000 		.4byte	.LVL28
 4075 0268 16000000 		.4byte	.LVL29
 4076 026c 0400     		.2byte	0x4
 4077 026e F3       		.byte	0xf3
 4078 026f 01       		.uleb128 0x1
 4079 0270 50       		.byte	0x50
 4080 0271 9F       		.byte	0x9f
 4081 0272 16000000 		.4byte	.LVL29
 4082 0276 24000000 		.4byte	.LVL31
 4083 027a 0100     		.2byte	0x1
 4084 027c 50       		.byte	0x50
 4085 027d 24000000 		.4byte	.LVL31
 4086 0281 26000000 		.4byte	.LVL32
 4087 0285 0100     		.2byte	0x1
 4088 0287 53       		.byte	0x53
 4089 0288 26000000 		.4byte	.LVL32
 4090 028c 30000000 		.4byte	.LFE222
 4091 0290 0200     		.2byte	0x2
 4092 0292 72       		.byte	0x72
 4093 0293 3C       		.sleb128 60
 4094 0294 00000000 		.4byte	0
 4095 0298 00000000 		.4byte	0
ARM GAS  /tmp/ccSFlF6o.s 			page 73


 4096              	.LLST18:
 4097 029c 0E000000 		.4byte	.LVL27
 4098 02a0 16000000 		.4byte	.LVL29
 4099 02a4 0200     		.2byte	0x2
 4100 02a6 30       		.byte	0x30
 4101 02a7 9F       		.byte	0x9f
 4102 02a8 22000000 		.4byte	.LVL30
 4103 02ac 30000000 		.4byte	.LFE222
 4104 02b0 0200     		.2byte	0x2
 4105 02b2 30       		.byte	0x30
 4106 02b3 9F       		.byte	0x9f
 4107 02b4 00000000 		.4byte	0
 4108 02b8 00000000 		.4byte	0
 4109              	.LLST19:
 4110 02bc 00000000 		.4byte	.LVL33
 4111 02c0 08000000 		.4byte	.LVL34
 4112 02c4 0100     		.2byte	0x1
 4113 02c6 50       		.byte	0x50
 4114 02c7 08000000 		.4byte	.LVL34
 4115 02cb 0A000000 		.4byte	.LVL35
 4116 02cf 0100     		.2byte	0x1
 4117 02d1 53       		.byte	0x53
 4118 02d2 0A000000 		.4byte	.LVL35
 4119 02d6 16000000 		.4byte	.LVL36
 4120 02da 0100     		.2byte	0x1
 4121 02dc 50       		.byte	0x50
 4122 02dd 16000000 		.4byte	.LVL36
 4123 02e1 20000000 		.4byte	.LFE223
 4124 02e5 0100     		.2byte	0x1
 4125 02e7 53       		.byte	0x53
 4126 02e8 00000000 		.4byte	0
 4127 02ec 00000000 		.4byte	0
 4128              	.LLST20:
 4129 02f0 00000000 		.4byte	.LVL37
 4130 02f4 08000000 		.4byte	.LVL38
 4131 02f8 0100     		.2byte	0x1
 4132 02fa 50       		.byte	0x50
 4133 02fb 08000000 		.4byte	.LVL38
 4134 02ff 5E000000 		.4byte	.LVL51
 4135 0303 0100     		.2byte	0x1
 4136 0305 54       		.byte	0x54
 4137 0306 5E000000 		.4byte	.LVL51
 4138 030a 64000000 		.4byte	.LFE224
 4139 030e 0400     		.2byte	0x4
 4140 0310 F3       		.byte	0xf3
 4141 0311 01       		.uleb128 0x1
 4142 0312 50       		.byte	0x50
 4143 0313 9F       		.byte	0x9f
 4144 0314 00000000 		.4byte	0
 4145 0318 00000000 		.4byte	0
 4146              	.LLST21:
 4147 031c 08000000 		.4byte	.LVL38
 4148 0320 3A000000 		.4byte	.LVL46
 4149 0324 0100     		.2byte	0x1
 4150 0326 50       		.byte	0x50
 4151 0327 52000000 		.4byte	.LVL49
 4152 032b 64000000 		.4byte	.LFE224
ARM GAS  /tmp/ccSFlF6o.s 			page 74


 4153 032f 0100     		.2byte	0x1
 4154 0331 50       		.byte	0x50
 4155 0332 00000000 		.4byte	0
 4156 0336 00000000 		.4byte	0
 4157              	.LLST22:
 4158 033a 1A000000 		.4byte	.LVL40
 4159 033e 32000000 		.4byte	.LVL44
 4160 0342 0100     		.2byte	0x1
 4161 0344 53       		.byte	0x53
 4162 0345 00000000 		.4byte	0
 4163 0349 00000000 		.4byte	0
 4164              	.LLST23:
 4165 034d 14000000 		.4byte	.LVL39
 4166 0351 5E000000 		.4byte	.LVL51
 4167 0355 0100     		.2byte	0x1
 4168 0357 54       		.byte	0x54
 4169 0358 5E000000 		.4byte	.LVL51
 4170 035c 64000000 		.4byte	.LFE224
 4171 0360 0400     		.2byte	0x4
 4172 0362 F3       		.byte	0xf3
 4173 0363 01       		.uleb128 0x1
 4174 0364 50       		.byte	0x50
 4175 0365 9F       		.byte	0x9f
 4176 0366 00000000 		.4byte	0
 4177 036a 00000000 		.4byte	0
 4178              	.LLST25:
 4179 036e 1A000000 		.4byte	.LVL40
 4180 0372 45000000 		.4byte	.LVL47-1
 4181 0376 0100     		.2byte	0x1
 4182 0378 51       		.byte	0x51
 4183 0379 00000000 		.4byte	0
 4184 037d 00000000 		.4byte	0
 4185              	.LLST26:
 4186 0381 1C000000 		.4byte	.LVL41
 4187 0385 2C000000 		.4byte	.LVL43
 4188 0389 0100     		.2byte	0x1
 4189 038b 53       		.byte	0x53
 4190 038c 00000000 		.4byte	0
 4191 0390 00000000 		.4byte	0
 4192              	.LLST28:
 4193 0394 36000000 		.4byte	.LVL45
 4194 0398 52000000 		.4byte	.LVL49
 4195 039c 0100     		.2byte	0x1
 4196 039e 54       		.byte	0x54
 4197 039f 00000000 		.4byte	0
 4198 03a3 00000000 		.4byte	0
 4199              	.LLST29:
 4200 03a7 36000000 		.4byte	.LVL45
 4201 03ab 52000000 		.4byte	.LVL49
 4202 03af 0100     		.2byte	0x1
 4203 03b1 55       		.byte	0x55
 4204 03b2 00000000 		.4byte	0
 4205 03b6 00000000 		.4byte	0
 4206              	.LLST30:
 4207 03ba 4A000000 		.4byte	.LVL48
 4208 03be 52000000 		.4byte	.LVL49
 4209 03c2 0200     		.2byte	0x2
ARM GAS  /tmp/ccSFlF6o.s 			page 75


 4210 03c4 30       		.byte	0x30
 4211 03c5 9F       		.byte	0x9f
 4212 03c6 56000000 		.4byte	.LVL50
 4213 03ca 64000000 		.4byte	.LFE224
 4214 03ce 0200     		.2byte	0x2
 4215 03d0 30       		.byte	0x30
 4216 03d1 9F       		.byte	0x9f
 4217 03d2 00000000 		.4byte	0
 4218 03d6 00000000 		.4byte	0
 4219              	.LLST31:
 4220 03da 00000000 		.4byte	.LVL52
 4221 03de 0A000000 		.4byte	.LVL53
 4222 03e2 0100     		.2byte	0x1
 4223 03e4 50       		.byte	0x50
 4224 03e5 0A000000 		.4byte	.LVL53
 4225 03e9 3E000000 		.4byte	.LVL62
 4226 03ed 0100     		.2byte	0x1
 4227 03ef 54       		.byte	0x54
 4228 03f0 3E000000 		.4byte	.LVL62
 4229 03f4 41000000 		.4byte	.LVL63-1
 4230 03f8 0200     		.2byte	0x2
 4231 03fa 70       		.byte	0x70
 4232 03fb 3C       		.sleb128 60
 4233 03fc 41000000 		.4byte	.LVL63-1
 4234 0400 42000000 		.4byte	.LVL63
 4235 0404 0400     		.2byte	0x4
 4236 0406 F3       		.byte	0xf3
 4237 0407 01       		.uleb128 0x1
 4238 0408 50       		.byte	0x50
 4239 0409 9F       		.byte	0x9f
 4240 040a 42000000 		.4byte	.LVL63
 4241 040e 48000000 		.4byte	.LVL64
 4242 0412 0100     		.2byte	0x1
 4243 0414 54       		.byte	0x54
 4244 0415 48000000 		.4byte	.LVL64
 4245 0419 50000000 		.4byte	.LFE225
 4246 041d 0400     		.2byte	0x4
 4247 041f F3       		.byte	0xf3
 4248 0420 01       		.uleb128 0x1
 4249 0421 50       		.byte	0x50
 4250 0422 9F       		.byte	0x9f
 4251 0423 00000000 		.4byte	0
 4252 0427 00000000 		.4byte	0
 4253              	.LLST32:
 4254 042b 0A000000 		.4byte	.LVL53
 4255 042f 34000000 		.4byte	.LVL61
 4256 0433 0100     		.2byte	0x1
 4257 0435 50       		.byte	0x50
 4258 0436 42000000 		.4byte	.LVL63
 4259 043a 50000000 		.4byte	.LFE225
 4260 043e 0100     		.2byte	0x1
 4261 0440 50       		.byte	0x50
 4262 0441 00000000 		.4byte	0
 4263 0445 00000000 		.4byte	0
 4264              	.LLST33:
 4265 0449 14000000 		.4byte	.LVL55
 4266 044d 2C000000 		.4byte	.LVL59
ARM GAS  /tmp/ccSFlF6o.s 			page 76


 4267 0451 0100     		.2byte	0x1
 4268 0453 53       		.byte	0x53
 4269 0454 00000000 		.4byte	0
 4270 0458 00000000 		.4byte	0
 4271              	.LLST34:
 4272 045c 0E000000 		.4byte	.LVL54
 4273 0460 3E000000 		.4byte	.LVL62
 4274 0464 0100     		.2byte	0x1
 4275 0466 54       		.byte	0x54
 4276 0467 3E000000 		.4byte	.LVL62
 4277 046b 41000000 		.4byte	.LVL63-1
 4278 046f 0200     		.2byte	0x2
 4279 0471 70       		.byte	0x70
 4280 0472 3C       		.sleb128 60
 4281 0473 41000000 		.4byte	.LVL63-1
 4282 0477 42000000 		.4byte	.LVL63
 4283 047b 0400     		.2byte	0x4
 4284 047d F3       		.byte	0xf3
 4285 047e 01       		.uleb128 0x1
 4286 047f 50       		.byte	0x50
 4287 0480 9F       		.byte	0x9f
 4288 0481 42000000 		.4byte	.LVL63
 4289 0485 48000000 		.4byte	.LVL64
 4290 0489 0100     		.2byte	0x1
 4291 048b 54       		.byte	0x54
 4292 048c 48000000 		.4byte	.LVL64
 4293 0490 50000000 		.4byte	.LFE225
 4294 0494 0400     		.2byte	0x4
 4295 0496 F3       		.byte	0xf3
 4296 0497 01       		.uleb128 0x1
 4297 0498 50       		.byte	0x50
 4298 0499 9F       		.byte	0x9f
 4299 049a 00000000 		.4byte	0
 4300 049e 00000000 		.4byte	0
 4301              	.LLST36:
 4302 04a2 14000000 		.4byte	.LVL55
 4303 04a6 41000000 		.4byte	.LVL63-1
 4304 04aa 0100     		.2byte	0x1
 4305 04ac 51       		.byte	0x51
 4306 04ad 00000000 		.4byte	0
 4307 04b1 00000000 		.4byte	0
 4308              	.LLST37:
 4309 04b5 16000000 		.4byte	.LVL56
 4310 04b9 26000000 		.4byte	.LVL58
 4311 04bd 0100     		.2byte	0x1
 4312 04bf 53       		.byte	0x53
 4313 04c0 00000000 		.4byte	0
 4314 04c4 00000000 		.4byte	0
 4315              	.LLST39:
 4316 04c8 30000000 		.4byte	.LVL60
 4317 04cc 3E000000 		.4byte	.LVL62
 4318 04d0 0100     		.2byte	0x1
 4319 04d2 54       		.byte	0x54
 4320 04d3 3E000000 		.4byte	.LVL62
 4321 04d7 41000000 		.4byte	.LVL63-1
 4322 04db 0200     		.2byte	0x2
 4323 04dd 70       		.byte	0x70
ARM GAS  /tmp/ccSFlF6o.s 			page 77


 4324 04de 3C       		.sleb128 60
 4325 04df 41000000 		.4byte	.LVL63-1
 4326 04e3 42000000 		.4byte	.LVL63
 4327 04e7 0400     		.2byte	0x4
 4328 04e9 F3       		.byte	0xf3
 4329 04ea 01       		.uleb128 0x1
 4330 04eb 50       		.byte	0x50
 4331 04ec 9F       		.byte	0x9f
 4332 04ed 00000000 		.4byte	0
 4333 04f1 00000000 		.4byte	0
 4334              	.LLST40:
 4335 04f5 30000000 		.4byte	.LVL60
 4336 04f9 3E000000 		.4byte	.LVL62
 4337 04fd 0100     		.2byte	0x1
 4338 04ff 55       		.byte	0x55
 4339 0500 3E000000 		.4byte	.LVL62
 4340 0504 41000000 		.4byte	.LVL63-1
 4341 0508 0100     		.2byte	0x1
 4342 050a 50       		.byte	0x50
 4343 050b 00000000 		.4byte	0
 4344 050f 00000000 		.4byte	0
 4345              	.LLST41:
 4346 0513 08000000 		.4byte	.LVL65
 4347 0517 4E000000 		.4byte	.LVL74
 4348 051b 0100     		.2byte	0x1
 4349 051d 54       		.byte	0x54
 4350 051e 00000000 		.4byte	0
 4351 0522 00000000 		.4byte	0
 4352              	.LLST42:
 4353 0526 14000000 		.4byte	.LVL66
 4354 052a 27000000 		.4byte	.LVL67-1
 4355 052e 0100     		.2byte	0x1
 4356 0530 53       		.byte	0x53
 4357 0531 2C000000 		.4byte	.LVL68
 4358 0535 3A000000 		.4byte	.LVL71
 4359 0539 0100     		.2byte	0x1
 4360 053b 53       		.byte	0x53
 4361 053c 00000000 		.4byte	0
 4362 0540 00000000 		.4byte	0
 4363              	.LLST44:
 4364 0544 14000000 		.4byte	.LVL66
 4365 0548 27000000 		.4byte	.LVL67-1
 4366 054c 0100     		.2byte	0x1
 4367 054e 52       		.byte	0x52
 4368 054f 2E000000 		.4byte	.LVL69
 4369 0553 3E000000 		.4byte	.LVL72
 4370 0557 0100     		.2byte	0x1
 4371 0559 52       		.byte	0x52
 4372 055a 00000000 		.4byte	0
 4373 055e 00000000 		.4byte	0
 4374              	.LLST45:
 4375 0562 14000000 		.4byte	.LVL66
 4376 0566 27000000 		.4byte	.LVL67-1
 4377 056a 0100     		.2byte	0x1
 4378 056c 53       		.byte	0x53
 4379 056d 32000000 		.4byte	.LVL70
 4380 0571 3A000000 		.4byte	.LVL71
ARM GAS  /tmp/ccSFlF6o.s 			page 78


 4381 0575 0100     		.2byte	0x1
 4382 0577 53       		.byte	0x53
 4383 0578 00000000 		.4byte	0
 4384 057c 00000000 		.4byte	0
 4385              		.section	.debug_aranges,"",%progbits
 4386 0000 54000000 		.4byte	0x54
 4387 0004 0200     		.2byte	0x2
 4388 0006 00000000 		.4byte	.Ldebug_info0
 4389 000a 04       		.byte	0x4
 4390 000b 00       		.byte	0
 4391 000c 0000     		.2byte	0
 4392 000e 0000     		.2byte	0
 4393 0010 00000000 		.4byte	.LFB219
 4394 0014 0A000000 		.4byte	.LFE219-.LFB219
 4395 0018 00000000 		.4byte	.LFB221
 4396 001c C4000000 		.4byte	.LFE221-.LFB221
 4397 0020 00000000 		.4byte	.LFB220
 4398 0024 14000000 		.4byte	.LFE220-.LFB220
 4399 0028 00000000 		.4byte	.LFB222
 4400 002c 30000000 		.4byte	.LFE222-.LFB222
 4401 0030 00000000 		.4byte	.LFB223
 4402 0034 20000000 		.4byte	.LFE223-.LFB223
 4403 0038 00000000 		.4byte	.LFB224
 4404 003c 64000000 		.4byte	.LFE224-.LFB224
 4405 0040 00000000 		.4byte	.LFB225
 4406 0044 50000000 		.4byte	.LFE225-.LFB225
 4407 0048 00000000 		.4byte	.LFB226
 4408 004c 54000000 		.4byte	.LFE226-.LFB226
 4409 0050 00000000 		.4byte	0
 4410 0054 00000000 		.4byte	0
 4411              		.section	.debug_ranges,"",%progbits
 4412              	.Ldebug_ranges0:
 4413 0000 0E000000 		.4byte	.LBB105
 4414 0004 44000000 		.4byte	.LBE105
 4415 0008 48000000 		.4byte	.LBB122
 4416 000c B6000000 		.4byte	.LBE122
 4417 0010 00000000 		.4byte	0
 4418 0014 00000000 		.4byte	0
 4419 0018 5C000000 		.4byte	.LBB110
 4420 001c 62000000 		.4byte	.LBE110
 4421 0020 64000000 		.4byte	.LBB113
 4422 0024 68000000 		.4byte	.LBE113
 4423 0028 00000000 		.4byte	0
 4424 002c 00000000 		.4byte	0
 4425 0030 84000000 		.4byte	.LBB116
 4426 0034 8A000000 		.4byte	.LBE116
 4427 0038 8C000000 		.4byte	.LBB119
 4428 003c 90000000 		.4byte	.LBE119
 4429 0040 00000000 		.4byte	0
 4430 0044 00000000 		.4byte	0
 4431 0048 08000000 		.4byte	.LBB136
 4432 004c 0E000000 		.4byte	.LBE136
 4433 0050 16000000 		.4byte	.LBB148
 4434 0054 24000000 		.4byte	.LBE148
 4435 0058 00000000 		.4byte	0
 4436 005c 00000000 		.4byte	0
 4437 0060 0E000000 		.4byte	.LBB139
ARM GAS  /tmp/ccSFlF6o.s 			page 79


 4438 0064 14000000 		.4byte	.LBE139
 4439 0068 24000000 		.4byte	.LBB149
 4440 006c 2A000000 		.4byte	.LBE149
 4441 0070 00000000 		.4byte	0
 4442 0074 00000000 		.4byte	0
 4443 0078 30000000 		.4byte	.LBB163
 4444 007c 32000000 		.4byte	.LBE163
 4445 0080 36000000 		.4byte	.LBB167
 4446 0084 38000000 		.4byte	.LBE167
 4447 0088 3A000000 		.4byte	.LBB168
 4448 008c 3C000000 		.4byte	.LBE168
 4449 0090 00000000 		.4byte	0
 4450 0094 00000000 		.4byte	0
 4451 0098 4A000000 		.4byte	.LBB169
 4452 009c 52000000 		.4byte	.LBE169
 4453 00a0 56000000 		.4byte	.LBB178
 4454 00a4 64000000 		.4byte	.LBE178
 4455 00a8 00000000 		.4byte	0
 4456 00ac 00000000 		.4byte	0
 4457 00b0 12000000 		.4byte	.LBB183
 4458 00b4 3C000000 		.4byte	.LBE183
 4459 00b8 3E000000 		.4byte	.LBB194
 4460 00bc 42000000 		.4byte	.LBE194
 4461 00c0 00000000 		.4byte	0
 4462 00c4 00000000 		.4byte	0
 4463 00c8 2A000000 		.4byte	.LBB188
 4464 00cc 2C000000 		.4byte	.LBE188
 4465 00d0 30000000 		.4byte	.LBB192
 4466 00d4 32000000 		.4byte	.LBE192
 4467 00d8 34000000 		.4byte	.LBB193
 4468 00dc 36000000 		.4byte	.LBE193
 4469 00e0 00000000 		.4byte	0
 4470 00e4 00000000 		.4byte	0
 4471 00e8 04000000 		.4byte	.LBB195
 4472 00ec 06000000 		.4byte	.LBE195
 4473 00f0 08000000 		.4byte	.LBB202
 4474 00f4 0C000000 		.4byte	.LBE202
 4475 00f8 00000000 		.4byte	0
 4476 00fc 00000000 		.4byte	0
 4477 0100 10000000 		.4byte	.LBB203
 4478 0104 28000000 		.4byte	.LBE203
 4479 0108 2C000000 		.4byte	.LBB215
 4480 010c 38000000 		.4byte	.LBE215
 4481 0110 00000000 		.4byte	0
 4482 0114 00000000 		.4byte	0
 4483 0118 14000000 		.4byte	.LBB205
 4484 011c 16000000 		.4byte	.LBE205
 4485 0120 18000000 		.4byte	.LBB209
 4486 0124 1A000000 		.4byte	.LBE209
 4487 0128 1C000000 		.4byte	.LBB210
 4488 012c 1E000000 		.4byte	.LBE210
 4489 0130 00000000 		.4byte	0
 4490 0134 00000000 		.4byte	0
 4491 0138 00000000 		.4byte	.LFB219
 4492 013c 0A000000 		.4byte	.LFE219
 4493 0140 00000000 		.4byte	.LFB221
 4494 0144 C4000000 		.4byte	.LFE221
ARM GAS  /tmp/ccSFlF6o.s 			page 80


 4495 0148 00000000 		.4byte	.LFB220
 4496 014c 14000000 		.4byte	.LFE220
 4497 0150 00000000 		.4byte	.LFB222
 4498 0154 30000000 		.4byte	.LFE222
 4499 0158 00000000 		.4byte	.LFB223
 4500 015c 20000000 		.4byte	.LFE223
 4501 0160 00000000 		.4byte	.LFB224
 4502 0164 64000000 		.4byte	.LFE224
 4503 0168 00000000 		.4byte	.LFB225
 4504 016c 50000000 		.4byte	.LFE225
 4505 0170 00000000 		.4byte	.LFB226
 4506 0174 54000000 		.4byte	.LFE226
 4507 0178 00000000 		.4byte	0
 4508 017c 00000000 		.4byte	0
 4509              		.section	.debug_line,"",%progbits
 4510              	.Ldebug_line0:
 4511 0000 21040000 		.section	.debug_str,"MS",%progbits,1
 4511      0200A401 
 4511      00000201 
 4511      FB0E0D00 
 4511      01010101 
 4512              	.LASF53:
 4513 0000 72656164 		.ascii	"ready_list_t\000"
 4513      795F6C69 
 4513      73745F74 
 4513      00
 4514              	.LASF91:
 4515 000d 77747472 		.ascii	"wttrp\000"
 4515      7000
 4516              	.LASF88:
 4517 0013 7264796D 		.ascii	"rdymsg\000"
 4517      736700
 4518              	.LASF16:
 4519 001a 75696E74 		.ascii	"uint64_t\000"
 4519      36345F74 
 4519      00
 4520              	.LASF5:
 4521 0023 5F5F7569 		.ascii	"__uint8_t\000"
 4521      6E74385F 
 4521      7400
 4522              	.LASF85:
 4523 002d 706F7274 		.ascii	"port_intctx\000"
 4523      5F696E74 
 4523      63747800 
 4524              	.LASF72:
 4525 0039 73797374 		.ascii	"system_debug_t\000"
 4525      656D5F64 
 4525      65627567 
 4525      5F7400
 4526              	.LASF109:
 4527 0048 71756575 		.ascii	"queue_init\000"
 4527      655F696E 
 4527      697400
 4528              	.LASF104:
 4529 0053 706F7274 		.ascii	"port_lock\000"
 4529      5F6C6F63 
 4529      6B00
ARM GAS  /tmp/ccSFlF6o.s 			page 81


 4530              	.LASF12:
 4531 005d 6C6F6E67 		.ascii	"long long unsigned int\000"
 4531      206C6F6E 
 4531      6720756E 
 4531      7369676E 
 4531      65642069 
 4532              	.LASF89:
 4533 0074 65786974 		.ascii	"exitcode\000"
 4533      636F6465 
 4533      00
 4534              	.LASF79:
 4535 007d 6D61696E 		.ascii	"mainthread\000"
 4535      74687265 
 4535      616400
 4536              	.LASF69:
 4537 0088 76697274 		.ascii	"virtual_timers_list_t\000"
 4537      75616C5F 
 4537      74696D65 
 4537      72735F6C 
 4537      6973745F 
 4538              	.LASF126:
 4539 009e 49544D5F 		.ascii	"ITM_RxBuffer\000"
 4539      52784275 
 4539      66666572 
 4539      00
 4540              	.LASF52:
 4541 00ab 63685F74 		.ascii	"ch_threads_queue\000"
 4541      68726561 
 4541      64735F71 
 4541      75657565 
 4541      00
 4542              	.LASF30:
 4543 00bc 705F7072 		.ascii	"p_prio\000"
 4543      696F00
 4544              	.LASF103:
 4545 00c3 6D757465 		.ascii	"mutex_t\000"
 4545      785F7400 
 4546              	.LASF122:
 4547 00cb 63684D74 		.ascii	"chMtxUnlock\000"
 4547      78556E6C 
 4547      6F636B00 
 4548              	.LASF1:
 4549 00d7 7369676E 		.ascii	"signed char\000"
 4549      65642063 
 4549      68617200 
 4550              	.LASF46:
 4551 00e3 705F6D70 		.ascii	"p_mpool\000"
 4551      6F6F6C00 
 4552              	.LASF99:
 4553 00eb 6D5F7175 		.ascii	"m_queue\000"
 4553      65756500 
 4554              	.LASF78:
 4555 00f3 76746C69 		.ascii	"vtlist\000"
 4555      737400
 4556              	.LASF105:
 4557 00fa 706F7274 		.ascii	"port_unlock\000"
 4557      5F756E6C 
ARM GAS  /tmp/ccSFlF6o.s 			page 82


 4557      6F636B00 
 4558              	.LASF21:
 4559 0106 74736C69 		.ascii	"tslices_t\000"
 4559      6365735F 
 4559      7400
 4560              	.LASF76:
 4561 0110 63685F73 		.ascii	"ch_system\000"
 4561      79737465 
 4561      6D00
 4562              	.LASF7:
 4563 011a 6C6F6E67 		.ascii	"long int\000"
 4563      20696E74 
 4563      00
 4564              	.LASF111:
 4565 0123 71756575 		.ascii	"queue_dequeue\000"
 4565      655F6465 
 4565      71756575 
 4565      6500
 4566              	.LASF19:
 4567 0131 74737461 		.ascii	"tstate_t\000"
 4567      74655F74 
 4567      00
 4568              	.LASF110:
 4569 013a 71756575 		.ascii	"queue_notempty\000"
 4569      655F6E6F 
 4569      74656D70 
 4569      747900
 4570              	.LASF128:
 4571 0149 474E5520 		.ascii	"GNU C 4.8.4 20141219 (release) -mcpu=cortex-m4 -mfl"
 4571      4320342E 
 4571      382E3420 
 4571      32303134 
 4571      31323139 
 4572 017c 6F61742D 		.ascii	"oat-abi=hard -mfpu=fpv4-sp-d16 -mno-thumb-interwork"
 4572      6162693D 
 4572      68617264 
 4572      202D6D66 
 4572      70753D66 
 4573 01af 202D6D74 		.ascii	" -mthumb -ggdb -O2 -std=gnu99 -fomit-frame-pointer "
 4573      68756D62 
 4573      202D6767 
 4573      6462202D 
 4573      4F32202D 
 4574 01e2 2D66616C 		.ascii	"-falign-functions=16 -ffunction-sections -fdata-sec"
 4574      69676E2D 
 4574      66756E63 
 4574      74696F6E 
 4574      733D3136 
 4575 0215 74696F6E 		.ascii	"tions -fno-common -fsingle-precision-constant\000"
 4575      73202D66 
 4575      6E6F2D63 
 4575      6F6D6D6F 
 4575      6E202D66 
 4576              	.LASF116:
 4577 0243 63684D74 		.ascii	"chMtxTryLockS\000"
 4577      78547279 
 4577      4C6F636B 
ARM GAS  /tmp/ccSFlF6o.s 			page 83


 4577      5300
 4578              	.LASF32:
 4579 0251 705F6E65 		.ascii	"p_newer\000"
 4579      77657200 
 4580              	.LASF96:
 4581 0259 735F7175 		.ascii	"s_queue\000"
 4581      65756500 
 4582              	.LASF133:
 4583 0261 63685363 		.ascii	"chSchRescheduleS\000"
 4583      68526573 
 4583      63686564 
 4583      756C6553 
 4583      00
 4584              	.LASF58:
 4585 0272 725F6E65 		.ascii	"r_newer\000"
 4585      77657200 
 4586              	.LASF82:
 4587 027a 72656761 		.ascii	"regarm_t\000"
 4587      726D5F74 
 4587      00
 4588              	.LASF65:
 4589 0283 76745F70 		.ascii	"vt_prev\000"
 4589      72657600 
 4590              	.LASF130:
 4591 028b 2F686F6D 		.ascii	"/home/taylor/Programming/VESC/firmware\000"
 4591      652F7461 
 4591      796C6F72 
 4591      2F50726F 
 4591      6772616D 
 4592              	.LASF10:
 4593 02b2 6C6F6E67 		.ascii	"long long int\000"
 4593      206C6F6E 
 4593      6720696E 
 4593      7400
 4594              	.LASF106:
 4595 02c0 76616C75 		.ascii	"value\000"
 4595      6500
 4596              	.LASF80:
 4597 02c6 69646C65 		.ascii	"idle_thread_wa\000"
 4597      5F746872 
 4597      6561645F 
 4597      776100
 4598              	.LASF25:
 4599 02d5 636E745F 		.ascii	"cnt_t\000"
 4599      7400
 4600              	.LASF124:
 4601 02db 63684D74 		.ascii	"chMtxUnlockS\000"
 4601      78556E6C 
 4601      6F636B53 
 4601      00
 4602              	.LASF0:
 4603 02e8 756E7369 		.ascii	"unsigned int\000"
 4603      676E6564 
 4603      20696E74 
 4603      00
 4604              	.LASF64:
 4605 02f5 76745F6E 		.ascii	"vt_next\000"
ARM GAS  /tmp/ccSFlF6o.s 			page 84


 4605      65787400 
 4606              	.LASF39:
 4607 02fd 705F7469 		.ascii	"p_time\000"
 4607      6D6500
 4608              	.LASF92:
 4609 0304 77747365 		.ascii	"wtsemp\000"
 4609      6D7000
 4610              	.LASF66:
 4611 030b 76745F64 		.ascii	"vt_delta\000"
 4611      656C7461 
 4611      00
 4612              	.LASF41:
 4613 0314 705F6D73 		.ascii	"p_msgqueue\000"
 4613      67717565 
 4613      756500
 4614              	.LASF97:
 4615 031f 735F636E 		.ascii	"s_cnt\000"
 4615      7400
 4616              	.LASF4:
 4617 0325 73686F72 		.ascii	"short unsigned int\000"
 4617      7420756E 
 4617      7369676E 
 4617      65642069 
 4617      6E7400
 4618              	.LASF49:
 4619 0338 63685F74 		.ascii	"ch_thread\000"
 4619      68726561 
 4619      6400
 4620              	.LASF23:
 4621 0342 6D73675F 		.ascii	"msg_t\000"
 4621      7400
 4622              	.LASF75:
 4623 0348 63685F73 		.ascii	"ch_system_t\000"
 4623      79737465 
 4623      6D5F7400 
 4624              	.LASF125:
 4625 0354 63684D74 		.ascii	"chMtxUnlockAll\000"
 4625      78556E6C 
 4625      6F636B41 
 4625      6C6C00
 4626              	.LASF123:
 4627 0363 6E657770 		.ascii	"newprio\000"
 4627      72696F00 
 4628              	.LASF18:
 4629 036b 746D6F64 		.ascii	"tmode_t\000"
 4629      655F7400 
 4630              	.LASF54:
 4631 0373 63685F72 		.ascii	"ch_ready_list\000"
 4631      65616479 
 4631      5F6C6973 
 4631      7400
 4632              	.LASF24:
 4633 0381 6576656E 		.ascii	"eventmask_t\000"
 4633      746D6173 
 4633      6B5F7400 
 4634              	.LASF131:
 4635 038d 63684D74 		.ascii	"chMtxTryLock\000"
ARM GAS  /tmp/ccSFlF6o.s 			page 85


 4635      78547279 
 4635      4C6F636B 
 4635      00
 4636              	.LASF6:
 4637 039a 5F5F696E 		.ascii	"__int32_t\000"
 4637      7433325F 
 4637      7400
 4638              	.LASF83:
 4639 03a4 73746B61 		.ascii	"stkalign_t\000"
 4639      6C69676E 
 4639      5F7400
 4640              	.LASF48:
 4641 03af 74687265 		.ascii	"threads_list_t\000"
 4641      6164735F 
 4641      6C697374 
 4641      5F7400
 4642              	.LASF40:
 4643 03be 705F7761 		.ascii	"p_waiting\000"
 4643      6974696E 
 4643      6700
 4644              	.LASF81:
 4645 03c8 73697A65 		.ascii	"sizetype\000"
 4645      74797065 
 4645      00
 4646              	.LASF47:
 4647 03d1 74687265 		.ascii	"thread_reference_t\000"
 4647      61645F72 
 4647      65666572 
 4647      656E6365 
 4647      5F7400
 4648              	.LASF70:
 4649 03e4 63685F76 		.ascii	"ch_virtual_timers_list\000"
 4649      69727475 
 4649      616C5F74 
 4649      696D6572 
 4649      735F6C69 
 4650              	.LASF108:
 4651 03fb 5F5F7365 		.ascii	"__set_BASEPRI\000"
 4651      745F4241 
 4651      53455052 
 4651      4900
 4652              	.LASF121:
 4653 0409 63684D74 		.ascii	"chMtxLock\000"
 4653      784C6F63 
 4653      6B00
 4654              	.LASF33:
 4655 0413 705F6F6C 		.ascii	"p_older\000"
 4655      64657200 
 4656              	.LASF57:
 4657 041b 725F6374 		.ascii	"r_ctx\000"
 4657      7800
 4658              	.LASF87:
 4659 0421 746D5F63 		.ascii	"tm_calibration_t\000"
 4659      616C6962 
 4659      72617469 
 4659      6F6E5F74 
 4659      00
ARM GAS  /tmp/ccSFlF6o.s 			page 86


 4660              	.LASF101:
 4661 0432 6D5F6E65 		.ascii	"m_next\000"
 4661      787400
 4662              	.LASF60:
 4663 0439 725F6375 		.ascii	"r_current\000"
 4663      7272656E 
 4663      7400
 4664              	.LASF59:
 4665 0443 725F6F6C 		.ascii	"r_older\000"
 4665      64657200 
 4666              	.LASF11:
 4667 044b 5F5F7569 		.ascii	"__uint64_t\000"
 4667      6E743634 
 4667      5F7400
 4668              	.LASF20:
 4669 0456 74726566 		.ascii	"trefs_t\000"
 4669      735F7400 
 4670              	.LASF62:
 4671 045e 76697274 		.ascii	"virtual_timer_t\000"
 4671      75616C5F 
 4671      74696D65 
 4671      725F7400 
 4672              	.LASF29:
 4673 046e 705F7072 		.ascii	"p_prev\000"
 4673      657600
 4674              	.LASF22:
 4675 0475 74707269 		.ascii	"tprio_t\000"
 4675      6F5F7400 
 4676              	.LASF119:
 4677 047d 63684D74 		.ascii	"chMtxObjectInit\000"
 4677      784F626A 
 4677      65637449 
 4677      6E697400 
 4678              	.LASF73:
 4679 048d 63685F73 		.ascii	"ch_system_debug\000"
 4679      79737465 
 4679      6D5F6465 
 4679      62756700 
 4680              	.LASF107:
 4681 049d 5F426F6F 		.ascii	"_Bool\000"
 4681      6C00
 4682              	.LASF14:
 4683 04a3 696E7433 		.ascii	"int32_t\000"
 4683      325F7400 
 4684              	.LASF2:
 4685 04ab 756E7369 		.ascii	"unsigned char\000"
 4685      676E6564 
 4685      20636861 
 4685      7200
 4686              	.LASF35:
 4687 04b9 705F7374 		.ascii	"p_state\000"
 4687      61746500 
 4688              	.LASF44:
 4689 04c1 705F6D74 		.ascii	"p_mtxlist\000"
 4689      786C6973 
 4689      7400
 4690              	.LASF3:
ARM GAS  /tmp/ccSFlF6o.s 			page 87


 4691 04cb 73686F72 		.ascii	"short int\000"
 4691      7420696E 
 4691      7400
 4692              	.LASF38:
 4693 04d5 705F7072 		.ascii	"p_preempt\000"
 4693      65656D70 
 4693      7400
 4694              	.LASF56:
 4695 04df 725F7072 		.ascii	"r_prio\000"
 4695      696F00
 4696              	.LASF94:
 4697 04e6 65776D61 		.ascii	"ewmask\000"
 4697      736B00
 4698              	.LASF28:
 4699 04ed 705F6E65 		.ascii	"p_next\000"
 4699      787400
 4700              	.LASF36:
 4701 04f4 705F666C 		.ascii	"p_flags\000"
 4701      61677300 
 4702              	.LASF115:
 4703 04fc 5F5F6675 		.ascii	"__func__\000"
 4703      6E635F5F 
 4703      00
 4704              	.LASF113:
 4705 0505 63685379 		.ascii	"chSysLock\000"
 4705      734C6F63 
 4705      6B00
 4706              	.LASF63:
 4707 050f 63685F76 		.ascii	"ch_virtual_timer\000"
 4707      69727475 
 4707      616C5F74 
 4707      696D6572 
 4707      00
 4708              	.LASF95:
 4709 0520 63685F73 		.ascii	"ch_semaphore\000"
 4709      656D6170 
 4709      686F7265 
 4709      00
 4710              	.LASF132:
 4711 052d 63685363 		.ascii	"chSchGoSleepS\000"
 4711      68476F53 
 4711      6C656570 
 4711      5300
 4712              	.LASF43:
 4713 053b 705F6570 		.ascii	"p_epending\000"
 4713      656E6469 
 4713      6E6700
 4714              	.LASF15:
 4715 0546 75696E74 		.ascii	"uint32_t\000"
 4715      33325F74 
 4715      00
 4716              	.LASF93:
 4717 054f 77746D74 		.ascii	"wtmtxp\000"
 4717      787000
 4718              	.LASF55:
 4719 0556 725F7175 		.ascii	"r_queue\000"
 4719      65756500 
ARM GAS  /tmp/ccSFlF6o.s 			page 88


 4720              	.LASF127:
 4721 055e 63685363 		.ascii	"chSchReadyI\000"
 4721      68526561 
 4721      64794900 
 4722              	.LASF50:
 4723 056a 63685F74 		.ascii	"ch_threads_list\000"
 4723      68726561 
 4723      64735F6C 
 4723      69737400 
 4724              	.LASF9:
 4725 057a 6C6F6E67 		.ascii	"long unsigned int\000"
 4725      20756E73 
 4725      69676E65 
 4725      6420696E 
 4725      7400
 4726              	.LASF102:
 4727 058c 63686172 		.ascii	"char\000"
 4727      00
 4728              	.LASF27:
 4729 0591 74687265 		.ascii	"thread_t\000"
 4729      61645F74 
 4729      00
 4730              	.LASF118:
 4731 059a 71756575 		.ascii	"queue_fifo_remove\000"
 4731      655F6669 
 4731      666F5F72 
 4731      656D6F76 
 4731      6500
 4732              	.LASF26:
 4733 05ac 73797374 		.ascii	"systime_t\000"
 4733      696D655F 
 4733      7400
 4734              	.LASF45:
 4735 05b6 705F7265 		.ascii	"p_realprio\000"
 4735      616C7072 
 4735      696F00
 4736              	.LASF61:
 4737 05c1 76746675 		.ascii	"vtfunc_t\000"
 4737      6E635F74 
 4737      00
 4738              	.LASF8:
 4739 05ca 5F5F7569 		.ascii	"__uint32_t\000"
 4739      6E743332 
 4739      5F7400
 4740              	.LASF117:
 4741 05d5 63684D74 		.ascii	"chMtxQueueNotEmptyS\000"
 4741      78517565 
 4741      75654E6F 
 4741      74456D70 
 4741      74795300 
 4742              	.LASF74:
 4743 05e9 70616E69 		.ascii	"panic_msg\000"
 4743      635F6D73 
 4743      6700
 4744              	.LASF86:
 4745 05f3 6F666673 		.ascii	"offset\000"
 4745      657400
ARM GAS  /tmp/ccSFlF6o.s 			page 89


 4746              	.LASF129:
 4747 05fa 43686962 		.ascii	"ChibiOS_3.0.2/os/rt/src/chmtx.c\000"
 4747      694F535F 
 4747      332E302E 
 4747      322F6F73 
 4747      2F72742F 
 4748              	.LASF84:
 4749 061a 636F6E74 		.ascii	"context\000"
 4749      65787400 
 4750              	.LASF17:
 4751 0622 7274636E 		.ascii	"rtcnt_t\000"
 4751      745F7400 
 4752              	.LASF68:
 4753 062a 76745F70 		.ascii	"vt_par\000"
 4753      617200
 4754              	.LASF51:
 4755 0631 74687265 		.ascii	"threads_queue_t\000"
 4755      6164735F 
 4755      71756575 
 4755      655F7400 
 4756              	.LASF98:
 4757 0641 63685F6D 		.ascii	"ch_mutex\000"
 4757      75746578 
 4757      00
 4758              	.LASF37:
 4759 064a 705F7265 		.ascii	"p_refs\000"
 4759      667300
 4760              	.LASF77:
 4761 0651 726C6973 		.ascii	"rlist\000"
 4761      7400
 4762              	.LASF13:
 4763 0657 75696E74 		.ascii	"uint8_t\000"
 4763      385F7400 
 4764              	.LASF90:
 4765 065f 77746F62 		.ascii	"wtobjp\000"
 4765      6A7000
 4766              	.LASF34:
 4767 0666 705F6E61 		.ascii	"p_name\000"
 4767      6D6500
 4768              	.LASF71:
 4769 066d 76745F73 		.ascii	"vt_systime\000"
 4769      79737469 
 4769      6D6500
 4770              	.LASF114:
 4771 0678 63685379 		.ascii	"chSysUnlock\000"
 4771      73556E6C 
 4771      6F636B00 
 4772              	.LASF42:
 4773 0684 705F6D73 		.ascii	"p_msg\000"
 4773      6700
 4774              	.LASF120:
 4775 068a 63684D74 		.ascii	"chMtxLockS\000"
 4775      784C6F63 
 4775      6B5300
 4776              	.LASF112:
 4777 0695 71756575 		.ascii	"queue_prio_insert\000"
 4777      655F7072 
ARM GAS  /tmp/ccSFlF6o.s 			page 90


 4777      696F5F69 
 4777      6E736572 
 4777      7400
 4778              	.LASF100:
 4779 06a7 6D5F6F77 		.ascii	"m_owner\000"
 4779      6E657200 
 4780              	.LASF31:
 4781 06af 705F6374 		.ascii	"p_ctx\000"
 4781      7800
 4782              	.LASF67:
 4783 06b5 76745F66 		.ascii	"vt_func\000"
 4783      756E6300 
 4784              		.ident	"GCC: (4.8.4-1+11-1) 4.8.4 20141219 (release)"
ARM GAS  /tmp/ccSFlF6o.s 			page 91


DEFINED SYMBOLS
                            *ABS*:0000000000000000 chmtx.c
     /tmp/ccSFlF6o.s:21     .text.chMtxObjectInit:0000000000000000 $t
     /tmp/ccSFlF6o.s:27     .text.chMtxObjectInit:0000000000000000 chMtxObjectInit
     /tmp/ccSFlF6o.s:54     .text.chMtxLockS:0000000000000000 $t
     /tmp/ccSFlF6o.s:60     .text.chMtxLockS:0000000000000000 chMtxLockS
     /tmp/ccSFlF6o.s:289    .text.chMtxLockS:00000000000000c0 $d
     /tmp/ccSFlF6o.s:294    .text.chMtxLock:0000000000000000 $t
     /tmp/ccSFlF6o.s:300    .text.chMtxLock:0000000000000000 chMtxLock
     /tmp/ccSFlF6o.s:350    .text.chMtxTryLock:0000000000000000 $t
     /tmp/ccSFlF6o.s:356    .text.chMtxTryLock:0000000000000000 chMtxTryLock
     /tmp/ccSFlF6o.s:451    .text.chMtxTryLock:000000000000002c $d
     /tmp/ccSFlF6o.s:456    .text.chMtxTryLockS:0000000000000000 $t
     /tmp/ccSFlF6o.s:462    .text.chMtxTryLockS:0000000000000000 chMtxTryLockS
     /tmp/ccSFlF6o.s:500    .text.chMtxTryLockS:000000000000001c $d
     /tmp/ccSFlF6o.s:505    .text.chMtxUnlock:0000000000000000 $t
     /tmp/ccSFlF6o.s:511    .text.chMtxUnlock:0000000000000000 chMtxUnlock
     /tmp/ccSFlF6o.s:676    .text.chMtxUnlock:0000000000000060 $d
     /tmp/ccSFlF6o.s:686    .text.chMtxUnlockS:0000000000000000 $t
     /tmp/ccSFlF6o.s:692    .text.chMtxUnlockS:0000000000000000 chMtxUnlockS
     /tmp/ccSFlF6o.s:817    .text.chMtxUnlockS:000000000000004c $d
     /tmp/ccSFlF6o.s:822    .text.chMtxUnlockAll:0000000000000000 $t
     /tmp/ccSFlF6o.s:828    .text.chMtxUnlockAll:0000000000000000 chMtxUnlockAll
     /tmp/ccSFlF6o.s:969    .text.chMtxUnlockAll:0000000000000050 $d
                     .debug_frame:0000000000000010 $d
     /tmp/ccSFlF6o.s:293    .text.chMtxLockS:00000000000000c4 $t
     /tmp/ccSFlF6o.s:685    .text.chMtxUnlock:0000000000000064 $t
     /tmp/ccSFlF6o.s:978    .text.chMtxUnlockAll:0000000000000054 $t

UNDEFINED SYMBOLS
chSchGoSleepS
chSchReadyI
ch
chSchRescheduleS
