ARM GAS  /tmp/ccU3pGdw.s 			page 1


   1              		.syntax unified
   2              		.cpu cortex-m4
   3              		.eabi_attribute 27, 3
   4              		.eabi_attribute 28, 1
   5              		.fpu fpv4-sp-d16
   6              		.eabi_attribute 20, 1
   7              		.eabi_attribute 21, 1
   8              		.eabi_attribute 23, 3
   9              		.eabi_attribute 24, 1
  10              		.eabi_attribute 25, 1
  11              		.eabi_attribute 26, 1
  12              		.eabi_attribute 30, 2
  13              		.eabi_attribute 34, 1
  14              		.eabi_attribute 18, 4
  15              		.thumb
  16              		.file	"chprintf.c"
  17              		.text
  18              	.Ltext0:
  19              		.cfi_sections	.debug_frame
  20              		.section	.text.long_to_string_with_divisor,"ax",%progbits
  21              		.align	2
  22              		.p2align 4,,15
  23              		.thumb
  24              		.thumb_func
  25              		.type	long_to_string_with_divisor, %function
  26              	long_to_string_with_divisor:
  27              	.LFB257:
  28              		.file 1 "ChibiOS_3.0.2/os/hal/lib/streams/chprintf.c"
  29              		.loc 1 40 0
  30              		.cfi_startproc
  31              		@ args = 0, pretend = 0, frame = 0
  32              		@ frame_needed = 0, uses_anonymous_args = 0
  33              		@ link register save eliminated.
  34              	.LVL0:
  35 0000 F0B4     		push	{r4, r5, r6, r7}
  36              		.cfi_def_cfa_offset 16
  37              		.cfi_offset 4, -16
  38              		.cfi_offset 5, -12
  39              		.cfi_offset 6, -8
  40              		.cfi_offset 7, -4
  41              		.loc 1 47 0
  42 0002 002B     		cmp	r3, #0
  43 0004 08BF     		it	eq
  44 0006 0B46     		moveq	r3, r1
  45              	.LVL1:
  46              		.loc 1 52 0
  47 0008 00F10B07 		add	r7, r0, #11
  48              	.LVL2:
  49 000c 00F10A05 		add	r5, r0, #10
  50              	.LVL3:
  51              	.L5:
  52              		.loc 1 54 0
  53 0010 B1FBF2F6 		udiv	r6, r1, r2
  54 0014 02FB1611 		mls	r1, r2, r6, r1
  55              	.LVL4:
  56              		.loc 1 55 0
  57 0018 01F13004 		add	r4, r1, #48
ARM GAS  /tmp/ccU3pGdw.s 			page 2


  58              	.LVL5:
  59              		.loc 1 56 0
  60 001c 392C     		cmp	r4, #57
  61              		.loc 1 57 0
  62 001e C8BF     		it	gt
  63 0020 01F13704 		addgt	r4, r1, #55
  64              	.LVL6:
  65              		.loc 1 58 0
  66 0024 E4B2     		uxtb	r4, r4
  67              	.LVL7:
  68              		.loc 1 60 0
  69 0026 B3FBF2F3 		udiv	r3, r3, r2
  70              	.LVL8:
  71              		.loc 1 59 0
  72 002a 3146     		mov	r1, r6
  73              	.LVL9:
  74              		.loc 1 58 0
  75 002c 2E46     		mov	r6, r5
  76              	.LVL10:
  77 002e 05F80149 		strb	r4, [r5], #-1
  78              	.LVL11:
  79              		.loc 1 60 0
  80 0032 002B     		cmp	r3, #0
  81 0034 ECD1     		bne	.L5
  82              	.LVL12:
  83              		.loc 1 62 0
  84 0036 BA1B     		subs	r2, r7, r6
  85              	.LVL13:
  86 0038 3346     		mov	r3, r6
  87              	.LVL14:
  88 003a 0244     		add	r2, r2, r0
  89 003c 01E0     		b	.L7
  90              	.LVL15:
  91              	.L11:
  92 003e 13F8014F 		ldrb	r4, [r3, #1]!	@ zero_extendqisi2
  93              	.LVL16:
  94              	.L7:
  95              		.loc 1 64 0 discriminator 1
  96 0042 00F8014B 		strb	r4, [r0], #1
  97              	.LVL17:
  98              		.loc 1 65 0 discriminator 1
  99 0046 9042     		cmp	r0, r2
 100 0048 F9D1     		bne	.L11
 101              		.loc 1 68 0
 102 004a F0BC     		pop	{r4, r5, r6, r7}
 103              	.LVL18:
 104 004c 7047     		bx	lr
 105              		.cfi_endproc
 106              	.LFE257:
 107              		.size	long_to_string_with_divisor, .-long_to_string_with_divisor
 108              		.global	__aeabi_d2f
 109              		.global	__aeabi_f2d
 110              		.global	__aeabi_i2d
 111              		.global	__aeabi_dsub
 112              		.global	__aeabi_ui2d
 113              		.global	__aeabi_dmul
 114              		.global	__aeabi_d2iz
ARM GAS  /tmp/ccU3pGdw.s 			page 3


 115 004e 00BF     		.section	.text.chvprintf,"ax",%progbits
 116              		.align	2
 117              		.p2align 4,,15
 118              		.global	chvprintf
 119              		.thumb
 120              		.thumb_func
 121              		.type	chvprintf, %function
 122              	chvprintf:
 123              	.LFB260:
 124              		.loc 1 121 0
 125              		.cfi_startproc
 126              		@ args = 0, pretend = 0, frame = 48
 127              		@ frame_needed = 0, uses_anonymous_args = 0
 128              	.LVL19:
 129 0000 2DE9F04F 		push	{r4, r5, r6, r7, r8, r9, r10, fp, lr}
 130              		.cfi_def_cfa_offset 36
 131              		.cfi_offset 4, -36
 132              		.cfi_offset 5, -32
 133              		.cfi_offset 6, -28
 134              		.cfi_offset 7, -24
 135              		.cfi_offset 8, -20
 136              		.cfi_offset 9, -16
 137              		.cfi_offset 10, -12
 138              		.cfi_offset 11, -8
 139              		.cfi_offset 14, -4
 140 0004 2DED028B 		fstmfdd	sp!, {d8}
 141              		.cfi_def_cfa_offset 44
 142              		.cfi_offset 80, -44
 143 0008 8DB0     		sub	sp, sp, #52
 144              		.cfi_def_cfa_offset 96
 145 000a 06AB     		add	r3, sp, #24
 146 000c 0493     		str	r3, [sp, #16]
 147              		.loc 1 121 0
 148 000e 0646     		mov	r6, r0
 149 0010 0498     		ldr	r0, [sp, #16]
 150              	.LVL20:
 151 0012 0DF11903 		add	r3, sp, #25
 152 0016 181A     		subs	r0, r3, r0
 153 0018 0193     		str	r3, [sp, #4]
 154 001a 0C46     		mov	r4, r1
 155 001c 1746     		mov	r7, r2
 156              	.LVL21:
 157 001e 0590     		str	r0, [sp, #20]
 158              		.loc 1 124 0
 159 0020 4FF00008 		mov	r8, #0
 160              	.LVL22:
 161              	.L13:
 162              		.loc 1 135 0
 163 0024 2178     		ldrb	r1, [r4]	@ zero_extendqisi2
 164 0026 631C     		adds	r3, r4, #1
 165              	.LVL23:
 166              		.loc 1 136 0
 167 0028 61B1     		cbz	r1, .L75
 168              	.LVL24:
 169              	.L80:
 170              		.loc 1 138 0
 171 002a 2529     		cmp	r1, #37
ARM GAS  /tmp/ccU3pGdw.s 			page 4


 172 002c 10D0     		beq	.L15
 173              		.loc 1 139 0
 174 002e 3268     		ldr	r2, [r6]
 175              	.LVL25:
 176              		.loc 1 135 0
 177 0030 1C46     		mov	r4, r3
 178              		.loc 1 139 0
 179 0032 9268     		ldr	r2, [r2, #8]
 180 0034 3046     		mov	r0, r6
 181 0036 9047     		blx	r2
 182              	.LVL26:
 183              		.loc 1 135 0
 184 0038 2178     		ldrb	r1, [r4]	@ zero_extendqisi2
 185              		.loc 1 140 0
 186 003a 08F10108 		add	r8, r8, #1
 187              	.LVL27:
 188              		.loc 1 135 0
 189 003e 631C     		adds	r3, r4, #1
 190              	.LVL28:
 191              		.loc 1 136 0
 192 0040 0029     		cmp	r1, #0
 193 0042 F2D1     		bne	.L80
 194              	.LVL29:
 195              	.L75:
 196              		.loc 1 277 0
 197 0044 4046     		mov	r0, r8
 198 0046 0DB0     		add	sp, sp, #52
 199              		@ sp needed
 200 0048 BDEC028B 		fldmfdd	sp!, {d8}
 201 004c BDE8F08F 		pop	{r4, r5, r6, r7, r8, r9, r10, fp, pc}
 202              	.LVL30:
 203              	.L15:
 204              		.loc 1 146 0
 205 0050 6278     		ldrb	r2, [r4, #1]	@ zero_extendqisi2
 206              	.LVL31:
 207 0052 2D2A     		cmp	r2, #45
 208 0054 03BF     		ittte	eq
 209 0056 A278     		ldrbeq	r2, [r4, #2]	@ zero_extendqisi2
 210              		.loc 1 147 0
 211 0058 A31C     		addeq	r3, r4, #2
 212              	.LVL32:
 213              		.loc 1 148 0
 214 005a 4FF0010C 		moveq	ip, #1
 215              		.loc 1 145 0
 216 005e 4FF0000C 		movne	ip, #0
 217              	.LVL33:
 218              		.loc 1 151 0
 219 0062 302A     		cmp	r2, #48
 220 0064 03BF     		ittte	eq
 221 0066 5A78     		ldrbeq	r2, [r3, #1]	@ zero_extendqisi2
 222              		.loc 1 152 0
 223 0068 0133     		addeq	r3, r3, #1
 224              	.LVL34:
 225              		.loc 1 153 0
 226 006a 3025     		moveq	r5, #48
 227              		.loc 1 150 0
 228 006c 2025     		movne	r5, #32
ARM GAS  /tmp/ccU3pGdw.s 			page 5


 229              	.LVL35:
 230              		.loc 1 153 0
 231 006e 1C46     		mov	r4, r3
 232              		.loc 1 155 0
 233 0070 4FF00009 		mov	r9, #0
 234 0074 06E0     		b	.L21
 235              	.LVL36:
 236              	.L81:
 237              		.loc 1 161 0
 238 0076 3B78     		ldrb	r3, [r7]	@ zero_extendqisi2
 239              	.LVL37:
 240 0078 0437     		adds	r7, r7, #4
 241              	.LVL38:
 242              	.L19:
 243              		.loc 1 164 0
 244 007a 09EB8909 		add	r9, r9, r9, lsl #2
 245              	.LVL39:
 246 007e 2278     		ldrb	r2, [r4]	@ zero_extendqisi2
 247 0080 03EB4909 		add	r9, r3, r9, lsl #1
 248              	.LVL40:
 249              	.L21:
 250              		.loc 1 158 0
 251 0084 A2F13003 		sub	r3, r2, #48
 252 0088 DBB2     		uxtb	r3, r3
 253 008a 092B     		cmp	r3, #9
 254              		.loc 1 157 0
 255 008c 04F10104 		add	r4, r4, #1
 256              	.LVL41:
 257              		.loc 1 158 0
 258 0090 F3D9     		bls	.L19
 259              		.loc 1 160 0
 260 0092 2A2A     		cmp	r2, #42
 261 0094 EFD0     		beq	.L81
 262              	.LVL42:
 263              		.loc 1 167 0
 264 0096 2E2A     		cmp	r2, #46
 265 0098 4FF0000B 		mov	fp, #0
 266 009c 45D0     		beq	.L24
 267              	.LVL43:
 268              		.loc 1 181 0
 269 009e 02F0DF03 		and	r3, r2, #223
 270 00a2 4C2B     		cmp	r3, #76
 271 00a4 4ED0     		beq	.L82
 272              	.LVL44:
 273              	.L26:
 274              		.loc 1 190 0
 275 00a6 A2F14403 		sub	r3, r2, #68
 276 00aa 342B     		cmp	r3, #52
 277 00ac 00F23B81 		bhi	.L27
 278 00b0 DFE813F0 		tbh	[pc, r3, lsl #1]
 279              	.L29:
 280 00b4 2401     		.2byte	(.L28-.L29)/2
 281 00b6 3901     		.2byte	(.L27-.L29)/2
 282 00b8 3901     		.2byte	(.L27-.L29)/2
 283 00ba 3901     		.2byte	(.L27-.L29)/2
 284 00bc 3901     		.2byte	(.L27-.L29)/2
 285 00be 2401     		.2byte	(.L28-.L29)/2
ARM GAS  /tmp/ccU3pGdw.s 			page 6


 286 00c0 3901     		.2byte	(.L27-.L29)/2
 287 00c2 3901     		.2byte	(.L27-.L29)/2
 288 00c4 3901     		.2byte	(.L27-.L29)/2
 289 00c6 3901     		.2byte	(.L27-.L29)/2
 290 00c8 3901     		.2byte	(.L27-.L29)/2
 291 00ca 2201     		.2byte	(.L30-.L29)/2
 292 00cc 3901     		.2byte	(.L27-.L29)/2
 293 00ce 3901     		.2byte	(.L27-.L29)/2
 294 00d0 3901     		.2byte	(.L27-.L29)/2
 295 00d2 3901     		.2byte	(.L27-.L29)/2
 296 00d4 3901     		.2byte	(.L27-.L29)/2
 297 00d6 4E00     		.2byte	(.L62-.L29)/2
 298 00d8 3901     		.2byte	(.L27-.L29)/2
 299 00da 3901     		.2byte	(.L27-.L29)/2
 300 00dc C100     		.2byte	(.L32-.L29)/2
 301 00de 3901     		.2byte	(.L27-.L29)/2
 302 00e0 3901     		.2byte	(.L27-.L29)/2
 303 00e2 3901     		.2byte	(.L27-.L29)/2
 304 00e4 3901     		.2byte	(.L27-.L29)/2
 305 00e6 3901     		.2byte	(.L27-.L29)/2
 306 00e8 3901     		.2byte	(.L27-.L29)/2
 307 00ea 3901     		.2byte	(.L27-.L29)/2
 308 00ec 3901     		.2byte	(.L27-.L29)/2
 309 00ee 3901     		.2byte	(.L27-.L29)/2
 310 00f0 3901     		.2byte	(.L27-.L29)/2
 311 00f2 1701     		.2byte	(.L33-.L29)/2
 312 00f4 2401     		.2byte	(.L28-.L29)/2
 313 00f6 3901     		.2byte	(.L27-.L29)/2
 314 00f8 C300     		.2byte	(.L34-.L29)/2
 315 00fa 3901     		.2byte	(.L27-.L29)/2
 316 00fc 3901     		.2byte	(.L27-.L29)/2
 317 00fe 2401     		.2byte	(.L28-.L29)/2
 318 0100 3901     		.2byte	(.L27-.L29)/2
 319 0102 3901     		.2byte	(.L27-.L29)/2
 320 0104 3901     		.2byte	(.L27-.L29)/2
 321 0106 3901     		.2byte	(.L27-.L29)/2
 322 0108 3901     		.2byte	(.L27-.L29)/2
 323 010a 2201     		.2byte	(.L30-.L29)/2
 324 010c 3901     		.2byte	(.L27-.L29)/2
 325 010e 3901     		.2byte	(.L27-.L29)/2
 326 0110 3901     		.2byte	(.L27-.L29)/2
 327 0112 9D00     		.2byte	(.L35-.L29)/2
 328 0114 3901     		.2byte	(.L27-.L29)/2
 329 0116 4E00     		.2byte	(.L62-.L29)/2
 330 0118 3901     		.2byte	(.L27-.L29)/2
 331 011a 3901     		.2byte	(.L27-.L29)/2
 332 011c C100     		.2byte	(.L32-.L29)/2
 333              	.LVL45:
 334              		.p2align 1
 335              	.L83:
 336              		.loc 1 173 0
 337 011e 3B78     		ldrb	r3, [r7]	@ zero_extendqisi2
 338              	.LVL46:
 339 0120 0437     		adds	r7, r7, #4
 340              	.LVL47:
 341              	.L23:
 342              		.loc 1 176 0
ARM GAS  /tmp/ccU3pGdw.s 			page 7


 343 0122 0BEB8B0B 		add	fp, fp, fp, lsl #2
 344              	.LVL48:
 345              		.loc 1 177 0
 346 0126 03EB4B0B 		add	fp, r3, fp, lsl #1
 347              	.LVL49:
 348              	.L24:
 349              		.loc 1 169 0
 350 012a 14F8012B 		ldrb	r2, [r4], #1	@ zero_extendqisi2
 351              	.LVL50:
 352              		.loc 1 170 0
 353 012e A2F13003 		sub	r3, r2, #48
 354 0132 DBB2     		uxtb	r3, r3
 355 0134 092B     		cmp	r3, #9
 356 0136 F4D9     		bls	.L23
 357              		.loc 1 172 0
 358 0138 2A2A     		cmp	r2, #42
 359 013a F0D0     		beq	.L83
 360              	.LVL51:
 361              		.loc 1 181 0
 362 013c 02F0DF03 		and	r3, r2, #223
 363 0140 4C2B     		cmp	r3, #76
 364 0142 B0D1     		bne	.L26
 365              	.LVL52:
 366              	.L82:
 367              		.loc 1 183 0
 368 0144 2378     		ldrb	r3, [r4]	@ zero_extendqisi2
 369 0146 002B     		cmp	r3, #0
 370 0148 ADD0     		beq	.L26
 371              		.loc 1 184 0
 372 014a 0134     		adds	r4, r4, #1
 373              	.LVL53:
 374 014c 1A46     		mov	r2, r3
 375 014e AAE7     		b	.L26
 376              	.LVL54:
 377              	.L62:
 378              		.loc 1 190 0
 379 0150 0A22     		movs	r2, #10
 380              	.LVL55:
 381              	.L31:
 382              		.loc 1 243 0
 383 0152 3968     		ldr	r1, [r7]
 384              	.LVL56:
 385              	.LBB12:
 386              	.LBB13:
 387              		.loc 1 72 0
 388 0154 CDF800C0 		str	ip, [sp]
 389              	.LBE13:
 390              	.LBE12:
 391              		.loc 1 243 0
 392 0158 0437     		adds	r7, r7, #4
 393              	.LVL57:
 394              	.LBB15:
 395              	.LBB14:
 396              		.loc 1 72 0
 397 015a 06A8     		add	r0, sp, #24
 398 015c 0023     		movs	r3, #0
 399              	.LVL58:
ARM GAS  /tmp/ccU3pGdw.s 			page 8


 400              	.L78:
 401 015e FFF7FEFF 		bl	long_to_string_with_divisor
 402              	.LVL59:
 403 0162 049A     		ldr	r2, [sp, #16]
 404              	.LBE14:
 405              	.LBE15:
 406              		.loc 1 245 0
 407 0164 DDF800C0 		ldr	ip, [sp]
 408 0168 801A     		subs	r0, r0, r2
 409 016a 431E     		subs	r3, r0, #1
 410 016c 0293     		str	r3, [sp, #8]
 411              		.loc 1 144 0
 412 016e 0DF1180A 		add	r10, sp, #24
 413              	.LVL60:
 414              	.L36:
 415              		.loc 1 251 0
 416 0172 C0EB0909 		rsb	r9, r0, r9
 417              	.LVL61:
 418 0176 29EAE979 		bic	r9, r9, r9, asr #31
 419              	.LVL62:
 420              		.loc 1 253 0
 421 017a BCF1000F 		cmp	ip, #0
 422 017e 15D1     		bne	.L49
 423              		.loc 1 254 0
 424 0180 C9F10009 		rsb	r9, r9, #0
 425              	.LVL63:
 426              		.loc 1 255 0
 427 0184 B9F1000F 		cmp	r9, #0
 428 0188 10D0     		beq	.L49
 429              		.loc 1 256 0
 430 018a 9AF80010 		ldrb	r1, [r10]	@ zero_extendqisi2
 431 018e 2D29     		cmp	r1, #45
 432 0190 00F0D180 		beq	.L84
 433              	.LVL64:
 434              	.L50:
 435              		.loc 1 196 0 discriminator 1
 436 0194 CB46     		mov	fp, r9
 437              	.LVL65:
 438              	.L52:
 439              		.loc 1 262 0 discriminator 1
 440 0196 3368     		ldr	r3, [r6]
 441 0198 3046     		mov	r0, r6
 442 019a 9B68     		ldr	r3, [r3, #8]
 443 019c 2946     		mov	r1, r5
 444 019e 9847     		blx	r3
 445              	.LVL66:
 446              		.loc 1 264 0 discriminator 1
 447 01a0 1BF1010B 		adds	fp, fp, #1
 448              	.LVL67:
 449 01a4 F7D1     		bne	.L52
 450 01a6 C9EB0808 		rsb	r8, r9, r8
 451              		.loc 1 264 0 is_stmt 0
 452 01aa D946     		mov	r9, fp
 453              	.LVL68:
 454              	.L49:
 455              		.loc 1 266 0 is_stmt 1 discriminator 1
 456 01ac 029B     		ldr	r3, [sp, #8]
ARM GAS  /tmp/ccU3pGdw.s 			page 9


 457 01ae 002B     		cmp	r3, #0
 458 01b0 0EDB     		blt	.L53
 459 01b2 0AF1FF3B 		add	fp, r10, #-1
 460 01b6 9A44     		add	r10, r10, r3
 461              	.LVL69:
 462              	.L55:
 463              		.loc 1 267 0
 464 01b8 3368     		ldr	r3, [r6]
 465 01ba 1BF8011F 		ldrb	r1, [fp, #1]!	@ zero_extendqisi2
 466              	.LVL70:
 467 01be 9B68     		ldr	r3, [r3, #8]
 468 01c0 3046     		mov	r0, r6
 469 01c2 9847     		blx	r3
 470              	.LVL71:
 471              		.loc 1 266 0
 472 01c4 D345     		cmp	fp, r10
 473 01c6 F7D1     		bne	.L55
 474 01c8 029A     		ldr	r2, [sp, #8]
 475 01ca 08F10108 		add	r8, r8, #1
 476 01ce 9044     		add	r8, r8, r2
 477              	.LVL72:
 478              	.L53:
 479              		.loc 1 271 0 discriminator 1
 480 01d0 B9F1000F 		cmp	r9, #0
 481 01d4 3FF426AF 		beq	.L13
 482              		.loc 1 271 0 is_stmt 0
 483 01d8 CA46     		mov	r10, r9
 484              	.LVL73:
 485              	.L57:
 486              		.loc 1 272 0 is_stmt 1
 487 01da 3368     		ldr	r3, [r6]
 488 01dc 3046     		mov	r0, r6
 489 01de 9B68     		ldr	r3, [r3, #8]
 490 01e0 2946     		mov	r1, r5
 491 01e2 9847     		blx	r3
 492              	.LVL74:
 493              		.loc 1 271 0
 494 01e4 BAF1010A 		subs	r10, r10, #1
 495              	.LVL75:
 496 01e8 F7D1     		bne	.L57
 497 01ea C844     		add	r8, r8, r9
 498 01ec 1AE7     		b	.L13
 499              	.LVL76:
 500              	.L35:
 501              		.loc 1 197 0
 502 01ee D7F800A0 		ldr	r10, [r7]
 503              		.loc 1 198 0
 504 01f2 654B     		ldr	r3, .L88
 505 01f4 BAF1000F 		cmp	r10, #0
 506 01f8 08BF     		it	eq
 507 01fa 9A46     		moveq	r10, r3
 508              		.loc 1 200 0
 509 01fc 47F6FF73 		movw	r3, #32767
 510              		.loc 1 201 0
 511 0200 9AF80000 		ldrb	r0, [r10]	@ zero_extendqisi2
 512              		.loc 1 197 0
 513 0204 0437     		adds	r7, r7, #4
ARM GAS  /tmp/ccU3pGdw.s 			page 10


 514              	.LVL77:
 515              		.loc 1 200 0
 516 0206 BBF1000F 		cmp	fp, #0
 517 020a 08BF     		it	eq
 518 020c 9B46     		moveq	fp, r3
 519              	.LVL78:
 520              		.loc 1 201 0
 521 020e 0028     		cmp	r0, #0
 522 0210 00F0B580 		beq	.L65
 523 0214 0BEB0A00 		add	r0, fp, r10
 524 0218 5346     		mov	r3, r10
 525 021a 02E0     		b	.L41
 526              	.LVL79:
 527              	.L39:
 528              		.loc 1 201 0 is_stmt 0 discriminator 2
 529 021c 9842     		cmp	r0, r3
 530 021e 00F09980 		beq	.L85
 531              	.LVL80:
 532              	.L41:
 533              		.loc 1 201 0 discriminator 1
 534 0222 5A78     		ldrb	r2, [r3, #1]	@ zero_extendqisi2
 535 0224 0133     		adds	r3, r3, #1
 536              	.LVL81:
 537 0226 002A     		cmp	r2, #0
 538 0228 F8D1     		bne	.L39
 539 022a CAEB0300 		rsb	r0, r10, r3
 540 022e 431E     		subs	r3, r0, #1
 541              	.LVL82:
 542 0230 0293     		str	r3, [sp, #8]
 543              		.loc 1 196 0 is_stmt 1
 544 0232 2025     		movs	r5, #32
 545 0234 9DE7     		b	.L36
 546              	.LVL83:
 547              	.L32:
 548              		.loc 1 190 0
 549 0236 1022     		movs	r2, #16
 550              	.LVL84:
 551 0238 8BE7     		b	.L31
 552              	.LVL85:
 553              	.L34:
 554              		.loc 1 220 0
 555 023a 0737     		adds	r7, r7, #7
 556              	.LVL86:
 557 023c 27F00707 		bic	r7, r7, #7
 558              	.LVL87:
 559 0240 D7E90001 		ldrd	r0, [r7]
 560 0244 CDF800C0 		str	ip, [sp]
 561 0248 FFF7FEFF 		bl	__aeabi_d2f
 562              	.LVL88:
 563 024c 08EE100A 		fmsr	s16, r0
 564              		.loc 1 221 0
 565 0250 B5EEC08A 		fcmpezs	s16
 566 0254 F1EE10FA 		fmstat
 567              		.loc 1 220 0
 568 0258 07F10807 		add	r7, r7, #8
 569              	.LVL89:
 570              		.loc 1 221 0
ARM GAS  /tmp/ccU3pGdw.s 			page 11


 571 025c DDF800C0 		ldr	ip, [sp]
 572              	.LVL90:
 573 0260 00F18580 		bmi	.L86
 574              		.loc 1 143 0
 575 0264 06A8     		add	r0, sp, #24
 576              	.LVL91:
 577              	.L45:
 578              	.LBB16:
 579              	.LBB17:
 580              		.loc 1 87 0
 581 0266 FDEEC88A 		ftosizs	s17, s16
 582              		.loc 1 83 0
 583 026a 0BF1FF3B 		add	fp, fp, #-1
 584              		.loc 1 85 0
 585 026e DFF820E1 		ldr	lr, .L88+8
 586              		.loc 1 88 0
 587 0272 CDF800C0 		str	ip, [sp]
 588 0276 BBF1080F 		cmp	fp, #8
 589 027a 28BF     		it	cs
 590 027c 4FF0080B 		movcs	fp, #8
 591 0280 0A22     		movs	r2, #10
 592 0282 18EE901A 		fmrs	r1, s17	@ int
 593 0286 0023     		movs	r3, #0
 594              		.loc 1 85 0
 595 0288 5EF82BB0 		ldr	fp, [lr, fp, lsl #2]
 596              	.LVL92:
 597              		.loc 1 88 0
 598 028c FFF7FEFF 		bl	long_to_string_with_divisor
 599              	.LVL93:
 600              		.loc 1 89 0
 601 0290 8246     		mov	r10, r0
 602 0292 2E23     		movs	r3, #46
 603 0294 0AF8013B 		strb	r3, [r10], #1
 604              	.LVL94:
 605              	.LBE17:
 606              	.LBE16:
 607              		.loc 1 225 0
 608 0298 18EE100A 		fmrs	r0, s16
 609 029c FFF7FEFF 		bl	__aeabi_f2d
 610              	.LVL95:
 611 02a0 CDE90201 		strd	r0, [sp, #8]
 612              	.LBB19:
 613              	.LBB18:
 614              		.loc 1 90 0
 615 02a4 18EE900A 		fmrs	r0, s17	@ int
 616 02a8 FFF7FEFF 		bl	__aeabi_i2d
 617              	.LVL96:
 618 02ac 0246     		mov	r2, r0
 619 02ae 0B46     		mov	r3, r1
 620 02b0 DDE90201 		ldrd	r0, [sp, #8]
 621 02b4 FFF7FEFF 		bl	__aeabi_dsub
 622              	.LVL97:
 623 02b8 CDE90201 		strd	r0, [sp, #8]
 624 02bc 5846     		mov	r0, fp
 625 02be FFF7FEFF 		bl	__aeabi_ui2d
 626              	.LVL98:
 627 02c2 0246     		mov	r2, r0
ARM GAS  /tmp/ccU3pGdw.s 			page 12


 628 02c4 0B46     		mov	r3, r1
 629 02c6 DDE90201 		ldrd	r0, [sp, #8]
 630 02ca FFF7FEFF 		bl	__aeabi_dmul
 631              	.LVL99:
 632 02ce FFF7FEFF 		bl	__aeabi_d2iz
 633              	.LVL100:
 634              		.loc 1 91 0
 635 02d2 2E4B     		ldr	r3, .L88+4
 636              		.loc 1 90 0
 637 02d4 0146     		mov	r1, r0
 638              		.loc 1 91 0
 639 02d6 A3FB0B03 		umull	r0, r3, r3, fp
 640 02da DB08     		lsrs	r3, r3, #3
 641 02dc 5046     		mov	r0, r10
 642 02de 0A22     		movs	r2, #10
 643 02e0 3DE7     		b	.L78
 644              	.LVL101:
 645              	.L33:
 646 02e2 0598     		ldr	r0, [sp, #20]
 647              	.LBE18:
 648              	.LBE19:
 649              		.loc 1 193 0
 650 02e4 3B68     		ldr	r3, [r7]
 651 02e6 8DF81830 		strb	r3, [sp, #24]
 652 02ea 421E     		subs	r2, r0, #1
 653              	.LVL102:
 654 02ec 0437     		adds	r7, r7, #4
 655              	.LVL103:
 656 02ee 0292     		str	r2, [sp, #8]
 657              		.loc 1 192 0
 658 02f0 2025     		movs	r5, #32
 659              		.loc 1 144 0
 660 02f2 0DF1180A 		add	r10, sp, #24
 661              		.loc 1 194 0
 662 02f6 3CE7     		b	.L36
 663              	.LVL104:
 664              	.L30:
 665 02f8 0822     		movs	r2, #8
 666 02fa 2AE7     		b	.L31
 667              	.LVL105:
 668              	.L28:
 669              		.loc 1 211 0
 670 02fc 3968     		ldr	r1, [r7]
 671              	.LVL106:
 672              		.loc 1 212 0
 673 02fe 0029     		cmp	r1, #0
 674              		.loc 1 211 0
 675 0300 07F10407 		add	r7, r7, #4
 676              	.LVL107:
 677              		.loc 1 212 0
 678 0304 2CDB     		blt	.L87
 679              		.loc 1 143 0
 680 0306 06A8     		add	r0, sp, #24
 681              	.LVL108:
 682              	.L44:
 683              	.LBB20:
 684              	.LBB21:
ARM GAS  /tmp/ccU3pGdw.s 			page 13


 685              		.loc 1 72 0
 686 0308 0A22     		movs	r2, #10
 687              	.LVL109:
 688 030a 0023     		movs	r3, #0
 689 030c CDF800C0 		str	ip, [sp]
 690 0310 FFF7FEFF 		bl	long_to_string_with_divisor
 691              	.LVL110:
 692 0314 049B     		ldr	r3, [sp, #16]
 693              	.LBE21:
 694              	.LBE20:
 695              		.loc 1 217 0
 696 0316 DDF800C0 		ldr	ip, [sp]
 697 031a C01A     		subs	r0, r0, r3
 698 031c 421E     		subs	r2, r0, #1
 699 031e 0292     		str	r2, [sp, #8]
 700              		.loc 1 144 0
 701 0320 0DF1180A 		add	r10, sp, #24
 702              		.loc 1 217 0
 703 0324 25E7     		b	.L36
 704              	.LVL111:
 705              	.L27:
 706 0326 0598     		ldr	r0, [sp, #20]
 707              		.loc 1 247 0
 708 0328 8DF81820 		strb	r2, [sp, #24]
 709 032c 421E     		subs	r2, r0, #1
 710              	.LVL112:
 711 032e 0292     		str	r2, [sp, #8]
 712              		.loc 1 144 0
 713 0330 0DF1180A 		add	r10, sp, #24
 714              		.loc 1 248 0
 715 0334 1DE7     		b	.L36
 716              	.LVL113:
 717              	.L84:
 718              		.loc 1 256 0 discriminator 1
 719 0336 302D     		cmp	r5, #48
 720 0338 7FF42CAF 		bne	.L50
 721              	.LVL114:
 722              		.loc 1 257 0
 723 033c 3368     		ldr	r3, [r6]
 724 033e 3046     		mov	r0, r6
 725              	.LVL115:
 726 0340 9B68     		ldr	r3, [r3, #8]
 727 0342 9847     		blx	r3
 728              	.LVL116:
 729 0344 029A     		ldr	r2, [sp, #8]
 730 0346 013A     		subs	r2, r2, #1
 731 0348 0AF1010A 		add	r10, r10, #1
 732              	.LVL117:
 733              		.loc 1 258 0
 734 034c 08F10108 		add	r8, r8, #1
 735              	.LVL118:
 736 0350 0292     		str	r2, [sp, #8]
 737              	.LVL119:
 738 0352 1FE7     		b	.L50
 739              	.LVL120:
 740              	.L85:
 741 0354 CAEB0000 		rsb	r0, r10, r0
ARM GAS  /tmp/ccU3pGdw.s 			page 14


 742 0358 421E     		subs	r2, r0, #1
 743 035a 0292     		str	r2, [sp, #8]
 744              		.loc 1 196 0
 745 035c 2025     		movs	r5, #32
 746 035e 08E7     		b	.L36
 747              	.LVL121:
 748              	.L87:
 749              		.loc 1 213 0
 750 0360 2D23     		movs	r3, #45
 751              		.loc 1 214 0
 752 0362 4942     		negs	r1, r1
 753              	.LVL122:
 754              		.loc 1 213 0
 755 0364 8DF81830 		strb	r3, [sp, #24]
 756 0368 0DF11900 		add	r0, sp, #25
 757 036c CCE7     		b	.L44
 758              	.LVL123:
 759              	.L86:
 760              		.loc 1 222 0
 761 036e 2D23     		movs	r3, #45
 762              		.loc 1 223 0
 763 0370 B1EE488A 		fnegs	s16, s16
 764              	.LVL124:
 765              		.loc 1 222 0
 766 0374 8DF81830 		strb	r3, [sp, #24]
 767 0378 0DF11900 		add	r0, sp, #25
 768 037c 73E7     		b	.L45
 769              	.LVL125:
 770              	.L65:
 771              		.loc 1 201 0
 772 037e 4FF0FF33 		mov	r3, #-1
 773 0382 0293     		str	r3, [sp, #8]
 774              		.loc 1 196 0
 775 0384 2025     		movs	r5, #32
 776 0386 F4E6     		b	.L36
 777              	.L89:
 778              		.align	2
 779              	.L88:
 780 0388 00000000 		.word	.LC0
 781 038c CDCCCCCC 		.word	-858993459
 782 0390 00000000 		.word	.LANCHOR0
 783              		.cfi_endproc
 784              	.LFE260:
 785              		.size	chvprintf, .-chvprintf
 786 0394 AFF30080 		.section	.text.chsnprintf,"ax",%progbits
 786      AFF30080 
 786      AFF30080 
 787              		.align	2
 788              		.p2align 4,,15
 789              		.global	chsnprintf
 790              		.thumb
 791              		.thumb_func
 792              		.type	chsnprintf, %function
 793              	chsnprintf:
 794              	.LFB261:
 795              		.loc 1 307 0
 796              		.cfi_startproc
ARM GAS  /tmp/ccU3pGdw.s 			page 15


 797              		@ args = 4, pretend = 8, frame = 24
 798              		@ frame_needed = 0, uses_anonymous_args = 1
 799              	.LVL126:
 800 0000 0CB4     		push	{r2, r3}
 801              		.cfi_def_cfa_offset 8
 802              		.cfi_offset 2, -8
 803              		.cfi_offset 3, -4
 804 0002 70B5     		push	{r4, r5, r6, lr}
 805              		.cfi_def_cfa_offset 24
 806              		.cfi_offset 4, -24
 807              		.cfi_offset 5, -20
 808              		.cfi_offset 6, -16
 809              		.cfi_offset 14, -12
 810 0004 86B0     		sub	sp, sp, #24
 811              		.cfi_def_cfa_offset 48
 812              		.loc 1 314 0
 813 0006 0C46     		mov	r4, r1
 814              		.loc 1 307 0
 815 0008 0546     		mov	r5, r0
 816 000a 0A9E     		ldr	r6, [sp, #40]
 817              		.loc 1 314 0
 818 000c B1B1     		cbz	r1, .L91
 819              	.LVL127:
 820              		.loc 1 321 0
 821 000e 01A8     		add	r0, sp, #4
 822              	.LVL128:
 823 0010 2946     		mov	r1, r5
 824              	.LVL129:
 825 0012 621E     		subs	r2, r4, #1
 826              	.LVL130:
 827 0014 0023     		movs	r3, #0
 828 0016 FFF7FEFF 		bl	msObjectInit
 829              	.LVL131:
 830              		.loc 1 325 0
 831 001a 0BAB     		add	r3, sp, #44
 832              		.loc 1 326 0
 833 001c 1A46     		mov	r2, r3
 834 001e 01A8     		add	r0, sp, #4
 835              	.LVL132:
 836 0020 3146     		mov	r1, r6
 837              		.loc 1 325 0
 838 0022 0093     		str	r3, [sp]
 839              		.loc 1 326 0
 840 0024 FFF7FEFF 		bl	chvprintf
 841              	.LVL133:
 842              		.loc 1 330 0
 843 0028 049B     		ldr	r3, [sp, #16]
 844 002a 9C42     		cmp	r4, r3
 845 002c 01D9     		bls	.L93
 846              		.loc 1 331 0
 847 002e 0022     		movs	r2, #0
 848 0030 EA54     		strb	r2, [r5, r3]
 849              	.L93:
 850              		.loc 1 335 0
 851 0032 06B0     		add	sp, sp, #24
 852              		@ sp needed
 853 0034 BDE87040 		pop	{r4, r5, r6, lr}
ARM GAS  /tmp/ccU3pGdw.s 			page 16


 854              	.LVL134:
 855 0038 02B0     		add	sp, sp, #8
 856 003a 7047     		bx	lr
 857              	.LVL135:
 858              	.L91:
 859              		.loc 1 321 0
 860 003c 0A46     		mov	r2, r1
 861 003e 2346     		mov	r3, r4
 862 0040 0146     		mov	r1, r0
 863              	.LVL136:
 864 0042 01A8     		add	r0, sp, #4
 865              	.LVL137:
 866 0044 FFF7FEFF 		bl	msObjectInit
 867              	.LVL138:
 868              		.loc 1 325 0
 869 0048 0BAB     		add	r3, sp, #44
 870              		.loc 1 326 0
 871 004a 01A8     		add	r0, sp, #4
 872              	.LVL139:
 873 004c 3146     		mov	r1, r6
 874 004e 1A46     		mov	r2, r3
 875              		.loc 1 325 0
 876 0050 0093     		str	r3, [sp]
 877              		.loc 1 326 0
 878 0052 FFF7FEFF 		bl	chvprintf
 879              	.LVL140:
 880              		.loc 1 335 0
 881 0056 06B0     		add	sp, sp, #24
 882              		@ sp needed
 883 0058 BDE87040 		pop	{r4, r5, r6, lr}
 884              	.LVL141:
 885 005c 02B0     		add	sp, sp, #8
 886 005e 7047     		bx	lr
 887              		.cfi_endproc
 888              	.LFE261:
 889              		.size	chsnprintf, .-chsnprintf
 890              		.section	.rodata.str1.4,"aMS",%progbits,1
 891              		.align	2
 892              	.LC0:
 893 0000 286E756C 		.ascii	"(null)\000"
 893      6C2900
 894 0007 00       		.section	.rodata.pow10,"a",%progbits
 895              		.align	2
 896              		.set	.LANCHOR0,. + 0
 897              		.type	pow10, %object
 898              		.size	pow10, 36
 899              	pow10:
 900 0000 0A000000 		.word	10
 901 0004 64000000 		.word	100
 902 0008 E8030000 		.word	1000
 903 000c 10270000 		.word	10000
 904 0010 A0860100 		.word	100000
 905 0014 40420F00 		.word	1000000
 906 0018 80969800 		.word	10000000
 907 001c 00E1F505 		.word	100000000
 908 0020 00CA9A3B 		.word	1000000000
 909              		.text
ARM GAS  /tmp/ccU3pGdw.s 			page 17


 910              	.Letext0:
 911              		.file 2 "/usr/lib/gcc/arm-none-eabi/4.8/include/stddef.h"
 912              		.file 3 "/usr/include/newlib/machine/_default_types.h"
 913              		.file 4 "/usr/include/newlib/stdint.h"
 914              		.file 5 "ChibiOS_3.0.2/os/rt/ports/ARMCMx/compilers/GCC/chtypes.h"
 915              		.file 6 "ChibiOS_3.0.2/os/rt/include/chsystypes.h"
 916              		.file 7 "ChibiOS_3.0.2/os/rt/include/chschd.h"
 917              		.file 8 "ChibiOS_3.0.2/os/rt/ports/ARMCMx/chcore.h"
 918              		.file 9 "ChibiOS_3.0.2/os/rt/ports/ARMCMx/chcore_v7m.h"
 919              		.file 10 "ChibiOS_3.0.2/os/rt/include/chtm.h"
 920              		.file 11 "ChibiOS_3.0.2/os/rt/include/chsem.h"
 921              		.file 12 "ChibiOS_3.0.2/os/rt/include/chmtx.h"
 922              		.file 13 "ChibiOS_3.0.2/os/rt/include/chstreams.h"
 923              		.file 14 "/usr/lib/gcc/arm-none-eabi/4.8/include/stdarg.h"
 924              		.file 15 "<built-in>"
 925              		.file 16 "ChibiOS_3.0.2/os/hal/lib/streams/memstreams.h"
 926              		.file 17 "ChibiOS_3.0.2/os/ext/CMSIS/include/core_cm4.h"
 927              		.section	.debug_info,"",%progbits
 928              	.Ldebug_info0:
 929 0000 920D0000 		.4byte	0xd92
 930 0004 0400     		.2byte	0x4
 931 0006 00000000 		.4byte	.Ldebug_abbrev0
 932 000a 04       		.byte	0x4
 933 000b 01       		.uleb128 0x1
 934 000c 58010000 		.4byte	.LASF136
 935 0010 01       		.byte	0x1
 936 0011 4E000000 		.4byte	.LASF137
 937 0015 93020000 		.4byte	.LASF138
 938 0019 30000000 		.4byte	.Ldebug_ranges0+0x30
 939 001d 00000000 		.4byte	0
 940 0021 00000000 		.4byte	.Ldebug_line0
 941 0025 02       		.uleb128 0x2
 942 0026 08       		.byte	0x8
 943 0027 04       		.byte	0x4
 944 0028 B9060000 		.4byte	.LASF0
 945 002c 03       		.uleb128 0x3
 946 002d 04       		.byte	0x4
 947 002e 05       		.byte	0x5
 948 002f 696E7400 		.ascii	"int\000"
 949 0033 02       		.uleb128 0x2
 950 0034 04       		.byte	0x4
 951 0035 04       		.byte	0x4
 952 0036 61040000 		.4byte	.LASF1
 953 003a 04       		.uleb128 0x4
 954 003b 0D000000 		.4byte	.LASF4
 955 003f 02       		.byte	0x2
 956 0040 D4       		.byte	0xd4
 957 0041 45000000 		.4byte	0x45
 958 0045 02       		.uleb128 0x2
 959 0046 04       		.byte	0x4
 960 0047 07       		.byte	0x7
 961 0048 F4020000 		.4byte	.LASF2
 962 004c 02       		.uleb128 0x2
 963 004d 01       		.byte	0x1
 964 004e 06       		.byte	0x6
 965 004f F1000000 		.4byte	.LASF3
 966 0053 04       		.uleb128 0x4
ARM GAS  /tmp/ccU3pGdw.s 			page 18


 967 0054 1D000000 		.4byte	.LASF5
 968 0058 03       		.byte	0x3
 969 0059 1D       		.byte	0x1d
 970 005a 5E000000 		.4byte	0x5e
 971 005e 02       		.uleb128 0x2
 972 005f 01       		.byte	0x1
 973 0060 08       		.byte	0x8
 974 0061 B8040000 		.4byte	.LASF6
 975 0065 02       		.uleb128 0x2
 976 0066 02       		.byte	0x2
 977 0067 05       		.byte	0x5
 978 0068 DE040000 		.4byte	.LASF7
 979 006c 02       		.uleb128 0x2
 980 006d 02       		.byte	0x2
 981 006e 07       		.byte	0x7
 982 006f 4A030000 		.4byte	.LASF8
 983 0073 04       		.uleb128 0x4
 984 0074 9B030000 		.4byte	.LASF9
 985 0078 03       		.byte	0x3
 986 0079 3F       		.byte	0x3f
 987 007a 7E000000 		.4byte	0x7e
 988 007e 02       		.uleb128 0x2
 989 007f 04       		.byte	0x4
 990 0080 05       		.byte	0x5
 991 0081 3C010000 		.4byte	.LASF10
 992 0085 04       		.uleb128 0x4
 993 0086 DC050000 		.4byte	.LASF11
 994 008a 03       		.byte	0x3
 995 008b 41       		.byte	0x41
 996 008c 90000000 		.4byte	0x90
 997 0090 02       		.uleb128 0x2
 998 0091 04       		.byte	0x4
 999 0092 07       		.byte	0x7
 1000 0093 FD000000 		.4byte	.LASF12
 1001 0097 02       		.uleb128 0x2
 1002 0098 08       		.byte	0x8
 1003 0099 05       		.byte	0x5
 1004 009a E3000000 		.4byte	.LASF13
 1005 009e 04       		.uleb128 0x4
 1006 009f 56040000 		.4byte	.LASF14
 1007 00a3 03       		.byte	0x3
 1008 00a4 5B       		.byte	0x5b
 1009 00a5 A9000000 		.4byte	0xa9
 1010 00a9 02       		.uleb128 0x2
 1011 00aa 08       		.byte	0x8
 1012 00ab 07       		.byte	0x7
 1013 00ac 7A000000 		.4byte	.LASF15
 1014 00b0 04       		.uleb128 0x4
 1015 00b1 45060000 		.4byte	.LASF16
 1016 00b5 04       		.byte	0x4
 1017 00b6 2A       		.byte	0x2a
 1018 00b7 53000000 		.4byte	0x53
 1019 00bb 04       		.uleb128 0x4
 1020 00bc B0040000 		.4byte	.LASF17
 1021 00c0 04       		.byte	0x4
 1022 00c1 41       		.byte	0x41
 1023 00c2 73000000 		.4byte	0x73
ARM GAS  /tmp/ccU3pGdw.s 			page 19


 1024 00c6 04       		.uleb128 0x4
 1025 00c7 63050000 		.4byte	.LASF18
 1026 00cb 04       		.byte	0x4
 1027 00cc 42       		.byte	0x42
 1028 00cd 85000000 		.4byte	0x85
 1029 00d1 04       		.uleb128 0x4
 1030 00d2 14000000 		.4byte	.LASF19
 1031 00d6 04       		.byte	0x4
 1032 00d7 4E       		.byte	0x4e
 1033 00d8 9E000000 		.4byte	0x9e
 1034 00dc 05       		.uleb128 0x5
 1035 00dd BB000000 		.4byte	0xbb
 1036 00e1 04       		.uleb128 0x4
 1037 00e2 C3030000 		.4byte	.LASF20
 1038 00e6 05       		.byte	0x5
 1039 00e7 45       		.byte	0x45
 1040 00e8 C6000000 		.4byte	0xc6
 1041 00ec 04       		.uleb128 0x4
 1042 00ed 79030000 		.4byte	.LASF21
 1043 00f1 05       		.byte	0x5
 1044 00f2 48       		.byte	0x48
 1045 00f3 B0000000 		.4byte	0xb0
 1046 00f7 04       		.uleb128 0x4
 1047 00f8 45010000 		.4byte	.LASF22
 1048 00fc 05       		.byte	0x5
 1049 00fd 49       		.byte	0x49
 1050 00fe B0000000 		.4byte	0xb0
 1051 0102 04       		.uleb128 0x4
 1052 0103 2F060000 		.4byte	.LASF23
 1053 0107 05       		.byte	0x5
 1054 0108 4A       		.byte	0x4a
 1055 0109 B0000000 		.4byte	0xb0
 1056 010d 04       		.uleb128 0x4
 1057 010e 22010000 		.4byte	.LASF24
 1058 0112 05       		.byte	0x5
 1059 0113 4B       		.byte	0x4b
 1060 0114 B0000000 		.4byte	0xb0
 1061 0118 04       		.uleb128 0x4
 1062 0119 7E040000 		.4byte	.LASF25
 1063 011d 05       		.byte	0x5
 1064 011e 4C       		.byte	0x4c
 1065 011f C6000000 		.4byte	0xc6
 1066 0123 04       		.uleb128 0x4
 1067 0124 67030000 		.4byte	.LASF26
 1068 0128 05       		.byte	0x5
 1069 0129 4D       		.byte	0x4d
 1070 012a BB000000 		.4byte	0xbb
 1071 012e 04       		.uleb128 0x4
 1072 012f 8F030000 		.4byte	.LASF27
 1073 0133 05       		.byte	0x5
 1074 0134 4F       		.byte	0x4f
 1075 0135 C6000000 		.4byte	0xc6
 1076 0139 04       		.uleb128 0x4
 1077 013a EE020000 		.4byte	.LASF28
 1078 013e 05       		.byte	0x5
 1079 013f 51       		.byte	0x51
 1080 0140 BB000000 		.4byte	0xbb
ARM GAS  /tmp/ccU3pGdw.s 			page 20


 1081 0144 04       		.uleb128 0x4
 1082 0145 C0050000 		.4byte	.LASF29
 1083 0149 06       		.byte	0x6
 1084 014a 33       		.byte	0x33
 1085 014b C6000000 		.4byte	0xc6
 1086 014f 04       		.uleb128 0x4
 1087 0150 B0050000 		.4byte	.LASF30
 1088 0154 06       		.byte	0x6
 1089 0155 3F       		.byte	0x3f
 1090 0156 5A010000 		.4byte	0x15a
 1091 015a 06       		.uleb128 0x6
 1092 015b 5D030000 		.4byte	.LASF52
 1093 015f 48       		.byte	0x48
 1094 0160 07       		.byte	0x7
 1095 0161 C2       		.byte	0xc2
 1096 0162 5F020000 		.4byte	0x25f
 1097 0166 07       		.uleb128 0x7
 1098 0167 08050000 		.4byte	.LASF31
 1099 016b 07       		.byte	0x7
 1100 016c C3       		.byte	0xc3
 1101 016d 6A020000 		.4byte	0x26a
 1102 0171 00       		.byte	0
 1103 0172 07       		.uleb128 0x7
 1104 0173 77040000 		.4byte	.LASF32
 1105 0177 07       		.byte	0x7
 1106 0178 C5       		.byte	0xc5
 1107 0179 6A020000 		.4byte	0x26a
 1108 017d 04       		.byte	0x4
 1109 017e 07       		.uleb128 0x7
 1110 017f DC000000 		.4byte	.LASF33
 1111 0183 07       		.byte	0x7
 1112 0184 C7       		.byte	0xc7
 1113 0185 18010000 		.4byte	0x118
 1114 0189 08       		.byte	0x8
 1115 018a 07       		.uleb128 0x7
 1116 018b C0060000 		.4byte	.LASF34
 1117 018f 07       		.byte	0x7
 1118 0190 C8       		.byte	0xc8
 1119 0191 9A040000 		.4byte	0x49a
 1120 0195 0C       		.byte	0xc
 1121 0196 07       		.uleb128 0x7
 1122 0197 52020000 		.4byte	.LASF35
 1123 019b 07       		.byte	0x7
 1124 019c CA       		.byte	0xca
 1125 019d 6A020000 		.4byte	0x26a
 1126 01a1 10       		.byte	0x10
 1127 01a2 07       		.uleb128 0x7
 1128 01a3 11040000 		.4byte	.LASF36
 1129 01a7 07       		.byte	0x7
 1130 01a8 CB       		.byte	0xcb
 1131 01a9 6A020000 		.4byte	0x26a
 1132 01ad 14       		.byte	0x14
 1133 01ae 07       		.uleb128 0x7
 1134 01af 93040000 		.4byte	.LASF37
 1135 01b3 07       		.byte	0x7
 1136 01b4 D2       		.byte	0xd2
 1137 01b5 DF060000 		.4byte	0x6df
ARM GAS  /tmp/ccU3pGdw.s 			page 21


 1138 01b9 18       		.byte	0x18
 1139 01ba 07       		.uleb128 0x7
 1140 01bb E8040000 		.4byte	.LASF38
 1141 01bf 07       		.byte	0x7
 1142 01c0 DD       		.byte	0xdd
 1143 01c1 F7000000 		.4byte	0xf7
 1144 01c5 1C       		.byte	0x1c
 1145 01c6 07       		.uleb128 0x7
 1146 01c7 A3060000 		.4byte	.LASF39
 1147 01cb 07       		.byte	0x7
 1148 01cc E1       		.byte	0xe1
 1149 01cd EC000000 		.4byte	0xec
 1150 01d1 1D       		.byte	0x1d
 1151 01d2 07       		.uleb128 0x7
 1152 01d3 30040000 		.4byte	.LASF40
 1153 01d7 07       		.byte	0x7
 1154 01d8 E6       		.byte	0xe6
 1155 01d9 02010000 		.4byte	0x102
 1156 01dd 1E       		.byte	0x1e
 1157 01de 07       		.uleb128 0x7
 1158 01df F0040000 		.4byte	.LASF41
 1159 01e3 07       		.byte	0x7
 1160 01e4 EC       		.byte	0xec
 1161 01e5 0D010000 		.4byte	0x10d
 1162 01e9 1F       		.byte	0x1f
 1163 01ea 07       		.uleb128 0x7
 1164 01eb FD050000 		.4byte	.LASF42
 1165 01ef 07       		.byte	0x7
 1166 01f0 F3       		.byte	0xf3
 1167 01f1 F1060000 		.4byte	0x6f1
 1168 01f5 20       		.byte	0x20
 1169 01f6 08       		.uleb128 0x8
 1170 01f7 705F7500 		.ascii	"p_u\000"
 1171 01fb 07       		.byte	0x7
 1172 01fc 3101     		.2byte	0x131
 1173 01fe 1A060000 		.4byte	0x61a
 1174 0202 24       		.byte	0x24
 1175 0203 09       		.uleb128 0x9
 1176 0204 C6060000 		.4byte	.LASF43
 1177 0208 07       		.byte	0x7
 1178 0209 3601     		.2byte	0x136
 1179 020b 70020000 		.4byte	0x270
 1180 020f 28       		.byte	0x28
 1181 0210 09       		.uleb128 0x9
 1182 0211 04060000 		.4byte	.LASF44
 1183 0215 07       		.byte	0x7
 1184 0216 3C01     		.2byte	0x13c
 1185 0218 94020000 		.4byte	0x294
 1186 021c 2C       		.byte	0x2c
 1187 021d 09       		.uleb128 0x9
 1188 021e AB060000 		.4byte	.LASF45
 1189 0222 07       		.byte	0x7
 1190 0223 4001     		.2byte	0x140
 1191 0225 23010000 		.4byte	0x123
 1192 0229 34       		.byte	0x34
 1193 022a 09       		.uleb128 0x9
 1194 022b 58050000 		.4byte	.LASF46
ARM GAS  /tmp/ccU3pGdw.s 			page 22


 1195 022f 07       		.byte	0x7
 1196 0230 4601     		.2byte	0x146
 1197 0232 2E010000 		.4byte	0x12e
 1198 0236 38       		.byte	0x38
 1199 0237 09       		.uleb128 0x9
 1200 0238 D4040000 		.4byte	.LASF47
 1201 023c 07       		.byte	0x7
 1202 023d 4D01     		.2byte	0x14d
 1203 023f D9060000 		.4byte	0x6d9
 1204 0243 3C       		.byte	0x3c
 1205 0244 09       		.uleb128 0x9
 1206 0245 CA050000 		.4byte	.LASF48
 1207 0249 07       		.byte	0x7
 1208 024a 5101     		.2byte	0x151
 1209 024c 18010000 		.4byte	0x118
 1210 0250 40       		.byte	0x40
 1211 0251 09       		.uleb128 0x9
 1212 0252 73020000 		.4byte	.LASF49
 1213 0256 07       		.byte	0x7
 1214 0257 5801     		.2byte	0x158
 1215 0259 47030000 		.4byte	0x347
 1216 025d 44       		.byte	0x44
 1217 025e 00       		.byte	0
 1218 025f 04       		.uleb128 0x4
 1219 0260 60060000 		.4byte	.LASF50
 1220 0264 06       		.byte	0x6
 1221 0265 44       		.byte	0x44
 1222 0266 6A020000 		.4byte	0x26a
 1223 026a 0A       		.uleb128 0xa
 1224 026b 04       		.byte	0x4
 1225 026c 4F010000 		.4byte	0x14f
 1226 0270 04       		.uleb128 0x4
 1227 0271 94060000 		.4byte	.LASF51
 1228 0275 06       		.byte	0x6
 1229 0276 49       		.byte	0x49
 1230 0277 7B020000 		.4byte	0x27b
 1231 027b 06       		.uleb128 0x6
 1232 027c 86050000 		.4byte	.LASF53
 1233 0280 04       		.byte	0x4
 1234 0281 07       		.byte	0x7
 1235 0282 B0       		.byte	0xb0
 1236 0283 94020000 		.4byte	0x294
 1237 0287 07       		.uleb128 0x7
 1238 0288 08050000 		.4byte	.LASF31
 1239 028c 07       		.byte	0x7
 1240 028d B1       		.byte	0xb1
 1241 028e 6A020000 		.4byte	0x26a
 1242 0292 00       		.byte	0
 1243 0293 00       		.byte	0
 1244 0294 04       		.uleb128 0x4
 1245 0295 16060000 		.4byte	.LASF54
 1246 0299 06       		.byte	0x6
 1247 029a 50       		.byte	0x50
 1248 029b 9F020000 		.4byte	0x29f
 1249 029f 06       		.uleb128 0x6
 1250 02a0 CB000000 		.4byte	.LASF55
 1251 02a4 08       		.byte	0x8
ARM GAS  /tmp/ccU3pGdw.s 			page 23


 1252 02a5 07       		.byte	0x7
 1253 02a6 B7       		.byte	0xb7
 1254 02a7 C4020000 		.4byte	0x2c4
 1255 02ab 07       		.uleb128 0x7
 1256 02ac 08050000 		.4byte	.LASF31
 1257 02b0 07       		.byte	0x7
 1258 02b1 B8       		.byte	0xb8
 1259 02b2 6A020000 		.4byte	0x26a
 1260 02b6 00       		.byte	0
 1261 02b7 07       		.uleb128 0x7
 1262 02b8 77040000 		.4byte	.LASF32
 1263 02bc 07       		.byte	0x7
 1264 02bd B9       		.byte	0xb9
 1265 02be 6A020000 		.4byte	0x26a
 1266 02c2 04       		.byte	0x4
 1267 02c3 00       		.byte	0
 1268 02c4 04       		.uleb128 0x4
 1269 02c5 00000000 		.4byte	.LASF56
 1270 02c9 06       		.byte	0x6
 1271 02ca 57       		.byte	0x57
 1272 02cb CF020000 		.4byte	0x2cf
 1273 02cf 0B       		.uleb128 0xb
 1274 02d0 81030000 		.4byte	.LASF57
 1275 02d4 1C       		.byte	0x1c
 1276 02d5 07       		.byte	0x7
 1277 02d6 9001     		.2byte	0x190
 1278 02d8 2B030000 		.4byte	0x32b
 1279 02dc 09       		.uleb128 0x9
 1280 02dd 73050000 		.4byte	.LASF58
 1281 02e1 07       		.byte	0x7
 1282 02e2 9101     		.2byte	0x191
 1283 02e4 94020000 		.4byte	0x294
 1284 02e8 00       		.byte	0
 1285 02e9 09       		.uleb128 0x9
 1286 02ea FA040000 		.4byte	.LASF59
 1287 02ee 07       		.byte	0x7
 1288 02ef 9201     		.2byte	0x192
 1289 02f1 18010000 		.4byte	0x118
 1290 02f5 08       		.byte	0x8
 1291 02f6 09       		.uleb128 0x9
 1292 02f7 19040000 		.4byte	.LASF60
 1293 02fb 07       		.byte	0x7
 1294 02fc 9401     		.2byte	0x194
 1295 02fe 9A040000 		.4byte	0x49a
 1296 0302 0C       		.byte	0xc
 1297 0303 09       		.uleb128 0x9
 1298 0304 6B020000 		.4byte	.LASF61
 1299 0308 07       		.byte	0x7
 1300 0309 9701     		.2byte	0x197
 1301 030b 6A020000 		.4byte	0x26a
 1302 030f 10       		.byte	0x10
 1303 0310 09       		.uleb128 0x9
 1304 0311 41040000 		.4byte	.LASF62
 1305 0315 07       		.byte	0x7
 1306 0316 9801     		.2byte	0x198
 1307 0318 6A020000 		.4byte	0x26a
 1308 031c 14       		.byte	0x14
ARM GAS  /tmp/ccU3pGdw.s 			page 24


 1309 031d 09       		.uleb128 0x9
 1310 031e 37040000 		.4byte	.LASF63
 1311 0322 07       		.byte	0x7
 1312 0323 9B01     		.2byte	0x19b
 1313 0325 6A020000 		.4byte	0x26a
 1314 0329 18       		.byte	0x18
 1315 032a 00       		.byte	0
 1316 032b 04       		.uleb128 0x4
 1317 032c 33030000 		.4byte	.LASF64
 1318 0330 06       		.byte	0x6
 1319 0331 5C       		.byte	0x5c
 1320 0332 36030000 		.4byte	0x336
 1321 0336 0A       		.uleb128 0xa
 1322 0337 04       		.byte	0x4
 1323 0338 3C030000 		.4byte	0x33c
 1324 033c 0C       		.uleb128 0xc
 1325 033d 47030000 		.4byte	0x347
 1326 0341 0D       		.uleb128 0xd
 1327 0342 47030000 		.4byte	0x347
 1328 0346 00       		.byte	0
 1329 0347 0E       		.uleb128 0xe
 1330 0348 04       		.byte	0x4
 1331 0349 04       		.uleb128 0x4
 1332 034a 67040000 		.4byte	.LASF65
 1333 034e 06       		.byte	0x6
 1334 034f 61       		.byte	0x61
 1335 0350 54030000 		.4byte	0x354
 1336 0354 0B       		.uleb128 0xb
 1337 0355 3A050000 		.4byte	.LASF66
 1338 0359 14       		.byte	0x14
 1339 035a 07       		.byte	0x7
 1340 035b 6B01     		.2byte	0x16b
 1341 035d A3030000 		.4byte	0x3a3
 1342 0361 09       		.uleb128 0x9
 1343 0362 01030000 		.4byte	.LASF67
 1344 0366 07       		.byte	0x7
 1345 0367 6C01     		.2byte	0x16c
 1346 0369 F6060000 		.4byte	0x6f6
 1347 036d 00       		.byte	0
 1348 036e 09       		.uleb128 0x9
 1349 036f 84020000 		.4byte	.LASF68
 1350 0373 07       		.byte	0x7
 1351 0374 6D01     		.2byte	0x16d
 1352 0376 F6060000 		.4byte	0x6f6
 1353 037a 04       		.byte	0x4
 1354 037b 09       		.uleb128 0x9
 1355 037c 10030000 		.4byte	.LASF69
 1356 0380 07       		.byte	0x7
 1357 0381 6E01     		.2byte	0x16e
 1358 0383 44010000 		.4byte	0x144
 1359 0387 08       		.byte	0x8
 1360 0388 09       		.uleb128 0x9
 1361 0389 E2030000 		.4byte	.LASF70
 1362 038d 07       		.byte	0x7
 1363 038e 6F01     		.2byte	0x16f
 1364 0390 2B030000 		.4byte	0x32b
 1365 0394 0C       		.byte	0xc
ARM GAS  /tmp/ccU3pGdw.s 			page 25


 1366 0395 09       		.uleb128 0x9
 1367 0396 0F060000 		.4byte	.LASF71
 1368 039a 07       		.byte	0x7
 1369 039b 7101     		.2byte	0x171
 1370 039d 47030000 		.4byte	0x347
 1371 03a1 10       		.byte	0x10
 1372 03a2 00       		.byte	0
 1373 03a3 04       		.uleb128 0x4
 1374 03a4 9C000000 		.4byte	.LASF72
 1375 03a8 06       		.byte	0x6
 1376 03a9 66       		.byte	0x66
 1377 03aa AE030000 		.4byte	0x3ae
 1378 03ae 0B       		.uleb128 0xb
 1379 03af CB030000 		.4byte	.LASF73
 1380 03b3 10       		.byte	0x10
 1381 03b4 07       		.byte	0x7
 1382 03b5 7B01     		.2byte	0x17b
 1383 03b7 F0030000 		.4byte	0x3f0
 1384 03bb 09       		.uleb128 0x9
 1385 03bc 01030000 		.4byte	.LASF67
 1386 03c0 07       		.byte	0x7
 1387 03c1 7C01     		.2byte	0x17c
 1388 03c3 F6060000 		.4byte	0x6f6
 1389 03c7 00       		.byte	0
 1390 03c8 09       		.uleb128 0x9
 1391 03c9 84020000 		.4byte	.LASF68
 1392 03cd 07       		.byte	0x7
 1393 03ce 7E01     		.2byte	0x17e
 1394 03d0 F6060000 		.4byte	0x6f6
 1395 03d4 04       		.byte	0x4
 1396 03d5 09       		.uleb128 0x9
 1397 03d6 10030000 		.4byte	.LASF69
 1398 03da 07       		.byte	0x7
 1399 03db 8001     		.2byte	0x180
 1400 03dd 44010000 		.4byte	0x144
 1401 03e1 08       		.byte	0x8
 1402 03e2 09       		.uleb128 0x9
 1403 03e3 7B050000 		.4byte	.LASF74
 1404 03e7 07       		.byte	0x7
 1405 03e8 8201     		.2byte	0x182
 1406 03ea F1060000 		.4byte	0x6f1
 1407 03ee 0C       		.byte	0xc
 1408 03ef 00       		.byte	0
 1409 03f0 04       		.uleb128 0x4
 1410 03f1 19030000 		.4byte	.LASF75
 1411 03f5 06       		.byte	0x6
 1412 03f6 6B       		.byte	0x6b
 1413 03f7 FB030000 		.4byte	0x3fb
 1414 03fb 0B       		.uleb128 0xb
 1415 03fc 9A040000 		.4byte	.LASF76
 1416 0400 04       		.byte	0x4
 1417 0401 07       		.byte	0x7
 1418 0402 A201     		.2byte	0x1a2
 1419 0404 16040000 		.4byte	0x416
 1420 0408 09       		.uleb128 0x9
 1421 0409 E7050000 		.4byte	.LASF77
 1422 040d 07       		.byte	0x7
ARM GAS  /tmp/ccU3pGdw.s 			page 26


 1423 040e AA01     		.2byte	0x1aa
 1424 0410 FC060000 		.4byte	0x6fc
 1425 0414 00       		.byte	0
 1426 0415 00       		.byte	0
 1427 0416 04       		.uleb128 0x4
 1428 0417 6D030000 		.4byte	.LASF78
 1429 041b 06       		.byte	0x6
 1430 041c 70       		.byte	0x70
 1431 041d 21040000 		.4byte	0x421
 1432 0421 0F       		.uleb128 0xf
 1433 0422 32010000 		.4byte	.LASF79
 1434 0426 5802     		.2byte	0x258
 1435 0428 07       		.byte	0x7
 1436 0429 C201     		.2byte	0x1c2
 1437 042b 7D040000 		.4byte	0x47d
 1438 042f 09       		.uleb128 0x9
 1439 0430 3F060000 		.4byte	.LASF80
 1440 0434 07       		.byte	0x7
 1441 0435 C601     		.2byte	0x1c6
 1442 0437 C4020000 		.4byte	0x2c4
 1443 043b 00       		.byte	0
 1444 043c 09       		.uleb128 0x9
 1445 043d 3B000000 		.4byte	.LASF81
 1446 0441 07       		.byte	0x7
 1447 0442 CA01     		.2byte	0x1ca
 1448 0444 A3030000 		.4byte	0x3a3
 1449 0448 1C       		.byte	0x1c
 1450 0449 08       		.uleb128 0x8
 1451 044a 64626700 		.ascii	"dbg\000"
 1452 044e 07       		.byte	0x7
 1453 044f CE01     		.2byte	0x1ce
 1454 0451 F0030000 		.4byte	0x3f0
 1455 0455 2C       		.byte	0x2c
 1456 0456 09       		.uleb128 0x9
 1457 0457 91000000 		.4byte	.LASF82
 1458 045b 07       		.byte	0x7
 1459 045c D201     		.2byte	0x1d2
 1460 045e 4F010000 		.4byte	0x14f
 1461 0462 30       		.byte	0x30
 1462 0463 08       		.uleb128 0x8
 1463 0464 746D00   		.ascii	"tm\000"
 1464 0467 07       		.byte	0x7
 1465 0468 D701     		.2byte	0x1d7
 1466 046a 0F060000 		.4byte	0x60f
 1467 046e 78       		.byte	0x78
 1468 046f 09       		.uleb128 0x9
 1469 0470 DF020000 		.4byte	.LASF83
 1470 0474 07       		.byte	0x7
 1471 0475 E301     		.2byte	0x1e3
 1472 0477 01070000 		.4byte	0x701
 1473 047b 80       		.byte	0x80
 1474 047c 00       		.byte	0
 1475 047d 02       		.uleb128 0x2
 1476 047e 04       		.byte	0x4
 1477 047f 07       		.byte	0x7
 1478 0480 57060000 		.4byte	.LASF84
 1479 0484 04       		.uleb128 0x4
ARM GAS  /tmp/ccU3pGdw.s 			page 27


 1480 0485 7B020000 		.4byte	.LASF85
 1481 0489 08       		.byte	0x8
 1482 048a 65       		.byte	0x65
 1483 048b 47030000 		.4byte	0x347
 1484 048f 04       		.uleb128 0x4
 1485 0490 A5030000 		.4byte	.LASF86
 1486 0494 08       		.byte	0x8
 1487 0495 6D       		.byte	0x6d
 1488 0496 D1000000 		.4byte	0xd1
 1489 049a 06       		.uleb128 0x6
 1490 049b 42030000 		.4byte	.LASF87
 1491 049f 04       		.byte	0x4
 1492 04a0 08       		.byte	0x8
 1493 04a1 89       		.byte	0x89
 1494 04a2 B3040000 		.4byte	0x4b3
 1495 04a6 10       		.uleb128 0x10
 1496 04a7 72313300 		.ascii	"r13\000"
 1497 04ab 08       		.byte	0x8
 1498 04ac 8A       		.byte	0x8a
 1499 04ad F4050000 		.4byte	0x5f4
 1500 04b1 00       		.byte	0
 1501 04b2 00       		.byte	0
 1502 04b3 06       		.uleb128 0x6
 1503 04b4 27000000 		.4byte	.LASF88
 1504 04b8 64       		.byte	0x64
 1505 04b9 09       		.byte	0x9
 1506 04ba F4       		.byte	0xf4
 1507 04bb F4050000 		.4byte	0x5f4
 1508 04bf 10       		.uleb128 0x10
 1509 04c0 73313600 		.ascii	"s16\000"
 1510 04c4 09       		.byte	0x9
 1511 04c5 F6       		.byte	0xf6
 1512 04c6 84040000 		.4byte	0x484
 1513 04ca 00       		.byte	0
 1514 04cb 10       		.uleb128 0x10
 1515 04cc 73313700 		.ascii	"s17\000"
 1516 04d0 09       		.byte	0x9
 1517 04d1 F7       		.byte	0xf7
 1518 04d2 84040000 		.4byte	0x484
 1519 04d6 04       		.byte	0x4
 1520 04d7 10       		.uleb128 0x10
 1521 04d8 73313800 		.ascii	"s18\000"
 1522 04dc 09       		.byte	0x9
 1523 04dd F8       		.byte	0xf8
 1524 04de 84040000 		.4byte	0x484
 1525 04e2 08       		.byte	0x8
 1526 04e3 10       		.uleb128 0x10
 1527 04e4 73313900 		.ascii	"s19\000"
 1528 04e8 09       		.byte	0x9
 1529 04e9 F9       		.byte	0xf9
 1530 04ea 84040000 		.4byte	0x484
 1531 04ee 0C       		.byte	0xc
 1532 04ef 10       		.uleb128 0x10
 1533 04f0 73323000 		.ascii	"s20\000"
 1534 04f4 09       		.byte	0x9
 1535 04f5 FA       		.byte	0xfa
 1536 04f6 84040000 		.4byte	0x484
ARM GAS  /tmp/ccU3pGdw.s 			page 28


 1537 04fa 10       		.byte	0x10
 1538 04fb 10       		.uleb128 0x10
 1539 04fc 73323100 		.ascii	"s21\000"
 1540 0500 09       		.byte	0x9
 1541 0501 FB       		.byte	0xfb
 1542 0502 84040000 		.4byte	0x484
 1543 0506 14       		.byte	0x14
 1544 0507 10       		.uleb128 0x10
 1545 0508 73323200 		.ascii	"s22\000"
 1546 050c 09       		.byte	0x9
 1547 050d FC       		.byte	0xfc
 1548 050e 84040000 		.4byte	0x484
 1549 0512 18       		.byte	0x18
 1550 0513 10       		.uleb128 0x10
 1551 0514 73323300 		.ascii	"s23\000"
 1552 0518 09       		.byte	0x9
 1553 0519 FD       		.byte	0xfd
 1554 051a 84040000 		.4byte	0x484
 1555 051e 1C       		.byte	0x1c
 1556 051f 10       		.uleb128 0x10
 1557 0520 73323400 		.ascii	"s24\000"
 1558 0524 09       		.byte	0x9
 1559 0525 FE       		.byte	0xfe
 1560 0526 84040000 		.4byte	0x484
 1561 052a 20       		.byte	0x20
 1562 052b 10       		.uleb128 0x10
 1563 052c 73323500 		.ascii	"s25\000"
 1564 0530 09       		.byte	0x9
 1565 0531 FF       		.byte	0xff
 1566 0532 84040000 		.4byte	0x484
 1567 0536 24       		.byte	0x24
 1568 0537 08       		.uleb128 0x8
 1569 0538 73323600 		.ascii	"s26\000"
 1570 053c 09       		.byte	0x9
 1571 053d 0001     		.2byte	0x100
 1572 053f 84040000 		.4byte	0x484
 1573 0543 28       		.byte	0x28
 1574 0544 08       		.uleb128 0x8
 1575 0545 73323700 		.ascii	"s27\000"
 1576 0549 09       		.byte	0x9
 1577 054a 0101     		.2byte	0x101
 1578 054c 84040000 		.4byte	0x484
 1579 0550 2C       		.byte	0x2c
 1580 0551 08       		.uleb128 0x8
 1581 0552 73323800 		.ascii	"s28\000"
 1582 0556 09       		.byte	0x9
 1583 0557 0201     		.2byte	0x102
 1584 0559 84040000 		.4byte	0x484
 1585 055d 30       		.byte	0x30
 1586 055e 08       		.uleb128 0x8
 1587 055f 73323900 		.ascii	"s29\000"
 1588 0563 09       		.byte	0x9
 1589 0564 0301     		.2byte	0x103
 1590 0566 84040000 		.4byte	0x484
 1591 056a 34       		.byte	0x34
 1592 056b 08       		.uleb128 0x8
 1593 056c 73333000 		.ascii	"s30\000"
ARM GAS  /tmp/ccU3pGdw.s 			page 29


 1594 0570 09       		.byte	0x9
 1595 0571 0401     		.2byte	0x104
 1596 0573 84040000 		.4byte	0x484
 1597 0577 38       		.byte	0x38
 1598 0578 08       		.uleb128 0x8
 1599 0579 73333100 		.ascii	"s31\000"
 1600 057d 09       		.byte	0x9
 1601 057e 0501     		.2byte	0x105
 1602 0580 84040000 		.4byte	0x484
 1603 0584 3C       		.byte	0x3c
 1604 0585 08       		.uleb128 0x8
 1605 0586 723400   		.ascii	"r4\000"
 1606 0589 09       		.byte	0x9
 1607 058a 0701     		.2byte	0x107
 1608 058c 84040000 		.4byte	0x484
 1609 0590 40       		.byte	0x40
 1610 0591 08       		.uleb128 0x8
 1611 0592 723500   		.ascii	"r5\000"
 1612 0595 09       		.byte	0x9
 1613 0596 0801     		.2byte	0x108
 1614 0598 84040000 		.4byte	0x484
 1615 059c 44       		.byte	0x44
 1616 059d 08       		.uleb128 0x8
 1617 059e 723600   		.ascii	"r6\000"
 1618 05a1 09       		.byte	0x9
 1619 05a2 0901     		.2byte	0x109
 1620 05a4 84040000 		.4byte	0x484
 1621 05a8 48       		.byte	0x48
 1622 05a9 08       		.uleb128 0x8
 1623 05aa 723700   		.ascii	"r7\000"
 1624 05ad 09       		.byte	0x9
 1625 05ae 0A01     		.2byte	0x10a
 1626 05b0 84040000 		.4byte	0x484
 1627 05b4 4C       		.byte	0x4c
 1628 05b5 08       		.uleb128 0x8
 1629 05b6 723800   		.ascii	"r8\000"
 1630 05b9 09       		.byte	0x9
 1631 05ba 0B01     		.2byte	0x10b
 1632 05bc 84040000 		.4byte	0x484
 1633 05c0 50       		.byte	0x50
 1634 05c1 08       		.uleb128 0x8
 1635 05c2 723900   		.ascii	"r9\000"
 1636 05c5 09       		.byte	0x9
 1637 05c6 0C01     		.2byte	0x10c
 1638 05c8 84040000 		.4byte	0x484
 1639 05cc 54       		.byte	0x54
 1640 05cd 08       		.uleb128 0x8
 1641 05ce 72313000 		.ascii	"r10\000"
 1642 05d2 09       		.byte	0x9
 1643 05d3 0D01     		.2byte	0x10d
 1644 05d5 84040000 		.4byte	0x484
 1645 05d9 58       		.byte	0x58
 1646 05da 08       		.uleb128 0x8
 1647 05db 72313100 		.ascii	"r11\000"
 1648 05df 09       		.byte	0x9
 1649 05e0 0E01     		.2byte	0x10e
 1650 05e2 84040000 		.4byte	0x484
ARM GAS  /tmp/ccU3pGdw.s 			page 30


 1651 05e6 5C       		.byte	0x5c
 1652 05e7 08       		.uleb128 0x8
 1653 05e8 6C7200   		.ascii	"lr\000"
 1654 05eb 09       		.byte	0x9
 1655 05ec 0F01     		.2byte	0x10f
 1656 05ee 84040000 		.4byte	0x484
 1657 05f2 60       		.byte	0x60
 1658 05f3 00       		.byte	0
 1659 05f4 0A       		.uleb128 0xa
 1660 05f5 04       		.byte	0x4
 1661 05f6 B3040000 		.4byte	0x4b3
 1662 05fa 11       		.uleb128 0x11
 1663 05fb 04       		.byte	0x4
 1664 05fc 0A       		.byte	0xa
 1665 05fd 38       		.byte	0x38
 1666 05fe 0F060000 		.4byte	0x60f
 1667 0602 07       		.uleb128 0x7
 1668 0603 F1050000 		.4byte	.LASF89
 1669 0607 0A       		.byte	0xa
 1670 0608 3C       		.byte	0x3c
 1671 0609 E1000000 		.4byte	0xe1
 1672 060d 00       		.byte	0
 1673 060e 00       		.byte	0
 1674 060f 04       		.uleb128 0x4
 1675 0610 1F040000 		.4byte	.LASF90
 1676 0614 0A       		.byte	0xa
 1677 0615 3D       		.byte	0x3d
 1678 0616 FA050000 		.4byte	0x5fa
 1679 061a 12       		.uleb128 0x12
 1680 061b 04       		.byte	0x4
 1681 061c 07       		.byte	0x7
 1682 061d FA       		.byte	0xfa
 1683 061e 77060000 		.4byte	0x677
 1684 0622 13       		.uleb128 0x13
 1685 0623 33050000 		.4byte	.LASF91
 1686 0627 07       		.byte	0x7
 1687 0628 0101     		.2byte	0x101
 1688 062a 23010000 		.4byte	0x123
 1689 062e 13       		.uleb128 0x13
 1690 062f 62020000 		.4byte	.LASF92
 1691 0633 07       		.byte	0x7
 1692 0634 0801     		.2byte	0x108
 1693 0636 23010000 		.4byte	0x123
 1694 063a 13       		.uleb128 0x13
 1695 063b 1B010000 		.4byte	.LASF93
 1696 063f 07       		.byte	0x7
 1697 0640 0F01     		.2byte	0x10f
 1698 0642 47030000 		.4byte	0x347
 1699 0646 13       		.uleb128 0x13
 1700 0647 2C010000 		.4byte	.LASF94
 1701 064b 07       		.byte	0x7
 1702 064c 1601     		.2byte	0x116
 1703 064e 77060000 		.4byte	0x677
 1704 0652 13       		.uleb128 0x13
 1705 0653 09030000 		.4byte	.LASF95
 1706 0657 07       		.byte	0x7
 1707 0658 1E01     		.2byte	0x11e
ARM GAS  /tmp/ccU3pGdw.s 			page 31


 1708 065a A2060000 		.4byte	0x6a2
 1709 065e 13       		.uleb128 0x13
 1710 065f 6C050000 		.4byte	.LASF96
 1711 0663 07       		.byte	0x7
 1712 0664 2701     		.2byte	0x127
 1713 0666 D9060000 		.4byte	0x6d9
 1714 066a 13       		.uleb128 0x13
 1715 066b 01050000 		.4byte	.LASF97
 1716 066f 07       		.byte	0x7
 1717 0670 2F01     		.2byte	0x12f
 1718 0672 2E010000 		.4byte	0x12e
 1719 0676 00       		.byte	0
 1720 0677 0A       		.uleb128 0xa
 1721 0678 04       		.byte	0x4
 1722 0679 5F020000 		.4byte	0x25f
 1723 067d 06       		.uleb128 0x6
 1724 067e 4B050000 		.4byte	.LASF98
 1725 0682 0C       		.byte	0xc
 1726 0683 0B       		.byte	0xb
 1727 0684 34       		.byte	0x34
 1728 0685 A2060000 		.4byte	0x6a2
 1729 0689 07       		.uleb128 0x7
 1730 068a 5A020000 		.4byte	.LASF99
 1731 068e 0B       		.byte	0xb
 1732 068f 35       		.byte	0x35
 1733 0690 94020000 		.4byte	0x294
 1734 0694 00       		.byte	0
 1735 0695 07       		.uleb128 0x7
 1736 0696 3C030000 		.4byte	.LASF100
 1737 069a 0B       		.byte	0xb
 1738 069b 37       		.byte	0x37
 1739 069c 39010000 		.4byte	0x139
 1740 06a0 08       		.byte	0x8
 1741 06a1 00       		.byte	0
 1742 06a2 0A       		.uleb128 0xa
 1743 06a3 04       		.byte	0x4
 1744 06a4 7D060000 		.4byte	0x67d
 1745 06a8 06       		.uleb128 0x6
 1746 06a9 26060000 		.4byte	.LASF101
 1747 06ad 10       		.byte	0x10
 1748 06ae 0C       		.byte	0xc
 1749 06af 39       		.byte	0x39
 1750 06b0 D9060000 		.4byte	0x6d9
 1751 06b4 07       		.uleb128 0x7
 1752 06b5 C6040000 		.4byte	.LASF102
 1753 06b9 0C       		.byte	0xc
 1754 06ba 3A       		.byte	0x3a
 1755 06bb 94020000 		.4byte	0x294
 1756 06bf 00       		.byte	0
 1757 06c0 07       		.uleb128 0x7
 1758 06c1 B1060000 		.4byte	.LASF103
 1759 06c5 0C       		.byte	0xc
 1760 06c6 3C       		.byte	0x3c
 1761 06c7 6A020000 		.4byte	0x26a
 1762 06cb 08       		.byte	0x8
 1763 06cc 07       		.uleb128 0x7
 1764 06cd B9050000 		.4byte	.LASF104
ARM GAS  /tmp/ccU3pGdw.s 			page 32


 1765 06d1 0C       		.byte	0xc
 1766 06d2 3E       		.byte	0x3e
 1767 06d3 1C070000 		.4byte	0x71c
 1768 06d7 0C       		.byte	0xc
 1769 06d8 00       		.byte	0
 1770 06d9 0A       		.uleb128 0xa
 1771 06da 04       		.byte	0x4
 1772 06db A8060000 		.4byte	0x6a8
 1773 06df 0A       		.uleb128 0xa
 1774 06e0 04       		.byte	0x4
 1775 06e1 E5060000 		.4byte	0x6e5
 1776 06e5 14       		.uleb128 0x14
 1777 06e6 EA060000 		.4byte	0x6ea
 1778 06ea 02       		.uleb128 0x2
 1779 06eb 01       		.byte	0x1
 1780 06ec 08       		.byte	0x8
 1781 06ed A1050000 		.4byte	.LASF105
 1782 06f1 05       		.uleb128 0x5
 1783 06f2 44010000 		.4byte	0x144
 1784 06f6 0A       		.uleb128 0xa
 1785 06f7 04       		.byte	0x4
 1786 06f8 49030000 		.4byte	0x349
 1787 06fc 05       		.uleb128 0x5
 1788 06fd DF060000 		.4byte	0x6df
 1789 0701 15       		.uleb128 0x15
 1790 0702 8F040000 		.4byte	0x48f
 1791 0706 11070000 		.4byte	0x711
 1792 070a 16       		.uleb128 0x16
 1793 070b 7D040000 		.4byte	0x47d
 1794 070f 3A       		.byte	0x3a
 1795 0710 00       		.byte	0
 1796 0711 04       		.uleb128 0x4
 1797 0712 C2020000 		.4byte	.LASF106
 1798 0716 0C       		.byte	0xc
 1799 0717 34       		.byte	0x34
 1800 0718 A8060000 		.4byte	0x6a8
 1801 071c 0A       		.uleb128 0xa
 1802 071d 04       		.byte	0x4
 1803 071e 11070000 		.4byte	0x711
 1804 0722 0A       		.uleb128 0xa
 1805 0723 04       		.byte	0x4
 1806 0724 B0000000 		.4byte	0xb0
 1807 0728 06       		.uleb128 0x6
 1808 0729 0F050000 		.4byte	.LASF107
 1809 072d 10       		.byte	0x10
 1810 072e 0D       		.byte	0xd
 1811 072f 40       		.byte	0x40
 1812 0730 65070000 		.4byte	0x765
 1813 0734 07       		.uleb128 0x7
 1814 0735 BD030000 		.4byte	.LASF108
 1815 0739 0D       		.byte	0xd
 1816 073a 41       		.byte	0x41
 1817 073b 89070000 		.4byte	0x789
 1818 073f 00       		.byte	0
 1819 0740 07       		.uleb128 0x7
 1820 0741 73060000 		.4byte	.LASF109
 1821 0745 0D       		.byte	0xd
ARM GAS  /tmp/ccU3pGdw.s 			page 33


 1822 0746 41       		.byte	0x41
 1823 0747 A8070000 		.4byte	0x7a8
 1824 074b 04       		.byte	0x4
 1825 074c 10       		.uleb128 0x10
 1826 074d 70757400 		.ascii	"put\000"
 1827 0751 0D       		.byte	0xd
 1828 0752 41       		.byte	0x41
 1829 0753 C2070000 		.4byte	0x7c2
 1830 0757 08       		.byte	0x8
 1831 0758 10       		.uleb128 0x10
 1832 0759 67657400 		.ascii	"get\000"
 1833 075d 0D       		.byte	0xd
 1834 075e 41       		.byte	0x41
 1835 075f D7070000 		.4byte	0x7d7
 1836 0763 0C       		.byte	0xc
 1837 0764 00       		.byte	0
 1838 0765 17       		.uleb128 0x17
 1839 0766 3A000000 		.4byte	0x3a
 1840 076a 7E070000 		.4byte	0x77e
 1841 076e 0D       		.uleb128 0xd
 1842 076f 47030000 		.4byte	0x347
 1843 0773 0D       		.uleb128 0xd
 1844 0774 7E070000 		.4byte	0x77e
 1845 0778 0D       		.uleb128 0xd
 1846 0779 3A000000 		.4byte	0x3a
 1847 077d 00       		.byte	0
 1848 077e 0A       		.uleb128 0xa
 1849 077f 04       		.byte	0x4
 1850 0780 84070000 		.4byte	0x784
 1851 0784 14       		.uleb128 0x14
 1852 0785 B0000000 		.4byte	0xb0
 1853 0789 0A       		.uleb128 0xa
 1854 078a 04       		.byte	0x4
 1855 078b 65070000 		.4byte	0x765
 1856 078f 17       		.uleb128 0x17
 1857 0790 3A000000 		.4byte	0x3a
 1858 0794 A8070000 		.4byte	0x7a8
 1859 0798 0D       		.uleb128 0xd
 1860 0799 47030000 		.4byte	0x347
 1861 079d 0D       		.uleb128 0xd
 1862 079e 22070000 		.4byte	0x722
 1863 07a2 0D       		.uleb128 0xd
 1864 07a3 3A000000 		.4byte	0x3a
 1865 07a7 00       		.byte	0
 1866 07a8 0A       		.uleb128 0xa
 1867 07a9 04       		.byte	0x4
 1868 07aa 8F070000 		.4byte	0x78f
 1869 07ae 17       		.uleb128 0x17
 1870 07af 23010000 		.4byte	0x123
 1871 07b3 C2070000 		.4byte	0x7c2
 1872 07b7 0D       		.uleb128 0xd
 1873 07b8 47030000 		.4byte	0x347
 1874 07bc 0D       		.uleb128 0xd
 1875 07bd B0000000 		.4byte	0xb0
 1876 07c1 00       		.byte	0
 1877 07c2 0A       		.uleb128 0xa
 1878 07c3 04       		.byte	0x4
ARM GAS  /tmp/ccU3pGdw.s 			page 34


 1879 07c4 AE070000 		.4byte	0x7ae
 1880 07c8 17       		.uleb128 0x17
 1881 07c9 23010000 		.4byte	0x123
 1882 07cd D7070000 		.4byte	0x7d7
 1883 07d1 0D       		.uleb128 0xd
 1884 07d2 47030000 		.4byte	0x347
 1885 07d6 00       		.byte	0
 1886 07d7 0A       		.uleb128 0xa
 1887 07d8 04       		.byte	0x4
 1888 07d9 C8070000 		.4byte	0x7c8
 1889 07dd 11       		.uleb128 0x11
 1890 07de 04       		.byte	0x4
 1891 07df 0D       		.byte	0xd
 1892 07e0 49       		.byte	0x49
 1893 07e1 F2070000 		.4byte	0x7f2
 1894 07e5 10       		.uleb128 0x10
 1895 07e6 766D7400 		.ascii	"vmt\000"
 1896 07ea 0D       		.byte	0xd
 1897 07eb 4B       		.byte	0x4b
 1898 07ec F2070000 		.4byte	0x7f2
 1899 07f0 00       		.byte	0
 1900 07f1 00       		.byte	0
 1901 07f2 0A       		.uleb128 0xa
 1902 07f3 04       		.byte	0x4
 1903 07f4 F8070000 		.4byte	0x7f8
 1904 07f8 14       		.uleb128 0x14
 1905 07f9 28070000 		.4byte	0x728
 1906 07fd 04       		.uleb128 0x4
 1907 07fe CA020000 		.4byte	.LASF110
 1908 0802 0D       		.byte	0xd
 1909 0803 4D       		.byte	0x4d
 1910 0804 DD070000 		.4byte	0x7dd
 1911 0808 02       		.uleb128 0x2
 1912 0809 01       		.byte	0x1
 1913 080a 02       		.byte	0x2
 1914 080b AA040000 		.4byte	.LASF111
 1915 080f 04       		.uleb128 0x4
 1916 0810 02040000 		.4byte	.LASF112
 1917 0814 0E       		.byte	0xe
 1918 0815 28       		.byte	0x28
 1919 0816 1A080000 		.4byte	0x81a
 1920 081a 06       		.uleb128 0x6
 1921 081b 4E010000 		.4byte	.LASF113
 1922 081f 04       		.byte	0x4
 1923 0820 0F       		.byte	0xf
 1924 0821 00       		.byte	0
 1925 0822 31080000 		.4byte	0x831
 1926 0826 18       		.uleb128 0x18
 1927 0827 F8050000 		.4byte	.LASF114
 1928 082b 47030000 		.4byte	0x347
 1929 082f 00       		.byte	0
 1930 0830 00       		.byte	0
 1931 0831 04       		.uleb128 0x4
 1932 0832 33000000 		.4byte	.LASF115
 1933 0836 0E       		.byte	0xe
 1934 0837 62       		.byte	0x62
 1935 0838 0F080000 		.4byte	0x80f
ARM GAS  /tmp/ccU3pGdw.s 			page 35


 1936 083c 06       		.uleb128 0x6
 1937 083d 49040000 		.4byte	.LASF116
 1938 0841 10       		.byte	0x10
 1939 0842 10       		.byte	0x10
 1940 0843 3D       		.byte	0x3d
 1941 0844 79080000 		.4byte	0x879
 1942 0848 07       		.uleb128 0x7
 1943 0849 BD030000 		.4byte	.LASF108
 1944 084d 10       		.byte	0x10
 1945 084e 3E       		.byte	0x3e
 1946 084f 89070000 		.4byte	0x789
 1947 0853 00       		.byte	0
 1948 0854 07       		.uleb128 0x7
 1949 0855 73060000 		.4byte	.LASF109
 1950 0859 10       		.byte	0x10
 1951 085a 3E       		.byte	0x3e
 1952 085b A8070000 		.4byte	0x7a8
 1953 085f 04       		.byte	0x4
 1954 0860 10       		.uleb128 0x10
 1955 0861 70757400 		.ascii	"put\000"
 1956 0865 10       		.byte	0x10
 1957 0866 3E       		.byte	0x3e
 1958 0867 C2070000 		.4byte	0x7c2
 1959 086b 08       		.byte	0x8
 1960 086c 10       		.uleb128 0x10
 1961 086d 67657400 		.ascii	"get\000"
 1962 0871 10       		.byte	0x10
 1963 0872 3E       		.byte	0x3e
 1964 0873 D7070000 		.4byte	0x7d7
 1965 0877 0C       		.byte	0xc
 1966 0878 00       		.byte	0
 1967 0879 11       		.uleb128 0x11
 1968 087a 14       		.byte	0x14
 1969 087b 10       		.byte	0x10
 1970 087c 46       		.byte	0x46
 1971 087d BE080000 		.4byte	0x8be
 1972 0881 10       		.uleb128 0x10
 1973 0882 766D7400 		.ascii	"vmt\000"
 1974 0886 10       		.byte	0x10
 1975 0887 48       		.byte	0x48
 1976 0888 BE080000 		.4byte	0x8be
 1977 088c 00       		.byte	0
 1978 088d 07       		.uleb128 0x7
 1979 088e D5050000 		.4byte	.LASF117
 1980 0892 10       		.byte	0x10
 1981 0893 49       		.byte	0x49
 1982 0894 22070000 		.4byte	0x722
 1983 0898 04       		.byte	0x4
 1984 0899 07       		.uleb128 0x7
 1985 089a 0F010000 		.4byte	.LASF118
 1986 089e 10       		.byte	0x10
 1987 089f 49       		.byte	0x49
 1988 08a0 3A000000 		.4byte	0x3a
 1989 08a4 08       		.byte	0x8
 1990 08a5 10       		.uleb128 0x10
 1991 08a6 656F7300 		.ascii	"eos\000"
 1992 08aa 10       		.byte	0x10
ARM GAS  /tmp/ccU3pGdw.s 			page 36


 1993 08ab 49       		.byte	0x49
 1994 08ac 3A000000 		.4byte	0x3a
 1995 08b0 0C       		.byte	0xc
 1996 08b1 07       		.uleb128 0x7
 1997 08b2 F1050000 		.4byte	.LASF89
 1998 08b6 10       		.byte	0x10
 1999 08b7 49       		.byte	0x49
 2000 08b8 3A000000 		.4byte	0x3a
 2001 08bc 10       		.byte	0x10
 2002 08bd 00       		.byte	0
 2003 08be 0A       		.uleb128 0xa
 2004 08bf 04       		.byte	0x4
 2005 08c0 C4080000 		.4byte	0x8c4
 2006 08c4 14       		.uleb128 0x14
 2007 08c5 3C080000 		.4byte	0x83c
 2008 08c9 04       		.uleb128 0x4
 2009 08ca 86040000 		.4byte	.LASF119
 2010 08ce 10       		.byte	0x10
 2011 08cf 4A       		.byte	0x4a
 2012 08d0 79080000 		.4byte	0x879
 2013 08d4 19       		.uleb128 0x19
 2014 08d5 37060000 		.4byte	.LASF122
 2015 08d9 01       		.byte	0x1
 2016 08da 46       		.byte	0x46
 2017 08db 04090000 		.4byte	0x904
 2018 08df 01       		.byte	0x1
 2019 08e0 04090000 		.4byte	0x904
 2020 08e4 1A       		.uleb128 0x1a
 2021 08e5 7000     		.ascii	"p\000"
 2022 08e7 01       		.byte	0x1
 2023 08e8 46       		.byte	0x46
 2024 08e9 04090000 		.4byte	0x904
 2025 08ed 1A       		.uleb128 0x1a
 2026 08ee 6E756D00 		.ascii	"num\000"
 2027 08f2 01       		.byte	0x1
 2028 08f3 46       		.byte	0x46
 2029 08f4 7E000000 		.4byte	0x7e
 2030 08f8 1B       		.uleb128 0x1b
 2031 08f9 2D050000 		.4byte	.LASF120
 2032 08fd 01       		.byte	0x1
 2033 08fe 46       		.byte	0x46
 2034 08ff 45000000 		.4byte	0x45
 2035 0903 00       		.byte	0
 2036 0904 0A       		.uleb128 0xa
 2037 0905 04       		.byte	0x4
 2038 0906 EA060000 		.4byte	0x6ea
 2039 090a 1C       		.uleb128 0x1c
 2040 090b 78060000 		.4byte	.LASF139
 2041 090f 01       		.byte	0x1
 2042 0910 25       		.byte	0x25
 2043 0911 04090000 		.4byte	0x904
 2044 0915 00000000 		.4byte	.LFB257
 2045 0919 4E000000 		.4byte	.LFE257-.LFB257
 2046 091d 01       		.uleb128 0x1
 2047 091e 9C       		.byte	0x9c
 2048 091f 93090000 		.4byte	0x993
 2049 0923 1D       		.uleb128 0x1d
ARM GAS  /tmp/ccU3pGdw.s 			page 37


 2050 0924 7000     		.ascii	"p\000"
 2051 0926 01       		.byte	0x1
 2052 0927 25       		.byte	0x25
 2053 0928 04090000 		.4byte	0x904
 2054 092c 00000000 		.4byte	.LLST0
 2055 0930 1D       		.uleb128 0x1d
 2056 0931 6E756D00 		.ascii	"num\000"
 2057 0935 01       		.byte	0x1
 2058 0936 26       		.byte	0x26
 2059 0937 7E000000 		.4byte	0x7e
 2060 093b 38000000 		.4byte	.LLST1
 2061 093f 1E       		.uleb128 0x1e
 2062 0940 2D050000 		.4byte	.LASF120
 2063 0944 01       		.byte	0x1
 2064 0945 27       		.byte	0x27
 2065 0946 45000000 		.4byte	0x45
 2066 094a 59000000 		.4byte	.LLST2
 2067 094e 1E       		.uleb128 0x1e
 2068 094f FA030000 		.4byte	.LASF121
 2069 0953 01       		.byte	0x1
 2070 0954 28       		.byte	0x28
 2071 0955 7E000000 		.4byte	0x7e
 2072 0959 7A000000 		.4byte	.LLST3
 2073 095d 1F       		.uleb128 0x1f
 2074 095e 6900     		.ascii	"i\000"
 2075 0960 01       		.byte	0x1
 2076 0961 29       		.byte	0x29
 2077 0962 2C000000 		.4byte	0x2c
 2078 0966 9B000000 		.4byte	.LLST4
 2079 096a 1F       		.uleb128 0x1f
 2080 096b 7100     		.ascii	"q\000"
 2081 096d 01       		.byte	0x1
 2082 096e 2A       		.byte	0x2a
 2083 096f 04090000 		.4byte	0x904
 2084 0973 C9000000 		.4byte	.LLST5
 2085 0977 1F       		.uleb128 0x1f
 2086 0978 6C00     		.ascii	"l\000"
 2087 097a 01       		.byte	0x1
 2088 097b 2B       		.byte	0x2b
 2089 097c 7E000000 		.4byte	0x7e
 2090 0980 FF000000 		.4byte	.LLST6
 2091 0984 1F       		.uleb128 0x1f
 2092 0985 6C6C00   		.ascii	"ll\000"
 2093 0988 01       		.byte	0x1
 2094 0989 2B       		.byte	0x2b
 2095 098a 7E000000 		.4byte	0x7e
 2096 098e 1D010000 		.4byte	.LLST7
 2097 0992 00       		.byte	0
 2098 0993 19       		.uleb128 0x19
 2099 0994 42000000 		.4byte	.LASF123
 2100 0998 01       		.byte	0x1
 2101 0999 50       		.byte	0x50
 2102 099a 04090000 		.4byte	0x904
 2103 099e 01       		.byte	0x1
 2104 099f CC090000 		.4byte	0x9cc
 2105 09a3 1A       		.uleb128 0x1a
 2106 09a4 7000     		.ascii	"p\000"
ARM GAS  /tmp/ccU3pGdw.s 			page 38


 2107 09a6 01       		.byte	0x1
 2108 09a7 50       		.byte	0x50
 2109 09a8 04090000 		.4byte	0x904
 2110 09ac 1A       		.uleb128 0x1a
 2111 09ad 6E756D00 		.ascii	"num\000"
 2112 09b1 01       		.byte	0x1
 2113 09b2 50       		.byte	0x50
 2114 09b3 25000000 		.4byte	0x25
 2115 09b7 1B       		.uleb128 0x1b
 2116 09b8 A6050000 		.4byte	.LASF124
 2117 09bc 01       		.byte	0x1
 2118 09bd 50       		.byte	0x50
 2119 09be 90000000 		.4byte	0x90
 2120 09c2 20       		.uleb128 0x20
 2121 09c3 6C00     		.ascii	"l\000"
 2122 09c5 01       		.byte	0x1
 2123 09c6 51       		.byte	0x51
 2124 09c7 7E000000 		.4byte	0x7e
 2125 09cb 00       		.byte	0
 2126 09cc 21       		.uleb128 0x21
 2127 09cd 4D060000 		.4byte	.LASF130
 2128 09d1 01       		.byte	0x1
 2129 09d2 79       		.byte	0x79
 2130 09d3 2C000000 		.4byte	0x2c
 2131 09d7 00000000 		.4byte	.LFB260
 2132 09db 94030000 		.4byte	.LFE260-.LFB260
 2133 09df 01       		.uleb128 0x1
 2134 09e0 9C       		.byte	0x9c
 2135 09e1 FE0B0000 		.4byte	0xbfe
 2136 09e5 1D       		.uleb128 0x1d
 2137 09e6 63687000 		.ascii	"chp\000"
 2138 09ea 01       		.byte	0x1
 2139 09eb 79       		.byte	0x79
 2140 09ec FE0B0000 		.4byte	0xbfe
 2141 09f0 3B010000 		.4byte	.LLST8
 2142 09f4 1D       		.uleb128 0x1d
 2143 09f5 666D7400 		.ascii	"fmt\000"
 2144 09f9 01       		.byte	0x1
 2145 09fa 79       		.byte	0x79
 2146 09fb DF060000 		.4byte	0x6df
 2147 09ff 59010000 		.4byte	.LLST9
 2148 0a03 1D       		.uleb128 0x1d
 2149 0a04 617000   		.ascii	"ap\000"
 2150 0a07 01       		.byte	0x1
 2151 0a08 79       		.byte	0x79
 2152 0a09 31080000 		.4byte	0x831
 2153 0a0d EB010000 		.4byte	.LLST10
 2154 0a11 1F       		.uleb128 0x1f
 2155 0a12 7000     		.ascii	"p\000"
 2156 0a14 01       		.byte	0x1
 2157 0a15 7A       		.byte	0x7a
 2158 0a16 04090000 		.4byte	0x904
 2159 0a1a 2C030000 		.4byte	.LLST11
 2160 0a1e 1F       		.uleb128 0x1f
 2161 0a1f 7300     		.ascii	"s\000"
 2162 0a21 01       		.byte	0x1
 2163 0a22 7A       		.byte	0x7a
ARM GAS  /tmp/ccU3pGdw.s 			page 39


 2164 0a23 04090000 		.4byte	0x904
 2165 0a27 D3030000 		.4byte	.LLST12
 2166 0a2b 1F       		.uleb128 0x1f
 2167 0a2c 6300     		.ascii	"c\000"
 2168 0a2e 01       		.byte	0x1
 2169 0a2f 7A       		.byte	0x7a
 2170 0a30 EA060000 		.4byte	0x6ea
 2171 0a34 65040000 		.4byte	.LLST13
 2172 0a38 22       		.uleb128 0x22
 2173 0a39 8C020000 		.4byte	.LASF125
 2174 0a3d 01       		.byte	0x1
 2175 0a3e 7A       		.byte	0x7a
 2176 0a3f EA060000 		.4byte	0x6ea
 2177 0a43 78050000 		.4byte	.LLST14
 2178 0a47 1F       		.uleb128 0x1f
 2179 0a48 6900     		.ascii	"i\000"
 2180 0a4a 01       		.byte	0x1
 2181 0a4b 7B       		.byte	0x7b
 2182 0a4c 2C000000 		.4byte	0x2c
 2183 0a50 ED050000 		.4byte	.LLST15
 2184 0a54 22       		.uleb128 0x22
 2185 0a55 A6050000 		.4byte	.LASF124
 2186 0a59 01       		.byte	0x1
 2187 0a5a 7B       		.byte	0x7b
 2188 0a5b 2C000000 		.4byte	0x2c
 2189 0a5f 32060000 		.4byte	.LLST16
 2190 0a63 22       		.uleb128 0x22
 2191 0a64 27050000 		.4byte	.LASF126
 2192 0a68 01       		.byte	0x1
 2193 0a69 7B       		.byte	0x7b
 2194 0a6a 2C000000 		.4byte	0x2c
 2195 0a6e 55060000 		.4byte	.LLST17
 2196 0a72 1F       		.uleb128 0x1f
 2197 0a73 6E00     		.ascii	"n\000"
 2198 0a75 01       		.byte	0x1
 2199 0a76 7C       		.byte	0x7c
 2200 0a77 2C000000 		.4byte	0x2c
 2201 0a7b E6060000 		.4byte	.LLST18
 2202 0a7f 22       		.uleb128 0x22
 2203 0a80 BA020000 		.4byte	.LASF127
 2204 0a84 01       		.byte	0x1
 2205 0a85 7D       		.byte	0x7d
 2206 0a86 08080000 		.4byte	0x808
 2207 0a8a 26070000 		.4byte	.LLST19
 2208 0a8e 22       		.uleb128 0x22
 2209 0a8f 28030000 		.4byte	.LASF128
 2210 0a93 01       		.byte	0x1
 2211 0a94 7D       		.byte	0x7d
 2212 0a95 08080000 		.4byte	0x808
 2213 0a99 3A070000 		.4byte	.LLST20
 2214 0a9d 1F       		.uleb128 0x1f
 2215 0a9e 6C00     		.ascii	"l\000"
 2216 0aa0 01       		.byte	0x1
 2217 0aa1 7E       		.byte	0x7e
 2218 0aa2 7E000000 		.4byte	0x7e
 2219 0aa6 9C070000 		.4byte	.LLST21
 2220 0aaa 1F       		.uleb128 0x1f
ARM GAS  /tmp/ccU3pGdw.s 			page 40


 2221 0aab 6600     		.ascii	"f\000"
 2222 0aad 01       		.byte	0x1
 2223 0aae 80       		.byte	0x80
 2224 0aaf 33000000 		.4byte	0x33
 2225 0ab3 C5070000 		.4byte	.LLST22
 2226 0ab7 23       		.uleb128 0x23
 2227 0ab8 14010000 		.4byte	.LASF129
 2228 0abc 01       		.byte	0x1
 2229 0abd 81       		.byte	0x81
 2230 0abe 040C0000 		.4byte	0xc04
 2231 0ac2 03       		.uleb128 0x3
 2232 0ac3 91       		.byte	0x91
 2233 0ac4 B87F     		.sleb128 -72
 2234 0ac6 24       		.uleb128 0x24
 2235 0ac7 EA030000 		.4byte	.LASF140
 2236 0acb 01       		.byte	0x1
 2237 0acc EF       		.byte	0xef
 2238 0acd 52010000 		.4byte	.L31
 2239 0ad1 25       		.uleb128 0x25
 2240 0ad2 D4080000 		.4byte	0x8d4
 2241 0ad6 54010000 		.4byte	.LBB12
 2242 0ada 00000000 		.4byte	.Ldebug_ranges0+0
 2243 0ade 01       		.byte	0x1
 2244 0adf F4       		.byte	0xf4
 2245 0ae0 090B0000 		.4byte	0xb09
 2246 0ae4 26       		.uleb128 0x26
 2247 0ae5 F8080000 		.4byte	0x8f8
 2248 0ae9 FB070000 		.4byte	.LLST23
 2249 0aed 26       		.uleb128 0x26
 2250 0aee ED080000 		.4byte	0x8ed
 2251 0af2 0E080000 		.4byte	.LLST24
 2252 0af6 26       		.uleb128 0x26
 2253 0af7 E4080000 		.4byte	0x8e4
 2254 0afb 21080000 		.4byte	.LLST25
 2255 0aff 27       		.uleb128 0x27
 2256 0b00 62010000 		.4byte	.LVL59
 2257 0b04 0A090000 		.4byte	0x90a
 2258 0b08 00       		.byte	0
 2259 0b09 25       		.uleb128 0x25
 2260 0b0a 93090000 		.4byte	0x993
 2261 0b0e 66020000 		.4byte	.LBB16
 2262 0b12 18000000 		.4byte	.Ldebug_ranges0+0x18
 2263 0b16 01       		.byte	0x1
 2264 0b17 E1       		.byte	0xe1
 2265 0b18 620B0000 		.4byte	0xb62
 2266 0b1c 26       		.uleb128 0x26
 2267 0b1d B7090000 		.4byte	0x9b7
 2268 0b21 36080000 		.4byte	.LLST26
 2269 0b25 26       		.uleb128 0x26
 2270 0b26 AC090000 		.4byte	0x9ac
 2271 0b2a 49080000 		.4byte	.LLST27
 2272 0b2e 26       		.uleb128 0x26
 2273 0b2f A3090000 		.4byte	0x9a3
 2274 0b33 61080000 		.4byte	.LLST28
 2275 0b37 28       		.uleb128 0x28
 2276 0b38 18000000 		.4byte	.Ldebug_ranges0+0x18
 2277 0b3c 29       		.uleb128 0x29
ARM GAS  /tmp/ccU3pGdw.s 			page 41


 2278 0b3d C2090000 		.4byte	0x9c2
 2279 0b41 8C080000 		.4byte	.LLST29
 2280 0b45 2A       		.uleb128 0x2a
 2281 0b46 90020000 		.4byte	.LVL93
 2282 0b4a 0A090000 		.4byte	0x90a
 2283 0b4e 2B       		.uleb128 0x2b
 2284 0b4f 01       		.uleb128 0x1
 2285 0b50 53       		.byte	0x53
 2286 0b51 01       		.uleb128 0x1
 2287 0b52 30       		.byte	0x30
 2288 0b53 2B       		.uleb128 0x2b
 2289 0b54 01       		.uleb128 0x1
 2290 0b55 52       		.byte	0x52
 2291 0b56 01       		.uleb128 0x1
 2292 0b57 3A       		.byte	0x3a
 2293 0b58 2B       		.uleb128 0x2b
 2294 0b59 01       		.uleb128 0x1
 2295 0b5a 51       		.byte	0x51
 2296 0b5b 03       		.uleb128 0x3
 2297 0b5c 92       		.byte	0x92
 2298 0b5d 51       		.uleb128 0x51
 2299 0b5e 00       		.sleb128 0
 2300 0b5f 00       		.byte	0
 2301 0b60 00       		.byte	0
 2302 0b61 00       		.byte	0
 2303 0b62 2C       		.uleb128 0x2c
 2304 0b63 D4080000 		.4byte	0x8d4
 2305 0b67 08030000 		.4byte	.LBB20
 2306 0b6b 0E000000 		.4byte	.LBE20-.LBB20
 2307 0b6f 01       		.byte	0x1
 2308 0b70 D8       		.byte	0xd8
 2309 0b71 A50B0000 		.4byte	0xba5
 2310 0b75 26       		.uleb128 0x26
 2311 0b76 F8080000 		.4byte	0x8f8
 2312 0b7a BD080000 		.4byte	.LLST30
 2313 0b7e 26       		.uleb128 0x26
 2314 0b7f ED080000 		.4byte	0x8ed
 2315 0b83 D1080000 		.4byte	.LLST31
 2316 0b87 26       		.uleb128 0x26
 2317 0b88 E4080000 		.4byte	0x8e4
 2318 0b8c E4080000 		.4byte	.LLST32
 2319 0b90 2A       		.uleb128 0x2a
 2320 0b91 14030000 		.4byte	.LVL110
 2321 0b95 0A090000 		.4byte	0x90a
 2322 0b99 2B       		.uleb128 0x2b
 2323 0b9a 01       		.uleb128 0x1
 2324 0b9b 53       		.byte	0x53
 2325 0b9c 01       		.uleb128 0x1
 2326 0b9d 30       		.byte	0x30
 2327 0b9e 2B       		.uleb128 0x2b
 2328 0b9f 01       		.uleb128 0x1
 2329 0ba0 52       		.byte	0x52
 2330 0ba1 01       		.uleb128 0x1
 2331 0ba2 3A       		.byte	0x3a
 2332 0ba3 00       		.byte	0
 2333 0ba4 00       		.byte	0
 2334 0ba5 2D       		.uleb128 0x2d
ARM GAS  /tmp/ccU3pGdw.s 			page 42


 2335 0ba6 38000000 		.4byte	.LVL26
 2336 0baa B50B0000 		.4byte	0xbb5
 2337 0bae 2B       		.uleb128 0x2b
 2338 0baf 01       		.uleb128 0x1
 2339 0bb0 50       		.byte	0x50
 2340 0bb1 02       		.uleb128 0x2
 2341 0bb2 76       		.byte	0x76
 2342 0bb3 00       		.sleb128 0
 2343 0bb4 00       		.byte	0
 2344 0bb5 2D       		.uleb128 0x2d
 2345 0bb6 A0010000 		.4byte	.LVL66
 2346 0bba CB0B0000 		.4byte	0xbcb
 2347 0bbe 2B       		.uleb128 0x2b
 2348 0bbf 01       		.uleb128 0x1
 2349 0bc0 51       		.byte	0x51
 2350 0bc1 02       		.uleb128 0x2
 2351 0bc2 75       		.byte	0x75
 2352 0bc3 00       		.sleb128 0
 2353 0bc4 2B       		.uleb128 0x2b
 2354 0bc5 01       		.uleb128 0x1
 2355 0bc6 50       		.byte	0x50
 2356 0bc7 02       		.uleb128 0x2
 2357 0bc8 76       		.byte	0x76
 2358 0bc9 00       		.sleb128 0
 2359 0bca 00       		.byte	0
 2360 0bcb 2D       		.uleb128 0x2d
 2361 0bcc C4010000 		.4byte	.LVL71
 2362 0bd0 DB0B0000 		.4byte	0xbdb
 2363 0bd4 2B       		.uleb128 0x2b
 2364 0bd5 01       		.uleb128 0x1
 2365 0bd6 50       		.byte	0x50
 2366 0bd7 02       		.uleb128 0x2
 2367 0bd8 76       		.byte	0x76
 2368 0bd9 00       		.sleb128 0
 2369 0bda 00       		.byte	0
 2370 0bdb 2D       		.uleb128 0x2d
 2371 0bdc E4010000 		.4byte	.LVL74
 2372 0be0 F10B0000 		.4byte	0xbf1
 2373 0be4 2B       		.uleb128 0x2b
 2374 0be5 01       		.uleb128 0x1
 2375 0be6 51       		.byte	0x51
 2376 0be7 02       		.uleb128 0x2
 2377 0be8 75       		.byte	0x75
 2378 0be9 00       		.sleb128 0
 2379 0bea 2B       		.uleb128 0x2b
 2380 0beb 01       		.uleb128 0x1
 2381 0bec 50       		.byte	0x50
 2382 0bed 02       		.uleb128 0x2
 2383 0bee 76       		.byte	0x76
 2384 0bef 00       		.sleb128 0
 2385 0bf0 00       		.byte	0
 2386 0bf1 2E       		.uleb128 0x2e
 2387 0bf2 44030000 		.4byte	.LVL116
 2388 0bf6 2B       		.uleb128 0x2b
 2389 0bf7 01       		.uleb128 0x1
 2390 0bf8 50       		.byte	0x50
 2391 0bf9 02       		.uleb128 0x2
ARM GAS  /tmp/ccU3pGdw.s 			page 43


 2392 0bfa 76       		.byte	0x76
 2393 0bfb 00       		.sleb128 0
 2394 0bfc 00       		.byte	0
 2395 0bfd 00       		.byte	0
 2396 0bfe 0A       		.uleb128 0xa
 2397 0bff 04       		.byte	0x4
 2398 0c00 FD070000 		.4byte	0x7fd
 2399 0c04 15       		.uleb128 0x15
 2400 0c05 EA060000 		.4byte	0x6ea
 2401 0c09 140C0000 		.4byte	0xc14
 2402 0c0d 16       		.uleb128 0x16
 2403 0c0e 7D040000 		.4byte	0x47d
 2404 0c12 16       		.byte	0x16
 2405 0c13 00       		.byte	0
 2406 0c14 2F       		.uleb128 0x2f
 2407 0c15 96050000 		.4byte	.LASF131
 2408 0c19 01       		.byte	0x1
 2409 0c1a 3301     		.2byte	0x133
 2410 0c1c 2C000000 		.4byte	0x2c
 2411 0c20 00000000 		.4byte	.LFB261
 2412 0c24 60000000 		.4byte	.LFE261-.LFB261
 2413 0c28 01       		.uleb128 0x1
 2414 0c29 9C       		.byte	0x9c
 2415 0c2a 320D0000 		.4byte	0xd32
 2416 0c2e 30       		.uleb128 0x30
 2417 0c2f 73747200 		.ascii	"str\000"
 2418 0c33 01       		.byte	0x1
 2419 0c34 3301     		.2byte	0x133
 2420 0c36 04090000 		.4byte	0x904
 2421 0c3a F7080000 		.4byte	.LLST33
 2422 0c3e 31       		.uleb128 0x31
 2423 0c3f 0F010000 		.4byte	.LASF118
 2424 0c43 01       		.byte	0x1
 2425 0c44 3301     		.2byte	0x133
 2426 0c46 3A000000 		.4byte	0x3a
 2427 0c4a 47090000 		.4byte	.LLST34
 2428 0c4e 32       		.uleb128 0x32
 2429 0c4f 666D7400 		.ascii	"fmt\000"
 2430 0c53 01       		.byte	0x1
 2431 0c54 3301     		.2byte	0x133
 2432 0c56 DF060000 		.4byte	0x6df
 2433 0c5a 02       		.uleb128 0x2
 2434 0c5b 91       		.byte	0x91
 2435 0c5c 78       		.sleb128 -8
 2436 0c5d 33       		.uleb128 0x33
 2437 0c5e 34       		.uleb128 0x34
 2438 0c5f 617000   		.ascii	"ap\000"
 2439 0c62 01       		.byte	0x1
 2440 0c63 3401     		.2byte	0x134
 2441 0c65 31080000 		.4byte	0x831
 2442 0c69 02       		.uleb128 0x2
 2443 0c6a 91       		.byte	0x91
 2444 0c6b 50       		.sleb128 -48
 2445 0c6c 34       		.uleb128 0x34
 2446 0c6d 6D7300   		.ascii	"ms\000"
 2447 0c70 01       		.byte	0x1
 2448 0c71 3501     		.2byte	0x135
ARM GAS  /tmp/ccU3pGdw.s 			page 44


 2449 0c73 C9080000 		.4byte	0x8c9
 2450 0c77 02       		.uleb128 0x2
 2451 0c78 91       		.byte	0x91
 2452 0c79 54       		.sleb128 -44
 2453 0c7a 35       		.uleb128 0x35
 2454 0c7b 63687000 		.ascii	"chp\000"
 2455 0c7f 01       		.byte	0x1
 2456 0c80 3601     		.2byte	0x136
 2457 0c82 FE0B0000 		.4byte	0xbfe
 2458 0c86 97090000 		.4byte	.LLST35
 2459 0c8a 36       		.uleb128 0x36
 2460 0c8b BF000000 		.4byte	.LASF132
 2461 0c8f 01       		.byte	0x1
 2462 0c90 3701     		.2byte	0x137
 2463 0c92 3A000000 		.4byte	0x3a
 2464 0c96 E9090000 		.4byte	.LLST36
 2465 0c9a 36       		.uleb128 0x36
 2466 0c9b 47000000 		.4byte	.LASF133
 2467 0c9f 01       		.byte	0x1
 2468 0ca0 3801     		.2byte	0x138
 2469 0ca2 2C000000 		.4byte	0x2c
 2470 0ca6 3F0A0000 		.4byte	.LLST37
 2471 0caa 37       		.uleb128 0x37
 2472 0cab 1A000000 		.4byte	.LVL131
 2473 0caf 6F0D0000 		.4byte	0xd6f
 2474 0cb3 CF0C0000 		.4byte	0xccf
 2475 0cb7 2B       		.uleb128 0x2b
 2476 0cb8 01       		.uleb128 0x1
 2477 0cb9 53       		.byte	0x53
 2478 0cba 01       		.uleb128 0x1
 2479 0cbb 30       		.byte	0x30
 2480 0cbc 2B       		.uleb128 0x2b
 2481 0cbd 01       		.uleb128 0x1
 2482 0cbe 52       		.byte	0x52
 2483 0cbf 02       		.uleb128 0x2
 2484 0cc0 74       		.byte	0x74
 2485 0cc1 7F       		.sleb128 -1
 2486 0cc2 2B       		.uleb128 0x2b
 2487 0cc3 01       		.uleb128 0x1
 2488 0cc4 51       		.byte	0x51
 2489 0cc5 02       		.uleb128 0x2
 2490 0cc6 75       		.byte	0x75
 2491 0cc7 00       		.sleb128 0
 2492 0cc8 2B       		.uleb128 0x2b
 2493 0cc9 01       		.uleb128 0x1
 2494 0cca 50       		.byte	0x50
 2495 0ccb 02       		.uleb128 0x2
 2496 0ccc 91       		.byte	0x91
 2497 0ccd 44       		.sleb128 -60
 2498 0cce 00       		.byte	0
 2499 0ccf 37       		.uleb128 0x37
 2500 0cd0 28000000 		.4byte	.LVL133
 2501 0cd4 CC090000 		.4byte	0x9cc
 2502 0cd8 EF0C0000 		.4byte	0xcef
 2503 0cdc 2B       		.uleb128 0x2b
 2504 0cdd 01       		.uleb128 0x1
 2505 0cde 52       		.byte	0x52
ARM GAS  /tmp/ccU3pGdw.s 			page 45


 2506 0cdf 02       		.uleb128 0x2
 2507 0ce0 91       		.byte	0x91
 2508 0ce1 6C       		.sleb128 -20
 2509 0ce2 2B       		.uleb128 0x2b
 2510 0ce3 01       		.uleb128 0x1
 2511 0ce4 51       		.byte	0x51
 2512 0ce5 02       		.uleb128 0x2
 2513 0ce6 76       		.byte	0x76
 2514 0ce7 00       		.sleb128 0
 2515 0ce8 2B       		.uleb128 0x2b
 2516 0ce9 01       		.uleb128 0x1
 2517 0cea 50       		.byte	0x50
 2518 0ceb 02       		.uleb128 0x2
 2519 0cec 91       		.byte	0x91
 2520 0ced 44       		.sleb128 -60
 2521 0cee 00       		.byte	0
 2522 0cef 37       		.uleb128 0x37
 2523 0cf0 48000000 		.4byte	.LVL138
 2524 0cf4 6F0D0000 		.4byte	0xd6f
 2525 0cf8 150D0000 		.4byte	0xd15
 2526 0cfc 2B       		.uleb128 0x2b
 2527 0cfd 01       		.uleb128 0x1
 2528 0cfe 53       		.byte	0x53
 2529 0cff 02       		.uleb128 0x2
 2530 0d00 74       		.byte	0x74
 2531 0d01 00       		.sleb128 0
 2532 0d02 2B       		.uleb128 0x2b
 2533 0d03 01       		.uleb128 0x1
 2534 0d04 52       		.byte	0x52
 2535 0d05 02       		.uleb128 0x2
 2536 0d06 74       		.byte	0x74
 2537 0d07 00       		.sleb128 0
 2538 0d08 2B       		.uleb128 0x2b
 2539 0d09 01       		.uleb128 0x1
 2540 0d0a 51       		.byte	0x51
 2541 0d0b 02       		.uleb128 0x2
 2542 0d0c 75       		.byte	0x75
 2543 0d0d 00       		.sleb128 0
 2544 0d0e 2B       		.uleb128 0x2b
 2545 0d0f 01       		.uleb128 0x1
 2546 0d10 50       		.byte	0x50
 2547 0d11 02       		.uleb128 0x2
 2548 0d12 91       		.byte	0x91
 2549 0d13 44       		.sleb128 -60
 2550 0d14 00       		.byte	0
 2551 0d15 2A       		.uleb128 0x2a
 2552 0d16 56000000 		.4byte	.LVL140
 2553 0d1a CC090000 		.4byte	0x9cc
 2554 0d1e 2B       		.uleb128 0x2b
 2555 0d1f 01       		.uleb128 0x1
 2556 0d20 52       		.byte	0x52
 2557 0d21 02       		.uleb128 0x2
 2558 0d22 91       		.byte	0x91
 2559 0d23 6C       		.sleb128 -20
 2560 0d24 2B       		.uleb128 0x2b
 2561 0d25 01       		.uleb128 0x1
 2562 0d26 51       		.byte	0x51
ARM GAS  /tmp/ccU3pGdw.s 			page 46


 2563 0d27 02       		.uleb128 0x2
 2564 0d28 76       		.byte	0x76
 2565 0d29 00       		.sleb128 0
 2566 0d2a 2B       		.uleb128 0x2b
 2567 0d2b 01       		.uleb128 0x1
 2568 0d2c 50       		.byte	0x50
 2569 0d2d 02       		.uleb128 0x2
 2570 0d2e 91       		.byte	0x91
 2571 0d2f 44       		.sleb128 -60
 2572 0d30 00       		.byte	0
 2573 0d31 00       		.byte	0
 2574 0d32 15       		.uleb128 0x15
 2575 0d33 7E000000 		.4byte	0x7e
 2576 0d37 420D0000 		.4byte	0xd42
 2577 0d3b 16       		.uleb128 0x16
 2578 0d3c 7D040000 		.4byte	0x47d
 2579 0d40 08       		.byte	0x8
 2580 0d41 00       		.byte	0
 2581 0d42 23       		.uleb128 0x23
 2582 0d43 CE040000 		.4byte	.LASF134
 2583 0d47 01       		.byte	0x1
 2584 0d48 4C       		.byte	0x4c
 2585 0d49 530D0000 		.4byte	0xd53
 2586 0d4d 05       		.uleb128 0x5
 2587 0d4e 03       		.byte	0x3
 2588 0d4f 00000000 		.4byte	pow10
 2589 0d53 14       		.uleb128 0x14
 2590 0d54 320D0000 		.4byte	0xd32
 2591 0d58 38       		.uleb128 0x38
 2592 0d59 B2000000 		.4byte	.LASF135
 2593 0d5d 11       		.byte	0x11
 2594 0d5e A706     		.2byte	0x6a7
 2595 0d60 DC000000 		.4byte	0xdc
 2596 0d64 39       		.uleb128 0x39
 2597 0d65 636800   		.ascii	"ch\000"
 2598 0d68 07       		.byte	0x7
 2599 0d69 0902     		.2byte	0x209
 2600 0d6b 16040000 		.4byte	0x416
 2601 0d6f 3A       		.uleb128 0x3a
 2602 0d70 B0030000 		.4byte	.LASF141
 2603 0d74 10       		.byte	0x10
 2604 0d75 57       		.byte	0x57
 2605 0d76 8F0D0000 		.4byte	0xd8f
 2606 0d7a 0D       		.uleb128 0xd
 2607 0d7b 8F0D0000 		.4byte	0xd8f
 2608 0d7f 0D       		.uleb128 0xd
 2609 0d80 22070000 		.4byte	0x722
 2610 0d84 0D       		.uleb128 0xd
 2611 0d85 3A000000 		.4byte	0x3a
 2612 0d89 0D       		.uleb128 0xd
 2613 0d8a 3A000000 		.4byte	0x3a
 2614 0d8e 00       		.byte	0
 2615 0d8f 0A       		.uleb128 0xa
 2616 0d90 04       		.byte	0x4
 2617 0d91 C9080000 		.4byte	0x8c9
 2618 0d95 00       		.byte	0
 2619              		.section	.debug_abbrev,"",%progbits
ARM GAS  /tmp/ccU3pGdw.s 			page 47


 2620              	.Ldebug_abbrev0:
 2621 0000 01       		.uleb128 0x1
 2622 0001 11       		.uleb128 0x11
 2623 0002 01       		.byte	0x1
 2624 0003 25       		.uleb128 0x25
 2625 0004 0E       		.uleb128 0xe
 2626 0005 13       		.uleb128 0x13
 2627 0006 0B       		.uleb128 0xb
 2628 0007 03       		.uleb128 0x3
 2629 0008 0E       		.uleb128 0xe
 2630 0009 1B       		.uleb128 0x1b
 2631 000a 0E       		.uleb128 0xe
 2632 000b 55       		.uleb128 0x55
 2633 000c 17       		.uleb128 0x17
 2634 000d 11       		.uleb128 0x11
 2635 000e 01       		.uleb128 0x1
 2636 000f 10       		.uleb128 0x10
 2637 0010 17       		.uleb128 0x17
 2638 0011 00       		.byte	0
 2639 0012 00       		.byte	0
 2640 0013 02       		.uleb128 0x2
 2641 0014 24       		.uleb128 0x24
 2642 0015 00       		.byte	0
 2643 0016 0B       		.uleb128 0xb
 2644 0017 0B       		.uleb128 0xb
 2645 0018 3E       		.uleb128 0x3e
 2646 0019 0B       		.uleb128 0xb
 2647 001a 03       		.uleb128 0x3
 2648 001b 0E       		.uleb128 0xe
 2649 001c 00       		.byte	0
 2650 001d 00       		.byte	0
 2651 001e 03       		.uleb128 0x3
 2652 001f 24       		.uleb128 0x24
 2653 0020 00       		.byte	0
 2654 0021 0B       		.uleb128 0xb
 2655 0022 0B       		.uleb128 0xb
 2656 0023 3E       		.uleb128 0x3e
 2657 0024 0B       		.uleb128 0xb
 2658 0025 03       		.uleb128 0x3
 2659 0026 08       		.uleb128 0x8
 2660 0027 00       		.byte	0
 2661 0028 00       		.byte	0
 2662 0029 04       		.uleb128 0x4
 2663 002a 16       		.uleb128 0x16
 2664 002b 00       		.byte	0
 2665 002c 03       		.uleb128 0x3
 2666 002d 0E       		.uleb128 0xe
 2667 002e 3A       		.uleb128 0x3a
 2668 002f 0B       		.uleb128 0xb
 2669 0030 3B       		.uleb128 0x3b
 2670 0031 0B       		.uleb128 0xb
 2671 0032 49       		.uleb128 0x49
 2672 0033 13       		.uleb128 0x13
 2673 0034 00       		.byte	0
 2674 0035 00       		.byte	0
 2675 0036 05       		.uleb128 0x5
 2676 0037 35       		.uleb128 0x35
ARM GAS  /tmp/ccU3pGdw.s 			page 48


 2677 0038 00       		.byte	0
 2678 0039 49       		.uleb128 0x49
 2679 003a 13       		.uleb128 0x13
 2680 003b 00       		.byte	0
 2681 003c 00       		.byte	0
 2682 003d 06       		.uleb128 0x6
 2683 003e 13       		.uleb128 0x13
 2684 003f 01       		.byte	0x1
 2685 0040 03       		.uleb128 0x3
 2686 0041 0E       		.uleb128 0xe
 2687 0042 0B       		.uleb128 0xb
 2688 0043 0B       		.uleb128 0xb
 2689 0044 3A       		.uleb128 0x3a
 2690 0045 0B       		.uleb128 0xb
 2691 0046 3B       		.uleb128 0x3b
 2692 0047 0B       		.uleb128 0xb
 2693 0048 01       		.uleb128 0x1
 2694 0049 13       		.uleb128 0x13
 2695 004a 00       		.byte	0
 2696 004b 00       		.byte	0
 2697 004c 07       		.uleb128 0x7
 2698 004d 0D       		.uleb128 0xd
 2699 004e 00       		.byte	0
 2700 004f 03       		.uleb128 0x3
 2701 0050 0E       		.uleb128 0xe
 2702 0051 3A       		.uleb128 0x3a
 2703 0052 0B       		.uleb128 0xb
 2704 0053 3B       		.uleb128 0x3b
 2705 0054 0B       		.uleb128 0xb
 2706 0055 49       		.uleb128 0x49
 2707 0056 13       		.uleb128 0x13
 2708 0057 38       		.uleb128 0x38
 2709 0058 0B       		.uleb128 0xb
 2710 0059 00       		.byte	0
 2711 005a 00       		.byte	0
 2712 005b 08       		.uleb128 0x8
 2713 005c 0D       		.uleb128 0xd
 2714 005d 00       		.byte	0
 2715 005e 03       		.uleb128 0x3
 2716 005f 08       		.uleb128 0x8
 2717 0060 3A       		.uleb128 0x3a
 2718 0061 0B       		.uleb128 0xb
 2719 0062 3B       		.uleb128 0x3b
 2720 0063 05       		.uleb128 0x5
 2721 0064 49       		.uleb128 0x49
 2722 0065 13       		.uleb128 0x13
 2723 0066 38       		.uleb128 0x38
 2724 0067 0B       		.uleb128 0xb
 2725 0068 00       		.byte	0
 2726 0069 00       		.byte	0
 2727 006a 09       		.uleb128 0x9
 2728 006b 0D       		.uleb128 0xd
 2729 006c 00       		.byte	0
 2730 006d 03       		.uleb128 0x3
 2731 006e 0E       		.uleb128 0xe
 2732 006f 3A       		.uleb128 0x3a
 2733 0070 0B       		.uleb128 0xb
ARM GAS  /tmp/ccU3pGdw.s 			page 49


 2734 0071 3B       		.uleb128 0x3b
 2735 0072 05       		.uleb128 0x5
 2736 0073 49       		.uleb128 0x49
 2737 0074 13       		.uleb128 0x13
 2738 0075 38       		.uleb128 0x38
 2739 0076 0B       		.uleb128 0xb
 2740 0077 00       		.byte	0
 2741 0078 00       		.byte	0
 2742 0079 0A       		.uleb128 0xa
 2743 007a 0F       		.uleb128 0xf
 2744 007b 00       		.byte	0
 2745 007c 0B       		.uleb128 0xb
 2746 007d 0B       		.uleb128 0xb
 2747 007e 49       		.uleb128 0x49
 2748 007f 13       		.uleb128 0x13
 2749 0080 00       		.byte	0
 2750 0081 00       		.byte	0
 2751 0082 0B       		.uleb128 0xb
 2752 0083 13       		.uleb128 0x13
 2753 0084 01       		.byte	0x1
 2754 0085 03       		.uleb128 0x3
 2755 0086 0E       		.uleb128 0xe
 2756 0087 0B       		.uleb128 0xb
 2757 0088 0B       		.uleb128 0xb
 2758 0089 3A       		.uleb128 0x3a
 2759 008a 0B       		.uleb128 0xb
 2760 008b 3B       		.uleb128 0x3b
 2761 008c 05       		.uleb128 0x5
 2762 008d 01       		.uleb128 0x1
 2763 008e 13       		.uleb128 0x13
 2764 008f 00       		.byte	0
 2765 0090 00       		.byte	0
 2766 0091 0C       		.uleb128 0xc
 2767 0092 15       		.uleb128 0x15
 2768 0093 01       		.byte	0x1
 2769 0094 27       		.uleb128 0x27
 2770 0095 19       		.uleb128 0x19
 2771 0096 01       		.uleb128 0x1
 2772 0097 13       		.uleb128 0x13
 2773 0098 00       		.byte	0
 2774 0099 00       		.byte	0
 2775 009a 0D       		.uleb128 0xd
 2776 009b 05       		.uleb128 0x5
 2777 009c 00       		.byte	0
 2778 009d 49       		.uleb128 0x49
 2779 009e 13       		.uleb128 0x13
 2780 009f 00       		.byte	0
 2781 00a0 00       		.byte	0
 2782 00a1 0E       		.uleb128 0xe
 2783 00a2 0F       		.uleb128 0xf
 2784 00a3 00       		.byte	0
 2785 00a4 0B       		.uleb128 0xb
 2786 00a5 0B       		.uleb128 0xb
 2787 00a6 00       		.byte	0
 2788 00a7 00       		.byte	0
 2789 00a8 0F       		.uleb128 0xf
 2790 00a9 13       		.uleb128 0x13
ARM GAS  /tmp/ccU3pGdw.s 			page 50


 2791 00aa 01       		.byte	0x1
 2792 00ab 03       		.uleb128 0x3
 2793 00ac 0E       		.uleb128 0xe
 2794 00ad 0B       		.uleb128 0xb
 2795 00ae 05       		.uleb128 0x5
 2796 00af 3A       		.uleb128 0x3a
 2797 00b0 0B       		.uleb128 0xb
 2798 00b1 3B       		.uleb128 0x3b
 2799 00b2 05       		.uleb128 0x5
 2800 00b3 01       		.uleb128 0x1
 2801 00b4 13       		.uleb128 0x13
 2802 00b5 00       		.byte	0
 2803 00b6 00       		.byte	0
 2804 00b7 10       		.uleb128 0x10
 2805 00b8 0D       		.uleb128 0xd
 2806 00b9 00       		.byte	0
 2807 00ba 03       		.uleb128 0x3
 2808 00bb 08       		.uleb128 0x8
 2809 00bc 3A       		.uleb128 0x3a
 2810 00bd 0B       		.uleb128 0xb
 2811 00be 3B       		.uleb128 0x3b
 2812 00bf 0B       		.uleb128 0xb
 2813 00c0 49       		.uleb128 0x49
 2814 00c1 13       		.uleb128 0x13
 2815 00c2 38       		.uleb128 0x38
 2816 00c3 0B       		.uleb128 0xb
 2817 00c4 00       		.byte	0
 2818 00c5 00       		.byte	0
 2819 00c6 11       		.uleb128 0x11
 2820 00c7 13       		.uleb128 0x13
 2821 00c8 01       		.byte	0x1
 2822 00c9 0B       		.uleb128 0xb
 2823 00ca 0B       		.uleb128 0xb
 2824 00cb 3A       		.uleb128 0x3a
 2825 00cc 0B       		.uleb128 0xb
 2826 00cd 3B       		.uleb128 0x3b
 2827 00ce 0B       		.uleb128 0xb
 2828 00cf 01       		.uleb128 0x1
 2829 00d0 13       		.uleb128 0x13
 2830 00d1 00       		.byte	0
 2831 00d2 00       		.byte	0
 2832 00d3 12       		.uleb128 0x12
 2833 00d4 17       		.uleb128 0x17
 2834 00d5 01       		.byte	0x1
 2835 00d6 0B       		.uleb128 0xb
 2836 00d7 0B       		.uleb128 0xb
 2837 00d8 3A       		.uleb128 0x3a
 2838 00d9 0B       		.uleb128 0xb
 2839 00da 3B       		.uleb128 0x3b
 2840 00db 0B       		.uleb128 0xb
 2841 00dc 01       		.uleb128 0x1
 2842 00dd 13       		.uleb128 0x13
 2843 00de 00       		.byte	0
 2844 00df 00       		.byte	0
 2845 00e0 13       		.uleb128 0x13
 2846 00e1 0D       		.uleb128 0xd
 2847 00e2 00       		.byte	0
ARM GAS  /tmp/ccU3pGdw.s 			page 51


 2848 00e3 03       		.uleb128 0x3
 2849 00e4 0E       		.uleb128 0xe
 2850 00e5 3A       		.uleb128 0x3a
 2851 00e6 0B       		.uleb128 0xb
 2852 00e7 3B       		.uleb128 0x3b
 2853 00e8 05       		.uleb128 0x5
 2854 00e9 49       		.uleb128 0x49
 2855 00ea 13       		.uleb128 0x13
 2856 00eb 00       		.byte	0
 2857 00ec 00       		.byte	0
 2858 00ed 14       		.uleb128 0x14
 2859 00ee 26       		.uleb128 0x26
 2860 00ef 00       		.byte	0
 2861 00f0 49       		.uleb128 0x49
 2862 00f1 13       		.uleb128 0x13
 2863 00f2 00       		.byte	0
 2864 00f3 00       		.byte	0
 2865 00f4 15       		.uleb128 0x15
 2866 00f5 01       		.uleb128 0x1
 2867 00f6 01       		.byte	0x1
 2868 00f7 49       		.uleb128 0x49
 2869 00f8 13       		.uleb128 0x13
 2870 00f9 01       		.uleb128 0x1
 2871 00fa 13       		.uleb128 0x13
 2872 00fb 00       		.byte	0
 2873 00fc 00       		.byte	0
 2874 00fd 16       		.uleb128 0x16
 2875 00fe 21       		.uleb128 0x21
 2876 00ff 00       		.byte	0
 2877 0100 49       		.uleb128 0x49
 2878 0101 13       		.uleb128 0x13
 2879 0102 2F       		.uleb128 0x2f
 2880 0103 0B       		.uleb128 0xb
 2881 0104 00       		.byte	0
 2882 0105 00       		.byte	0
 2883 0106 17       		.uleb128 0x17
 2884 0107 15       		.uleb128 0x15
 2885 0108 01       		.byte	0x1
 2886 0109 27       		.uleb128 0x27
 2887 010a 19       		.uleb128 0x19
 2888 010b 49       		.uleb128 0x49
 2889 010c 13       		.uleb128 0x13
 2890 010d 01       		.uleb128 0x1
 2891 010e 13       		.uleb128 0x13
 2892 010f 00       		.byte	0
 2893 0110 00       		.byte	0
 2894 0111 18       		.uleb128 0x18
 2895 0112 0D       		.uleb128 0xd
 2896 0113 00       		.byte	0
 2897 0114 03       		.uleb128 0x3
 2898 0115 0E       		.uleb128 0xe
 2899 0116 49       		.uleb128 0x49
 2900 0117 13       		.uleb128 0x13
 2901 0118 38       		.uleb128 0x38
 2902 0119 0B       		.uleb128 0xb
 2903 011a 34       		.uleb128 0x34
 2904 011b 19       		.uleb128 0x19
ARM GAS  /tmp/ccU3pGdw.s 			page 52


 2905 011c 00       		.byte	0
 2906 011d 00       		.byte	0
 2907 011e 19       		.uleb128 0x19
 2908 011f 2E       		.uleb128 0x2e
 2909 0120 01       		.byte	0x1
 2910 0121 03       		.uleb128 0x3
 2911 0122 0E       		.uleb128 0xe
 2912 0123 3A       		.uleb128 0x3a
 2913 0124 0B       		.uleb128 0xb
 2914 0125 3B       		.uleb128 0x3b
 2915 0126 0B       		.uleb128 0xb
 2916 0127 27       		.uleb128 0x27
 2917 0128 19       		.uleb128 0x19
 2918 0129 49       		.uleb128 0x49
 2919 012a 13       		.uleb128 0x13
 2920 012b 20       		.uleb128 0x20
 2921 012c 0B       		.uleb128 0xb
 2922 012d 01       		.uleb128 0x1
 2923 012e 13       		.uleb128 0x13
 2924 012f 00       		.byte	0
 2925 0130 00       		.byte	0
 2926 0131 1A       		.uleb128 0x1a
 2927 0132 05       		.uleb128 0x5
 2928 0133 00       		.byte	0
 2929 0134 03       		.uleb128 0x3
 2930 0135 08       		.uleb128 0x8
 2931 0136 3A       		.uleb128 0x3a
 2932 0137 0B       		.uleb128 0xb
 2933 0138 3B       		.uleb128 0x3b
 2934 0139 0B       		.uleb128 0xb
 2935 013a 49       		.uleb128 0x49
 2936 013b 13       		.uleb128 0x13
 2937 013c 00       		.byte	0
 2938 013d 00       		.byte	0
 2939 013e 1B       		.uleb128 0x1b
 2940 013f 05       		.uleb128 0x5
 2941 0140 00       		.byte	0
 2942 0141 03       		.uleb128 0x3
 2943 0142 0E       		.uleb128 0xe
 2944 0143 3A       		.uleb128 0x3a
 2945 0144 0B       		.uleb128 0xb
 2946 0145 3B       		.uleb128 0x3b
 2947 0146 0B       		.uleb128 0xb
 2948 0147 49       		.uleb128 0x49
 2949 0148 13       		.uleb128 0x13
 2950 0149 00       		.byte	0
 2951 014a 00       		.byte	0
 2952 014b 1C       		.uleb128 0x1c
 2953 014c 2E       		.uleb128 0x2e
 2954 014d 01       		.byte	0x1
 2955 014e 03       		.uleb128 0x3
 2956 014f 0E       		.uleb128 0xe
 2957 0150 3A       		.uleb128 0x3a
 2958 0151 0B       		.uleb128 0xb
 2959 0152 3B       		.uleb128 0x3b
 2960 0153 0B       		.uleb128 0xb
 2961 0154 27       		.uleb128 0x27
ARM GAS  /tmp/ccU3pGdw.s 			page 53


 2962 0155 19       		.uleb128 0x19
 2963 0156 49       		.uleb128 0x49
 2964 0157 13       		.uleb128 0x13
 2965 0158 11       		.uleb128 0x11
 2966 0159 01       		.uleb128 0x1
 2967 015a 12       		.uleb128 0x12
 2968 015b 06       		.uleb128 0x6
 2969 015c 40       		.uleb128 0x40
 2970 015d 18       		.uleb128 0x18
 2971 015e 9742     		.uleb128 0x2117
 2972 0160 19       		.uleb128 0x19
 2973 0161 01       		.uleb128 0x1
 2974 0162 13       		.uleb128 0x13
 2975 0163 00       		.byte	0
 2976 0164 00       		.byte	0
 2977 0165 1D       		.uleb128 0x1d
 2978 0166 05       		.uleb128 0x5
 2979 0167 00       		.byte	0
 2980 0168 03       		.uleb128 0x3
 2981 0169 08       		.uleb128 0x8
 2982 016a 3A       		.uleb128 0x3a
 2983 016b 0B       		.uleb128 0xb
 2984 016c 3B       		.uleb128 0x3b
 2985 016d 0B       		.uleb128 0xb
 2986 016e 49       		.uleb128 0x49
 2987 016f 13       		.uleb128 0x13
 2988 0170 02       		.uleb128 0x2
 2989 0171 17       		.uleb128 0x17
 2990 0172 00       		.byte	0
 2991 0173 00       		.byte	0
 2992 0174 1E       		.uleb128 0x1e
 2993 0175 05       		.uleb128 0x5
 2994 0176 00       		.byte	0
 2995 0177 03       		.uleb128 0x3
 2996 0178 0E       		.uleb128 0xe
 2997 0179 3A       		.uleb128 0x3a
 2998 017a 0B       		.uleb128 0xb
 2999 017b 3B       		.uleb128 0x3b
 3000 017c 0B       		.uleb128 0xb
 3001 017d 49       		.uleb128 0x49
 3002 017e 13       		.uleb128 0x13
 3003 017f 02       		.uleb128 0x2
 3004 0180 17       		.uleb128 0x17
 3005 0181 00       		.byte	0
 3006 0182 00       		.byte	0
 3007 0183 1F       		.uleb128 0x1f
 3008 0184 34       		.uleb128 0x34
 3009 0185 00       		.byte	0
 3010 0186 03       		.uleb128 0x3
 3011 0187 08       		.uleb128 0x8
 3012 0188 3A       		.uleb128 0x3a
 3013 0189 0B       		.uleb128 0xb
 3014 018a 3B       		.uleb128 0x3b
 3015 018b 0B       		.uleb128 0xb
 3016 018c 49       		.uleb128 0x49
 3017 018d 13       		.uleb128 0x13
 3018 018e 02       		.uleb128 0x2
ARM GAS  /tmp/ccU3pGdw.s 			page 54


 3019 018f 17       		.uleb128 0x17
 3020 0190 00       		.byte	0
 3021 0191 00       		.byte	0
 3022 0192 20       		.uleb128 0x20
 3023 0193 34       		.uleb128 0x34
 3024 0194 00       		.byte	0
 3025 0195 03       		.uleb128 0x3
 3026 0196 08       		.uleb128 0x8
 3027 0197 3A       		.uleb128 0x3a
 3028 0198 0B       		.uleb128 0xb
 3029 0199 3B       		.uleb128 0x3b
 3030 019a 0B       		.uleb128 0xb
 3031 019b 49       		.uleb128 0x49
 3032 019c 13       		.uleb128 0x13
 3033 019d 00       		.byte	0
 3034 019e 00       		.byte	0
 3035 019f 21       		.uleb128 0x21
 3036 01a0 2E       		.uleb128 0x2e
 3037 01a1 01       		.byte	0x1
 3038 01a2 3F       		.uleb128 0x3f
 3039 01a3 19       		.uleb128 0x19
 3040 01a4 03       		.uleb128 0x3
 3041 01a5 0E       		.uleb128 0xe
 3042 01a6 3A       		.uleb128 0x3a
 3043 01a7 0B       		.uleb128 0xb
 3044 01a8 3B       		.uleb128 0x3b
 3045 01a9 0B       		.uleb128 0xb
 3046 01aa 27       		.uleb128 0x27
 3047 01ab 19       		.uleb128 0x19
 3048 01ac 49       		.uleb128 0x49
 3049 01ad 13       		.uleb128 0x13
 3050 01ae 11       		.uleb128 0x11
 3051 01af 01       		.uleb128 0x1
 3052 01b0 12       		.uleb128 0x12
 3053 01b1 06       		.uleb128 0x6
 3054 01b2 40       		.uleb128 0x40
 3055 01b3 18       		.uleb128 0x18
 3056 01b4 9642     		.uleb128 0x2116
 3057 01b6 19       		.uleb128 0x19
 3058 01b7 01       		.uleb128 0x1
 3059 01b8 13       		.uleb128 0x13
 3060 01b9 00       		.byte	0
 3061 01ba 00       		.byte	0
 3062 01bb 22       		.uleb128 0x22
 3063 01bc 34       		.uleb128 0x34
 3064 01bd 00       		.byte	0
 3065 01be 03       		.uleb128 0x3
 3066 01bf 0E       		.uleb128 0xe
 3067 01c0 3A       		.uleb128 0x3a
 3068 01c1 0B       		.uleb128 0xb
 3069 01c2 3B       		.uleb128 0x3b
 3070 01c3 0B       		.uleb128 0xb
 3071 01c4 49       		.uleb128 0x49
 3072 01c5 13       		.uleb128 0x13
 3073 01c6 02       		.uleb128 0x2
 3074 01c7 17       		.uleb128 0x17
 3075 01c8 00       		.byte	0
ARM GAS  /tmp/ccU3pGdw.s 			page 55


 3076 01c9 00       		.byte	0
 3077 01ca 23       		.uleb128 0x23
 3078 01cb 34       		.uleb128 0x34
 3079 01cc 00       		.byte	0
 3080 01cd 03       		.uleb128 0x3
 3081 01ce 0E       		.uleb128 0xe
 3082 01cf 3A       		.uleb128 0x3a
 3083 01d0 0B       		.uleb128 0xb
 3084 01d1 3B       		.uleb128 0x3b
 3085 01d2 0B       		.uleb128 0xb
 3086 01d3 49       		.uleb128 0x49
 3087 01d4 13       		.uleb128 0x13
 3088 01d5 02       		.uleb128 0x2
 3089 01d6 18       		.uleb128 0x18
 3090 01d7 00       		.byte	0
 3091 01d8 00       		.byte	0
 3092 01d9 24       		.uleb128 0x24
 3093 01da 0A       		.uleb128 0xa
 3094 01db 00       		.byte	0
 3095 01dc 03       		.uleb128 0x3
 3096 01dd 0E       		.uleb128 0xe
 3097 01de 3A       		.uleb128 0x3a
 3098 01df 0B       		.uleb128 0xb
 3099 01e0 3B       		.uleb128 0x3b
 3100 01e1 0B       		.uleb128 0xb
 3101 01e2 11       		.uleb128 0x11
 3102 01e3 01       		.uleb128 0x1
 3103 01e4 00       		.byte	0
 3104 01e5 00       		.byte	0
 3105 01e6 25       		.uleb128 0x25
 3106 01e7 1D       		.uleb128 0x1d
 3107 01e8 01       		.byte	0x1
 3108 01e9 31       		.uleb128 0x31
 3109 01ea 13       		.uleb128 0x13
 3110 01eb 52       		.uleb128 0x52
 3111 01ec 01       		.uleb128 0x1
 3112 01ed 55       		.uleb128 0x55
 3113 01ee 17       		.uleb128 0x17
 3114 01ef 58       		.uleb128 0x58
 3115 01f0 0B       		.uleb128 0xb
 3116 01f1 59       		.uleb128 0x59
 3117 01f2 0B       		.uleb128 0xb
 3118 01f3 01       		.uleb128 0x1
 3119 01f4 13       		.uleb128 0x13
 3120 01f5 00       		.byte	0
 3121 01f6 00       		.byte	0
 3122 01f7 26       		.uleb128 0x26
 3123 01f8 05       		.uleb128 0x5
 3124 01f9 00       		.byte	0
 3125 01fa 31       		.uleb128 0x31
 3126 01fb 13       		.uleb128 0x13
 3127 01fc 02       		.uleb128 0x2
 3128 01fd 17       		.uleb128 0x17
 3129 01fe 00       		.byte	0
 3130 01ff 00       		.byte	0
 3131 0200 27       		.uleb128 0x27
 3132 0201 898201   		.uleb128 0x4109
ARM GAS  /tmp/ccU3pGdw.s 			page 56


 3133 0204 00       		.byte	0
 3134 0205 11       		.uleb128 0x11
 3135 0206 01       		.uleb128 0x1
 3136 0207 31       		.uleb128 0x31
 3137 0208 13       		.uleb128 0x13
 3138 0209 00       		.byte	0
 3139 020a 00       		.byte	0
 3140 020b 28       		.uleb128 0x28
 3141 020c 0B       		.uleb128 0xb
 3142 020d 01       		.byte	0x1
 3143 020e 55       		.uleb128 0x55
 3144 020f 17       		.uleb128 0x17
 3145 0210 00       		.byte	0
 3146 0211 00       		.byte	0
 3147 0212 29       		.uleb128 0x29
 3148 0213 34       		.uleb128 0x34
 3149 0214 00       		.byte	0
 3150 0215 31       		.uleb128 0x31
 3151 0216 13       		.uleb128 0x13
 3152 0217 02       		.uleb128 0x2
 3153 0218 17       		.uleb128 0x17
 3154 0219 00       		.byte	0
 3155 021a 00       		.byte	0
 3156 021b 2A       		.uleb128 0x2a
 3157 021c 898201   		.uleb128 0x4109
 3158 021f 01       		.byte	0x1
 3159 0220 11       		.uleb128 0x11
 3160 0221 01       		.uleb128 0x1
 3161 0222 31       		.uleb128 0x31
 3162 0223 13       		.uleb128 0x13
 3163 0224 00       		.byte	0
 3164 0225 00       		.byte	0
 3165 0226 2B       		.uleb128 0x2b
 3166 0227 8A8201   		.uleb128 0x410a
 3167 022a 00       		.byte	0
 3168 022b 02       		.uleb128 0x2
 3169 022c 18       		.uleb128 0x18
 3170 022d 9142     		.uleb128 0x2111
 3171 022f 18       		.uleb128 0x18
 3172 0230 00       		.byte	0
 3173 0231 00       		.byte	0
 3174 0232 2C       		.uleb128 0x2c
 3175 0233 1D       		.uleb128 0x1d
 3176 0234 01       		.byte	0x1
 3177 0235 31       		.uleb128 0x31
 3178 0236 13       		.uleb128 0x13
 3179 0237 11       		.uleb128 0x11
 3180 0238 01       		.uleb128 0x1
 3181 0239 12       		.uleb128 0x12
 3182 023a 06       		.uleb128 0x6
 3183 023b 58       		.uleb128 0x58
 3184 023c 0B       		.uleb128 0xb
 3185 023d 59       		.uleb128 0x59
 3186 023e 0B       		.uleb128 0xb
 3187 023f 01       		.uleb128 0x1
 3188 0240 13       		.uleb128 0x13
 3189 0241 00       		.byte	0
ARM GAS  /tmp/ccU3pGdw.s 			page 57


 3190 0242 00       		.byte	0
 3191 0243 2D       		.uleb128 0x2d
 3192 0244 898201   		.uleb128 0x4109
 3193 0247 01       		.byte	0x1
 3194 0248 11       		.uleb128 0x11
 3195 0249 01       		.uleb128 0x1
 3196 024a 01       		.uleb128 0x1
 3197 024b 13       		.uleb128 0x13
 3198 024c 00       		.byte	0
 3199 024d 00       		.byte	0
 3200 024e 2E       		.uleb128 0x2e
 3201 024f 898201   		.uleb128 0x4109
 3202 0252 01       		.byte	0x1
 3203 0253 11       		.uleb128 0x11
 3204 0254 01       		.uleb128 0x1
 3205 0255 00       		.byte	0
 3206 0256 00       		.byte	0
 3207 0257 2F       		.uleb128 0x2f
 3208 0258 2E       		.uleb128 0x2e
 3209 0259 01       		.byte	0x1
 3210 025a 3F       		.uleb128 0x3f
 3211 025b 19       		.uleb128 0x19
 3212 025c 03       		.uleb128 0x3
 3213 025d 0E       		.uleb128 0xe
 3214 025e 3A       		.uleb128 0x3a
 3215 025f 0B       		.uleb128 0xb
 3216 0260 3B       		.uleb128 0x3b
 3217 0261 05       		.uleb128 0x5
 3218 0262 27       		.uleb128 0x27
 3219 0263 19       		.uleb128 0x19
 3220 0264 49       		.uleb128 0x49
 3221 0265 13       		.uleb128 0x13
 3222 0266 11       		.uleb128 0x11
 3223 0267 01       		.uleb128 0x1
 3224 0268 12       		.uleb128 0x12
 3225 0269 06       		.uleb128 0x6
 3226 026a 40       		.uleb128 0x40
 3227 026b 18       		.uleb128 0x18
 3228 026c 9742     		.uleb128 0x2117
 3229 026e 19       		.uleb128 0x19
 3230 026f 01       		.uleb128 0x1
 3231 0270 13       		.uleb128 0x13
 3232 0271 00       		.byte	0
 3233 0272 00       		.byte	0
 3234 0273 30       		.uleb128 0x30
 3235 0274 05       		.uleb128 0x5
 3236 0275 00       		.byte	0
 3237 0276 03       		.uleb128 0x3
 3238 0277 08       		.uleb128 0x8
 3239 0278 3A       		.uleb128 0x3a
 3240 0279 0B       		.uleb128 0xb
 3241 027a 3B       		.uleb128 0x3b
 3242 027b 05       		.uleb128 0x5
 3243 027c 49       		.uleb128 0x49
 3244 027d 13       		.uleb128 0x13
 3245 027e 02       		.uleb128 0x2
 3246 027f 17       		.uleb128 0x17
ARM GAS  /tmp/ccU3pGdw.s 			page 58


 3247 0280 00       		.byte	0
 3248 0281 00       		.byte	0
 3249 0282 31       		.uleb128 0x31
 3250 0283 05       		.uleb128 0x5
 3251 0284 00       		.byte	0
 3252 0285 03       		.uleb128 0x3
 3253 0286 0E       		.uleb128 0xe
 3254 0287 3A       		.uleb128 0x3a
 3255 0288 0B       		.uleb128 0xb
 3256 0289 3B       		.uleb128 0x3b
 3257 028a 05       		.uleb128 0x5
 3258 028b 49       		.uleb128 0x49
 3259 028c 13       		.uleb128 0x13
 3260 028d 02       		.uleb128 0x2
 3261 028e 17       		.uleb128 0x17
 3262 028f 00       		.byte	0
 3263 0290 00       		.byte	0
 3264 0291 32       		.uleb128 0x32
 3265 0292 05       		.uleb128 0x5
 3266 0293 00       		.byte	0
 3267 0294 03       		.uleb128 0x3
 3268 0295 08       		.uleb128 0x8
 3269 0296 3A       		.uleb128 0x3a
 3270 0297 0B       		.uleb128 0xb
 3271 0298 3B       		.uleb128 0x3b
 3272 0299 05       		.uleb128 0x5
 3273 029a 49       		.uleb128 0x49
 3274 029b 13       		.uleb128 0x13
 3275 029c 02       		.uleb128 0x2
 3276 029d 18       		.uleb128 0x18
 3277 029e 00       		.byte	0
 3278 029f 00       		.byte	0
 3279 02a0 33       		.uleb128 0x33
 3280 02a1 18       		.uleb128 0x18
 3281 02a2 00       		.byte	0
 3282 02a3 00       		.byte	0
 3283 02a4 00       		.byte	0
 3284 02a5 34       		.uleb128 0x34
 3285 02a6 34       		.uleb128 0x34
 3286 02a7 00       		.byte	0
 3287 02a8 03       		.uleb128 0x3
 3288 02a9 08       		.uleb128 0x8
 3289 02aa 3A       		.uleb128 0x3a
 3290 02ab 0B       		.uleb128 0xb
 3291 02ac 3B       		.uleb128 0x3b
 3292 02ad 05       		.uleb128 0x5
 3293 02ae 49       		.uleb128 0x49
 3294 02af 13       		.uleb128 0x13
 3295 02b0 02       		.uleb128 0x2
 3296 02b1 18       		.uleb128 0x18
 3297 02b2 00       		.byte	0
 3298 02b3 00       		.byte	0
 3299 02b4 35       		.uleb128 0x35
 3300 02b5 34       		.uleb128 0x34
 3301 02b6 00       		.byte	0
 3302 02b7 03       		.uleb128 0x3
 3303 02b8 08       		.uleb128 0x8
ARM GAS  /tmp/ccU3pGdw.s 			page 59


 3304 02b9 3A       		.uleb128 0x3a
 3305 02ba 0B       		.uleb128 0xb
 3306 02bb 3B       		.uleb128 0x3b
 3307 02bc 05       		.uleb128 0x5
 3308 02bd 49       		.uleb128 0x49
 3309 02be 13       		.uleb128 0x13
 3310 02bf 02       		.uleb128 0x2
 3311 02c0 17       		.uleb128 0x17
 3312 02c1 00       		.byte	0
 3313 02c2 00       		.byte	0
 3314 02c3 36       		.uleb128 0x36
 3315 02c4 34       		.uleb128 0x34
 3316 02c5 00       		.byte	0
 3317 02c6 03       		.uleb128 0x3
 3318 02c7 0E       		.uleb128 0xe
 3319 02c8 3A       		.uleb128 0x3a
 3320 02c9 0B       		.uleb128 0xb
 3321 02ca 3B       		.uleb128 0x3b
 3322 02cb 05       		.uleb128 0x5
 3323 02cc 49       		.uleb128 0x49
 3324 02cd 13       		.uleb128 0x13
 3325 02ce 02       		.uleb128 0x2
 3326 02cf 17       		.uleb128 0x17
 3327 02d0 00       		.byte	0
 3328 02d1 00       		.byte	0
 3329 02d2 37       		.uleb128 0x37
 3330 02d3 898201   		.uleb128 0x4109
 3331 02d6 01       		.byte	0x1
 3332 02d7 11       		.uleb128 0x11
 3333 02d8 01       		.uleb128 0x1
 3334 02d9 31       		.uleb128 0x31
 3335 02da 13       		.uleb128 0x13
 3336 02db 01       		.uleb128 0x1
 3337 02dc 13       		.uleb128 0x13
 3338 02dd 00       		.byte	0
 3339 02de 00       		.byte	0
 3340 02df 38       		.uleb128 0x38
 3341 02e0 34       		.uleb128 0x34
 3342 02e1 00       		.byte	0
 3343 02e2 03       		.uleb128 0x3
 3344 02e3 0E       		.uleb128 0xe
 3345 02e4 3A       		.uleb128 0x3a
 3346 02e5 0B       		.uleb128 0xb
 3347 02e6 3B       		.uleb128 0x3b
 3348 02e7 05       		.uleb128 0x5
 3349 02e8 49       		.uleb128 0x49
 3350 02e9 13       		.uleb128 0x13
 3351 02ea 3F       		.uleb128 0x3f
 3352 02eb 19       		.uleb128 0x19
 3353 02ec 3C       		.uleb128 0x3c
 3354 02ed 19       		.uleb128 0x19
 3355 02ee 00       		.byte	0
 3356 02ef 00       		.byte	0
 3357 02f0 39       		.uleb128 0x39
 3358 02f1 34       		.uleb128 0x34
 3359 02f2 00       		.byte	0
 3360 02f3 03       		.uleb128 0x3
ARM GAS  /tmp/ccU3pGdw.s 			page 60


 3361 02f4 08       		.uleb128 0x8
 3362 02f5 3A       		.uleb128 0x3a
 3363 02f6 0B       		.uleb128 0xb
 3364 02f7 3B       		.uleb128 0x3b
 3365 02f8 05       		.uleb128 0x5
 3366 02f9 49       		.uleb128 0x49
 3367 02fa 13       		.uleb128 0x13
 3368 02fb 3F       		.uleb128 0x3f
 3369 02fc 19       		.uleb128 0x19
 3370 02fd 3C       		.uleb128 0x3c
 3371 02fe 19       		.uleb128 0x19
 3372 02ff 00       		.byte	0
 3373 0300 00       		.byte	0
 3374 0301 3A       		.uleb128 0x3a
 3375 0302 2E       		.uleb128 0x2e
 3376 0303 01       		.byte	0x1
 3377 0304 3F       		.uleb128 0x3f
 3378 0305 19       		.uleb128 0x19
 3379 0306 03       		.uleb128 0x3
 3380 0307 0E       		.uleb128 0xe
 3381 0308 3A       		.uleb128 0x3a
 3382 0309 0B       		.uleb128 0xb
 3383 030a 3B       		.uleb128 0x3b
 3384 030b 0B       		.uleb128 0xb
 3385 030c 27       		.uleb128 0x27
 3386 030d 19       		.uleb128 0x19
 3387 030e 3C       		.uleb128 0x3c
 3388 030f 19       		.uleb128 0x19
 3389 0310 01       		.uleb128 0x1
 3390 0311 13       		.uleb128 0x13
 3391 0312 00       		.byte	0
 3392 0313 00       		.byte	0
 3393 0314 00       		.byte	0
 3394              		.section	.debug_loc,"",%progbits
 3395              	.Ldebug_loc0:
 3396              	.LLST0:
 3397 0000 00000000 		.4byte	.LVL0
 3398 0004 3E000000 		.4byte	.LVL15
 3399 0008 0100     		.2byte	0x1
 3400 000a 50       		.byte	0x50
 3401 000b 3E000000 		.4byte	.LVL15
 3402 000f 42000000 		.4byte	.LVL16
 3403 0013 0300     		.2byte	0x3
 3404 0015 70       		.byte	0x70
 3405 0016 7F       		.sleb128 -1
 3406 0017 9F       		.byte	0x9f
 3407 0018 42000000 		.4byte	.LVL16
 3408 001c 46000000 		.4byte	.LVL17
 3409 0020 0100     		.2byte	0x1
 3410 0022 50       		.byte	0x50
 3411 0023 46000000 		.4byte	.LVL17
 3412 0027 4E000000 		.4byte	.LFE257
 3413 002b 0300     		.2byte	0x3
 3414 002d 70       		.byte	0x70
 3415 002e 7F       		.sleb128 -1
 3416 002f 9F       		.byte	0x9f
 3417 0030 00000000 		.4byte	0
ARM GAS  /tmp/ccU3pGdw.s 			page 61


 3418 0034 00000000 		.4byte	0
 3419              	.LLST1:
 3420 0038 00000000 		.4byte	.LVL0
 3421 003c 10000000 		.4byte	.LVL3
 3422 0040 0100     		.2byte	0x1
 3423 0042 51       		.byte	0x51
 3424 0043 10000000 		.4byte	.LVL3
 3425 0047 4E000000 		.4byte	.LFE257
 3426 004b 0400     		.2byte	0x4
 3427 004d F3       		.byte	0xf3
 3428 004e 01       		.uleb128 0x1
 3429 004f 51       		.byte	0x51
 3430 0050 9F       		.byte	0x9f
 3431 0051 00000000 		.4byte	0
 3432 0055 00000000 		.4byte	0
 3433              	.LLST2:
 3434 0059 00000000 		.4byte	.LVL0
 3435 005d 38000000 		.4byte	.LVL13
 3436 0061 0100     		.2byte	0x1
 3437 0063 52       		.byte	0x52
 3438 0064 38000000 		.4byte	.LVL13
 3439 0068 4E000000 		.4byte	.LFE257
 3440 006c 0400     		.2byte	0x4
 3441 006e F3       		.byte	0xf3
 3442 006f 01       		.uleb128 0x1
 3443 0070 52       		.byte	0x52
 3444 0071 9F       		.byte	0x9f
 3445 0072 00000000 		.4byte	0
 3446 0076 00000000 		.4byte	0
 3447              	.LLST3:
 3448 007a 00000000 		.4byte	.LVL0
 3449 007e 08000000 		.4byte	.LVL1
 3450 0082 0100     		.2byte	0x1
 3451 0084 53       		.byte	0x53
 3452 0085 08000000 		.4byte	.LVL1
 3453 0089 4E000000 		.4byte	.LFE257
 3454 008d 0400     		.2byte	0x4
 3455 008f F3       		.byte	0xf3
 3456 0090 01       		.uleb128 0x1
 3457 0091 53       		.byte	0x53
 3458 0092 9F       		.byte	0x9f
 3459 0093 00000000 		.4byte	0
 3460 0097 00000000 		.4byte	0
 3461              	.LLST4:
 3462 009b 18000000 		.4byte	.LVL4
 3463 009f 1C000000 		.4byte	.LVL5
 3464 00a3 0100     		.2byte	0x1
 3465 00a5 51       		.byte	0x51
 3466 00a6 1C000000 		.4byte	.LVL5
 3467 00aa 26000000 		.4byte	.LVL7
 3468 00ae 0100     		.2byte	0x1
 3469 00b0 54       		.byte	0x54
 3470 00b1 36000000 		.4byte	.LVL12
 3471 00b5 4C000000 		.4byte	.LVL18
 3472 00b9 0600     		.2byte	0x6
 3473 00bb 77       		.byte	0x77
 3474 00bc 00       		.sleb128 0
ARM GAS  /tmp/ccU3pGdw.s 			page 62


 3475 00bd 76       		.byte	0x76
 3476 00be 00       		.sleb128 0
 3477 00bf 1C       		.byte	0x1c
 3478 00c0 9F       		.byte	0x9f
 3479 00c1 00000000 		.4byte	0
 3480 00c5 00000000 		.4byte	0
 3481              	.LLST5:
 3482 00c9 0C000000 		.4byte	.LVL2
 3483 00cd 10000000 		.4byte	.LVL3
 3484 00d1 0100     		.2byte	0x1
 3485 00d3 57       		.byte	0x57
 3486 00d4 10000000 		.4byte	.LVL3
 3487 00d8 2E000000 		.4byte	.LVL10
 3488 00dc 0300     		.2byte	0x3
 3489 00de 75       		.byte	0x75
 3490 00df 01       		.sleb128 1
 3491 00e0 9F       		.byte	0x9f
 3492 00e1 2E000000 		.4byte	.LVL10
 3493 00e5 32000000 		.4byte	.LVL11
 3494 00e9 0100     		.2byte	0x1
 3495 00eb 55       		.byte	0x55
 3496 00ec 32000000 		.4byte	.LVL11
 3497 00f0 4C000000 		.4byte	.LVL18
 3498 00f4 0100     		.2byte	0x1
 3499 00f6 56       		.byte	0x56
 3500 00f7 00000000 		.4byte	0
 3501 00fb 00000000 		.4byte	0
 3502              	.LLST6:
 3503 00ff 00000000 		.4byte	.LVL0
 3504 0103 18000000 		.4byte	.LVL4
 3505 0107 0100     		.2byte	0x1
 3506 0109 51       		.byte	0x51
 3507 010a 2E000000 		.4byte	.LVL10
 3508 010e 4E000000 		.4byte	.LFE257
 3509 0112 0100     		.2byte	0x1
 3510 0114 51       		.byte	0x51
 3511 0115 00000000 		.4byte	0
 3512 0119 00000000 		.4byte	0
 3513              	.LLST7:
 3514 011d 08000000 		.4byte	.LVL1
 3515 0121 2A000000 		.4byte	.LVL8
 3516 0125 0100     		.2byte	0x1
 3517 0127 53       		.byte	0x53
 3518 0128 2E000000 		.4byte	.LVL10
 3519 012c 3A000000 		.4byte	.LVL14
 3520 0130 0100     		.2byte	0x1
 3521 0132 53       		.byte	0x53
 3522 0133 00000000 		.4byte	0
 3523 0137 00000000 		.4byte	0
 3524              	.LLST8:
 3525 013b 00000000 		.4byte	.LVL19
 3526 013f 12000000 		.4byte	.LVL20
 3527 0143 0100     		.2byte	0x1
 3528 0145 50       		.byte	0x50
 3529 0146 12000000 		.4byte	.LVL20
 3530 014a 94030000 		.4byte	.LFE260
 3531 014e 0100     		.2byte	0x1
ARM GAS  /tmp/ccU3pGdw.s 			page 63


 3532 0150 56       		.byte	0x56
 3533 0151 00000000 		.4byte	0
 3534 0155 00000000 		.4byte	0
 3535              	.LLST9:
 3536 0159 00000000 		.4byte	.LVL19
 3537 015d 24000000 		.4byte	.LVL22
 3538 0161 0100     		.2byte	0x1
 3539 0163 51       		.byte	0x51
 3540 0164 24000000 		.4byte	.LVL22
 3541 0168 28000000 		.4byte	.LVL23
 3542 016c 0100     		.2byte	0x1
 3543 016e 54       		.byte	0x54
 3544 016f 28000000 		.4byte	.LVL23
 3545 0173 37000000 		.4byte	.LVL26-1
 3546 0177 0100     		.2byte	0x1
 3547 0179 53       		.byte	0x53
 3548 017a 37000000 		.4byte	.LVL26-1
 3549 017e 40000000 		.4byte	.LVL28
 3550 0182 0100     		.2byte	0x1
 3551 0184 54       		.byte	0x54
 3552 0185 40000000 		.4byte	.LVL28
 3553 0189 62000000 		.4byte	.LVL33
 3554 018d 0100     		.2byte	0x1
 3555 018f 53       		.byte	0x53
 3556 0190 62000000 		.4byte	.LVL33
 3557 0194 6A000000 		.4byte	.LVL34
 3558 0198 0300     		.2byte	0x3
 3559 019a 73       		.byte	0x73
 3560 019b 01       		.sleb128 1
 3561 019c 9F       		.byte	0x9f
 3562 019d 6E000000 		.4byte	.LVL35
 3563 01a1 76000000 		.4byte	.LVL36
 3564 01a5 0100     		.2byte	0x1
 3565 01a7 53       		.byte	0x53
 3566 01a8 76000000 		.4byte	.LVL36
 3567 01ac 1E010000 		.4byte	.LVL45
 3568 01b0 0100     		.2byte	0x1
 3569 01b2 54       		.byte	0x54
 3570 01b3 1E010000 		.4byte	.LVL45
 3571 01b7 2A010000 		.4byte	.LVL49
 3572 01bb 0300     		.2byte	0x3
 3573 01bd 74       		.byte	0x74
 3574 01be 7F       		.sleb128 -1
 3575 01bf 9F       		.byte	0x9f
 3576 01c0 2A010000 		.4byte	.LVL49
 3577 01c4 2E010000 		.4byte	.LVL50
 3578 01c8 0100     		.2byte	0x1
 3579 01ca 54       		.byte	0x54
 3580 01cb 2E010000 		.4byte	.LVL50
 3581 01cf 3C010000 		.4byte	.LVL51
 3582 01d3 0300     		.2byte	0x3
 3583 01d5 74       		.byte	0x74
 3584 01d6 7F       		.sleb128 -1
 3585 01d7 9F       		.byte	0x9f
 3586 01d8 3C010000 		.4byte	.LVL51
 3587 01dc 94030000 		.4byte	.LFE260
 3588 01e0 0100     		.2byte	0x1
ARM GAS  /tmp/ccU3pGdw.s 			page 64


 3589 01e2 54       		.byte	0x54
 3590 01e3 00000000 		.4byte	0
 3591 01e7 00000000 		.4byte	0
 3592              	.LLST10:
 3593 01eb 00000000 		.4byte	.LVL19
 3594 01ef 1E000000 		.4byte	.LVL21
 3595 01f3 0100     		.2byte	0x1
 3596 01f5 52       		.byte	0x52
 3597 01f6 1E000000 		.4byte	.LVL21
 3598 01fa 24000000 		.4byte	.LVL22
 3599 01fe 0300     		.2byte	0x3
 3600 0200 52       		.byte	0x52
 3601 0201 93       		.byte	0x93
 3602 0202 04       		.uleb128 0x4
 3603 0203 24000000 		.4byte	.LVL22
 3604 0207 30000000 		.4byte	.LVL25
 3605 020b 0300     		.2byte	0x3
 3606 020d 57       		.byte	0x57
 3607 020e 93       		.byte	0x93
 3608 020f 04       		.uleb128 0x4
 3609 0210 3E000000 		.4byte	.LVL27
 3610 0214 44000000 		.4byte	.LVL29
 3611 0218 0300     		.2byte	0x3
 3612 021a 57       		.byte	0x57
 3613 021b 93       		.byte	0x93
 3614 021c 04       		.uleb128 0x4
 3615 021d 44000000 		.4byte	.LVL29
 3616 0221 50000000 		.4byte	.LVL30
 3617 0225 0300     		.2byte	0x3
 3618 0227 57       		.byte	0x57
 3619 0228 93       		.byte	0x93
 3620 0229 04       		.uleb128 0x4
 3621 022a 50000000 		.4byte	.LVL30
 3622 022e 52000000 		.4byte	.LVL31
 3623 0232 0300     		.2byte	0x3
 3624 0234 57       		.byte	0x57
 3625 0235 93       		.byte	0x93
 3626 0236 04       		.uleb128 0x4
 3627 0237 76000000 		.4byte	.LVL36
 3628 023b 7A000000 		.4byte	.LVL38
 3629 023f 0500     		.2byte	0x5
 3630 0241 77       		.byte	0x77
 3631 0242 04       		.sleb128 4
 3632 0243 9F       		.byte	0x9f
 3633 0244 93       		.byte	0x93
 3634 0245 04       		.uleb128 0x4
 3635 0246 7A000000 		.4byte	.LVL38
 3636 024a 84000000 		.4byte	.LVL40
 3637 024e 0300     		.2byte	0x3
 3638 0250 57       		.byte	0x57
 3639 0251 93       		.byte	0x93
 3640 0252 04       		.uleb128 0x4
 3641 0253 84000000 		.4byte	.LVL40
 3642 0257 9E000000 		.4byte	.LVL43
 3643 025b 0500     		.2byte	0x5
 3644 025d 77       		.byte	0x77
 3645 025e 04       		.sleb128 4
ARM GAS  /tmp/ccU3pGdw.s 			page 65


 3646 025f 9F       		.byte	0x9f
 3647 0260 93       		.byte	0x93
 3648 0261 04       		.uleb128 0x4
 3649 0262 9E000000 		.4byte	.LVL43
 3650 0266 1E010000 		.4byte	.LVL45
 3651 026a 0300     		.2byte	0x3
 3652 026c 57       		.byte	0x57
 3653 026d 93       		.byte	0x93
 3654 026e 04       		.uleb128 0x4
 3655 026f 1E010000 		.4byte	.LVL45
 3656 0273 22010000 		.4byte	.LVL47
 3657 0277 0500     		.2byte	0x5
 3658 0279 77       		.byte	0x77
 3659 027a 04       		.sleb128 4
 3660 027b 9F       		.byte	0x9f
 3661 027c 93       		.byte	0x93
 3662 027d 04       		.uleb128 0x4
 3663 027e 22010000 		.4byte	.LVL47
 3664 0282 2A010000 		.4byte	.LVL49
 3665 0286 0300     		.2byte	0x3
 3666 0288 57       		.byte	0x57
 3667 0289 93       		.byte	0x93
 3668 028a 04       		.uleb128 0x4
 3669 028b 2A010000 		.4byte	.LVL49
 3670 028f 3C010000 		.4byte	.LVL51
 3671 0293 0500     		.2byte	0x5
 3672 0295 77       		.byte	0x77
 3673 0296 04       		.sleb128 4
 3674 0297 9F       		.byte	0x9f
 3675 0298 93       		.byte	0x93
 3676 0299 04       		.uleb128 0x4
 3677 029a 3C010000 		.4byte	.LVL51
 3678 029e 52010000 		.4byte	.LVL55
 3679 02a2 0300     		.2byte	0x3
 3680 02a4 57       		.byte	0x57
 3681 02a5 93       		.byte	0x93
 3682 02a6 04       		.uleb128 0x4
 3683 02a7 52010000 		.4byte	.LVL55
 3684 02ab 5A010000 		.4byte	.LVL57
 3685 02af 0500     		.2byte	0x5
 3686 02b1 77       		.byte	0x77
 3687 02b2 04       		.sleb128 4
 3688 02b3 9F       		.byte	0x9f
 3689 02b4 93       		.byte	0x93
 3690 02b5 04       		.uleb128 0x4
 3691 02b6 5A010000 		.4byte	.LVL57
 3692 02ba 06020000 		.4byte	.LVL77
 3693 02be 0300     		.2byte	0x3
 3694 02c0 57       		.byte	0x57
 3695 02c1 93       		.byte	0x93
 3696 02c2 04       		.uleb128 0x4
 3697 02c3 06020000 		.4byte	.LVL77
 3698 02c7 3C020000 		.4byte	.LVL86
 3699 02cb 0300     		.2byte	0x3
 3700 02cd 57       		.byte	0x57
 3701 02ce 93       		.byte	0x93
 3702 02cf 04       		.uleb128 0x4
ARM GAS  /tmp/ccU3pGdw.s 			page 66


 3703 02d0 3C020000 		.4byte	.LVL86
 3704 02d4 40020000 		.4byte	.LVL87
 3705 02d8 0500     		.2byte	0x5
 3706 02da 77       		.byte	0x77
 3707 02db 79       		.sleb128 -7
 3708 02dc 9F       		.byte	0x9f
 3709 02dd 93       		.byte	0x93
 3710 02de 04       		.uleb128 0x4
 3711 02df 5C020000 		.4byte	.LVL89
 3712 02e3 E2020000 		.4byte	.LVL101
 3713 02e7 0300     		.2byte	0x3
 3714 02e9 57       		.byte	0x57
 3715 02ea 93       		.byte	0x93
 3716 02eb 04       		.uleb128 0x4
 3717 02ec E2020000 		.4byte	.LVL101
 3718 02f0 EE020000 		.4byte	.LVL103
 3719 02f4 0500     		.2byte	0x5
 3720 02f6 77       		.byte	0x77
 3721 02f7 04       		.sleb128 4
 3722 02f8 9F       		.byte	0x9f
 3723 02f9 93       		.byte	0x93
 3724 02fa 04       		.uleb128 0x4
 3725 02fb EE020000 		.4byte	.LVL103
 3726 02ff FC020000 		.4byte	.LVL105
 3727 0303 0300     		.2byte	0x3
 3728 0305 57       		.byte	0x57
 3729 0306 93       		.byte	0x93
 3730 0307 04       		.uleb128 0x4
 3731 0308 FC020000 		.4byte	.LVL105
 3732 030c 04030000 		.4byte	.LVL107
 3733 0310 0500     		.2byte	0x5
 3734 0312 77       		.byte	0x77
 3735 0313 04       		.sleb128 4
 3736 0314 9F       		.byte	0x9f
 3737 0315 93       		.byte	0x93
 3738 0316 04       		.uleb128 0x4
 3739 0317 04030000 		.4byte	.LVL107
 3740 031b 94030000 		.4byte	.LFE260
 3741 031f 0300     		.2byte	0x3
 3742 0321 57       		.byte	0x57
 3743 0322 93       		.byte	0x93
 3744 0323 04       		.uleb128 0x4
 3745 0324 00000000 		.4byte	0
 3746 0328 00000000 		.4byte	0
 3747              	.LLST11:
 3748 032c 50000000 		.4byte	.LVL30
 3749 0330 5E010000 		.4byte	.LVL58
 3750 0334 0300     		.2byte	0x3
 3751 0336 91       		.byte	0x91
 3752 0337 B07F     		.sleb128 -80
 3753 0339 EE010000 		.4byte	.LVL76
 3754 033d 0E020000 		.4byte	.LVL78
 3755 0341 0300     		.2byte	0x3
 3756 0343 91       		.byte	0x91
 3757 0344 B07F     		.sleb128 -80
 3758 0346 0E020000 		.4byte	.LVL78
 3759 034a 1C020000 		.4byte	.LVL79
ARM GAS  /tmp/ccU3pGdw.s 			page 67


 3760 034e 0200     		.2byte	0x2
 3761 0350 77       		.byte	0x77
 3762 0351 7C       		.sleb128 -4
 3763 0352 1C020000 		.4byte	.LVL79
 3764 0356 30020000 		.4byte	.LVL82
 3765 035a 0100     		.2byte	0x1
 3766 035c 53       		.byte	0x53
 3767 035d 36020000 		.4byte	.LVL83
 3768 0361 66020000 		.4byte	.LVL91
 3769 0365 0300     		.2byte	0x3
 3770 0367 91       		.byte	0x91
 3771 0368 B07F     		.sleb128 -80
 3772 036a 66020000 		.4byte	.LVL91
 3773 036e 8F020000 		.4byte	.LVL93-1
 3774 0372 0100     		.2byte	0x1
 3775 0374 50       		.byte	0x50
 3776 0375 E2020000 		.4byte	.LVL101
 3777 0379 F8020000 		.4byte	.LVL104
 3778 037d 0300     		.2byte	0x3
 3779 037f 91       		.byte	0x91
 3780 0380 A47F     		.sleb128 -92
 3781 0382 F8020000 		.4byte	.LVL104
 3782 0386 08030000 		.4byte	.LVL108
 3783 038a 0300     		.2byte	0x3
 3784 038c 91       		.byte	0x91
 3785 038d B07F     		.sleb128 -80
 3786 038f 08030000 		.4byte	.LVL108
 3787 0393 13030000 		.4byte	.LVL110-1
 3788 0397 0100     		.2byte	0x1
 3789 0399 50       		.byte	0x50
 3790 039a 26030000 		.4byte	.LVL111
 3791 039e 36030000 		.4byte	.LVL113
 3792 03a2 0300     		.2byte	0x3
 3793 03a4 91       		.byte	0x91
 3794 03a5 A47F     		.sleb128 -92
 3795 03a7 54030000 		.4byte	.LVL120
 3796 03ab 60030000 		.4byte	.LVL121
 3797 03af 0100     		.2byte	0x1
 3798 03b1 53       		.byte	0x53
 3799 03b2 60030000 		.4byte	.LVL121
 3800 03b6 7E030000 		.4byte	.LVL125
 3801 03ba 0300     		.2byte	0x3
 3802 03bc 91       		.byte	0x91
 3803 03bd A47F     		.sleb128 -92
 3804 03bf 7E030000 		.4byte	.LVL125
 3805 03c3 94030000 		.4byte	.LFE260
 3806 03c7 0200     		.2byte	0x2
 3807 03c9 77       		.byte	0x77
 3808 03ca 7C       		.sleb128 -4
 3809 03cb 00000000 		.4byte	0
 3810 03cf 00000000 		.4byte	0
 3811              	.LLST12:
 3812 03d3 50000000 		.4byte	.LVL30
 3813 03d7 72010000 		.4byte	.LVL60
 3814 03db 0300     		.2byte	0x3
 3815 03dd 91       		.byte	0x91
 3816 03de B07F     		.sleb128 -80
ARM GAS  /tmp/ccU3pGdw.s 			page 68


 3817 03e0 B8010000 		.4byte	.LVL69
 3818 03e4 BE010000 		.4byte	.LVL70
 3819 03e8 0300     		.2byte	0x3
 3820 03ea 7B       		.byte	0x7b
 3821 03eb 02       		.sleb128 2
 3822 03ec 9F       		.byte	0x9f
 3823 03ed BE010000 		.4byte	.LVL70
 3824 03f1 D0010000 		.4byte	.LVL72
 3825 03f5 0300     		.2byte	0x3
 3826 03f7 7B       		.byte	0x7b
 3827 03f8 01       		.sleb128 1
 3828 03f9 9F       		.byte	0x9f
 3829 03fa EE010000 		.4byte	.LVL76
 3830 03fe 06020000 		.4byte	.LVL77
 3831 0402 0300     		.2byte	0x3
 3832 0404 91       		.byte	0x91
 3833 0405 B07F     		.sleb128 -80
 3834 0407 06020000 		.4byte	.LVL77
 3835 040b 36020000 		.4byte	.LVL83
 3836 040f 0200     		.2byte	0x2
 3837 0411 77       		.byte	0x77
 3838 0412 7C       		.sleb128 -4
 3839 0413 36020000 		.4byte	.LVL83
 3840 0417 36030000 		.4byte	.LVL113
 3841 041b 0300     		.2byte	0x3
 3842 041d 91       		.byte	0x91
 3843 041e B07F     		.sleb128 -80
 3844 0420 3C030000 		.4byte	.LVL114
 3845 0424 4C030000 		.4byte	.LVL117
 3846 0428 0300     		.2byte	0x3
 3847 042a 7A       		.byte	0x7a
 3848 042b 01       		.sleb128 1
 3849 042c 9F       		.byte	0x9f
 3850 042d 4C030000 		.4byte	.LVL117
 3851 0431 54030000 		.4byte	.LVL120
 3852 0435 0100     		.2byte	0x1
 3853 0437 5A       		.byte	0x5a
 3854 0438 54030000 		.4byte	.LVL120
 3855 043c 60030000 		.4byte	.LVL121
 3856 0440 0200     		.2byte	0x2
 3857 0442 77       		.byte	0x77
 3858 0443 7C       		.sleb128 -4
 3859 0444 60030000 		.4byte	.LVL121
 3860 0448 7E030000 		.4byte	.LVL125
 3861 044c 0300     		.2byte	0x3
 3862 044e 91       		.byte	0x91
 3863 044f B07F     		.sleb128 -80
 3864 0451 7E030000 		.4byte	.LVL125
 3865 0455 94030000 		.4byte	.LFE260
 3866 0459 0200     		.2byte	0x2
 3867 045b 77       		.byte	0x77
 3868 045c 7C       		.sleb128 -4
 3869 045d 00000000 		.4byte	0
 3870 0461 00000000 		.4byte	0
 3871              	.LLST13:
 3872 0465 28000000 		.4byte	.LVL23
 3873 0469 2A000000 		.4byte	.LVL24
ARM GAS  /tmp/ccU3pGdw.s 			page 69


 3874 046d 0200     		.2byte	0x2
 3875 046f 74       		.byte	0x74
 3876 0470 00       		.sleb128 0
 3877 0471 40000000 		.4byte	.LVL28
 3878 0475 44000000 		.4byte	.LVL29
 3879 0479 0200     		.2byte	0x2
 3880 047b 74       		.byte	0x74
 3881 047c 00       		.sleb128 0
 3882 047d 76000000 		.4byte	.LVL36
 3883 0481 78000000 		.4byte	.LVL37
 3884 0485 0100     		.2byte	0x1
 3885 0487 52       		.byte	0x52
 3886 0488 78000000 		.4byte	.LVL37
 3887 048c 7A000000 		.4byte	.LVL38
 3888 0490 0200     		.2byte	0x2
 3889 0492 77       		.byte	0x77
 3890 0493 00       		.sleb128 0
 3891 0494 7A000000 		.4byte	.LVL38
 3892 0498 84000000 		.4byte	.LVL40
 3893 049c 0100     		.2byte	0x1
 3894 049e 53       		.byte	0x53
 3895 049f 90000000 		.4byte	.LVL41
 3896 04a3 1E010000 		.4byte	.LVL45
 3897 04a7 0100     		.2byte	0x1
 3898 04a9 52       		.byte	0x52
 3899 04aa 1E010000 		.4byte	.LVL45
 3900 04ae 20010000 		.4byte	.LVL46
 3901 04b2 0200     		.2byte	0x2
 3902 04b4 74       		.byte	0x74
 3903 04b5 7F       		.sleb128 -1
 3904 04b6 20010000 		.4byte	.LVL46
 3905 04ba 22010000 		.4byte	.LVL47
 3906 04be 0200     		.2byte	0x2
 3907 04c0 77       		.byte	0x77
 3908 04c1 00       		.sleb128 0
 3909 04c2 22010000 		.4byte	.LVL47
 3910 04c6 2A010000 		.4byte	.LVL49
 3911 04ca 0100     		.2byte	0x1
 3912 04cc 53       		.byte	0x53
 3913 04cd 2E010000 		.4byte	.LVL50
 3914 04d1 44010000 		.4byte	.LVL52
 3915 04d5 0200     		.2byte	0x2
 3916 04d7 74       		.byte	0x74
 3917 04d8 7F       		.sleb128 -1
 3918 04d9 4C010000 		.4byte	.LVL53
 3919 04dd 50010000 		.4byte	.LVL54
 3920 04e1 0200     		.2byte	0x2
 3921 04e3 74       		.byte	0x74
 3922 04e4 7F       		.sleb128 -1
 3923 04e5 50010000 		.4byte	.LVL54
 3924 04e9 52010000 		.4byte	.LVL55
 3925 04ed 0100     		.2byte	0x1
 3926 04ef 52       		.byte	0x52
 3927 04f0 EE010000 		.4byte	.LVL76
 3928 04f4 1C020000 		.4byte	.LVL79
 3929 04f8 0100     		.2byte	0x1
 3930 04fa 52       		.byte	0x52
ARM GAS  /tmp/ccU3pGdw.s 			page 70


 3931 04fb 36020000 		.4byte	.LVL83
 3932 04ff 38020000 		.4byte	.LVL84
 3933 0503 0100     		.2byte	0x1
 3934 0505 52       		.byte	0x52
 3935 0506 38020000 		.4byte	.LVL84
 3936 050a 3A020000 		.4byte	.LVL85
 3937 050e 0400     		.2byte	0x4
 3938 0510 73       		.byte	0x73
 3939 0511 C400     		.sleb128 68
 3940 0513 9F       		.byte	0x9f
 3941 0514 3A020000 		.4byte	.LVL85
 3942 0518 4B020000 		.4byte	.LVL88-1
 3943 051c 0100     		.2byte	0x1
 3944 051e 52       		.byte	0x52
 3945 051f E2020000 		.4byte	.LVL101
 3946 0523 EC020000 		.4byte	.LVL102
 3947 0527 0100     		.2byte	0x1
 3948 0529 52       		.byte	0x52
 3949 052a F8020000 		.4byte	.LVL104
 3950 052e FC020000 		.4byte	.LVL105
 3951 0532 0200     		.2byte	0x2
 3952 0534 38       		.byte	0x38
 3953 0535 9F       		.byte	0x9f
 3954 0536 FC020000 		.4byte	.LVL105
 3955 053a 0A030000 		.4byte	.LVL109
 3956 053e 0100     		.2byte	0x1
 3957 0540 52       		.byte	0x52
 3958 0541 26030000 		.4byte	.LVL111
 3959 0545 2E030000 		.4byte	.LVL112
 3960 0549 0100     		.2byte	0x1
 3961 054b 52       		.byte	0x52
 3962 054c 2E030000 		.4byte	.LVL112
 3963 0550 36030000 		.4byte	.LVL113
 3964 0554 0400     		.2byte	0x4
 3965 0556 73       		.byte	0x73
 3966 0557 C400     		.sleb128 68
 3967 0559 9F       		.byte	0x9f
 3968 055a 60030000 		.4byte	.LVL121
 3969 055e 6E030000 		.4byte	.LVL123
 3970 0562 0100     		.2byte	0x1
 3971 0564 52       		.byte	0x52
 3972 0565 7E030000 		.4byte	.LVL125
 3973 0569 94030000 		.4byte	.LFE260
 3974 056d 0100     		.2byte	0x1
 3975 056f 52       		.byte	0x52
 3976 0570 00000000 		.4byte	0
 3977 0574 00000000 		.4byte	0
 3978              	.LLST14:
 3979 0578 62000000 		.4byte	.LVL33
 3980 057c 6E000000 		.4byte	.LVL35
 3981 0580 0300     		.2byte	0x3
 3982 0582 08       		.byte	0x8
 3983 0583 30       		.byte	0x30
 3984 0584 9F       		.byte	0x9f
 3985 0585 6E000000 		.4byte	.LVL35
 3986 0589 EE010000 		.4byte	.LVL76
 3987 058d 0100     		.2byte	0x1
ARM GAS  /tmp/ccU3pGdw.s 			page 71


 3988 058f 55       		.byte	0x55
 3989 0590 EE010000 		.4byte	.LVL76
 3990 0594 36020000 		.4byte	.LVL83
 3991 0598 0300     		.2byte	0x3
 3992 059a 08       		.byte	0x8
 3993 059b 20       		.byte	0x20
 3994 059c 9F       		.byte	0x9f
 3995 059d 36020000 		.4byte	.LVL83
 3996 05a1 E2020000 		.4byte	.LVL101
 3997 05a5 0100     		.2byte	0x1
 3998 05a7 55       		.byte	0x55
 3999 05a8 E2020000 		.4byte	.LVL101
 4000 05ac F8020000 		.4byte	.LVL104
 4001 05b0 0300     		.2byte	0x3
 4002 05b2 08       		.byte	0x8
 4003 05b3 20       		.byte	0x20
 4004 05b4 9F       		.byte	0x9f
 4005 05b5 F8020000 		.4byte	.LVL104
 4006 05b9 54030000 		.4byte	.LVL120
 4007 05bd 0100     		.2byte	0x1
 4008 05bf 55       		.byte	0x55
 4009 05c0 54030000 		.4byte	.LVL120
 4010 05c4 60030000 		.4byte	.LVL121
 4011 05c8 0300     		.2byte	0x3
 4012 05ca 08       		.byte	0x8
 4013 05cb 20       		.byte	0x20
 4014 05cc 9F       		.byte	0x9f
 4015 05cd 60030000 		.4byte	.LVL121
 4016 05d1 7E030000 		.4byte	.LVL125
 4017 05d5 0100     		.2byte	0x1
 4018 05d7 55       		.byte	0x55
 4019 05d8 7E030000 		.4byte	.LVL125
 4020 05dc 94030000 		.4byte	.LFE260
 4021 05e0 0300     		.2byte	0x3
 4022 05e2 08       		.byte	0x8
 4023 05e3 20       		.byte	0x20
 4024 05e4 9F       		.byte	0x9f
 4025 05e5 00000000 		.4byte	0
 4026 05e9 00000000 		.4byte	0
 4027              	.LLST15:
 4028 05ed 72010000 		.4byte	.LVL60
 4029 05f1 94010000 		.4byte	.LVL64
 4030 05f5 0100     		.2byte	0x1
 4031 05f7 50       		.byte	0x50
 4032 05f8 AC010000 		.4byte	.LVL68
 4033 05fc B8010000 		.4byte	.LVL69
 4034 0600 0300     		.2byte	0x3
 4035 0602 91       		.byte	0x91
 4036 0603 A87F     		.sleb128 -88
 4037 0605 36030000 		.4byte	.LVL113
 4038 0609 40030000 		.4byte	.LVL115
 4039 060d 0100     		.2byte	0x1
 4040 060f 50       		.byte	0x50
 4041 0610 50030000 		.4byte	.LVL118
 4042 0614 52030000 		.4byte	.LVL119
 4043 0618 0300     		.2byte	0x3
 4044 061a 91       		.byte	0x91
ARM GAS  /tmp/ccU3pGdw.s 			page 72


 4045 061b A87F     		.sleb128 -88
 4046 061d 52030000 		.4byte	.LVL119
 4047 0621 54030000 		.4byte	.LVL120
 4048 0625 0300     		.2byte	0x3
 4049 0627 72       		.byte	0x72
 4050 0628 01       		.sleb128 1
 4051 0629 9F       		.byte	0x9f
 4052 062a 00000000 		.4byte	0
 4053 062e 00000000 		.4byte	0
 4054              	.LLST16:
 4055 0632 96000000 		.4byte	.LVL42
 4056 0636 9E000000 		.4byte	.LVL43
 4057 063a 0200     		.2byte	0x2
 4058 063c 30       		.byte	0x30
 4059 063d 9F       		.byte	0x9f
 4060 063e 26010000 		.4byte	.LVL48
 4061 0642 2A010000 		.4byte	.LVL49
 4062 0646 0500     		.2byte	0x5
 4063 0648 7B       		.byte	0x7b
 4064 0649 00       		.sleb128 0
 4065 064a 31       		.byte	0x31
 4066 064b 24       		.byte	0x24
 4067 064c 9F       		.byte	0x9f
 4068 064d 00000000 		.4byte	0
 4069 0651 00000000 		.4byte	0
 4070              	.LLST17:
 4071 0655 6E000000 		.4byte	.LVL35
 4072 0659 76000000 		.4byte	.LVL36
 4073 065d 0200     		.2byte	0x2
 4074 065f 30       		.byte	0x30
 4075 0660 9F       		.byte	0x9f
 4076 0661 76000000 		.4byte	.LVL36
 4077 0665 7E000000 		.4byte	.LVL39
 4078 0669 0100     		.2byte	0x1
 4079 066b 59       		.byte	0x59
 4080 066c 84000000 		.4byte	.LVL40
 4081 0670 96010000 		.4byte	.LVL65
 4082 0674 0100     		.2byte	0x1
 4083 0676 59       		.byte	0x59
 4084 0677 96010000 		.4byte	.LVL65
 4085 067b A0010000 		.4byte	.LVL66
 4086 067f 0100     		.2byte	0x1
 4087 0681 5B       		.byte	0x5b
 4088 0682 A0010000 		.4byte	.LVL66
 4089 0686 A4010000 		.4byte	.LVL67
 4090 068a 0300     		.2byte	0x3
 4091 068c 7B       		.byte	0x7b
 4092 068d 01       		.sleb128 1
 4093 068e 9F       		.byte	0x9f
 4094 068f A4010000 		.4byte	.LVL67
 4095 0693 AC010000 		.4byte	.LVL68
 4096 0697 0100     		.2byte	0x1
 4097 0699 5B       		.byte	0x5b
 4098 069a AC010000 		.4byte	.LVL68
 4099 069e B8010000 		.4byte	.LVL69
 4100 06a2 0100     		.2byte	0x1
 4101 06a4 59       		.byte	0x59
ARM GAS  /tmp/ccU3pGdw.s 			page 73


 4102 06a5 D0010000 		.4byte	.LVL72
 4103 06a9 DA010000 		.4byte	.LVL73
 4104 06ad 0100     		.2byte	0x1
 4105 06af 59       		.byte	0x59
 4106 06b0 DA010000 		.4byte	.LVL73
 4107 06b4 E4010000 		.4byte	.LVL74
 4108 06b8 0100     		.2byte	0x1
 4109 06ba 5A       		.byte	0x5a
 4110 06bb E4010000 		.4byte	.LVL74
 4111 06bf E8010000 		.4byte	.LVL75
 4112 06c3 0300     		.2byte	0x3
 4113 06c5 7A       		.byte	0x7a
 4114 06c6 7F       		.sleb128 -1
 4115 06c7 9F       		.byte	0x9f
 4116 06c8 E8010000 		.4byte	.LVL75
 4117 06cc EE010000 		.4byte	.LVL76
 4118 06d0 0100     		.2byte	0x1
 4119 06d2 5A       		.byte	0x5a
 4120 06d3 EE010000 		.4byte	.LVL76
 4121 06d7 94030000 		.4byte	.LFE260
 4122 06db 0100     		.2byte	0x1
 4123 06dd 59       		.byte	0x59
 4124 06de 00000000 		.4byte	0
 4125 06e2 00000000 		.4byte	0
 4126              	.LLST18:
 4127 06e6 1E000000 		.4byte	.LVL21
 4128 06ea 24000000 		.4byte	.LVL22
 4129 06ee 0200     		.2byte	0x2
 4130 06f0 30       		.byte	0x30
 4131 06f1 9F       		.byte	0x9f
 4132 06f2 24000000 		.4byte	.LVL22
 4133 06f6 96010000 		.4byte	.LVL65
 4134 06fa 0100     		.2byte	0x1
 4135 06fc 58       		.byte	0x58
 4136 06fd AC010000 		.4byte	.LVL68
 4137 0701 B8010000 		.4byte	.LVL69
 4138 0705 0100     		.2byte	0x1
 4139 0707 58       		.byte	0x58
 4140 0708 D0010000 		.4byte	.LVL72
 4141 070c DA010000 		.4byte	.LVL73
 4142 0710 0100     		.2byte	0x1
 4143 0712 58       		.byte	0x58
 4144 0713 EE010000 		.4byte	.LVL76
 4145 0717 94030000 		.4byte	.LFE260
 4146 071b 0100     		.2byte	0x1
 4147 071d 58       		.byte	0x58
 4148 071e 00000000 		.4byte	0
 4149 0722 00000000 		.4byte	0
 4150              	.LLST19:
 4151 0726 44010000 		.4byte	.LVL52
 4152 072a 50010000 		.4byte	.LVL54
 4153 072e 0200     		.2byte	0x2
 4154 0730 31       		.byte	0x31
 4155 0731 9F       		.byte	0x9f
 4156 0732 00000000 		.4byte	0
 4157 0736 00000000 		.4byte	0
 4158              	.LLST20:
ARM GAS  /tmp/ccU3pGdw.s 			page 74


 4159 073a 50000000 		.4byte	.LVL30
 4160 073e 5A000000 		.4byte	.LVL32
 4161 0742 0200     		.2byte	0x2
 4162 0744 30       		.byte	0x30
 4163 0745 9F       		.byte	0x9f
 4164 0746 5A000000 		.4byte	.LVL32
 4165 074a 62000000 		.4byte	.LVL33
 4166 074e 0200     		.2byte	0x2
 4167 0750 31       		.byte	0x31
 4168 0751 9F       		.byte	0x9f
 4169 0752 62000000 		.4byte	.LVL33
 4170 0756 5E010000 		.4byte	.LVL58
 4171 075a 0100     		.2byte	0x1
 4172 075c 5C       		.byte	0x5c
 4173 075d EE010000 		.4byte	.LVL76
 4174 0761 4B020000 		.4byte	.LVL88-1
 4175 0765 0100     		.2byte	0x1
 4176 0767 5C       		.byte	0x5c
 4177 0768 60020000 		.4byte	.LVL90
 4178 076c 8F020000 		.4byte	.LVL93-1
 4179 0770 0100     		.2byte	0x1
 4180 0772 5C       		.byte	0x5c
 4181 0773 E2020000 		.4byte	.LVL101
 4182 0777 13030000 		.4byte	.LVL110-1
 4183 077b 0100     		.2byte	0x1
 4184 077d 5C       		.byte	0x5c
 4185 077e 26030000 		.4byte	.LVL111
 4186 0782 36030000 		.4byte	.LVL113
 4187 0786 0100     		.2byte	0x1
 4188 0788 5C       		.byte	0x5c
 4189 0789 54030000 		.4byte	.LVL120
 4190 078d 94030000 		.4byte	.LFE260
 4191 0791 0100     		.2byte	0x1
 4192 0793 5C       		.byte	0x5c
 4193 0794 00000000 		.4byte	0
 4194 0798 00000000 		.4byte	0
 4195              	.LLST21:
 4196 079c 54010000 		.4byte	.LVL56
 4197 07a0 5E010000 		.4byte	.LVL58
 4198 07a4 0100     		.2byte	0x1
 4199 07a6 51       		.byte	0x51
 4200 07a7 FE020000 		.4byte	.LVL106
 4201 07ab 13030000 		.4byte	.LVL110-1
 4202 07af 0100     		.2byte	0x1
 4203 07b1 51       		.byte	0x51
 4204 07b2 60030000 		.4byte	.LVL121
 4205 07b6 6E030000 		.4byte	.LVL123
 4206 07ba 0100     		.2byte	0x1
 4207 07bc 51       		.byte	0x51
 4208 07bd 00000000 		.4byte	0
 4209 07c1 00000000 		.4byte	0
 4210              	.LLST22:
 4211 07c5 5C020000 		.4byte	.LVL89
 4212 07c9 66020000 		.4byte	.LVL91
 4213 07cd 0100     		.2byte	0x1
 4214 07cf 50       		.byte	0x50
 4215 07d0 66020000 		.4byte	.LVL91
ARM GAS  /tmp/ccU3pGdw.s 			page 75


 4216 07d4 E2020000 		.4byte	.LVL101
 4217 07d8 0200     		.2byte	0x2
 4218 07da 90       		.byte	0x90
 4219 07db 50       		.uleb128 0x50
 4220 07dc 6E030000 		.4byte	.LVL123
 4221 07e0 74030000 		.4byte	.LVL124
 4222 07e4 0100     		.2byte	0x1
 4223 07e6 50       		.byte	0x50
 4224 07e7 74030000 		.4byte	.LVL124
 4225 07eb 7E030000 		.4byte	.LVL125
 4226 07ef 0200     		.2byte	0x2
 4227 07f1 90       		.byte	0x90
 4228 07f2 50       		.uleb128 0x50
 4229 07f3 00000000 		.4byte	0
 4230 07f7 00000000 		.4byte	0
 4231              	.LLST23:
 4232 07fb 5A010000 		.4byte	.LVL57
 4233 07ff 5E010000 		.4byte	.LVL58
 4234 0803 0100     		.2byte	0x1
 4235 0805 52       		.byte	0x52
 4236 0806 00000000 		.4byte	0
 4237 080a 00000000 		.4byte	0
 4238              	.LLST24:
 4239 080e 5A010000 		.4byte	.LVL57
 4240 0812 5E010000 		.4byte	.LVL58
 4241 0816 0100     		.2byte	0x1
 4242 0818 51       		.byte	0x51
 4243 0819 00000000 		.4byte	0
 4244 081d 00000000 		.4byte	0
 4245              	.LLST25:
 4246 0821 5A010000 		.4byte	.LVL57
 4247 0825 5E010000 		.4byte	.LVL58
 4248 0829 0300     		.2byte	0x3
 4249 082b 91       		.byte	0x91
 4250 082c B07F     		.sleb128 -80
 4251 082e 00000000 		.4byte	0
 4252 0832 00000000 		.4byte	0
 4253              	.LLST26:
 4254 0836 8C020000 		.4byte	.LVL92
 4255 083a E2020000 		.4byte	.LVL101
 4256 083e 0100     		.2byte	0x1
 4257 0840 5B       		.byte	0x5b
 4258 0841 00000000 		.4byte	0
 4259 0845 00000000 		.4byte	0
 4260              	.LLST27:
 4261 0849 66020000 		.4byte	.LVL91
 4262 084d E2020000 		.4byte	.LVL101
 4263 0851 0600     		.2byte	0x6
 4264 0853 F5       		.byte	0xf5
 4265 0854 50       		.uleb128 0x50
 4266 0855 33       		.uleb128 0x33
 4267 0856 F7       		.byte	0xf7
 4268 0857 25       		.uleb128 0x25
 4269 0858 9F       		.byte	0x9f
 4270 0859 00000000 		.4byte	0
 4271 085d 00000000 		.4byte	0
 4272              	.LLST28:
ARM GAS  /tmp/ccU3pGdw.s 			page 76


 4273 0861 66020000 		.4byte	.LVL91
 4274 0865 8F020000 		.4byte	.LVL93-1
 4275 0869 0100     		.2byte	0x1
 4276 086b 50       		.byte	0x50
 4277 086c 90020000 		.4byte	.LVL93
 4278 0870 98020000 		.4byte	.LVL94
 4279 0874 0300     		.2byte	0x3
 4280 0876 70       		.byte	0x70
 4281 0877 01       		.sleb128 1
 4282 0878 9F       		.byte	0x9f
 4283 0879 98020000 		.4byte	.LVL94
 4284 087d E2020000 		.4byte	.LVL101
 4285 0881 0100     		.2byte	0x1
 4286 0883 5A       		.byte	0x5a
 4287 0884 00000000 		.4byte	0
 4288 0888 00000000 		.4byte	0
 4289              	.LLST29:
 4290 088c 8C020000 		.4byte	.LVL92
 4291 0890 8F020000 		.4byte	.LVL93-1
 4292 0894 0100     		.2byte	0x1
 4293 0896 51       		.byte	0x51
 4294 0897 8F020000 		.4byte	.LVL93-1
 4295 089b CE020000 		.4byte	.LVL99
 4296 089f 0200     		.2byte	0x2
 4297 08a1 90       		.byte	0x90
 4298 08a2 51       		.uleb128 0x51
 4299 08a3 CE020000 		.4byte	.LVL99
 4300 08a7 D1020000 		.4byte	.LVL100-1
 4301 08ab 0800     		.2byte	0x8
 4302 08ad F5       		.byte	0xf5
 4303 08ae 00       		.uleb128 0
 4304 08af 25       		.uleb128 0x25
 4305 08b0 F7       		.byte	0xf7
 4306 08b1 2C       		.uleb128 0x2c
 4307 08b2 F7       		.byte	0xf7
 4308 08b3 00       		.uleb128 0
 4309 08b4 9F       		.byte	0x9f
 4310 08b5 00000000 		.4byte	0
 4311 08b9 00000000 		.4byte	0
 4312              	.LLST30:
 4313 08bd 08030000 		.4byte	.LVL108
 4314 08c1 26030000 		.4byte	.LVL111
 4315 08c5 0200     		.2byte	0x2
 4316 08c7 3A       		.byte	0x3a
 4317 08c8 9F       		.byte	0x9f
 4318 08c9 00000000 		.4byte	0
 4319 08cd 00000000 		.4byte	0
 4320              	.LLST31:
 4321 08d1 08030000 		.4byte	.LVL108
 4322 08d5 13030000 		.4byte	.LVL110-1
 4323 08d9 0100     		.2byte	0x1
 4324 08db 51       		.byte	0x51
 4325 08dc 00000000 		.4byte	0
 4326 08e0 00000000 		.4byte	0
 4327              	.LLST32:
 4328 08e4 08030000 		.4byte	.LVL108
 4329 08e8 13030000 		.4byte	.LVL110-1
ARM GAS  /tmp/ccU3pGdw.s 			page 77


 4330 08ec 0100     		.2byte	0x1
 4331 08ee 50       		.byte	0x50
 4332 08ef 00000000 		.4byte	0
 4333 08f3 00000000 		.4byte	0
 4334              	.LLST33:
 4335 08f7 00000000 		.4byte	.LVL126
 4336 08fb 10000000 		.4byte	.LVL128
 4337 08ff 0100     		.2byte	0x1
 4338 0901 50       		.byte	0x50
 4339 0902 10000000 		.4byte	.LVL128
 4340 0906 38000000 		.4byte	.LVL134
 4341 090a 0100     		.2byte	0x1
 4342 090c 55       		.byte	0x55
 4343 090d 38000000 		.4byte	.LVL134
 4344 0911 3C000000 		.4byte	.LVL135
 4345 0915 0400     		.2byte	0x4
 4346 0917 F3       		.byte	0xf3
 4347 0918 01       		.uleb128 0x1
 4348 0919 50       		.byte	0x50
 4349 091a 9F       		.byte	0x9f
 4350 091b 3C000000 		.4byte	.LVL135
 4351 091f 44000000 		.4byte	.LVL137
 4352 0923 0100     		.2byte	0x1
 4353 0925 50       		.byte	0x50
 4354 0926 44000000 		.4byte	.LVL137
 4355 092a 5C000000 		.4byte	.LVL141
 4356 092e 0100     		.2byte	0x1
 4357 0930 55       		.byte	0x55
 4358 0931 5C000000 		.4byte	.LVL141
 4359 0935 60000000 		.4byte	.LFE261
 4360 0939 0400     		.2byte	0x4
 4361 093b F3       		.byte	0xf3
 4362 093c 01       		.uleb128 0x1
 4363 093d 50       		.byte	0x50
 4364 093e 9F       		.byte	0x9f
 4365 093f 00000000 		.4byte	0
 4366 0943 00000000 		.4byte	0
 4367              	.LLST34:
 4368 0947 00000000 		.4byte	.LVL126
 4369 094b 12000000 		.4byte	.LVL129
 4370 094f 0100     		.2byte	0x1
 4371 0951 51       		.byte	0x51
 4372 0952 12000000 		.4byte	.LVL129
 4373 0956 38000000 		.4byte	.LVL134
 4374 095a 0100     		.2byte	0x1
 4375 095c 54       		.byte	0x54
 4376 095d 38000000 		.4byte	.LVL134
 4377 0961 3C000000 		.4byte	.LVL135
 4378 0965 0400     		.2byte	0x4
 4379 0967 F3       		.byte	0xf3
 4380 0968 01       		.uleb128 0x1
 4381 0969 51       		.byte	0x51
 4382 096a 9F       		.byte	0x9f
 4383 096b 3C000000 		.4byte	.LVL135
 4384 096f 42000000 		.4byte	.LVL136
 4385 0973 0100     		.2byte	0x1
 4386 0975 51       		.byte	0x51
ARM GAS  /tmp/ccU3pGdw.s 			page 78


 4387 0976 42000000 		.4byte	.LVL136
 4388 097a 5C000000 		.4byte	.LVL141
 4389 097e 0100     		.2byte	0x1
 4390 0980 54       		.byte	0x54
 4391 0981 5C000000 		.4byte	.LVL141
 4392 0985 60000000 		.4byte	.LFE261
 4393 0989 0400     		.2byte	0x4
 4394 098b F3       		.byte	0xf3
 4395 098c 01       		.uleb128 0x1
 4396 098d 51       		.byte	0x51
 4397 098e 9F       		.byte	0x9f
 4398 098f 00000000 		.4byte	0
 4399 0993 00000000 		.4byte	0
 4400              	.LLST35:
 4401 0997 1A000000 		.4byte	.LVL131
 4402 099b 20000000 		.4byte	.LVL132
 4403 099f 0300     		.2byte	0x3
 4404 09a1 91       		.byte	0x91
 4405 09a2 44       		.sleb128 -60
 4406 09a3 9F       		.byte	0x9f
 4407 09a4 20000000 		.4byte	.LVL132
 4408 09a8 27000000 		.4byte	.LVL133-1
 4409 09ac 0100     		.2byte	0x1
 4410 09ae 50       		.byte	0x50
 4411 09af 27000000 		.4byte	.LVL133-1
 4412 09b3 3C000000 		.4byte	.LVL135
 4413 09b7 0300     		.2byte	0x3
 4414 09b9 91       		.byte	0x91
 4415 09ba 44       		.sleb128 -60
 4416 09bb 9F       		.byte	0x9f
 4417 09bc 48000000 		.4byte	.LVL138
 4418 09c0 4C000000 		.4byte	.LVL139
 4419 09c4 0300     		.2byte	0x3
 4420 09c6 91       		.byte	0x91
 4421 09c7 44       		.sleb128 -60
 4422 09c8 9F       		.byte	0x9f
 4423 09c9 4C000000 		.4byte	.LVL139
 4424 09cd 55000000 		.4byte	.LVL140-1
 4425 09d1 0100     		.2byte	0x1
 4426 09d3 50       		.byte	0x50
 4427 09d4 55000000 		.4byte	.LVL140-1
 4428 09d8 60000000 		.4byte	.LFE261
 4429 09dc 0300     		.2byte	0x3
 4430 09de 91       		.byte	0x91
 4431 09df 44       		.sleb128 -60
 4432 09e0 9F       		.byte	0x9f
 4433 09e1 00000000 		.4byte	0
 4434 09e5 00000000 		.4byte	0
 4435              	.LLST36:
 4436 09e9 0E000000 		.4byte	.LVL127
 4437 09ed 12000000 		.4byte	.LVL129
 4438 09f1 0300     		.2byte	0x3
 4439 09f3 71       		.byte	0x71
 4440 09f4 7F       		.sleb128 -1
 4441 09f5 9F       		.byte	0x9f
 4442 09f6 12000000 		.4byte	.LVL129
 4443 09fa 14000000 		.4byte	.LVL130
ARM GAS  /tmp/ccU3pGdw.s 			page 79


 4444 09fe 0300     		.2byte	0x3
 4445 0a00 74       		.byte	0x74
 4446 0a01 7F       		.sleb128 -1
 4447 0a02 9F       		.byte	0x9f
 4448 0a03 14000000 		.4byte	.LVL130
 4449 0a07 19000000 		.4byte	.LVL131-1
 4450 0a0b 0100     		.2byte	0x1
 4451 0a0d 52       		.byte	0x52
 4452 0a0e 19000000 		.4byte	.LVL131-1
 4453 0a12 38000000 		.4byte	.LVL134
 4454 0a16 0300     		.2byte	0x3
 4455 0a18 74       		.byte	0x74
 4456 0a19 7F       		.sleb128 -1
 4457 0a1a 9F       		.byte	0x9f
 4458 0a1b 38000000 		.4byte	.LVL134
 4459 0a1f 3C000000 		.4byte	.LVL135
 4460 0a23 0600     		.2byte	0x6
 4461 0a25 F3       		.byte	0xf3
 4462 0a26 01       		.uleb128 0x1
 4463 0a27 51       		.byte	0x51
 4464 0a28 31       		.byte	0x31
 4465 0a29 1C       		.byte	0x1c
 4466 0a2a 9F       		.byte	0x9f
 4467 0a2b 3C000000 		.4byte	.LVL135
 4468 0a2f 60000000 		.4byte	.LFE261
 4469 0a33 0200     		.2byte	0x2
 4470 0a35 30       		.byte	0x30
 4471 0a36 9F       		.byte	0x9f
 4472 0a37 00000000 		.4byte	0
 4473 0a3b 00000000 		.4byte	0
 4474              	.LLST37:
 4475 0a3f 28000000 		.4byte	.LVL133
 4476 0a43 3C000000 		.4byte	.LVL135
 4477 0a47 0100     		.2byte	0x1
 4478 0a49 50       		.byte	0x50
 4479 0a4a 56000000 		.4byte	.LVL140
 4480 0a4e 60000000 		.4byte	.LFE261
 4481 0a52 0100     		.2byte	0x1
 4482 0a54 50       		.byte	0x50
 4483 0a55 00000000 		.4byte	0
 4484 0a59 00000000 		.4byte	0
 4485              		.section	.debug_aranges,"",%progbits
 4486 0000 2C000000 		.4byte	0x2c
 4487 0004 0200     		.2byte	0x2
 4488 0006 00000000 		.4byte	.Ldebug_info0
 4489 000a 04       		.byte	0x4
 4490 000b 00       		.byte	0
 4491 000c 0000     		.2byte	0
 4492 000e 0000     		.2byte	0
 4493 0010 00000000 		.4byte	.LFB257
 4494 0014 4E000000 		.4byte	.LFE257-.LFB257
 4495 0018 00000000 		.4byte	.LFB260
 4496 001c 94030000 		.4byte	.LFE260-.LFB260
 4497 0020 00000000 		.4byte	.LFB261
 4498 0024 60000000 		.4byte	.LFE261-.LFB261
 4499 0028 00000000 		.4byte	0
 4500 002c 00000000 		.4byte	0
ARM GAS  /tmp/ccU3pGdw.s 			page 80


 4501              		.section	.debug_ranges,"",%progbits
 4502              	.Ldebug_ranges0:
 4503 0000 54010000 		.4byte	.LBB12
 4504 0004 58010000 		.4byte	.LBE12
 4505 0008 5A010000 		.4byte	.LBB15
 4506 000c 64010000 		.4byte	.LBE15
 4507 0010 00000000 		.4byte	0
 4508 0014 00000000 		.4byte	0
 4509 0018 66020000 		.4byte	.LBB16
 4510 001c 98020000 		.4byte	.LBE16
 4511 0020 A4020000 		.4byte	.LBB19
 4512 0024 E4020000 		.4byte	.LBE19
 4513 0028 00000000 		.4byte	0
 4514 002c 00000000 		.4byte	0
 4515 0030 00000000 		.4byte	.LFB257
 4516 0034 4E000000 		.4byte	.LFE257
 4517 0038 00000000 		.4byte	.LFB260
 4518 003c 94030000 		.4byte	.LFE260
 4519 0040 00000000 		.4byte	.LFB261
 4520 0044 60000000 		.4byte	.LFE261
 4521 0048 00000000 		.4byte	0
 4522 004c 00000000 		.4byte	0
 4523              		.section	.debug_line,"",%progbits
 4524              	.Ldebug_line0:
 4525 0000 6B030000 		.section	.debug_str,"MS",%progbits,1
 4525      02000002 
 4525      00000201 
 4525      FB0E0D00 
 4525      01010101 
 4526              	.LASF56:
 4527 0000 72656164 		.ascii	"ready_list_t\000"
 4527      795F6C69 
 4527      73745F74 
 4527      00
 4528              	.LASF4:
 4529 000d 73697A65 		.ascii	"size_t\000"
 4529      5F7400
 4530              	.LASF19:
 4531 0014 75696E74 		.ascii	"uint64_t\000"
 4531      36345F74 
 4531      00
 4532              	.LASF5:
 4533 001d 5F5F7569 		.ascii	"__uint8_t\000"
 4533      6E74385F 
 4533      7400
 4534              	.LASF88:
 4535 0027 706F7274 		.ascii	"port_intctx\000"
 4535      5F696E74 
 4535      63747800 
 4536              	.LASF115:
 4537 0033 76615F6C 		.ascii	"va_list\000"
 4537      69737400 
 4538              	.LASF81:
 4539 003b 76746C69 		.ascii	"vtlist\000"
 4539      737400
 4540              	.LASF123:
 4541 0042 66746F61 		.ascii	"ftoa\000"
ARM GAS  /tmp/ccU3pGdw.s 			page 81


 4541      00
 4542              	.LASF133:
 4543 0047 72657476 		.ascii	"retval\000"
 4543      616C00
 4544              	.LASF137:
 4545 004e 43686962 		.ascii	"ChibiOS_3.0.2/os/hal/lib/streams/chprintf.c\000"
 4545      694F535F 
 4545      332E302E 
 4545      322F6F73 
 4545      2F68616C 
 4546              	.LASF15:
 4547 007a 6C6F6E67 		.ascii	"long long unsigned int\000"
 4547      206C6F6E 
 4547      6720756E 
 4547      7369676E 
 4547      65642069 
 4548              	.LASF82:
 4549 0091 6D61696E 		.ascii	"mainthread\000"
 4549      74687265 
 4549      616400
 4550              	.LASF72:
 4551 009c 76697274 		.ascii	"virtual_timers_list_t\000"
 4551      75616C5F 
 4551      74696D65 
 4551      72735F6C 
 4551      6973745F 
 4552              	.LASF135:
 4553 00b2 49544D5F 		.ascii	"ITM_RxBuffer\000"
 4553      52784275 
 4553      66666572 
 4553      00
 4554              	.LASF132:
 4555 00bf 73697A65 		.ascii	"size_wo_nul\000"
 4555      5F776F5F 
 4555      6E756C00 
 4556              	.LASF55:
 4557 00cb 63685F74 		.ascii	"ch_threads_queue\000"
 4557      68726561 
 4557      64735F71 
 4557      75657565 
 4557      00
 4558              	.LASF33:
 4559 00dc 705F7072 		.ascii	"p_prio\000"
 4559      696F00
 4560              	.LASF13:
 4561 00e3 6C6F6E67 		.ascii	"long long int\000"
 4561      206C6F6E 
 4561      6720696E 
 4561      7400
 4562              	.LASF3:
 4563 00f1 7369676E 		.ascii	"signed char\000"
 4563      65642063 
 4563      68617200 
 4564              	.LASF12:
 4565 00fd 6C6F6E67 		.ascii	"long unsigned int\000"
 4565      20756E73 
 4565      69676E65 
ARM GAS  /tmp/ccU3pGdw.s 			page 82


 4565      6420696E 
 4565      7400
 4566              	.LASF118:
 4567 010f 73697A65 		.ascii	"size\000"
 4567      00
 4568              	.LASF129:
 4569 0114 746D7062 		.ascii	"tmpbuf\000"
 4569      756600
 4570              	.LASF93:
 4571 011b 77746F62 		.ascii	"wtobjp\000"
 4571      6A7000
 4572              	.LASF24:
 4573 0122 74736C69 		.ascii	"tslices_t\000"
 4573      6365735F 
 4573      7400
 4574              	.LASF94:
 4575 012c 77747472 		.ascii	"wttrp\000"
 4575      7000
 4576              	.LASF79:
 4577 0132 63685F73 		.ascii	"ch_system\000"
 4577      79737465 
 4577      6D00
 4578              	.LASF10:
 4579 013c 6C6F6E67 		.ascii	"long int\000"
 4579      20696E74 
 4579      00
 4580              	.LASF22:
 4581 0145 74737461 		.ascii	"tstate_t\000"
 4581      74655F74 
 4581      00
 4582              	.LASF113:
 4583 014e 5F5F7661 		.ascii	"__va_list\000"
 4583      5F6C6973 
 4583      7400
 4584              	.LASF136:
 4585 0158 474E5520 		.ascii	"GNU C 4.8.4 20141219 (release) -mcpu=cortex-m4 -mfl"
 4585      4320342E 
 4585      382E3420 
 4585      32303134 
 4585      31323139 
 4586 018b 6F61742D 		.ascii	"oat-abi=hard -mfpu=fpv4-sp-d16 -mno-thumb-interwork"
 4586      6162693D 
 4586      68617264 
 4586      202D6D66 
 4586      70753D66 
 4587 01be 202D6D74 		.ascii	" -mthumb -ggdb -O2 -std=gnu99 -fomit-frame-pointer "
 4587      68756D62 
 4587      202D6767 
 4587      6462202D 
 4587      4F32202D 
 4588 01f1 2D66616C 		.ascii	"-falign-functions=16 -ffunction-sections -fdata-sec"
 4588      69676E2D 
 4588      66756E63 
 4588      74696F6E 
 4588      733D3136 
 4589 0224 74696F6E 		.ascii	"tions -fno-common -fsingle-precision-constant\000"
 4589      73202D66 
ARM GAS  /tmp/ccU3pGdw.s 			page 83


 4589      6E6F2D63 
 4589      6F6D6D6F 
 4589      6E202D66 
 4590              	.LASF35:
 4591 0252 705F6E65 		.ascii	"p_newer\000"
 4591      77657200 
 4592              	.LASF99:
 4593 025a 735F7175 		.ascii	"s_queue\000"
 4593      65756500 
 4594              	.LASF92:
 4595 0262 65786974 		.ascii	"exitcode\000"
 4595      636F6465 
 4595      00
 4596              	.LASF61:
 4597 026b 725F6E65 		.ascii	"r_newer\000"
 4597      77657200 
 4598              	.LASF49:
 4599 0273 705F6D70 		.ascii	"p_mpool\000"
 4599      6F6F6C00 
 4600              	.LASF85:
 4601 027b 72656761 		.ascii	"regarm_t\000"
 4601      726D5F74 
 4601      00
 4602              	.LASF68:
 4603 0284 76745F70 		.ascii	"vt_prev\000"
 4603      72657600 
 4604              	.LASF125:
 4605 028c 66696C6C 		.ascii	"filler\000"
 4605      657200
 4606              	.LASF138:
 4607 0293 2F686F6D 		.ascii	"/home/taylor/Programming/VESC/firmware\000"
 4607      652F7461 
 4607      796C6F72 
 4607      2F50726F 
 4607      6772616D 
 4608              	.LASF127:
 4609 02ba 69735F6C 		.ascii	"is_long\000"
 4609      6F6E6700 
 4610              	.LASF106:
 4611 02c2 6D757465 		.ascii	"mutex_t\000"
 4611      785F7400 
 4612              	.LASF110:
 4613 02ca 42617365 		.ascii	"BaseSequentialStream\000"
 4613      53657175 
 4613      656E7469 
 4613      616C5374 
 4613      7265616D 
 4614              	.LASF83:
 4615 02df 69646C65 		.ascii	"idle_thread_wa\000"
 4615      5F746872 
 4615      6561645F 
 4615      776100
 4616              	.LASF28:
 4617 02ee 636E745F 		.ascii	"cnt_t\000"
 4617      7400
 4618              	.LASF2:
 4619 02f4 756E7369 		.ascii	"unsigned int\000"
ARM GAS  /tmp/ccU3pGdw.s 			page 84


 4619      676E6564 
 4619      20696E74 
 4619      00
 4620              	.LASF67:
 4621 0301 76745F6E 		.ascii	"vt_next\000"
 4621      65787400 
 4622              	.LASF95:
 4623 0309 77747365 		.ascii	"wtsemp\000"
 4623      6D7000
 4624              	.LASF69:
 4625 0310 76745F64 		.ascii	"vt_delta\000"
 4625      656C7461 
 4625      00
 4626              	.LASF75:
 4627 0319 73797374 		.ascii	"system_debug_t\000"
 4627      656D5F64 
 4627      65627567 
 4627      5F7400
 4628              	.LASF128:
 4629 0328 6C656674 		.ascii	"left_align\000"
 4629      5F616C69 
 4629      676E00
 4630              	.LASF64:
 4631 0333 76746675 		.ascii	"vtfunc_t\000"
 4631      6E635F74 
 4631      00
 4632              	.LASF100:
 4633 033c 735F636E 		.ascii	"s_cnt\000"
 4633      7400
 4634              	.LASF87:
 4635 0342 636F6E74 		.ascii	"context\000"
 4635      65787400 
 4636              	.LASF8:
 4637 034a 73686F72 		.ascii	"short unsigned int\000"
 4637      7420756E 
 4637      7369676E 
 4637      65642069 
 4637      6E7400
 4638              	.LASF52:
 4639 035d 63685F74 		.ascii	"ch_thread\000"
 4639      68726561 
 4639      6400
 4640              	.LASF26:
 4641 0367 6D73675F 		.ascii	"msg_t\000"
 4641      7400
 4642              	.LASF78:
 4643 036d 63685F73 		.ascii	"ch_system_t\000"
 4643      79737465 
 4643      6D5F7400 
 4644              	.LASF21:
 4645 0379 746D6F64 		.ascii	"tmode_t\000"
 4645      655F7400 
 4646              	.LASF57:
 4647 0381 63685F72 		.ascii	"ch_ready_list\000"
 4647      65616479 
 4647      5F6C6973 
 4647      7400
ARM GAS  /tmp/ccU3pGdw.s 			page 85


 4648              	.LASF27:
 4649 038f 6576656E 		.ascii	"eventmask_t\000"
 4649      746D6173 
 4649      6B5F7400 
 4650              	.LASF9:
 4651 039b 5F5F696E 		.ascii	"__int32_t\000"
 4651      7433325F 
 4651      7400
 4652              	.LASF86:
 4653 03a5 73746B61 		.ascii	"stkalign_t\000"
 4653      6C69676E 
 4653      5F7400
 4654              	.LASF141:
 4655 03b0 6D734F62 		.ascii	"msObjectInit\000"
 4655      6A656374 
 4655      496E6974 
 4655      00
 4656              	.LASF108:
 4657 03bd 77726974 		.ascii	"write\000"
 4657      6500
 4658              	.LASF20:
 4659 03c3 7274636E 		.ascii	"rtcnt_t\000"
 4659      745F7400 
 4660              	.LASF73:
 4661 03cb 63685F76 		.ascii	"ch_virtual_timers_list\000"
 4661      69727475 
 4661      616C5F74 
 4661      696D6572 
 4661      735F6C69 
 4662              	.LASF70:
 4663 03e2 76745F66 		.ascii	"vt_func\000"
 4663      756E6300 
 4664              	.LASF140:
 4665 03ea 756E7369 		.ascii	"unsigned_common\000"
 4665      676E6564 
 4665      5F636F6D 
 4665      6D6F6E00 
 4666              	.LASF121:
 4667 03fa 64697669 		.ascii	"divisor\000"
 4667      736F7200 
 4668              	.LASF112:
 4669 0402 5F5F676E 		.ascii	"__gnuc_va_list\000"
 4669      75635F76 
 4669      615F6C69 
 4669      737400
 4670              	.LASF36:
 4671 0411 705F6F6C 		.ascii	"p_older\000"
 4671      64657200 
 4672              	.LASF60:
 4673 0419 725F6374 		.ascii	"r_ctx\000"
 4673      7800
 4674              	.LASF90:
 4675 041f 746D5F63 		.ascii	"tm_calibration_t\000"
 4675      616C6962 
 4675      72617469 
 4675      6F6E5F74 
 4675      00
ARM GAS  /tmp/ccU3pGdw.s 			page 86


 4676              	.LASF40:
 4677 0430 705F7265 		.ascii	"p_refs\000"
 4677      667300
 4678              	.LASF63:
 4679 0437 725F6375 		.ascii	"r_current\000"
 4679      7272656E 
 4679      7400
 4680              	.LASF62:
 4681 0441 725F6F6C 		.ascii	"r_older\000"
 4681      64657200 
 4682              	.LASF116:
 4683 0449 4D656D53 		.ascii	"MemStreamVMT\000"
 4683      74726561 
 4683      6D564D54 
 4683      00
 4684              	.LASF14:
 4685 0456 5F5F7569 		.ascii	"__uint64_t\000"
 4685      6E743634 
 4685      5F7400
 4686              	.LASF1:
 4687 0461 666C6F61 		.ascii	"float\000"
 4687      7400
 4688              	.LASF65:
 4689 0467 76697274 		.ascii	"virtual_timer_t\000"
 4689      75616C5F 
 4689      74696D65 
 4689      725F7400 
 4690              	.LASF32:
 4691 0477 705F7072 		.ascii	"p_prev\000"
 4691      657600
 4692              	.LASF25:
 4693 047e 74707269 		.ascii	"tprio_t\000"
 4693      6F5F7400 
 4694              	.LASF119:
 4695 0486 4D656D6F 		.ascii	"MemoryStream\000"
 4695      72795374 
 4695      7265616D 
 4695      00
 4696              	.LASF37:
 4697 0493 705F6E61 		.ascii	"p_name\000"
 4697      6D6500
 4698              	.LASF76:
 4699 049a 63685F73 		.ascii	"ch_system_debug\000"
 4699      79737465 
 4699      6D5F6465 
 4699      62756700 
 4700              	.LASF111:
 4701 04aa 5F426F6F 		.ascii	"_Bool\000"
 4701      6C00
 4702              	.LASF17:
 4703 04b0 696E7433 		.ascii	"int32_t\000"
 4703      325F7400 
 4704              	.LASF6:
 4705 04b8 756E7369 		.ascii	"unsigned char\000"
 4705      676E6564 
 4705      20636861 
 4705      7200
ARM GAS  /tmp/ccU3pGdw.s 			page 87


 4706              	.LASF102:
 4707 04c6 6D5F7175 		.ascii	"m_queue\000"
 4707      65756500 
 4708              	.LASF134:
 4709 04ce 706F7731 		.ascii	"pow10\000"
 4709      3000
 4710              	.LASF47:
 4711 04d4 705F6D74 		.ascii	"p_mtxlist\000"
 4711      786C6973 
 4711      7400
 4712              	.LASF7:
 4713 04de 73686F72 		.ascii	"short int\000"
 4713      7420696E 
 4713      7400
 4714              	.LASF38:
 4715 04e8 705F7374 		.ascii	"p_state\000"
 4715      61746500 
 4716              	.LASF41:
 4717 04f0 705F7072 		.ascii	"p_preempt\000"
 4717      65656D70 
 4717      7400
 4718              	.LASF59:
 4719 04fa 725F7072 		.ascii	"r_prio\000"
 4719      696F00
 4720              	.LASF97:
 4721 0501 65776D61 		.ascii	"ewmask\000"
 4721      736B00
 4722              	.LASF31:
 4723 0508 705F6E65 		.ascii	"p_next\000"
 4723      787400
 4724              	.LASF107:
 4725 050f 42617365 		.ascii	"BaseSequentialStreamVMT\000"
 4725      53657175 
 4725      656E7469 
 4725      616C5374 
 4725      7265616D 
 4726              	.LASF126:
 4727 0527 77696474 		.ascii	"width\000"
 4727      6800
 4728              	.LASF120:
 4729 052d 72616469 		.ascii	"radix\000"
 4729      7800
 4730              	.LASF91:
 4731 0533 7264796D 		.ascii	"rdymsg\000"
 4731      736700
 4732              	.LASF66:
 4733 053a 63685F76 		.ascii	"ch_virtual_timer\000"
 4733      69727475 
 4733      616C5F74 
 4733      696D6572 
 4733      00
 4734              	.LASF98:
 4735 054b 63685F73 		.ascii	"ch_semaphore\000"
 4735      656D6170 
 4735      686F7265 
 4735      00
 4736              	.LASF46:
ARM GAS  /tmp/ccU3pGdw.s 			page 88


 4737 0558 705F6570 		.ascii	"p_epending\000"
 4737      656E6469 
 4737      6E6700
 4738              	.LASF18:
 4739 0563 75696E74 		.ascii	"uint32_t\000"
 4739      33325F74 
 4739      00
 4740              	.LASF96:
 4741 056c 77746D74 		.ascii	"wtmtxp\000"
 4741      787000
 4742              	.LASF58:
 4743 0573 725F7175 		.ascii	"r_queue\000"
 4743      65756500 
 4744              	.LASF74:
 4745 057b 76745F73 		.ascii	"vt_systime\000"
 4745      79737469 
 4745      6D6500
 4746              	.LASF53:
 4747 0586 63685F74 		.ascii	"ch_threads_list\000"
 4747      68726561 
 4747      64735F6C 
 4747      69737400 
 4748              	.LASF131:
 4749 0596 6368736E 		.ascii	"chsnprintf\000"
 4749      7072696E 
 4749      746600
 4750              	.LASF105:
 4751 05a1 63686172 		.ascii	"char\000"
 4751      00
 4752              	.LASF124:
 4753 05a6 70726563 		.ascii	"precision\000"
 4753      6973696F 
 4753      6E00
 4754              	.LASF30:
 4755 05b0 74687265 		.ascii	"thread_t\000"
 4755      61645F74 
 4755      00
 4756              	.LASF104:
 4757 05b9 6D5F6E65 		.ascii	"m_next\000"
 4757      787400
 4758              	.LASF29:
 4759 05c0 73797374 		.ascii	"systime_t\000"
 4759      696D655F 
 4759      7400
 4760              	.LASF48:
 4761 05ca 705F7265 		.ascii	"p_realprio\000"
 4761      616C7072 
 4761      696F00
 4762              	.LASF117:
 4763 05d5 62756666 		.ascii	"buffer\000"
 4763      657200
 4764              	.LASF11:
 4765 05dc 5F5F7569 		.ascii	"__uint32_t\000"
 4765      6E743332 
 4765      5F7400
 4766              	.LASF77:
 4767 05e7 70616E69 		.ascii	"panic_msg\000"
ARM GAS  /tmp/ccU3pGdw.s 			page 89


 4767      635F6D73 
 4767      6700
 4768              	.LASF89:
 4769 05f1 6F666673 		.ascii	"offset\000"
 4769      657400
 4770              	.LASF114:
 4771 05f8 5F5F6170 		.ascii	"__ap\000"
 4771      00
 4772              	.LASF42:
 4773 05fd 705F7469 		.ascii	"p_time\000"
 4773      6D6500
 4774              	.LASF44:
 4775 0604 705F6D73 		.ascii	"p_msgqueue\000"
 4775      67717565 
 4775      756500
 4776              	.LASF71:
 4777 060f 76745F70 		.ascii	"vt_par\000"
 4777      617200
 4778              	.LASF54:
 4779 0616 74687265 		.ascii	"threads_queue_t\000"
 4779      6164735F 
 4779      71756575 
 4779      655F7400 
 4780              	.LASF101:
 4781 0626 63685F6D 		.ascii	"ch_mutex\000"
 4781      75746578 
 4781      00
 4782              	.LASF23:
 4783 062f 74726566 		.ascii	"trefs_t\000"
 4783      735F7400 
 4784              	.LASF122:
 4785 0637 63685F6C 		.ascii	"ch_ltoa\000"
 4785      746F6100 
 4786              	.LASF80:
 4787 063f 726C6973 		.ascii	"rlist\000"
 4787      7400
 4788              	.LASF16:
 4789 0645 75696E74 		.ascii	"uint8_t\000"
 4789      385F7400 
 4790              	.LASF130:
 4791 064d 63687670 		.ascii	"chvprintf\000"
 4791      72696E74 
 4791      6600
 4792              	.LASF84:
 4793 0657 73697A65 		.ascii	"sizetype\000"
 4793      74797065 
 4793      00
 4794              	.LASF50:
 4795 0660 74687265 		.ascii	"thread_reference_t\000"
 4795      61645F72 
 4795      65666572 
 4795      656E6365 
 4795      5F7400
 4796              	.LASF109:
 4797 0673 72656164 		.ascii	"read\000"
 4797      00
 4798              	.LASF139:
ARM GAS  /tmp/ccU3pGdw.s 			page 90


 4799 0678 6C6F6E67 		.ascii	"long_to_string_with_divisor\000"
 4799      5F746F5F 
 4799      73747269 
 4799      6E675F77 
 4799      6974685F 
 4800              	.LASF51:
 4801 0694 74687265 		.ascii	"threads_list_t\000"
 4801      6164735F 
 4801      6C697374 
 4801      5F7400
 4802              	.LASF39:
 4803 06a3 705F666C 		.ascii	"p_flags\000"
 4803      61677300 
 4804              	.LASF45:
 4805 06ab 705F6D73 		.ascii	"p_msg\000"
 4805      6700
 4806              	.LASF103:
 4807 06b1 6D5F6F77 		.ascii	"m_owner\000"
 4807      6E657200 
 4808              	.LASF0:
 4809 06b9 646F7562 		.ascii	"double\000"
 4809      6C6500
 4810              	.LASF34:
 4811 06c0 705F6374 		.ascii	"p_ctx\000"
 4811      7800
 4812              	.LASF43:
 4813 06c6 705F7761 		.ascii	"p_waiting\000"
 4813      6974696E 
 4813      6700
 4814              		.ident	"GCC: (4.8.4-1+11-1) 4.8.4 20141219 (release)"
ARM GAS  /tmp/ccU3pGdw.s 			page 91


DEFINED SYMBOLS
                            *ABS*:0000000000000000 chprintf.c
     /tmp/ccU3pGdw.s:21     .text.long_to_string_with_divisor:0000000000000000 $t
     /tmp/ccU3pGdw.s:26     .text.long_to_string_with_divisor:0000000000000000 long_to_string_with_divisor
     /tmp/ccU3pGdw.s:116    .text.chvprintf:0000000000000000 $t
     /tmp/ccU3pGdw.s:122    .text.chvprintf:0000000000000000 chvprintf
     /tmp/ccU3pGdw.s:280    .text.chvprintf:00000000000000b4 $d
     /tmp/ccU3pGdw.s:334    .text.chvprintf:000000000000011e $t
     /tmp/ccU3pGdw.s:780    .text.chvprintf:0000000000000388 $d
     /tmp/ccU3pGdw.s:787    .text.chsnprintf:0000000000000000 $t
     /tmp/ccU3pGdw.s:793    .text.chsnprintf:0000000000000000 chsnprintf
     /tmp/ccU3pGdw.s:891    .rodata.str1.4:0000000000000000 $d
     /tmp/ccU3pGdw.s:895    .rodata.pow10:0000000000000000 $d
     /tmp/ccU3pGdw.s:899    .rodata.pow10:0000000000000000 pow10
                     .debug_frame:0000000000000010 $d
     /tmp/ccU3pGdw.s:786    .text.chvprintf:0000000000000394 $t

UNDEFINED SYMBOLS
__aeabi_d2f
__aeabi_f2d
__aeabi_i2d
__aeabi_dsub
__aeabi_ui2d
__aeabi_dmul
__aeabi_d2iz
msObjectInit
