ARM GAS  /tmp/ccU3pGdw.s 			page 1


   1              		.syntax unified
   2              		.cpu cortex-m4
   3              		.eabi_attribute 27, 3
   4              		.eabi_attribute 28, 1
   5              		.fpu fpv4-sp-d16
   6              		.eabi_attribute 20, 1
   7              		.eabi_attribute 21, 1
   8              		.eabi_attribute 23, 3
   9              		.eabi_attribute 24, 1
  10              		.eabi_attribute 25, 1
  11              		.eabi_attribute 26, 1
  12              		.eabi_attribute 30, 2
  13              		.eabi_attribute 34, 1
  14              		.eabi_attribute 18, 4
  15              		.thumb
  16              		.file	"chprintf.c"
  17              		.text
  18              	.Ltext0:
  19              		.cfi_sections	.debug_frame
  20              		.section	.text.long_to_string_with_divisor,"ax",%progbits
  21              		.align	2
  22              		.p2align 4,,15
  23              		.thumb
  24              		.thumb_func
  25              		.type	long_to_string_with_divisor, %function
  26              	long_to_string_with_divisor:
  27              	.LFB257:
  28              		.file 1 "ChibiOS_3.0.2/os/hal/lib/streams/chprintf.c"
  29              		.loc 1 40 0
  30              		.cfi_startproc
  31              		@ args = 0, pretend = 0, frame = 0
  32              		@ frame_needed = 0, uses_anonymous_args = 0
  33              		@ link register save eliminated.
  34              	.LVL0:
  35 0000 F0B4     		push	{r4, r5, r6, r7}
  36              		.cfi_def_cfa_offset 16
  37              		.cfi_offset 4, -16
  38              		.cfi_offset 5, -12
  39              		.cfi_offset 6, -8
  40              		.cfi_offset 7, -4
  41              		.loc 1 47 0
  42 0002 002B     		cmp	r3, #0
  43 0004 08BF     		it	eq
  44 0006 0B46     		moveq	r3, r1
  45              	.LVL1:
  46              		.loc 1 52 0
  47 0008 00F10B07 		add	r7, r0, #11
  48              	.LVL2:
  49 000c 00F10A05 		add	r5, r0, #10
  50              	.LVL3:
  51              	.L5:
  52              		.loc 1 54 0
  53 0010 B1FBF2F6 		udiv	r6, r1, r2
  54 0014 02FB1611 		mls	r1, r2, r6, r1
  55              	.LVL4:
  56              		.loc 1 55 0
  57 0018 01F13004 		add	r4, r1, #48
ARM GAS  /tmp/ccU3pGdw.s 			page 2


  58              	.LVL5:
  59              		.loc 1 56 0
  60 001c 392C     		cmp	r4, #57
  61              		.loc 1 57 0
  62 001e C8BF     		it	gt
  63 0020 01F13704 		addgt	r4, r1, #55
  64              	.LVL6:
  65              		.loc 1 58 0
  66 0024 E4B2     		uxtb	r4, r4
  67              	.LVL7:
  68              		.loc 1 60 0
  69 0026 B3FBF2F3 		udiv	r3, r3, r2
  70              	.LVL8:
  71              		.loc 1 59 0
  72 002a 3146     		mov	r1, r6
  73              	.LVL9:
  74              		.loc 1 58 0
  75 002c 2E46     		mov	r6, r5
  76              	.LVL10:
  77 002e 05F80149 		strb	r4, [r5], #-1
  78              	.LVL11:
  79              		.loc 1 60 0
  80 0032 002B     		cmp	r3, #0
  81 0034 ECD1     		bne	.L5
  82              	.LVL12:
  83              		.loc 1 62 0
  84 0036 BA1B     		subs	r2, r7, r6
  85              	.LVL13:
  86 0038 3346     		mov	r3, r6
  87              	.LVL14:
  88 003a 0244     		add	r2, r2, r0
  89 003c 01E0     		b	.L7
  90              	.LVL15:
  91              	.L11:
  92 003e 13F8014F 		ldrb	r4, [r3, #1]!	@ zero_extendqisi2
  93              	.LVL16:
  94              	.L7:
  95              		.loc 1 64 0 discriminator 1
  96 0042 00F8014B 		strb	r4, [r0], #1
  97              	.LVL17:
  98              		.loc 1 65 0 discriminator 1
  99 0046 9042     		cmp	r0, r2
 100 0048 F9D1     		bne	.L11
 101              		.loc 1 68 0
 102 004a F0BC     		pop	{r4, r5, r6, r7}
 103              	.LVL18:
 104 004c 7047     		bx	lr
 105              		.cfi_endproc
 106              	.LFE257:
 107              		.size	long_to_string_with_divisor, .-long_to_string_with_divisor
 108              		.global	__aeabi_d2f
 109              		.global	__aeabi_f2d
 110              		.global	__aeabi_i2d
 111              		.global	__aeabi_dsub
 112              		.global	__aeabi_ui2d
 113              		.global	__aeabi_dmul
 114              		.global	__aeabi_d2iz
ARM GAS  /tmp/ccU3pGdw.s 			page 3


 115 004e 00BF     		.section	.text.chvprintf,"ax",%progbits
 116              		.align	2
 117              		.p2align 4,,15
 118              		.global	chvprintf
 119              		.thumb
 120              		.thumb_func
 121              		.type	chvprintf, %function
 122              	chvprintf:
 123              	.LFB260:
 124              		.loc 1 121 0
 125              		.cfi_startproc
 126              		@ args = 0, pretend = 0, frame = 48
 127              		@ frame_needed = 0, uses_anonymous_args = 0
 128              	.LVL19:
 129 0000 2DE9F04F 		push	{r4, r5, r6, r7, r8, r9, r10, fp, lr}
 130              		.cfi_def_cfa_offset 36
 131              		.cfi_offset 4, -36
 132              		.cfi_offset 5, -32
 133              		.cfi_offset 6, -28
 134              		.cfi_offset 7, -24
 135              		.cfi_offset 8, -20
 136              		.cfi_offset 9, -16
 137              		.cfi_offset 10, -12
 138              		.cfi_offset 11, -8
 139              		.cfi_offset 14, -4
 140 0004 2DED028B 		fstmfdd	sp!, {d8}
 141              		.cfi_def_cfa_offset 44
 142              		.cfi_offset 80, -44
 143 0008 8DB0     		sub	sp, sp, #52
 144              		.cfi_def_cfa_offset 96
 145 000a 06AB     		add	r3, sp, #24
 146 000c 0493     		str	r3, [sp, #16]
 147              		.loc 1 121 0
 148 000e 0646     		mov	r6, r0
 149 0010 0498     		ldr	r0, [sp, #16]
 150              	.LVL20:
 151 0012 0DF11903 		add	r3, sp, #25
 152 0016 181A     		subs	r0, r3, r0
 153 0018 0193     		str	r3, [sp, #4]
 154 001a 0C46     		mov	r4, r1
 155 001c 1746     		mov	r7, r2
 156              	.LVL21:
 157 001e 0590     		str	r0, [sp, #20]
 158              		.loc 1 124 0
 159 0020 4FF00008 		mov	r8, #0
 160              	.LVL22:
 161              	.L13:
 162              		.loc 1 135 0
 163 0024 2178     		ldrb	r1, [r4]	@ zero_extendqisi2
 164 0026 631C     		adds	r3, r4, #1
 165              	.LVL23:
 166              		.loc 1 136 0
 167 0028 61B1     		cbz	r1, .L75
 168              	.LVL24:
 169              	.L80:
 170              		.loc 1 138 0
 171 002a 2529     		cmp	r1, #37
ARM GAS  /tmp/ccU3pGdw.s 			page 4


 172 002c 10D0     		beq	.L15
 173              		.loc 1 139 0
 174 002e 3268     		ldr	r2, [r6]
 175              	.LVL25:
 176              		.loc 1 135 0
 177 0030 1C46     		mov	r4, r3
 178              		.loc 1 139 0
 179 0032 9268     		ldr	r2, [r2, #8]
 180 0034 3046     		mov	r0, r6
 181 0036 9047     		blx	r2
 182              	.LVL26:
 183              		.loc 1 135 0
 184 0038 2178     		ldrb	r1, [r4]	@ zero_extendqisi2
 185              		.loc 1 140 0
 186 003a 08F10108 		add	r8, r8, #1
 187              	.LVL27:
 188              		.loc 1 135 0
 189 003e 631C     		adds	r3, r4, #1
 190              	.LVL28:
 191              		.loc 1 136 0
 192 0040 0029     		cmp	r1, #0
 193 0042 F2D1     		bne	.L80
 194              	.LVL29:
 195              	.L75:
 196              		.loc 1 277 0
 197 0044 4046     		mov	r0, r8
 198 0046 0DB0     		add	sp, sp, #52
 199              		@ sp needed
 200 0048 BDEC028B 		fldmfdd	sp!, {d8}
 201 004c BDE8F08F 		pop	{r4, r5, r6, r7, r8, r9, r10, fp, pc}
 202              	.LVL30:
 203              	.L15:
 204              		.loc 1 146 0
 205 0050 6278     		ldrb	r2, [r4, #1]	@ zero_extendqisi2
 206              	.LVL31:
 207 0052 2D2A     		cmp	r2, #45
 208 0054 03BF     		ittte	eq
 209 0056 A278     		ldrbeq	r2, [r4, #2]	@ zero_extendqisi2
 210              		.loc 1 147 0
 211 0058 A31C     		addeq	r3, r4, #2
 212              	.LVL32:
 213              		.loc 1 148 0
 214 005a 4FF0010C 		moveq	ip, #1
 215              		.loc 1 145 0
 216 005e 4FF0000C 		movne	ip, #0
 217              	.LVL33:
 218              		.loc 1 151 0
 219 0062 302A     		cmp	r2, #48
 220 0064 03BF     		ittte	eq
 221 0066 5A78     		ldrbeq	r2, [r3, #1]	@ zero_extendqisi2
 222              		.loc 1 152 0
 223 0068 0133     		addeq	r3, r3, #1
 224              	.LVL34:
 225              		.loc 1 153 0
 226 006a 3025     		moveq	r5, #48
 227              		.loc 1 150 0
 228 006c 2025     		movne	r5, #32
ARM GAS  /tmp/ccU3pGdw.s 			page 5


 229              	.LVL35:
 230              		.loc 1 153 0
 231 006e 1C46     		mov	r4, r3
 232              		.loc 1 155 0
 233 0070 4FF00009 		mov	r9, #0
 234 0074 06E0     		b	.L21
 235              	.LVL36:
 236              	.L81:
 237              		.loc 1 161 0
 238 0076 3B78     		ldrb	r3, [r7]	@ zero_extendqisi2
 239              	.LVL37:
 240 0078 0437     		adds	r7, r7, #4
 241              	.LVL38:
 242              	.L19:
 243              		.loc 1 164 0
 244 007a 09EB8909 		add	r9, r9, r9, lsl #2
 245              	.LVL39:
 246 007e 2278     		ldrb	r2, [r4]	@ zero_extendqisi2
 247 0080 03EB4909 		add	r9, r3, r9, lsl #1
 248              	.LVL40:
 249              	.L21:
 250              		.loc 1 158 0
 251 0084 A2F13003 		sub	r3, r2, #48
 252 0088 DBB2     		uxtb	r3, r3
 253 008a 092B     		cmp	r3, #9
 254              		.loc 1 157 0
 255 008c 04F10104 		add	r4, r4, #1
 256              	.LVL41:
 257              		.loc 1 158 0
 258 0090 F3D9     		bls	.L19
 259              		.loc 1 160 0
 260 0092 2A2A     		cmp	r2, #42
 261 0094 EFD0     		beq	.L81
 262              	.LVL42:
 263              		.loc 1 167 0
 264 0096 2E2A     		cmp	r2, #46
 265 0098 4FF0000B 		mov	fp, #0
 266 009c 45D0     		beq	.L24
 267              	.LVL43:
 268              		.loc 1 181 0
 269 009e 02F0DF03 		and	r3, r2, #223
 270 00a2 4C2B     		cmp	r3, #76
 271 00a4 4ED0     		beq	.L82
 272              	.LVL44:
 273              	.L26:
 274              		.loc 1 190 0
 275 00a6 A2F14403 		sub	r3, r2, #68
 276 00aa 342B     		cmp	r3, #52
 277 00ac 00F23B81 		bhi	.L27
 278 00b0 DFE813F0 		tbh	[pc, r3, lsl #1]
 279              	.L29:
 280 00b4 2401     		.2byte	(.L28-.L29)/2
 281 00b6 3901     		.2byte	(.L27-.L29)/2
 282 00b8 3901     		.2byte	(.L27-.L29)/2
 283 00ba 3901     		.2byte	(.L27-.L29)/2
 284 00bc 3901     		.2byte	(.L27-.L29)/2
 285 00be 2401     		.2byte	(.L28-.L29)/2
ARM GAS  /tmp/ccU3pGdw.s 			page 6


 286 00c0 3901     		.2byte	(.L27-.L29)/2
 287 00c2 3901     		.2byte	(.L27-.L29)/2
 288 00c4 3901     		.2byte	(.L27-.L29)/2
 289 00c6 3901     		.2byte	(.L27-.L29)/2
 290 00c8 3901     		.2byte	(.L27-.L29)/2
 291 00ca 2201     		.2byte	(.L30-.L29)/2
 292 00cc 3901     		.2byte	(.L27-.L29)/2
 293 00ce 3901     		.2byte	(.L27-.L29)/2
 294 00d0 3901     		.2byte	(.L27-.L29)/2
 295 00d2 3901     		.2byte	(.L27-.L29)/2
 296 00d4 3901     		.2byte	(.L27-.L29)/2
 297 00d6 4E00     		.2byte	(.L62-.L29)/2
 298 00d8 3901     		.2byte	(.L27-.L29)/2
 299 00da 3901     		.2byte	(.L27-.L29)/2
 300 00dc C100     		.2byte	(.L32-.L29)/2
 301 00de 3901     		.2byte	(.L27-.L29)/2
 302 00e0 3901     		.2byte	(.L27-.L29)/2
 303 00e2 3901     		.2byte	(.L27-.L29)/2
 304 00e4 3901     		.2byte	(.L27-.L29)/2
 305 00e6 3901     		.2byte	(.L27-.L29)/2
 306 00e8 3901     		.2byte	(.L27-.L29)/2
 307 00ea 3901     		.2byte	(.L27-.L29)/2
 308 00ec 3901     		.2byte	(.L27-.L29)/2
 309 00ee 3901     		.2byte	(.L27-.L29)/2
 310 00f0 3901     		.2byte	(.L27-.L29)/2
 311 00f2 1701     		.2byte	(.L33-.L29)/2
 312 00f4 2401     		.2byte	(.L28-.L29)/2
 313 00f6 3901     		.2byte	(.L27-.L29)/2
 314 00f8 C300     		.2byte	(.L34-.L29)/2
 315 00fa 3901     		.2byte	(.L27-.L29)/2
 316 00fc 3901     		.2byte	(.L27-.L29)/2
 317 00fe 2401     		.2byte	(.L28-.L29)/2
 318 0100 3901     		.2byte	(.L27-.L29)/2
 319 0102 3901     		.2byte	(.L27-.L29)/2
 320 0104 3901     		.2byte	(.L27-.L29)/2
 321 0106 3901     		.2byte	(.L27-.L29)/2
 322 0108 3901     		.2byte	(.L27-.L29)/2
 323 010a 2201     		.2byte	(.L30-.L29)/2
 324 010c 3901     		.2byte	(.L27-.L29)/2
 325 010e 3901     		.2byte	(.L27-.L29)/2
 326 0110 3901     		.2byte	(.L27-.L29)/2
 327 0112 9D00     		.2byte	(.L35-.L29)/2
 328 0114 3901     		.2byte	(.L27-.L29)/2
 329 0116 4E00     		.2byte	(.L62-.L29)/2
 330 0118 3901     		.2byte	(.L27-.L29)/2
 331 011a 3901     		.2byte	(.L27-.L29)/2
 332 011c C100     		.2byte	(.L32-.L29)/2
 333              	.LVL45:
 334              		.p2align 1
 335              	.L83:
 336              		.loc 1 173 0
 337 011e 3B78     		ldrb	r3, [r7]	@ zero_extendqisi2
 338              	.LVL46:
 339 0120 0437     		adds	r7, r7, #4
 340              	.LVL47:
 341              	.L23:
 342              		.loc 1 176 0
ARM GAS  /tmp/ccU3pGdw.s 			page 7


 343 0122 0BEB8B0B 		add	fp, fp, fp, lsl #2
 344              	.LVL48:
 345              		.loc 1 177 0
 346 0126 03EB4B0B 		add	fp, r3, fp, lsl #1
 347              	.LVL49:
 348              	.L24:
 349              		.loc 1 169 0
 350 012a 14F8012B 		ldrb	r2, [r4], #1	@ zero_extendqisi2
 351              	.LVL50:
 352              		.loc 1 170 0
 353 012e A2F13003 		sub	r3, r2, #48
 354 0132 DBB2     		uxtb	r3, r3
 355 0134 092B     		cmp	r3, #9
 356 0136 F4D9     		bls	.L23
 357              		.loc 1 172 0
 358 0138 2A2A     		cmp	r2, #42
 359 013a F0D0     		beq	.L83
 360              	.LVL51:
 361              		.loc 1 181 0
 362 013c 02F0DF03 		and	r3, r2, #223
 363 0140 4C2B     		cmp	r3, #76
 364 0142 B0D1     		bne	.L26
 365              	.LVL52:
 366              	.L82:
 367              		.loc 1 183 0
 368 0144 2378     		ldrb	r3, [r4]	@ zero_extendqisi2
 369 0146 002B     		cmp	r3, #0
 370 0148 ADD0     		beq	.L26
 371              		.loc 1 184 0
 372 014a 0134     		adds	r4, r4, #1
 373              	.LVL53:
 374 014c 1A46     		mov	r2, r3
 375 014e AAE7     		b	.L26
 376              	.LVL54:
 377              	.L62:
 378              		.loc 1 190 0
 379 0150 0A22     		movs	r2, #10
 380              	.LVL55:
 381              	.L31:
 382              		.loc 1 243 0
 383 0152 3968     		ldr	r1, [r7]
 384              	.LVL56:
 385              	.LBB12:
 386              	.LBB13:
 387              		.loc 1 72 0
 388 0154 CDF800C0 		str	ip, [sp]
 389              	.LBE13:
 390              	.LBE12:
 391              		.loc 1 243 0
 392 0158 0437     		adds	r7, r7, #4
 393              	.LVL57:
 394              	.LBB15:
 395              	.LBB14:
 396              		.loc 1 72 0
 397 015a 06A8     		add	r0, sp, #24
 398 015c 0023     		movs	r3, #0
 399              	.LVL58:
ARM GAS  /tmp/ccU3pGdw.s 			page 8


 400              	.L78:
 401 015e FFF7FEFF 		bl	long_to_string_with_divisor
 402              	.LVL59:
 403 0162 049A     		ldr	r2, [sp, #16]
 404              	.LBE14:
 405              	.LBE15:
 406              		.loc 1 245 0
 407 0164 DDF800C0 		ldr	ip, [sp]
 408 0168 801A     		subs	r0, r0, r2
 409 016a 431E     		subs	r3, r0, #1
 410 016c 0293     		str	r3, [sp, #8]
 411              		.loc 1 144 0
 412 016e 0DF1180A 		add	r10, sp, #24
 413              	.LVL60:
 414              	.L36:
 415              		.loc 1 251 0
 416 0172 C0EB0909 		rsb	r9, r0, r9
 417              	.LVL61:
 418 0176 29EAE979 		bic	r9, r9, r9, asr #31
 419              	.LVL62:
 420              		.loc 1 253 0
 421 017a BCF1000F 		cmp	ip, #0
 422 017e 15D1     		bne	.L49
 423              		.loc 1 254 0
 424 0180 C9F10009 		rsb	r9, r9, #0
 425              	.LVL63:
 426              		.loc 1 255 0
 427 0184 B9F1000F 		cmp	r9, #0
 428 0188 10D0     		beq	.L49
 429              		.loc 1 256 0
 430 018a 9AF80010 		ldrb	r1, [r10]	@ zero_extendqisi2
 431 018e 2D29     		cmp	r1, #45
 432 0190 00F0D180 		beq	.L84
 433              	.LVL64:
 434              	.L50:
 435              		.loc 1 196 0 discriminator 1
 436 0194 CB46     		mov	fp, r9
 437              	.LVL65:
 438              	.L52:
 439              		.loc 1 262 0 discriminator 1
 440 0196 3368     		ldr	r3, [r6]
 441 0198 3046     		mov	r0, r6
 442 019a 9B68     		ldr	r3, [r3, #8]
 443 019c 2946     		mov	r1, r5
 444 019e 9847     		blx	r3
 445              	.LVL66:
 446              		.loc 1 264 0 discriminator 1
 447 01a0 1BF1010B 		adds	fp, fp, #1
 448              	.LVL67:
 449 01a4 F7D1     		bne	.L52
 450 01a6 C9EB0808 		rsb	r8, r9, r8
 451              		.loc 1 264 0 is_stmt 0
 452 01aa D946     		mov	r9, fp
 453              	.LVL68:
 454              	.L49:
 455              		.loc 1 266 0 is_stmt 1 discriminator 1
 456 01ac 029B     		ldr	r3, [sp, #8]
ARM GAS  /tmp/ccU3pGdw.s 			page 9


 457 01ae 002B     		cmp	r3, #0
 458 01b0 0EDB     		blt	.L53
 459 01b2 0AF1FF3B 		add	fp, r10, #-1
 460 01b6 9A44     		add	r10, r10, r3
 461              	.LVL69:
 462              	.L55:
 463              		.loc 1 267 0
 464 01b8 3368     		ldr	r3, [r6]
 465 01ba 1BF8011F 		ldrb	r1, [fp, #1]!	@ zero_extendqisi2
 466              	.LVL70:
 467 01be 9B68     		ldr	r3, [r3, #8]
 468 01c0 3046     		mov	r0, r6
 469 01c2 9847     		blx	r3
 470              	.LVL71:
 471              		.loc 1 266 0
 472 01c4 D345     		cmp	fp, r10
 473 01c6 F7D1     		bne	.L55
 474 01c8 029A     		ldr	r2, [sp, #8]
 475 01ca 08F10108 		add	r8, r8, #1
 476 01ce 9044     		add	r8, r8, r2
 477              	.LVL72:
 478              	.L53:
 479              		.loc 1 271 0 discriminator 1
 480 01d0 B9F1000F 		cmp	r9, #0
 481 01d4 3FF426AF 		beq	.L13
 482              		.loc 1 271 0 is_stmt 0
 483 01d8 CA46     		mov	r10, r9
 484              	.LVL73:
 485              	.L57:
 486              		.loc 1 272 0 is_stmt 1
 487 01da 3368     		ldr	r3, [r6]
 488 01dc 3046     		mov	r0, r6
 489 01de 9B68     		ldr	r3, [r3, #8]
 490 01e0 2946     		mov	r1, r5
 491 01e2 9847     		blx	r3
 492              	.LVL74:
 493              		.loc 1 271 0
 494 01e4 BAF1010A 		subs	r10, r10, #1
 495              	.LVL75:
 496 01e8 F7D1     		bne	.L57
 497 01ea C844     		add	r8, r8, r9
 498 01ec 1AE7     		b	.L13
 499              	.LVL76:
 500              	.L35:
 501              		.loc 1 197 0
 502 01ee D7F800A0 		ldr	r10, [r7]
 503              		.loc 1 198 0
 504 01f2 654B     		ldr	r3, .L88
 505 01f4 BAF1000F 		cmp	r10, #0
 506 01f8 08BF     		it	eq
 507 01fa 9A46     		moveq	r10, r3
 508              		.loc 1 200 0
 509 01fc 47F6FF73 		movw	r3, #32767
 510              		.loc 1 201 0
 511 0200 9AF80000 		ldrb	r0, [r10]	@ zero_extendqisi2
 512              		.loc 1 197 0
 513 0204 0437     		adds	r7, r7, #4
ARM GAS  /tmp/ccU3pGdw.s 			page 10


 514              	.LVL77:
 515              		.loc 1 200 0
 516 0206 BBF1000F 		cmp	fp, #0
 517 020a 08BF     		it	eq
 518 020c 9B46     		moveq	fp, r3
 519              	.LVL78:
 520              		.loc 1 201 0
 521 020e 0028     		cmp	r0, #0
 522 0210 00F0B580 		beq	.L65
 523 0214 0BEB0A00 		add	r0, fp, r10
 524 0218 5346     		mov	r3, r10
 525 021a 02E0     		b	.L41
 526              	.LVL79:
 527              	.L39:
 528              		.loc 1 201 0 is_stmt 0 discriminator 2
 529 021c 9842     		cmp	r0, r3
 530 021e 00F09980 		beq	.L85
 531              	.LVL80:
 532              	.L41:
 533              		.loc 1 201 0 discriminator 1
 534 0222 5A78     		ldrb	r2, [r3, #1]	@ zero_extendqisi2
 535 0224 0133     		adds	r3, r3, #1
 536              	.LVL81:
 537 0226 002A     		cmp	r2, #0
 538 0228 F8D1     		bne	.L39
 539 022a CAEB0300 		rsb	r0, r10, r3
 540 022e 431E     		subs	r3, r0, #1
 541              	.LVL82:
 542 0230 0293     		str	r3, [sp, #8]
 543              		.loc 1 196 0 is_stmt 1
 544 0232 2025     		movs	r5, #32
 545 0234 9DE7     		b	.L36
 546              	.LVL83:
 547              	.L32:
 548              		.loc 1 190 0
 549 0236 1022     		movs	r2, #16
 550              	.LVL84:
 551 0238 8BE7     		b	.L31
 552              	.LVL85:
 553              	.L34:
 554              		.loc 1 220 0
 555 023a 0737     		adds	r7, r7, #7
 556              	.LVL86:
 557 023c 27F00707 		bic	r7, r7, #7
 558              	.LVL87:
 559 0240 D7E90001 		ldrd	r0, [r7]
 560 0244 CDF800C0 		str	ip, [sp]
 561 0248 FFF7FEFF 		bl	__aeabi_d2f
 562              	.LVL88:
 563 024c 08EE100A 		fmsr	s16, r0
 564              		.loc 1 221 0
 565 0250 B5EEC08A 		fcmpezs	s16
 566 0254 F1EE10FA 		fmstat
 567              		.loc 1 220 0
 568 0258 07F10807 		add	r7, r7, #8
 569              	.LVL89:
 570              		.loc 1 221 0
ARM GAS  /tmp/ccU3pGdw.s 			page 11


 571 025c DDF800C0 		ldr	ip, [sp]
 572              	.LVL90:
 573 0260 00F18580 		bmi	.L86
 574              		.loc 1 143 0
 575 0264 06A8     		add	r0, sp, #24
 576              	.LVL91:
 577              	.L45:
 578              	.LBB16:
 579              	.LBB17:
 580              		.loc 1 87 0
 581 0266 FDEEC88A 		ftosizs	s17, s16
 582              		.loc 1 83 0
 583 026a 0BF1FF3B 		add	fp, fp, #-1
 584              		.loc 1 85 0
 585 026e DFF820E1 		ldr	lr, .L88+8
 586              		.loc 1 88 0
 587 0272 CDF800C0 		str	ip, [sp]
 588 0276 BBF1080F 		cmp	fp, #8
 589 027a 28BF     		it	cs
 590 027c 4FF0080B 		movcs	fp, #8
 591 0280 0A22     		movs	r2, #10
 592 0282 18EE901A 		fmrs	r1, s17	@ int
 593 0286 0023     		movs	r3, #0
 594              		.loc 1 85 0
 595 0288 5EF82BB0 		ldr	fp, [lr, fp, lsl #2]
 596              	.LVL92:
 597              		.loc 1 88 0
 598 028c FFF7FEFF 		bl	long_to_string_with_divisor
 599              	.LVL93:
 600              		.loc 1 89 0
 601 0290 8246     		mov	r10, r0
 602 0292 2E23     		movs	r3, #46
 603 0294 0AF8013B 		strb	r3, [r10], #1
 604              	.LVL94:
 605              	.LBE17:
 606              	.LBE16:
 607              		.loc 1 225 0
 608 0298 18EE100A 		fmrs	r0, s16
 609 029c FFF7FEFF 		bl	__aeabi_f2d
 610              	.LVL95:
 611 02a0 CDE90201 		strd	r0, [sp, #8]
 612              	.LBB19:
 613              	.LBB18:
 614              		.loc 1 90 0
 615 02a4 18EE900A 		fmrs	r0, s17	@ int
 616 02a8 FFF7FEFF 		bl	__aeabi_i2d
 617              	.LVL96:
 618 02ac 0246     		mov	r2, r0
 619 02ae 0B46     		mov	r3, r1
 620 02b0 DDE90201 		ldrd	r0, [sp, #8]
 621 02b4 FFF7FEFF 		bl	__aeabi_dsub
 622              	.LVL97:
 623 02b8 CDE90201 		strd	r0, [sp, #8]
 624 02bc 5846     		mov	r0, fp
 625 02be FFF7FEFF 		bl	__aeabi_ui2d
 626              	.LVL98:
 627 02c2 0246     		mov	r2, r0
ARM GAS  /tmp/ccU3pGdw.s 			page 12


 628 02c4 0B46     		mov	r3, r1
 629 02c6 DDE90201 		ldrd	r0, [sp, #8]
 630 02ca FFF7FEFF 		bl	__aeabi_dmul
 631              	.LVL99:
 632 02ce FFF7FEFF 		bl	__aeabi_d2iz
 633              	.LVL100:
 634              		.loc 1 91 0
 635 02d2 2E4B     		ldr	r3, .L88+4
 636              		.loc 1 90 0
 637 02d4 0146     		mov	r1, r0
 638              		.loc 1 91 0
 639 02d6 A3FB0B03 		umull	r0, r3, r3, fp
 640 02da DB08     		lsrs	r3, r3, #3
 641 02dc 5046     		mov	r0, r10
 642 02de 0A22     		movs	r2, #10
 643 02e0 3DE7     		b	.L78
 644              	.LVL101:
 645              	.L33:
 646 02e2 0598     		ldr	r0, [sp, #20]
 647              	.LBE18:
 648              	.LBE19:
 649              		.loc 1 193 0
 650 02e4 3B68     		ldr	r3, [r7]
 651 02e6 8DF81830 		strb	r3, [sp, #24]
 652 02ea 421E     		subs	r2, r0, #1
 653              	.LVL102:
 654 02ec 0437     		adds	r7, r7, #4
 655              	.LVL103:
 656 02ee 0292     		str	r2, [sp, #8]
 657              		.loc 1 192 0
 658 02f0 2025     		movs	r5, #32
 659              		.loc 1 144 0
 660 02f2 0DF1180A 		add	r10, sp, #24
 661              		.loc 1 194 0
 662 02f6 3CE7     		b	.L36
 663              	.LVL104:
 664              	.L30:
 665 02f8 0822     		movs	r2, #8
 666 02fa 2AE7     		b	.L31
 667              	.LVL105:
 668              	.L28:
 669              		.loc 1 211 0
 670 02fc 3968     		ldr	r1, [r7]
 671              	.LVL106:
 672              		.loc 1 212 0
 673 02fe 0029     		cmp	r1, #0
 674              		.loc 1 211 0
 675 0300 07F10407 		add	r7, r7, #4
 676              	.LVL107:
 677              		.loc 1 212 0
 678 0304 2CDB     		blt	.L87
 679              		.loc 1 143 0
 680 0306 06A8     		add	r0, sp, #24
 681              	.LVL108:
 682              	.L44:
 683              	.LBB20:
 684              	.LBB21:
ARM GAS  /tmp/ccU3pGdw.s 			page 13


 685              		.loc 1 72 0
 686 0308 0A22     		movs	r2, #10
 687              	.LVL109:
 688 030a 0023     		movs	r3, #0
 689 030c CDF800C0 		str	ip, [sp]
 690 0310 FFF7FEFF 		bl	long_to_string_with_divisor
 691              	.LVL110:
 692 0314 049B     		ldr	r3, [sp, #16]
 693              	.LBE21:
 694              	.LBE20:
 695              		.loc 1 217 0
 696 0316 DDF800C0 		ldr	ip, [sp]
 697 031a C01A     		subs	r0, r0, r3
 698 031c 421E     		subs	r2, r0, #1
 699 031e 0292     		str	r2, [sp, #8]
 700              		.loc 1 144 0
 701 0320 0DF1180A 		add	r10, sp, #24
 702              		.loc 1 217 0
 703 0324 25E7     		b	.L36
 704              	.LVL111:
 705              	.L27:
 706 0326 0598     		ldr	r0, [sp, #20]
 707              		.loc 1 247 0
 708 0328 8DF81820 		strb	r2, [sp, #24]
 709 032c 421E     		subs	r2, r0, #1
 710              	.LVL112:
 711 032e 0292     		str	r2, [sp, #8]
 712              		.loc 1 144 0
 713 0330 0DF1180A 		add	r10, sp, #24
 714              		.loc 1 248 0
 715 0334 1DE7     		b	.L36
 716              	.LVL113:
 717              	.L84:
 718              		.loc 1 256 0 discriminator 1
 719 0336 302D     		cmp	r5, #48
 720 0338 7FF42CAF 		bne	.L50
 721              	.LVL114:
 722              		.loc 1 257 0
 723 033c 3368     		ldr	r3, [r6]
 724 033e 3046     		mov	r0, r6
 725              	.LVL115:
 726 0340 9B68     		ldr	r3, [r3, #8]
 727 0342 9847     		blx	r3
 728              	.LVL116:
 729 0344 029A     		ldr	r2, [sp, #8]
 730 0346 013A     		subs	r2, r2, #1
 731 0348 0AF1010A 		add	r10, r10, #1
 732              	.LVL117:
 733              		.loc 1 258 0
 734 034c 08F10108 		add	r8, r8, #1
 735              	.LVL118:
 736 0350 0292     		str	r2, [sp, #8]
 737              	.LVL119:
 738 0352 1FE7     		b	.L50
 739              	.LVL120:
 740              	.L85:
 741 0354 CAEB0000 		rsb	r0, r10, r0
ARM GAS  /tmp/ccU3pGdw.s 			page 14


 742 0358 421E     		subs	r2, r0, #1
 743 035a 0292     		str	r2, [sp, #8]
 744              		.loc 1 196 0
 745 035c 2025     		movs	r5, #32
 746 035e 08E7     		b	.L36
 747              	.LVL121:
 748              	.L87:
 749              		.loc 1 213 0
 750 0360 2D23     		movs	r3, #45
 751              		.loc 1 214 0
 752 0362 4942     		negs	r1, r1
 753              	.LVL122:
 754              		.loc 1 213 0
 755 0364 8DF81830 		strb	r3, [sp, #24]
 756 0368 0DF11900 		add	r0, sp, #25
 757 036c CCE7     		b	.L44
 758              	.LVL123:
 759              	.L86:
 760              		.loc 1 222 0
 761 036e 2D23     		movs	r3, #45
 762              		.loc 1 223 0
 763 0370 B1EE488A 		fnegs	s16, s16
 764              	.LVL124:
 765              		.loc 1 222 0
 766 0374 8DF81830 		strb	r3, [sp, #24]
 767 0378 0DF11900 		add	r0, sp, #25
 768 037c 73E7     		b	.L45
 769              	.LVL125:
 770              	.L65:
 771              		.loc 1 201 0
 772 037e 4FF0FF33 		mov	r3, #-1
 773 0382 0293     		str	r3, [sp, #8]
 774              		.loc 1 196 0
 775 0384 2025     		movs	r5, #32
 776 0386 F4E6     		b	.L36
 777              	.L89:
 778              		.align	2
 779              	.L88:
 780 0388 00000000 		.word	.LC0
 781 038c CDCCCCCC 		.word	-858993459
 782 0390 00000000 		.word	.LANCHOR0
 783              		.cfi_endproc
 784              	.LFE260:
 785              		.size	chvprintf, .-chvprintf
 786 0394 AFF30080 		.section	.text.chsnprintf,"ax",%progbits
 786      AFF30080 
 786      AFF30080 
 787              		.align	2
 788              		.p2align 4,,15
 789              		.global	chsnprintf
 790              		.thumb
 791              		.thumb_func
 792              		.type	chsnprintf, %function
 793              	chsnprintf:
 794              	.LFB261:
 795              		.loc 1 307 0
 796              		.cfi_startproc
ARM GAS  /tmp/ccU3pGdw.s 			page 15


 797              		@ args = 4, pretend = 8, frame = 24
 798              		@ frame_needed = 0, uses_anonymous_args = 1
 799              	.LVL126:
 800 0000 0CB4     		push	{r2, r3}
 801              		.cfi_def_cfa_offset 8
 802              		.cfi_offset 2, -8
 803              		.cfi_offset 3, -4
 804 0002 70B5     		push	{r4, r5, r6, lr}
 805              		.cfi_def_cfa_offset 24
 806              		.cfi_offset 4, -24
 807              		.cfi_offset 5, -20
 808              		.cfi_offset 6, -16
 809              		.cfi_offset 14, -12
 810 0004 86B0     		sub	sp, sp, #24
 811              		.cfi_def_cfa_offset 48
 812              		.loc 1 314 0
 813 0006 0C46     		mov	r4, r1
 814              		.loc 1 307 0
 815 0008 0546     		mov	r5, r0
 816 000a 0A9E     		ldr	r6, [sp, #40]
 817              		.loc 1 314 0
 818 000c B1B1     		cbz	r1, .L91
 819              	.LVL127:
 820              		.loc 1 321 0
 821 000e 01A8     		add	r0, sp, #4
 822              	.LVL128:
 823 0010 2946     		mov	r1, r5
 824              	.LVL129:
 825 0012 621E     		subs	r2, r4, #1
 826              	.LVL130:
 827 0014 0023     		movs	r3, #0
 828 0016 FFF7FEFF 		bl	msObjectInit
 829              	.LVL131:
 830              		.loc 1 325 0
 831 001a 0BAB     		add	r3, sp, #44
 832              		.loc 1 326 0
 833 001c 1A46     		mov	r2, r3
 834 001e 01A8     		add	r0, sp, #4
 835              	.LVL132:
 836 0020 3146     		mov	r1, r6
 837              		.loc 1 325 0
 838 0022 0093     		str	r3, [sp]
 839              		.loc 1 326 0
 840 0024 FFF7FEFF 		bl	chvprintf
 841              	.LVL133:
 842              		.loc 1 330 0
 843 0028 049B     		ldr	r3, [sp, #16]
 844 002a 9C42     		cmp	r4, r3
 845 002c 01D9     		bls	.L93
 846              		.loc 1 331 0
 847 002e 0022     		movs	r2, #0
 848 0030 EA54     		strb	r2, [r5, r3]
 849              	.L93:
 850              		.loc 1 335 0
 851 0032 06B0     		add	sp, sp, #24
 852              		@ sp needed
 853 0034 BDE87040 		pop	{r4, r5, r6, lr}
ARM GAS  /tmp/ccU3pGdw.s 			page 16


 854              	.LVL134:
 855 0038 02B0     		add	sp, sp, #8
 856 003a 7047     		bx	lr
 857              	.LVL135:
 858              	.L91:
 859              		.loc 1 321 0
 860 003c 0A46     		mov	r2, r1
 861 003e 2346     		mov	r3, r4
 862 0040 0146     		mov	r1, r0
 863              	.LVL136:
 864 0042 01A8     		add	r0, sp, #4
 865              	.LVL137:
 866 0044 FFF7FEFF 		bl	msObjectInit
 867              	.LVL138:
 868              		.loc 1 325 0
 869 0048 0BAB     		add	r3, sp, #44
 870              		.loc 1 326 0
 871 004a 01A8     		add	r0, sp, #4
 872              	.LVL139:
 873 004c 3146     		mov	r1, r6
 874 004e 1A46     		mov	r2, r3
 875              		.loc 1 325 0
 876 0050 0093     		str	r3, [sp]
 877              		.loc 1 326 0
 878 0052 FFF7FEFF 		bl	chvprintf
 879              	.LVL140:
 880              		.loc 1 335 0
 881 0056 06B0     		add	sp, sp, #24
 882              		@ sp needed
 883 0058 BDE87040 		pop	{r4, r5, r6, lr}
 884              	.LVL141:
 885 005c 02B0     		add	sp, sp, #8
 886 005e 7047     		bx	lr
 887              		.cfi_endproc
 888              	.LFE261:
 889              		.size	chsnprintf, .-chsnprintf
 890              		.section	.rodata.str1.4,"aMS",%progbits,1
 891              		.align	2
 892              	.LC0:
 893 0000 286E756C 		.ascii	"(null)\000"
 893      6C2900
 894 0007 00       		.section	.rodata.pow10,"a",%progbits
 895              		.align	2
 896              		.set	.LANCHOR0,. + 0
 897              		.type	pow10, %object
 898              		.size	pow10, 36
 899              	pow10:
 900 0000 0A000000 		.word	10
 901 0004 64000000 		.word	100
 902 0008 E8030000 		.word	1000
 903 000c 10270000 		.word	10000
 904 0010 A0860100 		.word	100000
 905 0014 40420F00 		.word	1000000
 906 0018 80969800 		.word	10000000
 907 001c 00E1F505 		.word	100000000
 908 0020 00CA9A3B 		.word	1000000000
 909              		.text
ARM GAS  /tmp/ccU3pGdw.s 			page 17


 910              	.Letext0:
 911              		.file 2 "/usr/lib/gcc/arm-none-eabi/4.8/include/stddef.h"
 912              		.file 3 "/usr/include/newlib/machine/_default_types.h"
 913              		.file 4 "/usr/include/newlib/stdint.h"
 914              		.file 5 "ChibiOS_3.0.2/os/rt/ports/ARMCMx/compilers/GCC/chtypes.h"
 915              		.file 6 "ChibiOS_3.0.2/os/rt/include/chsystypes.h"
 916              		.file 7 "ChibiOS_3.0.2/os/rt/include/chschd.h"
 917              		.file 8 "ChibiOS_3.0.2/os/rt/ports/ARMCMx/chcore.h"
 918              		.file 9 "ChibiOS_3.0.2/os/rt/ports/ARMCMx/chcore_v7m.h"
 919              		.file 10 "ChibiOS_3.0.2/os/rt/include/chtm.h"
 920              		.file 11 "ChibiOS_3.0.2/os/rt/include/chsem.h"
 921              		.file 12 "ChibiOS_3.0.2/os/rt/include/chmtx.h"
 922              		.file 13 "ChibiOS_3.0.2/os/rt/include/chstreams.h"
 923              		.file 14 "/usr/lib/gcc/arm-none-eabi/4.8/include/stdarg.h"
 924              		.file 15 "<built-in>"
 925              		.file 16 "ChibiOS_3.0.2/os/hal/lib/streams/memstreams.h"
 926              		.file 17 "ChibiOS_3.0.2/os/ext/CMSIS/include/core_cm4.h"