ARM GAS  /tmp/ccukX1CL.s 			page 1


   1              		.syntax unified
   2              		.cpu cortex-m4
   3              		.eabi_attribute 27, 3
   4              		.eabi_attribute 28, 1
   5              		.fpu fpv4-sp-d16
   6              		.eabi_attribute 20, 1
   7              		.eabi_attribute 21, 1
   8              		.eabi_attribute 23, 3
   9              		.eabi_attribute 24, 1
  10              		.eabi_attribute 25, 1
  11              		.eabi_attribute 26, 1
  12              		.eabi_attribute 30, 2
  13              		.eabi_attribute 34, 1
  14              		.eabi_attribute 18, 4
  15              		.thumb
  16              		.file	"chqueues.c"
  17              		.text
  18              	.Ltext0:
  19              		.cfi_sections	.debug_frame
  20              		.section	.text.chIQObjectInit,"ax",%progbits
  21              		.align	2
  22              		.p2align 4,,15
  23              		.global	chIQObjectInit
  24              		.thumb
  25              		.thumb_func
  26              		.type	chIQObjectInit, %function
  27              	chIQObjectInit:
  28              	.LFB219:
  29              		.file 1 "ChibiOS_3.0.2/os/rt/src/chqueues.c"
  30              		.loc 1 88 0
  31              		.cfi_startproc
  32              		@ args = 4, pretend = 0, frame = 0
  33              		@ frame_needed = 0, uses_anonymous_args = 0
  34              		@ link register save eliminated.
  35              	.LVL0:
  36 0000 30B4     		push	{r4, r5}
  37              		.cfi_def_cfa_offset 8
  38              		.cfi_offset 4, -8
  39              		.cfi_offset 5, -4
  40              		.loc 1 88 0
  41 0002 029C     		ldr	r4, [sp, #8]
  42              		.loc 1 97 0
  43 0004 0462     		str	r4, [r0, #32]
  44              		.loc 1 91 0
  45 0006 0025     		movs	r5, #0
  46              		.loc 1 95 0
  47 0008 0A44     		add	r2, r2, r1
  48              	.LVL1:
  49              		.loc 1 91 0
  50 000a 8560     		str	r5, [r0, #8]
  51              		.loc 1 95 0
  52 000c 0261     		str	r2, [r0, #16]
  53              	.LBB108:
  54              	.LBB109:
  55              	.LBB110:
  56              		.file 2 "ChibiOS_3.0.2/os/rt/include/chschd.h"
  57              		.loc 2 604 0
ARM GAS  /tmp/ccukX1CL.s 			page 2


  58 000e 0060     		str	r0, [r0]
  59              		.loc 2 605 0
  60 0010 4060     		str	r0, [r0, #4]
  61              	.LBE110:
  62              	.LBE109:
  63              	.LBE108:
  64              		.loc 1 92 0
  65 0012 C160     		str	r1, [r0, #12]
  66              		.loc 1 93 0
  67 0014 8161     		str	r1, [r0, #24]
  68              		.loc 1 94 0
  69 0016 4161     		str	r1, [r0, #20]
  70              		.loc 1 96 0
  71 0018 C361     		str	r3, [r0, #28]
  72              		.loc 1 98 0
  73 001a 30BC     		pop	{r4, r5}
  74              	.LVL2:
  75 001c 7047     		bx	lr
  76              		.cfi_endproc
  77              	.LFE219:
  78              		.size	chIQObjectInit, .-chIQObjectInit
  79 001e 00BF     		.section	.text.chIQResetI,"ax",%progbits
  80              		.align	2
  81              		.p2align 4,,15
  82              		.global	chIQResetI
  83              		.thumb
  84              		.thumb_func
  85              		.type	chIQResetI, %function
  86              	chIQResetI:
  87              	.LFB220:
  88              		.loc 1 111 0
  89              		.cfi_startproc
  90              		@ args = 0, pretend = 0, frame = 0
  91              		@ frame_needed = 0, uses_anonymous_args = 0
  92              		@ link register save eliminated.
  93              	.LVL3:
  94              		.loc 1 117 0
  95 0000 0021     		movs	r1, #0
  96              		.loc 1 115 0
  97 0002 C268     		ldr	r2, [r0, #12]
  98              		.loc 1 117 0
  99 0004 8160     		str	r1, [r0, #8]
 100              		.loc 1 115 0
 101 0006 8261     		str	r2, [r0, #24]
 102              		.loc 1 116 0
 103 0008 4261     		str	r2, [r0, #20]
 104              		.loc 1 118 0
 105 000a 6FF00101 		mvn	r1, #1
 106 000e FFF7FEBF 		b	chThdDequeueAllI
 107              	.LVL4:
 108              		.cfi_endproc
 109              	.LFE220:
 110              		.size	chIQResetI, .-chIQResetI
 111 0012 00BFAFF3 		.section	.text.chIQPutI,"ax",%progbits
 111      0080AFF3 
 111      0080AFF3 
 111      0080
ARM GAS  /tmp/ccukX1CL.s 			page 3


 112              		.align	2
 113              		.p2align 4,,15
 114              		.global	chIQPutI
 115              		.thumb
 116              		.thumb_func
 117              		.type	chIQPutI, %function
 118              	chIQPutI:
 119              	.LFB221:
 120              		.loc 1 134 0
 121              		.cfi_startproc
 122              		@ args = 0, pretend = 0, frame = 0
 123              		@ frame_needed = 0, uses_anonymous_args = 0
 124              	.LVL5:
 125              	.LBB111:
 126              	.LBB112:
 127              		.file 3 "ChibiOS_3.0.2/os/rt/include/chqueues.h"
 128              		.loc 3 324 0
 129 0000 4369     		ldr	r3, [r0, #20]
 130 0002 8269     		ldr	r2, [r0, #24]
 131 0004 9342     		cmp	r3, r2
 132              	.LBE112:
 133              	.LBE111:
 134              		.loc 1 134 0
 135 0006 10B5     		push	{r4, lr}
 136              		.cfi_def_cfa_offset 8
 137              		.cfi_offset 4, -8
 138              		.cfi_offset 14, -4
 139              	.LBB115:
 140              	.LBB113:
 141              		.loc 3 324 0
 142 0008 10D0     		beq	.L11
 143              	.L4:
 144              	.LBE113:
 145              	.LBE115:
 146              		.loc 1 142 0
 147 000a 8468     		ldr	r4, [r0, #8]
 148              		.loc 1 143 0
 149 000c 5A1C     		adds	r2, r3, #1
 150              		.loc 1 142 0
 151 000e 0134     		adds	r4, r4, #1
 152              		.loc 1 143 0
 153 0010 4261     		str	r2, [r0, #20]
 154              		.loc 1 142 0
 155 0012 8460     		str	r4, [r0, #8]
 156              		.loc 1 143 0
 157 0014 1970     		strb	r1, [r3]
 158              		.loc 1 144 0
 159 0016 4269     		ldr	r2, [r0, #20]
 160 0018 0369     		ldr	r3, [r0, #16]
 161 001a 9A42     		cmp	r2, r3
 162 001c 01D3     		bcc	.L7
 163              		.loc 1 145 0
 164 001e C368     		ldr	r3, [r0, #12]
 165 0020 4361     		str	r3, [r0, #20]
 166              	.L7:
 167              		.loc 1 148 0
 168 0022 0021     		movs	r1, #0
ARM GAS  /tmp/ccukX1CL.s 			page 4


 169              	.LVL6:
 170 0024 FFF7FEFF 		bl	chThdDequeueNextI
 171              	.LVL7:
 172              		.loc 1 150 0
 173 0028 0020     		movs	r0, #0
 174 002a 10BD     		pop	{r4, pc}
 175              	.LVL8:
 176              	.L11:
 177              	.LBB116:
 178              	.LBB114:
 179              		.loc 3 324 0
 180 002c 8268     		ldr	r2, [r0, #8]
 181 002e 002A     		cmp	r2, #0
 182 0030 EBD0     		beq	.L4
 183              	.LBE114:
 184              	.LBE116:
 185              		.loc 1 139 0
 186 0032 6FF00300 		mvn	r0, #3
 187              	.LVL9:
 188 0036 10BD     		pop	{r4, pc}
 189              		.cfi_endproc
 190              	.LFE221:
 191              		.size	chIQPutI, .-chIQPutI
 192              		.section	.text.chIQGetTimeout,"ax",%progbits
 193              		.align	2
 194              		.p2align 4,,15
 195              		.global	chIQGetTimeout
 196              		.thumb
 197              		.thumb_func
 198              		.type	chIQGetTimeout, %function
 199              	chIQGetTimeout:
 200              	.LFB222:
 201              		.loc 1 173 0
 202              		.cfi_startproc
 203              		@ args = 0, pretend = 0, frame = 0
 204              		@ frame_needed = 0, uses_anonymous_args = 0
 205              	.LVL10:
 206 0000 70B5     		push	{r4, r5, r6, lr}
 207              		.cfi_def_cfa_offset 16
 208              		.cfi_offset 4, -16
 209              		.cfi_offset 5, -12
 210              		.cfi_offset 6, -8
 211              		.cfi_offset 14, -4
 212              	.LBB117:
 213              	.LBB118:
 214              	.LBB119:
 215              	.LBB120:
 216              		.file 4 "ChibiOS_3.0.2/os/ext/CMSIS/include/core_cmFunc.h"
 217              		.loc 4 546 0
 218 0002 2023     		movs	r3, #32
 219              	.LBE120:
 220              	.LBE119:
 221              	.LBE118:
 222              	.LBE117:
 223              		.loc 1 173 0
 224 0004 0E46     		mov	r6, r1
 225 0006 0446     		mov	r4, r0
ARM GAS  /tmp/ccukX1CL.s 			page 5


 226              	.LBB124:
 227              	.LBB123:
 228              	.LBB122:
 229              	.LBB121:
 230              		.loc 4 546 0
 231              	@ 546 "ChibiOS_3.0.2/os/ext/CMSIS/include/core_cmFunc.h" 1
 232 0008 83F31188 		MSR basepri, r3
 233              	@ 0 "" 2
 234              		.thumb
 235              	.LBE121:
 236              	.LBE122:
 237              	.LBE123:
 238              	.LBE124:
 239              		.loc 1 177 0
 240 000c C369     		ldr	r3, [r0, #28]
 241 000e 2BB1     		cbz	r3, .L15
 242              		.loc 1 178 0
 243 0010 9847     		blx	r3
 244              	.LVL11:
 245 0012 03E0     		b	.L15
 246              	.LVL12:
 247              	.L17:
 248              	.LBB125:
 249              		.loc 1 182 0
 250 0014 FFF7FEFF 		bl	chThdEnqueueTimeoutS
 251              	.LVL13:
 252              		.loc 1 183 0
 253 0018 0028     		cmp	r0, #0
 254 001a 16DB     		blt	.L22
 255              	.LVL14:
 256              	.L15:
 257              	.LBE125:
 258              	.LBB131:
 259              	.LBB132:
 260              		.loc 3 307 0 discriminator 1
 261 001c A568     		ldr	r5, [r4, #8]
 262              	.LBE132:
 263              	.LBE131:
 264              	.LBB133:
 265              		.loc 1 182 0 discriminator 1
 266 001e 2046     		mov	r0, r4
 267 0020 3146     		mov	r1, r6
 268              	.LBE133:
 269              		.loc 1 181 0 discriminator 1
 270 0022 002D     		cmp	r5, #0
 271 0024 F6D0     		beq	.L17
 272              	.LVL15:
 273              		.loc 1 190 0
 274 0026 A269     		ldr	r2, [r4, #24]
 275              		.loc 1 189 0
 276 0028 A068     		ldr	r0, [r4, #8]
 277              	.LVL16:
 278              		.loc 1 191 0
 279 002a 2169     		ldr	r1, [r4, #16]
 280              	.LVL17:
 281              		.loc 1 190 0
 282 002c 531C     		adds	r3, r2, #1
ARM GAS  /tmp/ccukX1CL.s 			page 6


 283              		.loc 1 191 0
 284 002e 8B42     		cmp	r3, r1
 285              		.loc 1 189 0
 286 0030 00F1FF30 		add	r0, r0, #-1
 287              		.loc 1 190 0
 288 0034 A361     		str	r3, [r4, #24]
 289              		.loc 1 189 0
 290 0036 A060     		str	r0, [r4, #8]
 291              		.loc 1 192 0
 292 0038 28BF     		it	cs
 293 003a E368     		ldrcs	r3, [r4, #12]
 294              		.loc 1 190 0
 295 003c 1078     		ldrb	r0, [r2]	@ zero_extendqisi2
 296              	.LVL18:
 297              		.loc 1 192 0
 298 003e 28BF     		it	cs
 299 0040 A361     		strcs	r3, [r4, #24]
 300              	.LVL19:
 301              	.LBB134:
 302              	.LBB135:
 303              	.LBB136:
 304              	.LBB137:
 305              	.LBB138:
 306              		.loc 4 546 0
 307 0042 0023     		movs	r3, #0
 308              	@ 546 "ChibiOS_3.0.2/os/ext/CMSIS/include/core_cmFunc.h" 1
 309 0044 83F31188 		MSR basepri, r3
 310              	@ 0 "" 2
 311              		.thumb
 312              	.LBE138:
 313              	.LBE137:
 314              	.LBE136:
 315              	.LBE135:
 316              	.LBE134:
 317              		.loc 1 197 0
 318 0048 70BD     		pop	{r4, r5, r6, pc}
 319              	.LVL20:
 320              	.L22:
 321              	.LBB139:
 322              	.LBB126:
 323              	.LBB127:
 324              	.LBB128:
 325              	.LBB129:
 326              	.LBB130:
 327              		.loc 4 546 0
 328              	@ 546 "ChibiOS_3.0.2/os/ext/CMSIS/include/core_cmFunc.h" 1
 329 004a 85F31188 		MSR basepri, r5
 330              	@ 0 "" 2
 331              		.thumb
 332              	.LBE130:
 333              	.LBE129:
 334              	.LBE128:
 335              	.LBE127:
 336              	.LBE126:
 337              		.loc 1 185 0
 338 004e 70BD     		pop	{r4, r5, r6, pc}
 339              	.LBE139:
ARM GAS  /tmp/ccukX1CL.s 			page 7


 340              		.cfi_endproc
 341              	.LFE222:
 342              		.size	chIQGetTimeout, .-chIQGetTimeout
 343              		.section	.text.chIQReadTimeout,"ax",%progbits
 344              		.align	2
 345              		.p2align 4,,15
 346              		.global	chIQReadTimeout
 347              		.thumb
 348              		.thumb_func
 349              		.type	chIQReadTimeout, %function
 350              	chIQReadTimeout:
 351              	.LFB223:
 352              		.loc 1 224 0
 353              		.cfi_startproc
 354              		@ args = 0, pretend = 0, frame = 0
 355              		@ frame_needed = 0, uses_anonymous_args = 0
 356              	.LVL21:
 357 0000 2DE9F84F 		push	{r3, r4, r5, r6, r7, r8, r9, r10, fp, lr}
 358              		.cfi_def_cfa_offset 40
 359              		.cfi_offset 3, -40
 360              		.cfi_offset 4, -36
 361              		.cfi_offset 5, -32
 362              		.cfi_offset 6, -28
 363              		.cfi_offset 7, -24
 364              		.cfi_offset 8, -20
 365              		.cfi_offset 9, -16
 366              		.cfi_offset 10, -12
 367              		.cfi_offset 11, -8
 368              		.cfi_offset 14, -4
 369              		.loc 1 224 0
 370 0004 0446     		mov	r4, r0
 371 0006 1D46     		mov	r5, r3
 372              		.loc 1 225 0
 373 0008 D0F81C80 		ldr	r8, [r0, #28]
 374              	.LVL22:
 375              	.LBB140:
 376              	.LBB141:
 377              	.LBB142:
 378              	.LBB143:
 379              		.loc 4 546 0
 380 000c 4FF0200B 		mov	fp, #32
 381              	@ 546 "ChibiOS_3.0.2/os/ext/CMSIS/include/core_cmFunc.h" 1
 382 0010 8BF31188 		MSR basepri, fp
 383              	@ 0 "" 2
 384              		.thumb
 385              	.LBE143:
 386              	.LBE142:
 387              	.LBE141:
 388              	.LBE140:
 389              		.loc 1 226 0
 390 0014 0026     		movs	r6, #0
 391 0016 01EB020A 		add	r10, r1, r2
 392 001a 01F10109 		add	r9, r1, #1
 393              	.LVL23:
 394              	.L30:
 395              		.loc 1 232 0
 396 001e B8F1000F 		cmp	r8, #0
ARM GAS  /tmp/ccukX1CL.s 			page 8


 397 0022 05D0     		beq	.L26
 398              		.loc 1 233 0
 399 0024 2046     		mov	r0, r4
 400              	.LVL24:
 401 0026 C047     		blx	r8
 402              	.LVL25:
 403 0028 02E0     		b	.L26
 404              	.LVL26:
 405              	.L28:
 406              		.loc 1 237 0
 407 002a FFF7FEFF 		bl	chThdEnqueueTimeoutS
 408              	.LVL27:
 409 002e F8B9     		cbnz	r0, .L34
 410              	.LVL28:
 411              	.L26:
 412              	.LBB144:
 413              	.LBB145:
 414              		.loc 3 307 0 discriminator 1
 415 0030 A768     		ldr	r7, [r4, #8]
 416              	.LBE145:
 417              	.LBE144:
 418              		.loc 1 237 0 discriminator 1
 419 0032 2046     		mov	r0, r4
 420 0034 2946     		mov	r1, r5
 421              		.loc 1 236 0 discriminator 1
 422 0036 002F     		cmp	r7, #0
 423 0038 F7D0     		beq	.L28
 424              	.LVL29:
 425              		.loc 1 244 0
 426 003a A369     		ldr	r3, [r4, #24]
 427              		.loc 1 243 0
 428 003c A168     		ldr	r1, [r4, #8]
 429              	.LVL30:
 430              		.loc 1 244 0
 431 003e 5A1C     		adds	r2, r3, #1
 432              		.loc 1 243 0
 433 0040 0139     		subs	r1, r1, #1
 434              		.loc 1 244 0
 435 0042 A261     		str	r2, [r4, #24]
 436              		.loc 1 243 0
 437 0044 A160     		str	r1, [r4, #8]
 438              	.LVL31:
 439              		.loc 1 244 0
 440 0046 1B78     		ldrb	r3, [r3]	@ zero_extendqisi2
 441 0048 09F8013C 		strb	r3, [r9, #-1]
 442              		.loc 1 245 0
 443 004c 2369     		ldr	r3, [r4, #16]
 444 004e A269     		ldr	r2, [r4, #24]
 445 0050 9A42     		cmp	r2, r3
 446              		.loc 1 246 0
 447 0052 24BF     		itt	cs
 448 0054 E368     		ldrcs	r3, [r4, #12]
 449 0056 A361     		strcs	r3, [r4, #24]
 450              	.LVL32:
 451              	.LBB146:
 452              	.LBB147:
 453              	.LBB148:
ARM GAS  /tmp/ccukX1CL.s 			page 9


 454              	.LBB149:
 455              	.LBB150:
 456              		.loc 4 546 0
 457 0058 0023     		movs	r3, #0
 458              	@ 546 "ChibiOS_3.0.2/os/ext/CMSIS/include/core_cmFunc.h" 1
 459 005a 83F31188 		MSR basepri, r3
 460              	@ 0 "" 2
 461              		.thumb
 462              	.LBE150:
 463              	.LBE149:
 464              	.LBE148:
 465              	.LBE147:
 466              	.LBE146:
 467              		.loc 1 251 0
 468 005e D145     		cmp	r9, r10
 469              		.loc 1 250 0
 470 0060 06F10106 		add	r6, r6, #1
 471              	.LVL33:
 472              		.loc 1 251 0
 473 0064 06D0     		beq	.L27
 474              	.LVL34:
 475              	.LBB151:
 476              	.LBB152:
 477              	.LBB153:
 478              	.LBB154:
 479              		.loc 4 546 0
 480              	@ 546 "ChibiOS_3.0.2/os/ext/CMSIS/include/core_cmFunc.h" 1
 481 0066 8BF31188 		MSR basepri, fp
 482              	@ 0 "" 2
 483              		.thumb
 484 006a 09F10109 		add	r9, r9, #1
 485 006e D6E7     		b	.L30
 486              	.LVL35:
 487              	.L34:
 488              	.LBE154:
 489              	.LBE153:
 490              	.LBE152:
 491              	.LBE151:
 492              	.LBB155:
 493              	.LBB156:
 494              	.LBB157:
 495              	.LBB158:
 496              	.LBB159:
 497              	@ 546 "ChibiOS_3.0.2/os/ext/CMSIS/include/core_cmFunc.h" 1
 498 0070 87F31188 		MSR basepri, r7
 499              	@ 0 "" 2
 500              	.LVL36:
 501              		.thumb
 502              	.L27:
 503              	.LBE159:
 504              	.LBE158:
 505              	.LBE157:
 506              	.LBE156:
 507              	.LBE155:
 508              		.loc 1 257 0
 509 0074 3046     		mov	r0, r6
 510 0076 BDE8F88F 		pop	{r3, r4, r5, r6, r7, r8, r9, r10, fp, pc}
ARM GAS  /tmp/ccukX1CL.s 			page 10


 511              		.cfi_endproc
 512              	.LFE223:
 513              		.size	chIQReadTimeout, .-chIQReadTimeout
 514 007a 00BFAFF3 		.section	.text.chOQObjectInit,"ax",%progbits
 514      0080
 515              		.align	2
 516              		.p2align 4,,15
 517              		.global	chOQObjectInit
 518              		.thumb
 519              		.thumb_func
 520              		.type	chOQObjectInit, %function
 521              	chOQObjectInit:
 522              	.LFB224:
 523              		.loc 1 276 0
 524              		.cfi_startproc
 525              		@ args = 4, pretend = 0, frame = 0
 526              		@ frame_needed = 0, uses_anonymous_args = 0
 527              		@ link register save eliminated.
 528              	.LVL37:
 529 0000 30B4     		push	{r4, r5}
 530              		.cfi_def_cfa_offset 8
 531              		.cfi_offset 4, -8
 532              		.cfi_offset 5, -4
 533              		.loc 1 276 0
 534 0002 029C     		ldr	r4, [sp, #8]
 535              		.loc 1 285 0
 536 0004 0462     		str	r4, [r0, #32]
 537              		.loc 1 283 0
 538 0006 8D18     		adds	r5, r1, r2
 539 0008 0561     		str	r5, [r0, #16]
 540              	.LBB160:
 541              	.LBB161:
 542              	.LBB162:
 543              		.loc 2 604 0
 544 000a 0060     		str	r0, [r0]
 545              		.loc 2 605 0
 546 000c 4060     		str	r0, [r0, #4]
 547              	.LBE162:
 548              	.LBE161:
 549              	.LBE160:
 550              		.loc 1 279 0
 551 000e 8260     		str	r2, [r0, #8]
 552              		.loc 1 280 0
 553 0010 C160     		str	r1, [r0, #12]
 554              		.loc 1 281 0
 555 0012 8161     		str	r1, [r0, #24]
 556              		.loc 1 282 0
 557 0014 4161     		str	r1, [r0, #20]
 558              		.loc 1 284 0
 559 0016 C361     		str	r3, [r0, #28]
 560              		.loc 1 286 0
 561 0018 30BC     		pop	{r4, r5}
 562              	.LVL38:
 563 001a 7047     		bx	lr
 564              		.cfi_endproc
 565              	.LFE224:
 566              		.size	chOQObjectInit, .-chOQObjectInit
ARM GAS  /tmp/ccukX1CL.s 			page 11


 567 001c AFF30080 		.section	.text.chOQResetI,"ax",%progbits
 568              		.align	2
 569              		.p2align 4,,15
 570              		.global	chOQResetI
 571              		.thumb
 572              		.thumb_func
 573              		.type	chOQResetI, %function
 574              	chOQResetI:
 575              	.LFB225:
 576              		.loc 1 299 0
 577              		.cfi_startproc
 578              		@ args = 0, pretend = 0, frame = 0
 579              		@ frame_needed = 0, uses_anonymous_args = 0
 580              		@ link register save eliminated.
 581              	.LVL39:
 582              		.loc 1 303 0
 583 0000 C268     		ldr	r2, [r0, #12]
 584 0002 8261     		str	r2, [r0, #24]
 585              		.loc 1 299 0
 586 0004 10B4     		push	{r4}
 587              		.cfi_def_cfa_offset 4
 588              		.cfi_offset 4, -4
 589              		.loc 1 305 0
 590 0006 0469     		ldr	r4, [r0, #16]
 591              		.loc 1 304 0
 592 0008 4261     		str	r2, [r0, #20]
 593              		.loc 1 305 0
 594 000a A41A     		subs	r4, r4, r2
 595 000c 8460     		str	r4, [r0, #8]
 596              		.loc 1 306 0
 597 000e 6FF00101 		mvn	r1, #1
 598              		.loc 1 307 0
 599 0012 5DF8044B 		ldr	r4, [sp], #4
 600              		.loc 1 306 0
 601 0016 FFF7FEBF 		b	chThdDequeueAllI
 602              	.LVL40:
 603              		.cfi_endproc
 604              	.LFE225:
 605              		.size	chOQResetI, .-chOQResetI
 606 001a 00BFAFF3 		.section	.text.chOQPutTimeout,"ax",%progbits
 606      0080
 607              		.align	2
 608              		.p2align 4,,15
 609              		.global	chOQPutTimeout
 610              		.thumb
 611              		.thumb_func
 612              		.type	chOQPutTimeout, %function
 613              	chOQPutTimeout:
 614              	.LFB226:
 615              		.loc 1 331 0
 616              		.cfi_startproc
 617              		@ args = 0, pretend = 0, frame = 0
 618              		@ frame_needed = 0, uses_anonymous_args = 0
 619              	.LVL41:
 620 0000 F8B5     		push	{r3, r4, r5, r6, r7, lr}
 621              		.cfi_def_cfa_offset 24
 622              		.cfi_offset 3, -24
ARM GAS  /tmp/ccukX1CL.s 			page 12


 623              		.cfi_offset 4, -20
 624              		.cfi_offset 5, -16
 625              		.cfi_offset 6, -12
 626              		.cfi_offset 7, -8
 627              		.cfi_offset 14, -4
 628              		.loc 1 331 0
 629 0002 0446     		mov	r4, r0
 630 0004 0F46     		mov	r7, r1
 631 0006 1646     		mov	r6, r2
 632              	.LBB163:
 633              	.LBB164:
 634              	.LBB165:
 635              	.LBB166:
 636              		.loc 4 546 0
 637 0008 2023     		movs	r3, #32
 638              	@ 546 "ChibiOS_3.0.2/os/ext/CMSIS/include/core_cmFunc.h" 1
 639 000a 83F31188 		MSR basepri, r3
 640              	@ 0 "" 2
 641              		.thumb
 642 000e 03E0     		b	.L38
 643              	.LVL42:
 644              	.L41:
 645              	.LBE166:
 646              	.LBE165:
 647              	.LBE164:
 648              	.LBE163:
 649              	.LBB167:
 650              		.loc 1 335 0
 651 0010 FFF7FEFF 		bl	chThdEnqueueTimeoutS
 652              	.LVL43:
 653              		.loc 1 336 0
 654 0014 0028     		cmp	r0, #0
 655 0016 19DB     		blt	.L47
 656              	.LVL44:
 657              	.L38:
 658              	.LBE167:
 659              	.LBB173:
 660              	.LBB174:
 661              		.loc 3 407 0 discriminator 1
 662 0018 A568     		ldr	r5, [r4, #8]
 663              	.LBE174:
 664              	.LBE173:
 665              	.LBB175:
 666              		.loc 1 335 0 discriminator 1
 667 001a 2046     		mov	r0, r4
 668 001c 3146     		mov	r1, r6
 669              	.LBE175:
 670              		.loc 1 334 0 discriminator 1
 671 001e 002D     		cmp	r5, #0
 672 0020 F6D0     		beq	.L41
 673              	.LVL45:
 674              		.loc 1 343 0
 675 0022 6369     		ldr	r3, [r4, #20]
 676              		.loc 1 342 0
 677 0024 A168     		ldr	r1, [r4, #8]
 678              	.LVL46:
 679              		.loc 1 343 0
ARM GAS  /tmp/ccukX1CL.s 			page 13


 680 0026 5A1C     		adds	r2, r3, #1
 681              		.loc 1 342 0
 682 0028 0139     		subs	r1, r1, #1
 683              		.loc 1 343 0
 684 002a 6261     		str	r2, [r4, #20]
 685              		.loc 1 342 0
 686 002c A160     		str	r1, [r4, #8]
 687              		.loc 1 343 0
 688 002e 1F70     		strb	r7, [r3]
 689              		.loc 1 344 0
 690 0030 2369     		ldr	r3, [r4, #16]
 691 0032 6269     		ldr	r2, [r4, #20]
 692 0034 9A42     		cmp	r2, r3
 693              		.loc 1 345 0
 694 0036 24BF     		itt	cs
 695 0038 E368     		ldrcs	r3, [r4, #12]
 696 003a 6361     		strcs	r3, [r4, #20]
 697              		.loc 1 348 0
 698 003c E369     		ldr	r3, [r4, #28]
 699 003e 0BB1     		cbz	r3, .L43
 700              		.loc 1 349 0
 701 0040 2046     		mov	r0, r4
 702              	.LVL47:
 703 0042 9847     		blx	r3
 704              	.LVL48:
 705              	.L43:
 706              	.LBB176:
 707              	.LBB177:
 708              	.LBB178:
 709              	.LBB179:
 710              	.LBB180:
 711              		.loc 4 546 0
 712 0044 0020     		movs	r0, #0
 713              	@ 546 "ChibiOS_3.0.2/os/ext/CMSIS/include/core_cmFunc.h" 1
 714 0046 80F31188 		MSR basepri, r0
 715              	@ 0 "" 2
 716              		.thumb
 717              	.LBE180:
 718              	.LBE179:
 719              	.LBE178:
 720              	.LBE177:
 721              	.LBE176:
 722              		.loc 1 354 0
 723 004a F8BD     		pop	{r3, r4, r5, r6, r7, pc}
 724              	.LVL49:
 725              	.L47:
 726              	.LBB181:
 727              	.LBB168:
 728              	.LBB169:
 729              	.LBB170:
 730              	.LBB171:
 731              	.LBB172:
 732              		.loc 4 546 0
 733              	@ 546 "ChibiOS_3.0.2/os/ext/CMSIS/include/core_cmFunc.h" 1
 734 004c 85F31188 		MSR basepri, r5
 735              	@ 0 "" 2
 736              		.thumb
ARM GAS  /tmp/ccukX1CL.s 			page 14


 737              	.LBE172:
 738              	.LBE171:
 739              	.LBE170:
 740              	.LBE169:
 741              	.LBE168:
 742              		.loc 1 338 0
 743 0050 F8BD     		pop	{r3, r4, r5, r6, r7, pc}
 744              	.LBE181:
 745              		.cfi_endproc
 746              	.LFE226:
 747              		.size	chOQPutTimeout, .-chOQPutTimeout
 748 0052 00BFAFF3 		.section	.text.chOQGetI,"ax",%progbits
 748      0080AFF3 
 748      0080AFF3 
 748      0080
 749              		.align	2
 750              		.p2align 4,,15
 751              		.global	chOQGetI
 752              		.thumb
 753              		.thumb_func
 754              		.type	chOQGetI, %function
 755              	chOQGetI:
 756              	.LFB227:
 757              		.loc 1 366 0
 758              		.cfi_startproc
 759              		@ args = 0, pretend = 0, frame = 0
 760              		@ frame_needed = 0, uses_anonymous_args = 0
 761              	.LVL50:
 762              	.LBB182:
 763              	.LBB183:
 764              		.loc 3 390 0
 765 0000 8369     		ldr	r3, [r0, #24]
 766 0002 4269     		ldr	r2, [r0, #20]
 767 0004 9A42     		cmp	r2, r3
 768              	.LBE183:
 769              	.LBE182:
 770              		.loc 1 366 0
 771 0006 10B5     		push	{r4, lr}
 772              		.cfi_def_cfa_offset 8
 773              		.cfi_offset 4, -8
 774              		.cfi_offset 14, -4
 775              	.LBB186:
 776              	.LBB184:
 777              		.loc 3 390 0
 778 0008 0FD0     		beq	.L55
 779              	.L49:
 780              	.LBE184:
 781              	.LBE186:
 782              		.loc 1 375 0
 783 000a 8468     		ldr	r4, [r0, #8]
 784              		.loc 1 377 0
 785 000c 0169     		ldr	r1, [r0, #16]
 786              		.loc 1 375 0
 787 000e 0134     		adds	r4, r4, #1
 788              		.loc 1 376 0
 789 0010 5A1C     		adds	r2, r3, #1
 790              		.loc 1 375 0
ARM GAS  /tmp/ccukX1CL.s 			page 15


 791 0012 8460     		str	r4, [r0, #8]
 792              		.loc 1 376 0
 793 0014 8261     		str	r2, [r0, #24]
 794              		.loc 1 377 0
 795 0016 8A42     		cmp	r2, r1
 796              		.loc 1 376 0
 797 0018 1C78     		ldrb	r4, [r3]	@ zero_extendqisi2
 798              	.LVL51:
 799              		.loc 1 377 0
 800 001a 01D3     		bcc	.L52
 801              		.loc 1 378 0
 802 001c C368     		ldr	r3, [r0, #12]
 803              	.LVL52:
 804 001e 8361     		str	r3, [r0, #24]
 805              	.LVL53:
 806              	.L52:
 807              		.loc 1 381 0
 808 0020 0021     		movs	r1, #0
 809 0022 FFF7FEFF 		bl	chThdDequeueNextI
 810              	.LVL54:
 811              		.loc 1 383 0
 812 0026 2046     		mov	r0, r4
 813 0028 10BD     		pop	{r4, pc}
 814              	.LVL55:
 815              	.L55:
 816              	.LBB187:
 817              	.LBB185:
 818              		.loc 3 390 0
 819 002a 8268     		ldr	r2, [r0, #8]
 820 002c 002A     		cmp	r2, #0
 821 002e ECD0     		beq	.L49
 822              	.LBE185:
 823              	.LBE187:
 824              		.loc 1 372 0
 825 0030 6FF00200 		mvn	r0, #2
 826              	.LVL56:
 827 0034 10BD     		pop	{r4, pc}
 828              		.cfi_endproc
 829              	.LFE227:
 830              		.size	chOQGetI, .-chOQGetI
 831 0036 00BFAFF3 		.section	.text.chOQWriteTimeout,"ax",%progbits
 831      0080AFF3 
 831      0080
 832              		.align	2
 833              		.p2align 4,,15
 834              		.global	chOQWriteTimeout
 835              		.thumb
 836              		.thumb_func
 837              		.type	chOQWriteTimeout, %function
 838              	chOQWriteTimeout:
 839              	.LFB228:
 840              		.loc 1 411 0
 841              		.cfi_startproc
 842              		@ args = 0, pretend = 0, frame = 8
 843              		@ frame_needed = 0, uses_anonymous_args = 0
 844              	.LVL57:
 845 0000 2DE9F04F 		push	{r4, r5, r6, r7, r8, r9, r10, fp, lr}
ARM GAS  /tmp/ccukX1CL.s 			page 16


 846              		.cfi_def_cfa_offset 36
 847              		.cfi_offset 4, -36
 848              		.cfi_offset 5, -32
 849              		.cfi_offset 6, -28
 850              		.cfi_offset 7, -24
 851              		.cfi_offset 8, -20
 852              		.cfi_offset 9, -16
 853              		.cfi_offset 10, -12
 854              		.cfi_offset 11, -8
 855              		.cfi_offset 14, -4
 856 0004 83B0     		sub	sp, sp, #12
 857              		.cfi_def_cfa_offset 48
 858              		.loc 1 411 0
 859 0006 0446     		mov	r4, r0
 860 0008 0D46     		mov	r5, r1
 861 000a 1646     		mov	r6, r2
 862 000c 0193     		str	r3, [sp, #4]
 863              		.loc 1 412 0
 864 000e D0F81C80 		ldr	r8, [r0, #28]
 865              	.LVL58:
 866              	.LBB188:
 867              	.LBB189:
 868              	.LBB190:
 869              	.LBB191:
 870              		.loc 4 546 0
 871 0012 4FF0200A 		mov	r10, #32
 872              	@ 546 "ChibiOS_3.0.2/os/ext/CMSIS/include/core_cmFunc.h" 1
 873 0016 8AF31188 		MSR basepri, r10
 874              	@ 0 "" 2
 875              		.thumb
 876              	.LBE191:
 877              	.LBE190:
 878              	.LBE189:
 879              	.LBE188:
 880              		.loc 1 413 0
 881 001a 0027     		movs	r7, #0
 882              	.LBB192:
 883              	.LBB193:
 884              	.LBB194:
 885              	.LBB195:
 886              	.LBB196:
 887              		.loc 4 546 0
 888 001c B946     		mov	r9, r7
 889              	.LVL59:
 890              	.L57:
 891              	.LBE196:
 892              	.LBE195:
 893              	.LBE194:
 894              	.LBE193:
 895              	.LBE192:
 896              	.LBB201:
 897              	.LBB202:
 898              		.loc 3 407 0 discriminator 1
 899 001e A368     		ldr	r3, [r4, #8]
 900              	.LBE202:
 901              	.LBE201:
 902              		.loc 1 427 0 discriminator 1
ARM GAS  /tmp/ccukX1CL.s 			page 17


 903 0020 05F1010B 		add	fp, r5, #1
 904              	.LVL60:
 905              		.loc 1 433 0 discriminator 1
 906 0024 2046     		mov	r0, r4
 907              		.loc 1 419 0 discriminator 1
 908 0026 03B3     		cbz	r3, .L60
 909              	.LVL61:
 910              	.L72:
 911              		.loc 1 427 0
 912 0028 6369     		ldr	r3, [r4, #20]
 913              		.loc 1 426 0
 914 002a A168     		ldr	r1, [r4, #8]
 915 002c 4A1E     		subs	r2, r1, #1
 916              		.loc 1 427 0
 917 002e 591C     		adds	r1, r3, #1
 918 0030 6161     		str	r1, [r4, #20]
 919              		.loc 1 426 0
 920 0032 A260     		str	r2, [r4, #8]
 921              		.loc 1 427 0
 922 0034 2978     		ldrb	r1, [r5]	@ zero_extendqisi2
 923 0036 1970     		strb	r1, [r3]
 924              		.loc 1 428 0
 925 0038 2369     		ldr	r3, [r4, #16]
 926 003a 6169     		ldr	r1, [r4, #20]
 927 003c 9942     		cmp	r1, r3
 928              		.loc 1 429 0
 929 003e 24BF     		itt	cs
 930 0040 E368     		ldrcs	r3, [r4, #12]
 931 0042 6361     		strcs	r3, [r4, #20]
 932              		.loc 1 432 0
 933 0044 B8F1000F 		cmp	r8, #0
 934 0048 00D0     		beq	.L62
 935              		.loc 1 433 0
 936 004a C047     		blx	r8
 937              	.LVL62:
 938              	.L62:
 939              	.LBB204:
 940              	.LBB200:
 941              	.LBB199:
 942              	.LBB198:
 943              	.LBB197:
 944              		.loc 4 546 0
 945              	@ 546 "ChibiOS_3.0.2/os/ext/CMSIS/include/core_cmFunc.h" 1
 946 004c 89F31188 		MSR basepri, r9
 947              	@ 0 "" 2
 948              	.LVL63:
 949              		.thumb
 950              	.LBE197:
 951              	.LBE198:
 952              	.LBE199:
 953              	.LBE200:
 954              	.LBE204:
 955              		.loc 1 438 0
 956 0050 013E     		subs	r6, r6, #1
 957              	.LVL64:
 958              		.loc 1 437 0
 959 0052 07F10107 		add	r7, r7, #1
ARM GAS  /tmp/ccukX1CL.s 			page 18


 960              	.LVL65:
 961              		.loc 1 438 0
 962 0056 12D0     		beq	.L59
 963              	.LBB205:
 964              	.LBB206:
 965              	.LBB207:
 966              	.LBB208:
 967              		.loc 4 546 0
 968              	@ 546 "ChibiOS_3.0.2/os/ext/CMSIS/include/core_cmFunc.h" 1
 969 0058 8AF31188 		MSR basepri, r10
 970              	@ 0 "" 2
 971              		.thumb
 972              	.LBE208:
 973              	.LBE207:
 974              	.LBE206:
 975              	.LBE205:
 976              	.LBB209:
 977              	.LBB203:
 978              		.loc 3 407 0
 979 005c A368     		ldr	r3, [r4, #8]
 980              	.LBE203:
 981              	.LBE209:
 982              		.loc 1 427 0
 983 005e 5D46     		mov	r5, fp
 984              	.LVL66:
 985 0060 05F1010B 		add	fp, r5, #1
 986              	.LVL67:
 987              		.loc 1 433 0
 988 0064 2046     		mov	r0, r4
 989              		.loc 1 419 0
 990 0066 002B     		cmp	r3, #0
 991 0068 DED1     		bne	.L72
 992              	.LVL68:
 993              	.L60:
 994              		.loc 1 420 0
 995 006a 2046     		mov	r0, r4
 996              	.LVL69:
 997 006c 0199     		ldr	r1, [sp, #4]
 998 006e 0093     		str	r3, [sp]
 999 0070 FFF7FEFF 		bl	chThdEnqueueTimeoutS
 1000              	.LVL70:
 1001 0074 009B     		ldr	r3, [sp]
 1002 0076 0028     		cmp	r0, #0
 1003 0078 D1D0     		beq	.L57
 1004              	.LVL71:
 1005              	.LBB210:
 1006              	.LBB211:
 1007              	.LBB212:
 1008              	.LBB213:
 1009              	.LBB214:
 1010              		.loc 4 546 0
 1011              	@ 546 "ChibiOS_3.0.2/os/ext/CMSIS/include/core_cmFunc.h" 1
 1012 007a 83F31188 		MSR basepri, r3
 1013              	@ 0 "" 2
 1014              	.LVL72:
 1015              		.thumb
 1016              	.L59:
ARM GAS  /tmp/ccukX1CL.s 			page 19


 1017              	.LBE214:
 1018              	.LBE213:
 1019              	.LBE212:
 1020              	.LBE211:
 1021              	.LBE210:
 1022              		.loc 1 443 0
 1023 007e 3846     		mov	r0, r7
 1024 0080 03B0     		add	sp, sp, #12
 1025              		@ sp needed
 1026 0082 BDE8F08F 		pop	{r4, r5, r6, r7, r8, r9, r10, fp, pc}
 1027              		.cfi_endproc
 1028              	.LFE228:
 1029              		.size	chOQWriteTimeout, .-chOQWriteTimeout
 1030 0086 00BFAFF3 		.text
 1030      0080AFF3 
 1030      0080
 1031              	.Letext0:
 1032              		.file 5 "/usr/lib/gcc/arm-none-eabi/4.8/include/stddef.h"
 1033              		.file 6 "/usr/include/newlib/machine/_default_types.h"
 1034              		.file 7 "/usr/include/newlib/stdint.h"
 1035              		.file 8 "ChibiOS_3.0.2/os/rt/ports/ARMCMx/compilers/GCC/chtypes.h"
 1036              		.file 9 "ChibiOS_3.0.2/os/rt/include/chsystypes.h"
 1037              		.file 10 "ChibiOS_3.0.2/os/rt/ports/ARMCMx/chcore.h"
 1038              		.file 11 "ChibiOS_3.0.2/os/rt/ports/ARMCMx/chcore_v7m.h"
 1039              		.file 12 "ChibiOS_3.0.2/os/rt/include/chtm.h"
 1040              		.file 13 "ChibiOS_3.0.2/os/rt/include/chsem.h"
 1041              		.file 14 "ChibiOS_3.0.2/os/rt/include/chmtx.h"
 1042              		.file 15 "ChibiOS_3.0.2/os/rt/include/chthreads.h"
 1043              		.file 16 "ChibiOS_3.0.2/os/rt/include/chsys.h"
 1044              		.file 17 "ChibiOS_3.0.2/os/ext/CMSIS/include/core_cm4.h"