ARM GAS  /tmp/ccukX1CL.s 			page 1


   1              		.syntax unified
   2              		.cpu cortex-m4
   3              		.eabi_attribute 27, 3
   4              		.eabi_attribute 28, 1
   5              		.fpu fpv4-sp-d16
   6              		.eabi_attribute 20, 1
   7              		.eabi_attribute 21, 1
   8              		.eabi_attribute 23, 3
   9              		.eabi_attribute 24, 1
  10              		.eabi_attribute 25, 1
  11              		.eabi_attribute 26, 1
  12              		.eabi_attribute 30, 2
  13              		.eabi_attribute 34, 1
  14              		.eabi_attribute 18, 4
  15              		.thumb
  16              		.file	"chqueues.c"
  17              		.text
  18              	.Ltext0:
  19              		.cfi_sections	.debug_frame
  20              		.section	.text.chIQObjectInit,"ax",%progbits
  21              		.align	2
  22              		.p2align 4,,15
  23              		.global	chIQObjectInit
  24              		.thumb
  25              		.thumb_func
  26              		.type	chIQObjectInit, %function
  27              	chIQObjectInit:
  28              	.LFB219:
  29              		.file 1 "ChibiOS_3.0.2/os/rt/src/chqueues.c"
  30              		.loc 1 88 0
  31              		.cfi_startproc
  32              		@ args = 4, pretend = 0, frame = 0
  33              		@ frame_needed = 0, uses_anonymous_args = 0
  34              		@ link register save eliminated.
  35              	.LVL0:
  36 0000 30B4     		push	{r4, r5}
  37              		.cfi_def_cfa_offset 8
  38              		.cfi_offset 4, -8
  39              		.cfi_offset 5, -4
  40              		.loc 1 88 0
  41 0002 029C     		ldr	r4, [sp, #8]
  42              		.loc 1 97 0
  43 0004 0462     		str	r4, [r0, #32]
  44              		.loc 1 91 0
  45 0006 0025     		movs	r5, #0
  46              		.loc 1 95 0
  47 0008 0A44     		add	r2, r2, r1
  48              	.LVL1:
  49              		.loc 1 91 0
  50 000a 8560     		str	r5, [r0, #8]
  51              		.loc 1 95 0
  52 000c 0261     		str	r2, [r0, #16]
  53              	.LBB108:
  54              	.LBB109:
  55              	.LBB110:
  56              		.file 2 "ChibiOS_3.0.2/os/rt/include/chschd.h"
  57              		.loc 2 604 0
ARM GAS  /tmp/ccukX1CL.s 			page 2


  58 000e 0060     		str	r0, [r0]
  59              		.loc 2 605 0
  60 0010 4060     		str	r0, [r0, #4]
  61              	.LBE110:
  62              	.LBE109:
  63              	.LBE108:
  64              		.loc 1 92 0
  65 0012 C160     		str	r1, [r0, #12]
  66              		.loc 1 93 0
  67 0014 8161     		str	r1, [r0, #24]
  68              		.loc 1 94 0
  69 0016 4161     		str	r1, [r0, #20]
  70              		.loc 1 96 0
  71 0018 C361     		str	r3, [r0, #28]
  72              		.loc 1 98 0
  73 001a 30BC     		pop	{r4, r5}
  74              	.LVL2:
  75 001c 7047     		bx	lr
  76              		.cfi_endproc
  77              	.LFE219:
  78              		.size	chIQObjectInit, .-chIQObjectInit
  79 001e 00BF     		.section	.text.chIQResetI,"ax",%progbits
  80              		.align	2
  81              		.p2align 4,,15
  82              		.global	chIQResetI
  83              		.thumb
  84              		.thumb_func
  85              		.type	chIQResetI, %function
  86              	chIQResetI:
  87              	.LFB220:
  88              		.loc 1 111 0
  89              		.cfi_startproc
  90              		@ args = 0, pretend = 0, frame = 0
  91              		@ frame_needed = 0, uses_anonymous_args = 0
  92              		@ link register save eliminated.
  93              	.LVL3:
  94              		.loc 1 117 0
  95 0000 0021     		movs	r1, #0
  96              		.loc 1 115 0
  97 0002 C268     		ldr	r2, [r0, #12]
  98              		.loc 1 117 0
  99 0004 8160     		str	r1, [r0, #8]
 100              		.loc 1 115 0
 101 0006 8261     		str	r2, [r0, #24]
 102              		.loc 1 116 0
 103 0008 4261     		str	r2, [r0, #20]
 104              		.loc 1 118 0
 105 000a 6FF00101 		mvn	r1, #1
 106 000e FFF7FEBF 		b	chThdDequeueAllI
 107              	.LVL4:
 108              		.cfi_endproc
 109              	.LFE220:
 110              		.size	chIQResetI, .-chIQResetI
 111 0012 00BFAFF3 		.section	.text.chIQPutI,"ax",%progbits
 111      0080AFF3 
 111      0080AFF3 
 111      0080
ARM GAS  /tmp/ccukX1CL.s 			page 3


 112              		.align	2
 113              		.p2align 4,,15
 114              		.global	chIQPutI
 115              		.thumb
 116              		.thumb_func
 117              		.type	chIQPutI, %function
 118              	chIQPutI:
 119              	.LFB221:
 120              		.loc 1 134 0
 121              		.cfi_startproc
 122              		@ args = 0, pretend = 0, frame = 0
 123              		@ frame_needed = 0, uses_anonymous_args = 0
 124              	.LVL5:
 125              	.LBB111:
 126              	.LBB112:
 127              		.file 3 "ChibiOS_3.0.2/os/rt/include/chqueues.h"
 128              		.loc 3 324 0
 129 0000 4369     		ldr	r3, [r0, #20]
 130 0002 8269     		ldr	r2, [r0, #24]
 131 0004 9342     		cmp	r3, r2
 132              	.LBE112:
 133              	.LBE111:
 134              		.loc 1 134 0
 135 0006 10B5     		push	{r4, lr}
 136              		.cfi_def_cfa_offset 8
 137              		.cfi_offset 4, -8
 138              		.cfi_offset 14, -4
 139              	.LBB115:
 140              	.LBB113:
 141              		.loc 3 324 0
 142 0008 10D0     		beq	.L11
 143              	.L4:
 144              	.LBE113:
 145              	.LBE115:
 146              		.loc 1 142 0
 147 000a 8468     		ldr	r4, [r0, #8]
 148              		.loc 1 143 0
 149 000c 5A1C     		adds	r2, r3, #1
 150              		.loc 1 142 0
 151 000e 0134     		adds	r4, r4, #1
 152              		.loc 1 143 0
 153 0010 4261     		str	r2, [r0, #20]
 154              		.loc 1 142 0
 155 0012 8460     		str	r4, [r0, #8]
 156              		.loc 1 143 0
 157 0014 1970     		strb	r1, [r3]
 158              		.loc 1 144 0
 159 0016 4269     		ldr	r2, [r0, #20]
 160 0018 0369     		ldr	r3, [r0, #16]
 161 001a 9A42     		cmp	r2, r3
 162 001c 01D3     		bcc	.L7
 163              		.loc 1 145 0
 164 001e C368     		ldr	r3, [r0, #12]
 165 0020 4361     		str	r3, [r0, #20]
 166              	.L7:
 167              		.loc 1 148 0
 168 0022 0021     		movs	r1, #0
ARM GAS  /tmp/ccukX1CL.s 			page 4


 169              	.LVL6:
 170 0024 FFF7FEFF 		bl	chThdDequeueNextI
 171              	.LVL7:
 172              		.loc 1 150 0
 173 0028 0020     		movs	r0, #0
 174 002a 10BD     		pop	{r4, pc}
 175              	.LVL8:
 176              	.L11:
 177              	.LBB116:
 178              	.LBB114:
 179              		.loc 3 324 0
 180 002c 8268     		ldr	r2, [r0, #8]
 181 002e 002A     		cmp	r2, #0
 182 0030 EBD0     		beq	.L4
 183              	.LBE114:
 184              	.LBE116:
 185              		.loc 1 139 0
 186 0032 6FF00300 		mvn	r0, #3
 187              	.LVL9:
 188 0036 10BD     		pop	{r4, pc}
 189              		.cfi_endproc
 190              	.LFE221:
 191              		.size	chIQPutI, .-chIQPutI
 192              		.section	.text.chIQGetTimeout,"ax",%progbits
 193              		.align	2
 194              		.p2align 4,,15
 195              		.global	chIQGetTimeout
 196              		.thumb
 197              		.thumb_func
 198              		.type	chIQGetTimeout, %function
 199              	chIQGetTimeout:
 200              	.LFB222:
 201              		.loc 1 173 0
 202              		.cfi_startproc
 203              		@ args = 0, pretend = 0, frame = 0
 204              		@ frame_needed = 0, uses_anonymous_args = 0
 205              	.LVL10:
 206 0000 70B5     		push	{r4, r5, r6, lr}
 207              		.cfi_def_cfa_offset 16
 208              		.cfi_offset 4, -16
 209              		.cfi_offset 5, -12
 210              		.cfi_offset 6, -8
 211              		.cfi_offset 14, -4
 212              	.LBB117:
 213              	.LBB118:
 214              	.LBB119:
 215              	.LBB120:
 216              		.file 4 "ChibiOS_3.0.2/os/ext/CMSIS/include/core_cmFunc.h"
 217              		.loc 4 546 0
 218 0002 2023     		movs	r3, #32
 219              	.LBE120:
 220              	.LBE119:
 221              	.LBE118:
 222              	.LBE117:
 223              		.loc 1 173 0
 224 0004 0E46     		mov	r6, r1
 225 0006 0446     		mov	r4, r0
ARM GAS  /tmp/ccukX1CL.s 			page 5


 226              	.LBB124:
 227              	.LBB123:
 228              	.LBB122:
 229              	.LBB121:
 230              		.loc 4 546 0
 231              	@ 546 "ChibiOS_3.0.2/os/ext/CMSIS/include/core_cmFunc.h" 1
 232 0008 83F31188 		MSR basepri, r3
 233              	@ 0 "" 2
 234              		.thumb
 235              	.LBE121:
 236              	.LBE122:
 237              	.LBE123:
 238              	.LBE124:
 239              		.loc 1 177 0
 240 000c C369     		ldr	r3, [r0, #28]
 241 000e 2BB1     		cbz	r3, .L15
 242              		.loc 1 178 0
 243 0010 9847     		blx	r3
 244              	.LVL11:
 245 0012 03E0     		b	.L15
 246              	.LVL12:
 247              	.L17:
 248              	.LBB125:
 249              		.loc 1 182 0
 250 0014 FFF7FEFF 		bl	chThdEnqueueTimeoutS
 251              	.LVL13:
 252              		.loc 1 183 0
 253 0018 0028     		cmp	r0, #0
 254 001a 16DB     		blt	.L22
 255              	.LVL14:
 256              	.L15:
 257              	.LBE125:
 258              	.LBB131:
 259              	.LBB132:
 260              		.loc 3 307 0 discriminator 1
 261 001c A568     		ldr	r5, [r4, #8]
 262              	.LBE132:
 263              	.LBE131:
 264              	.LBB133:
 265              		.loc 1 182 0 discriminator 1
 266 001e 2046     		mov	r0, r4
 267 0020 3146     		mov	r1, r6
 268              	.LBE133:
 269              		.loc 1 181 0 discriminator 1
 270 0022 002D     		cmp	r5, #0
 271 0024 F6D0     		beq	.L17
 272              	.LVL15:
 273              		.loc 1 190 0
 274 0026 A269     		ldr	r2, [r4, #24]
 275              		.loc 1 189 0
 276 0028 A068     		ldr	r0, [r4, #8]
 277              	.LVL16:
 278              		.loc 1 191 0
 279 002a 2169     		ldr	r1, [r4, #16]
 280              	.LVL17:
 281              		.loc 1 190 0
 282 002c 531C     		adds	r3, r2, #1
ARM GAS  /tmp/ccukX1CL.s 			page 6


 283              		.loc 1 191 0
 284 002e 8B42     		cmp	r3, r1
 285              		.loc 1 189 0
 286 0030 00F1FF30 		add	r0, r0, #-1
 287              		.loc 1 190 0
 288 0034 A361     		str	r3, [r4, #24]
 289              		.loc 1 189 0
 290 0036 A060     		str	r0, [r4, #8]
 291              		.loc 1 192 0
 292 0038 28BF     		it	cs
 293 003a E368     		ldrcs	r3, [r4, #12]
 294              		.loc 1 190 0
 295 003c 1078     		ldrb	r0, [r2]	@ zero_extendqisi2
 296              	.LVL18:
 297              		.loc 1 192 0
 298 003e 28BF     		it	cs
 299 0040 A361     		strcs	r3, [r4, #24]
 300              	.LVL19:
 301              	.LBB134:
 302              	.LBB135:
 303              	.LBB136:
 304              	.LBB137:
 305              	.LBB138:
 306              		.loc 4 546 0
 307 0042 0023     		movs	r3, #0
 308              	@ 546 "ChibiOS_3.0.2/os/ext/CMSIS/include/core_cmFunc.h" 1
 309 0044 83F31188 		MSR basepri, r3
 310              	@ 0 "" 2
 311              		.thumb
 312              	.LBE138:
 313              	.LBE137:
 314              	.LBE136:
 315              	.LBE135:
 316              	.LBE134:
 317              		.loc 1 197 0
 318 0048 70BD     		pop	{r4, r5, r6, pc}
 319              	.LVL20:
 320              	.L22:
 321              	.LBB139:
 322              	.LBB126:
 323              	.LBB127:
 324              	.LBB128:
 325              	.LBB129:
 326              	.LBB130:
 327              		.loc 4 546 0
 328              	@ 546 "ChibiOS_3.0.2/os/ext/CMSIS/include/core_cmFunc.h" 1
 329 004a 85F31188 		MSR basepri, r5
 330              	@ 0 "" 2
 331              		.thumb
 332              	.LBE130:
 333              	.LBE129:
 334              	.LBE128:
 335              	.LBE127:
 336              	.LBE126:
 337              		.loc 1 185 0
 338 004e 70BD     		pop	{r4, r5, r6, pc}
 339              	.LBE139:
ARM GAS  /tmp/ccukX1CL.s 			page 7


 340              		.cfi_endproc
 341              	.LFE222:
 342              		.size	chIQGetTimeout, .-chIQGetTimeout
 343              		.section	.text.chIQReadTimeout,"ax",%progbits
 344              		.align	2
 345              		.p2align 4,,15
 346              		.global	chIQReadTimeout
 347              		.thumb
 348              		.thumb_func
 349              		.type	chIQReadTimeout, %function
 350              	chIQReadTimeout:
 351              	.LFB223:
 352              		.loc 1 224 0
 353              		.cfi_startproc
 354              		@ args = 0, pretend = 0, frame = 0
 355              		@ frame_needed = 0, uses_anonymous_args = 0
 356              	.LVL21:
 357 0000 2DE9F84F 		push	{r3, r4, r5, r6, r7, r8, r9, r10, fp, lr}
 358              		.cfi_def_cfa_offset 40
 359              		.cfi_offset 3, -40
 360              		.cfi_offset 4, -36
 361              		.cfi_offset 5, -32
 362              		.cfi_offset 6, -28
 363              		.cfi_offset 7, -24
 364              		.cfi_offset 8, -20
 365              		.cfi_offset 9, -16
 366              		.cfi_offset 10, -12
 367              		.cfi_offset 11, -8
 368              		.cfi_offset 14, -4
 369              		.loc 1 224 0
 370 0004 0446     		mov	r4, r0
 371 0006 1D46     		mov	r5, r3
 372              		.loc 1 225 0
 373 0008 D0F81C80 		ldr	r8, [r0, #28]
 374              	.LVL22:
 375              	.LBB140:
 376              	.LBB141:
 377              	.LBB142:
 378              	.LBB143:
 379              		.loc 4 546 0
 380 000c 4FF0200B 		mov	fp, #32
 381              	@ 546 "ChibiOS_3.0.2/os/ext/CMSIS/include/core_cmFunc.h" 1
 382 0010 8BF31188 		MSR basepri, fp
 383              	@ 0 "" 2
 384              		.thumb
 385              	.LBE143:
 386              	.LBE142:
 387              	.LBE141:
 388              	.LBE140:
 389              		.loc 1 226 0
 390 0014 0026     		movs	r6, #0
 391 0016 01EB020A 		add	r10, r1, r2
 392 001a 01F10109 		add	r9, r1, #1
 393              	.LVL23:
 394              	.L30:
 395              		.loc 1 232 0
 396 001e B8F1000F 		cmp	r8, #0
ARM GAS  /tmp/ccukX1CL.s 			page 8


 397 0022 05D0     		beq	.L26
 398              		.loc 1 233 0
 399 0024 2046     		mov	r0, r4
 400              	.LVL24:
 401 0026 C047     		blx	r8
 402              	.LVL25:
 403 0028 02E0     		b	.L26
 404              	.LVL26:
 405              	.L28:
 406              		.loc 1 237 0
 407 002a FFF7FEFF 		bl	chThdEnqueueTimeoutS
 408              	.LVL27:
 409 002e F8B9     		cbnz	r0, .L34
 410              	.LVL28:
 411              	.L26:
 412              	.LBB144:
 413              	.LBB145:
 414              		.loc 3 307 0 discriminator 1
 415 0030 A768     		ldr	r7, [r4, #8]
 416              	.LBE145:
 417              	.LBE144:
 418              		.loc 1 237 0 discriminator 1
 419 0032 2046     		mov	r0, r4
 420 0034 2946     		mov	r1, r5
 421              		.loc 1 236 0 discriminator 1
 422 0036 002F     		cmp	r7, #0
 423 0038 F7D0     		beq	.L28
 424              	.LVL29:
 425              		.loc 1 244 0
 426 003a A369     		ldr	r3, [r4, #24]
 427              		.loc 1 243 0
 428 003c A168     		ldr	r1, [r4, #8]
 429              	.LVL30:
 430              		.loc 1 244 0
 431 003e 5A1C     		adds	r2, r3, #1
 432              		.loc 1 243 0
 433 0040 0139     		subs	r1, r1, #1
 434              		.loc 1 244 0
 435 0042 A261     		str	r2, [r4, #24]
 436              		.loc 1 243 0
 437 0044 A160     		str	r1, [r4, #8]
 438              	.LVL31:
 439              		.loc 1 244 0
 440 0046 1B78     		ldrb	r3, [r3]	@ zero_extendqisi2
 441 0048 09F8013C 		strb	r3, [r9, #-1]
 442              		.loc 1 245 0
 443 004c 2369     		ldr	r3, [r4, #16]
 444 004e A269     		ldr	r2, [r4, #24]
 445 0050 9A42     		cmp	r2, r3
 446              		.loc 1 246 0
 447 0052 24BF     		itt	cs
 448 0054 E368     		ldrcs	r3, [r4, #12]
 449 0056 A361     		strcs	r3, [r4, #24]
 450              	.LVL32:
 451              	.LBB146:
 452              	.LBB147:
 453              	.LBB148:
ARM GAS  /tmp/ccukX1CL.s 			page 9


 454              	.LBB149:
 455              	.LBB150:
 456              		.loc 4 546 0
 457 0058 0023     		movs	r3, #0
 458              	@ 546 "ChibiOS_3.0.2/os/ext/CMSIS/include/core_cmFunc.h" 1
 459 005a 83F31188 		MSR basepri, r3
 460              	@ 0 "" 2
 461              		.thumb
 462              	.LBE150:
 463              	.LBE149:
 464              	.LBE148:
 465              	.LBE147:
 466              	.LBE146:
 467              		.loc 1 251 0
 468 005e D145     		cmp	r9, r10
 469              		.loc 1 250 0
 470 0060 06F10106 		add	r6, r6, #1
 471              	.LVL33:
 472              		.loc 1 251 0
 473 0064 06D0     		beq	.L27
 474              	.LVL34:
 475              	.LBB151:
 476              	.LBB152:
 477              	.LBB153:
 478              	.LBB154:
 479              		.loc 4 546 0
 480              	@ 546 "ChibiOS_3.0.2/os/ext/CMSIS/include/core_cmFunc.h" 1
 481 0066 8BF31188 		MSR basepri, fp
 482              	@ 0 "" 2
 483              		.thumb
 484 006a 09F10109 		add	r9, r9, #1
 485 006e D6E7     		b	.L30
 486              	.LVL35:
 487              	.L34:
 488              	.LBE154:
 489              	.LBE153:
 490              	.LBE152:
 491              	.LBE151:
 492              	.LBB155:
 493              	.LBB156:
 494              	.LBB157:
 495              	.LBB158:
 496              	.LBB159:
 497              	@ 546 "ChibiOS_3.0.2/os/ext/CMSIS/include/core_cmFunc.h" 1
 498 0070 87F31188 		MSR basepri, r7
 499              	@ 0 "" 2
 500              	.LVL36:
 501              		.thumb
 502              	.L27:
 503              	.LBE159:
 504              	.LBE158:
 505              	.LBE157:
 506              	.LBE156:
 507              	.LBE155:
 508              		.loc 1 257 0
 509 0074 3046     		mov	r0, r6
 510 0076 BDE8F88F 		pop	{r3, r4, r5, r6, r7, r8, r9, r10, fp, pc}
ARM GAS  /tmp/ccukX1CL.s 			page 10


 511              		.cfi_endproc
 512              	.LFE223:
 513              		.size	chIQReadTimeout, .-chIQReadTimeout
 514 007a 00BFAFF3 		.section	.text.chOQObjectInit,"ax",%progbits
 514      0080
 515              		.align	2
 516              		.p2align 4,,15
 517              		.global	chOQObjectInit
 518              		.thumb
 519              		.thumb_func
 520              		.type	chOQObjectInit, %function
 521              	chOQObjectInit:
 522              	.LFB224:
 523              		.loc 1 276 0
 524              		.cfi_startproc
 525              		@ args = 4, pretend = 0, frame = 0
 526              		@ frame_needed = 0, uses_anonymous_args = 0
 527              		@ link register save eliminated.
 528              	.LVL37:
 529 0000 30B4     		push	{r4, r5}
 530              		.cfi_def_cfa_offset 8
 531              		.cfi_offset 4, -8
 532              		.cfi_offset 5, -4
 533              		.loc 1 276 0
 534 0002 029C     		ldr	r4, [sp, #8]
 535              		.loc 1 285 0
 536 0004 0462     		str	r4, [r0, #32]
 537              		.loc 1 283 0
 538 0006 8D18     		adds	r5, r1, r2
 539 0008 0561     		str	r5, [r0, #16]
 540              	.LBB160:
 541              	.LBB161:
 542              	.LBB162:
 543              		.loc 2 604 0
 544 000a 0060     		str	r0, [r0]
 545              		.loc 2 605 0
 546 000c 4060     		str	r0, [r0, #4]
 547              	.LBE162:
 548              	.LBE161:
 549              	.LBE160:
 550              		.loc 1 279 0
 551 000e 8260     		str	r2, [r0, #8]
 552              		.loc 1 280 0
 553 0010 C160     		str	r1, [r0, #12]
 554              		.loc 1 281 0
 555 0012 8161     		str	r1, [r0, #24]
 556              		.loc 1 282 0
 557 0014 4161     		str	r1, [r0, #20]
 558              		.loc 1 284 0
 559 0016 C361     		str	r3, [r0, #28]
 560              		.loc 1 286 0
 561 0018 30BC     		pop	{r4, r5}
 562              	.LVL38:
 563 001a 7047     		bx	lr
 564              		.cfi_endproc
 565              	.LFE224:
 566              		.size	chOQObjectInit, .-chOQObjectInit
ARM GAS  /tmp/ccukX1CL.s 			page 11


 567 001c AFF30080 		.section	.text.chOQResetI,"ax",%progbits
 568              		.align	2
 569              		.p2align 4,,15
 570              		.global	chOQResetI
 571              		.thumb
 572              		.thumb_func
 573              		.type	chOQResetI, %function
 574              	chOQResetI:
 575              	.LFB225:
 576              		.loc 1 299 0
 577              		.cfi_startproc
 578              		@ args = 0, pretend = 0, frame = 0
 579              		@ frame_needed = 0, uses_anonymous_args = 0
 580              		@ link register save eliminated.
 581              	.LVL39:
 582              		.loc 1 303 0
 583 0000 C268     		ldr	r2, [r0, #12]
 584 0002 8261     		str	r2, [r0, #24]
 585              		.loc 1 299 0
 586 0004 10B4     		push	{r4}
 587              		.cfi_def_cfa_offset 4
 588              		.cfi_offset 4, -4
 589              		.loc 1 305 0
 590 0006 0469     		ldr	r4, [r0, #16]
 591              		.loc 1 304 0
 592 0008 4261     		str	r2, [r0, #20]
 593              		.loc 1 305 0
 594 000a A41A     		subs	r4, r4, r2
 595 000c 8460     		str	r4, [r0, #8]
 596              		.loc 1 306 0
 597 000e 6FF00101 		mvn	r1, #1
 598              		.loc 1 307 0
 599 0012 5DF8044B 		ldr	r4, [sp], #4
 600              		.loc 1 306 0
 601 0016 FFF7FEBF 		b	chThdDequeueAllI
 602              	.LVL40:
 603              		.cfi_endproc
 604              	.LFE225:
 605              		.size	chOQResetI, .-chOQResetI
 606 001a 00BFAFF3 		.section	.text.chOQPutTimeout,"ax",%progbits
 606      0080
 607              		.align	2
 608              		.p2align 4,,15
 609              		.global	chOQPutTimeout
 610              		.thumb
 611              		.thumb_func
 612              		.type	chOQPutTimeout, %function
 613              	chOQPutTimeout:
 614              	.LFB226:
 615              		.loc 1 331 0
 616              		.cfi_startproc
 617              		@ args = 0, pretend = 0, frame = 0
 618              		@ frame_needed = 0, uses_anonymous_args = 0
 619              	.LVL41:
 620 0000 F8B5     		push	{r3, r4, r5, r6, r7, lr}
 621              		.cfi_def_cfa_offset 24
 622              		.cfi_offset 3, -24
ARM GAS  /tmp/ccukX1CL.s 			page 12


 623              		.cfi_offset 4, -20
 624              		.cfi_offset 5, -16
 625              		.cfi_offset 6, -12
 626              		.cfi_offset 7, -8
 627              		.cfi_offset 14, -4
 628              		.loc 1 331 0
 629 0002 0446     		mov	r4, r0
 630 0004 0F46     		mov	r7, r1
 631 0006 1646     		mov	r6, r2
 632              	.LBB163:
 633              	.LBB164:
 634              	.LBB165:
 635              	.LBB166:
 636              		.loc 4 546 0
 637 0008 2023     		movs	r3, #32
 638              	@ 546 "ChibiOS_3.0.2/os/ext/CMSIS/include/core_cmFunc.h" 1
 639 000a 83F31188 		MSR basepri, r3
 640              	@ 0 "" 2
 641              		.thumb
 642 000e 03E0     		b	.L38
 643              	.LVL42:
 644              	.L41:
 645              	.LBE166:
 646              	.LBE165:
 647              	.LBE164:
 648              	.LBE163:
 649              	.LBB167:
 650              		.loc 1 335 0
 651 0010 FFF7FEFF 		bl	chThdEnqueueTimeoutS
 652              	.LVL43:
 653              		.loc 1 336 0
 654 0014 0028     		cmp	r0, #0
 655 0016 19DB     		blt	.L47
 656              	.LVL44:
 657              	.L38:
 658              	.LBE167:
 659              	.LBB173:
 660              	.LBB174:
 661              		.loc 3 407 0 discriminator 1
 662 0018 A568     		ldr	r5, [r4, #8]
 663              	.LBE174:
 664              	.LBE173:
 665              	.LBB175:
 666              		.loc 1 335 0 discriminator 1
 667 001a 2046     		mov	r0, r4
 668 001c 3146     		mov	r1, r6
 669              	.LBE175:
 670              		.loc 1 334 0 discriminator 1
 671 001e 002D     		cmp	r5, #0
 672 0020 F6D0     		beq	.L41
 673              	.LVL45:
 674              		.loc 1 343 0
 675 0022 6369     		ldr	r3, [r4, #20]
 676              		.loc 1 342 0
 677 0024 A168     		ldr	r1, [r4, #8]
 678              	.LVL46:
 679              		.loc 1 343 0
ARM GAS  /tmp/ccukX1CL.s 			page 13


 680 0026 5A1C     		adds	r2, r3, #1
 681              		.loc 1 342 0
 682 0028 0139     		subs	r1, r1, #1
 683              		.loc 1 343 0
 684 002a 6261     		str	r2, [r4, #20]
 685              		.loc 1 342 0
 686 002c A160     		str	r1, [r4, #8]
 687              		.loc 1 343 0
 688 002e 1F70     		strb	r7, [r3]
 689              		.loc 1 344 0
 690 0030 2369     		ldr	r3, [r4, #16]
 691 0032 6269     		ldr	r2, [r4, #20]
 692 0034 9A42     		cmp	r2, r3
 693              		.loc 1 345 0
 694 0036 24BF     		itt	cs
 695 0038 E368     		ldrcs	r3, [r4, #12]
 696 003a 6361     		strcs	r3, [r4, #20]
 697              		.loc 1 348 0
 698 003c E369     		ldr	r3, [r4, #28]
 699 003e 0BB1     		cbz	r3, .L43
 700              		.loc 1 349 0
 701 0040 2046     		mov	r0, r4
 702              	.LVL47:
 703 0042 9847     		blx	r3
 704              	.LVL48:
 705              	.L43:
 706              	.LBB176:
 707              	.LBB177:
 708              	.LBB178:
 709              	.LBB179:
 710              	.LBB180:
 711              		.loc 4 546 0
 712 0044 0020     		movs	r0, #0
 713              	@ 546 "ChibiOS_3.0.2/os/ext/CMSIS/include/core_cmFunc.h" 1
 714 0046 80F31188 		MSR basepri, r0
 715              	@ 0 "" 2
 716              		.thumb
 717              	.LBE180:
 718              	.LBE179:
 719              	.LBE178:
 720              	.LBE177:
 721              	.LBE176:
 722              		.loc 1 354 0
 723 004a F8BD     		pop	{r3, r4, r5, r6, r7, pc}
 724              	.LVL49:
 725              	.L47:
 726              	.LBB181:
 727              	.LBB168:
 728              	.LBB169:
 729              	.LBB170:
 730              	.LBB171:
 731              	.LBB172:
 732              		.loc 4 546 0
 733              	@ 546 "ChibiOS_3.0.2/os/ext/CMSIS/include/core_cmFunc.h" 1
 734 004c 85F31188 		MSR basepri, r5
 735              	@ 0 "" 2
 736              		.thumb
ARM GAS  /tmp/ccukX1CL.s 			page 14


 737              	.LBE172:
 738              	.LBE171:
 739              	.LBE170:
 740              	.LBE169:
 741              	.LBE168:
 742              		.loc 1 338 0
 743 0050 F8BD     		pop	{r3, r4, r5, r6, r7, pc}
 744              	.LBE181:
 745              		.cfi_endproc
 746              	.LFE226:
 747              		.size	chOQPutTimeout, .-chOQPutTimeout
 748 0052 00BFAFF3 		.section	.text.chOQGetI,"ax",%progbits
 748      0080AFF3 
 748      0080AFF3 
 748      0080
 749              		.align	2
 750              		.p2align 4,,15
 751              		.global	chOQGetI
 752              		.thumb
 753              		.thumb_func
 754              		.type	chOQGetI, %function
 755              	chOQGetI:
 756              	.LFB227:
 757              		.loc 1 366 0
 758              		.cfi_startproc
 759              		@ args = 0, pretend = 0, frame = 0
 760              		@ frame_needed = 0, uses_anonymous_args = 0
 761              	.LVL50:
 762              	.LBB182:
 763              	.LBB183:
 764              		.loc 3 390 0
 765 0000 8369     		ldr	r3, [r0, #24]
 766 0002 4269     		ldr	r2, [r0, #20]
 767 0004 9A42     		cmp	r2, r3
 768              	.LBE183:
 769              	.LBE182:
 770              		.loc 1 366 0
 771 0006 10B5     		push	{r4, lr}
 772              		.cfi_def_cfa_offset 8
 773              		.cfi_offset 4, -8
 774              		.cfi_offset 14, -4
 775              	.LBB186:
 776              	.LBB184:
 777              		.loc 3 390 0
 778 0008 0FD0     		beq	.L55
 779              	.L49:
 780              	.LBE184:
 781              	.LBE186:
 782              		.loc 1 375 0
 783 000a 8468     		ldr	r4, [r0, #8]
 784              		.loc 1 377 0
 785 000c 0169     		ldr	r1, [r0, #16]
 786              		.loc 1 375 0
 787 000e 0134     		adds	r4, r4, #1
 788              		.loc 1 376 0
 789 0010 5A1C     		adds	r2, r3, #1
 790              		.loc 1 375 0
ARM GAS  /tmp/ccukX1CL.s 			page 15


 791 0012 8460     		str	r4, [r0, #8]
 792              		.loc 1 376 0
 793 0014 8261     		str	r2, [r0, #24]
 794              		.loc 1 377 0
 795 0016 8A42     		cmp	r2, r1
 796              		.loc 1 376 0
 797 0018 1C78     		ldrb	r4, [r3]	@ zero_extendqisi2
 798              	.LVL51:
 799              		.loc 1 377 0
 800 001a 01D3     		bcc	.L52
 801              		.loc 1 378 0
 802 001c C368     		ldr	r3, [r0, #12]
 803              	.LVL52:
 804 001e 8361     		str	r3, [r0, #24]
 805              	.LVL53:
 806              	.L52:
 807              		.loc 1 381 0
 808 0020 0021     		movs	r1, #0
 809 0022 FFF7FEFF 		bl	chThdDequeueNextI
 810              	.LVL54:
 811              		.loc 1 383 0
 812 0026 2046     		mov	r0, r4
 813 0028 10BD     		pop	{r4, pc}
 814              	.LVL55:
 815              	.L55:
 816              	.LBB187:
 817              	.LBB185:
 818              		.loc 3 390 0
 819 002a 8268     		ldr	r2, [r0, #8]
 820 002c 002A     		cmp	r2, #0
 821 002e ECD0     		beq	.L49
 822              	.LBE185:
 823              	.LBE187:
 824              		.loc 1 372 0
 825 0030 6FF00200 		mvn	r0, #2
 826              	.LVL56:
 827 0034 10BD     		pop	{r4, pc}
 828              		.cfi_endproc
 829              	.LFE227:
 830              		.size	chOQGetI, .-chOQGetI
 831 0036 00BFAFF3 		.section	.text.chOQWriteTimeout,"ax",%progbits
 831      0080AFF3 
 831      0080
 832              		.align	2
 833              		.p2align 4,,15
 834              		.global	chOQWriteTimeout
 835              		.thumb
 836              		.thumb_func
 837              		.type	chOQWriteTimeout, %function
 838              	chOQWriteTimeout:
 839              	.LFB228:
 840              		.loc 1 411 0
 841              		.cfi_startproc
 842              		@ args = 0, pretend = 0, frame = 8
 843              		@ frame_needed = 0, uses_anonymous_args = 0
 844              	.LVL57:
 845 0000 2DE9F04F 		push	{r4, r5, r6, r7, r8, r9, r10, fp, lr}
ARM GAS  /tmp/ccukX1CL.s 			page 16


 846              		.cfi_def_cfa_offset 36
 847              		.cfi_offset 4, -36
 848              		.cfi_offset 5, -32
 849              		.cfi_offset 6, -28
 850              		.cfi_offset 7, -24
 851              		.cfi_offset 8, -20
 852              		.cfi_offset 9, -16
 853              		.cfi_offset 10, -12
 854              		.cfi_offset 11, -8
 855              		.cfi_offset 14, -4
 856 0004 83B0     		sub	sp, sp, #12
 857              		.cfi_def_cfa_offset 48
 858              		.loc 1 411 0
 859 0006 0446     		mov	r4, r0
 860 0008 0D46     		mov	r5, r1
 861 000a 1646     		mov	r6, r2
 862 000c 0193     		str	r3, [sp, #4]
 863              		.loc 1 412 0
 864 000e D0F81C80 		ldr	r8, [r0, #28]
 865              	.LVL58:
 866              	.LBB188:
 867              	.LBB189:
 868              	.LBB190:
 869              	.LBB191:
 870              		.loc 4 546 0
 871 0012 4FF0200A 		mov	r10, #32
 872              	@ 546 "ChibiOS_3.0.2/os/ext/CMSIS/include/core_cmFunc.h" 1
 873 0016 8AF31188 		MSR basepri, r10
 874              	@ 0 "" 2
 875              		.thumb
 876              	.LBE191:
 877              	.LBE190:
 878              	.LBE189:
 879              	.LBE188:
 880              		.loc 1 413 0
 881 001a 0027     		movs	r7, #0
 882              	.LBB192:
 883              	.LBB193:
 884              	.LBB194:
 885              	.LBB195:
 886              	.LBB196:
 887              		.loc 4 546 0
 888 001c B946     		mov	r9, r7
 889              	.LVL59:
 890              	.L57:
 891              	.LBE196:
 892              	.LBE195:
 893              	.LBE194:
 894              	.LBE193:
 895              	.LBE192:
 896              	.LBB201:
 897              	.LBB202:
 898              		.loc 3 407 0 discriminator 1
 899 001e A368     		ldr	r3, [r4, #8]
 900              	.LBE202:
 901              	.LBE201:
 902              		.loc 1 427 0 discriminator 1
ARM GAS  /tmp/ccukX1CL.s 			page 17


 903 0020 05F1010B 		add	fp, r5, #1
 904              	.LVL60:
 905              		.loc 1 433 0 discriminator 1
 906 0024 2046     		mov	r0, r4
 907              		.loc 1 419 0 discriminator 1
 908 0026 03B3     		cbz	r3, .L60
 909              	.LVL61:
 910              	.L72:
 911              		.loc 1 427 0
 912 0028 6369     		ldr	r3, [r4, #20]
 913              		.loc 1 426 0
 914 002a A168     		ldr	r1, [r4, #8]
 915 002c 4A1E     		subs	r2, r1, #1
 916              		.loc 1 427 0
 917 002e 591C     		adds	r1, r3, #1
 918 0030 6161     		str	r1, [r4, #20]
 919              		.loc 1 426 0
 920 0032 A260     		str	r2, [r4, #8]
 921              		.loc 1 427 0
 922 0034 2978     		ldrb	r1, [r5]	@ zero_extendqisi2
 923 0036 1970     		strb	r1, [r3]
 924              		.loc 1 428 0
 925 0038 2369     		ldr	r3, [r4, #16]
 926 003a 6169     		ldr	r1, [r4, #20]
 927 003c 9942     		cmp	r1, r3
 928              		.loc 1 429 0
 929 003e 24BF     		itt	cs
 930 0040 E368     		ldrcs	r3, [r4, #12]
 931 0042 6361     		strcs	r3, [r4, #20]
 932              		.loc 1 432 0
 933 0044 B8F1000F 		cmp	r8, #0
 934 0048 00D0     		beq	.L62
 935              		.loc 1 433 0
 936 004a C047     		blx	r8
 937              	.LVL62:
 938              	.L62:
 939              	.LBB204:
 940              	.LBB200:
 941              	.LBB199:
 942              	.LBB198:
 943              	.LBB197:
 944              		.loc 4 546 0
 945              	@ 546 "ChibiOS_3.0.2/os/ext/CMSIS/include/core_cmFunc.h" 1
 946 004c 89F31188 		MSR basepri, r9
 947              	@ 0 "" 2
 948              	.LVL63:
 949              		.thumb
 950              	.LBE197:
 951              	.LBE198:
 952              	.LBE199:
 953              	.LBE200:
 954              	.LBE204:
 955              		.loc 1 438 0
 956 0050 013E     		subs	r6, r6, #1
 957              	.LVL64:
 958              		.loc 1 437 0
 959 0052 07F10107 		add	r7, r7, #1
ARM GAS  /tmp/ccukX1CL.s 			page 18


 960              	.LVL65:
 961              		.loc 1 438 0
 962 0056 12D0     		beq	.L59
 963              	.LBB205:
 964              	.LBB206:
 965              	.LBB207:
 966              	.LBB208:
 967              		.loc 4 546 0
 968              	@ 546 "ChibiOS_3.0.2/os/ext/CMSIS/include/core_cmFunc.h" 1
 969 0058 8AF31188 		MSR basepri, r10
 970              	@ 0 "" 2
 971              		.thumb
 972              	.LBE208:
 973              	.LBE207:
 974              	.LBE206:
 975              	.LBE205:
 976              	.LBB209:
 977              	.LBB203:
 978              		.loc 3 407 0
 979 005c A368     		ldr	r3, [r4, #8]
 980              	.LBE203:
 981              	.LBE209:
 982              		.loc 1 427 0
 983 005e 5D46     		mov	r5, fp
 984              	.LVL66:
 985 0060 05F1010B 		add	fp, r5, #1
 986              	.LVL67:
 987              		.loc 1 433 0
 988 0064 2046     		mov	r0, r4
 989              		.loc 1 419 0
 990 0066 002B     		cmp	r3, #0
 991 0068 DED1     		bne	.L72
 992              	.LVL68:
 993              	.L60:
 994              		.loc 1 420 0
 995 006a 2046     		mov	r0, r4
 996              	.LVL69:
 997 006c 0199     		ldr	r1, [sp, #4]
 998 006e 0093     		str	r3, [sp]
 999 0070 FFF7FEFF 		bl	chThdEnqueueTimeoutS
 1000              	.LVL70:
 1001 0074 009B     		ldr	r3, [sp]
 1002 0076 0028     		cmp	r0, #0
 1003 0078 D1D0     		beq	.L57
 1004              	.LVL71:
 1005              	.LBB210:
 1006              	.LBB211:
 1007              	.LBB212:
 1008              	.LBB213:
 1009              	.LBB214:
 1010              		.loc 4 546 0
 1011              	@ 546 "ChibiOS_3.0.2/os/ext/CMSIS/include/core_cmFunc.h" 1
 1012 007a 83F31188 		MSR basepri, r3
 1013              	@ 0 "" 2
 1014              	.LVL72:
 1015              		.thumb
 1016              	.L59:
ARM GAS  /tmp/ccukX1CL.s 			page 19


 1017              	.LBE214:
 1018              	.LBE213:
 1019              	.LBE212:
 1020              	.LBE211:
 1021              	.LBE210:
 1022              		.loc 1 443 0
 1023 007e 3846     		mov	r0, r7
 1024 0080 03B0     		add	sp, sp, #12
 1025              		@ sp needed
 1026 0082 BDE8F08F 		pop	{r4, r5, r6, r7, r8, r9, r10, fp, pc}
 1027              		.cfi_endproc
 1028              	.LFE228:
 1029              		.size	chOQWriteTimeout, .-chOQWriteTimeout
 1030 0086 00BFAFF3 		.text
 1030      0080AFF3 
 1030      0080
 1031              	.Letext0:
 1032              		.file 5 "/usr/lib/gcc/arm-none-eabi/4.8/include/stddef.h"
 1033              		.file 6 "/usr/include/newlib/machine/_default_types.h"
 1034              		.file 7 "/usr/include/newlib/stdint.h"
 1035              		.file 8 "ChibiOS_3.0.2/os/rt/ports/ARMCMx/compilers/GCC/chtypes.h"
 1036              		.file 9 "ChibiOS_3.0.2/os/rt/include/chsystypes.h"
 1037              		.file 10 "ChibiOS_3.0.2/os/rt/ports/ARMCMx/chcore.h"
 1038              		.file 11 "ChibiOS_3.0.2/os/rt/ports/ARMCMx/chcore_v7m.h"
 1039              		.file 12 "ChibiOS_3.0.2/os/rt/include/chtm.h"
 1040              		.file 13 "ChibiOS_3.0.2/os/rt/include/chsem.h"
 1041              		.file 14 "ChibiOS_3.0.2/os/rt/include/chmtx.h"
 1042              		.file 15 "ChibiOS_3.0.2/os/rt/include/chthreads.h"
 1043              		.file 16 "ChibiOS_3.0.2/os/rt/include/chsys.h"
 1044              		.file 17 "ChibiOS_3.0.2/os/ext/CMSIS/include/core_cm4.h"
 1045              		.section	.debug_info,"",%progbits
 1046              	.Ldebug_info0:
 1047 0000 3C120000 		.4byte	0x123c
 1048 0004 0400     		.2byte	0x4
 1049 0006 00000000 		.4byte	.Ldebug_abbrev0
 1050 000a 04       		.byte	0x4
 1051 000b 01       		.uleb128 0x1
 1052 000c B2010000 		.4byte	.LASF151
 1053 0010 01       		.byte	0x1
 1054 0011 56030000 		.4byte	.LASF152
 1055 0015 F6020000 		.4byte	.LASF153
 1056 0019 C8000000 		.4byte	.Ldebug_ranges0+0xc8
 1057 001d 00000000 		.4byte	0
 1058 0021 00000000 		.4byte	.Ldebug_line0
 1059 0025 02       		.uleb128 0x2
 1060 0026 04       		.byte	0x4
 1061 0027 05       		.byte	0x5
 1062 0028 696E7400 		.ascii	"int\000"
 1063 002c 03       		.uleb128 0x3
 1064 002d 21000000 		.4byte	.LASF2
 1065 0031 05       		.byte	0x5
 1066 0032 D4       		.byte	0xd4
 1067 0033 37000000 		.4byte	0x37
 1068 0037 04       		.uleb128 0x4
 1069 0038 04       		.byte	0x4
 1070 0039 07       		.byte	0x7
 1071 003a 49030000 		.4byte	.LASF0
ARM GAS  /tmp/ccukX1CL.s 			page 20


 1072 003e 04       		.uleb128 0x4
 1073 003f 01       		.byte	0x1
 1074 0040 06       		.byte	0x6
 1075 0041 36010000 		.4byte	.LASF1
 1076 0045 03       		.uleb128 0x3
 1077 0046 49000000 		.4byte	.LASF3
 1078 004a 06       		.byte	0x6
 1079 004b 1D       		.byte	0x1d
 1080 004c 50000000 		.4byte	0x50
 1081 0050 04       		.uleb128 0x4
 1082 0051 01       		.byte	0x1
 1083 0052 08       		.byte	0x8
 1084 0053 1F050000 		.4byte	.LASF4
 1085 0057 04       		.uleb128 0x4
 1086 0058 02       		.byte	0x2
 1087 0059 05       		.byte	0x5
 1088 005a 4D050000 		.4byte	.LASF5
 1089 005e 04       		.uleb128 0x4
 1090 005f 02       		.byte	0x2
 1091 0060 07       		.byte	0x7
 1092 0061 C5020000 		.4byte	.LASF6
 1093 0065 03       		.uleb128 0x3
 1094 0066 F9030000 		.4byte	.LASF7
 1095 006a 06       		.byte	0x6
 1096 006b 3F       		.byte	0x3f
 1097 006c 70000000 		.4byte	0x70
 1098 0070 04       		.uleb128 0x4
 1099 0071 04       		.byte	0x4
 1100 0072 05       		.byte	0x5
 1101 0073 8E010000 		.4byte	.LASF8
 1102 0077 03       		.uleb128 0x3
 1103 0078 48060000 		.4byte	.LASF9
 1104 007c 06       		.byte	0x6
 1105 007d 41       		.byte	0x41
 1106 007e 82000000 		.4byte	0x82
 1107 0082 04       		.uleb128 0x4
 1108 0083 04       		.byte	0x4
 1109 0084 07       		.byte	0x7
 1110 0085 03060000 		.4byte	.LASF10
 1111 0089 04       		.uleb128 0x4
 1112 008a 08       		.byte	0x8
 1113 008b 05       		.byte	0x5
 1114 008c 28010000 		.4byte	.LASF11
 1115 0090 03       		.uleb128 0x3
 1116 0091 B1040000 		.4byte	.LASF12
 1117 0095 06       		.byte	0x6
 1118 0096 5B       		.byte	0x5b
 1119 0097 9B000000 		.4byte	0x9b
 1120 009b 04       		.uleb128 0x4
 1121 009c 08       		.byte	0x8
 1122 009d 07       		.byte	0x7
 1123 009e A2000000 		.4byte	.LASF13
 1124 00a2 03       		.uleb128 0x3
 1125 00a3 D5060000 		.4byte	.LASF14
 1126 00a7 07       		.byte	0x7
 1127 00a8 2A       		.byte	0x2a
 1128 00a9 45000000 		.4byte	0x45
ARM GAS  /tmp/ccukX1CL.s 			page 21


 1129 00ad 03       		.uleb128 0x3
 1130 00ae 17050000 		.4byte	.LASF15
 1131 00b2 07       		.byte	0x7
 1132 00b3 41       		.byte	0x41
 1133 00b4 65000000 		.4byte	0x65
 1134 00b8 03       		.uleb128 0x3
 1135 00b9 DB050000 		.4byte	.LASF16
 1136 00bd 07       		.byte	0x7
 1137 00be 42       		.byte	0x42
 1138 00bf 77000000 		.4byte	0x77
 1139 00c3 03       		.uleb128 0x3
 1140 00c4 2F000000 		.4byte	.LASF17
 1141 00c8 07       		.byte	0x7
 1142 00c9 4E       		.byte	0x4e
 1143 00ca 90000000 		.4byte	0x90
 1144 00ce 05       		.uleb128 0x5
 1145 00cf AD000000 		.4byte	0xad
 1146 00d3 03       		.uleb128 0x3
 1147 00d4 85060000 		.4byte	.LASF18
 1148 00d8 08       		.byte	0x8
 1149 00d9 45       		.byte	0x45
 1150 00da B8000000 		.4byte	0xb8
 1151 00de 03       		.uleb128 0x3
 1152 00df 08070000 		.4byte	.LASF19
 1153 00e3 08       		.byte	0x8
 1154 00e4 48       		.byte	0x48
 1155 00e5 A2000000 		.4byte	0xa2
 1156 00e9 03       		.uleb128 0x3
 1157 00ea 97010000 		.4byte	.LASF20
 1158 00ee 08       		.byte	0x8
 1159 00ef 49       		.byte	0x49
 1160 00f0 A2000000 		.4byte	0xa2
 1161 00f4 03       		.uleb128 0x3
 1162 00f5 BC040000 		.4byte	.LASF21
 1163 00f9 08       		.byte	0x8
 1164 00fa 4A       		.byte	0x4a
 1165 00fb A2000000 		.4byte	0xa2
 1166 00ff 03       		.uleb128 0x3
 1167 0100 65010000 		.4byte	.LASF22
 1168 0104 08       		.byte	0x8
 1169 0105 4B       		.byte	0x4b
 1170 0106 A2000000 		.4byte	0xa2
 1171 010a 03       		.uleb128 0x3
 1172 010b F1040000 		.4byte	.LASF23
 1173 010f 08       		.byte	0x8
 1174 0110 4C       		.byte	0x4c
 1175 0111 B8000000 		.4byte	0xb8
 1176 0115 03       		.uleb128 0x3
 1177 0116 BB030000 		.4byte	.LASF24
 1178 011a 08       		.byte	0x8
 1179 011b 4D       		.byte	0x4d
 1180 011c AD000000 		.4byte	0xad
 1181 0120 03       		.uleb128 0x3
 1182 0121 ED030000 		.4byte	.LASF25
 1183 0125 08       		.byte	0x8
 1184 0126 4F       		.byte	0x4f
 1185 0127 B8000000 		.4byte	0xb8
ARM GAS  /tmp/ccukX1CL.s 			page 22


 1186 012b 03       		.uleb128 0x3
 1187 012c 43030000 		.4byte	.LASF26
 1188 0130 08       		.byte	0x8
 1189 0131 51       		.byte	0x51
 1190 0132 AD000000 		.4byte	0xad
 1191 0136 03       		.uleb128 0x3
 1192 0137 2A060000 		.4byte	.LASF27
 1193 013b 09       		.byte	0x9
 1194 013c 33       		.byte	0x33
 1195 013d B8000000 		.4byte	0xb8
 1196 0141 03       		.uleb128 0x3
 1197 0142 1A060000 		.4byte	.LASF28
 1198 0146 09       		.byte	0x9
 1199 0147 3F       		.byte	0x3f
 1200 0148 4C010000 		.4byte	0x14c
 1201 014c 06       		.uleb128 0x6
 1202 014d B1030000 		.4byte	.LASF50
 1203 0151 48       		.byte	0x48
 1204 0152 02       		.byte	0x2
 1205 0153 C2       		.byte	0xc2
 1206 0154 51020000 		.4byte	0x251
 1207 0158 07       		.uleb128 0x7
 1208 0159 6F050000 		.4byte	.LASF29
 1209 015d 02       		.byte	0x2
 1210 015e C3       		.byte	0xc3
 1211 015f 5C020000 		.4byte	0x25c
 1212 0163 00       		.byte	0
 1213 0164 07       		.uleb128 0x7
 1214 0165 DE040000 		.4byte	.LASF30
 1215 0169 02       		.byte	0x2
 1216 016a C5       		.byte	0xc5
 1217 016b 5C020000 		.4byte	0x25c
 1218 016f 04       		.byte	0x4
 1219 0170 07       		.uleb128 0x7
 1220 0171 17010000 		.4byte	.LASF31
 1221 0175 02       		.byte	0x2
 1222 0176 C7       		.byte	0xc7
 1223 0177 0A010000 		.4byte	0x10a
 1224 017b 08       		.byte	0x8
 1225 017c 07       		.uleb128 0x7
 1226 017d 39070000 		.4byte	.LASF32
 1227 0181 02       		.byte	0x2
 1228 0182 C8       		.byte	0xc8
 1229 0183 8C040000 		.4byte	0x48c
 1230 0187 0C       		.byte	0xc
 1231 0188 07       		.uleb128 0x7
 1232 0189 AC020000 		.4byte	.LASF33
 1233 018d 02       		.byte	0x2
 1234 018e CA       		.byte	0xca
 1235 018f 5C020000 		.4byte	0x25c
 1236 0193 10       		.byte	0x10
 1237 0194 07       		.uleb128 0x7
 1238 0195 80040000 		.4byte	.LASF34
 1239 0199 02       		.byte	0x2
 1240 019a CB       		.byte	0xcb
 1241 019b 5C020000 		.4byte	0x25c
 1242 019f 14       		.byte	0x14
ARM GAS  /tmp/ccukX1CL.s 			page 23


 1243 01a0 07       		.uleb128 0x7
 1244 01a1 E4060000 		.4byte	.LASF35
 1245 01a5 02       		.byte	0x2
 1246 01a6 D2       		.byte	0xd2
 1247 01a7 D1060000 		.4byte	0x6d1
 1248 01ab 18       		.byte	0x18
 1249 01ac 07       		.uleb128 0x7
 1250 01ad 3B050000 		.4byte	.LASF36
 1251 01b1 02       		.byte	0x2
 1252 01b2 DD       		.byte	0xdd
 1253 01b3 E9000000 		.4byte	0xe9
 1254 01b7 1C       		.byte	0x1c
 1255 01b8 07       		.uleb128 0x7
 1256 01b9 7B050000 		.4byte	.LASF37
 1257 01bd 02       		.byte	0x2
 1258 01be E1       		.byte	0xe1
 1259 01bf DE000000 		.4byte	0xde
 1260 01c3 1D       		.byte	0x1d
 1261 01c4 07       		.uleb128 0x7
 1262 01c5 B2060000 		.4byte	.LASF38
 1263 01c9 02       		.byte	0x2
 1264 01ca E6       		.byte	0xe6
 1265 01cb F4000000 		.4byte	0xf4
 1266 01cf 1E       		.byte	0x1e
 1267 01d0 07       		.uleb128 0x7
 1268 01d1 57050000 		.4byte	.LASF39
 1269 01d5 02       		.byte	0x2
 1270 01d6 EC       		.byte	0xec
 1271 01d7 FF000000 		.4byte	0xff
 1272 01db 1F       		.byte	0x1f
 1273 01dc 07       		.uleb128 0x7
 1274 01dd 79030000 		.4byte	.LASF40
 1275 01e1 02       		.byte	0x2
 1276 01e2 F3       		.byte	0xf3
 1277 01e3 E3060000 		.4byte	0x6e3
 1278 01e7 20       		.byte	0x20
 1279 01e8 08       		.uleb128 0x8
 1280 01e9 705F7500 		.ascii	"p_u\000"
 1281 01ed 02       		.byte	0x2
 1282 01ee 3101     		.2byte	0x131
 1283 01f0 0C060000 		.4byte	0x60c
 1284 01f4 24       		.byte	0x24
 1285 01f5 09       		.uleb128 0x9
 1286 01f6 6B070000 		.4byte	.LASF41
 1287 01fa 02       		.byte	0x2
 1288 01fb 3601     		.2byte	0x136
 1289 01fd 62020000 		.4byte	0x262
 1290 0201 28       		.byte	0x28
 1291 0202 09       		.uleb128 0x9
 1292 0203 90030000 		.4byte	.LASF42
 1293 0207 02       		.byte	0x2
 1294 0208 3C01     		.2byte	0x13c
 1295 020a 86020000 		.4byte	0x286
 1296 020e 2C       		.byte	0x2c
 1297 020f 09       		.uleb128 0x9
 1298 0210 1C070000 		.4byte	.LASF43
 1299 0214 02       		.byte	0x2
ARM GAS  /tmp/ccukX1CL.s 			page 24


 1300 0215 4001     		.2byte	0x140
 1301 0217 15010000 		.4byte	0x115
 1302 021b 34       		.byte	0x34
 1303 021c 09       		.uleb128 0x9
 1304 021d C4050000 		.4byte	.LASF44
 1305 0221 02       		.byte	0x2
 1306 0222 4601     		.2byte	0x146
 1307 0224 20010000 		.4byte	0x120
 1308 0228 38       		.byte	0x38
 1309 0229 09       		.uleb128 0x9
 1310 022a 43050000 		.4byte	.LASF45
 1311 022e 02       		.byte	0x2
 1312 022f 4D01     		.2byte	0x14d
 1313 0231 CB060000 		.4byte	0x6cb
 1314 0235 3C       		.byte	0x3c
 1315 0236 09       		.uleb128 0x9
 1316 0237 34060000 		.4byte	.LASF46
 1317 023b 02       		.byte	0x2
 1318 023c 5101     		.2byte	0x151
 1319 023e 0A010000 		.4byte	0x10a
 1320 0242 40       		.byte	0x40
 1321 0243 09       		.uleb128 0x9
 1322 0244 42010000 		.4byte	.LASF47
 1323 0248 02       		.byte	0x2
 1324 0249 5801     		.2byte	0x158
 1325 024b 39030000 		.4byte	0x339
 1326 024f 44       		.byte	0x44
 1327 0250 00       		.byte	0
 1328 0251 03       		.uleb128 0x3
 1329 0252 4C040000 		.4byte	.LASF48
 1330 0256 09       		.byte	0x9
 1331 0257 44       		.byte	0x44
 1332 0258 5C020000 		.4byte	0x25c
 1333 025c 0A       		.uleb128 0xa
 1334 025d 04       		.byte	0x4
 1335 025e 41010000 		.4byte	0x141
 1336 0262 03       		.uleb128 0x3
 1337 0263 1F040000 		.4byte	.LASF49
 1338 0267 09       		.byte	0x9
 1339 0268 49       		.byte	0x49
 1340 0269 6D020000 		.4byte	0x26d
 1341 026d 06       		.uleb128 0x6
 1342 026e F3050000 		.4byte	.LASF51
 1343 0272 04       		.byte	0x4
 1344 0273 02       		.byte	0x2
 1345 0274 B0       		.byte	0xb0
 1346 0275 86020000 		.4byte	0x286
 1347 0279 07       		.uleb128 0x7
 1348 027a 6F050000 		.4byte	.LASF29
 1349 027e 02       		.byte	0x2
 1350 027f B1       		.byte	0xb1
 1351 0280 5C020000 		.4byte	0x25c
 1352 0284 00       		.byte	0
 1353 0285 00       		.byte	0
 1354 0286 03       		.uleb128 0x3
 1355 0287 96050000 		.4byte	.LASF52
 1356 028b 09       		.byte	0x9
ARM GAS  /tmp/ccukX1CL.s 			page 25


 1357 028c 50       		.byte	0x50
 1358 028d 91020000 		.4byte	0x291
 1359 0291 06       		.uleb128 0x6
 1360 0292 06010000 		.4byte	.LASF53
 1361 0296 08       		.byte	0x8
 1362 0297 02       		.byte	0x2
 1363 0298 B7       		.byte	0xb7
 1364 0299 B6020000 		.4byte	0x2b6
 1365 029d 07       		.uleb128 0x7
 1366 029e 6F050000 		.4byte	.LASF29
 1367 02a2 02       		.byte	0x2
 1368 02a3 B8       		.byte	0xb8
 1369 02a4 5C020000 		.4byte	0x25c
 1370 02a8 00       		.byte	0
 1371 02a9 07       		.uleb128 0x7
 1372 02aa DE040000 		.4byte	.LASF30
 1373 02ae 02       		.byte	0x2
 1374 02af B9       		.byte	0xb9
 1375 02b0 5C020000 		.4byte	0x25c
 1376 02b4 04       		.byte	0x4
 1377 02b5 00       		.byte	0
 1378 02b6 03       		.uleb128 0x3
 1379 02b7 0F000000 		.4byte	.LASF54
 1380 02bb 09       		.byte	0x9
 1381 02bc 57       		.byte	0x57
 1382 02bd C1020000 		.4byte	0x2c1
 1383 02c1 0B       		.uleb128 0xb
 1384 02c2 DF030000 		.4byte	.LASF55
 1385 02c6 1C       		.byte	0x1c
 1386 02c7 02       		.byte	0x2
 1387 02c8 9001     		.2byte	0x190
 1388 02ca 1D030000 		.4byte	0x31d
 1389 02ce 09       		.uleb128 0x9
 1390 02cf EB050000 		.4byte	.LASF56
 1391 02d3 02       		.byte	0x2
 1392 02d4 9101     		.2byte	0x191
 1393 02d6 86020000 		.4byte	0x286
 1394 02da 00       		.byte	0
 1395 02db 09       		.uleb128 0x9
 1396 02dc 61050000 		.4byte	.LASF57
 1397 02e0 02       		.byte	0x2
 1398 02e1 9201     		.2byte	0x192
 1399 02e3 0A010000 		.4byte	0x10a
 1400 02e7 08       		.byte	0x8
 1401 02e8 09       		.uleb128 0x9
 1402 02e9 88040000 		.4byte	.LASF58
 1403 02ed 02       		.byte	0x2
 1404 02ee 9401     		.2byte	0x194
 1405 02f0 8C040000 		.4byte	0x48c
 1406 02f4 0C       		.byte	0xc
 1407 02f5 09       		.uleb128 0x9
 1408 02f6 D8020000 		.4byte	.LASF59
 1409 02fa 02       		.byte	0x2
 1410 02fb 9701     		.2byte	0x197
 1411 02fd 5C020000 		.4byte	0x25c
 1412 0301 10       		.byte	0x10
 1413 0302 09       		.uleb128 0x9
ARM GAS  /tmp/ccukX1CL.s 			page 26


 1414 0303 A9040000 		.4byte	.LASF60
 1415 0307 02       		.byte	0x2
 1416 0308 9801     		.2byte	0x198
 1417 030a 5C020000 		.4byte	0x25c
 1418 030e 14       		.byte	0x14
 1419 030f 09       		.uleb128 0x9
 1420 0310 9F040000 		.4byte	.LASF61
 1421 0314 02       		.byte	0x2
 1422 0315 9B01     		.2byte	0x19b
 1423 0317 5C020000 		.4byte	0x25c
 1424 031b 18       		.byte	0x18
 1425 031c 00       		.byte	0
 1426 031d 03       		.uleb128 0x3
 1427 031e 3F060000 		.4byte	.LASF62
 1428 0322 09       		.byte	0x9
 1429 0323 5C       		.byte	0x5c
 1430 0324 28030000 		.4byte	0x328
 1431 0328 0A       		.uleb128 0xa
 1432 0329 04       		.byte	0x4
 1433 032a 2E030000 		.4byte	0x32e
 1434 032e 0C       		.uleb128 0xc
 1435 032f 39030000 		.4byte	0x339
 1436 0333 0D       		.uleb128 0xd
 1437 0334 39030000 		.4byte	0x339
 1438 0338 00       		.byte	0
 1439 0339 0E       		.uleb128 0xe
 1440 033a 04       		.byte	0x4
 1441 033b 03       		.uleb128 0x3
 1442 033c CE040000 		.4byte	.LASF63
 1443 0340 09       		.byte	0x9
 1444 0341 61       		.byte	0x61
 1445 0342 46030000 		.4byte	0x346
 1446 0346 0B       		.uleb128 0xb
 1447 0347 A6050000 		.4byte	.LASF64
 1448 034b 14       		.byte	0x14
 1449 034c 02       		.byte	0x2
 1450 034d 6B01     		.2byte	0x16b
 1451 034f 95030000 		.4byte	0x395
 1452 0353 09       		.uleb128 0x9
 1453 0354 1D030000 		.4byte	.LASF65
 1454 0358 02       		.byte	0x2
 1455 0359 6C01     		.2byte	0x16c
 1456 035b E8060000 		.4byte	0x6e8
 1457 035f 00       		.byte	0
 1458 0360 09       		.uleb128 0x9
 1459 0361 E9020000 		.4byte	.LASF66
 1460 0365 02       		.byte	0x2
 1461 0366 6D01     		.2byte	0x16d
 1462 0368 E8060000 		.4byte	0x6e8
 1463 036c 04       		.byte	0x4
 1464 036d 09       		.uleb128 0x9
 1465 036e 87030000 		.4byte	.LASF67
 1466 0372 02       		.byte	0x2
 1467 0373 6E01     		.2byte	0x16e
 1468 0375 36010000 		.4byte	0x136
 1469 0379 08       		.byte	0x8
 1470 037a 09       		.uleb128 0x9
ARM GAS  /tmp/ccukX1CL.s 			page 27


 1471 037b 3F070000 		.4byte	.LASF68
 1472 037f 02       		.byte	0x2
 1473 0380 6F01     		.2byte	0x16f
 1474 0382 1D030000 		.4byte	0x31d
 1475 0386 0C       		.byte	0xc
 1476 0387 09       		.uleb128 0x9
 1477 0388 8D060000 		.4byte	.LASF69
 1478 038c 02       		.byte	0x2
 1479 038d 7101     		.2byte	0x171
 1480 038f 39030000 		.4byte	0x339
 1481 0393 10       		.byte	0x10
 1482 0394 00       		.byte	0
 1483 0395 03       		.uleb128 0x3
 1484 0396 D8000000 		.4byte	.LASF70
 1485 039a 09       		.byte	0x9
 1486 039b 66       		.byte	0x66
 1487 039c A0030000 		.4byte	0x3a0
 1488 03a0 0B       		.uleb128 0xb
 1489 03a1 5F040000 		.4byte	.LASF71
 1490 03a5 10       		.byte	0x10
 1491 03a6 02       		.byte	0x2
 1492 03a7 7B01     		.2byte	0x17b
 1493 03a9 E2030000 		.4byte	0x3e2
 1494 03ad 09       		.uleb128 0x9
 1495 03ae 1D030000 		.4byte	.LASF65
 1496 03b2 02       		.byte	0x2
 1497 03b3 7C01     		.2byte	0x17c
 1498 03b5 E8060000 		.4byte	0x6e8
 1499 03b9 00       		.byte	0
 1500 03ba 09       		.uleb128 0x9
 1501 03bb E9020000 		.4byte	.LASF66
 1502 03bf 02       		.byte	0x2
 1503 03c0 7E01     		.2byte	0x17e
 1504 03c2 E8060000 		.4byte	0x6e8
 1505 03c6 04       		.byte	0x4
 1506 03c7 09       		.uleb128 0x9
 1507 03c8 87030000 		.4byte	.LASF67
 1508 03cc 02       		.byte	0x2
 1509 03cd 8001     		.2byte	0x180
 1510 03cf 36010000 		.4byte	0x136
 1511 03d3 08       		.byte	0x8
 1512 03d4 09       		.uleb128 0x9
 1513 03d5 FD060000 		.4byte	.LASF72
 1514 03d9 02       		.byte	0x2
 1515 03da 8201     		.2byte	0x182
 1516 03dc E3060000 		.4byte	0x6e3
 1517 03e0 0C       		.byte	0xc
 1518 03e1 00       		.byte	0
 1519 03e2 03       		.uleb128 0x3
 1520 03e3 5F000000 		.4byte	.LASF73
 1521 03e7 09       		.byte	0x9
 1522 03e8 6B       		.byte	0x6b
 1523 03e9 ED030000 		.4byte	0x3ed
 1524 03ed 0B       		.uleb128 0xb
 1525 03ee 01050000 		.4byte	.LASF74
 1526 03f2 04       		.byte	0x4
 1527 03f3 02       		.byte	0x2
ARM GAS  /tmp/ccukX1CL.s 			page 28


 1528 03f4 A201     		.2byte	0x1a2
 1529 03f6 08040000 		.4byte	0x408
 1530 03fa 09       		.uleb128 0x9
 1531 03fb 61060000 		.4byte	.LASF75
 1532 03ff 02       		.byte	0x2
 1533 0400 AA01     		.2byte	0x1aa
 1534 0402 EE060000 		.4byte	0x6ee
 1535 0406 00       		.byte	0
 1536 0407 00       		.byte	0
 1537 0408 03       		.uleb128 0x3
 1538 0409 C1030000 		.4byte	.LASF76
 1539 040d 09       		.byte	0x9
 1540 040e 70       		.byte	0x70
 1541 040f 13040000 		.4byte	0x413
 1542 0413 0F       		.uleb128 0xf
 1543 0414 84010000 		.4byte	.LASF77
 1544 0418 5802     		.2byte	0x258
 1545 041a 02       		.byte	0x2
 1546 041b C201     		.2byte	0x1c2
 1547 041d 6F040000 		.4byte	0x46f
 1548 0421 09       		.uleb128 0x9
 1549 0422 CF060000 		.4byte	.LASF78
 1550 0426 02       		.byte	0x2
 1551 0427 C601     		.2byte	0x1c6
 1552 0429 B6020000 		.4byte	0x2b6
 1553 042d 00       		.byte	0
 1554 042e 09       		.uleb128 0x9
 1555 042f 52010000 		.4byte	.LASF79
 1556 0433 02       		.byte	0x2
 1557 0434 CA01     		.2byte	0x1ca
 1558 0436 95030000 		.4byte	0x395
 1559 043a 1C       		.byte	0x1c
 1560 043b 08       		.uleb128 0x8
 1561 043c 64626700 		.ascii	"dbg\000"
 1562 0440 02       		.byte	0x2
 1563 0441 CE01     		.2byte	0x1ce
 1564 0443 E2030000 		.4byte	0x3e2
 1565 0447 2C       		.byte	0x2c
 1566 0448 09       		.uleb128 0x9
 1567 0449 CD000000 		.4byte	.LASF80
 1568 044d 02       		.byte	0x2
 1569 044e D201     		.2byte	0x1d2
 1570 0450 41010000 		.4byte	0x141
 1571 0454 30       		.byte	0x30
 1572 0455 08       		.uleb128 0x8
 1573 0456 746D00   		.ascii	"tm\000"
 1574 0459 02       		.byte	0x2
 1575 045a D701     		.2byte	0x1d7
 1576 045c 01060000 		.4byte	0x601
 1577 0460 78       		.byte	0x78
 1578 0461 09       		.uleb128 0x9
 1579 0462 34030000 		.4byte	.LASF81
 1580 0466 02       		.byte	0x2
 1581 0467 E301     		.2byte	0x1e3
 1582 0469 F3060000 		.4byte	0x6f3
 1583 046d 80       		.byte	0x80
 1584 046e 00       		.byte	0
ARM GAS  /tmp/ccukX1CL.s 			page 29


 1585 046f 04       		.uleb128 0x4
 1586 0470 04       		.byte	0x4
 1587 0471 07       		.byte	0x7
 1588 0472 43040000 		.4byte	.LASF82
 1589 0476 03       		.uleb128 0x3
 1590 0477 E0020000 		.4byte	.LASF83
 1591 047b 0A       		.byte	0xa
 1592 047c 65       		.byte	0x65
 1593 047d 39030000 		.4byte	0x339
 1594 0481 03       		.uleb128 0x3
 1595 0482 03040000 		.4byte	.LASF84
 1596 0486 0A       		.byte	0xa
 1597 0487 6D       		.byte	0x6d
 1598 0488 C3000000 		.4byte	0xc3
 1599 048c 06       		.uleb128 0x6
 1600 048d 7D060000 		.4byte	.LASF85
 1601 0491 04       		.byte	0x4
 1602 0492 0A       		.byte	0xa
 1603 0493 89       		.byte	0x89
 1604 0494 A5040000 		.4byte	0x4a5
 1605 0498 10       		.uleb128 0x10
 1606 0499 72313300 		.ascii	"r13\000"
 1607 049d 0A       		.byte	0xa
 1608 049e 8A       		.byte	0x8a
 1609 049f E6050000 		.4byte	0x5e6
 1610 04a3 00       		.byte	0
 1611 04a4 00       		.byte	0
 1612 04a5 06       		.uleb128 0x6
 1613 04a6 53000000 		.4byte	.LASF86
 1614 04aa 64       		.byte	0x64
 1615 04ab 0B       		.byte	0xb
 1616 04ac F4       		.byte	0xf4
 1617 04ad E6050000 		.4byte	0x5e6
 1618 04b1 10       		.uleb128 0x10
 1619 04b2 73313600 		.ascii	"s16\000"
 1620 04b6 0B       		.byte	0xb
 1621 04b7 F6       		.byte	0xf6
 1622 04b8 76040000 		.4byte	0x476
 1623 04bc 00       		.byte	0
 1624 04bd 10       		.uleb128 0x10
 1625 04be 73313700 		.ascii	"s17\000"
 1626 04c2 0B       		.byte	0xb
 1627 04c3 F7       		.byte	0xf7
 1628 04c4 76040000 		.4byte	0x476
 1629 04c8 04       		.byte	0x4
 1630 04c9 10       		.uleb128 0x10
 1631 04ca 73313800 		.ascii	"s18\000"
 1632 04ce 0B       		.byte	0xb
 1633 04cf F8       		.byte	0xf8
 1634 04d0 76040000 		.4byte	0x476
 1635 04d4 08       		.byte	0x8
 1636 04d5 10       		.uleb128 0x10
 1637 04d6 73313900 		.ascii	"s19\000"
 1638 04da 0B       		.byte	0xb
 1639 04db F9       		.byte	0xf9
 1640 04dc 76040000 		.4byte	0x476
 1641 04e0 0C       		.byte	0xc
ARM GAS  /tmp/ccukX1CL.s 			page 30


 1642 04e1 10       		.uleb128 0x10
 1643 04e2 73323000 		.ascii	"s20\000"
 1644 04e6 0B       		.byte	0xb
 1645 04e7 FA       		.byte	0xfa
 1646 04e8 76040000 		.4byte	0x476
 1647 04ec 10       		.byte	0x10
 1648 04ed 10       		.uleb128 0x10
 1649 04ee 73323100 		.ascii	"s21\000"
 1650 04f2 0B       		.byte	0xb
 1651 04f3 FB       		.byte	0xfb
 1652 04f4 76040000 		.4byte	0x476
 1653 04f8 14       		.byte	0x14
 1654 04f9 10       		.uleb128 0x10
 1655 04fa 73323200 		.ascii	"s22\000"
 1656 04fe 0B       		.byte	0xb
 1657 04ff FC       		.byte	0xfc
 1658 0500 76040000 		.4byte	0x476
 1659 0504 18       		.byte	0x18
 1660 0505 10       		.uleb128 0x10
 1661 0506 73323300 		.ascii	"s23\000"
 1662 050a 0B       		.byte	0xb
 1663 050b FD       		.byte	0xfd
 1664 050c 76040000 		.4byte	0x476
 1665 0510 1C       		.byte	0x1c
 1666 0511 10       		.uleb128 0x10
 1667 0512 73323400 		.ascii	"s24\000"
 1668 0516 0B       		.byte	0xb
 1669 0517 FE       		.byte	0xfe
 1670 0518 76040000 		.4byte	0x476
 1671 051c 20       		.byte	0x20
 1672 051d 10       		.uleb128 0x10
 1673 051e 73323500 		.ascii	"s25\000"
 1674 0522 0B       		.byte	0xb
 1675 0523 FF       		.byte	0xff
 1676 0524 76040000 		.4byte	0x476
 1677 0528 24       		.byte	0x24
 1678 0529 08       		.uleb128 0x8
 1679 052a 73323600 		.ascii	"s26\000"
 1680 052e 0B       		.byte	0xb
 1681 052f 0001     		.2byte	0x100
 1682 0531 76040000 		.4byte	0x476
 1683 0535 28       		.byte	0x28
 1684 0536 08       		.uleb128 0x8
 1685 0537 73323700 		.ascii	"s27\000"
 1686 053b 0B       		.byte	0xb
 1687 053c 0101     		.2byte	0x101
 1688 053e 76040000 		.4byte	0x476
 1689 0542 2C       		.byte	0x2c
 1690 0543 08       		.uleb128 0x8
 1691 0544 73323800 		.ascii	"s28\000"
 1692 0548 0B       		.byte	0xb
 1693 0549 0201     		.2byte	0x102
 1694 054b 76040000 		.4byte	0x476
 1695 054f 30       		.byte	0x30
 1696 0550 08       		.uleb128 0x8
 1697 0551 73323900 		.ascii	"s29\000"
 1698 0555 0B       		.byte	0xb
ARM GAS  /tmp/ccukX1CL.s 			page 31


 1699 0556 0301     		.2byte	0x103
 1700 0558 76040000 		.4byte	0x476
 1701 055c 34       		.byte	0x34
 1702 055d 08       		.uleb128 0x8
 1703 055e 73333000 		.ascii	"s30\000"
 1704 0562 0B       		.byte	0xb
 1705 0563 0401     		.2byte	0x104
 1706 0565 76040000 		.4byte	0x476
 1707 0569 38       		.byte	0x38
 1708 056a 08       		.uleb128 0x8
 1709 056b 73333100 		.ascii	"s31\000"
 1710 056f 0B       		.byte	0xb
 1711 0570 0501     		.2byte	0x105
 1712 0572 76040000 		.4byte	0x476
 1713 0576 3C       		.byte	0x3c
 1714 0577 08       		.uleb128 0x8
 1715 0578 723400   		.ascii	"r4\000"
 1716 057b 0B       		.byte	0xb
 1717 057c 0701     		.2byte	0x107
 1718 057e 76040000 		.4byte	0x476
 1719 0582 40       		.byte	0x40
 1720 0583 08       		.uleb128 0x8
 1721 0584 723500   		.ascii	"r5\000"
 1722 0587 0B       		.byte	0xb
 1723 0588 0801     		.2byte	0x108
 1724 058a 76040000 		.4byte	0x476
 1725 058e 44       		.byte	0x44
 1726 058f 08       		.uleb128 0x8
 1727 0590 723600   		.ascii	"r6\000"
 1728 0593 0B       		.byte	0xb
 1729 0594 0901     		.2byte	0x109
 1730 0596 76040000 		.4byte	0x476
 1731 059a 48       		.byte	0x48
 1732 059b 08       		.uleb128 0x8
 1733 059c 723700   		.ascii	"r7\000"
 1734 059f 0B       		.byte	0xb
 1735 05a0 0A01     		.2byte	0x10a
 1736 05a2 76040000 		.4byte	0x476
 1737 05a6 4C       		.byte	0x4c
 1738 05a7 08       		.uleb128 0x8
 1739 05a8 723800   		.ascii	"r8\000"
 1740 05ab 0B       		.byte	0xb
 1741 05ac 0B01     		.2byte	0x10b
 1742 05ae 76040000 		.4byte	0x476
 1743 05b2 50       		.byte	0x50
 1744 05b3 08       		.uleb128 0x8
 1745 05b4 723900   		.ascii	"r9\000"
 1746 05b7 0B       		.byte	0xb
 1747 05b8 0C01     		.2byte	0x10c
 1748 05ba 76040000 		.4byte	0x476
 1749 05be 54       		.byte	0x54
 1750 05bf 08       		.uleb128 0x8
 1751 05c0 72313000 		.ascii	"r10\000"
 1752 05c4 0B       		.byte	0xb
 1753 05c5 0D01     		.2byte	0x10d
 1754 05c7 76040000 		.4byte	0x476
 1755 05cb 58       		.byte	0x58
ARM GAS  /tmp/ccukX1CL.s 			page 32


 1756 05cc 08       		.uleb128 0x8
 1757 05cd 72313100 		.ascii	"r11\000"
 1758 05d1 0B       		.byte	0xb
 1759 05d2 0E01     		.2byte	0x10e
 1760 05d4 76040000 		.4byte	0x476
 1761 05d8 5C       		.byte	0x5c
 1762 05d9 08       		.uleb128 0x8
 1763 05da 6C7200   		.ascii	"lr\000"
 1764 05dd 0B       		.byte	0xb
 1765 05de 0F01     		.2byte	0x10f
 1766 05e0 76040000 		.4byte	0x476
 1767 05e4 60       		.byte	0x60
 1768 05e5 00       		.byte	0
 1769 05e6 0A       		.uleb128 0xa
 1770 05e7 04       		.byte	0x4
 1771 05e8 A5040000 		.4byte	0x4a5
 1772 05ec 11       		.uleb128 0x11
 1773 05ed 04       		.byte	0x4
 1774 05ee 0C       		.byte	0xc
 1775 05ef 38       		.byte	0x38
 1776 05f0 01060000 		.4byte	0x601
 1777 05f4 07       		.uleb128 0x7
 1778 05f5 6B060000 		.4byte	.LASF87
 1779 05f9 0C       		.byte	0xc
 1780 05fa 3C       		.byte	0x3c
 1781 05fb D3000000 		.4byte	0xd3
 1782 05ff 00       		.byte	0
 1783 0600 00       		.byte	0
 1784 0601 03       		.uleb128 0x3
 1785 0602 8E040000 		.4byte	.LASF88
 1786 0606 0C       		.byte	0xc
 1787 0607 3D       		.byte	0x3d
 1788 0608 EC050000 		.4byte	0x5ec
 1789 060c 12       		.uleb128 0x12
 1790 060d 04       		.byte	0x4
 1791 060e 02       		.byte	0x2
 1792 060f FA       		.byte	0xfa
 1793 0610 69060000 		.4byte	0x669
 1794 0614 13       		.uleb128 0x13
 1795 0615 28000000 		.4byte	.LASF89
 1796 0619 02       		.byte	0x2
 1797 061a 0101     		.2byte	0x101
 1798 061c 15010000 		.4byte	0x115
 1799 0620 13       		.uleb128 0x13
 1800 0621 C4000000 		.4byte	.LASF90
 1801 0625 02       		.byte	0x2
 1802 0626 0801     		.2byte	0x108
 1803 0628 15010000 		.4byte	0x115
 1804 062c 13       		.uleb128 0x13
 1805 062d DD060000 		.4byte	.LASF91
 1806 0631 02       		.byte	0x2
 1807 0632 0F01     		.2byte	0x10f
 1808 0634 39030000 		.4byte	0x339
 1809 0638 13       		.uleb128 0x13
 1810 0639 7E010000 		.4byte	.LASF92
 1811 063d 02       		.byte	0x2
 1812 063e 1601     		.2byte	0x116
ARM GAS  /tmp/ccukX1CL.s 			page 33


 1813 0640 69060000 		.4byte	0x669
 1814 0644 13       		.uleb128 0x13
 1815 0645 80030000 		.4byte	.LASF93
 1816 0649 02       		.byte	0x2
 1817 064a 1E01     		.2byte	0x11e
 1818 064c 94060000 		.4byte	0x694
 1819 0650 13       		.uleb128 0x13
 1820 0651 E4050000 		.4byte	.LASF94
 1821 0655 02       		.byte	0x2
 1822 0656 2701     		.2byte	0x127
 1823 0658 CB060000 		.4byte	0x6cb
 1824 065c 13       		.uleb128 0x13
 1825 065d 68050000 		.4byte	.LASF95
 1826 0661 02       		.byte	0x2
 1827 0662 2F01     		.2byte	0x12f
 1828 0664 20010000 		.4byte	0x120
 1829 0668 00       		.byte	0
 1830 0669 0A       		.uleb128 0xa
 1831 066a 04       		.byte	0x4
 1832 066b 51020000 		.4byte	0x251
 1833 066f 06       		.uleb128 0x6
 1834 0670 B7050000 		.4byte	.LASF96
 1835 0674 0C       		.byte	0xc
 1836 0675 0D       		.byte	0xd
 1837 0676 34       		.byte	0x34
 1838 0677 94060000 		.4byte	0x694
 1839 067b 07       		.uleb128 0x7
 1840 067c B4020000 		.4byte	.LASF97
 1841 0680 0D       		.byte	0xd
 1842 0681 35       		.byte	0x35
 1843 0682 86020000 		.4byte	0x286
 1844 0686 00       		.byte	0
 1845 0687 07       		.uleb128 0x7
 1846 0688 A3030000 		.4byte	.LASF98
 1847 068c 0D       		.byte	0xd
 1848 068d 37       		.byte	0x37
 1849 068e 2B010000 		.4byte	0x12b
 1850 0692 08       		.byte	0x8
 1851 0693 00       		.byte	0
 1852 0694 0A       		.uleb128 0xa
 1853 0695 04       		.byte	0x4
 1854 0696 6F060000 		.4byte	0x66f
 1855 069a 06       		.uleb128 0x6
 1856 069b A9060000 		.4byte	.LASF99
 1857 069f 10       		.byte	0x10
 1858 06a0 0E       		.byte	0xe
 1859 06a1 39       		.byte	0x39
 1860 06a2 CB060000 		.4byte	0x6cb
 1861 06a6 07       		.uleb128 0x7
 1862 06a7 4A010000 		.4byte	.LASF100
 1863 06ab 0E       		.byte	0xe
 1864 06ac 3A       		.byte	0x3a
 1865 06ad 86020000 		.4byte	0x286
 1866 06b1 00       		.byte	0
 1867 06b2 07       		.uleb128 0x7
 1868 06b3 31070000 		.4byte	.LASF101
 1869 06b7 0E       		.byte	0xe
ARM GAS  /tmp/ccukX1CL.s 			page 34


 1870 06b8 3C       		.byte	0x3c
 1871 06b9 5C020000 		.4byte	0x25c
 1872 06bd 08       		.byte	0x8
 1873 06be 07       		.uleb128 0x7
 1874 06bf 23060000 		.4byte	.LASF102
 1875 06c3 0E       		.byte	0xe
 1876 06c4 3E       		.byte	0x3e
 1877 06c5 0E070000 		.4byte	0x70e
 1878 06c9 0C       		.byte	0xc
 1879 06ca 00       		.byte	0
 1880 06cb 0A       		.uleb128 0xa
 1881 06cc 04       		.byte	0x4
 1882 06cd 9A060000 		.4byte	0x69a
 1883 06d1 0A       		.uleb128 0xa
 1884 06d2 04       		.byte	0x4
 1885 06d3 D7060000 		.4byte	0x6d7
 1886 06d7 14       		.uleb128 0x14
 1887 06d8 DC060000 		.4byte	0x6dc
 1888 06dc 04       		.uleb128 0x4
 1889 06dd 01       		.byte	0x1
 1890 06de 08       		.byte	0x8
 1891 06df 15060000 		.4byte	.LASF103
 1892 06e3 05       		.uleb128 0x5
 1893 06e4 36010000 		.4byte	0x136
 1894 06e8 0A       		.uleb128 0xa
 1895 06e9 04       		.byte	0x4
 1896 06ea 3B030000 		.4byte	0x33b
 1897 06ee 05       		.uleb128 0x5
 1898 06ef D1060000 		.4byte	0x6d1
 1899 06f3 15       		.uleb128 0x15
 1900 06f4 81040000 		.4byte	0x481
 1901 06f8 03070000 		.4byte	0x703
 1902 06fc 16       		.uleb128 0x16
 1903 06fd 6F040000 		.4byte	0x46f
 1904 0701 3A       		.byte	0x3a
 1905 0702 00       		.byte	0
 1906 0703 03       		.uleb128 0x3
 1907 0704 29070000 		.4byte	.LASF104
 1908 0708 0E       		.byte	0xe
 1909 0709 34       		.byte	0x34
 1910 070a 9A060000 		.4byte	0x69a
 1911 070e 0A       		.uleb128 0xa
 1912 070f 04       		.byte	0x4
 1913 0710 03070000 		.4byte	0x703
 1914 0714 03       		.uleb128 0x3
 1915 0715 FB000000 		.4byte	.LASF105
 1916 0719 03       		.byte	0x3
 1917 071a 3F       		.byte	0x3f
 1918 071b 1F070000 		.4byte	0x71f
 1919 071f 06       		.uleb128 0x6
 1920 0720 2B030000 		.4byte	.LASF106
 1921 0724 24       		.byte	0x24
 1922 0725 03       		.byte	0x3
 1923 0726 4D       		.byte	0x4d
 1924 0727 8C070000 		.4byte	0x78c
 1925 072b 07       		.uleb128 0x7
 1926 072c 1E010000 		.4byte	.LASF107
ARM GAS  /tmp/ccukX1CL.s 			page 35


 1927 0730 03       		.byte	0x3
 1928 0731 4E       		.byte	0x4e
 1929 0732 86020000 		.4byte	0x286
 1930 0736 00       		.byte	0
 1931 0737 07       		.uleb128 0x7
 1932 0738 76040000 		.4byte	.LASF108
 1933 073c 03       		.byte	0x3
 1934 073d 4F       		.byte	0x4f
 1935 073e AE070000 		.4byte	0x7ae
 1936 0742 08       		.byte	0x8
 1937 0743 07       		.uleb128 0x7
 1938 0744 A9010000 		.4byte	.LASF109
 1939 0748 03       		.byte	0x3
 1940 0749 50       		.byte	0x50
 1941 074a B3070000 		.4byte	0x7b3
 1942 074e 0C       		.byte	0xc
 1943 074f 07       		.uleb128 0x7
 1944 0750 A3060000 		.4byte	.LASF110
 1945 0754 03       		.byte	0x3
 1946 0755 51       		.byte	0x51
 1947 0756 B3070000 		.4byte	0x7b3
 1948 075a 10       		.byte	0x10
 1949 075b 07       		.uleb128 0x7
 1950 075c A9030000 		.4byte	.LASF111
 1951 0760 03       		.byte	0x3
 1952 0761 53       		.byte	0x53
 1953 0762 B3070000 		.4byte	0x7b3
 1954 0766 14       		.byte	0x14
 1955 0767 07       		.uleb128 0x7
 1956 0768 F9040000 		.4byte	.LASF112
 1957 076c 03       		.byte	0x3
 1958 076d 54       		.byte	0x54
 1959 076e B3070000 		.4byte	0x7b3
 1960 0772 18       		.byte	0x18
 1961 0773 07       		.uleb128 0x7
 1962 0774 C6060000 		.4byte	.LASF113
 1963 0778 03       		.byte	0x3
 1964 0779 55       		.byte	0x55
 1965 077a 8C070000 		.4byte	0x78c
 1966 077e 1C       		.byte	0x1c
 1967 077f 07       		.uleb128 0x7
 1968 0780 22070000 		.4byte	.LASF114
 1969 0784 03       		.byte	0x3
 1970 0785 56       		.byte	0x56
 1971 0786 39030000 		.4byte	0x339
 1972 078a 20       		.byte	0x20
 1973 078b 00       		.byte	0
 1974 078c 03       		.uleb128 0x3
 1975 078d C4040000 		.4byte	.LASF115
 1976 0791 03       		.byte	0x3
 1977 0792 42       		.byte	0x42
 1978 0793 97070000 		.4byte	0x797
 1979 0797 0A       		.uleb128 0xa
 1980 0798 04       		.byte	0x4
 1981 0799 9D070000 		.4byte	0x79d
 1982 079d 0C       		.uleb128 0xc
 1983 079e A8070000 		.4byte	0x7a8
ARM GAS  /tmp/ccukX1CL.s 			page 36


 1984 07a2 0D       		.uleb128 0xd
 1985 07a3 A8070000 		.4byte	0x7a8
 1986 07a7 00       		.byte	0
 1987 07a8 0A       		.uleb128 0xa
 1988 07a9 04       		.byte	0x4
 1989 07aa 14070000 		.4byte	0x714
 1990 07ae 05       		.uleb128 0x5
 1991 07af 2C000000 		.4byte	0x2c
 1992 07b3 0A       		.uleb128 0xa
 1993 07b4 04       		.byte	0x4
 1994 07b5 A2000000 		.4byte	0xa2
 1995 07b9 03       		.uleb128 0x3
 1996 07ba 2D050000 		.4byte	.LASF116
 1997 07be 03       		.byte	0x3
 1998 07bf 64       		.byte	0x64
 1999 07c0 14070000 		.4byte	0x714
 2000 07c4 03       		.uleb128 0x3
 2001 07c5 6F010000 		.4byte	.LASF117
 2002 07c9 03       		.byte	0x3
 2003 07ca 71       		.byte	0x71
 2004 07cb 14070000 		.4byte	0x714
 2005 07cf 0A       		.uleb128 0xa
 2006 07d0 04       		.byte	0x4
 2007 07d1 D5070000 		.4byte	0x7d5
 2008 07d5 14       		.uleb128 0x14
 2009 07d6 A2000000 		.4byte	0xa2
 2010 07da 17       		.uleb128 0x17
 2011 07db 53060000 		.4byte	.LASF120
 2012 07df 04       		.byte	0x4
 2013 07e0 2002     		.2byte	0x220
 2014 07e2 03       		.byte	0x3
 2015 07e3 F4070000 		.4byte	0x7f4
 2016 07e7 18       		.uleb128 0x18
 2017 07e8 25030000 		.4byte	.LASF122
 2018 07ec 04       		.byte	0x4
 2019 07ed 2002     		.2byte	0x220
 2020 07ef B8000000 		.4byte	0xb8
 2021 07f3 00       		.byte	0
 2022 07f4 19       		.uleb128 0x19
 2023 07f5 89000000 		.4byte	.LASF118
 2024 07f9 0B       		.byte	0xb
 2025 07fa BC01     		.2byte	0x1bc
 2026 07fc 03       		.byte	0x3
 2027 07fd 19       		.uleb128 0x19
 2028 07fe 59010000 		.4byte	.LASF119
 2029 0802 0B       		.byte	0xb
 2030 0803 CA01     		.2byte	0x1ca
 2031 0805 03       		.byte	0x3
 2032 0806 17       		.uleb128 0x17
 2033 0807 7E000000 		.4byte	.LASF121
 2034 080b 02       		.byte	0x2
 2035 080c 5A02     		.2byte	0x25a
 2036 080e 03       		.byte	0x3
 2037 080f 20080000 		.4byte	0x820
 2038 0813 1A       		.uleb128 0x1a
 2039 0814 74717000 		.ascii	"tqp\000"
 2040 0818 02       		.byte	0x2
ARM GAS  /tmp/ccukX1CL.s 			page 37


 2041 0819 5A02     		.2byte	0x25a
 2042 081b 20080000 		.4byte	0x820
 2043 081f 00       		.byte	0
 2044 0820 0A       		.uleb128 0xa
 2045 0821 04       		.byte	0x4
 2046 0822 86020000 		.4byte	0x286
 2047 0826 17       		.uleb128 0x17
 2048 0827 2E040000 		.4byte	.LASF123
 2049 082b 0F       		.byte	0xf
 2050 082c 1601     		.2byte	0x116
 2051 082e 03       		.byte	0x3
 2052 082f 40080000 		.4byte	0x840
 2053 0833 1A       		.uleb128 0x1a
 2054 0834 74717000 		.ascii	"tqp\000"
 2055 0838 0F       		.byte	0xf
 2056 0839 1601     		.2byte	0x116
 2057 083b 20080000 		.4byte	0x820
 2058 083f 00       		.byte	0
 2059 0840 1B       		.uleb128 0x1b
 2060 0841 CF050000 		.4byte	.LASF127
 2061 0845 03       		.byte	0x3
 2062 0846 4001     		.2byte	0x140
 2063 0848 5E080000 		.4byte	0x85e
 2064 084c 03       		.byte	0x3
 2065 084d 5E080000 		.4byte	0x85e
 2066 0851 1A       		.uleb128 0x1a
 2067 0852 69717000 		.ascii	"iqp\000"
 2068 0856 03       		.byte	0x3
 2069 0857 4001     		.2byte	0x140
 2070 0859 65080000 		.4byte	0x865
 2071 085d 00       		.byte	0
 2072 085e 04       		.uleb128 0x4
 2073 085f 01       		.byte	0x1
 2074 0860 02       		.byte	0x2
 2075 0861 11050000 		.4byte	.LASF124
 2076 0865 0A       		.uleb128 0xa
 2077 0866 04       		.byte	0x4
 2078 0867 B9070000 		.4byte	0x7b9
 2079 086b 19       		.uleb128 0x19
 2080 086c 8C050000 		.4byte	.LASF125
 2081 0870 10       		.byte	0x10
 2082 0871 5A01     		.2byte	0x15a
 2083 0873 03       		.byte	0x3
 2084 0874 17       		.uleb128 0x17
 2085 0875 10070000 		.4byte	.LASF126
 2086 0879 10       		.byte	0x10
 2087 087a 6601     		.2byte	0x166
 2088 087c 03       		.byte	0x3
 2089 087d 8F080000 		.4byte	0x88f
 2090 0881 1C       		.uleb128 0x1c
 2091 0882 83050000 		.4byte	.LASF146
 2092 0886 9F080000 		.4byte	0x89f
 2093 088a 10070000 		.4byte	.LASF126
 2094 088e 00       		.byte	0
 2095 088f 15       		.uleb128 0x15
 2096 0890 DC060000 		.4byte	0x6dc
 2097 0894 9F080000 		.4byte	0x89f
ARM GAS  /tmp/ccukX1CL.s 			page 38


 2098 0898 16       		.uleb128 0x16
 2099 0899 6F040000 		.4byte	0x46f
 2100 089d 0B       		.byte	0xb
 2101 089e 00       		.byte	0
 2102 089f 14       		.uleb128 0x14
 2103 08a0 8F080000 		.4byte	0x88f
 2104 08a4 1B       		.uleb128 0x1b
 2105 08a5 B9060000 		.4byte	.LASF128
 2106 08a9 03       		.byte	0x3
 2107 08aa 2F01     		.2byte	0x12f
 2108 08ac 5E080000 		.4byte	0x85e
 2109 08b0 03       		.byte	0x3
 2110 08b1 C2080000 		.4byte	0x8c2
 2111 08b5 1A       		.uleb128 0x1a
 2112 08b6 69717000 		.ascii	"iqp\000"
 2113 08ba 03       		.byte	0x3
 2114 08bb 2F01     		.2byte	0x12f
 2115 08bd 65080000 		.4byte	0x865
 2116 08c1 00       		.byte	0
 2117 08c2 1B       		.uleb128 0x1b
 2118 08c3 E5040000 		.4byte	.LASF129
 2119 08c7 03       		.byte	0x3
 2120 08c8 9301     		.2byte	0x193
 2121 08ca 5E080000 		.4byte	0x85e
 2122 08ce 03       		.byte	0x3
 2123 08cf E0080000 		.4byte	0x8e0
 2124 08d3 1A       		.uleb128 0x1a
 2125 08d4 6F717000 		.ascii	"oqp\000"
 2126 08d8 03       		.byte	0x3
 2127 08d9 9301     		.2byte	0x193
 2128 08db E0080000 		.4byte	0x8e0
 2129 08df 00       		.byte	0
 2130 08e0 0A       		.uleb128 0xa
 2131 08e1 04       		.byte	0x4
 2132 08e2 C4070000 		.4byte	0x7c4
 2133 08e6 1B       		.uleb128 0x1b
 2134 08e7 F0060000 		.4byte	.LASF130
 2135 08eb 03       		.byte	0x3
 2136 08ec 8201     		.2byte	0x182
 2137 08ee 5E080000 		.4byte	0x85e
 2138 08f2 03       		.byte	0x3
 2139 08f3 04090000 		.4byte	0x904
 2140 08f7 1A       		.uleb128 0x1a
 2141 08f8 6F717000 		.ascii	"oqp\000"
 2142 08fc 03       		.byte	0x3
 2143 08fd 8201     		.2byte	0x182
 2144 08ff E0080000 		.4byte	0x8e0
 2145 0903 00       		.byte	0
 2146 0904 1D       		.uleb128 0x1d
 2147 0905 93000000 		.4byte	.LASF134
 2148 0909 01       		.byte	0x1
 2149 090a 57       		.byte	0x57
 2150 090b 00000000 		.4byte	.LFB219
 2151 090f 1E000000 		.4byte	.LFE219-.LFB219
 2152 0913 01       		.uleb128 0x1
 2153 0914 9C       		.byte	0x9c
 2154 0915 8D090000 		.4byte	0x98d
ARM GAS  /tmp/ccukX1CL.s 			page 39


 2155 0919 1E       		.uleb128 0x1e
 2156 091a 69717000 		.ascii	"iqp\000"
 2157 091e 01       		.byte	0x1
 2158 091f 57       		.byte	0x57
 2159 0920 65080000 		.4byte	0x865
 2160 0924 01       		.uleb128 0x1
 2161 0925 50       		.byte	0x50
 2162 0926 1E       		.uleb128 0x1e
 2163 0927 627000   		.ascii	"bp\000"
 2164 092a 01       		.byte	0x1
 2165 092b 57       		.byte	0x57
 2166 092c B3070000 		.4byte	0x7b3
 2167 0930 01       		.uleb128 0x1
 2168 0931 51       		.byte	0x51
 2169 0932 1F       		.uleb128 0x1f
 2170 0933 EB060000 		.4byte	.LASF131
 2171 0937 01       		.byte	0x1
 2172 0938 57       		.byte	0x57
 2173 0939 2C000000 		.4byte	0x2c
 2174 093d 00000000 		.4byte	.LLST0
 2175 0941 20       		.uleb128 0x20
 2176 0942 76050000 		.4byte	.LASF132
 2177 0946 01       		.byte	0x1
 2178 0947 58       		.byte	0x58
 2179 0948 8C070000 		.4byte	0x78c
 2180 094c 01       		.uleb128 0x1
 2181 094d 53       		.byte	0x53
 2182 094e 1F       		.uleb128 0x1f
 2183 094f F1020000 		.4byte	.LASF133
 2184 0953 01       		.byte	0x1
 2185 0954 58       		.byte	0x58
 2186 0955 39030000 		.4byte	0x339
 2187 0959 21000000 		.4byte	.LLST1
 2188 095d 21       		.uleb128 0x21
 2189 095e 26080000 		.4byte	0x826
 2190 0962 0E000000 		.4byte	.LBB108
 2191 0966 04000000 		.4byte	.LBE108-.LBB108
 2192 096a 01       		.byte	0x1
 2193 096b 5A       		.byte	0x5a
 2194 096c 22       		.uleb128 0x22
 2195 096d 33080000 		.4byte	0x833
 2196 0971 01       		.uleb128 0x1
 2197 0972 50       		.byte	0x50
 2198 0973 23       		.uleb128 0x23
 2199 0974 06080000 		.4byte	0x806
 2200 0978 0E000000 		.4byte	.LBB109
 2201 097c 04000000 		.4byte	.LBE109-.LBB109
 2202 0980 0F       		.byte	0xf
 2203 0981 1801     		.2byte	0x118
 2204 0983 22       		.uleb128 0x22
 2205 0984 13080000 		.4byte	0x813
 2206 0988 01       		.uleb128 0x1
 2207 0989 50       		.byte	0x50
 2208 098a 00       		.byte	0
 2209 098b 00       		.byte	0
 2210 098c 00       		.byte	0
 2211 098d 1D       		.uleb128 0x1d
ARM GAS  /tmp/ccukX1CL.s 			page 40


 2212 098e B9000000 		.4byte	.LASF135
 2213 0992 01       		.byte	0x1
 2214 0993 6F       		.byte	0x6f
 2215 0994 00000000 		.4byte	.LFB220
 2216 0998 12000000 		.4byte	.LFE220-.LFB220
 2217 099c 01       		.uleb128 0x1
 2218 099d 9C       		.byte	0x9c
 2219 099e C9090000 		.4byte	0x9c9
 2220 09a2 24       		.uleb128 0x24
 2221 09a3 69717000 		.ascii	"iqp\000"
 2222 09a7 01       		.byte	0x1
 2223 09a8 6F       		.byte	0x6f
 2224 09a9 65080000 		.4byte	0x865
 2225 09ad 41000000 		.4byte	.LLST2
 2226 09b1 25       		.uleb128 0x25
 2227 09b2 12000000 		.4byte	.LVL4
 2228 09b6 FD110000 		.4byte	0x11fd
 2229 09ba 26       		.uleb128 0x26
 2230 09bb 01       		.uleb128 0x1
 2231 09bc 51       		.byte	0x51
 2232 09bd 02       		.uleb128 0x2
 2233 09be 09       		.byte	0x9
 2234 09bf FE       		.byte	0xfe
 2235 09c0 26       		.uleb128 0x26
 2236 09c1 01       		.uleb128 0x1
 2237 09c2 50       		.byte	0x50
 2238 09c3 03       		.uleb128 0x3
 2239 09c4 F3       		.byte	0xf3
 2240 09c5 01       		.uleb128 0x1
 2241 09c6 50       		.byte	0x50
 2242 09c7 00       		.byte	0
 2243 09c8 00       		.byte	0
 2244 09c9 27       		.uleb128 0x27
 2245 09ca BC020000 		.4byte	.LASF136
 2246 09ce 01       		.byte	0x1
 2247 09cf 86       		.byte	0x86
 2248 09d0 15010000 		.4byte	0x115
 2249 09d4 00000000 		.4byte	.LFB221
 2250 09d8 38000000 		.4byte	.LFE221-.LFB221
 2251 09dc 01       		.uleb128 0x1
 2252 09dd 9C       		.byte	0x9c
 2253 09de 2B0A0000 		.4byte	0xa2b
 2254 09e2 24       		.uleb128 0x24
 2255 09e3 69717000 		.ascii	"iqp\000"
 2256 09e7 01       		.byte	0x1
 2257 09e8 86       		.byte	0x86
 2258 09e9 65080000 		.4byte	0x865
 2259 09ed 62000000 		.4byte	.LLST3
 2260 09f1 24       		.uleb128 0x24
 2261 09f2 6200     		.ascii	"b\000"
 2262 09f4 01       		.byte	0x1
 2263 09f5 86       		.byte	0x86
 2264 09f6 A2000000 		.4byte	0xa2
 2265 09fa 9C000000 		.4byte	.LLST4
 2266 09fe 28       		.uleb128 0x28
 2267 09ff 40080000 		.4byte	0x840
 2268 0a03 00000000 		.4byte	.LBB111
ARM GAS  /tmp/ccukX1CL.s 			page 41


 2269 0a07 00000000 		.4byte	.Ldebug_ranges0+0
 2270 0a0b 01       		.byte	0x1
 2271 0a0c 8A       		.byte	0x8a
 2272 0a0d 1B0A0000 		.4byte	0xa1b
 2273 0a11 29       		.uleb128 0x29
 2274 0a12 51080000 		.4byte	0x851
 2275 0a16 62000000 		.4byte	.LLST3
 2276 0a1a 00       		.byte	0
 2277 0a1b 2A       		.uleb128 0x2a
 2278 0a1c 28000000 		.4byte	.LVL7
 2279 0a20 13120000 		.4byte	0x1213
 2280 0a24 26       		.uleb128 0x26
 2281 0a25 01       		.uleb128 0x1
 2282 0a26 51       		.byte	0x51
 2283 0a27 01       		.uleb128 0x1
 2284 0a28 30       		.byte	0x30
 2285 0a29 00       		.byte	0
 2286 0a2a 00       		.byte	0
 2287 0a2b 27       		.uleb128 0x27
 2288 0a2c 47070000 		.4byte	.LASF137
 2289 0a30 01       		.byte	0x1
 2290 0a31 AD       		.byte	0xad
 2291 0a32 15010000 		.4byte	0x115
 2292 0a36 00000000 		.4byte	.LFB222
 2293 0a3a 50000000 		.4byte	.LFE222-.LFB222
 2294 0a3e 01       		.uleb128 0x1
 2295 0a3f 9C       		.byte	0x9c
 2296 0a40 900B0000 		.4byte	0xb90
 2297 0a44 24       		.uleb128 0x24
 2298 0a45 69717000 		.ascii	"iqp\000"
 2299 0a49 01       		.byte	0x1
 2300 0a4a AD       		.byte	0xad
 2301 0a4b 65080000 		.4byte	0x865
 2302 0a4f C8000000 		.4byte	.LLST6
 2303 0a53 1F       		.uleb128 0x1f
 2304 0a54 9B030000 		.4byte	.LASF138
 2305 0a58 01       		.byte	0x1
 2306 0a59 AD       		.byte	0xad
 2307 0a5a 36010000 		.4byte	0x136
 2308 0a5e 12010000 		.4byte	.LLST7
 2309 0a62 2B       		.uleb128 0x2b
 2310 0a63 6200     		.ascii	"b\000"
 2311 0a65 01       		.byte	0x1
 2312 0a66 AE       		.byte	0xae
 2313 0a67 A2000000 		.4byte	0xa2
 2314 0a6b 5C010000 		.4byte	.LLST8
 2315 0a6f 28       		.uleb128 0x28
 2316 0a70 6B080000 		.4byte	0x86b
 2317 0a74 02000000 		.4byte	.LBB117
 2318 0a78 20000000 		.4byte	.Ldebug_ranges0+0x20
 2319 0a7c 01       		.byte	0x1
 2320 0a7d B0       		.byte	0xb0
 2321 0a7e AB0A0000 		.4byte	0xaab
 2322 0a82 2C       		.uleb128 0x2c
 2323 0a83 F4070000 		.4byte	0x7f4
 2324 0a87 02000000 		.4byte	.LBB118
 2325 0a8b 20000000 		.4byte	.Ldebug_ranges0+0x20
ARM GAS  /tmp/ccukX1CL.s 			page 42


 2326 0a8f 10       		.byte	0x10
 2327 0a90 5C01     		.2byte	0x15c
 2328 0a92 2C       		.uleb128 0x2c
 2329 0a93 DA070000 		.4byte	0x7da
 2330 0a97 02000000 		.4byte	.LBB119
 2331 0a9b 20000000 		.4byte	.Ldebug_ranges0+0x20
 2332 0a9f 0B       		.byte	0xb
 2333 0aa0 BF01     		.2byte	0x1bf
 2334 0aa2 2D       		.uleb128 0x2d
 2335 0aa3 E7070000 		.4byte	0x7e7
 2336 0aa7 20       		.byte	0x20
 2337 0aa8 00       		.byte	0
 2338 0aa9 00       		.byte	0
 2339 0aaa 00       		.byte	0
 2340 0aab 2E       		.uleb128 0x2e
 2341 0aac 38000000 		.4byte	.Ldebug_ranges0+0x38
 2342 0ab0 180B0000 		.4byte	0xb18
 2343 0ab4 2B       		.uleb128 0x2b
 2344 0ab5 6D736700 		.ascii	"msg\000"
 2345 0ab9 01       		.byte	0x1
 2346 0aba B6       		.byte	0xb6
 2347 0abb 15010000 		.4byte	0x115
 2348 0abf 7B010000 		.4byte	.LLST9
 2349 0ac3 2F       		.uleb128 0x2f
 2350 0ac4 74080000 		.4byte	0x874
 2351 0ac8 4A000000 		.4byte	.LBB126
 2352 0acc 04000000 		.4byte	.LBE126-.LBB126
 2353 0ad0 01       		.byte	0x1
 2354 0ad1 B8       		.byte	0xb8
 2355 0ad2 0E0B0000 		.4byte	0xb0e
 2356 0ad6 30       		.uleb128 0x30
 2357 0ad7 4A000000 		.4byte	.LBB127
 2358 0adb 04000000 		.4byte	.LBE127-.LBB127
 2359 0adf 31       		.uleb128 0x31
 2360 0ae0 81080000 		.4byte	0x881
 2361 0ae4 23       		.uleb128 0x23
 2362 0ae5 FD070000 		.4byte	0x7fd
 2363 0ae9 4A000000 		.4byte	.LBB128
 2364 0aed 04000000 		.4byte	.LBE128-.LBB128
 2365 0af1 10       		.byte	0x10
 2366 0af2 7301     		.2byte	0x173
 2367 0af4 23       		.uleb128 0x23
 2368 0af5 DA070000 		.4byte	0x7da
 2369 0af9 4A000000 		.4byte	.LBB129
 2370 0afd 04000000 		.4byte	.LBE129-.LBB129
 2371 0b01 0B       		.byte	0xb
 2372 0b02 CD01     		.2byte	0x1cd
 2373 0b04 2D       		.uleb128 0x2d
 2374 0b05 E7070000 		.4byte	0x7e7
 2375 0b09 00       		.byte	0
 2376 0b0a 00       		.byte	0
 2377 0b0b 00       		.byte	0
 2378 0b0c 00       		.byte	0
 2379 0b0d 00       		.byte	0
 2380 0b0e 32       		.uleb128 0x32
 2381 0b0f 18000000 		.4byte	.LVL13
 2382 0b13 29120000 		.4byte	0x1229
ARM GAS  /tmp/ccukX1CL.s 			page 43


 2383 0b17 00       		.byte	0
 2384 0b18 2F       		.uleb128 0x2f
 2385 0b19 A4080000 		.4byte	0x8a4
 2386 0b1d 1C000000 		.4byte	.LBB131
 2387 0b21 02000000 		.4byte	.LBE131-.LBB131
 2388 0b25 01       		.byte	0x1
 2389 0b26 B5       		.byte	0xb5
 2390 0b27 350B0000 		.4byte	0xb35
 2391 0b2b 29       		.uleb128 0x29
 2392 0b2c B5080000 		.4byte	0x8b5
 2393 0b30 99010000 		.4byte	.LLST10
 2394 0b34 00       		.byte	0
 2395 0b35 2F       		.uleb128 0x2f
 2396 0b36 74080000 		.4byte	0x874
 2397 0b3a 42000000 		.4byte	.LBB134
 2398 0b3e 06000000 		.4byte	.LBE134-.LBB134
 2399 0b42 01       		.byte	0x1
 2400 0b43 C2       		.byte	0xc2
 2401 0b44 830B0000 		.4byte	0xb83
 2402 0b48 30       		.uleb128 0x30
 2403 0b49 42000000 		.4byte	.LBB135
 2404 0b4d 06000000 		.4byte	.LBE135-.LBB135
 2405 0b51 31       		.uleb128 0x31
 2406 0b52 81080000 		.4byte	0x881
 2407 0b56 23       		.uleb128 0x23
 2408 0b57 FD070000 		.4byte	0x7fd
 2409 0b5b 42000000 		.4byte	.LBB136
 2410 0b5f 06000000 		.4byte	.LBE136-.LBB136
 2411 0b63 10       		.byte	0x10
 2412 0b64 7301     		.2byte	0x173
 2413 0b66 23       		.uleb128 0x23
 2414 0b67 DA070000 		.4byte	0x7da
 2415 0b6b 42000000 		.4byte	.LBB137
 2416 0b6f 06000000 		.4byte	.LBE137-.LBB137
 2417 0b73 0B       		.byte	0xb
 2418 0b74 CD01     		.2byte	0x1cd
 2419 0b76 29       		.uleb128 0x29
 2420 0b77 E7070000 		.4byte	0x7e7
 2421 0b7b CD010000 		.4byte	.LLST11
 2422 0b7f 00       		.byte	0
 2423 0b80 00       		.byte	0
 2424 0b81 00       		.byte	0
 2425 0b82 00       		.byte	0
 2426 0b83 33       		.uleb128 0x33
 2427 0b84 12000000 		.4byte	.LVL11
 2428 0b88 26       		.uleb128 0x26
 2429 0b89 01       		.uleb128 0x1
 2430 0b8a 50       		.byte	0x50
 2431 0b8b 02       		.uleb128 0x2
 2432 0b8c 74       		.byte	0x74
 2433 0b8d 00       		.sleb128 0
 2434 0b8e 00       		.byte	0
 2435 0b8f 00       		.byte	0
 2436 0b90 27       		.uleb128 0x27
 2437 0b91 6E000000 		.4byte	.LASF139
 2438 0b95 01       		.byte	0x1
 2439 0b96 DF       		.byte	0xdf
ARM GAS  /tmp/ccukX1CL.s 			page 44


 2440 0b97 2C000000 		.4byte	0x2c
 2441 0b9b 00000000 		.4byte	.LFB223
 2442 0b9f 7A000000 		.4byte	.LFE223-.LFB223
 2443 0ba3 01       		.uleb128 0x1
 2444 0ba4 9C       		.byte	0x9c
 2445 0ba5 530D0000 		.4byte	0xd53
 2446 0ba9 24       		.uleb128 0x24
 2447 0baa 69717000 		.ascii	"iqp\000"
 2448 0bae 01       		.byte	0x1
 2449 0baf DF       		.byte	0xdf
 2450 0bb0 65080000 		.4byte	0x865
 2451 0bb4 E1010000 		.4byte	.LLST12
 2452 0bb8 24       		.uleb128 0x24
 2453 0bb9 627000   		.ascii	"bp\000"
 2454 0bbc 01       		.byte	0x1
 2455 0bbd DF       		.byte	0xdf
 2456 0bbe B3070000 		.4byte	0x7b3
 2457 0bc2 2B020000 		.4byte	.LLST13
 2458 0bc6 24       		.uleb128 0x24
 2459 0bc7 6E00     		.ascii	"n\000"
 2460 0bc9 01       		.byte	0x1
 2461 0bca E0       		.byte	0xe0
 2462 0bcb 2C000000 		.4byte	0x2c
 2463 0bcf 84020000 		.4byte	.LLST14
 2464 0bd3 1F       		.uleb128 0x1f
 2465 0bd4 9B030000 		.4byte	.LASF138
 2466 0bd8 01       		.byte	0x1
 2467 0bd9 E0       		.byte	0xe0
 2468 0bda 36010000 		.4byte	0x136
 2469 0bde A8020000 		.4byte	.LLST15
 2470 0be2 34       		.uleb128 0x34
 2471 0be3 6E667900 		.ascii	"nfy\000"
 2472 0be7 01       		.byte	0x1
 2473 0be8 E1       		.byte	0xe1
 2474 0be9 8C070000 		.4byte	0x78c
 2475 0bed 01       		.uleb128 0x1
 2476 0bee 58       		.byte	0x58
 2477 0bef 2B       		.uleb128 0x2b
 2478 0bf0 7200     		.ascii	"r\000"
 2479 0bf2 01       		.byte	0x1
 2480 0bf3 E2       		.byte	0xe2
 2481 0bf4 2C000000 		.4byte	0x2c
 2482 0bf8 F2020000 		.4byte	.LLST16
 2483 0bfc 35       		.uleb128 0x35
 2484 0bfd 83050000 		.4byte	.LASF146
 2485 0c01 630D0000 		.4byte	0xd63
 2486 0c05 2F       		.uleb128 0x2f
 2487 0c06 6B080000 		.4byte	0x86b
 2488 0c0a 0C000000 		.4byte	.LBB140
 2489 0c0e 08000000 		.4byte	.LBE140-.LBB140
 2490 0c12 01       		.byte	0x1
 2491 0c13 E6       		.byte	0xe6
 2492 0c14 410C0000 		.4byte	0xc41
 2493 0c18 23       		.uleb128 0x23
 2494 0c19 F4070000 		.4byte	0x7f4
 2495 0c1d 0C000000 		.4byte	.LBB141
 2496 0c21 08000000 		.4byte	.LBE141-.LBB141
ARM GAS  /tmp/ccukX1CL.s 			page 45


 2497 0c25 10       		.byte	0x10
 2498 0c26 5C01     		.2byte	0x15c
 2499 0c28 23       		.uleb128 0x23
 2500 0c29 DA070000 		.4byte	0x7da
 2501 0c2d 0C000000 		.4byte	.LBB142
 2502 0c31 08000000 		.4byte	.LBE142-.LBB142
 2503 0c35 0B       		.byte	0xb
 2504 0c36 BF01     		.2byte	0x1bf
 2505 0c38 2D       		.uleb128 0x2d
 2506 0c39 E7070000 		.4byte	0x7e7
 2507 0c3d 20       		.byte	0x20
 2508 0c3e 00       		.byte	0
 2509 0c3f 00       		.byte	0
 2510 0c40 00       		.byte	0
 2511 0c41 2F       		.uleb128 0x2f
 2512 0c42 A4080000 		.4byte	0x8a4
 2513 0c46 30000000 		.4byte	.LBB144
 2514 0c4a 02000000 		.4byte	.LBE144-.LBB144
 2515 0c4e 01       		.byte	0x1
 2516 0c4f EC       		.byte	0xec
 2517 0c50 5E0C0000 		.4byte	0xc5e
 2518 0c54 29       		.uleb128 0x29
 2519 0c55 B5080000 		.4byte	0x8b5
 2520 0c59 11030000 		.4byte	.LLST17
 2521 0c5d 00       		.byte	0
 2522 0c5e 2F       		.uleb128 0x2f
 2523 0c5f 74080000 		.4byte	0x874
 2524 0c63 58000000 		.4byte	.LBB146
 2525 0c67 06000000 		.4byte	.LBE146-.LBB146
 2526 0c6b 01       		.byte	0x1
 2527 0c6c F8       		.byte	0xf8
 2528 0c6d AC0C0000 		.4byte	0xcac
 2529 0c71 30       		.uleb128 0x30
 2530 0c72 58000000 		.4byte	.LBB147
 2531 0c76 06000000 		.4byte	.LBE147-.LBB147
 2532 0c7a 31       		.uleb128 0x31
 2533 0c7b 81080000 		.4byte	0x881
 2534 0c7f 23       		.uleb128 0x23
 2535 0c80 FD070000 		.4byte	0x7fd
 2536 0c84 58000000 		.4byte	.LBB148
 2537 0c88 06000000 		.4byte	.LBE148-.LBB148
 2538 0c8c 10       		.byte	0x10
 2539 0c8d 7301     		.2byte	0x173
 2540 0c8f 23       		.uleb128 0x23
 2541 0c90 DA070000 		.4byte	0x7da
 2542 0c94 58000000 		.4byte	.LBB149
 2543 0c98 06000000 		.4byte	.LBE149-.LBB149
 2544 0c9c 0B       		.byte	0xb
 2545 0c9d CD01     		.2byte	0x1cd
 2546 0c9f 29       		.uleb128 0x29
 2547 0ca0 E7070000 		.4byte	0x7e7
 2548 0ca4 45030000 		.4byte	.LLST18
 2549 0ca8 00       		.byte	0
 2550 0ca9 00       		.byte	0
 2551 0caa 00       		.byte	0
 2552 0cab 00       		.byte	0
 2553 0cac 2F       		.uleb128 0x2f
ARM GAS  /tmp/ccukX1CL.s 			page 46


 2554 0cad 6B080000 		.4byte	0x86b
 2555 0cb1 66000000 		.4byte	.LBB151
 2556 0cb5 0A000000 		.4byte	.LBE151-.LBB151
 2557 0cb9 01       		.byte	0x1
 2558 0cba FF       		.byte	0xff
 2559 0cbb EB0C0000 		.4byte	0xceb
 2560 0cbf 23       		.uleb128 0x23
 2561 0cc0 F4070000 		.4byte	0x7f4
 2562 0cc4 66000000 		.4byte	.LBB152
 2563 0cc8 0A000000 		.4byte	.LBE152-.LBB152
 2564 0ccc 10       		.byte	0x10
 2565 0ccd 5C01     		.2byte	0x15c
 2566 0ccf 23       		.uleb128 0x23
 2567 0cd0 DA070000 		.4byte	0x7da
 2568 0cd4 66000000 		.4byte	.LBB153
 2569 0cd8 0A000000 		.4byte	.LBE153-.LBB153
 2570 0cdc 0B       		.byte	0xb
 2571 0cdd BF01     		.2byte	0x1bf
 2572 0cdf 29       		.uleb128 0x29
 2573 0ce0 E7070000 		.4byte	0x7e7
 2574 0ce4 59030000 		.4byte	.LLST19
 2575 0ce8 00       		.byte	0
 2576 0ce9 00       		.byte	0
 2577 0cea 00       		.byte	0
 2578 0ceb 2F       		.uleb128 0x2f
 2579 0cec 74080000 		.4byte	0x874
 2580 0cf0 70000000 		.4byte	.LBB155
 2581 0cf4 04000000 		.4byte	.LBE155-.LBB155
 2582 0cf8 01       		.byte	0x1
 2583 0cf9 EE       		.byte	0xee
 2584 0cfa 390D0000 		.4byte	0xd39
 2585 0cfe 30       		.uleb128 0x30
 2586 0cff 70000000 		.4byte	.LBB156
 2587 0d03 04000000 		.4byte	.LBE156-.LBB156
 2588 0d07 31       		.uleb128 0x31
 2589 0d08 81080000 		.4byte	0x881
 2590 0d0c 23       		.uleb128 0x23
 2591 0d0d FD070000 		.4byte	0x7fd
 2592 0d11 70000000 		.4byte	.LBB157
 2593 0d15 04000000 		.4byte	.LBE157-.LBB157
 2594 0d19 10       		.byte	0x10
 2595 0d1a 7301     		.2byte	0x173
 2596 0d1c 23       		.uleb128 0x23
 2597 0d1d DA070000 		.4byte	0x7da
 2598 0d21 70000000 		.4byte	.LBB158
 2599 0d25 04000000 		.4byte	.LBE158-.LBB158
 2600 0d29 0B       		.byte	0xb
 2601 0d2a CD01     		.2byte	0x1cd
 2602 0d2c 29       		.uleb128 0x29
 2603 0d2d E7070000 		.4byte	0x7e7
 2604 0d31 6E030000 		.4byte	.LLST20
 2605 0d35 00       		.byte	0
 2606 0d36 00       		.byte	0
 2607 0d37 00       		.byte	0
 2608 0d38 00       		.byte	0
 2609 0d39 36       		.uleb128 0x36
 2610 0d3a 28000000 		.4byte	.LVL25
ARM GAS  /tmp/ccukX1CL.s 			page 47


 2611 0d3e 490D0000 		.4byte	0xd49
 2612 0d42 26       		.uleb128 0x26
 2613 0d43 01       		.uleb128 0x1
 2614 0d44 50       		.byte	0x50
 2615 0d45 02       		.uleb128 0x2
 2616 0d46 74       		.byte	0x74
 2617 0d47 00       		.sleb128 0
 2618 0d48 00       		.byte	0
 2619 0d49 32       		.uleb128 0x32
 2620 0d4a 2E000000 		.4byte	.LVL27
 2621 0d4e 29120000 		.4byte	0x1229
 2622 0d52 00       		.byte	0
 2623 0d53 15       		.uleb128 0x15
 2624 0d54 DC060000 		.4byte	0x6dc
 2625 0d58 630D0000 		.4byte	0xd63
 2626 0d5c 16       		.uleb128 0x16
 2627 0d5d 6F040000 		.4byte	0x46f
 2628 0d61 0F       		.byte	0xf
 2629 0d62 00       		.byte	0
 2630 0d63 14       		.uleb128 0x14
 2631 0d64 530D0000 		.4byte	0xd53
 2632 0d68 37       		.uleb128 0x37
 2633 0d69 94060000 		.4byte	.LASF140
 2634 0d6d 01       		.byte	0x1
 2635 0d6e 1301     		.2byte	0x113
 2636 0d70 00000000 		.4byte	.LFB224
 2637 0d74 1C000000 		.4byte	.LFE224-.LFB224
 2638 0d78 01       		.uleb128 0x1
 2639 0d79 9C       		.byte	0x9c
 2640 0d7a F60D0000 		.4byte	0xdf6
 2641 0d7e 38       		.uleb128 0x38
 2642 0d7f 6F717000 		.ascii	"oqp\000"
 2643 0d83 01       		.byte	0x1
 2644 0d84 1301     		.2byte	0x113
 2645 0d86 E0080000 		.4byte	0x8e0
 2646 0d8a 01       		.uleb128 0x1
 2647 0d8b 50       		.byte	0x50
 2648 0d8c 38       		.uleb128 0x38
 2649 0d8d 627000   		.ascii	"bp\000"
 2650 0d90 01       		.byte	0x1
 2651 0d91 1301     		.2byte	0x113
 2652 0d93 B3070000 		.4byte	0x7b3
 2653 0d97 01       		.uleb128 0x1
 2654 0d98 51       		.byte	0x51
 2655 0d99 39       		.uleb128 0x39
 2656 0d9a EB060000 		.4byte	.LASF131
 2657 0d9e 01       		.byte	0x1
 2658 0d9f 1301     		.2byte	0x113
 2659 0da1 2C000000 		.4byte	0x2c
 2660 0da5 01       		.uleb128 0x1
 2661 0da6 52       		.byte	0x52
 2662 0da7 39       		.uleb128 0x39
 2663 0da8 1C000000 		.4byte	.LASF141
 2664 0dac 01       		.byte	0x1
 2665 0dad 1401     		.2byte	0x114
 2666 0daf 8C070000 		.4byte	0x78c
 2667 0db3 01       		.uleb128 0x1
ARM GAS  /tmp/ccukX1CL.s 			page 48


 2668 0db4 53       		.byte	0x53
 2669 0db5 3A       		.uleb128 0x3a
 2670 0db6 F1020000 		.4byte	.LASF133
 2671 0dba 01       		.byte	0x1
 2672 0dbb 1401     		.2byte	0x114
 2673 0dbd 39030000 		.4byte	0x339
 2674 0dc1 82030000 		.4byte	.LLST21
 2675 0dc5 23       		.uleb128 0x23
 2676 0dc6 26080000 		.4byte	0x826
 2677 0dca 0A000000 		.4byte	.LBB160
 2678 0dce 04000000 		.4byte	.LBE160-.LBB160
 2679 0dd2 01       		.byte	0x1
 2680 0dd3 1601     		.2byte	0x116
 2681 0dd5 22       		.uleb128 0x22
 2682 0dd6 33080000 		.4byte	0x833
 2683 0dda 01       		.uleb128 0x1
 2684 0ddb 50       		.byte	0x50
 2685 0ddc 23       		.uleb128 0x23
 2686 0ddd 06080000 		.4byte	0x806
 2687 0de1 0A000000 		.4byte	.LBB161
 2688 0de5 04000000 		.4byte	.LBE161-.LBB161
 2689 0de9 0F       		.byte	0xf
 2690 0dea 1801     		.2byte	0x118
 2691 0dec 22       		.uleb128 0x22
 2692 0ded 13080000 		.4byte	0x813
 2693 0df1 01       		.uleb128 0x1
 2694 0df2 50       		.byte	0x50
 2695 0df3 00       		.byte	0
 2696 0df4 00       		.byte	0
 2697 0df5 00       		.byte	0
 2698 0df6 37       		.uleb128 0x37
 2699 0df7 72060000 		.4byte	.LASF142
 2700 0dfb 01       		.byte	0x1
 2701 0dfc 2B01     		.2byte	0x12b
 2702 0dfe 00000000 		.4byte	.LFB225
 2703 0e02 1A000000 		.4byte	.LFE225-.LFB225
 2704 0e06 01       		.uleb128 0x1
 2705 0e07 9C       		.byte	0x9c
 2706 0e08 340E0000 		.4byte	0xe34
 2707 0e0c 3B       		.uleb128 0x3b
 2708 0e0d 6F717000 		.ascii	"oqp\000"
 2709 0e11 01       		.byte	0x1
 2710 0e12 2B01     		.2byte	0x12b
 2711 0e14 E0080000 		.4byte	0x8e0
 2712 0e18 A2030000 		.4byte	.LLST22
 2713 0e1c 25       		.uleb128 0x25
 2714 0e1d 1A000000 		.4byte	.LVL40
 2715 0e21 FD110000 		.4byte	0x11fd
 2716 0e25 26       		.uleb128 0x26
 2717 0e26 01       		.uleb128 0x1
 2718 0e27 51       		.byte	0x51
 2719 0e28 02       		.uleb128 0x2
 2720 0e29 09       		.byte	0x9
 2721 0e2a FE       		.byte	0xfe
 2722 0e2b 26       		.uleb128 0x26
 2723 0e2c 01       		.uleb128 0x1
 2724 0e2d 50       		.byte	0x50
ARM GAS  /tmp/ccukX1CL.s 			page 49


 2725 0e2e 03       		.uleb128 0x3
 2726 0e2f F3       		.byte	0xf3
 2727 0e30 01       		.uleb128 0x1
 2728 0e31 50       		.byte	0x50
 2729 0e32 00       		.byte	0
 2730 0e33 00       		.byte	0
 2731 0e34 3C       		.uleb128 0x3c
 2732 0e35 00000000 		.4byte	.LASF143
 2733 0e39 01       		.byte	0x1
 2734 0e3a 4B01     		.2byte	0x14b
 2735 0e3c 15010000 		.4byte	0x115
 2736 0e40 00000000 		.4byte	.LFB226
 2737 0e44 52000000 		.4byte	.LFE226-.LFB226
 2738 0e48 01       		.uleb128 0x1
 2739 0e49 9C       		.byte	0x9c
 2740 0e4a A20F0000 		.4byte	0xfa2
 2741 0e4e 3B       		.uleb128 0x3b
 2742 0e4f 6F717000 		.ascii	"oqp\000"
 2743 0e53 01       		.byte	0x1
 2744 0e54 4B01     		.2byte	0x14b
 2745 0e56 E0080000 		.4byte	0x8e0
 2746 0e5a C3030000 		.4byte	.LLST23
 2747 0e5e 3B       		.uleb128 0x3b
 2748 0e5f 6200     		.ascii	"b\000"
 2749 0e61 01       		.byte	0x1
 2750 0e62 4B01     		.2byte	0x14b
 2751 0e64 A2000000 		.4byte	0xa2
 2752 0e68 F7030000 		.4byte	.LLST24
 2753 0e6c 3A       		.uleb128 0x3a
 2754 0e6d 9B030000 		.4byte	.LASF138
 2755 0e71 01       		.byte	0x1
 2756 0e72 4B01     		.2byte	0x14b
 2757 0e74 36010000 		.4byte	0x136
 2758 0e78 18040000 		.4byte	.LLST25
 2759 0e7c 3D       		.uleb128 0x3d
 2760 0e7d 6B080000 		.4byte	0x86b
 2761 0e81 08000000 		.4byte	.LBB163
 2762 0e85 08000000 		.4byte	.LBE163-.LBB163
 2763 0e89 01       		.byte	0x1
 2764 0e8a 4D01     		.2byte	0x14d
 2765 0e8c B90E0000 		.4byte	0xeb9
 2766 0e90 23       		.uleb128 0x23
 2767 0e91 F4070000 		.4byte	0x7f4
 2768 0e95 08000000 		.4byte	.LBB164
 2769 0e99 08000000 		.4byte	.LBE164-.LBB164
 2770 0e9d 10       		.byte	0x10
 2771 0e9e 5C01     		.2byte	0x15c
 2772 0ea0 23       		.uleb128 0x23
 2773 0ea1 DA070000 		.4byte	0x7da
 2774 0ea5 08000000 		.4byte	.LBB165
 2775 0ea9 08000000 		.4byte	.LBE165-.LBB165
 2776 0ead 0B       		.byte	0xb
 2777 0eae BF01     		.2byte	0x1bf
 2778 0eb0 2D       		.uleb128 0x2d
 2779 0eb1 E7070000 		.4byte	0x7e7
 2780 0eb5 20       		.byte	0x20
 2781 0eb6 00       		.byte	0
ARM GAS  /tmp/ccukX1CL.s 			page 50


 2782 0eb7 00       		.byte	0
 2783 0eb8 00       		.byte	0
 2784 0eb9 2E       		.uleb128 0x2e
 2785 0eba 58000000 		.4byte	.Ldebug_ranges0+0x58
 2786 0ebe 280F0000 		.4byte	0xf28
 2787 0ec2 3E       		.uleb128 0x3e
 2788 0ec3 6D736700 		.ascii	"msg\000"
 2789 0ec7 01       		.byte	0x1
 2790 0ec8 4F01     		.2byte	0x14f
 2791 0eca 15010000 		.4byte	0x115
 2792 0ece 57040000 		.4byte	.LLST26
 2793 0ed2 3D       		.uleb128 0x3d
 2794 0ed3 74080000 		.4byte	0x874
 2795 0ed7 4C000000 		.4byte	.LBB168
 2796 0edb 04000000 		.4byte	.LBE168-.LBB168
 2797 0edf 01       		.byte	0x1
 2798 0ee0 5101     		.2byte	0x151
 2799 0ee2 1E0F0000 		.4byte	0xf1e
 2800 0ee6 30       		.uleb128 0x30
 2801 0ee7 4C000000 		.4byte	.LBB169
 2802 0eeb 04000000 		.4byte	.LBE169-.LBB169
 2803 0eef 31       		.uleb128 0x31
 2804 0ef0 81080000 		.4byte	0x881
 2805 0ef4 23       		.uleb128 0x23
 2806 0ef5 FD070000 		.4byte	0x7fd
 2807 0ef9 4C000000 		.4byte	.LBB170
 2808 0efd 04000000 		.4byte	.LBE170-.LBB170
 2809 0f01 10       		.byte	0x10
 2810 0f02 7301     		.2byte	0x173
 2811 0f04 23       		.uleb128 0x23
 2812 0f05 DA070000 		.4byte	0x7da
 2813 0f09 4C000000 		.4byte	.LBB171
 2814 0f0d 04000000 		.4byte	.LBE171-.LBB171
 2815 0f11 0B       		.byte	0xb
 2816 0f12 CD01     		.2byte	0x1cd
 2817 0f14 2D       		.uleb128 0x2d
 2818 0f15 E7070000 		.4byte	0x7e7
 2819 0f19 00       		.byte	0
 2820 0f1a 00       		.byte	0
 2821 0f1b 00       		.byte	0
 2822 0f1c 00       		.byte	0
 2823 0f1d 00       		.byte	0
 2824 0f1e 32       		.uleb128 0x32
 2825 0f1f 14000000 		.4byte	.LVL43
 2826 0f23 29120000 		.4byte	0x1229
 2827 0f27 00       		.byte	0
 2828 0f28 3D       		.uleb128 0x3d
 2829 0f29 C2080000 		.4byte	0x8c2
 2830 0f2d 18000000 		.4byte	.LBB173
 2831 0f31 02000000 		.4byte	.LBE173-.LBB173
 2832 0f35 01       		.byte	0x1
 2833 0f36 4E01     		.2byte	0x14e
 2834 0f38 460F0000 		.4byte	0xf46
 2835 0f3c 29       		.uleb128 0x29
 2836 0f3d D3080000 		.4byte	0x8d3
 2837 0f41 75040000 		.4byte	.LLST27
 2838 0f45 00       		.byte	0
ARM GAS  /tmp/ccukX1CL.s 			page 51


 2839 0f46 3D       		.uleb128 0x3d
 2840 0f47 74080000 		.4byte	0x874
 2841 0f4b 44000000 		.4byte	.LBB176
 2842 0f4f 06000000 		.4byte	.LBE176-.LBB176
 2843 0f53 01       		.byte	0x1
 2844 0f54 5F01     		.2byte	0x15f
 2845 0f56 950F0000 		.4byte	0xf95
 2846 0f5a 30       		.uleb128 0x30
 2847 0f5b 44000000 		.4byte	.LBB177
 2848 0f5f 06000000 		.4byte	.LBE177-.LBB177
 2849 0f63 31       		.uleb128 0x31
 2850 0f64 81080000 		.4byte	0x881
 2851 0f68 23       		.uleb128 0x23
 2852 0f69 FD070000 		.4byte	0x7fd
 2853 0f6d 44000000 		.4byte	.LBB178
 2854 0f71 06000000 		.4byte	.LBE178-.LBB178
 2855 0f75 10       		.byte	0x10
 2856 0f76 7301     		.2byte	0x173
 2857 0f78 23       		.uleb128 0x23
 2858 0f79 DA070000 		.4byte	0x7da
 2859 0f7d 44000000 		.4byte	.LBB179
 2860 0f81 06000000 		.4byte	.LBE179-.LBB179
 2861 0f85 0B       		.byte	0xb
 2862 0f86 CD01     		.2byte	0x1cd
 2863 0f88 29       		.uleb128 0x29
 2864 0f89 E7070000 		.4byte	0x7e7
 2865 0f8d A9040000 		.4byte	.LLST28
 2866 0f91 00       		.byte	0
 2867 0f92 00       		.byte	0
 2868 0f93 00       		.byte	0
 2869 0f94 00       		.byte	0
 2870 0f95 33       		.uleb128 0x33
 2871 0f96 44000000 		.4byte	.LVL48
 2872 0f9a 26       		.uleb128 0x26
 2873 0f9b 01       		.uleb128 0x1
 2874 0f9c 50       		.byte	0x50
 2875 0f9d 02       		.uleb128 0x2
 2876 0f9e 74       		.byte	0x74
 2877 0f9f 00       		.sleb128 0
 2878 0fa0 00       		.byte	0
 2879 0fa1 00       		.byte	0
 2880 0fa2 3C       		.uleb128 0x3c
 2881 0fa3 A0010000 		.4byte	.LASF144
 2882 0fa7 01       		.byte	0x1
 2883 0fa8 6E01     		.2byte	0x16e
 2884 0faa 15010000 		.4byte	0x115
 2885 0fae 00000000 		.4byte	.LFB227
 2886 0fb2 36000000 		.4byte	.LFE227-.LFB227
 2887 0fb6 01       		.uleb128 0x1
 2888 0fb7 9C       		.byte	0x9c
 2889 0fb8 08100000 		.4byte	0x1008
 2890 0fbc 3B       		.uleb128 0x3b
 2891 0fbd 6F717000 		.ascii	"oqp\000"
 2892 0fc1 01       		.byte	0x1
 2893 0fc2 6E01     		.2byte	0x16e
 2894 0fc4 E0080000 		.4byte	0x8e0
 2895 0fc8 BD040000 		.4byte	.LLST29
ARM GAS  /tmp/ccukX1CL.s 			page 52


 2896 0fcc 3E       		.uleb128 0x3e
 2897 0fcd 6200     		.ascii	"b\000"
 2898 0fcf 01       		.byte	0x1
 2899 0fd0 6F01     		.2byte	0x16f
 2900 0fd2 A2000000 		.4byte	0xa2
 2901 0fd6 F7040000 		.4byte	.LLST30
 2902 0fda 3F       		.uleb128 0x3f
 2903 0fdb E6080000 		.4byte	0x8e6
 2904 0fdf 00000000 		.4byte	.LBB182
 2905 0fe3 78000000 		.4byte	.Ldebug_ranges0+0x78
 2906 0fe7 01       		.byte	0x1
 2907 0fe8 7301     		.2byte	0x173
 2908 0fea F80F0000 		.4byte	0xff8
 2909 0fee 29       		.uleb128 0x29
 2910 0fef F7080000 		.4byte	0x8f7
 2911 0ff3 BD040000 		.4byte	.LLST29
 2912 0ff7 00       		.byte	0
 2913 0ff8 2A       		.uleb128 0x2a
 2914 0ff9 26000000 		.4byte	.LVL54
 2915 0ffd 13120000 		.4byte	0x1213
 2916 1001 26       		.uleb128 0x26
 2917 1002 01       		.uleb128 0x1
 2918 1003 51       		.byte	0x51
 2919 1004 01       		.uleb128 0x1
 2920 1005 30       		.byte	0x30
 2921 1006 00       		.byte	0
 2922 1007 00       		.byte	0
 2923 1008 40       		.uleb128 0x40
 2924 1009 0E040000 		.4byte	.LASF145
 2925 100d 01       		.byte	0x1
 2926 100e 9A01     		.2byte	0x19a
 2927 1010 2C000000 		.4byte	0x2c
 2928 1014 00000000 		.4byte	.LFB228
 2929 1018 86000000 		.4byte	.LFE228-.LFB228
 2930 101c 01       		.uleb128 0x1
 2931 101d 9C       		.byte	0x9c
 2932 101e D1110000 		.4byte	0x11d1
 2933 1022 3B       		.uleb128 0x3b
 2934 1023 6F717000 		.ascii	"oqp\000"
 2935 1027 01       		.byte	0x1
 2936 1028 9A01     		.2byte	0x19a
 2937 102a E0080000 		.4byte	0x8e0
 2938 102e 22050000 		.4byte	.LLST32
 2939 1032 3B       		.uleb128 0x3b
 2940 1033 627000   		.ascii	"bp\000"
 2941 1036 01       		.byte	0x1
 2942 1037 9A01     		.2byte	0x19a
 2943 1039 CF070000 		.4byte	0x7cf
 2944 103d 6C050000 		.4byte	.LLST33
 2945 1041 3B       		.uleb128 0x3b
 2946 1042 6E00     		.ascii	"n\000"
 2947 1044 01       		.byte	0x1
 2948 1045 9B01     		.2byte	0x19b
 2949 1047 2C000000 		.4byte	0x2c
 2950 104b AB050000 		.4byte	.LLST34
 2951 104f 3A       		.uleb128 0x3a
 2952 1050 9B030000 		.4byte	.LASF138
ARM GAS  /tmp/ccukX1CL.s 			page 53


 2953 1054 01       		.byte	0x1
 2954 1055 9B01     		.2byte	0x19b
 2955 1057 36010000 		.4byte	0x136
 2956 105b E1050000 		.4byte	.LLST35
 2957 105f 41       		.uleb128 0x41
 2958 1060 6E667900 		.ascii	"nfy\000"
 2959 1064 01       		.byte	0x1
 2960 1065 9C01     		.2byte	0x19c
 2961 1067 8C070000 		.4byte	0x78c
 2962 106b 01       		.uleb128 0x1
 2963 106c 58       		.byte	0x58
 2964 106d 3E       		.uleb128 0x3e
 2965 106e 7700     		.ascii	"w\000"
 2966 1070 01       		.byte	0x1
 2967 1071 9D01     		.2byte	0x19d
 2968 1073 2C000000 		.4byte	0x2c
 2969 1077 00060000 		.4byte	.LLST36
 2970 107b 35       		.uleb128 0x35
 2971 107c 83050000 		.4byte	.LASF146
 2972 1080 E1110000 		.4byte	0x11e1
 2973 1084 3D       		.uleb128 0x3d
 2974 1085 6B080000 		.4byte	0x86b
 2975 1089 12000000 		.4byte	.LBB188
 2976 108d 08000000 		.4byte	.LBE188-.LBB188
 2977 1091 01       		.byte	0x1
 2978 1092 A101     		.2byte	0x1a1
 2979 1094 C1100000 		.4byte	0x10c1
 2980 1098 23       		.uleb128 0x23
 2981 1099 F4070000 		.4byte	0x7f4
 2982 109d 12000000 		.4byte	.LBB189
 2983 10a1 08000000 		.4byte	.LBE189-.LBB189
 2984 10a5 10       		.byte	0x10
 2985 10a6 5C01     		.2byte	0x15c
 2986 10a8 23       		.uleb128 0x23
 2987 10a9 DA070000 		.4byte	0x7da
 2988 10ad 12000000 		.4byte	.LBB190
 2989 10b1 08000000 		.4byte	.LBE190-.LBB190
 2990 10b5 0B       		.byte	0xb
 2991 10b6 BF01     		.2byte	0x1bf
 2992 10b8 2D       		.uleb128 0x2d
 2993 10b9 E7070000 		.4byte	0x7e7
 2994 10bd 20       		.byte	0x20
 2995 10be 00       		.byte	0
 2996 10bf 00       		.byte	0
 2997 10c0 00       		.byte	0
 2998 10c1 3F       		.uleb128 0x3f
 2999 10c2 74080000 		.4byte	0x874
 3000 10c6 1C000000 		.4byte	.LBB192
 3001 10ca 98000000 		.4byte	.Ldebug_ranges0+0x98
 3002 10ce 01       		.byte	0x1
 3003 10cf B301     		.2byte	0x1b3
 3004 10d1 0C110000 		.4byte	0x110c
 3005 10d5 42       		.uleb128 0x42
 3006 10d6 98000000 		.4byte	.Ldebug_ranges0+0x98
 3007 10da 31       		.uleb128 0x31
 3008 10db 81080000 		.4byte	0x881
 3009 10df 2C       		.uleb128 0x2c
ARM GAS  /tmp/ccukX1CL.s 			page 54


 3010 10e0 FD070000 		.4byte	0x7fd
 3011 10e4 1C000000 		.4byte	.LBB194
 3012 10e8 98000000 		.4byte	.Ldebug_ranges0+0x98
 3013 10ec 10       		.byte	0x10
 3014 10ed 7301     		.2byte	0x173
 3015 10ef 2C       		.uleb128 0x2c
 3016 10f0 DA070000 		.4byte	0x7da
 3017 10f4 1C000000 		.4byte	.LBB195
 3018 10f8 98000000 		.4byte	.Ldebug_ranges0+0x98
 3019 10fc 0B       		.byte	0xb
 3020 10fd CD01     		.2byte	0x1cd
 3021 10ff 29       		.uleb128 0x29
 3022 1100 E7070000 		.4byte	0x7e7
 3023 1104 1F060000 		.4byte	.LLST37
 3024 1108 00       		.byte	0
 3025 1109 00       		.byte	0
 3026 110a 00       		.byte	0
 3027 110b 00       		.byte	0
 3028 110c 3F       		.uleb128 0x3f
 3029 110d C2080000 		.4byte	0x8c2
 3030 1111 1E000000 		.4byte	.LBB201
 3031 1115 B0000000 		.4byte	.Ldebug_ranges0+0xb0
 3032 1119 01       		.byte	0x1
 3033 111a A301     		.2byte	0x1a3
 3034 111c 2A110000 		.4byte	0x112a
 3035 1120 29       		.uleb128 0x29
 3036 1121 D3080000 		.4byte	0x8d3
 3037 1125 33060000 		.4byte	.LLST38
 3038 1129 00       		.byte	0
 3039 112a 3D       		.uleb128 0x3d
 3040 112b 6B080000 		.4byte	0x86b
 3041 112f 58000000 		.4byte	.LBB205
 3042 1133 04000000 		.4byte	.LBE205-.LBB205
 3043 1137 01       		.byte	0x1
 3044 1138 B901     		.2byte	0x1b9
 3045 113a 6A110000 		.4byte	0x116a
 3046 113e 23       		.uleb128 0x23
 3047 113f F4070000 		.4byte	0x7f4
 3048 1143 58000000 		.4byte	.LBB206
 3049 1147 04000000 		.4byte	.LBE206-.LBB206
 3050 114b 10       		.byte	0x10
 3051 114c 5C01     		.2byte	0x15c
 3052 114e 23       		.uleb128 0x23
 3053 114f DA070000 		.4byte	0x7da
 3054 1153 58000000 		.4byte	.LBB207
 3055 1157 04000000 		.4byte	.LBE207-.LBB207
 3056 115b 0B       		.byte	0xb
 3057 115c BF01     		.2byte	0x1bf
 3058 115e 29       		.uleb128 0x29
 3059 115f E7070000 		.4byte	0x7e7
 3060 1163 72060000 		.4byte	.LLST39
 3061 1167 00       		.byte	0
 3062 1168 00       		.byte	0
 3063 1169 00       		.byte	0
 3064 116a 3D       		.uleb128 0x3d
 3065 116b 74080000 		.4byte	0x874
 3066 116f 7A000000 		.4byte	.LBB210
ARM GAS  /tmp/ccukX1CL.s 			page 55


 3067 1173 04000000 		.4byte	.LBE210-.LBB210
 3068 1177 01       		.byte	0x1
 3069 1178 A501     		.2byte	0x1a5
 3070 117a B9110000 		.4byte	0x11b9
 3071 117e 30       		.uleb128 0x30
 3072 117f 7A000000 		.4byte	.LBB211
 3073 1183 04000000 		.4byte	.LBE211-.LBB211
 3074 1187 31       		.uleb128 0x31
 3075 1188 81080000 		.4byte	0x881
 3076 118c 23       		.uleb128 0x23
 3077 118d FD070000 		.4byte	0x7fd
 3078 1191 7A000000 		.4byte	.LBB212
 3079 1195 04000000 		.4byte	.LBE212-.LBB212
 3080 1199 10       		.byte	0x10
 3081 119a 7301     		.2byte	0x173
 3082 119c 23       		.uleb128 0x23
 3083 119d DA070000 		.4byte	0x7da
 3084 11a1 7A000000 		.4byte	.LBB213
 3085 11a5 04000000 		.4byte	.LBE213-.LBB213
 3086 11a9 0B       		.byte	0xb
 3087 11aa CD01     		.2byte	0x1cd
 3088 11ac 29       		.uleb128 0x29
 3089 11ad E7070000 		.4byte	0x7e7
 3090 11b1 87060000 		.4byte	.LLST40
 3091 11b5 00       		.byte	0
 3092 11b6 00       		.byte	0
 3093 11b7 00       		.byte	0
 3094 11b8 00       		.byte	0
 3095 11b9 2A       		.uleb128 0x2a
 3096 11ba 74000000 		.4byte	.LVL70
 3097 11be 29120000 		.4byte	0x1229
 3098 11c2 26       		.uleb128 0x26
 3099 11c3 01       		.uleb128 0x1
 3100 11c4 51       		.byte	0x51
 3101 11c5 03       		.uleb128 0x3
 3102 11c6 91       		.byte	0x91
 3103 11c7 54       		.sleb128 -44
 3104 11c8 06       		.byte	0x6
 3105 11c9 26       		.uleb128 0x26
 3106 11ca 01       		.uleb128 0x1
 3107 11cb 50       		.byte	0x50
 3108 11cc 02       		.uleb128 0x2
 3109 11cd 74       		.byte	0x74
 3110 11ce 00       		.sleb128 0
 3111 11cf 00       		.byte	0
 3112 11d0 00       		.byte	0
 3113 11d1 15       		.uleb128 0x15
 3114 11d2 DC060000 		.4byte	0x6dc
 3115 11d6 E1110000 		.4byte	0x11e1
 3116 11da 16       		.uleb128 0x16
 3117 11db 6F040000 		.4byte	0x46f
 3118 11df 10       		.byte	0x10
 3119 11e0 00       		.byte	0
 3120 11e1 14       		.uleb128 0x14
 3121 11e2 D1110000 		.4byte	0x11d1
 3122 11e6 43       		.uleb128 0x43
 3123 11e7 EE000000 		.4byte	.LASF147
ARM GAS  /tmp/ccukX1CL.s 			page 56


 3124 11eb 11       		.byte	0x11
 3125 11ec A706     		.2byte	0x6a7
 3126 11ee CE000000 		.4byte	0xce
 3127 11f2 44       		.uleb128 0x44
 3128 11f3 636800   		.ascii	"ch\000"
 3129 11f6 02       		.byte	0x2
 3130 11f7 0902     		.2byte	0x209
 3131 11f9 08040000 		.4byte	0x408
 3132 11fd 45       		.uleb128 0x45
 3133 11fe 38000000 		.4byte	.LASF148
 3134 1202 0F       		.byte	0xf
 3135 1203 94       		.byte	0x94
 3136 1204 13120000 		.4byte	0x1213
 3137 1208 0D       		.uleb128 0xd
 3138 1209 20080000 		.4byte	0x820
 3139 120d 0D       		.uleb128 0xd
 3140 120e 15010000 		.4byte	0x115
 3141 1212 00       		.byte	0
 3142 1213 45       		.uleb128 0x45
 3143 1214 CD030000 		.4byte	.LASF149
 3144 1218 0F       		.byte	0xf
 3145 1219 93       		.byte	0x93
 3146 121a 29120000 		.4byte	0x1229
 3147 121e 0D       		.uleb128 0xd
 3148 121f 20080000 		.4byte	0x820
 3149 1223 0D       		.uleb128 0xd
 3150 1224 15010000 		.4byte	0x115
 3151 1228 00       		.byte	0
 3152 1229 46       		.uleb128 0x46
 3153 122a 56070000 		.4byte	.LASF150
 3154 122e 0F       		.byte	0xf
 3155 122f 92       		.byte	0x92
 3156 1230 15010000 		.4byte	0x115
 3157 1234 0D       		.uleb128 0xd
 3158 1235 20080000 		.4byte	0x820
 3159 1239 0D       		.uleb128 0xd
 3160 123a 36010000 		.4byte	0x136
 3161 123e 00       		.byte	0
 3162 123f 00       		.byte	0
 3163              		.section	.debug_abbrev,"",%progbits
 3164              	.Ldebug_abbrev0:
 3165 0000 01       		.uleb128 0x1
 3166 0001 11       		.uleb128 0x11
 3167 0002 01       		.byte	0x1
 3168 0003 25       		.uleb128 0x25
 3169 0004 0E       		.uleb128 0xe
 3170 0005 13       		.uleb128 0x13
 3171 0006 0B       		.uleb128 0xb
 3172 0007 03       		.uleb128 0x3
 3173 0008 0E       		.uleb128 0xe
 3174 0009 1B       		.uleb128 0x1b
 3175 000a 0E       		.uleb128 0xe
 3176 000b 55       		.uleb128 0x55
 3177 000c 17       		.uleb128 0x17
 3178 000d 11       		.uleb128 0x11
 3179 000e 01       		.uleb128 0x1
 3180 000f 10       		.uleb128 0x10
ARM GAS  /tmp/ccukX1CL.s 			page 57


 3181 0010 17       		.uleb128 0x17
 3182 0011 00       		.byte	0
 3183 0012 00       		.byte	0
 3184 0013 02       		.uleb128 0x2
 3185 0014 24       		.uleb128 0x24
 3186 0015 00       		.byte	0
 3187 0016 0B       		.uleb128 0xb
 3188 0017 0B       		.uleb128 0xb
 3189 0018 3E       		.uleb128 0x3e
 3190 0019 0B       		.uleb128 0xb
 3191 001a 03       		.uleb128 0x3
 3192 001b 08       		.uleb128 0x8
 3193 001c 00       		.byte	0
 3194 001d 00       		.byte	0
 3195 001e 03       		.uleb128 0x3
 3196 001f 16       		.uleb128 0x16
 3197 0020 00       		.byte	0
 3198 0021 03       		.uleb128 0x3
 3199 0022 0E       		.uleb128 0xe
 3200 0023 3A       		.uleb128 0x3a
 3201 0024 0B       		.uleb128 0xb
 3202 0025 3B       		.uleb128 0x3b
 3203 0026 0B       		.uleb128 0xb
 3204 0027 49       		.uleb128 0x49
 3205 0028 13       		.uleb128 0x13
 3206 0029 00       		.byte	0
 3207 002a 00       		.byte	0
 3208 002b 04       		.uleb128 0x4
 3209 002c 24       		.uleb128 0x24
 3210 002d 00       		.byte	0
 3211 002e 0B       		.uleb128 0xb
 3212 002f 0B       		.uleb128 0xb
 3213 0030 3E       		.uleb128 0x3e
 3214 0031 0B       		.uleb128 0xb
 3215 0032 03       		.uleb128 0x3
 3216 0033 0E       		.uleb128 0xe
 3217 0034 00       		.byte	0
 3218 0035 00       		.byte	0
 3219 0036 05       		.uleb128 0x5
 3220 0037 35       		.uleb128 0x35
 3221 0038 00       		.byte	0
 3222 0039 49       		.uleb128 0x49
 3223 003a 13       		.uleb128 0x13
 3224 003b 00       		.byte	0
 3225 003c 00       		.byte	0
 3226 003d 06       		.uleb128 0x6
 3227 003e 13       		.uleb128 0x13
 3228 003f 01       		.byte	0x1
 3229 0040 03       		.uleb128 0x3
 3230 0041 0E       		.uleb128 0xe
 3231 0042 0B       		.uleb128 0xb
 3232 0043 0B       		.uleb128 0xb
 3233 0044 3A       		.uleb128 0x3a
 3234 0045 0B       		.uleb128 0xb
 3235 0046 3B       		.uleb128 0x3b
 3236 0047 0B       		.uleb128 0xb
 3237 0048 01       		.uleb128 0x1
ARM GAS  /tmp/ccukX1CL.s 			page 58


 3238 0049 13       		.uleb128 0x13
 3239 004a 00       		.byte	0
 3240 004b 00       		.byte	0
 3241 004c 07       		.uleb128 0x7
 3242 004d 0D       		.uleb128 0xd
 3243 004e 00       		.byte	0
 3244 004f 03       		.uleb128 0x3
 3245 0050 0E       		.uleb128 0xe
 3246 0051 3A       		.uleb128 0x3a
 3247 0052 0B       		.uleb128 0xb
 3248 0053 3B       		.uleb128 0x3b
 3249 0054 0B       		.uleb128 0xb
 3250 0055 49       		.uleb128 0x49
 3251 0056 13       		.uleb128 0x13
 3252 0057 38       		.uleb128 0x38
 3253 0058 0B       		.uleb128 0xb
 3254 0059 00       		.byte	0
 3255 005a 00       		.byte	0
 3256 005b 08       		.uleb128 0x8
 3257 005c 0D       		.uleb128 0xd
 3258 005d 00       		.byte	0
 3259 005e 03       		.uleb128 0x3
 3260 005f 08       		.uleb128 0x8
 3261 0060 3A       		.uleb128 0x3a
 3262 0061 0B       		.uleb128 0xb
 3263 0062 3B       		.uleb128 0x3b
 3264 0063 05       		.uleb128 0x5
 3265 0064 49       		.uleb128 0x49
 3266 0065 13       		.uleb128 0x13
 3267 0066 38       		.uleb128 0x38
 3268 0067 0B       		.uleb128 0xb
 3269 0068 00       		.byte	0
 3270 0069 00       		.byte	0
 3271 006a 09       		.uleb128 0x9
 3272 006b 0D       		.uleb128 0xd
 3273 006c 00       		.byte	0
 3274 006d 03       		.uleb128 0x3
 3275 006e 0E       		.uleb128 0xe
 3276 006f 3A       		.uleb128 0x3a
 3277 0070 0B       		.uleb128 0xb
 3278 0071 3B       		.uleb128 0x3b
 3279 0072 05       		.uleb128 0x5
 3280 0073 49       		.uleb128 0x49
 3281 0074 13       		.uleb128 0x13
 3282 0075 38       		.uleb128 0x38
 3283 0076 0B       		.uleb128 0xb
 3284 0077 00       		.byte	0
 3285 0078 00       		.byte	0
 3286 0079 0A       		.uleb128 0xa
 3287 007a 0F       		.uleb128 0xf
 3288 007b 00       		.byte	0
 3289 007c 0B       		.uleb128 0xb
 3290 007d 0B       		.uleb128 0xb
 3291 007e 49       		.uleb128 0x49
 3292 007f 13       		.uleb128 0x13
 3293 0080 00       		.byte	0
 3294 0081 00       		.byte	0
ARM GAS  /tmp/ccukX1CL.s 			page 59


 3295 0082 0B       		.uleb128 0xb
 3296 0083 13       		.uleb128 0x13
 3297 0084 01       		.byte	0x1
 3298 0085 03       		.uleb128 0x3
 3299 0086 0E       		.uleb128 0xe
 3300 0087 0B       		.uleb128 0xb
 3301 0088 0B       		.uleb128 0xb
 3302 0089 3A       		.uleb128 0x3a
 3303 008a 0B       		.uleb128 0xb
 3304 008b 3B       		.uleb128 0x3b
 3305 008c 05       		.uleb128 0x5
 3306 008d 01       		.uleb128 0x1
 3307 008e 13       		.uleb128 0x13
 3308 008f 00       		.byte	0
 3309 0090 00       		.byte	0
 3310 0091 0C       		.uleb128 0xc
 3311 0092 15       		.uleb128 0x15
 3312 0093 01       		.byte	0x1
 3313 0094 27       		.uleb128 0x27
 3314 0095 19       		.uleb128 0x19
 3315 0096 01       		.uleb128 0x1
 3316 0097 13       		.uleb128 0x13
 3317 0098 00       		.byte	0
 3318 0099 00       		.byte	0
 3319 009a 0D       		.uleb128 0xd
 3320 009b 05       		.uleb128 0x5
 3321 009c 00       		.byte	0
 3322 009d 49       		.uleb128 0x49
 3323 009e 13       		.uleb128 0x13
 3324 009f 00       		.byte	0
 3325 00a0 00       		.byte	0
 3326 00a1 0E       		.uleb128 0xe
 3327 00a2 0F       		.uleb128 0xf
 3328 00a3 00       		.byte	0
 3329 00a4 0B       		.uleb128 0xb
 3330 00a5 0B       		.uleb128 0xb
 3331 00a6 00       		.byte	0
 3332 00a7 00       		.byte	0
 3333 00a8 0F       		.uleb128 0xf
 3334 00a9 13       		.uleb128 0x13
 3335 00aa 01       		.byte	0x1
 3336 00ab 03       		.uleb128 0x3
 3337 00ac 0E       		.uleb128 0xe
 3338 00ad 0B       		.uleb128 0xb
 3339 00ae 05       		.uleb128 0x5
 3340 00af 3A       		.uleb128 0x3a
 3341 00b0 0B       		.uleb128 0xb
 3342 00b1 3B       		.uleb128 0x3b
 3343 00b2 05       		.uleb128 0x5
 3344 00b3 01       		.uleb128 0x1
 3345 00b4 13       		.uleb128 0x13
 3346 00b5 00       		.byte	0
 3347 00b6 00       		.byte	0
 3348 00b7 10       		.uleb128 0x10
 3349 00b8 0D       		.uleb128 0xd
 3350 00b9 00       		.byte	0
 3351 00ba 03       		.uleb128 0x3
ARM GAS  /tmp/ccukX1CL.s 			page 60


 3352 00bb 08       		.uleb128 0x8
 3353 00bc 3A       		.uleb128 0x3a
 3354 00bd 0B       		.uleb128 0xb
 3355 00be 3B       		.uleb128 0x3b
 3356 00bf 0B       		.uleb128 0xb
 3357 00c0 49       		.uleb128 0x49
 3358 00c1 13       		.uleb128 0x13
 3359 00c2 38       		.uleb128 0x38
 3360 00c3 0B       		.uleb128 0xb
 3361 00c4 00       		.byte	0
 3362 00c5 00       		.byte	0
 3363 00c6 11       		.uleb128 0x11
 3364 00c7 13       		.uleb128 0x13
 3365 00c8 01       		.byte	0x1
 3366 00c9 0B       		.uleb128 0xb
 3367 00ca 0B       		.uleb128 0xb
 3368 00cb 3A       		.uleb128 0x3a
 3369 00cc 0B       		.uleb128 0xb
 3370 00cd 3B       		.uleb128 0x3b
 3371 00ce 0B       		.uleb128 0xb
 3372 00cf 01       		.uleb128 0x1
 3373 00d0 13       		.uleb128 0x13
 3374 00d1 00       		.byte	0
 3375 00d2 00       		.byte	0
 3376 00d3 12       		.uleb128 0x12
 3377 00d4 17       		.uleb128 0x17
 3378 00d5 01       		.byte	0x1
 3379 00d6 0B       		.uleb128 0xb
 3380 00d7 0B       		.uleb128 0xb
 3381 00d8 3A       		.uleb128 0x3a
 3382 00d9 0B       		.uleb128 0xb
 3383 00da 3B       		.uleb128 0x3b
 3384 00db 0B       		.uleb128 0xb
 3385 00dc 01       		.uleb128 0x1
 3386 00dd 13       		.uleb128 0x13
 3387 00de 00       		.byte	0
 3388 00df 00       		.byte	0
 3389 00e0 13       		.uleb128 0x13
 3390 00e1 0D       		.uleb128 0xd
 3391 00e2 00       		.byte	0
 3392 00e3 03       		.uleb128 0x3
 3393 00e4 0E       		.uleb128 0xe
 3394 00e5 3A       		.uleb128 0x3a
 3395 00e6 0B       		.uleb128 0xb
 3396 00e7 3B       		.uleb128 0x3b
 3397 00e8 05       		.uleb128 0x5
 3398 00e9 49       		.uleb128 0x49
 3399 00ea 13       		.uleb128 0x13
 3400 00eb 00       		.byte	0
 3401 00ec 00       		.byte	0
 3402 00ed 14       		.uleb128 0x14
 3403 00ee 26       		.uleb128 0x26
 3404 00ef 00       		.byte	0
 3405 00f0 49       		.uleb128 0x49
 3406 00f1 13       		.uleb128 0x13
 3407 00f2 00       		.byte	0
 3408 00f3 00       		.byte	0
ARM GAS  /tmp/ccukX1CL.s 			page 61


 3409 00f4 15       		.uleb128 0x15
 3410 00f5 01       		.uleb128 0x1
 3411 00f6 01       		.byte	0x1
 3412 00f7 49       		.uleb128 0x49
 3413 00f8 13       		.uleb128 0x13
 3414 00f9 01       		.uleb128 0x1
 3415 00fa 13       		.uleb128 0x13
 3416 00fb 00       		.byte	0
 3417 00fc 00       		.byte	0
 3418 00fd 16       		.uleb128 0x16
 3419 00fe 21       		.uleb128 0x21
 3420 00ff 00       		.byte	0
 3421 0100 49       		.uleb128 0x49
 3422 0101 13       		.uleb128 0x13
 3423 0102 2F       		.uleb128 0x2f
 3424 0103 0B       		.uleb128 0xb
 3425 0104 00       		.byte	0
 3426 0105 00       		.byte	0
 3427 0106 17       		.uleb128 0x17
 3428 0107 2E       		.uleb128 0x2e
 3429 0108 01       		.byte	0x1
 3430 0109 03       		.uleb128 0x3
 3431 010a 0E       		.uleb128 0xe
 3432 010b 3A       		.uleb128 0x3a
 3433 010c 0B       		.uleb128 0xb
 3434 010d 3B       		.uleb128 0x3b
 3435 010e 05       		.uleb128 0x5
 3436 010f 27       		.uleb128 0x27
 3437 0110 19       		.uleb128 0x19
 3438 0111 20       		.uleb128 0x20
 3439 0112 0B       		.uleb128 0xb
 3440 0113 01       		.uleb128 0x1
 3441 0114 13       		.uleb128 0x13
 3442 0115 00       		.byte	0
 3443 0116 00       		.byte	0
 3444 0117 18       		.uleb128 0x18
 3445 0118 05       		.uleb128 0x5
 3446 0119 00       		.byte	0
 3447 011a 03       		.uleb128 0x3
 3448 011b 0E       		.uleb128 0xe
 3449 011c 3A       		.uleb128 0x3a
 3450 011d 0B       		.uleb128 0xb
 3451 011e 3B       		.uleb128 0x3b
 3452 011f 05       		.uleb128 0x5
 3453 0120 49       		.uleb128 0x49
 3454 0121 13       		.uleb128 0x13
 3455 0122 00       		.byte	0
 3456 0123 00       		.byte	0
 3457 0124 19       		.uleb128 0x19
 3458 0125 2E       		.uleb128 0x2e
 3459 0126 00       		.byte	0
 3460 0127 03       		.uleb128 0x3
 3461 0128 0E       		.uleb128 0xe
 3462 0129 3A       		.uleb128 0x3a
 3463 012a 0B       		.uleb128 0xb
 3464 012b 3B       		.uleb128 0x3b
 3465 012c 05       		.uleb128 0x5
ARM GAS  /tmp/ccukX1CL.s 			page 62


 3466 012d 27       		.uleb128 0x27
 3467 012e 19       		.uleb128 0x19
 3468 012f 20       		.uleb128 0x20
 3469 0130 0B       		.uleb128 0xb
 3470 0131 00       		.byte	0
 3471 0132 00       		.byte	0
 3472 0133 1A       		.uleb128 0x1a
 3473 0134 05       		.uleb128 0x5
 3474 0135 00       		.byte	0
 3475 0136 03       		.uleb128 0x3
 3476 0137 08       		.uleb128 0x8
 3477 0138 3A       		.uleb128 0x3a
 3478 0139 0B       		.uleb128 0xb
 3479 013a 3B       		.uleb128 0x3b
 3480 013b 05       		.uleb128 0x5
 3481 013c 49       		.uleb128 0x49
 3482 013d 13       		.uleb128 0x13
 3483 013e 00       		.byte	0
 3484 013f 00       		.byte	0
 3485 0140 1B       		.uleb128 0x1b
 3486 0141 2E       		.uleb128 0x2e
 3487 0142 01       		.byte	0x1
 3488 0143 03       		.uleb128 0x3
 3489 0144 0E       		.uleb128 0xe
 3490 0145 3A       		.uleb128 0x3a
 3491 0146 0B       		.uleb128 0xb
 3492 0147 3B       		.uleb128 0x3b
 3493 0148 05       		.uleb128 0x5
 3494 0149 27       		.uleb128 0x27
 3495 014a 19       		.uleb128 0x19
 3496 014b 49       		.uleb128 0x49
 3497 014c 13       		.uleb128 0x13
 3498 014d 20       		.uleb128 0x20
 3499 014e 0B       		.uleb128 0xb
 3500 014f 01       		.uleb128 0x1
 3501 0150 13       		.uleb128 0x13
 3502 0151 00       		.byte	0
 3503 0152 00       		.byte	0
 3504 0153 1C       		.uleb128 0x1c
 3505 0154 34       		.uleb128 0x34
 3506 0155 00       		.byte	0
 3507 0156 03       		.uleb128 0x3
 3508 0157 0E       		.uleb128 0xe
 3509 0158 49       		.uleb128 0x49
 3510 0159 13       		.uleb128 0x13
 3511 015a 34       		.uleb128 0x34
 3512 015b 19       		.uleb128 0x19
 3513 015c 1C       		.uleb128 0x1c
 3514 015d 0E       		.uleb128 0xe
 3515 015e 00       		.byte	0
 3516 015f 00       		.byte	0
 3517 0160 1D       		.uleb128 0x1d
 3518 0161 2E       		.uleb128 0x2e
 3519 0162 01       		.byte	0x1
 3520 0163 3F       		.uleb128 0x3f
 3521 0164 19       		.uleb128 0x19
 3522 0165 03       		.uleb128 0x3
ARM GAS  /tmp/ccukX1CL.s 			page 63


 3523 0166 0E       		.uleb128 0xe
 3524 0167 3A       		.uleb128 0x3a
 3525 0168 0B       		.uleb128 0xb
 3526 0169 3B       		.uleb128 0x3b
 3527 016a 0B       		.uleb128 0xb
 3528 016b 27       		.uleb128 0x27
 3529 016c 19       		.uleb128 0x19
 3530 016d 11       		.uleb128 0x11
 3531 016e 01       		.uleb128 0x1
 3532 016f 12       		.uleb128 0x12
 3533 0170 06       		.uleb128 0x6
 3534 0171 40       		.uleb128 0x40
 3535 0172 18       		.uleb128 0x18
 3536 0173 9742     		.uleb128 0x2117
 3537 0175 19       		.uleb128 0x19
 3538 0176 01       		.uleb128 0x1
 3539 0177 13       		.uleb128 0x13
 3540 0178 00       		.byte	0
 3541 0179 00       		.byte	0
 3542 017a 1E       		.uleb128 0x1e
 3543 017b 05       		.uleb128 0x5
 3544 017c 00       		.byte	0
 3545 017d 03       		.uleb128 0x3
 3546 017e 08       		.uleb128 0x8
 3547 017f 3A       		.uleb128 0x3a
 3548 0180 0B       		.uleb128 0xb
 3549 0181 3B       		.uleb128 0x3b
 3550 0182 0B       		.uleb128 0xb
 3551 0183 49       		.uleb128 0x49
 3552 0184 13       		.uleb128 0x13
 3553 0185 02       		.uleb128 0x2
 3554 0186 18       		.uleb128 0x18
 3555 0187 00       		.byte	0
 3556 0188 00       		.byte	0
 3557 0189 1F       		.uleb128 0x1f
 3558 018a 05       		.uleb128 0x5
 3559 018b 00       		.byte	0
 3560 018c 03       		.uleb128 0x3
 3561 018d 0E       		.uleb128 0xe
 3562 018e 3A       		.uleb128 0x3a
 3563 018f 0B       		.uleb128 0xb
 3564 0190 3B       		.uleb128 0x3b
 3565 0191 0B       		.uleb128 0xb
 3566 0192 49       		.uleb128 0x49
 3567 0193 13       		.uleb128 0x13
 3568 0194 02       		.uleb128 0x2
 3569 0195 17       		.uleb128 0x17
 3570 0196 00       		.byte	0
 3571 0197 00       		.byte	0
 3572 0198 20       		.uleb128 0x20
 3573 0199 05       		.uleb128 0x5
 3574 019a 00       		.byte	0
 3575 019b 03       		.uleb128 0x3
 3576 019c 0E       		.uleb128 0xe
 3577 019d 3A       		.uleb128 0x3a
 3578 019e 0B       		.uleb128 0xb
 3579 019f 3B       		.uleb128 0x3b
ARM GAS  /tmp/ccukX1CL.s 			page 64


 3580 01a0 0B       		.uleb128 0xb
 3581 01a1 49       		.uleb128 0x49
 3582 01a2 13       		.uleb128 0x13
 3583 01a3 02       		.uleb128 0x2
 3584 01a4 18       		.uleb128 0x18
 3585 01a5 00       		.byte	0
 3586 01a6 00       		.byte	0
 3587 01a7 21       		.uleb128 0x21
 3588 01a8 1D       		.uleb128 0x1d
 3589 01a9 01       		.byte	0x1
 3590 01aa 31       		.uleb128 0x31
 3591 01ab 13       		.uleb128 0x13
 3592 01ac 11       		.uleb128 0x11
 3593 01ad 01       		.uleb128 0x1
 3594 01ae 12       		.uleb128 0x12
 3595 01af 06       		.uleb128 0x6
 3596 01b0 58       		.uleb128 0x58
 3597 01b1 0B       		.uleb128 0xb
 3598 01b2 59       		.uleb128 0x59
 3599 01b3 0B       		.uleb128 0xb
 3600 01b4 00       		.byte	0
 3601 01b5 00       		.byte	0
 3602 01b6 22       		.uleb128 0x22
 3603 01b7 05       		.uleb128 0x5
 3604 01b8 00       		.byte	0
 3605 01b9 31       		.uleb128 0x31
 3606 01ba 13       		.uleb128 0x13
 3607 01bb 02       		.uleb128 0x2
 3608 01bc 18       		.uleb128 0x18
 3609 01bd 00       		.byte	0
 3610 01be 00       		.byte	0
 3611 01bf 23       		.uleb128 0x23
 3612 01c0 1D       		.uleb128 0x1d
 3613 01c1 01       		.byte	0x1
 3614 01c2 31       		.uleb128 0x31
 3615 01c3 13       		.uleb128 0x13
 3616 01c4 11       		.uleb128 0x11
 3617 01c5 01       		.uleb128 0x1
 3618 01c6 12       		.uleb128 0x12
 3619 01c7 06       		.uleb128 0x6
 3620 01c8 58       		.uleb128 0x58
 3621 01c9 0B       		.uleb128 0xb
 3622 01ca 59       		.uleb128 0x59
 3623 01cb 05       		.uleb128 0x5
 3624 01cc 00       		.byte	0
 3625 01cd 00       		.byte	0
 3626 01ce 24       		.uleb128 0x24
 3627 01cf 05       		.uleb128 0x5
 3628 01d0 00       		.byte	0
 3629 01d1 03       		.uleb128 0x3
 3630 01d2 08       		.uleb128 0x8
 3631 01d3 3A       		.uleb128 0x3a
 3632 01d4 0B       		.uleb128 0xb
 3633 01d5 3B       		.uleb128 0x3b
 3634 01d6 0B       		.uleb128 0xb
 3635 01d7 49       		.uleb128 0x49
 3636 01d8 13       		.uleb128 0x13
ARM GAS  /tmp/ccukX1CL.s 			page 65


 3637 01d9 02       		.uleb128 0x2
 3638 01da 17       		.uleb128 0x17
 3639 01db 00       		.byte	0
 3640 01dc 00       		.byte	0
 3641 01dd 25       		.uleb128 0x25
 3642 01de 898201   		.uleb128 0x4109
 3643 01e1 01       		.byte	0x1
 3644 01e2 11       		.uleb128 0x11
 3645 01e3 01       		.uleb128 0x1
 3646 01e4 9542     		.uleb128 0x2115
 3647 01e6 19       		.uleb128 0x19
 3648 01e7 31       		.uleb128 0x31
 3649 01e8 13       		.uleb128 0x13
 3650 01e9 00       		.byte	0
 3651 01ea 00       		.byte	0
 3652 01eb 26       		.uleb128 0x26
 3653 01ec 8A8201   		.uleb128 0x410a
 3654 01ef 00       		.byte	0
 3655 01f0 02       		.uleb128 0x2
 3656 01f1 18       		.uleb128 0x18
 3657 01f2 9142     		.uleb128 0x2111
 3658 01f4 18       		.uleb128 0x18
 3659 01f5 00       		.byte	0
 3660 01f6 00       		.byte	0
 3661 01f7 27       		.uleb128 0x27
 3662 01f8 2E       		.uleb128 0x2e
 3663 01f9 01       		.byte	0x1
 3664 01fa 3F       		.uleb128 0x3f
 3665 01fb 19       		.uleb128 0x19
 3666 01fc 03       		.uleb128 0x3
 3667 01fd 0E       		.uleb128 0xe
 3668 01fe 3A       		.uleb128 0x3a
 3669 01ff 0B       		.uleb128 0xb
 3670 0200 3B       		.uleb128 0x3b
 3671 0201 0B       		.uleb128 0xb
 3672 0202 27       		.uleb128 0x27
 3673 0203 19       		.uleb128 0x19
 3674 0204 49       		.uleb128 0x49
 3675 0205 13       		.uleb128 0x13
 3676 0206 11       		.uleb128 0x11
 3677 0207 01       		.uleb128 0x1
 3678 0208 12       		.uleb128 0x12
 3679 0209 06       		.uleb128 0x6
 3680 020a 40       		.uleb128 0x40
 3681 020b 18       		.uleb128 0x18
 3682 020c 9742     		.uleb128 0x2117
 3683 020e 19       		.uleb128 0x19
 3684 020f 01       		.uleb128 0x1
 3685 0210 13       		.uleb128 0x13
 3686 0211 00       		.byte	0
 3687 0212 00       		.byte	0
 3688 0213 28       		.uleb128 0x28
 3689 0214 1D       		.uleb128 0x1d
 3690 0215 01       		.byte	0x1
 3691 0216 31       		.uleb128 0x31
 3692 0217 13       		.uleb128 0x13
 3693 0218 52       		.uleb128 0x52
ARM GAS  /tmp/ccukX1CL.s 			page 66


 3694 0219 01       		.uleb128 0x1
 3695 021a 55       		.uleb128 0x55
 3696 021b 17       		.uleb128 0x17
 3697 021c 58       		.uleb128 0x58
 3698 021d 0B       		.uleb128 0xb
 3699 021e 59       		.uleb128 0x59
 3700 021f 0B       		.uleb128 0xb
 3701 0220 01       		.uleb128 0x1
 3702 0221 13       		.uleb128 0x13
 3703 0222 00       		.byte	0
 3704 0223 00       		.byte	0
 3705 0224 29       		.uleb128 0x29
 3706 0225 05       		.uleb128 0x5
 3707 0226 00       		.byte	0
 3708 0227 31       		.uleb128 0x31
 3709 0228 13       		.uleb128 0x13
 3710 0229 02       		.uleb128 0x2
 3711 022a 17       		.uleb128 0x17
 3712 022b 00       		.byte	0
 3713 022c 00       		.byte	0
 3714 022d 2A       		.uleb128 0x2a
 3715 022e 898201   		.uleb128 0x4109
 3716 0231 01       		.byte	0x1
 3717 0232 11       		.uleb128 0x11
 3718 0233 01       		.uleb128 0x1
 3719 0234 31       		.uleb128 0x31
 3720 0235 13       		.uleb128 0x13
 3721 0236 00       		.byte	0
 3722 0237 00       		.byte	0
 3723 0238 2B       		.uleb128 0x2b
 3724 0239 34       		.uleb128 0x34
 3725 023a 00       		.byte	0
 3726 023b 03       		.uleb128 0x3
 3727 023c 08       		.uleb128 0x8
 3728 023d 3A       		.uleb128 0x3a
 3729 023e 0B       		.uleb128 0xb
 3730 023f 3B       		.uleb128 0x3b
 3731 0240 0B       		.uleb128 0xb
 3732 0241 49       		.uleb128 0x49
 3733 0242 13       		.uleb128 0x13
 3734 0243 02       		.uleb128 0x2
 3735 0244 17       		.uleb128 0x17
 3736 0245 00       		.byte	0
 3737 0246 00       		.byte	0
 3738 0247 2C       		.uleb128 0x2c
 3739 0248 1D       		.uleb128 0x1d
 3740 0249 01       		.byte	0x1
 3741 024a 31       		.uleb128 0x31
 3742 024b 13       		.uleb128 0x13
 3743 024c 52       		.uleb128 0x52
 3744 024d 01       		.uleb128 0x1
 3745 024e 55       		.uleb128 0x55
 3746 024f 17       		.uleb128 0x17
 3747 0250 58       		.uleb128 0x58
 3748 0251 0B       		.uleb128 0xb
 3749 0252 59       		.uleb128 0x59
 3750 0253 05       		.uleb128 0x5
ARM GAS  /tmp/ccukX1CL.s 			page 67


 3751 0254 00       		.byte	0
 3752 0255 00       		.byte	0
 3753 0256 2D       		.uleb128 0x2d
 3754 0257 05       		.uleb128 0x5
 3755 0258 00       		.byte	0
 3756 0259 31       		.uleb128 0x31
 3757 025a 13       		.uleb128 0x13
 3758 025b 1C       		.uleb128 0x1c
 3759 025c 0B       		.uleb128 0xb
 3760 025d 00       		.byte	0
 3761 025e 00       		.byte	0
 3762 025f 2E       		.uleb128 0x2e
 3763 0260 0B       		.uleb128 0xb
 3764 0261 01       		.byte	0x1
 3765 0262 55       		.uleb128 0x55
 3766 0263 17       		.uleb128 0x17
 3767 0264 01       		.uleb128 0x1
 3768 0265 13       		.uleb128 0x13
 3769 0266 00       		.byte	0
 3770 0267 00       		.byte	0
 3771 0268 2F       		.uleb128 0x2f
 3772 0269 1D       		.uleb128 0x1d
 3773 026a 01       		.byte	0x1
 3774 026b 31       		.uleb128 0x31
 3775 026c 13       		.uleb128 0x13
 3776 026d 11       		.uleb128 0x11
 3777 026e 01       		.uleb128 0x1
 3778 026f 12       		.uleb128 0x12
 3779 0270 06       		.uleb128 0x6
 3780 0271 58       		.uleb128 0x58
 3781 0272 0B       		.uleb128 0xb
 3782 0273 59       		.uleb128 0x59
 3783 0274 0B       		.uleb128 0xb
 3784 0275 01       		.uleb128 0x1
 3785 0276 13       		.uleb128 0x13
 3786 0277 00       		.byte	0
 3787 0278 00       		.byte	0
 3788 0279 30       		.uleb128 0x30
 3789 027a 0B       		.uleb128 0xb
 3790 027b 01       		.byte	0x1
 3791 027c 11       		.uleb128 0x11
 3792 027d 01       		.uleb128 0x1
 3793 027e 12       		.uleb128 0x12
 3794 027f 06       		.uleb128 0x6
 3795 0280 00       		.byte	0
 3796 0281 00       		.byte	0
 3797 0282 31       		.uleb128 0x31
 3798 0283 34       		.uleb128 0x34
 3799 0284 00       		.byte	0
 3800 0285 31       		.uleb128 0x31
 3801 0286 13       		.uleb128 0x13
 3802 0287 00       		.byte	0
 3803 0288 00       		.byte	0
 3804 0289 32       		.uleb128 0x32
 3805 028a 898201   		.uleb128 0x4109
 3806 028d 00       		.byte	0
 3807 028e 11       		.uleb128 0x11
ARM GAS  /tmp/ccukX1CL.s 			page 68


 3808 028f 01       		.uleb128 0x1
 3809 0290 31       		.uleb128 0x31
 3810 0291 13       		.uleb128 0x13
 3811 0292 00       		.byte	0
 3812 0293 00       		.byte	0
 3813 0294 33       		.uleb128 0x33
 3814 0295 898201   		.uleb128 0x4109
 3815 0298 01       		.byte	0x1
 3816 0299 11       		.uleb128 0x11
 3817 029a 01       		.uleb128 0x1
 3818 029b 00       		.byte	0
 3819 029c 00       		.byte	0
 3820 029d 34       		.uleb128 0x34
 3821 029e 34       		.uleb128 0x34
 3822 029f 00       		.byte	0
 3823 02a0 03       		.uleb128 0x3
 3824 02a1 08       		.uleb128 0x8
 3825 02a2 3A       		.uleb128 0x3a
 3826 02a3 0B       		.uleb128 0xb
 3827 02a4 3B       		.uleb128 0x3b
 3828 02a5 0B       		.uleb128 0xb
 3829 02a6 49       		.uleb128 0x49
 3830 02a7 13       		.uleb128 0x13
 3831 02a8 02       		.uleb128 0x2
 3832 02a9 18       		.uleb128 0x18
 3833 02aa 00       		.byte	0
 3834 02ab 00       		.byte	0
 3835 02ac 35       		.uleb128 0x35
 3836 02ad 34       		.uleb128 0x34
 3837 02ae 00       		.byte	0
 3838 02af 03       		.uleb128 0x3
 3839 02b0 0E       		.uleb128 0xe
 3840 02b1 49       		.uleb128 0x49
 3841 02b2 13       		.uleb128 0x13
 3842 02b3 34       		.uleb128 0x34
 3843 02b4 19       		.uleb128 0x19
 3844 02b5 00       		.byte	0
 3845 02b6 00       		.byte	0
 3846 02b7 36       		.uleb128 0x36
 3847 02b8 898201   		.uleb128 0x4109
 3848 02bb 01       		.byte	0x1
 3849 02bc 11       		.uleb128 0x11
 3850 02bd 01       		.uleb128 0x1
 3851 02be 01       		.uleb128 0x1
 3852 02bf 13       		.uleb128 0x13
 3853 02c0 00       		.byte	0
 3854 02c1 00       		.byte	0
 3855 02c2 37       		.uleb128 0x37
 3856 02c3 2E       		.uleb128 0x2e
 3857 02c4 01       		.byte	0x1
 3858 02c5 3F       		.uleb128 0x3f
 3859 02c6 19       		.uleb128 0x19
 3860 02c7 03       		.uleb128 0x3
 3861 02c8 0E       		.uleb128 0xe
 3862 02c9 3A       		.uleb128 0x3a
 3863 02ca 0B       		.uleb128 0xb
 3864 02cb 3B       		.uleb128 0x3b
ARM GAS  /tmp/ccukX1CL.s 			page 69


 3865 02cc 05       		.uleb128 0x5
 3866 02cd 27       		.uleb128 0x27
 3867 02ce 19       		.uleb128 0x19
 3868 02cf 11       		.uleb128 0x11
 3869 02d0 01       		.uleb128 0x1
 3870 02d1 12       		.uleb128 0x12
 3871 02d2 06       		.uleb128 0x6
 3872 02d3 40       		.uleb128 0x40
 3873 02d4 18       		.uleb128 0x18
 3874 02d5 9742     		.uleb128 0x2117
 3875 02d7 19       		.uleb128 0x19
 3876 02d8 01       		.uleb128 0x1
 3877 02d9 13       		.uleb128 0x13
 3878 02da 00       		.byte	0
 3879 02db 00       		.byte	0
 3880 02dc 38       		.uleb128 0x38
 3881 02dd 05       		.uleb128 0x5
 3882 02de 00       		.byte	0
 3883 02df 03       		.uleb128 0x3
 3884 02e0 08       		.uleb128 0x8
 3885 02e1 3A       		.uleb128 0x3a
 3886 02e2 0B       		.uleb128 0xb
 3887 02e3 3B       		.uleb128 0x3b
 3888 02e4 05       		.uleb128 0x5
 3889 02e5 49       		.uleb128 0x49
 3890 02e6 13       		.uleb128 0x13
 3891 02e7 02       		.uleb128 0x2
 3892 02e8 18       		.uleb128 0x18
 3893 02e9 00       		.byte	0
 3894 02ea 00       		.byte	0
 3895 02eb 39       		.uleb128 0x39
 3896 02ec 05       		.uleb128 0x5
 3897 02ed 00       		.byte	0
 3898 02ee 03       		.uleb128 0x3
 3899 02ef 0E       		.uleb128 0xe
 3900 02f0 3A       		.uleb128 0x3a
 3901 02f1 0B       		.uleb128 0xb
 3902 02f2 3B       		.uleb128 0x3b
 3903 02f3 05       		.uleb128 0x5
 3904 02f4 49       		.uleb128 0x49
 3905 02f5 13       		.uleb128 0x13
 3906 02f6 02       		.uleb128 0x2
 3907 02f7 18       		.uleb128 0x18
 3908 02f8 00       		.byte	0
 3909 02f9 00       		.byte	0
 3910 02fa 3A       		.uleb128 0x3a
 3911 02fb 05       		.uleb128 0x5
 3912 02fc 00       		.byte	0
 3913 02fd 03       		.uleb128 0x3
 3914 02fe 0E       		.uleb128 0xe
 3915 02ff 3A       		.uleb128 0x3a
 3916 0300 0B       		.uleb128 0xb
 3917 0301 3B       		.uleb128 0x3b
 3918 0302 05       		.uleb128 0x5
 3919 0303 49       		.uleb128 0x49
 3920 0304 13       		.uleb128 0x13
 3921 0305 02       		.uleb128 0x2
ARM GAS  /tmp/ccukX1CL.s 			page 70


 3922 0306 17       		.uleb128 0x17
 3923 0307 00       		.byte	0
 3924 0308 00       		.byte	0
 3925 0309 3B       		.uleb128 0x3b
 3926 030a 05       		.uleb128 0x5
 3927 030b 00       		.byte	0
 3928 030c 03       		.uleb128 0x3
 3929 030d 08       		.uleb128 0x8
 3930 030e 3A       		.uleb128 0x3a
 3931 030f 0B       		.uleb128 0xb
 3932 0310 3B       		.uleb128 0x3b
 3933 0311 05       		.uleb128 0x5
 3934 0312 49       		.uleb128 0x49
 3935 0313 13       		.uleb128 0x13
 3936 0314 02       		.uleb128 0x2
 3937 0315 17       		.uleb128 0x17
 3938 0316 00       		.byte	0
 3939 0317 00       		.byte	0
 3940 0318 3C       		.uleb128 0x3c
 3941 0319 2E       		.uleb128 0x2e
 3942 031a 01       		.byte	0x1
 3943 031b 3F       		.uleb128 0x3f
 3944 031c 19       		.uleb128 0x19
 3945 031d 03       		.uleb128 0x3
 3946 031e 0E       		.uleb128 0xe
 3947 031f 3A       		.uleb128 0x3a
 3948 0320 0B       		.uleb128 0xb
 3949 0321 3B       		.uleb128 0x3b
 3950 0322 05       		.uleb128 0x5
 3951 0323 27       		.uleb128 0x27
 3952 0324 19       		.uleb128 0x19
 3953 0325 49       		.uleb128 0x49
 3954 0326 13       		.uleb128 0x13
 3955 0327 11       		.uleb128 0x11
 3956 0328 01       		.uleb128 0x1
 3957 0329 12       		.uleb128 0x12
 3958 032a 06       		.uleb128 0x6
 3959 032b 40       		.uleb128 0x40
 3960 032c 18       		.uleb128 0x18
 3961 032d 9742     		.uleb128 0x2117
 3962 032f 19       		.uleb128 0x19
 3963 0330 01       		.uleb128 0x1
 3964 0331 13       		.uleb128 0x13
 3965 0332 00       		.byte	0
 3966 0333 00       		.byte	0
 3967 0334 3D       		.uleb128 0x3d
 3968 0335 1D       		.uleb128 0x1d
 3969 0336 01       		.byte	0x1
 3970 0337 31       		.uleb128 0x31
 3971 0338 13       		.uleb128 0x13
 3972 0339 11       		.uleb128 0x11
 3973 033a 01       		.uleb128 0x1
 3974 033b 12       		.uleb128 0x12
 3975 033c 06       		.uleb128 0x6
 3976 033d 58       		.uleb128 0x58
 3977 033e 0B       		.uleb128 0xb
 3978 033f 59       		.uleb128 0x59
ARM GAS  /tmp/ccukX1CL.s 			page 71


 3979 0340 05       		.uleb128 0x5
 3980 0341 01       		.uleb128 0x1
 3981 0342 13       		.uleb128 0x13
 3982 0343 00       		.byte	0
 3983 0344 00       		.byte	0
 3984 0345 3E       		.uleb128 0x3e
 3985 0346 34       		.uleb128 0x34
 3986 0347 00       		.byte	0
 3987 0348 03       		.uleb128 0x3
 3988 0349 08       		.uleb128 0x8
 3989 034a 3A       		.uleb128 0x3a
 3990 034b 0B       		.uleb128 0xb
 3991 034c 3B       		.uleb128 0x3b
 3992 034d 05       		.uleb128 0x5
 3993 034e 49       		.uleb128 0x49
 3994 034f 13       		.uleb128 0x13
 3995 0350 02       		.uleb128 0x2
 3996 0351 17       		.uleb128 0x17
 3997 0352 00       		.byte	0
 3998 0353 00       		.byte	0
 3999 0354 3F       		.uleb128 0x3f
 4000 0355 1D       		.uleb128 0x1d
 4001 0356 01       		.byte	0x1
 4002 0357 31       		.uleb128 0x31
 4003 0358 13       		.uleb128 0x13
 4004 0359 52       		.uleb128 0x52
 4005 035a 01       		.uleb128 0x1
 4006 035b 55       		.uleb128 0x55
 4007 035c 17       		.uleb128 0x17
 4008 035d 58       		.uleb128 0x58
 4009 035e 0B       		.uleb128 0xb
 4010 035f 59       		.uleb128 0x59
 4011 0360 05       		.uleb128 0x5
 4012 0361 01       		.uleb128 0x1
 4013 0362 13       		.uleb128 0x13
 4014 0363 00       		.byte	0
 4015 0364 00       		.byte	0
 4016 0365 40       		.uleb128 0x40
 4017 0366 2E       		.uleb128 0x2e
 4018 0367 01       		.byte	0x1
 4019 0368 3F       		.uleb128 0x3f
 4020 0369 19       		.uleb128 0x19
 4021 036a 03       		.uleb128 0x3
 4022 036b 0E       		.uleb128 0xe
 4023 036c 3A       		.uleb128 0x3a
 4024 036d 0B       		.uleb128 0xb
 4025 036e 3B       		.uleb128 0x3b
 4026 036f 05       		.uleb128 0x5
 4027 0370 27       		.uleb128 0x27
 4028 0371 19       		.uleb128 0x19
 4029 0372 49       		.uleb128 0x49
 4030 0373 13       		.uleb128 0x13
 4031 0374 11       		.uleb128 0x11
 4032 0375 01       		.uleb128 0x1
 4033 0376 12       		.uleb128 0x12
 4034 0377 06       		.uleb128 0x6
 4035 0378 40       		.uleb128 0x40
ARM GAS  /tmp/ccukX1CL.s 			page 72


 4036 0379 18       		.uleb128 0x18
 4037 037a 9642     		.uleb128 0x2116
 4038 037c 19       		.uleb128 0x19
 4039 037d 01       		.uleb128 0x1
 4040 037e 13       		.uleb128 0x13
 4041 037f 00       		.byte	0
 4042 0380 00       		.byte	0
 4043 0381 41       		.uleb128 0x41
 4044 0382 34       		.uleb128 0x34
 4045 0383 00       		.byte	0
 4046 0384 03       		.uleb128 0x3
 4047 0385 08       		.uleb128 0x8
 4048 0386 3A       		.uleb128 0x3a
 4049 0387 0B       		.uleb128 0xb
 4050 0388 3B       		.uleb128 0x3b
 4051 0389 05       		.uleb128 0x5
 4052 038a 49       		.uleb128 0x49
 4053 038b 13       		.uleb128 0x13
 4054 038c 02       		.uleb128 0x2
 4055 038d 18       		.uleb128 0x18
 4056 038e 00       		.byte	0
 4057 038f 00       		.byte	0
 4058 0390 42       		.uleb128 0x42
 4059 0391 0B       		.uleb128 0xb
 4060 0392 01       		.byte	0x1
 4061 0393 55       		.uleb128 0x55
 4062 0394 17       		.uleb128 0x17
 4063 0395 00       		.byte	0
 4064 0396 00       		.byte	0
 4065 0397 43       		.uleb128 0x43
 4066 0398 34       		.uleb128 0x34
 4067 0399 00       		.byte	0
 4068 039a 03       		.uleb128 0x3
 4069 039b 0E       		.uleb128 0xe
 4070 039c 3A       		.uleb128 0x3a
 4071 039d 0B       		.uleb128 0xb
 4072 039e 3B       		.uleb128 0x3b
 4073 039f 05       		.uleb128 0x5
 4074 03a0 49       		.uleb128 0x49
 4075 03a1 13       		.uleb128 0x13
 4076 03a2 3F       		.uleb128 0x3f
 4077 03a3 19       		.uleb128 0x19
 4078 03a4 3C       		.uleb128 0x3c
 4079 03a5 19       		.uleb128 0x19
 4080 03a6 00       		.byte	0
 4081 03a7 00       		.byte	0
 4082 03a8 44       		.uleb128 0x44
 4083 03a9 34       		.uleb128 0x34
 4084 03aa 00       		.byte	0
 4085 03ab 03       		.uleb128 0x3
 4086 03ac 08       		.uleb128 0x8
 4087 03ad 3A       		.uleb128 0x3a
 4088 03ae 0B       		.uleb128 0xb
 4089 03af 3B       		.uleb128 0x3b
 4090 03b0 05       		.uleb128 0x5
 4091 03b1 49       		.uleb128 0x49
 4092 03b2 13       		.uleb128 0x13
ARM GAS  /tmp/ccukX1CL.s 			page 73


 4093 03b3 3F       		.uleb128 0x3f
 4094 03b4 19       		.uleb128 0x19
 4095 03b5 3C       		.uleb128 0x3c
 4096 03b6 19       		.uleb128 0x19
 4097 03b7 00       		.byte	0
 4098 03b8 00       		.byte	0
 4099 03b9 45       		.uleb128 0x45
 4100 03ba 2E       		.uleb128 0x2e
 4101 03bb 01       		.byte	0x1
 4102 03bc 3F       		.uleb128 0x3f
 4103 03bd 19       		.uleb128 0x19
 4104 03be 03       		.uleb128 0x3
 4105 03bf 0E       		.uleb128 0xe
 4106 03c0 3A       		.uleb128 0x3a
 4107 03c1 0B       		.uleb128 0xb
 4108 03c2 3B       		.uleb128 0x3b
 4109 03c3 0B       		.uleb128 0xb
 4110 03c4 27       		.uleb128 0x27
 4111 03c5 19       		.uleb128 0x19
 4112 03c6 3C       		.uleb128 0x3c
 4113 03c7 19       		.uleb128 0x19
 4114 03c8 01       		.uleb128 0x1
 4115 03c9 13       		.uleb128 0x13
 4116 03ca 00       		.byte	0
 4117 03cb 00       		.byte	0
 4118 03cc 46       		.uleb128 0x46
 4119 03cd 2E       		.uleb128 0x2e
 4120 03ce 01       		.byte	0x1
 4121 03cf 3F       		.uleb128 0x3f
 4122 03d0 19       		.uleb128 0x19
 4123 03d1 03       		.uleb128 0x3
 4124 03d2 0E       		.uleb128 0xe
 4125 03d3 3A       		.uleb128 0x3a
 4126 03d4 0B       		.uleb128 0xb
 4127 03d5 3B       		.uleb128 0x3b
 4128 03d6 0B       		.uleb128 0xb
 4129 03d7 27       		.uleb128 0x27
 4130 03d8 19       		.uleb128 0x19
 4131 03d9 49       		.uleb128 0x49
 4132 03da 13       		.uleb128 0x13
 4133 03db 3C       		.uleb128 0x3c
 4134 03dc 19       		.uleb128 0x19
 4135 03dd 00       		.byte	0
 4136 03de 00       		.byte	0
 4137 03df 00       		.byte	0
 4138              		.section	.debug_loc,"",%progbits
 4139              	.Ldebug_loc0:
 4140              	.LLST0:
 4141 0000 00000000 		.4byte	.LVL0
 4142 0004 0A000000 		.4byte	.LVL1
 4143 0008 0100     		.2byte	0x1
 4144 000a 52       		.byte	0x52
 4145 000b 0A000000 		.4byte	.LVL1
 4146 000f 1E000000 		.4byte	.LFE219
 4147 0013 0400     		.2byte	0x4
 4148 0015 F3       		.byte	0xf3
 4149 0016 01       		.uleb128 0x1
ARM GAS  /tmp/ccukX1CL.s 			page 74


 4150 0017 52       		.byte	0x52
 4151 0018 9F       		.byte	0x9f
 4152 0019 00000000 		.4byte	0
 4153 001d 00000000 		.4byte	0
 4154              	.LLST1:
 4155 0021 00000000 		.4byte	.LVL0
 4156 0025 1C000000 		.4byte	.LVL2
 4157 0029 0200     		.2byte	0x2
 4158 002b 91       		.byte	0x91
 4159 002c 00       		.sleb128 0
 4160 002d 1C000000 		.4byte	.LVL2
 4161 0031 1E000000 		.4byte	.LFE219
 4162 0035 0200     		.2byte	0x2
 4163 0037 7D       		.byte	0x7d
 4164 0038 00       		.sleb128 0
 4165 0039 00000000 		.4byte	0
 4166 003d 00000000 		.4byte	0
 4167              	.LLST2:
 4168 0041 00000000 		.4byte	.LVL3
 4169 0045 11000000 		.4byte	.LVL4-1
 4170 0049 0100     		.2byte	0x1
 4171 004b 50       		.byte	0x50
 4172 004c 11000000 		.4byte	.LVL4-1
 4173 0050 12000000 		.4byte	.LFE220
 4174 0054 0400     		.2byte	0x4
 4175 0056 F3       		.byte	0xf3
 4176 0057 01       		.uleb128 0x1
 4177 0058 50       		.byte	0x50
 4178 0059 9F       		.byte	0x9f
 4179 005a 00000000 		.4byte	0
 4180 005e 00000000 		.4byte	0
 4181              	.LLST3:
 4182 0062 00000000 		.4byte	.LVL5
 4183 0066 27000000 		.4byte	.LVL7-1
 4184 006a 0100     		.2byte	0x1
 4185 006c 50       		.byte	0x50
 4186 006d 27000000 		.4byte	.LVL7-1
 4187 0071 2C000000 		.4byte	.LVL8
 4188 0075 0400     		.2byte	0x4
 4189 0077 F3       		.byte	0xf3
 4190 0078 01       		.uleb128 0x1
 4191 0079 50       		.byte	0x50
 4192 007a 9F       		.byte	0x9f
 4193 007b 2C000000 		.4byte	.LVL8
 4194 007f 36000000 		.4byte	.LVL9
 4195 0083 0100     		.2byte	0x1
 4196 0085 50       		.byte	0x50
 4197 0086 36000000 		.4byte	.LVL9
 4198 008a 38000000 		.4byte	.LFE221
 4199 008e 0400     		.2byte	0x4
 4200 0090 F3       		.byte	0xf3
 4201 0091 01       		.uleb128 0x1
 4202 0092 50       		.byte	0x50
 4203 0093 9F       		.byte	0x9f
 4204 0094 00000000 		.4byte	0
 4205 0098 00000000 		.4byte	0
 4206              	.LLST4:
ARM GAS  /tmp/ccukX1CL.s 			page 75


 4207 009c 00000000 		.4byte	.LVL5
 4208 00a0 24000000 		.4byte	.LVL6
 4209 00a4 0100     		.2byte	0x1
 4210 00a6 51       		.byte	0x51
 4211 00a7 24000000 		.4byte	.LVL6
 4212 00ab 2C000000 		.4byte	.LVL8
 4213 00af 0400     		.2byte	0x4
 4214 00b1 F3       		.byte	0xf3
 4215 00b2 01       		.uleb128 0x1
 4216 00b3 51       		.byte	0x51
 4217 00b4 9F       		.byte	0x9f
 4218 00b5 2C000000 		.4byte	.LVL8
 4219 00b9 38000000 		.4byte	.LFE221
 4220 00bd 0100     		.2byte	0x1
 4221 00bf 51       		.byte	0x51
 4222 00c0 00000000 		.4byte	0
 4223 00c4 00000000 		.4byte	0
 4224              	.LLST6:
 4225 00c8 00000000 		.4byte	.LVL10
 4226 00cc 11000000 		.4byte	.LVL11-1
 4227 00d0 0100     		.2byte	0x1
 4228 00d2 50       		.byte	0x50
 4229 00d3 11000000 		.4byte	.LVL11-1
 4230 00d7 14000000 		.4byte	.LVL12
 4231 00db 0100     		.2byte	0x1
 4232 00dd 54       		.byte	0x54
 4233 00de 14000000 		.4byte	.LVL12
 4234 00e2 17000000 		.4byte	.LVL13-1
 4235 00e6 0100     		.2byte	0x1
 4236 00e8 50       		.byte	0x50
 4237 00e9 17000000 		.4byte	.LVL13-1
 4238 00ed 26000000 		.4byte	.LVL15
 4239 00f1 0100     		.2byte	0x1
 4240 00f3 54       		.byte	0x54
 4241 00f4 26000000 		.4byte	.LVL15
 4242 00f8 2A000000 		.4byte	.LVL16
 4243 00fc 0100     		.2byte	0x1
 4244 00fe 50       		.byte	0x50
 4245 00ff 2A000000 		.4byte	.LVL16
 4246 0103 50000000 		.4byte	.LFE222
 4247 0107 0100     		.2byte	0x1
 4248 0109 54       		.byte	0x54
 4249 010a 00000000 		.4byte	0
 4250 010e 00000000 		.4byte	0
 4251              	.LLST7:
 4252 0112 00000000 		.4byte	.LVL10
 4253 0116 11000000 		.4byte	.LVL11-1
 4254 011a 0100     		.2byte	0x1
 4255 011c 51       		.byte	0x51
 4256 011d 11000000 		.4byte	.LVL11-1
 4257 0121 14000000 		.4byte	.LVL12
 4258 0125 0100     		.2byte	0x1
 4259 0127 56       		.byte	0x56
 4260 0128 14000000 		.4byte	.LVL12
 4261 012c 17000000 		.4byte	.LVL13-1
 4262 0130 0100     		.2byte	0x1
 4263 0132 51       		.byte	0x51
ARM GAS  /tmp/ccukX1CL.s 			page 76


 4264 0133 17000000 		.4byte	.LVL13-1
 4265 0137 26000000 		.4byte	.LVL15
 4266 013b 0100     		.2byte	0x1
 4267 013d 56       		.byte	0x56
 4268 013e 26000000 		.4byte	.LVL15
 4269 0142 2C000000 		.4byte	.LVL17
 4270 0146 0100     		.2byte	0x1
 4271 0148 51       		.byte	0x51
 4272 0149 2C000000 		.4byte	.LVL17
 4273 014d 50000000 		.4byte	.LFE222
 4274 0151 0100     		.2byte	0x1
 4275 0153 56       		.byte	0x56
 4276 0154 00000000 		.4byte	0
 4277 0158 00000000 		.4byte	0
 4278              	.LLST8:
 4279 015c 3E000000 		.4byte	.LVL18
 4280 0160 42000000 		.4byte	.LVL19
 4281 0164 0200     		.2byte	0x2
 4282 0166 72       		.byte	0x72
 4283 0167 00       		.sleb128 0
 4284 0168 42000000 		.4byte	.LVL19
 4285 016c 4A000000 		.4byte	.LVL20
 4286 0170 0100     		.2byte	0x1
 4287 0172 50       		.byte	0x50
 4288 0173 00000000 		.4byte	0
 4289 0177 00000000 		.4byte	0
 4290              	.LLST9:
 4291 017b 18000000 		.4byte	.LVL13
 4292 017f 1C000000 		.4byte	.LVL14
 4293 0183 0100     		.2byte	0x1
 4294 0185 50       		.byte	0x50
 4295 0186 4A000000 		.4byte	.LVL20
 4296 018a 50000000 		.4byte	.LFE222
 4297 018e 0100     		.2byte	0x1
 4298 0190 50       		.byte	0x50
 4299 0191 00000000 		.4byte	0
 4300 0195 00000000 		.4byte	0
 4301              	.LLST10:
 4302 0199 14000000 		.4byte	.LVL12
 4303 019d 17000000 		.4byte	.LVL13-1
 4304 01a1 0100     		.2byte	0x1
 4305 01a3 50       		.byte	0x50
 4306 01a4 17000000 		.4byte	.LVL13-1
 4307 01a8 26000000 		.4byte	.LVL15
 4308 01ac 0100     		.2byte	0x1
 4309 01ae 54       		.byte	0x54
 4310 01af 26000000 		.4byte	.LVL15
 4311 01b3 2A000000 		.4byte	.LVL16
 4312 01b7 0100     		.2byte	0x1
 4313 01b9 50       		.byte	0x50
 4314 01ba 2A000000 		.4byte	.LVL16
 4315 01be 50000000 		.4byte	.LFE222
 4316 01c2 0100     		.2byte	0x1
 4317 01c4 54       		.byte	0x54
 4318 01c5 00000000 		.4byte	0
 4319 01c9 00000000 		.4byte	0
 4320              	.LLST11:
ARM GAS  /tmp/ccukX1CL.s 			page 77


 4321 01cd 42000000 		.4byte	.LVL19
 4322 01d1 4A000000 		.4byte	.LVL20
 4323 01d5 0200     		.2byte	0x2
 4324 01d7 30       		.byte	0x30
 4325 01d8 9F       		.byte	0x9f
 4326 01d9 00000000 		.4byte	0
 4327 01dd 00000000 		.4byte	0
 4328              	.LLST12:
 4329 01e1 00000000 		.4byte	.LVL21
 4330 01e5 26000000 		.4byte	.LVL24
 4331 01e9 0100     		.2byte	0x1
 4332 01eb 50       		.byte	0x50
 4333 01ec 26000000 		.4byte	.LVL24
 4334 01f0 2A000000 		.4byte	.LVL26
 4335 01f4 0100     		.2byte	0x1
 4336 01f6 54       		.byte	0x54
 4337 01f7 2A000000 		.4byte	.LVL26
 4338 01fb 2D000000 		.4byte	.LVL27-1
 4339 01ff 0100     		.2byte	0x1
 4340 0201 50       		.byte	0x50
 4341 0202 2D000000 		.4byte	.LVL27-1
 4342 0206 3A000000 		.4byte	.LVL29
 4343 020a 0100     		.2byte	0x1
 4344 020c 54       		.byte	0x54
 4345 020d 3A000000 		.4byte	.LVL29
 4346 0211 70000000 		.4byte	.LVL35
 4347 0215 0100     		.2byte	0x1
 4348 0217 50       		.byte	0x50
 4349 0218 70000000 		.4byte	.LVL35
 4350 021c 7A000000 		.4byte	.LFE223
 4351 0220 0100     		.2byte	0x1
 4352 0222 54       		.byte	0x54
 4353 0223 00000000 		.4byte	0
 4354 0227 00000000 		.4byte	0
 4355              	.LLST13:
 4356 022b 00000000 		.4byte	.LVL21
 4357 022f 1E000000 		.4byte	.LVL23
 4358 0233 0100     		.2byte	0x1
 4359 0235 51       		.byte	0x51
 4360 0236 1E000000 		.4byte	.LVL23
 4361 023a 46000000 		.4byte	.LVL31
 4362 023e 0700     		.2byte	0x7
 4363 0240 F3       		.byte	0xf3
 4364 0241 01       		.uleb128 0x1
 4365 0242 51       		.byte	0x51
 4366 0243 76       		.byte	0x76
 4367 0244 00       		.sleb128 0
 4368 0245 22       		.byte	0x22
 4369 0246 9F       		.byte	0x9f
 4370 0247 46000000 		.4byte	.LVL31
 4371 024b 64000000 		.4byte	.LVL33
 4372 024f 0900     		.2byte	0x9
 4373 0251 F3       		.byte	0xf3
 4374 0252 01       		.uleb128 0x1
 4375 0253 51       		.byte	0x51
 4376 0254 76       		.byte	0x76
 4377 0255 00       		.sleb128 0
ARM GAS  /tmp/ccukX1CL.s 			page 78


 4378 0256 22       		.byte	0x22
 4379 0257 23       		.byte	0x23
 4380 0258 01       		.uleb128 0x1
 4381 0259 9F       		.byte	0x9f
 4382 025a 64000000 		.4byte	.LVL33
 4383 025e 70000000 		.4byte	.LVL35
 4384 0262 0700     		.2byte	0x7
 4385 0264 76       		.byte	0x76
 4386 0265 00       		.sleb128 0
 4387 0266 F3       		.byte	0xf3
 4388 0267 01       		.uleb128 0x1
 4389 0268 51       		.byte	0x51
 4390 0269 22       		.byte	0x22
 4391 026a 9F       		.byte	0x9f
 4392 026b 70000000 		.4byte	.LVL35
 4393 026f 74000000 		.4byte	.LVL36
 4394 0273 0700     		.2byte	0x7
 4395 0275 F3       		.byte	0xf3
 4396 0276 01       		.uleb128 0x1
 4397 0277 51       		.byte	0x51
 4398 0278 76       		.byte	0x76
 4399 0279 00       		.sleb128 0
 4400 027a 22       		.byte	0x22
 4401 027b 9F       		.byte	0x9f
 4402 027c 00000000 		.4byte	0
 4403 0280 00000000 		.4byte	0
 4404              	.LLST14:
 4405 0284 00000000 		.4byte	.LVL21
 4406 0288 1E000000 		.4byte	.LVL23
 4407 028c 0100     		.2byte	0x1
 4408 028e 52       		.byte	0x52
 4409 028f 1E000000 		.4byte	.LVL23
 4410 0293 74000000 		.4byte	.LVL36
 4411 0297 0700     		.2byte	0x7
 4412 0299 F3       		.byte	0xf3
 4413 029a 01       		.uleb128 0x1
 4414 029b 52       		.byte	0x52
 4415 029c 76       		.byte	0x76
 4416 029d 00       		.sleb128 0
 4417 029e 1C       		.byte	0x1c
 4418 029f 9F       		.byte	0x9f
 4419 02a0 00000000 		.4byte	0
 4420 02a4 00000000 		.4byte	0
 4421              	.LLST15:
 4422 02a8 00000000 		.4byte	.LVL21
 4423 02ac 1E000000 		.4byte	.LVL23
 4424 02b0 0100     		.2byte	0x1
 4425 02b2 53       		.byte	0x53
 4426 02b3 1E000000 		.4byte	.LVL23
 4427 02b7 2A000000 		.4byte	.LVL26
 4428 02bb 0100     		.2byte	0x1
 4429 02bd 55       		.byte	0x55
 4430 02be 2A000000 		.4byte	.LVL26
 4431 02c2 2D000000 		.4byte	.LVL27-1
 4432 02c6 0100     		.2byte	0x1
 4433 02c8 51       		.byte	0x51
 4434 02c9 2D000000 		.4byte	.LVL27-1
ARM GAS  /tmp/ccukX1CL.s 			page 79


 4435 02cd 3A000000 		.4byte	.LVL29
 4436 02d1 0100     		.2byte	0x1
 4437 02d3 55       		.byte	0x55
 4438 02d4 3A000000 		.4byte	.LVL29
 4439 02d8 3E000000 		.4byte	.LVL30
 4440 02dc 0100     		.2byte	0x1
 4441 02de 51       		.byte	0x51
 4442 02df 3E000000 		.4byte	.LVL30
 4443 02e3 7A000000 		.4byte	.LFE223
 4444 02e7 0100     		.2byte	0x1
 4445 02e9 55       		.byte	0x55
 4446 02ea 00000000 		.4byte	0
 4447 02ee 00000000 		.4byte	0
 4448              	.LLST16:
 4449 02f2 0C000000 		.4byte	.LVL22
 4450 02f6 1E000000 		.4byte	.LVL23
 4451 02fa 0200     		.2byte	0x2
 4452 02fc 30       		.byte	0x30
 4453 02fd 9F       		.byte	0x9f
 4454 02fe 1E000000 		.4byte	.LVL23
 4455 0302 7A000000 		.4byte	.LFE223
 4456 0306 0100     		.2byte	0x1
 4457 0308 56       		.byte	0x56
 4458 0309 00000000 		.4byte	0
 4459 030d 00000000 		.4byte	0
 4460              	.LLST17:
 4461 0311 2A000000 		.4byte	.LVL26
 4462 0315 2D000000 		.4byte	.LVL27-1
 4463 0319 0100     		.2byte	0x1
 4464 031b 50       		.byte	0x50
 4465 031c 2D000000 		.4byte	.LVL27-1
 4466 0320 3A000000 		.4byte	.LVL29
 4467 0324 0100     		.2byte	0x1
 4468 0326 54       		.byte	0x54
 4469 0327 3A000000 		.4byte	.LVL29
 4470 032b 70000000 		.4byte	.LVL35
 4471 032f 0100     		.2byte	0x1
 4472 0331 50       		.byte	0x50
 4473 0332 70000000 		.4byte	.LVL35
 4474 0336 7A000000 		.4byte	.LFE223
 4475 033a 0100     		.2byte	0x1
 4476 033c 54       		.byte	0x54
 4477 033d 00000000 		.4byte	0
 4478 0341 00000000 		.4byte	0
 4479              	.LLST18:
 4480 0345 58000000 		.4byte	.LVL32
 4481 0349 70000000 		.4byte	.LVL35
 4482 034d 0200     		.2byte	0x2
 4483 034f 30       		.byte	0x30
 4484 0350 9F       		.byte	0x9f
 4485 0351 00000000 		.4byte	0
 4486 0355 00000000 		.4byte	0
 4487              	.LLST19:
 4488 0359 66000000 		.4byte	.LVL34
 4489 035d 70000000 		.4byte	.LVL35
 4490 0361 0300     		.2byte	0x3
 4491 0363 08       		.byte	0x8
ARM GAS  /tmp/ccukX1CL.s 			page 80


 4492 0364 20       		.byte	0x20
 4493 0365 9F       		.byte	0x9f
 4494 0366 00000000 		.4byte	0
 4495 036a 00000000 		.4byte	0
 4496              	.LLST20:
 4497 036e 70000000 		.4byte	.LVL35
 4498 0372 74000000 		.4byte	.LVL36
 4499 0376 0200     		.2byte	0x2
 4500 0378 30       		.byte	0x30
 4501 0379 9F       		.byte	0x9f
 4502 037a 00000000 		.4byte	0
 4503 037e 00000000 		.4byte	0
 4504              	.LLST21:
 4505 0382 00000000 		.4byte	.LVL37
 4506 0386 1A000000 		.4byte	.LVL38
 4507 038a 0200     		.2byte	0x2
 4508 038c 91       		.byte	0x91
 4509 038d 00       		.sleb128 0
 4510 038e 1A000000 		.4byte	.LVL38
 4511 0392 1C000000 		.4byte	.LFE224
 4512 0396 0200     		.2byte	0x2
 4513 0398 7D       		.byte	0x7d
 4514 0399 00       		.sleb128 0
 4515 039a 00000000 		.4byte	0
 4516 039e 00000000 		.4byte	0
 4517              	.LLST22:
 4518 03a2 00000000 		.4byte	.LVL39
 4519 03a6 19000000 		.4byte	.LVL40-1
 4520 03aa 0100     		.2byte	0x1
 4521 03ac 50       		.byte	0x50
 4522 03ad 19000000 		.4byte	.LVL40-1
 4523 03b1 1A000000 		.4byte	.LFE225
 4524 03b5 0400     		.2byte	0x4
 4525 03b7 F3       		.byte	0xf3
 4526 03b8 01       		.uleb128 0x1
 4527 03b9 50       		.byte	0x50
 4528 03ba 9F       		.byte	0x9f
 4529 03bb 00000000 		.4byte	0
 4530 03bf 00000000 		.4byte	0
 4531              	.LLST23:
 4532 03c3 00000000 		.4byte	.LVL41
 4533 03c7 13000000 		.4byte	.LVL43-1
 4534 03cb 0100     		.2byte	0x1
 4535 03cd 50       		.byte	0x50
 4536 03ce 13000000 		.4byte	.LVL43-1
 4537 03d2 22000000 		.4byte	.LVL45
 4538 03d6 0100     		.2byte	0x1
 4539 03d8 54       		.byte	0x54
 4540 03d9 22000000 		.4byte	.LVL45
 4541 03dd 42000000 		.4byte	.LVL47
 4542 03e1 0100     		.2byte	0x1
 4543 03e3 50       		.byte	0x50
 4544 03e4 42000000 		.4byte	.LVL47
 4545 03e8 52000000 		.4byte	.LFE226
 4546 03ec 0100     		.2byte	0x1
 4547 03ee 54       		.byte	0x54
 4548 03ef 00000000 		.4byte	0
ARM GAS  /tmp/ccukX1CL.s 			page 81


 4549 03f3 00000000 		.4byte	0
 4550              	.LLST24:
 4551 03f7 00000000 		.4byte	.LVL41
 4552 03fb 10000000 		.4byte	.LVL42
 4553 03ff 0100     		.2byte	0x1
 4554 0401 51       		.byte	0x51
 4555 0402 10000000 		.4byte	.LVL42
 4556 0406 52000000 		.4byte	.LFE226
 4557 040a 0400     		.2byte	0x4
 4558 040c F3       		.byte	0xf3
 4559 040d 01       		.uleb128 0x1
 4560 040e 51       		.byte	0x51
 4561 040f 9F       		.byte	0x9f
 4562 0410 00000000 		.4byte	0
 4563 0414 00000000 		.4byte	0
 4564              	.LLST25:
 4565 0418 00000000 		.4byte	.LVL41
 4566 041c 10000000 		.4byte	.LVL42
 4567 0420 0100     		.2byte	0x1
 4568 0422 52       		.byte	0x52
 4569 0423 10000000 		.4byte	.LVL42
 4570 0427 13000000 		.4byte	.LVL43-1
 4571 042b 0100     		.2byte	0x1
 4572 042d 51       		.byte	0x51
 4573 042e 13000000 		.4byte	.LVL43-1
 4574 0432 22000000 		.4byte	.LVL45
 4575 0436 0100     		.2byte	0x1
 4576 0438 56       		.byte	0x56
 4577 0439 22000000 		.4byte	.LVL45
 4578 043d 26000000 		.4byte	.LVL46
 4579 0441 0100     		.2byte	0x1
 4580 0443 51       		.byte	0x51
 4581 0444 26000000 		.4byte	.LVL46
 4582 0448 52000000 		.4byte	.LFE226
 4583 044c 0100     		.2byte	0x1
 4584 044e 56       		.byte	0x56
 4585 044f 00000000 		.4byte	0
 4586 0453 00000000 		.4byte	0
 4587              	.LLST26:
 4588 0457 14000000 		.4byte	.LVL43
 4589 045b 18000000 		.4byte	.LVL44
 4590 045f 0100     		.2byte	0x1
 4591 0461 50       		.byte	0x50
 4592 0462 4C000000 		.4byte	.LVL49
 4593 0466 52000000 		.4byte	.LFE226
 4594 046a 0100     		.2byte	0x1
 4595 046c 50       		.byte	0x50
 4596 046d 00000000 		.4byte	0
 4597 0471 00000000 		.4byte	0
 4598              	.LLST27:
 4599 0475 10000000 		.4byte	.LVL42
 4600 0479 13000000 		.4byte	.LVL43-1
 4601 047d 0100     		.2byte	0x1
 4602 047f 50       		.byte	0x50
 4603 0480 13000000 		.4byte	.LVL43-1
 4604 0484 22000000 		.4byte	.LVL45
 4605 0488 0100     		.2byte	0x1
ARM GAS  /tmp/ccukX1CL.s 			page 82


 4606 048a 54       		.byte	0x54
 4607 048b 22000000 		.4byte	.LVL45
 4608 048f 43000000 		.4byte	.LVL48-1
 4609 0493 0100     		.2byte	0x1
 4610 0495 50       		.byte	0x50
 4611 0496 43000000 		.4byte	.LVL48-1
 4612 049a 52000000 		.4byte	.LFE226
 4613 049e 0100     		.2byte	0x1
 4614 04a0 54       		.byte	0x54
 4615 04a1 00000000 		.4byte	0
 4616 04a5 00000000 		.4byte	0
 4617              	.LLST28:
 4618 04a9 44000000 		.4byte	.LVL48
 4619 04ad 4C000000 		.4byte	.LVL49
 4620 04b1 0200     		.2byte	0x2
 4621 04b3 30       		.byte	0x30
 4622 04b4 9F       		.byte	0x9f
 4623 04b5 00000000 		.4byte	0
 4624 04b9 00000000 		.4byte	0
 4625              	.LLST29:
 4626 04bd 00000000 		.4byte	.LVL50
 4627 04c1 25000000 		.4byte	.LVL54-1
 4628 04c5 0100     		.2byte	0x1
 4629 04c7 50       		.byte	0x50
 4630 04c8 25000000 		.4byte	.LVL54-1
 4631 04cc 2A000000 		.4byte	.LVL55
 4632 04d0 0400     		.2byte	0x4
 4633 04d2 F3       		.byte	0xf3
 4634 04d3 01       		.uleb128 0x1
 4635 04d4 50       		.byte	0x50
 4636 04d5 9F       		.byte	0x9f
 4637 04d6 2A000000 		.4byte	.LVL55
 4638 04da 34000000 		.4byte	.LVL56
 4639 04de 0100     		.2byte	0x1
 4640 04e0 50       		.byte	0x50
 4641 04e1 34000000 		.4byte	.LVL56
 4642 04e5 36000000 		.4byte	.LFE227
 4643 04e9 0400     		.2byte	0x4
 4644 04eb F3       		.byte	0xf3
 4645 04ec 01       		.uleb128 0x1
 4646 04ed 50       		.byte	0x50
 4647 04ee 9F       		.byte	0x9f
 4648 04ef 00000000 		.4byte	0
 4649 04f3 00000000 		.4byte	0
 4650              	.LLST30:
 4651 04f7 1A000000 		.4byte	.LVL51
 4652 04fb 1E000000 		.4byte	.LVL52
 4653 04ff 0200     		.2byte	0x2
 4654 0501 73       		.byte	0x73
 4655 0502 00       		.sleb128 0
 4656 0503 1E000000 		.4byte	.LVL52
 4657 0507 20000000 		.4byte	.LVL53
 4658 050b 0200     		.2byte	0x2
 4659 050d 72       		.byte	0x72
 4660 050e 7F       		.sleb128 -1
 4661 050f 20000000 		.4byte	.LVL53
 4662 0513 2A000000 		.4byte	.LVL55
ARM GAS  /tmp/ccukX1CL.s 			page 83


 4663 0517 0100     		.2byte	0x1
 4664 0519 54       		.byte	0x54
 4665 051a 00000000 		.4byte	0
 4666 051e 00000000 		.4byte	0
 4667              	.LLST32:
 4668 0522 00000000 		.4byte	.LVL57
 4669 0526 1E000000 		.4byte	.LVL59
 4670 052a 0100     		.2byte	0x1
 4671 052c 50       		.byte	0x50
 4672 052d 1E000000 		.4byte	.LVL59
 4673 0531 28000000 		.4byte	.LVL61
 4674 0535 0100     		.2byte	0x1
 4675 0537 54       		.byte	0x54
 4676 0538 28000000 		.4byte	.LVL61
 4677 053c 4B000000 		.4byte	.LVL62-1
 4678 0540 0100     		.2byte	0x1
 4679 0542 50       		.byte	0x50
 4680 0543 4B000000 		.4byte	.LVL62-1
 4681 0547 6A000000 		.4byte	.LVL68
 4682 054b 0100     		.2byte	0x1
 4683 054d 54       		.byte	0x54
 4684 054e 6A000000 		.4byte	.LVL68
 4685 0552 6C000000 		.4byte	.LVL69
 4686 0556 0100     		.2byte	0x1
 4687 0558 50       		.byte	0x50
 4688 0559 6C000000 		.4byte	.LVL69
 4689 055d 86000000 		.4byte	.LFE228
 4690 0561 0100     		.2byte	0x1
 4691 0563 54       		.byte	0x54
 4692 0564 00000000 		.4byte	0
 4693 0568 00000000 		.4byte	0
 4694              	.LLST33:
 4695 056c 00000000 		.4byte	.LVL57
 4696 0570 1E000000 		.4byte	.LVL59
 4697 0574 0100     		.2byte	0x1
 4698 0576 51       		.byte	0x51
 4699 0577 1E000000 		.4byte	.LVL59
 4700 057b 24000000 		.4byte	.LVL60
 4701 057f 0100     		.2byte	0x1
 4702 0581 55       		.byte	0x55
 4703 0582 24000000 		.4byte	.LVL60
 4704 0586 60000000 		.4byte	.LVL66
 4705 058a 0100     		.2byte	0x1
 4706 058c 5B       		.byte	0x5b
 4707 058d 60000000 		.4byte	.LVL66
 4708 0591 64000000 		.4byte	.LVL67
 4709 0595 0100     		.2byte	0x1
 4710 0597 55       		.byte	0x55
 4711 0598 64000000 		.4byte	.LVL67
 4712 059c 86000000 		.4byte	.LFE228
 4713 05a0 0100     		.2byte	0x1
 4714 05a2 5B       		.byte	0x5b
 4715 05a3 00000000 		.4byte	0
 4716 05a7 00000000 		.4byte	0
 4717              	.LLST34:
 4718 05ab 00000000 		.4byte	.LVL57
 4719 05af 1E000000 		.4byte	.LVL59
ARM GAS  /tmp/ccukX1CL.s 			page 84


 4720 05b3 0100     		.2byte	0x1
 4721 05b5 52       		.byte	0x52
 4722 05b6 1E000000 		.4byte	.LVL59
 4723 05ba 52000000 		.4byte	.LVL64
 4724 05be 0100     		.2byte	0x1
 4725 05c0 56       		.byte	0x56
 4726 05c1 52000000 		.4byte	.LVL64
 4727 05c5 56000000 		.4byte	.LVL65
 4728 05c9 0300     		.2byte	0x3
 4729 05cb 76       		.byte	0x76
 4730 05cc 01       		.sleb128 1
 4731 05cd 9F       		.byte	0x9f
 4732 05ce 60000000 		.4byte	.LVL66
 4733 05d2 7E000000 		.4byte	.LVL72
 4734 05d6 0100     		.2byte	0x1
 4735 05d8 56       		.byte	0x56
 4736 05d9 00000000 		.4byte	0
 4737 05dd 00000000 		.4byte	0
 4738              	.LLST35:
 4739 05e1 00000000 		.4byte	.LVL57
 4740 05e5 1E000000 		.4byte	.LVL59
 4741 05e9 0100     		.2byte	0x1
 4742 05eb 53       		.byte	0x53
 4743 05ec 1E000000 		.4byte	.LVL59
 4744 05f0 86000000 		.4byte	.LFE228
 4745 05f4 0200     		.2byte	0x2
 4746 05f6 91       		.byte	0x91
 4747 05f7 54       		.sleb128 -44
 4748 05f8 00000000 		.4byte	0
 4749 05fc 00000000 		.4byte	0
 4750              	.LLST36:
 4751 0600 12000000 		.4byte	.LVL58
 4752 0604 1E000000 		.4byte	.LVL59
 4753 0608 0200     		.2byte	0x2
 4754 060a 30       		.byte	0x30
 4755 060b 9F       		.byte	0x9f
 4756 060c 1E000000 		.4byte	.LVL59
 4757 0610 86000000 		.4byte	.LFE228
 4758 0614 0100     		.2byte	0x1
 4759 0616 57       		.byte	0x57
 4760 0617 00000000 		.4byte	0
 4761 061b 00000000 		.4byte	0
 4762              	.LLST37:
 4763 061f 4C000000 		.4byte	.LVL62
 4764 0623 6A000000 		.4byte	.LVL68
 4765 0627 0200     		.2byte	0x2
 4766 0629 30       		.byte	0x30
 4767 062a 9F       		.byte	0x9f
 4768 062b 00000000 		.4byte	0
 4769 062f 00000000 		.4byte	0
 4770              	.LLST38:
 4771 0633 1E000000 		.4byte	.LVL59
 4772 0637 28000000 		.4byte	.LVL61
 4773 063b 0100     		.2byte	0x1
 4774 063d 54       		.byte	0x54
 4775 063e 28000000 		.4byte	.LVL61
 4776 0642 4B000000 		.4byte	.LVL62-1
ARM GAS  /tmp/ccukX1CL.s 			page 85


 4777 0646 0100     		.2byte	0x1
 4778 0648 50       		.byte	0x50
 4779 0649 4B000000 		.4byte	.LVL62-1
 4780 064d 6A000000 		.4byte	.LVL68
 4781 0651 0100     		.2byte	0x1
 4782 0653 54       		.byte	0x54
 4783 0654 6A000000 		.4byte	.LVL68
 4784 0658 6C000000 		.4byte	.LVL69
 4785 065c 0100     		.2byte	0x1
 4786 065e 50       		.byte	0x50
 4787 065f 6C000000 		.4byte	.LVL69
 4788 0663 86000000 		.4byte	.LFE228
 4789 0667 0100     		.2byte	0x1
 4790 0669 54       		.byte	0x54
 4791 066a 00000000 		.4byte	0
 4792 066e 00000000 		.4byte	0
 4793              	.LLST39:
 4794 0672 50000000 		.4byte	.LVL63
 4795 0676 6A000000 		.4byte	.LVL68
 4796 067a 0300     		.2byte	0x3
 4797 067c 08       		.byte	0x8
 4798 067d 20       		.byte	0x20
 4799 067e 9F       		.byte	0x9f
 4800 067f 00000000 		.4byte	0
 4801 0683 00000000 		.4byte	0
 4802              	.LLST40:
 4803 0687 7A000000 		.4byte	.LVL71
 4804 068b 7E000000 		.4byte	.LVL72
 4805 068f 0200     		.2byte	0x2
 4806 0691 30       		.byte	0x30
 4807 0692 9F       		.byte	0x9f
 4808 0693 00000000 		.4byte	0
 4809 0697 00000000 		.4byte	0
 4810              		.section	.debug_aranges,"",%progbits
 4811 0000 64000000 		.4byte	0x64
 4812 0004 0200     		.2byte	0x2
 4813 0006 00000000 		.4byte	.Ldebug_info0
 4814 000a 04       		.byte	0x4
 4815 000b 00       		.byte	0
 4816 000c 0000     		.2byte	0
 4817 000e 0000     		.2byte	0
 4818 0010 00000000 		.4byte	.LFB219
 4819 0014 1E000000 		.4byte	.LFE219-.LFB219
 4820 0018 00000000 		.4byte	.LFB220
 4821 001c 12000000 		.4byte	.LFE220-.LFB220
 4822 0020 00000000 		.4byte	.LFB221
 4823 0024 38000000 		.4byte	.LFE221-.LFB221
 4824 0028 00000000 		.4byte	.LFB222
 4825 002c 50000000 		.4byte	.LFE222-.LFB222
 4826 0030 00000000 		.4byte	.LFB223
 4827 0034 7A000000 		.4byte	.LFE223-.LFB223
 4828 0038 00000000 		.4byte	.LFB224
 4829 003c 1C000000 		.4byte	.LFE224-.LFB224
 4830 0040 00000000 		.4byte	.LFB225
 4831 0044 1A000000 		.4byte	.LFE225-.LFB225
 4832 0048 00000000 		.4byte	.LFB226
 4833 004c 52000000 		.4byte	.LFE226-.LFB226
ARM GAS  /tmp/ccukX1CL.s 			page 86


 4834 0050 00000000 		.4byte	.LFB227
 4835 0054 36000000 		.4byte	.LFE227-.LFB227
 4836 0058 00000000 		.4byte	.LFB228
 4837 005c 86000000 		.4byte	.LFE228-.LFB228
 4838 0060 00000000 		.4byte	0
 4839 0064 00000000 		.4byte	0
 4840              		.section	.debug_ranges,"",%progbits
 4841              	.Ldebug_ranges0:
 4842 0000 00000000 		.4byte	.LBB111
 4843 0004 06000000 		.4byte	.LBE111
 4844 0008 08000000 		.4byte	.LBB115
 4845 000c 0A000000 		.4byte	.LBE115
 4846 0010 2C000000 		.4byte	.LBB116
 4847 0014 32000000 		.4byte	.LBE116
 4848 0018 00000000 		.4byte	0
 4849 001c 00000000 		.4byte	0
 4850 0020 02000000 		.4byte	.LBB117
 4851 0024 04000000 		.4byte	.LBE117
 4852 0028 08000000 		.4byte	.LBB124
 4853 002c 0C000000 		.4byte	.LBE124
 4854 0030 00000000 		.4byte	0
 4855 0034 00000000 		.4byte	0
 4856 0038 14000000 		.4byte	.LBB125
 4857 003c 1C000000 		.4byte	.LBE125
 4858 0040 1E000000 		.4byte	.LBB133
 4859 0044 22000000 		.4byte	.LBE133
 4860 0048 4A000000 		.4byte	.LBB139
 4861 004c 50000000 		.4byte	.LBE139
 4862 0050 00000000 		.4byte	0
 4863 0054 00000000 		.4byte	0
 4864 0058 10000000 		.4byte	.LBB167
 4865 005c 18000000 		.4byte	.LBE167
 4866 0060 1A000000 		.4byte	.LBB175
 4867 0064 1E000000 		.4byte	.LBE175
 4868 0068 4C000000 		.4byte	.LBB181
 4869 006c 52000000 		.4byte	.LBE181
 4870 0070 00000000 		.4byte	0
 4871 0074 00000000 		.4byte	0
 4872 0078 00000000 		.4byte	.LBB182
 4873 007c 06000000 		.4byte	.LBE182
 4874 0080 08000000 		.4byte	.LBB186
 4875 0084 0A000000 		.4byte	.LBE186
 4876 0088 2A000000 		.4byte	.LBB187
 4877 008c 30000000 		.4byte	.LBE187
 4878 0090 00000000 		.4byte	0
 4879 0094 00000000 		.4byte	0
 4880 0098 1C000000 		.4byte	.LBB192
 4881 009c 1E000000 		.4byte	.LBE192
 4882 00a0 4C000000 		.4byte	.LBB204
 4883 00a4 50000000 		.4byte	.LBE204
 4884 00a8 00000000 		.4byte	0
 4885 00ac 00000000 		.4byte	0
 4886 00b0 1E000000 		.4byte	.LBB201
 4887 00b4 20000000 		.4byte	.LBE201
 4888 00b8 5C000000 		.4byte	.LBB209
 4889 00bc 5E000000 		.4byte	.LBE209
 4890 00c0 00000000 		.4byte	0
ARM GAS  /tmp/ccukX1CL.s 			page 87


 4891 00c4 00000000 		.4byte	0
 4892 00c8 00000000 		.4byte	.LFB219
 4893 00cc 1E000000 		.4byte	.LFE219
 4894 00d0 00000000 		.4byte	.LFB220
 4895 00d4 12000000 		.4byte	.LFE220
 4896 00d8 00000000 		.4byte	.LFB221
 4897 00dc 38000000 		.4byte	.LFE221
 4898 00e0 00000000 		.4byte	.LFB222
 4899 00e4 50000000 		.4byte	.LFE222
 4900 00e8 00000000 		.4byte	.LFB223
 4901 00ec 7A000000 		.4byte	.LFE223
 4902 00f0 00000000 		.4byte	.LFB224
 4903 00f4 1C000000 		.4byte	.LFE224
 4904 00f8 00000000 		.4byte	.LFB225
 4905 00fc 1A000000 		.4byte	.LFE225
 4906 0100 00000000 		.4byte	.LFB226
 4907 0104 52000000 		.4byte	.LFE226
 4908 0108 00000000 		.4byte	.LFB227
 4909 010c 36000000 		.4byte	.LFE227
 4910 0110 00000000 		.4byte	.LFB228
 4911 0114 86000000 		.4byte	.LFE228
 4912 0118 00000000 		.4byte	0
 4913 011c 00000000 		.4byte	0
 4914              		.section	.debug_line,"",%progbits
 4915              	.Ldebug_line0:
 4916 0000 8F040000 		.section	.debug_str,"MS",%progbits,1
 4916      0200F701 
 4916      00000201 
 4916      FB0E0D00 
 4916      01010101 
 4917              	.LASF143:
 4918 0000 63684F51 		.ascii	"chOQPutTimeout\000"
 4918      50757454 
 4918      696D656F 
 4918      757400
 4919              	.LASF54:
 4920 000f 72656164 		.ascii	"ready_list_t\000"
 4920      795F6C69 
 4920      73745F74 
 4920      00
 4921              	.LASF141:
 4922 001c 6F6E6679 		.ascii	"onfy\000"
 4922      00
 4923              	.LASF2:
 4924 0021 73697A65 		.ascii	"size_t\000"
 4924      5F7400
 4925              	.LASF89:
 4926 0028 7264796D 		.ascii	"rdymsg\000"
 4926      736700
 4927              	.LASF17:
 4928 002f 75696E74 		.ascii	"uint64_t\000"
 4928      36345F74 
 4928      00
 4929              	.LASF148:
 4930 0038 63685468 		.ascii	"chThdDequeueAllI\000"
 4930      64446571 
 4930      75657565 
ARM GAS  /tmp/ccukX1CL.s 			page 88


 4930      416C6C49 
 4930      00
 4931              	.LASF3:
 4932 0049 5F5F7569 		.ascii	"__uint8_t\000"
 4932      6E74385F 
 4932      7400
 4933              	.LASF86:
 4934 0053 706F7274 		.ascii	"port_intctx\000"
 4934      5F696E74 
 4934      63747800 
 4935              	.LASF73:
 4936 005f 73797374 		.ascii	"system_debug_t\000"
 4936      656D5F64 
 4936      65627567 
 4936      5F7400
 4937              	.LASF139:
 4938 006e 63684951 		.ascii	"chIQReadTimeout\000"
 4938      52656164 
 4938      54696D65 
 4938      6F757400 
 4939              	.LASF121:
 4940 007e 71756575 		.ascii	"queue_init\000"
 4940      655F696E 
 4940      697400
 4941              	.LASF118:
 4942 0089 706F7274 		.ascii	"port_lock\000"
 4942      5F6C6F63 
 4942      6B00
 4943              	.LASF134:
 4944 0093 63684951 		.ascii	"chIQObjectInit\000"
 4944      4F626A65 
 4944      6374496E 
 4944      697400
 4945              	.LASF13:
 4946 00a2 6C6F6E67 		.ascii	"long long unsigned int\000"
 4946      206C6F6E 
 4946      6720756E 
 4946      7369676E 
 4946      65642069 
 4947              	.LASF135:
 4948 00b9 63684951 		.ascii	"chIQResetI\000"
 4948      52657365 
 4948      744900
 4949              	.LASF90:
 4950 00c4 65786974 		.ascii	"exitcode\000"
 4950      636F6465 
 4950      00
 4951              	.LASF80:
 4952 00cd 6D61696E 		.ascii	"mainthread\000"
 4952      74687265 
 4952      616400
 4953              	.LASF70:
 4954 00d8 76697274 		.ascii	"virtual_timers_list_t\000"
 4954      75616C5F 
 4954      74696D65 
 4954      72735F6C 
 4954      6973745F 
ARM GAS  /tmp/ccukX1CL.s 			page 89


 4955              	.LASF147:
 4956 00ee 49544D5F 		.ascii	"ITM_RxBuffer\000"
 4956      52784275 
 4956      66666572 
 4956      00
 4957              	.LASF105:
 4958 00fb 696F5F71 		.ascii	"io_queue_t\000"
 4958      75657565 
 4958      5F7400
 4959              	.LASF53:
 4960 0106 63685F74 		.ascii	"ch_threads_queue\000"
 4960      68726561 
 4960      64735F71 
 4960      75657565 
 4960      00
 4961              	.LASF31:
 4962 0117 705F7072 		.ascii	"p_prio\000"
 4962      696F00
 4963              	.LASF107:
 4964 011e 715F7761 		.ascii	"q_waiting\000"
 4964      6974696E 
 4964      6700
 4965              	.LASF11:
 4966 0128 6C6F6E67 		.ascii	"long long int\000"
 4966      206C6F6E 
 4966      6720696E 
 4966      7400
 4967              	.LASF1:
 4968 0136 7369676E 		.ascii	"signed char\000"
 4968      65642063 
 4968      68617200 
 4969              	.LASF47:
 4970 0142 705F6D70 		.ascii	"p_mpool\000"
 4970      6F6F6C00 
 4971              	.LASF100:
 4972 014a 6D5F7175 		.ascii	"m_queue\000"
 4972      65756500 
 4973              	.LASF79:
 4974 0152 76746C69 		.ascii	"vtlist\000"
 4974      737400
 4975              	.LASF119:
 4976 0159 706F7274 		.ascii	"port_unlock\000"
 4976      5F756E6C 
 4976      6F636B00 
 4977              	.LASF22:
 4978 0165 74736C69 		.ascii	"tslices_t\000"
 4978      6365735F 
 4978      7400
 4979              	.LASF117:
 4980 016f 6F757470 		.ascii	"output_queue_t\000"
 4980      75745F71 
 4980      75657565 
 4980      5F7400
 4981              	.LASF92:
 4982 017e 77747472 		.ascii	"wttrp\000"
 4982      7000
 4983              	.LASF77:
ARM GAS  /tmp/ccukX1CL.s 			page 90


 4984 0184 63685F73 		.ascii	"ch_system\000"
 4984      79737465 
 4984      6D00
 4985              	.LASF8:
 4986 018e 6C6F6E67 		.ascii	"long int\000"
 4986      20696E74 
 4986      00
 4987              	.LASF20:
 4988 0197 74737461 		.ascii	"tstate_t\000"
 4988      74655F74 
 4988      00
 4989              	.LASF144:
 4990 01a0 63684F51 		.ascii	"chOQGetI\000"
 4990      47657449 
 4990      00
 4991              	.LASF109:
 4992 01a9 715F6275 		.ascii	"q_buffer\000"
 4992      66666572 
 4992      00
 4993              	.LASF151:
 4994 01b2 474E5520 		.ascii	"GNU C 4.8.4 20141219 (release) -mcpu=cortex-m4 -mfl"
 4994      4320342E 
 4994      382E3420 
 4994      32303134 
 4994      31323139 
 4995 01e5 6F61742D 		.ascii	"oat-abi=hard -mfpu=fpv4-sp-d16 -mno-thumb-interwork"
 4995      6162693D 
 4995      68617264 
 4995      202D6D66 
 4995      70753D66 
 4996 0218 202D6D74 		.ascii	" -mthumb -ggdb -O2 -std=gnu99 -fomit-frame-pointer "
 4996      68756D62 
 4996      202D6767 
 4996      6462202D 
 4996      4F32202D 
 4997 024b 2D66616C 		.ascii	"-falign-functions=16 -ffunction-sections -fdata-sec"
 4997      69676E2D 
 4997      66756E63 
 4997      74696F6E 
 4997      733D3136 
 4998 027e 74696F6E 		.ascii	"tions -fno-common -fsingle-precision-constant\000"
 4998      73202D66 
 4998      6E6F2D63 
 4998      6F6D6D6F 
 4998      6E202D66 
 4999              	.LASF33:
 5000 02ac 705F6E65 		.ascii	"p_newer\000"
 5000      77657200 
 5001              	.LASF97:
 5002 02b4 735F7175 		.ascii	"s_queue\000"
 5002      65756500 
 5003              	.LASF136:
 5004 02bc 63684951 		.ascii	"chIQPutI\000"
 5004      50757449 
 5004      00
 5005              	.LASF6:
 5006 02c5 73686F72 		.ascii	"short unsigned int\000"
ARM GAS  /tmp/ccukX1CL.s 			page 91


 5006      7420756E 
 5006      7369676E 
 5006      65642069 
 5006      6E7400
 5007              	.LASF59:
 5008 02d8 725F6E65 		.ascii	"r_newer\000"
 5008      77657200 
 5009              	.LASF83:
 5010 02e0 72656761 		.ascii	"regarm_t\000"
 5010      726D5F74 
 5010      00
 5011              	.LASF66:
 5012 02e9 76745F70 		.ascii	"vt_prev\000"
 5012      72657600 
 5013              	.LASF133:
 5014 02f1 6C696E6B 		.ascii	"link\000"
 5014      00
 5015              	.LASF153:
 5016 02f6 2F686F6D 		.ascii	"/home/taylor/Programming/VESC/firmware\000"
 5016      652F7461 
 5016      796C6F72 
 5016      2F50726F 
 5016      6772616D 
 5017              	.LASF65:
 5018 031d 76745F6E 		.ascii	"vt_next\000"
 5018      65787400 
 5019              	.LASF122:
 5020 0325 76616C75 		.ascii	"value\000"
 5020      6500
 5021              	.LASF106:
 5022 032b 696F5F71 		.ascii	"io_queue\000"
 5022      75657565 
 5022      00
 5023              	.LASF81:
 5024 0334 69646C65 		.ascii	"idle_thread_wa\000"
 5024      5F746872 
 5024      6561645F 
 5024      776100
 5025              	.LASF26:
 5026 0343 636E745F 		.ascii	"cnt_t\000"
 5026      7400
 5027              	.LASF0:
 5028 0349 756E7369 		.ascii	"unsigned int\000"
 5028      676E6564 
 5028      20696E74 
 5028      00
 5029              	.LASF152:
 5030 0356 43686962 		.ascii	"ChibiOS_3.0.2/os/rt/src/chqueues.c\000"
 5030      694F535F 
 5030      332E302E 
 5030      322F6F73 
 5030      2F72742F 
 5031              	.LASF40:
 5032 0379 705F7469 		.ascii	"p_time\000"
 5032      6D6500
 5033              	.LASF93:
 5034 0380 77747365 		.ascii	"wtsemp\000"
ARM GAS  /tmp/ccukX1CL.s 			page 92


 5034      6D7000
 5035              	.LASF67:
 5036 0387 76745F64 		.ascii	"vt_delta\000"
 5036      656C7461 
 5036      00
 5037              	.LASF42:
 5038 0390 705F6D73 		.ascii	"p_msgqueue\000"
 5038      67717565 
 5038      756500
 5039              	.LASF138:
 5040 039b 74696D65 		.ascii	"timeout\000"
 5040      6F757400 
 5041              	.LASF98:
 5042 03a3 735F636E 		.ascii	"s_cnt\000"
 5042      7400
 5043              	.LASF111:
 5044 03a9 715F7772 		.ascii	"q_wrptr\000"
 5044      70747200 
 5045              	.LASF50:
 5046 03b1 63685F74 		.ascii	"ch_thread\000"
 5046      68726561 
 5046      6400
 5047              	.LASF24:
 5048 03bb 6D73675F 		.ascii	"msg_t\000"
 5048      7400
 5049              	.LASF76:
 5050 03c1 63685F73 		.ascii	"ch_system_t\000"
 5050      79737465 
 5050      6D5F7400 
 5051              	.LASF149:
 5052 03cd 63685468 		.ascii	"chThdDequeueNextI\000"
 5052      64446571 
 5052      75657565 
 5052      4E657874 
 5052      4900
 5053              	.LASF55:
 5054 03df 63685F72 		.ascii	"ch_ready_list\000"
 5054      65616479 
 5054      5F6C6973 
 5054      7400
 5055              	.LASF25:
 5056 03ed 6576656E 		.ascii	"eventmask_t\000"
 5056      746D6173 
 5056      6B5F7400 
 5057              	.LASF7:
 5058 03f9 5F5F696E 		.ascii	"__int32_t\000"
 5058      7433325F 
 5058      7400
 5059              	.LASF84:
 5060 0403 73746B61 		.ascii	"stkalign_t\000"
 5060      6C69676E 
 5060      5F7400
 5061              	.LASF145:
 5062 040e 63684F51 		.ascii	"chOQWriteTimeout\000"
 5062      57726974 
 5062      6554696D 
 5062      656F7574 
ARM GAS  /tmp/ccukX1CL.s 			page 93


 5062      00
 5063              	.LASF49:
 5064 041f 74687265 		.ascii	"threads_list_t\000"
 5064      6164735F 
 5064      6C697374 
 5064      5F7400
 5065              	.LASF123:
 5066 042e 63685468 		.ascii	"chThdQueueObjectInit\000"
 5066      64517565 
 5066      75654F62 
 5066      6A656374 
 5066      496E6974 
 5067              	.LASF82:
 5068 0443 73697A65 		.ascii	"sizetype\000"
 5068      74797065 
 5068      00
 5069              	.LASF48:
 5070 044c 74687265 		.ascii	"thread_reference_t\000"
 5070      61645F72 
 5070      65666572 
 5070      656E6365 
 5070      5F7400
 5071              	.LASF71:
 5072 045f 63685F76 		.ascii	"ch_virtual_timers_list\000"
 5072      69727475 
 5072      616C5F74 
 5072      696D6572 
 5072      735F6C69 
 5073              	.LASF108:
 5074 0476 715F636F 		.ascii	"q_counter\000"
 5074      756E7465 
 5074      7200
 5075              	.LASF34:
 5076 0480 705F6F6C 		.ascii	"p_older\000"
 5076      64657200 
 5077              	.LASF58:
 5078 0488 725F6374 		.ascii	"r_ctx\000"
 5078      7800
 5079              	.LASF88:
 5080 048e 746D5F63 		.ascii	"tm_calibration_t\000"
 5080      616C6962 
 5080      72617469 
 5080      6F6E5F74 
 5080      00
 5081              	.LASF61:
 5082 049f 725F6375 		.ascii	"r_current\000"
 5082      7272656E 
 5082      7400
 5083              	.LASF60:
 5084 04a9 725F6F6C 		.ascii	"r_older\000"
 5084      64657200 
 5085              	.LASF12:
 5086 04b1 5F5F7569 		.ascii	"__uint64_t\000"
 5086      6E743634 
 5086      5F7400
 5087              	.LASF21:
 5088 04bc 74726566 		.ascii	"trefs_t\000"
ARM GAS  /tmp/ccukX1CL.s 			page 94


 5088      735F7400 
 5089              	.LASF115:
 5090 04c4 716E6F74 		.ascii	"qnotify_t\000"
 5090      6966795F 
 5090      7400
 5091              	.LASF63:
 5092 04ce 76697274 		.ascii	"virtual_timer_t\000"
 5092      75616C5F 
 5092      74696D65 
 5092      725F7400 
 5093              	.LASF30:
 5094 04de 705F7072 		.ascii	"p_prev\000"
 5094      657600
 5095              	.LASF129:
 5096 04e5 63684F51 		.ascii	"chOQIsFullI\000"
 5096      49734675 
 5096      6C6C4900 
 5097              	.LASF23:
 5098 04f1 74707269 		.ascii	"tprio_t\000"
 5098      6F5F7400 
 5099              	.LASF112:
 5100 04f9 715F7264 		.ascii	"q_rdptr\000"
 5100      70747200 
 5101              	.LASF74:
 5102 0501 63685F73 		.ascii	"ch_system_debug\000"
 5102      79737465 
 5102      6D5F6465 
 5102      62756700 
 5103              	.LASF124:
 5104 0511 5F426F6F 		.ascii	"_Bool\000"
 5104      6C00
 5105              	.LASF15:
 5106 0517 696E7433 		.ascii	"int32_t\000"
 5106      325F7400 
 5107              	.LASF4:
 5108 051f 756E7369 		.ascii	"unsigned char\000"
 5108      676E6564 
 5108      20636861 
 5108      7200
 5109              	.LASF116:
 5110 052d 696E7075 		.ascii	"input_queue_t\000"
 5110      745F7175 
 5110      6575655F 
 5110      7400
 5111              	.LASF36:
 5112 053b 705F7374 		.ascii	"p_state\000"
 5112      61746500 
 5113              	.LASF45:
 5114 0543 705F6D74 		.ascii	"p_mtxlist\000"
 5114      786C6973 
 5114      7400
 5115              	.LASF5:
 5116 054d 73686F72 		.ascii	"short int\000"
 5116      7420696E 
 5116      7400
 5117              	.LASF39:
 5118 0557 705F7072 		.ascii	"p_preempt\000"
ARM GAS  /tmp/ccukX1CL.s 			page 95


 5118      65656D70 
 5118      7400
 5119              	.LASF57:
 5120 0561 725F7072 		.ascii	"r_prio\000"
 5120      696F00
 5121              	.LASF95:
 5122 0568 65776D61 		.ascii	"ewmask\000"
 5122      736B00
 5123              	.LASF29:
 5124 056f 705F6E65 		.ascii	"p_next\000"
 5124      787400
 5125              	.LASF132:
 5126 0576 696E6679 		.ascii	"infy\000"
 5126      00
 5127              	.LASF37:
 5128 057b 705F666C 		.ascii	"p_flags\000"
 5128      61677300 
 5129              	.LASF146:
 5130 0583 5F5F6675 		.ascii	"__func__\000"
 5130      6E635F5F 
 5130      00
 5131              	.LASF125:
 5132 058c 63685379 		.ascii	"chSysLock\000"
 5132      734C6F63 
 5132      6B00
 5133              	.LASF52:
 5134 0596 74687265 		.ascii	"threads_queue_t\000"
 5134      6164735F 
 5134      71756575 
 5134      655F7400 
 5135              	.LASF64:
 5136 05a6 63685F76 		.ascii	"ch_virtual_timer\000"
 5136      69727475 
 5136      616C5F74 
 5136      696D6572 
 5136      00
 5137              	.LASF96:
 5138 05b7 63685F73 		.ascii	"ch_semaphore\000"
 5138      656D6170 
 5138      686F7265 
 5138      00
 5139              	.LASF44:
 5140 05c4 705F6570 		.ascii	"p_epending\000"
 5140      656E6469 
 5140      6E6700
 5141              	.LASF127:
 5142 05cf 63684951 		.ascii	"chIQIsFullI\000"
 5142      49734675 
 5142      6C6C4900 
 5143              	.LASF16:
 5144 05db 75696E74 		.ascii	"uint32_t\000"
 5144      33325F74 
 5144      00
 5145              	.LASF94:
 5146 05e4 77746D74 		.ascii	"wtmtxp\000"
 5146      787000
 5147              	.LASF56:
ARM GAS  /tmp/ccukX1CL.s 			page 96


 5148 05eb 725F7175 		.ascii	"r_queue\000"
 5148      65756500 
 5149              	.LASF51:
 5150 05f3 63685F74 		.ascii	"ch_threads_list\000"
 5150      68726561 
 5150      64735F6C 
 5150      69737400 
 5151              	.LASF10:
 5152 0603 6C6F6E67 		.ascii	"long unsigned int\000"
 5152      20756E73 
 5152      69676E65 
 5152      6420696E 
 5152      7400
 5153              	.LASF103:
 5154 0615 63686172 		.ascii	"char\000"
 5154      00
 5155              	.LASF28:
 5156 061a 74687265 		.ascii	"thread_t\000"
 5156      61645F74 
 5156      00
 5157              	.LASF102:
 5158 0623 6D5F6E65 		.ascii	"m_next\000"
 5158      787400
 5159              	.LASF27:
 5160 062a 73797374 		.ascii	"systime_t\000"
 5160      696D655F 
 5160      7400
 5161              	.LASF46:
 5162 0634 705F7265 		.ascii	"p_realprio\000"
 5162      616C7072 
 5162      696F00
 5163              	.LASF62:
 5164 063f 76746675 		.ascii	"vtfunc_t\000"
 5164      6E635F74 
 5164      00
 5165              	.LASF9:
 5166 0648 5F5F7569 		.ascii	"__uint32_t\000"
 5166      6E743332 
 5166      5F7400
 5167              	.LASF120:
 5168 0653 5F5F7365 		.ascii	"__set_BASEPRI\000"
 5168      745F4241 
 5168      53455052 
 5168      4900
 5169              	.LASF75:
 5170 0661 70616E69 		.ascii	"panic_msg\000"
 5170      635F6D73 
 5170      6700
 5171              	.LASF87:
 5172 066b 6F666673 		.ascii	"offset\000"
 5172      657400
 5173              	.LASF142:
 5174 0672 63684F51 		.ascii	"chOQResetI\000"
 5174      52657365 
 5174      744900
 5175              	.LASF85:
 5176 067d 636F6E74 		.ascii	"context\000"
ARM GAS  /tmp/ccukX1CL.s 			page 97


 5176      65787400 
 5177              	.LASF18:
 5178 0685 7274636E 		.ascii	"rtcnt_t\000"
 5178      745F7400 
 5179              	.LASF69:
 5180 068d 76745F70 		.ascii	"vt_par\000"
 5180      617200
 5181              	.LASF140:
 5182 0694 63684F51 		.ascii	"chOQObjectInit\000"
 5182      4F626A65 
 5182      6374496E 
 5182      697400
 5183              	.LASF110:
 5184 06a3 715F746F 		.ascii	"q_top\000"
 5184      7000
 5185              	.LASF99:
 5186 06a9 63685F6D 		.ascii	"ch_mutex\000"
 5186      75746578 
 5186      00
 5187              	.LASF38:
 5188 06b2 705F7265 		.ascii	"p_refs\000"
 5188      667300
 5189              	.LASF128:
 5190 06b9 63684951 		.ascii	"chIQIsEmptyI\000"
 5190      4973456D 
 5190      70747949 
 5190      00
 5191              	.LASF113:
 5192 06c6 715F6E6F 		.ascii	"q_notify\000"
 5192      74696679 
 5192      00
 5193              	.LASF78:
 5194 06cf 726C6973 		.ascii	"rlist\000"
 5194      7400
 5195              	.LASF14:
 5196 06d5 75696E74 		.ascii	"uint8_t\000"
 5196      385F7400 
 5197              	.LASF91:
 5198 06dd 77746F62 		.ascii	"wtobjp\000"
 5198      6A7000
 5199              	.LASF35:
 5200 06e4 705F6E61 		.ascii	"p_name\000"
 5200      6D6500
 5201              	.LASF131:
 5202 06eb 73697A65 		.ascii	"size\000"
 5202      00
 5203              	.LASF130:
 5204 06f0 63684F51 		.ascii	"chOQIsEmptyI\000"
 5204      4973456D 
 5204      70747949 
 5204      00
 5205              	.LASF72:
 5206 06fd 76745F73 		.ascii	"vt_systime\000"
 5206      79737469 
 5206      6D6500
 5207              	.LASF19:
 5208 0708 746D6F64 		.ascii	"tmode_t\000"
ARM GAS  /tmp/ccukX1CL.s 			page 98


 5208      655F7400 
 5209              	.LASF126:
 5210 0710 63685379 		.ascii	"chSysUnlock\000"
 5210      73556E6C 
 5210      6F636B00 
 5211              	.LASF43:
 5212 071c 705F6D73 		.ascii	"p_msg\000"
 5212      6700
 5213              	.LASF114:
 5214 0722 715F6C69 		.ascii	"q_link\000"
 5214      6E6B00
 5215              	.LASF104:
 5216 0729 6D757465 		.ascii	"mutex_t\000"
 5216      785F7400 
 5217              	.LASF101:
 5218 0731 6D5F6F77 		.ascii	"m_owner\000"
 5218      6E657200 
 5219              	.LASF32:
 5220 0739 705F6374 		.ascii	"p_ctx\000"
 5220      7800
 5221              	.LASF68:
 5222 073f 76745F66 		.ascii	"vt_func\000"
 5222      756E6300 
 5223              	.LASF137:
 5224 0747 63684951 		.ascii	"chIQGetTimeout\000"
 5224      47657454 
 5224      696D656F 
 5224      757400
 5225              	.LASF150:
 5226 0756 63685468 		.ascii	"chThdEnqueueTimeoutS\000"
 5226      64456E71 
 5226      75657565 
 5226      54696D65 
 5226      6F757453 
 5227              	.LASF41:
 5228 076b 705F7761 		.ascii	"p_waiting\000"
 5228      6974696E 
 5228      6700
 5229              		.ident	"GCC: (4.8.4-1+11-1) 4.8.4 20141219 (release)"
ARM GAS  /tmp/ccukX1CL.s 			page 99


DEFINED SYMBOLS
                            *ABS*:0000000000000000 chqueues.c
     /tmp/ccukX1CL.s:21     .text.chIQObjectInit:0000000000000000 $t
     /tmp/ccukX1CL.s:27     .text.chIQObjectInit:0000000000000000 chIQObjectInit
     /tmp/ccukX1CL.s:80     .text.chIQResetI:0000000000000000 $t
     /tmp/ccukX1CL.s:86     .text.chIQResetI:0000000000000000 chIQResetI
     /tmp/ccukX1CL.s:112    .text.chIQPutI:0000000000000000 $t
     /tmp/ccukX1CL.s:118    .text.chIQPutI:0000000000000000 chIQPutI
     /tmp/ccukX1CL.s:193    .text.chIQGetTimeout:0000000000000000 $t
     /tmp/ccukX1CL.s:199    .text.chIQGetTimeout:0000000000000000 chIQGetTimeout
     /tmp/ccukX1CL.s:344    .text.chIQReadTimeout:0000000000000000 $t
     /tmp/ccukX1CL.s:350    .text.chIQReadTimeout:0000000000000000 chIQReadTimeout
     /tmp/ccukX1CL.s:515    .text.chOQObjectInit:0000000000000000 $t
     /tmp/ccukX1CL.s:521    .text.chOQObjectInit:0000000000000000 chOQObjectInit
     /tmp/ccukX1CL.s:568    .text.chOQResetI:0000000000000000 $t
     /tmp/ccukX1CL.s:574    .text.chOQResetI:0000000000000000 chOQResetI
     /tmp/ccukX1CL.s:607    .text.chOQPutTimeout:0000000000000000 $t
     /tmp/ccukX1CL.s:613    .text.chOQPutTimeout:0000000000000000 chOQPutTimeout
     /tmp/ccukX1CL.s:749    .text.chOQGetI:0000000000000000 $t
     /tmp/ccukX1CL.s:755    .text.chOQGetI:0000000000000000 chOQGetI
     /tmp/ccukX1CL.s:832    .text.chOQWriteTimeout:0000000000000000 $t
     /tmp/ccukX1CL.s:838    .text.chOQWriteTimeout:0000000000000000 chOQWriteTimeout
                     .debug_frame:0000000000000010 $d

UNDEFINED SYMBOLS
chThdDequeueAllI
chThdDequeueNextI
chThdEnqueueTimeoutS
