ARM GAS  /tmp/ccTKOUaO.s 			page 1


   1              		.syntax unified
   2              		.cpu cortex-m4
   3              		.eabi_attribute 27, 3
   4              		.eabi_attribute 28, 1
   5              		.fpu fpv4-sp-d16
   6              		.eabi_attribute 20, 1
   7              		.eabi_attribute 21, 1
   8              		.eabi_attribute 23, 3
   9              		.eabi_attribute 24, 1
  10              		.eabi_attribute 25, 1
  11              		.eabi_attribute 26, 1
  12              		.eabi_attribute 30, 2
  13              		.eabi_attribute 34, 1
  14              		.eabi_attribute 18, 4
  15              		.thumb
  16              		.file	"chschd.c"
  17              		.text
  18              	.Ltext0:
  19              		.cfi_sections	.debug_frame
  20              		.section	.text.wakeup,"ax",%progbits
  21              		.align	2
  22              		.p2align 4,,15
  23              		.thumb
  24              		.thumb_func
  25              		.type	wakeup, %function
  26              	wakeup:
  27              	.LFB222:
  28              		.file 1 "ChibiOS_3.0.2/os/rt/src/chschd.c"
  29              		.loc 1 275 0
  30              		.cfi_startproc
  31              		@ args = 0, pretend = 0, frame = 0
  32              		@ frame_needed = 0, uses_anonymous_args = 0
  33              		@ link register save eliminated.
  34              	.LVL0:
  35 0000 10B4     		push	{r4}
  36              		.cfi_def_cfa_offset 4
  37              		.cfi_offset 4, -4
  38              	.LBB68:
  39              	.LBB69:
  40              	.LBB70:
  41              	.LBB71:
  42              	.LBB72:
  43              		.file 2 "ChibiOS_3.0.2/os/ext/CMSIS/include/core_cmFunc.h"
  44              		.loc 2 546 0
  45 0002 2023     		movs	r3, #32
  46              	@ 546 "ChibiOS_3.0.2/os/ext/CMSIS/include/core_cmFunc.h" 1
  47 0004 83F31188 		MSR basepri, r3
  48              	@ 0 "" 2
  49              		.thumb
  50              	.LBE72:
  51              	.LBE71:
  52              	.LBE70:
  53              	.LBE69:
  54              	.LBE68:
  55              		.loc 1 279 0
  56 0008 037F     		ldrb	r3, [r0, #28]	@ zero_extendqisi2
  57 000a 072B     		cmp	r3, #7
ARM GAS  /tmp/ccTKOUaO.s 			page 2


  58 000c 0ED8     		bhi	.L2
  59 000e DFE803F0 		tbb	[pc, r3]
  60              	.L4:
  61 0012 27       		.byte	(.L3-.L4)/2
  62 0013 0D       		.byte	(.L2-.L4)/2
  63 0014 0D       		.byte	(.L2-.L4)/2
  64 0015 23       		.byte	(.L5-.L4)/2
  65 0016 08       		.byte	(.L6-.L4)/2
  66 0017 04       		.byte	(.L7-.L4)/2
  67 0018 0D       		.byte	(.L2-.L4)/2
  68 0019 08       		.byte	(.L6-.L4)/2
  69              		.p2align 1
  70              	.L7:
  71              		.loc 1 290 0
  72 001a 436A     		ldr	r3, [r0, #36]
  73              	.LVL1:
  74              	.LBB73:
  75              	.LBB74:
  76              		.file 3 "ChibiOS_3.0.2/os/rt/include/chsem.h"
  77              		.loc 3 138 0
  78 001c 9A68     		ldr	r2, [r3, #8]
  79 001e 0132     		adds	r2, r2, #1
  80 0020 9A60     		str	r2, [r3, #8]
  81              	.LVL2:
  82              	.L6:
  83              	.LBE74:
  84              	.LBE73:
  85              	.LBB75:
  86              	.LBB76:
  87              		.file 4 "ChibiOS_3.0.2/os/rt/include/chschd.h"
  88              		.loc 4 691 0
  89 0022 90E80C00 		ldmia	r0, {r2, r3}
  90 0026 1A60     		str	r2, [r3]
  91              		.loc 4 692 0
  92 0028 0268     		ldr	r2, [r0]
  93 002a 5360     		str	r3, [r2, #4]
  94              	.LVL3:
  95              	.L2:
  96              	.LBE76:
  97              	.LBE75:
  98              		.loc 1 304 0
  99 002c 4FF0FF34 		mov	r4, #-1
 100              	.LBB77:
 101              	.LBB78:
 102              		.loc 1 227 0
 103 0030 0022     		movs	r2, #0
 104 0032 8168     		ldr	r1, [r0, #8]
 105              		.loc 1 228 0
 106 0034 0D4B     		ldr	r3, .L12
 107              	.LBE78:
 108              	.LBE77:
 109              		.loc 1 304 0
 110 0036 4462     		str	r4, [r0, #36]
 111              	.LVL4:
 112              	.LBB81:
 113              	.LBB79:
 114              		.loc 1 227 0
ARM GAS  /tmp/ccTKOUaO.s 			page 3


 115 0038 0277     		strb	r2, [r0, #28]
 116              	.LVL5:
 117              	.L10:
 118              		.loc 1 230 0
 119 003a 1B68     		ldr	r3, [r3]
 120              	.LVL6:
 121              		.loc 1 231 0
 122 003c 9A68     		ldr	r2, [r3, #8]
 123 003e 8A42     		cmp	r2, r1
 124 0040 FBD2     		bcs	.L10
 125              		.loc 1 234 0
 126 0042 5A68     		ldr	r2, [r3, #4]
 127 0044 4260     		str	r2, [r0, #4]
 128              		.loc 1 233 0
 129 0046 0360     		str	r3, [r0]
 130              	.LBE79:
 131              	.LBE81:
 132              	.LBB82:
 133              	.LBB83:
 134              	.LBB84:
 135              	.LBB85:
 136              	.LBB86:
 137              		.loc 2 546 0
 138 0048 0021     		movs	r1, #0
 139              	.LBE86:
 140              	.LBE85:
 141              	.LBE84:
 142              	.LBE83:
 143              	.LBE82:
 144              	.LBB91:
 145              	.LBB80:
 146              		.loc 1 235 0
 147 004a 1060     		str	r0, [r2]
 148              		.loc 1 236 0
 149 004c 5860     		str	r0, [r3, #4]
 150              	.LVL7:
 151              	.LBE80:
 152              	.LBE91:
 153              	.LBB92:
 154              	.LBB90:
 155              	.LBB89:
 156              	.LBB88:
 157              	.LBB87:
 158              		.loc 2 546 0
 159              	@ 546 "ChibiOS_3.0.2/os/ext/CMSIS/include/core_cmFunc.h" 1
 160 004e 81F31188 		MSR basepri, r1
 161              	@ 0 "" 2
 162              		.thumb
 163              	.LBE87:
 164              	.LBE88:
 165              	.LBE89:
 166              	.LBE90:
 167              	.LBE92:
 168              		.loc 1 307 0
 169 0052 5DF8044B 		ldr	r4, [sp], #4
 170 0056 7047     		bx	lr
 171              	.LVL8:
ARM GAS  /tmp/ccTKOUaO.s 			page 4


 172              	.L5:
 173              		.loc 1 286 0
 174 0058 436A     		ldr	r3, [r0, #36]
 175 005a 0022     		movs	r2, #0
 176 005c 1A60     		str	r2, [r3]
 177              		.loc 1 287 0
 178 005e E5E7     		b	.L2
 179              	.L3:
 180              	.LVL9:
 181              	.LBB93:
 182              	.LBB94:
 183              	.LBB95:
 184              	.LBB96:
 185              	.LBB97:
 186              		.loc 2 546 0
 187 0060 0023     		movs	r3, #0
 188              	@ 546 "ChibiOS_3.0.2/os/ext/CMSIS/include/core_cmFunc.h" 1
 189 0062 83F31188 		MSR basepri, r3
 190              	@ 0 "" 2
 191              		.thumb
 192              	.LBE97:
 193              	.LBE96:
 194              	.LBE95:
 195              	.LBE94:
 196              	.LBE93:
 197              		.loc 1 307 0
 198 0066 5DF8044B 		ldr	r4, [sp], #4
 199 006a 7047     		bx	lr
 200              	.L13:
 201              		.align	2
 202              	.L12:
 203 006c 00000000 		.word	.LANCHOR0
 204              		.cfi_endproc
 205              	.LFE222:
 206              		.size	wakeup, .-wakeup
 207              		.section	.text._scheduler_init,"ax",%progbits
 208              		.align	2
 209              		.p2align 4,,15
 210              		.global	_scheduler_init
 211              		.thumb
 212              		.thumb_func
 213              		.type	_scheduler_init, %function
 214              	_scheduler_init:
 215              	.LFB219:
 216              		.loc 1 65 0
 217              		.cfi_startproc
 218              		@ args = 0, pretend = 0, frame = 0
 219              		@ frame_needed = 0, uses_anonymous_args = 0
 220              		@ link register save eliminated.
 221              	.LVL10:
 222              	.LBB98:
 223              	.LBB99:
 224              		.loc 4 604 0
 225 0000 034B     		ldr	r3, .L15
 226              	.LBE99:
 227              	.LBE98:
 228              		.loc 1 68 0
ARM GAS  /tmp/ccTKOUaO.s 			page 5


 229 0002 0022     		movs	r2, #0
 230              	.LBB101:
 231              	.LBB100:
 232              		.loc 4 604 0
 233 0004 1B60     		str	r3, [r3]
 234              		.loc 4 605 0
 235 0006 5B60     		str	r3, [r3, #4]
 236              	.LBE100:
 237              	.LBE101:
 238              		.loc 1 70 0
 239 0008 1B61     		str	r3, [r3, #16]
 240              		.loc 1 71 0
 241 000a 5B61     		str	r3, [r3, #20]
 242              		.loc 1 68 0
 243 000c 9A60     		str	r2, [r3, #8]
 244 000e 7047     		bx	lr
 245              	.L16:
 246              		.align	2
 247              	.L15:
 248 0010 00000000 		.word	.LANCHOR0
 249              		.cfi_endproc
 250              	.LFE219:
 251              		.size	_scheduler_init, .-_scheduler_init
 252 0014 AFF30080 		.section	.text.chSchReadyI,"ax",%progbits
 252      AFF30080 
 252      AFF30080 
 253              		.align	2
 254              		.p2align 4,,15
 255              		.global	chSchReadyI
 256              		.thumb
 257              		.thumb_func
 258              		.type	chSchReadyI, %function
 259              	chSchReadyI:
 260              	.LFB220:
 261              		.loc 1 218 0
 262              		.cfi_startproc
 263              		@ args = 0, pretend = 0, frame = 0
 264              		@ frame_needed = 0, uses_anonymous_args = 0
 265              		@ link register save eliminated.
 266              	.LVL11:
 267              		.loc 1 227 0
 268 0000 0022     		movs	r2, #0
 269 0002 8168     		ldr	r1, [r0, #8]
 270              		.loc 1 228 0
 271 0004 084B     		ldr	r3, .L20
 272              		.loc 1 218 0
 273 0006 10B4     		push	{r4}
 274              		.cfi_def_cfa_offset 4
 275              		.cfi_offset 4, -4
 276              		.loc 1 218 0
 277 0008 0446     		mov	r4, r0
 278              		.loc 1 227 0
 279 000a 0277     		strb	r2, [r0, #28]
 280              	.LVL12:
 281              	.L19:
 282              		.loc 1 230 0 discriminator 1
 283 000c 1B68     		ldr	r3, [r3]
ARM GAS  /tmp/ccTKOUaO.s 			page 6


 284              	.LVL13:
 285              		.loc 1 231 0 discriminator 1
 286 000e 9A68     		ldr	r2, [r3, #8]
 287 0010 8A42     		cmp	r2, r1
 288 0012 FBD2     		bcs	.L19
 289              		.loc 1 234 0
 290 0014 5A68     		ldr	r2, [r3, #4]
 291 0016 6260     		str	r2, [r4, #4]
 292              		.loc 1 233 0
 293 0018 2360     		str	r3, [r4]
 294              		.loc 1 239 0
 295 001a 2046     		mov	r0, r4
 296              	.LVL14:
 297              		.loc 1 235 0
 298 001c 1460     		str	r4, [r2]
 299              		.loc 1 236 0
 300 001e 5C60     		str	r4, [r3, #4]
 301              		.loc 1 239 0
 302 0020 5DF8044B 		ldr	r4, [sp], #4
 303              	.LVL15:
 304 0024 7047     		bx	lr
 305              	.L21:
 306 0026 00BF     		.align	2
 307              	.L20:
 308 0028 00000000 		.word	.LANCHOR0
 309              		.cfi_endproc
 310              	.LFE220:
 311              		.size	chSchReadyI, .-chSchReadyI
 312 002c AFF30080 		.section	.text.chSchGoSleepS,"ax",%progbits
 313              		.align	2
 314              		.p2align 4,,15
 315              		.global	chSchGoSleepS
 316              		.thumb
 317              		.thumb_func
 318              		.type	chSchGoSleepS, %function
 319              	chSchGoSleepS:
 320              	.LFB221:
 321              		.loc 1 250 0
 322              		.cfi_startproc
 323              		@ args = 0, pretend = 0, frame = 0
 324              		@ frame_needed = 0, uses_anonymous_args = 0
 325              		@ link register save eliminated.
 326              	.LVL16:
 327              		.loc 1 255 0
 328 0000 084B     		ldr	r3, .L23
 329              		.loc 1 250 0
 330 0002 30B4     		push	{r4, r5}
 331              		.cfi_def_cfa_offset 8
 332              		.cfi_offset 4, -8
 333              		.cfi_offset 5, -4
 334              	.LBB102:
 335              	.LBB103:
 336              		.loc 4 672 0
 337 0004 1A68     		ldr	r2, [r3]
 338              	.LBE103:
 339              	.LBE102:
 340              		.loc 1 255 0
ARM GAS  /tmp/ccTKOUaO.s 			page 7


 341 0006 9969     		ldr	r1, [r3, #24]
 342              	.LVL17:
 343              	.LBB107:
 344              	.LBB104:
 345              		.loc 4 674 0
 346 0008 1468     		ldr	r4, [r2]
 347              	.LBE104:
 348              	.LBE107:
 349              		.loc 1 256 0
 350 000a 0877     		strb	r0, [r1, #28]
 351              		.loc 1 268 0
 352 000c 0125     		movs	r5, #1
 353              		.loc 1 260 0
 354 000e 0420     		movs	r0, #4
 355              	.LVL18:
 356 0010 C877     		strb	r0, [r1, #31]
 357              	.LVL19:
 358              	.LBB108:
 359              	.LBB105:
 360              		.loc 4 675 0
 361 0012 6360     		str	r3, [r4, #4]
 362              	.LBE105:
 363              	.LBE108:
 364              		.loc 1 268 0
 365 0014 1577     		strb	r5, [r2, #28]
 366              	.LVL20:
 367              	.LBB109:
 368              	.LBB106:
 369              		.loc 4 674 0
 370 0016 1C60     		str	r4, [r3]
 371              	.LBE106:
 372              	.LBE109:
 373              		.loc 1 269 0
 374 0018 1046     		mov	r0, r2
 375              		.loc 1 270 0
 376 001a 30BC     		pop	{r4, r5}
 377              		.loc 1 262 0
 378 001c 9A61     		str	r2, [r3, #24]
 379              		.loc 1 269 0
 380 001e FFF7FEBF 		b	_port_switch
 381              	.LVL21:
 382              	.L24:
 383 0022 00BF     		.align	2
 384              	.L23:
 385 0024 00000000 		.word	.LANCHOR0
 386              		.cfi_endproc
 387              	.LFE221:
 388              		.size	chSchGoSleepS, .-chSchGoSleepS
 389 0028 AFF30080 		.section	.text.chSchGoSleepTimeoutS,"ax",%progbits
 389      AFF30080 
 390              		.align	2
 391              		.p2align 4,,15
 392              		.global	chSchGoSleepTimeoutS
 393              		.thumb
 394              		.thumb_func
 395              		.type	chSchGoSleepTimeoutS, %function
 396              	chSchGoSleepTimeoutS:
ARM GAS  /tmp/ccTKOUaO.s 			page 8


 397              	.LFB223:
 398              		.loc 1 330 0
 399              		.cfi_startproc
 400              		@ args = 0, pretend = 0, frame = 24
 401              		@ frame_needed = 0, uses_anonymous_args = 0
 402              	.LVL22:
 403 0000 30B5     		push	{r4, r5, lr}
 404              		.cfi_def_cfa_offset 12
 405              		.cfi_offset 4, -12
 406              		.cfi_offset 5, -8
 407              		.cfi_offset 14, -4
 408              		.loc 1 334 0
 409 0002 4B1C     		adds	r3, r1, #1
 410              		.loc 1 330 0
 411 0004 87B0     		sub	sp, sp, #28
 412              		.cfi_def_cfa_offset 40
 413              		.loc 1 330 0
 414 0006 0546     		mov	r5, r0
 415              		.loc 1 334 0
 416 0008 11D0     		beq	.L26
 417              	.LBB110:
 418              		.loc 1 337 0
 419 000a 0C4C     		ldr	r4, .L32
 420 000c 0C4A     		ldr	r2, .L32+4
 421 000e A369     		ldr	r3, [r4, #24]
 422 0010 01A8     		add	r0, sp, #4
 423              	.LVL23:
 424 0012 FFF7FEFF 		bl	chVTDoSetI
 425              	.LVL24:
 426              		.loc 1 338 0
 427 0016 2846     		mov	r0, r5
 428 0018 FFF7FEFF 		bl	chSchGoSleepS
 429              	.LVL25:
 430              		.loc 1 339 0
 431 001c 049B     		ldr	r3, [sp, #16]
 432 001e 13B1     		cbz	r3, .L28
 433              		.loc 1 340 0
 434 0020 01A8     		add	r0, sp, #4
 435              	.LVL26:
 436 0022 FFF7FEFF 		bl	chVTDoResetI
 437              	.LVL27:
 438              	.L28:
 439              	.LBE110:
 440              		.loc 1 347 0
 441 0026 A369     		ldr	r3, [r4, #24]
 442              		.loc 1 348 0
 443 0028 586A     		ldr	r0, [r3, #36]
 444 002a 07B0     		add	sp, sp, #28
 445              		@ sp needed
 446 002c 30BD     		pop	{r4, r5, pc}
 447              	.LVL28:
 448              	.L26:
 449 002e 034C     		ldr	r4, .L32
 450              		.loc 1 344 0
 451 0030 FFF7FEFF 		bl	chSchGoSleepS
 452              	.LVL29:
 453              		.loc 1 347 0
ARM GAS  /tmp/ccTKOUaO.s 			page 9


 454 0034 A369     		ldr	r3, [r4, #24]
 455              		.loc 1 348 0
 456 0036 586A     		ldr	r0, [r3, #36]
 457 0038 07B0     		add	sp, sp, #28
 458              		@ sp needed
 459 003a 30BD     		pop	{r4, r5, pc}
 460              	.L33:
 461              		.align	2
 462              	.L32:
 463 003c 00000000 		.word	.LANCHOR0
 464 0040 00000000 		.word	wakeup
 465              		.cfi_endproc
 466              	.LFE223:
 467              		.size	chSchGoSleepTimeoutS, .-chSchGoSleepTimeoutS
 468 0044 AFF30080 		.section	.text.chSchWakeupS,"ax",%progbits
 468      AFF30080 
 468      AFF30080 
 469              		.align	2
 470              		.p2align 4,,15
 471              		.global	chSchWakeupS
 472              		.thumb
 473              		.thumb_func
 474              		.type	chSchWakeupS, %function
 475              	chSchWakeupS:
 476              	.LFB224:
 477              		.loc 1 367 0
 478              		.cfi_startproc
 479              		@ args = 0, pretend = 0, frame = 0
 480              		@ frame_needed = 0, uses_anonymous_args = 0
 481              		@ link register save eliminated.
 482              	.LVL30:
 483              		.loc 1 379 0
 484 0000 DFF858C0 		ldr	ip, .L42
 485              		.loc 1 367 0
 486 0004 F0B4     		push	{r4, r5, r6, r7}
 487              		.cfi_def_cfa_offset 16
 488              		.cfi_offset 4, -16
 489              		.cfi_offset 5, -12
 490              		.cfi_offset 6, -8
 491              		.cfi_offset 7, -4
 492              		.loc 1 379 0
 493 0006 DCF81870 		ldr	r7, [ip, #24]
 494 000a 8568     		ldr	r5, [r0, #8]
 495 000c BC68     		ldr	r4, [r7, #8]
 496              		.loc 1 373 0
 497 000e 4162     		str	r1, [r0, #36]
 498              		.loc 1 379 0
 499 0010 A542     		cmp	r5, r4
 500              		.loc 1 367 0
 501 0012 0646     		mov	r6, r0
 502              		.loc 1 379 0
 503 0014 0DD8     		bhi	.L35
 504              	.LVL31:
 505              	.LBB111:
 506              	.LBB112:
 507              		.loc 1 227 0
 508 0016 0022     		movs	r2, #0
ARM GAS  /tmp/ccTKOUaO.s 			page 10


 509              		.loc 1 228 0
 510 0018 6346     		mov	r3, ip
 511              		.loc 1 227 0
 512 001a 0277     		strb	r2, [r0, #28]
 513              	.LVL32:
 514              	.L37:
 515              		.loc 1 230 0
 516 001c 1B68     		ldr	r3, [r3]
 517              	.LVL33:
 518              		.loc 1 231 0
 519 001e 9A68     		ldr	r2, [r3, #8]
 520 0020 9542     		cmp	r5, r2
 521 0022 FBD9     		bls	.L37
 522              		.loc 1 234 0
 523 0024 5A68     		ldr	r2, [r3, #4]
 524 0026 7260     		str	r2, [r6, #4]
 525              		.loc 1 233 0
 526 0028 3360     		str	r3, [r6]
 527              		.loc 1 235 0
 528 002a 1660     		str	r6, [r2]
 529              		.loc 1 236 0
 530 002c 5E60     		str	r6, [r3, #4]
 531              	.LBE112:
 532              	.LBE111:
 533              		.loc 1 393 0
 534 002e F0BC     		pop	{r4, r5, r6, r7}
 535 0030 7047     		bx	lr
 536              	.LVL34:
 537              	.L35:
 538              	.LBB113:
 539              	.LBB114:
 540              	.LBB115:
 541              		.loc 1 227 0
 542 0032 0023     		movs	r3, #0
 543 0034 3B77     		strb	r3, [r7, #28]
 544              	.LVL35:
 545              		.loc 1 228 0
 546 0036 6346     		mov	r3, ip
 547              	.LVL36:
 548              	.L40:
 549              		.loc 1 230 0
 550 0038 1B68     		ldr	r3, [r3]
 551              	.LVL37:
 552              		.loc 1 231 0
 553 003a 9A68     		ldr	r2, [r3, #8]
 554 003c 9442     		cmp	r4, r2
 555 003e FBD9     		bls	.L40
 556              		.loc 1 234 0
 557 0040 5A68     		ldr	r2, [r3, #4]
 558 0042 7A60     		str	r2, [r7, #4]
 559              	.LBE115:
 560              	.LBE114:
 561              		.loc 1 390 0
 562 0044 0124     		movs	r4, #1
 563              	.LBB117:
 564              	.LBB116:
 565              		.loc 1 233 0
ARM GAS  /tmp/ccTKOUaO.s 			page 11


 566 0046 3B60     		str	r3, [r7]
 567              		.loc 1 235 0
 568 0048 1760     		str	r7, [r2]
 569              		.loc 1 236 0
 570 004a 5F60     		str	r7, [r3, #4]
 571              	.LBE116:
 572              	.LBE117:
 573              		.loc 1 390 0
 574 004c 3477     		strb	r4, [r6, #28]
 575              		.loc 1 391 0
 576 004e 3946     		mov	r1, r7
 577              	.LVL38:
 578 0050 3046     		mov	r0, r6
 579              	.LVL39:
 580              		.loc 1 384 0
 581 0052 CCF81860 		str	r6, [ip, #24]
 582              	.LBE113:
 583              		.loc 1 393 0
 584 0056 F0BC     		pop	{r4, r5, r6, r7}
 585              	.LVL40:
 586              	.LBB118:
 587              		.loc 1 391 0
 588 0058 FFF7FEBF 		b	_port_switch
 589              	.LVL41:
 590              	.L43:
 591              		.align	2
 592              	.L42:
 593 005c 00000000 		.word	.LANCHOR0
 594              	.LBE118:
 595              		.cfi_endproc
 596              	.LFE224:
 597              		.size	chSchWakeupS, .-chSchWakeupS
 598              		.section	.text.chSchIsPreemptionRequired,"ax",%progbits
 599              		.align	2
 600              		.p2align 4,,15
 601              		.global	chSchIsPreemptionRequired
 602              		.thumb
 603              		.thumb_func
 604              		.type	chSchIsPreemptionRequired, %function
 605              	chSchIsPreemptionRequired:
 606              	.LFB226:
 607              		.loc 1 424 0
 608              		.cfi_startproc
 609              		@ args = 0, pretend = 0, frame = 0
 610              		@ frame_needed = 0, uses_anonymous_args = 0
 611              		@ link register save eliminated.
 612              		.loc 1 425 0
 613 0000 084A     		ldr	r2, .L48
 614              		.loc 1 426 0
 615 0002 9369     		ldr	r3, [r2, #24]
 616              		.loc 1 425 0
 617 0004 1168     		ldr	r1, [r2]
 618              		.loc 1 433 0
 619 0006 DA7F     		ldrb	r2, [r3, #31]	@ zero_extendqisi2
 620              		.loc 1 425 0
 621 0008 8868     		ldr	r0, [r1, #8]
 622              	.LVL42:
ARM GAS  /tmp/ccTKOUaO.s 			page 12


 623              		.loc 1 426 0
 624 000a 9B68     		ldr	r3, [r3, #8]
 625              	.LVL43:
 626              		.loc 1 433 0
 627 000c 22B9     		cbnz	r2, .L47
 628              		.loc 1 433 0 is_stmt 0 discriminator 2
 629 000e 9842     		cmp	r0, r3
 630 0010 34BF     		ite	cc
 631 0012 0020     		movcc	r0, #0
 632              	.LVL44:
 633 0014 0120     		movcs	r0, #1
 634              		.loc 1 439 0 is_stmt 1 discriminator 2
 635 0016 7047     		bx	lr
 636              	.LVL45:
 637              	.L47:
 638              		.loc 1 433 0 discriminator 1
 639 0018 9842     		cmp	r0, r3
 640 001a 94BF     		ite	ls
 641 001c 0020     		movls	r0, #0
 642              	.LVL46:
 643 001e 0120     		movhi	r0, #1
 644 0020 7047     		bx	lr
 645              	.L49:
 646 0022 00BF     		.align	2
 647              	.L48:
 648 0024 00000000 		.word	.LANCHOR0
 649              		.cfi_endproc
 650              	.LFE226:
 651              		.size	chSchIsPreemptionRequired, .-chSchIsPreemptionRequired
 652 0028 AFF30080 		.section	.text.chSchDoRescheduleBehind,"ax",%progbits
 652      AFF30080 
 653              		.align	2
 654              		.p2align 4,,15
 655              		.global	chSchDoRescheduleBehind
 656              		.thumb
 657              		.thumb_func
 658              		.type	chSchDoRescheduleBehind, %function
 659              	chSchDoRescheduleBehind:
 660              	.LFB227:
 661              		.loc 1 451 0
 662              		.cfi_startproc
 663              		@ args = 0, pretend = 0, frame = 0
 664              		@ frame_needed = 0, uses_anonymous_args = 0
 665              		@ link register save eliminated.
 666              		.loc 1 454 0
 667 0000 0E4A     		ldr	r2, .L54
 668              	.LBB119:
 669              	.LBB120:
 670              		.loc 4 672 0
 671 0002 1068     		ldr	r0, [r2]
 672              	.LBE120:
 673              	.LBE119:
 674              		.loc 1 451 0
 675 0004 F0B4     		push	{r4, r5, r6, r7}
 676              		.cfi_def_cfa_offset 16
 677              		.cfi_offset 4, -16
 678              		.cfi_offset 5, -12
ARM GAS  /tmp/ccTKOUaO.s 			page 13


 679              		.cfi_offset 6, -8
 680              		.cfi_offset 7, -4
 681              	.LBB124:
 682              	.LBB121:
 683              		.loc 4 674 0
 684 0006 0368     		ldr	r3, [r0]
 685              	.LBE121:
 686              	.LBE124:
 687              		.loc 1 454 0
 688 0008 9569     		ldr	r5, [r2, #24]
 689              	.LVL47:
 690              	.LBB125:
 691              	.LBB122:
 692              		.loc 4 674 0
 693 000a 1360     		str	r3, [r2]
 694              	.LBE122:
 695              	.LBE125:
 696              		.loc 1 462 0
 697 000c 0127     		movs	r7, #1
 698              		.loc 1 464 0
 699 000e 0426     		movs	r6, #4
 700              	.LBB126:
 701              	.LBB127:
 702              		.loc 1 227 0
 703 0010 0021     		movs	r1, #0
 704 0012 AC68     		ldr	r4, [r5, #8]
 705              	.LBE127:
 706              	.LBE126:
 707              	.LBB130:
 708              	.LBB123:
 709              		.loc 4 675 0
 710 0014 5A60     		str	r2, [r3, #4]
 711              	.LBE123:
 712              	.LBE130:
 713              		.loc 1 462 0
 714 0016 0777     		strb	r7, [r0, #28]
 715              		.loc 1 456 0
 716 0018 9061     		str	r0, [r2, #24]
 717              		.loc 1 464 0
 718 001a EE77     		strb	r6, [r5, #31]
 719              	.LVL48:
 720              	.LBB131:
 721              	.LBB128:
 722              		.loc 1 227 0
 723 001c 2977     		strb	r1, [r5, #28]
 724              	.LVL49:
 725 001e 00E0     		b	.L52
 726              	.LVL50:
 727              	.L53:
 728 0020 1B68     		ldr	r3, [r3]
 729              	.LVL51:
 730              	.L52:
 731              		.loc 1 231 0
 732 0022 9A68     		ldr	r2, [r3, #8]
 733 0024 A242     		cmp	r2, r4
 734 0026 FBD2     		bcs	.L53
 735              		.loc 1 234 0
ARM GAS  /tmp/ccTKOUaO.s 			page 14


 736 0028 5A68     		ldr	r2, [r3, #4]
 737 002a 6A60     		str	r2, [r5, #4]
 738              		.loc 1 233 0
 739 002c 2B60     		str	r3, [r5]
 740              	.LBE128:
 741              	.LBE131:
 742              		.loc 1 467 0
 743 002e 2946     		mov	r1, r5
 744              	.LBB132:
 745              	.LBB129:
 746              		.loc 1 235 0
 747 0030 1560     		str	r5, [r2]
 748              		.loc 1 236 0
 749 0032 5D60     		str	r5, [r3, #4]
 750              	.LBE129:
 751              	.LBE132:
 752              		.loc 1 468 0
 753 0034 F0BC     		pop	{r4, r5, r6, r7}
 754              	.LVL52:
 755              		.loc 1 467 0
 756 0036 FFF7FEBF 		b	_port_switch
 757              	.LVL53:
 758              	.L55:
 759 003a 00BF     		.align	2
 760              	.L54:
 761 003c 00000000 		.word	.LANCHOR0
 762              		.cfi_endproc
 763              	.LFE227:
 764              		.size	chSchDoRescheduleBehind, .-chSchDoRescheduleBehind
 765              		.section	.text.chSchDoRescheduleAhead,"ax",%progbits
 766              		.align	2
 767              		.p2align 4,,15
 768              		.global	chSchDoRescheduleAhead
 769              		.thumb
 770              		.thumb_func
 771              		.type	chSchDoRescheduleAhead, %function
 772              	chSchDoRescheduleAhead:
 773              	.LFB228:
 774              		.loc 1 479 0
 775              		.cfi_startproc
 776              		@ args = 0, pretend = 0, frame = 0
 777              		@ frame_needed = 0, uses_anonymous_args = 0
 778              		@ link register save eliminated.
 779              		.loc 1 482 0
 780 0000 0D4A     		ldr	r2, .L60
 781              	.LBB133:
 782              	.LBB134:
 783              		.loc 4 672 0
 784 0002 1068     		ldr	r0, [r2]
 785              	.LBE134:
 786              	.LBE133:
 787              		.loc 1 479 0
 788 0004 70B4     		push	{r4, r5, r6}
 789              		.cfi_def_cfa_offset 12
 790              		.cfi_offset 4, -12
 791              		.cfi_offset 5, -8
 792              		.cfi_offset 6, -4
ARM GAS  /tmp/ccTKOUaO.s 			page 15


 793              	.LBB138:
 794              	.LBB135:
 795              		.loc 4 674 0
 796 0006 0368     		ldr	r3, [r0]
 797              	.LBE135:
 798              	.LBE138:
 799              		.loc 1 482 0
 800 0008 9569     		ldr	r5, [r2, #24]
 801              	.LVL54:
 802              	.LBB139:
 803              	.LBB136:
 804              		.loc 4 674 0
 805 000a 1360     		str	r3, [r2]
 806              	.LBE136:
 807              	.LBE139:
 808              		.loc 1 490 0
 809 000c 0126     		movs	r6, #1
 810              		.loc 1 492 0
 811 000e 0021     		movs	r1, #0
 812 0010 AC68     		ldr	r4, [r5, #8]
 813              	.LBB140:
 814              	.LBB137:
 815              		.loc 4 675 0
 816 0012 5A60     		str	r2, [r3, #4]
 817              	.LBE137:
 818              	.LBE140:
 819              		.loc 1 490 0
 820 0014 0677     		strb	r6, [r0, #28]
 821              		.loc 1 484 0
 822 0016 9061     		str	r0, [r2, #24]
 823              		.loc 1 492 0
 824 0018 2977     		strb	r1, [r5, #28]
 825              	.LVL55:
 826 001a 00E0     		b	.L58
 827              	.LVL56:
 828              	.L59:
 829 001c 1B68     		ldr	r3, [r3]
 830              	.LVL57:
 831              	.L58:
 832              		.loc 1 496 0 discriminator 1
 833 001e 9A68     		ldr	r2, [r3, #8]
 834 0020 A242     		cmp	r2, r4
 835 0022 FBD8     		bhi	.L59
 836              		.loc 1 499 0
 837 0024 5A68     		ldr	r2, [r3, #4]
 838 0026 6A60     		str	r2, [r5, #4]
 839              		.loc 1 498 0
 840 0028 2B60     		str	r3, [r5]
 841              		.loc 1 503 0
 842 002a 2946     		mov	r1, r5
 843              		.loc 1 500 0
 844 002c 1560     		str	r5, [r2]
 845              		.loc 1 501 0
 846 002e 5D60     		str	r5, [r3, #4]
 847              		.loc 1 504 0
 848 0030 70BC     		pop	{r4, r5, r6}
 849              	.LVL58:
ARM GAS  /tmp/ccTKOUaO.s 			page 16


 850              		.loc 1 503 0
 851 0032 FFF7FEBF 		b	_port_switch
 852              	.LVL59:
 853              	.L61:
 854 0036 00BF     		.align	2
 855              	.L60:
 856 0038 00000000 		.word	.LANCHOR0
 857              		.cfi_endproc
 858              	.LFE228:
 859              		.size	chSchDoRescheduleAhead, .-chSchDoRescheduleAhead
 860 003c AFF30080 		.section	.text.chSchRescheduleS,"ax",%progbits
 861              		.align	2
 862              		.p2align 4,,15
 863              		.global	chSchRescheduleS
 864              		.thumb
 865              		.thumb_func
 866              		.type	chSchRescheduleS, %function
 867              	chSchRescheduleS:
 868              	.LFB225:
 869              		.loc 1 402 0
 870              		.cfi_startproc
 871              		@ args = 0, pretend = 0, frame = 0
 872              		@ frame_needed = 0, uses_anonymous_args = 0
 873              		@ link register save eliminated.
 874              	.LBB141:
 875              	.LBB142:
 876              		.loc 4 713 0
 877 0000 044B     		ldr	r3, .L65
 878 0002 1A68     		ldr	r2, [r3]
 879 0004 9B69     		ldr	r3, [r3, #24]
 880              	.LBE142:
 881              	.LBE141:
 882              		.loc 1 406 0
 883 0006 9268     		ldr	r2, [r2, #8]
 884 0008 9B68     		ldr	r3, [r3, #8]
 885 000a 9A42     		cmp	r2, r3
 886 000c 00D8     		bhi	.L64
 887 000e 7047     		bx	lr
 888              	.L64:
 889              		.loc 1 407 0
 890 0010 FFF7FEBF 		b	chSchDoRescheduleAhead
 891              	.LVL60:
 892              	.L66:
 893              		.align	2
 894              	.L65:
 895 0014 00000000 		.word	.LANCHOR0
 896              		.cfi_endproc
 897              	.LFE225:
 898              		.size	chSchRescheduleS, .-chSchRescheduleS
 899 0018 AFF30080 		.section	.text.chSchDoReschedule,"ax",%progbits
 899      AFF30080 
 900              		.align	2
 901              		.p2align 4,,15
 902              		.global	chSchDoReschedule
 903              		.thumb
 904              		.thumb_func
 905              		.type	chSchDoReschedule, %function
ARM GAS  /tmp/ccTKOUaO.s 			page 17


 906              	chSchDoReschedule:
 907              	.LFB229:
 908              		.loc 1 516 0
 909              		.cfi_startproc
 910              		@ args = 0, pretend = 0, frame = 0
 911              		@ frame_needed = 0, uses_anonymous_args = 0
 912              		@ link register save eliminated.
 913              		.loc 1 521 0
 914 0000 034B     		ldr	r3, .L70
 915 0002 9B69     		ldr	r3, [r3, #24]
 916 0004 DB7F     		ldrb	r3, [r3, #31]	@ zero_extendqisi2
 917 0006 0BB1     		cbz	r3, .L69
 918              		.loc 1 529 0
 919 0008 FFF7FEBF 		b	chSchDoRescheduleAhead
 920              	.LVL61:
 921              	.L69:
 922              		.loc 1 524 0
 923 000c FFF7FEBF 		b	chSchDoRescheduleBehind
 924              	.LVL62:
 925              	.L71:
 926              		.align	2
 927              	.L70:
 928 0010 00000000 		.word	.LANCHOR0
 929              		.cfi_endproc
 930              	.LFE229:
 931              		.size	chSchDoReschedule, .-chSchDoReschedule
 932              		.global	ch
 933 0014 AFF30080 		.section	.bss.ch,"aw",%nobits
 933      AFF30080 
 933      AFF30080 
 934              		.align	3
 935              		.set	.LANCHOR0,. + 0
 936              		.type	ch, %object
 937              		.size	ch, 600
 938              	ch:
 939 0000 00000000 		.space	600
 939      00000000 
 939      00000000 
 939      00000000 
 939      00000000 
 940              		.text
 941              	.Letext0:
 942              		.file 5 "/usr/lib/gcc/arm-none-eabi/4.8/include/stddef.h"
 943              		.file 6 "/usr/include/newlib/machine/_default_types.h"
 944              		.file 7 "/usr/include/newlib/stdint.h"
 945              		.file 8 "ChibiOS_3.0.2/os/rt/ports/ARMCMx/compilers/GCC/chtypes.h"
 946              		.file 9 "ChibiOS_3.0.2/os/rt/include/chsystypes.h"
 947              		.file 10 "ChibiOS_3.0.2/os/rt/ports/ARMCMx/chcore.h"
 948              		.file 11 "ChibiOS_3.0.2/os/rt/ports/ARMCMx/chcore_v7m.h"
 949              		.file 12 "ChibiOS_3.0.2/os/rt/include/chtm.h"
 950              		.file 13 "ChibiOS_3.0.2/os/rt/include/chmtx.h"
 951              		.file 14 "ChibiOS_3.0.2/os/rt/include/chvt.h"
 952              		.file 15 "ChibiOS_3.0.2/os/rt/include/chsys.h"
 953              		.file 16 "ChibiOS_3.0.2/os/ext/CMSIS/include/core_cm4.h"