ARM GAS  /tmp/ccvWj7Xf.s 			page 1


   1              		.syntax unified
   2              		.cpu cortex-m4
   3              		.eabi_attribute 27, 3
   4              		.eabi_attribute 28, 1
   5              		.fpu fpv4-sp-d16
   6              		.eabi_attribute 20, 1
   7              		.eabi_attribute 21, 1
   8              		.eabi_attribute 23, 3
   9              		.eabi_attribute 24, 1
  10              		.eabi_attribute 25, 1
  11              		.eabi_attribute 26, 1
  12              		.eabi_attribute 30, 2
  13              		.eabi_attribute 34, 1
  14              		.eabi_attribute 18, 4
  15              		.thumb
  16              		.file	"chsem.c"
  17              		.text
  18              	.Ltext0:
  19              		.cfi_sections	.debug_frame
  20              		.section	.text.chSemObjectInit,"ax",%progbits
  21              		.align	2
  22              		.p2align 4,,15
  23              		.global	chSemObjectInit
  24              		.thumb
  25              		.thumb_func
  26              		.type	chSemObjectInit, %function
  27              	chSemObjectInit:
  28              	.LFB219:
  29              		.file 1 "ChibiOS_3.0.2/os/rt/src/chsem.c"
  30              		.loc 1 97 0
  31              		.cfi_startproc
  32              		@ args = 0, pretend = 0, frame = 0
  33              		@ frame_needed = 0, uses_anonymous_args = 0
  34              		@ link register save eliminated.
  35              	.LVL0:
  36              	.LBB84:
  37              	.LBB85:
  38              		.file 2 "ChibiOS_3.0.2/os/rt/include/chschd.h"
  39              		.loc 2 604 0
  40 0000 0060     		str	r0, [r0]
  41              		.loc 2 605 0
  42 0002 4060     		str	r0, [r0, #4]
  43              	.LBE85:
  44              	.LBE84:
  45              		.loc 1 102 0
  46 0004 8160     		str	r1, [r0, #8]
  47 0006 7047     		bx	lr
  48              		.cfi_endproc
  49              	.LFE219:
  50              		.size	chSemObjectInit, .-chSemObjectInit
  51 0008 AFF30080 		.section	.text.chSemResetI,"ax",%progbits
  51      AFF30080 
  52              		.align	2
  53              		.p2align 4,,15
  54              		.global	chSemResetI
  55              		.thumb
  56              		.thumb_func
ARM GAS  /tmp/ccvWj7Xf.s 			page 2


  57              		.type	chSemResetI, %function
  58              	chSemResetI:
  59              	.LFB221:
  60              		.loc 1 147 0
  61              		.cfi_startproc
  62              		@ args = 0, pretend = 0, frame = 0
  63              		@ frame_needed = 0, uses_anonymous_args = 0
  64              	.LVL1:
  65 0000 70B5     		push	{r4, r5, r6, lr}
  66              		.cfi_def_cfa_offset 16
  67              		.cfi_offset 4, -16
  68              		.cfi_offset 5, -12
  69              		.cfi_offset 6, -8
  70              		.cfi_offset 14, -4
  71              		.loc 1 156 0
  72 0002 8568     		ldr	r5, [r0, #8]
  73              	.LVL2:
  74              		.loc 1 157 0
  75 0004 8160     		str	r1, [r0, #8]
  76              		.loc 1 158 0
  77 0006 0135     		adds	r5, r5, #1
  78              	.LVL3:
  79 0008 002D     		cmp	r5, #0
  80              		.loc 1 147 0
  81 000a 0446     		mov	r4, r0
  82              		.loc 1 158 0
  83 000c 0BDC     		bgt	.L2
  84              		.loc 1 159 0
  85 000e 6FF00106 		mvn	r6, #1
  86              	.LVL4:
  87              	.L5:
  88              	.LBB86:
  89              	.LBB87:
  90              		.loc 2 681 0
  91 0012 6068     		ldr	r0, [r4, #4]
  92              	.LVL5:
  93              		.loc 2 683 0
  94 0014 4368     		ldr	r3, [r0, #4]
  95 0016 6360     		str	r3, [r4, #4]
  96              		.loc 2 684 0
  97 0018 1C60     		str	r4, [r3]
  98              	.LBE87:
  99              	.LBE86:
 100              		.loc 1 159 0
 101 001a FFF7FEFF 		bl	chSchReadyI
 102              	.LVL6:
 103              		.loc 1 158 0
 104 001e 0135     		adds	r5, r5, #1
 105              	.LVL7:
 106 0020 012D     		cmp	r5, #1
 107              		.loc 1 159 0
 108 0022 4662     		str	r6, [r0, #36]
 109              	.LVL8:
 110              		.loc 1 158 0
 111 0024 F5D1     		bne	.L5
 112              	.LVL9:
 113              	.L2:
ARM GAS  /tmp/ccvWj7Xf.s 			page 3


 114 0026 70BD     		pop	{r4, r5, r6, pc}
 115              		.cfi_endproc
 116              	.LFE221:
 117              		.size	chSemResetI, .-chSemResetI
 118 0028 AFF30080 		.section	.text.chSemReset,"ax",%progbits
 118      AFF30080 
 119              		.align	2
 120              		.p2align 4,,15
 121              		.global	chSemReset
 122              		.thumb
 123              		.thumb_func
 124              		.type	chSemReset, %function
 125              	chSemReset:
 126              	.LFB220:
 127              		.loc 1 120 0
 128              		.cfi_startproc
 129              		@ args = 0, pretend = 0, frame = 0
 130              		@ frame_needed = 0, uses_anonymous_args = 0
 131              	.LVL10:
 132 0000 08B5     		push	{r3, lr}
 133              		.cfi_def_cfa_offset 8
 134              		.cfi_offset 3, -8
 135              		.cfi_offset 14, -4
 136              	.LBB88:
 137              	.LBB89:
 138              	.LBB90:
 139              	.LBB91:
 140              		.file 3 "ChibiOS_3.0.2/os/ext/CMSIS/include/core_cmFunc.h"
 141              		.loc 3 546 0
 142 0002 2023     		movs	r3, #32
 143              	@ 546 "ChibiOS_3.0.2/os/ext/CMSIS/include/core_cmFunc.h" 1
 144 0004 83F31188 		MSR basepri, r3
 145              	@ 0 "" 2
 146              		.thumb
 147              	.LBE91:
 148              	.LBE90:
 149              	.LBE89:
 150              	.LBE88:
 151              		.loc 1 123 0
 152 0008 FFF7FEFF 		bl	chSemResetI
 153              	.LVL11:
 154              		.loc 1 124 0
 155 000c FFF7FEFF 		bl	chSchRescheduleS
 156              	.LVL12:
 157              	.LBB92:
 158              	.LBB93:
 159              	.LBB94:
 160              	.LBB95:
 161              	.LBB96:
 162              		.loc 3 546 0
 163 0010 0023     		movs	r3, #0
 164              	@ 546 "ChibiOS_3.0.2/os/ext/CMSIS/include/core_cmFunc.h" 1
 165 0012 83F31188 		MSR basepri, r3
 166              	@ 0 "" 2
 167              		.thumb
 168 0016 08BD     		pop	{r3, pc}
 169              	.LBE96:
ARM GAS  /tmp/ccvWj7Xf.s 			page 4


 170              	.LBE95:
 171              	.LBE94:
 172              	.LBE93:
 173              	.LBE92:
 174              		.cfi_endproc
 175              	.LFE220:
 176              		.size	chSemReset, .-chSemReset
 177 0018 AFF30080 		.section	.text.chSemWaitS,"ax",%progbits
 177      AFF30080 
 178              		.align	2
 179              		.p2align 4,,15
 180              		.global	chSemWaitS
 181              		.thumb
 182              		.thumb_func
 183              		.type	chSemWaitS, %function
 184              	chSemWaitS:
 185              	.LFB223:
 186              		.loc 1 197 0
 187              		.cfi_startproc
 188              		@ args = 0, pretend = 0, frame = 0
 189              		@ frame_needed = 0, uses_anonymous_args = 0
 190              	.LVL13:
 191              		.loc 1 205 0
 192 0000 8268     		ldr	r2, [r0, #8]
 193 0002 013A     		subs	r2, r2, #1
 194 0004 002A     		cmp	r2, #0
 195              		.loc 1 197 0
 196 0006 10B5     		push	{r4, lr}
 197              		.cfi_def_cfa_offset 8
 198              		.cfi_offset 4, -8
 199              		.cfi_offset 14, -4
 200              		.loc 1 197 0
 201 0008 0346     		mov	r3, r0
 202              		.loc 1 205 0
 203 000a 8260     		str	r2, [r0, #8]
 204 000c 01DB     		blt	.L14
 205              		.loc 1 213 0
 206 000e 0020     		movs	r0, #0
 207              	.LVL14:
 208              		.loc 1 214 0
 209 0010 10BD     		pop	{r4, pc}
 210              	.LVL15:
 211              	.L14:
 212              		.loc 1 206 0
 213 0012 074C     		ldr	r4, .L15
 214 0014 A269     		ldr	r2, [r4, #24]
 215 0016 5062     		str	r0, [r2, #36]
 216              	.LVL16:
 217              	.LBB97:
 218              	.LBB98:
 219              		.loc 2 666 0
 220 0018 4168     		ldr	r1, [r0, #4]
 221 001a 5160     		str	r1, [r2, #4]
 222              		.loc 2 665 0
 223 001c 1060     		str	r0, [r2]
 224              		.loc 2 667 0
 225 001e 0A60     		str	r2, [r1]
ARM GAS  /tmp/ccvWj7Xf.s 			page 5


 226              	.LBE98:
 227              	.LBE97:
 228              		.loc 1 208 0
 229 0020 0520     		movs	r0, #5
 230              	.LVL17:
 231              	.LBB100:
 232              	.LBB99:
 233              		.loc 2 668 0
 234 0022 5A60     		str	r2, [r3, #4]
 235              	.LVL18:
 236              	.LBE99:
 237              	.LBE100:
 238              		.loc 1 208 0
 239 0024 FFF7FEFF 		bl	chSchGoSleepS
 240              	.LVL19:
 241              		.loc 1 210 0
 242 0028 A369     		ldr	r3, [r4, #24]
 243 002a 586A     		ldr	r0, [r3, #36]
 244 002c 10BD     		pop	{r4, pc}
 245              	.L16:
 246 002e 00BF     		.align	2
 247              	.L15:
 248 0030 00000000 		.word	ch
 249              		.cfi_endproc
 250              	.LFE223:
 251              		.size	chSemWaitS, .-chSemWaitS
 252 0034 AFF30080 		.section	.text.chSemWait,"ax",%progbits
 252      AFF30080 
 252      AFF30080 
 253              		.align	2
 254              		.p2align 4,,15
 255              		.global	chSemWait
 256              		.thumb
 257              		.thumb_func
 258              		.type	chSemWait, %function
 259              	chSemWait:
 260              	.LFB222:
 261              		.loc 1 175 0
 262              		.cfi_startproc
 263              		@ args = 0, pretend = 0, frame = 0
 264              		@ frame_needed = 0, uses_anonymous_args = 0
 265              	.LVL20:
 266 0000 08B5     		push	{r3, lr}
 267              		.cfi_def_cfa_offset 8
 268              		.cfi_offset 3, -8
 269              		.cfi_offset 14, -4
 270              	.LBB101:
 271              	.LBB102:
 272              	.LBB103:
 273              	.LBB104:
 274              		.loc 3 546 0
 275 0002 2023     		movs	r3, #32
 276              	@ 546 "ChibiOS_3.0.2/os/ext/CMSIS/include/core_cmFunc.h" 1
 277 0004 83F31188 		MSR basepri, r3
 278              	@ 0 "" 2
 279              		.thumb
 280              	.LBE104:
ARM GAS  /tmp/ccvWj7Xf.s 			page 6


 281              	.LBE103:
 282              	.LBE102:
 283              	.LBE101:
 284              		.loc 1 179 0
 285 0008 FFF7FEFF 		bl	chSemWaitS
 286              	.LVL21:
 287              	.LBB105:
 288              	.LBB106:
 289              	.LBB107:
 290              	.LBB108:
 291              	.LBB109:
 292              		.loc 3 546 0
 293 000c 0023     		movs	r3, #0
 294              	@ 546 "ChibiOS_3.0.2/os/ext/CMSIS/include/core_cmFunc.h" 1
 295 000e 83F31188 		MSR basepri, r3
 296              	@ 0 "" 2
 297              		.thumb
 298              	.LBE109:
 299              	.LBE108:
 300              	.LBE107:
 301              	.LBE106:
 302              	.LBE105:
 303              		.loc 1 183 0
 304 0012 08BD     		pop	{r3, pc}
 305              		.cfi_endproc
 306              	.LFE222:
 307              		.size	chSemWait, .-chSemWait
 308 0014 AFF30080 		.section	.text.chSemWaitTimeoutS,"ax",%progbits
 308      AFF30080 
 308      AFF30080 
 309              		.align	2
 310              		.p2align 4,,15
 311              		.global	chSemWaitTimeoutS
 312              		.thumb
 313              		.thumb_func
 314              		.type	chSemWaitTimeoutS, %function
 315              	chSemWaitTimeoutS:
 316              	.LFB225:
 317              		.loc 1 264 0
 318              		.cfi_startproc
 319              		@ args = 0, pretend = 0, frame = 0
 320              		@ frame_needed = 0, uses_anonymous_args = 0
 321              		@ link register save eliminated.
 322              	.LVL22:
 323 0000 0346     		mov	r3, r0
 324              		.loc 1 272 0
 325 0002 8068     		ldr	r0, [r0, #8]
 326              	.LVL23:
 327 0004 421E     		subs	r2, r0, #1
 328 0006 002A     		cmp	r2, #0
 329              		.loc 1 264 0
 330 0008 10B4     		push	{r4}
 331              		.cfi_def_cfa_offset 4
 332              		.cfi_offset 4, -4
 333              		.loc 1 272 0
 334 000a 9A60     		str	r2, [r3, #8]
 335 000c 03DB     		blt	.L22
ARM GAS  /tmp/ccvWj7Xf.s 			page 7


 336              		.loc 1 284 0
 337 000e 0020     		movs	r0, #0
 338              	.L19:
 339              		.loc 1 285 0
 340 0010 5DF8044B 		ldr	r4, [sp], #4
 341 0014 7047     		bx	lr
 342              	.L22:
 343              		.loc 1 273 0
 344 0016 61B1     		cbz	r1, .L23
 345              		.loc 1 278 0
 346 0018 084A     		ldr	r2, .L24
 347 001a 9269     		ldr	r2, [r2, #24]
 348 001c 5362     		str	r3, [r2, #36]
 349              	.LVL24:
 350              	.LBB110:
 351              	.LBB111:
 352              		.loc 2 666 0
 353 001e 5C68     		ldr	r4, [r3, #4]
 354              	.LBE111:
 355              	.LBE110:
 356              		.loc 1 281 0
 357 0020 0520     		movs	r0, #5
 358              	.LBB113:
 359              	.LBB112:
 360              		.loc 2 666 0
 361 0022 82E81800 		stmia	r2, {r3, r4}
 362              		.loc 2 667 0
 363 0026 2260     		str	r2, [r4]
 364              		.loc 2 668 0
 365 0028 5A60     		str	r2, [r3, #4]
 366              	.LVL25:
 367              	.LBE112:
 368              	.LBE113:
 369              		.loc 1 285 0
 370 002a 5DF8044B 		ldr	r4, [sp], #4
 371              		.loc 1 281 0
 372 002e FFF7FEBF 		b	chSchGoSleepTimeoutS
 373              	.LVL26:
 374              	.L23:
 375              		.loc 1 274 0
 376 0032 9860     		str	r0, [r3, #8]
 377              		.loc 1 276 0
 378 0034 4FF0FF30 		mov	r0, #-1
 379 0038 EAE7     		b	.L19
 380              	.L25:
 381 003a 00BF     		.align	2
 382              	.L24:
 383 003c 00000000 		.word	ch
 384              		.cfi_endproc
 385              	.LFE225:
 386              		.size	chSemWaitTimeoutS, .-chSemWaitTimeoutS
 387              		.section	.text.chSemWaitTimeout,"ax",%progbits
 388              		.align	2
 389              		.p2align 4,,15
 390              		.global	chSemWaitTimeout
 391              		.thumb
 392              		.thumb_func
ARM GAS  /tmp/ccvWj7Xf.s 			page 8


 393              		.type	chSemWaitTimeout, %function
 394              	chSemWaitTimeout:
 395              	.LFB224:
 396              		.loc 1 235 0
 397              		.cfi_startproc
 398              		@ args = 0, pretend = 0, frame = 0
 399              		@ frame_needed = 0, uses_anonymous_args = 0
 400              	.LVL27:
 401 0000 08B5     		push	{r3, lr}
 402              		.cfi_def_cfa_offset 8
 403              		.cfi_offset 3, -8
 404              		.cfi_offset 14, -4
 405              	.LBB114:
 406              	.LBB115:
 407              	.LBB116:
 408              	.LBB117:
 409              		.loc 3 546 0
 410 0002 2023     		movs	r3, #32
 411              	@ 546 "ChibiOS_3.0.2/os/ext/CMSIS/include/core_cmFunc.h" 1
 412 0004 83F31188 		MSR basepri, r3
 413              	@ 0 "" 2
 414              		.thumb
 415              	.LBE117:
 416              	.LBE116:
 417              	.LBE115:
 418              	.LBE114:
 419              		.loc 1 239 0
 420 0008 FFF7FEFF 		bl	chSemWaitTimeoutS
 421              	.LVL28:
 422              	.LBB118:
 423              	.LBB119:
 424              	.LBB120:
 425              	.LBB121:
 426              	.LBB122:
 427              		.loc 3 546 0
 428 000c 0023     		movs	r3, #0
 429              	@ 546 "ChibiOS_3.0.2/os/ext/CMSIS/include/core_cmFunc.h" 1
 430 000e 83F31188 		MSR basepri, r3
 431              	@ 0 "" 2
 432              		.thumb
 433              	.LBE122:
 434              	.LBE121:
 435              	.LBE120:
 436              	.LBE119:
 437              	.LBE118:
 438              		.loc 1 243 0
 439 0012 08BD     		pop	{r3, pc}
 440              		.cfi_endproc
 441              	.LFE224:
 442              		.size	chSemWaitTimeout, .-chSemWaitTimeout
 443 0014 AFF30080 		.section	.text.chSemSignal,"ax",%progbits
 443      AFF30080 
 443      AFF30080 
 444              		.align	2
 445              		.p2align 4,,15
 446              		.global	chSemSignal
 447              		.thumb
ARM GAS  /tmp/ccvWj7Xf.s 			page 9


 448              		.thumb_func
 449              		.type	chSemSignal, %function
 450              	chSemSignal:
 451              	.LFB226:
 452              		.loc 1 294 0
 453              		.cfi_startproc
 454              		@ args = 0, pretend = 0, frame = 0
 455              		@ frame_needed = 0, uses_anonymous_args = 0
 456              	.LVL29:
 457 0000 08B5     		push	{r3, lr}
 458              		.cfi_def_cfa_offset 8
 459              		.cfi_offset 3, -8
 460              		.cfi_offset 14, -4
 461              	.LBB123:
 462              	.LBB124:
 463              	.LBB125:
 464              	.LBB126:
 465              		.loc 3 546 0
 466 0002 2022     		movs	r2, #32
 467              	.LBE126:
 468              	.LBE125:
 469              	.LBE124:
 470              	.LBE123:
 471              		.loc 1 294 0
 472 0004 0346     		mov	r3, r0
 473              	.LBB130:
 474              	.LBB129:
 475              	.LBB128:
 476              	.LBB127:
 477              		.loc 3 546 0
 478              	@ 546 "ChibiOS_3.0.2/os/ext/CMSIS/include/core_cmFunc.h" 1
 479 0006 82F31188 		MSR basepri, r2
 480              	@ 0 "" 2
 481              		.thumb
 482              	.LBE127:
 483              	.LBE128:
 484              	.LBE129:
 485              	.LBE130:
 486              		.loc 1 302 0
 487 000a 8268     		ldr	r2, [r0, #8]
 488 000c 0132     		adds	r2, r2, #1
 489 000e 002A     		cmp	r2, #0
 490 0010 8260     		str	r2, [r0, #8]
 491 0012 03DD     		ble	.L29
 492              	.LVL30:
 493              	.LBB131:
 494              	.LBB132:
 495              	.LBB133:
 496              	.LBB134:
 497              	.LBB135:
 498              		.loc 3 546 0
 499 0014 0023     		movs	r3, #0
 500              	@ 546 "ChibiOS_3.0.2/os/ext/CMSIS/include/core_cmFunc.h" 1
 501 0016 83F31188 		MSR basepri, r3
 502              	@ 0 "" 2
 503              		.thumb
 504 001a 08BD     		pop	{r3, pc}
ARM GAS  /tmp/ccvWj7Xf.s 			page 10


 505              	.LVL31:
 506              	.L29:
 507              	.LBE135:
 508              	.LBE134:
 509              	.LBE133:
 510              	.LBE132:
 511              	.LBE131:
 512              	.LBB140:
 513              	.LBB141:
 514              		.loc 2 672 0
 515 001c 0068     		ldr	r0, [r0]
 516              	.LVL32:
 517              		.loc 2 674 0
 518 001e 0268     		ldr	r2, [r0]
 519 0020 1A60     		str	r2, [r3]
 520              	.LBE141:
 521              	.LBE140:
 522              		.loc 1 303 0
 523 0022 0021     		movs	r1, #0
 524              	.LBB143:
 525              	.LBB142:
 526              		.loc 2 675 0
 527 0024 5360     		str	r3, [r2, #4]
 528              	.LBE142:
 529              	.LBE143:
 530              		.loc 1 303 0
 531 0026 FFF7FEFF 		bl	chSchWakeupS
 532              	.LVL33:
 533              	.LBB144:
 534              	.LBB139:
 535              	.LBB138:
 536              	.LBB137:
 537              	.LBB136:
 538              		.loc 3 546 0
 539 002a 0023     		movs	r3, #0
 540              	@ 546 "ChibiOS_3.0.2/os/ext/CMSIS/include/core_cmFunc.h" 1
 541 002c 83F31188 		MSR basepri, r3
 542              	@ 0 "" 2
 543              		.thumb
 544 0030 08BD     		pop	{r3, pc}
 545              	.LBE136:
 546              	.LBE137:
 547              	.LBE138:
 548              	.LBE139:
 549              	.LBE144:
 550              		.cfi_endproc
 551              	.LFE226:
 552              		.size	chSemSignal, .-chSemSignal
 553 0032 00BFAFF3 		.section	.text.chSemSignalI,"ax",%progbits
 553      0080AFF3 
 553      0080AFF3 
 553      0080
 554              		.align	2
 555              		.p2align 4,,15
 556              		.global	chSemSignalI
 557              		.thumb
 558              		.thumb_func
ARM GAS  /tmp/ccvWj7Xf.s 			page 11


 559              		.type	chSemSignalI, %function
 560              	chSemSignalI:
 561              	.LFB227:
 562              		.loc 1 319 0
 563              		.cfi_startproc
 564              		@ args = 0, pretend = 0, frame = 0
 565              		@ frame_needed = 0, uses_anonymous_args = 0
 566              		@ link register save eliminated.
 567              	.LVL34:
 568              		.loc 1 327 0
 569 0000 8368     		ldr	r3, [r0, #8]
 570 0002 0133     		adds	r3, r3, #1
 571 0004 002B     		cmp	r3, #0
 572 0006 8360     		str	r3, [r0, #8]
 573 0008 00DD     		ble	.L32
 574 000a 7047     		bx	lr
 575              	.L32:
 576              	.LVL35:
 577              	.LBB145:
 578              	.LBB146:
 579              	.LBB147:
 580              		.loc 2 672 0
 581 000c 0368     		ldr	r3, [r0]
 582              	.LVL36:
 583              		.loc 2 674 0
 584 000e 1A68     		ldr	r2, [r3]
 585 0010 0260     		str	r2, [r0]
 586              	.LBE147:
 587              	.LBE146:
 588              		.loc 1 331 0
 589 0012 0021     		movs	r1, #0
 590              	.LBB149:
 591              	.LBB148:
 592              		.loc 2 675 0
 593 0014 5060     		str	r0, [r2, #4]
 594              	.LBE148:
 595              	.LBE149:
 596              		.loc 1 332 0
 597 0016 1846     		mov	r0, r3
 598              	.LVL37:
 599              		.loc 1 331 0
 600 0018 5962     		str	r1, [r3, #36]
 601              		.loc 1 332 0
 602 001a FFF7FEBF 		b	chSchReadyI
 603              	.LVL38:
 604              	.LBE145:
 605              		.cfi_endproc
 606              	.LFE227:
 607              		.size	chSemSignalI, .-chSemSignalI
 608 001e 00BF     		.section	.text.chSemAddCounterI,"ax",%progbits
 609              		.align	2
 610              		.p2align 4,,15
 611              		.global	chSemAddCounterI
 612              		.thumb
 613              		.thumb_func
 614              		.type	chSemAddCounterI, %function
 615              	chSemAddCounterI:
ARM GAS  /tmp/ccvWj7Xf.s 			page 12


 616              	.LFB228:
 617              		.loc 1 349 0
 618              		.cfi_startproc
 619              		@ args = 0, pretend = 0, frame = 0
 620              		@ frame_needed = 0, uses_anonymous_args = 0
 621              	.LVL39:
 622 0000 70B5     		push	{r4, r5, r6, lr}
 623              		.cfi_def_cfa_offset 16
 624              		.cfi_offset 4, -16
 625              		.cfi_offset 5, -12
 626              		.cfi_offset 6, -8
 627              		.cfi_offset 14, -4
 628              		.loc 1 357 0
 629 0002 0C1E     		subs	r4, r1, #0
 630              		.loc 1 349 0
 631 0004 0546     		mov	r5, r0
 632              		.loc 1 357 0
 633 0006 11DD     		ble	.L33
 634              		.loc 1 359 0
 635 0008 0026     		movs	r6, #0
 636 000a 01E0     		b	.L37
 637              	.LVL40:
 638              	.L35:
 639              		.loc 1 357 0
 640 000c 013C     		subs	r4, r4, #1
 641              	.LVL41:
 642 000e 0DD0     		beq	.L33
 643              	.LVL42:
 644              	.L37:
 645              		.loc 1 358 0
 646 0010 AB68     		ldr	r3, [r5, #8]
 647 0012 0133     		adds	r3, r3, #1
 648 0014 002B     		cmp	r3, #0
 649 0016 AB60     		str	r3, [r5, #8]
 650 0018 F8DC     		bgt	.L35
 651              	.LVL43:
 652              	.LBB150:
 653              	.LBB151:
 654              		.loc 2 672 0
 655 001a 2868     		ldr	r0, [r5]
 656              	.LVL44:
 657              		.loc 2 674 0
 658 001c 0368     		ldr	r3, [r0]
 659 001e 2B60     		str	r3, [r5]
 660              		.loc 2 675 0
 661 0020 5D60     		str	r5, [r3, #4]
 662              	.LBE151:
 663              	.LBE150:
 664              		.loc 1 359 0
 665 0022 FFF7FEFF 		bl	chSchReadyI
 666              	.LVL45:
 667              		.loc 1 357 0
 668 0026 013C     		subs	r4, r4, #1
 669              	.LVL46:
 670              		.loc 1 359 0
 671 0028 4662     		str	r6, [r0, #36]
 672              	.LVL47:
ARM GAS  /tmp/ccvWj7Xf.s 			page 13


 673              		.loc 1 357 0
 674 002a F1D1     		bne	.L37
 675              	.LVL48:
 676              	.L33:
 677 002c 70BD     		pop	{r4, r5, r6, pc}
 678              		.cfi_endproc
 679              	.LFE228:
 680              		.size	chSemAddCounterI, .-chSemAddCounterI
 681 002e 00BF     		.section	.text.chSemSignalWait,"ax",%progbits
 682              		.align	2
 683              		.p2align 4,,15
 684              		.global	chSemSignalWait
 685              		.thumb
 686              		.thumb_func
 687              		.type	chSemSignalWait, %function
 688              	chSemSignalWait:
 689              	.LFB229:
 690              		.loc 1 378 0
 691              		.cfi_startproc
 692              		@ args = 0, pretend = 0, frame = 8
 693              		@ frame_needed = 0, uses_anonymous_args = 0
 694              	.LVL49:
 695 0000 10B5     		push	{r4, lr}
 696              		.cfi_def_cfa_offset 8
 697              		.cfi_offset 4, -8
 698              		.cfi_offset 14, -4
 699 0002 0346     		mov	r3, r0
 700 0004 82B0     		sub	sp, sp, #8
 701              		.cfi_def_cfa_offset 16
 702              	.LBB152:
 703              	.LBB153:
 704              	.LBB154:
 705              	.LBB155:
 706              		.loc 3 546 0
 707 0006 2022     		movs	r2, #32
 708              	@ 546 "ChibiOS_3.0.2/os/ext/CMSIS/include/core_cmFunc.h" 1
 709 0008 82F31188 		MSR basepri, r2
 710              	@ 0 "" 2
 711              		.thumb
 712              	.LBE155:
 713              	.LBE154:
 714              	.LBE153:
 715              	.LBE152:
 716              		.loc 1 390 0
 717 000c 8268     		ldr	r2, [r0, #8]
 718 000e 0132     		adds	r2, r2, #1
 719 0010 002A     		cmp	r2, #0
 720 0012 8260     		str	r2, [r0, #8]
 721 0014 1DDD     		ble	.L45
 722              	.LVL50:
 723              	.L42:
 724              		.loc 1 393 0
 725 0016 8B68     		ldr	r3, [r1, #8]
 726 0018 013B     		subs	r3, r3, #1
 727 001a 002B     		cmp	r3, #0
 728 001c 8B60     		str	r3, [r1, #8]
 729 001e 07DB     		blt	.L46
ARM GAS  /tmp/ccvWj7Xf.s 			page 14


 730              		.loc 1 401 0
 731 0020 FFF7FEFF 		bl	chSchRescheduleS
 732              	.LVL51:
 733              		.loc 1 402 0
 734 0024 0020     		movs	r0, #0
 735              	.LVL52:
 736              	.LBB156:
 737              	.LBB157:
 738              	.LBB158:
 739              	.LBB159:
 740              	.LBB160:
 741              		.loc 3 546 0
 742 0026 0023     		movs	r3, #0
 743              	@ 546 "ChibiOS_3.0.2/os/ext/CMSIS/include/core_cmFunc.h" 1
 744 0028 83F31188 		MSR basepri, r3
 745              	@ 0 "" 2
 746              		.thumb
 747              	.LBE160:
 748              	.LBE159:
 749              	.LBE158:
 750              	.LBE157:
 751              	.LBE156:
 752              		.loc 1 407 0
 753 002c 02B0     		add	sp, sp, #8
 754              		@ sp needed
 755 002e 10BD     		pop	{r4, pc}
 756              	.LVL53:
 757              	.L46:
 758              	.LBB165:
 759              		.loc 1 394 0
 760 0030 0D4A     		ldr	r2, .L47
 761              	.LBB166:
 762              	.LBB167:
 763              		.loc 2 666 0
 764 0032 4B68     		ldr	r3, [r1, #4]
 765              	.LBE167:
 766              	.LBE166:
 767              		.loc 1 394 0
 768 0034 9469     		ldr	r4, [r2, #24]
 769              	.LVL54:
 770              		.loc 1 397 0
 771 0036 0520     		movs	r0, #5
 772              	.LBB169:
 773              	.LBB168:
 774              		.loc 2 666 0
 775 0038 84E80A00 		stmia	r4, {r1, r3}
 776              		.loc 2 667 0
 777 003c 1C60     		str	r4, [r3]
 778              		.loc 2 668 0
 779 003e 4C60     		str	r4, [r1, #4]
 780              	.LBE168:
 781              	.LBE169:
 782              		.loc 1 396 0
 783 0040 6162     		str	r1, [r4, #36]
 784              		.loc 1 397 0
 785 0042 FFF7FEFF 		bl	chSchGoSleepS
 786              	.LVL55:
ARM GAS  /tmp/ccvWj7Xf.s 			page 15


 787              		.loc 1 398 0
 788 0046 606A     		ldr	r0, [r4, #36]
 789              	.LVL56:
 790              	.LBE165:
 791              	.LBB170:
 792              	.LBB164:
 793              	.LBB163:
 794              	.LBB162:
 795              	.LBB161:
 796              		.loc 3 546 0
 797 0048 0023     		movs	r3, #0
 798              	@ 546 "ChibiOS_3.0.2/os/ext/CMSIS/include/core_cmFunc.h" 1
 799 004a 83F31188 		MSR basepri, r3
 800              	@ 0 "" 2
 801              		.thumb
 802              	.LBE161:
 803              	.LBE162:
 804              	.LBE163:
 805              	.LBE164:
 806              	.LBE170:
 807              		.loc 1 407 0
 808 004e 02B0     		add	sp, sp, #8
 809              		@ sp needed
 810 0050 10BD     		pop	{r4, pc}
 811              	.LVL57:
 812              	.L45:
 813              	.LBB171:
 814              	.LBB172:
 815              		.loc 2 672 0
 816 0052 0068     		ldr	r0, [r0]
 817              	.LVL58:
 818              		.loc 2 674 0
 819 0054 0268     		ldr	r2, [r0]
 820 0056 1A60     		str	r2, [r3]
 821              		.loc 2 675 0
 822 0058 5360     		str	r3, [r2, #4]
 823              	.LBE172:
 824              	.LBE171:
 825              		.loc 1 391 0
 826 005a 0191     		str	r1, [sp, #4]
 827 005c FFF7FEFF 		bl	chSchReadyI
 828              	.LVL59:
 829 0060 0023     		movs	r3, #0
 830 0062 4362     		str	r3, [r0, #36]
 831 0064 0199     		ldr	r1, [sp, #4]
 832 0066 D6E7     		b	.L42
 833              	.L48:
 834              		.align	2
 835              	.L47:
 836 0068 00000000 		.word	ch
 837              		.cfi_endproc
 838              	.LFE229:
 839              		.size	chSemSignalWait, .-chSemSignalWait
 840 006c AFF30080 		.text
 841              	.Letext0:
 842              		.file 4 "/usr/include/newlib/machine/_default_types.h"
 843              		.file 5 "/usr/include/newlib/stdint.h"
ARM GAS  /tmp/ccvWj7Xf.s 			page 16


 844              		.file 6 "ChibiOS_3.0.2/os/rt/ports/ARMCMx/compilers/GCC/chtypes.h"
 845              		.file 7 "ChibiOS_3.0.2/os/rt/include/chsystypes.h"
 846              		.file 8 "ChibiOS_3.0.2/os/rt/ports/ARMCMx/chcore.h"
 847              		.file 9 "ChibiOS_3.0.2/os/rt/ports/ARMCMx/chcore_v7m.h"
 848              		.file 10 "ChibiOS_3.0.2/os/rt/include/chtm.h"
 849              		.file 11 "ChibiOS_3.0.2/os/rt/include/chsem.h"
 850              		.file 12 "ChibiOS_3.0.2/os/rt/include/chmtx.h"
 851              		.file 13 "ChibiOS_3.0.2/os/rt/include/chsys.h"
 852              		.file 14 "ChibiOS_3.0.2/os/ext/CMSIS/include/core_cm4.h"
 853              		.section	.debug_info,"",%progbits
 854              	.Ldebug_info0:
 855 0000 94100000 		.4byte	0x1094
 856 0004 0400     		.2byte	0x4
 857 0006 00000000 		.4byte	.Ldebug_abbrev0
 858 000a 04       		.byte	0x4
 859 000b 01       		.uleb128 0x1
 860 000c 7C010000 		.4byte	.LASF131
 861 0010 01       		.byte	0x1
 862 0011 1A000000 		.4byte	.LASF132
 863 0015 B0020000 		.4byte	.LASF133
 864 0019 C0000000 		.4byte	.Ldebug_ranges0+0xc0
 865 001d 00000000 		.4byte	0
 866 0021 00000000 		.4byte	.Ldebug_line0
 867 0025 02       		.uleb128 0x2
 868 0026 04       		.byte	0x4
 869 0027 05       		.byte	0x5
 870 0028 696E7400 		.ascii	"int\000"
 871 002c 03       		.uleb128 0x3
 872 002d 04       		.byte	0x4
 873 002e 07       		.byte	0x7
 874 002f 0A030000 		.4byte	.LASF0
 875 0033 03       		.uleb128 0x3
 876 0034 01       		.byte	0x1
 877 0035 06       		.byte	0x6
 878 0036 00010000 		.4byte	.LASF1
 879 003a 04       		.uleb128 0x4
 880 003b 50000000 		.4byte	.LASF5
 881 003f 04       		.byte	0x4
 882 0040 1D       		.byte	0x1d
 883 0041 45000000 		.4byte	0x45
 884 0045 03       		.uleb128 0x3
 885 0046 01       		.byte	0x1
 886 0047 08       		.byte	0x8
 887 0048 C9040000 		.4byte	.LASF2
 888 004c 03       		.uleb128 0x3
 889 004d 02       		.byte	0x2
 890 004e 05       		.byte	0x5
 891 004f E1040000 		.4byte	.LASF3
 892 0053 03       		.uleb128 0x3
 893 0054 02       		.byte	0x2
 894 0055 07       		.byte	0x7
 895 0056 63030000 		.4byte	.LASF4
 896 005a 04       		.uleb128 0x4
 897 005b C1030000 		.4byte	.LASF6
 898 005f 04       		.byte	0x4
 899 0060 3F       		.byte	0x3f
 900 0061 65000000 		.4byte	0x65
ARM GAS  /tmp/ccvWj7Xf.s 			page 17


 901 0065 03       		.uleb128 0x3
 902 0066 04       		.byte	0x4
 903 0067 05       		.byte	0x5
 904 0068 6A010000 		.4byte	.LASF7
 905 006c 04       		.uleb128 0x4
 906 006d 07060000 		.4byte	.LASF8
 907 0071 04       		.byte	0x4
 908 0072 41       		.byte	0x41
 909 0073 77000000 		.4byte	0x77
 910 0077 03       		.uleb128 0x3
 911 0078 04       		.byte	0x4
 912 0079 07       		.byte	0x7
 913 007a A5050000 		.4byte	.LASF9
 914 007e 03       		.uleb128 0x3
 915 007f 08       		.byte	0x8
 916 0080 05       		.byte	0x5
 917 0081 F2000000 		.4byte	.LASF10
 918 0085 04       		.uleb128 0x4
 919 0086 7F040000 		.4byte	.LASF11
 920 008a 04       		.byte	0x4
 921 008b 5B       		.byte	0x5b
 922 008c 90000000 		.4byte	0x90
 923 0090 03       		.uleb128 0x3
 924 0091 08       		.byte	0x8
 925 0092 07       		.byte	0x7
 926 0093 24010000 		.4byte	.LASF12
 927 0097 04       		.uleb128 0x4
 928 0098 91060000 		.4byte	.LASF13
 929 009c 05       		.byte	0x5
 930 009d 2A       		.byte	0x2a
 931 009e 3A000000 		.4byte	0x3a
 932 00a2 04       		.uleb128 0x4
 933 00a3 C1040000 		.4byte	.LASF14
 934 00a7 05       		.byte	0x5
 935 00a8 41       		.byte	0x41
 936 00a9 5A000000 		.4byte	0x5a
 937 00ad 04       		.uleb128 0x4
 938 00ae 71050000 		.4byte	.LASF15
 939 00b2 05       		.byte	0x5
 940 00b3 42       		.byte	0x42
 941 00b4 6C000000 		.4byte	0x6c
 942 00b8 04       		.uleb128 0x4
 943 00b9 47000000 		.4byte	.LASF16
 944 00bd 05       		.byte	0x5
 945 00be 4E       		.byte	0x4e
 946 00bf 85000000 		.4byte	0x85
 947 00c3 05       		.uleb128 0x5
 948 00c4 A2000000 		.4byte	0xa2
 949 00c8 04       		.uleb128 0x4
 950 00c9 43060000 		.4byte	.LASF17
 951 00cd 06       		.byte	0x6
 952 00ce 45       		.byte	0x45
 953 00cf AD000000 		.4byte	0xad
 954 00d3 04       		.uleb128 0x4
 955 00d4 9F030000 		.4byte	.LASF18
 956 00d8 06       		.byte	0x6
 957 00d9 48       		.byte	0x48
ARM GAS  /tmp/ccvWj7Xf.s 			page 18


 958 00da 97000000 		.4byte	0x97
 959 00de 04       		.uleb128 0x4
 960 00df 73010000 		.4byte	.LASF19
 961 00e3 06       		.byte	0x6
 962 00e4 49       		.byte	0x49
 963 00e5 97000000 		.4byte	0x97
 964 00e9 04       		.uleb128 0x4
 965 00ea 8A040000 		.4byte	.LASF20
 966 00ee 06       		.byte	0x6
 967 00ef 4A       		.byte	0x4a
 968 00f0 97000000 		.4byte	0x97
 969 00f4 04       		.uleb128 0x4
 970 00f5 56010000 		.4byte	.LASF21
 971 00f9 06       		.byte	0x6
 972 00fa 4B       		.byte	0x4b
 973 00fb 97000000 		.4byte	0x97
 974 00ff 04       		.uleb128 0x4
 975 0100 A9040000 		.4byte	.LASF22
 976 0104 06       		.byte	0x6
 977 0105 4C       		.byte	0x4c
 978 0106 AD000000 		.4byte	0xad
 979 010a 04       		.uleb128 0x4
 980 010b 8D030000 		.4byte	.LASF23
 981 010f 06       		.byte	0x6
 982 0110 4D       		.byte	0x4d
 983 0111 A2000000 		.4byte	0xa2
 984 0115 04       		.uleb128 0x4
 985 0116 B5030000 		.4byte	.LASF24
 986 011a 06       		.byte	0x6
 987 011b 4F       		.byte	0x4f
 988 011c AD000000 		.4byte	0xad
 989 0120 04       		.uleb128 0x4
 990 0121 04030000 		.4byte	.LASF25
 991 0125 06       		.byte	0x6
 992 0126 51       		.byte	0x51
 993 0127 A2000000 		.4byte	0xa2
 994 012b 04       		.uleb128 0x4
 995 012c E9050000 		.4byte	.LASF26
 996 0130 07       		.byte	0x7
 997 0131 33       		.byte	0x33
 998 0132 AD000000 		.4byte	0xad
 999 0136 04       		.uleb128 0x4
 1000 0137 CE050000 		.4byte	.LASF27
 1001 013b 07       		.byte	0x7
 1002 013c 3F       		.byte	0x3f
 1003 013d 41010000 		.4byte	0x141
 1004 0141 06       		.uleb128 0x6
 1005 0142 76030000 		.4byte	.LASF49
 1006 0146 48       		.byte	0x48
 1007 0147 02       		.byte	0x2
 1008 0148 C2       		.byte	0xc2
 1009 0149 46020000 		.4byte	0x246
 1010 014d 07       		.uleb128 0x7
 1011 014e 0B050000 		.4byte	.LASF28
 1012 0152 02       		.byte	0x2
 1013 0153 C3       		.byte	0xc3
 1014 0154 51020000 		.4byte	0x251
ARM GAS  /tmp/ccvWj7Xf.s 			page 19


 1015 0158 00       		.byte	0
 1016 0159 07       		.uleb128 0x7
 1017 015a A2040000 		.4byte	.LASF29
 1018 015e 02       		.byte	0x2
 1019 015f C5       		.byte	0xc5
 1020 0160 51020000 		.4byte	0x251
 1021 0164 04       		.byte	0x4
 1022 0165 07       		.uleb128 0x7
 1023 0166 EB000000 		.4byte	.LASF30
 1024 016a 02       		.byte	0x2
 1025 016b C7       		.byte	0xc7
 1026 016c FF000000 		.4byte	0xff
 1027 0170 08       		.byte	0x8
 1028 0171 07       		.uleb128 0x7
 1029 0172 E1060000 		.4byte	.LASF31
 1030 0176 02       		.byte	0x2
 1031 0177 C8       		.byte	0xc8
 1032 0178 81040000 		.4byte	0x481
 1033 017c 0C       		.byte	0xc
 1034 017d 07       		.uleb128 0x7
 1035 017e 76020000 		.4byte	.LASF32
 1036 0182 02       		.byte	0x2
 1037 0183 CA       		.byte	0xca
 1038 0184 51020000 		.4byte	0x251
 1039 0188 10       		.byte	0x10
 1040 0189 07       		.uleb128 0x7
 1041 018a 42040000 		.4byte	.LASF33
 1042 018e 02       		.byte	0x2
 1043 018f CB       		.byte	0xcb
 1044 0190 51020000 		.4byte	0x251
 1045 0194 14       		.byte	0x14
 1046 0195 07       		.uleb128 0x7
 1047 0196 A0060000 		.4byte	.LASF34
 1048 019a 02       		.byte	0x2
 1049 019b D2       		.byte	0xd2
 1050 019c C6060000 		.4byte	0x6c6
 1051 01a0 18       		.byte	0x18
 1052 01a1 07       		.uleb128 0x7
 1053 01a2 EB040000 		.4byte	.LASF35
 1054 01a6 02       		.byte	0x2
 1055 01a7 DD       		.byte	0xdd
 1056 01a8 DE000000 		.4byte	0xde
 1057 01ac 1C       		.byte	0x1c
 1058 01ad 07       		.uleb128 0x7
 1059 01ae 12050000 		.4byte	.LASF36
 1060 01b2 02       		.byte	0x2
 1061 01b3 E1       		.byte	0xe1
 1062 01b4 D3000000 		.4byte	0xd3
 1063 01b8 1D       		.byte	0x1d
 1064 01b9 07       		.uleb128 0x7
 1065 01ba 6B060000 		.4byte	.LASF37
 1066 01be 02       		.byte	0x2
 1067 01bf E6       		.byte	0xe6
 1068 01c0 E9000000 		.4byte	0xe9
 1069 01c4 1E       		.byte	0x1e
 1070 01c5 07       		.uleb128 0x7
 1071 01c6 F3040000 		.4byte	.LASF38
ARM GAS  /tmp/ccvWj7Xf.s 			page 20


 1072 01ca 02       		.byte	0x2
 1073 01cb EC       		.byte	0xec
 1074 01cc F4000000 		.4byte	0xf4
 1075 01d0 1F       		.byte	0x1f
 1076 01d1 07       		.uleb128 0x7
 1077 01d2 30030000 		.4byte	.LASF39
 1078 01d6 02       		.byte	0x2
 1079 01d7 F3       		.byte	0xf3
 1080 01d8 D8060000 		.4byte	0x6d8
 1081 01dc 20       		.byte	0x20
 1082 01dd 08       		.uleb128 0x8
 1083 01de 705F7500 		.ascii	"p_u\000"
 1084 01e2 02       		.byte	0x2
 1085 01e3 3101     		.2byte	0x131
 1086 01e5 01060000 		.4byte	0x601
 1087 01e9 24       		.byte	0x24
 1088 01ea 09       		.uleb128 0x9
 1089 01eb FB030000 		.4byte	.LASF40
 1090 01ef 02       		.byte	0x2
 1091 01f0 3601     		.2byte	0x136
 1092 01f2 57020000 		.4byte	0x257
 1093 01f6 28       		.byte	0x28
 1094 01f7 09       		.uleb128 0x9
 1095 01f8 47030000 		.4byte	.LASF41
 1096 01fc 02       		.byte	0x2
 1097 01fd 3C01     		.2byte	0x13c
 1098 01ff 7B020000 		.4byte	0x27b
 1099 0203 2C       		.byte	0x2c
 1100 0204 09       		.uleb128 0x9
 1101 0205 D3060000 		.4byte	.LASF42
 1102 0209 02       		.byte	0x2
 1103 020a 4001     		.2byte	0x140
 1104 020c 0A010000 		.4byte	0x10a
 1105 0210 34       		.byte	0x34
 1106 0211 09       		.uleb128 0x9
 1107 0212 66050000 		.4byte	.LASF43
 1108 0216 02       		.byte	0x2
 1109 0217 4601     		.2byte	0x146
 1110 0219 15010000 		.4byte	0x115
 1111 021d 38       		.byte	0x38
 1112 021e 09       		.uleb128 0x9
 1113 021f D7040000 		.4byte	.LASF44
 1114 0223 02       		.byte	0x2
 1115 0224 4D01     		.2byte	0x14d
 1116 0226 C0060000 		.4byte	0x6c0
 1117 022a 3C       		.byte	0x3c
 1118 022b 09       		.uleb128 0x9
 1119 022c F3050000 		.4byte	.LASF45
 1120 0230 02       		.byte	0x2
 1121 0231 5101     		.2byte	0x151
 1122 0233 FF000000 		.4byte	0xff
 1123 0237 40       		.byte	0x40
 1124 0238 09       		.uleb128 0x9
 1125 0239 1C010000 		.4byte	.LASF46
 1126 023d 02       		.byte	0x2
 1127 023e 5801     		.2byte	0x158
 1128 0240 2E030000 		.4byte	0x32e
ARM GAS  /tmp/ccvWj7Xf.s 			page 21


 1129 0244 44       		.byte	0x44
 1130 0245 00       		.byte	0
 1131 0246 04       		.uleb128 0x4
 1132 0247 0E040000 		.4byte	.LASF47
 1133 024b 07       		.byte	0x7
 1134 024c 44       		.byte	0x44
 1135 024d 51020000 		.4byte	0x251
 1136 0251 0A       		.uleb128 0xa
 1137 0252 04       		.byte	0x4
 1138 0253 36010000 		.4byte	0x136
 1139 0257 04       		.uleb128 0x4
 1140 0258 EC030000 		.4byte	.LASF48
 1141 025c 07       		.byte	0x7
 1142 025d 49       		.byte	0x49
 1143 025e 62020000 		.4byte	0x262
 1144 0262 06       		.uleb128 0x6
 1145 0263 95050000 		.4byte	.LASF50
 1146 0267 04       		.byte	0x4
 1147 0268 02       		.byte	0x2
 1148 0269 B0       		.byte	0xb0
 1149 026a 7B020000 		.4byte	0x27b
 1150 026e 07       		.uleb128 0x7
 1151 026f 0B050000 		.4byte	.LASF28
 1152 0273 02       		.byte	0x2
 1153 0274 B1       		.byte	0xb1
 1154 0275 51020000 		.4byte	0x251
 1155 0279 00       		.byte	0
 1156 027a 00       		.byte	0
 1157 027b 04       		.uleb128 0x4
 1158 027c 52060000 		.4byte	.LASF51
 1159 0280 07       		.byte	0x7
 1160 0281 50       		.byte	0x50
 1161 0282 86020000 		.4byte	0x286
 1162 0286 06       		.uleb128 0x6
 1163 0287 DA000000 		.4byte	.LASF52
 1164 028b 08       		.byte	0x8
 1165 028c 02       		.byte	0x2
 1166 028d B7       		.byte	0xb7
 1167 028e AB020000 		.4byte	0x2ab
 1168 0292 07       		.uleb128 0x7
 1169 0293 0B050000 		.4byte	.LASF28
 1170 0297 02       		.byte	0x2
 1171 0298 B8       		.byte	0xb8
 1172 0299 51020000 		.4byte	0x251
 1173 029d 00       		.byte	0
 1174 029e 07       		.uleb128 0x7
 1175 029f A2040000 		.4byte	.LASF29
 1176 02a3 02       		.byte	0x2
 1177 02a4 B9       		.byte	0xb9
 1178 02a5 51020000 		.4byte	0x251
 1179 02a9 04       		.byte	0x4
 1180 02aa 00       		.byte	0
 1181 02ab 04       		.uleb128 0x4
 1182 02ac 00000000 		.4byte	.LASF53
 1183 02b0 07       		.byte	0x7
 1184 02b1 57       		.byte	0x57
 1185 02b2 B6020000 		.4byte	0x2b6
ARM GAS  /tmp/ccvWj7Xf.s 			page 22


 1186 02b6 0B       		.uleb128 0xb
 1187 02b7 A7030000 		.4byte	.LASF54
 1188 02bb 1C       		.byte	0x1c
 1189 02bc 02       		.byte	0x2
 1190 02bd 9001     		.2byte	0x190
 1191 02bf 12030000 		.4byte	0x312
 1192 02c3 09       		.uleb128 0x9
 1193 02c4 81050000 		.4byte	.LASF55
 1194 02c8 02       		.byte	0x2
 1195 02c9 9101     		.2byte	0x191
 1196 02cb 7B020000 		.4byte	0x27b
 1197 02cf 00       		.byte	0
 1198 02d0 09       		.uleb128 0x9
 1199 02d1 FD040000 		.4byte	.LASF56
 1200 02d5 02       		.byte	0x2
 1201 02d6 9201     		.2byte	0x192
 1202 02d8 FF000000 		.4byte	0xff
 1203 02dc 08       		.byte	0x8
 1204 02dd 09       		.uleb128 0x9
 1205 02de 4A040000 		.4byte	.LASF57
 1206 02e2 02       		.byte	0x2
 1207 02e3 9401     		.2byte	0x194
 1208 02e5 81040000 		.4byte	0x481
 1209 02e9 0C       		.byte	0xc
 1210 02ea 09       		.uleb128 0x9
 1211 02eb 97020000 		.4byte	.LASF58
 1212 02ef 02       		.byte	0x2
 1213 02f0 9701     		.2byte	0x197
 1214 02f2 51020000 		.4byte	0x251
 1215 02f6 10       		.byte	0x10
 1216 02f7 09       		.uleb128 0x9
 1217 02f8 77040000 		.4byte	.LASF59
 1218 02fc 02       		.byte	0x2
 1219 02fd 9801     		.2byte	0x198
 1220 02ff 51020000 		.4byte	0x251
 1221 0303 14       		.byte	0x14
 1222 0304 09       		.uleb128 0x9
 1223 0305 6D040000 		.4byte	.LASF60
 1224 0309 02       		.byte	0x2
 1225 030a 9B01     		.2byte	0x19b
 1226 030c 51020000 		.4byte	0x251
 1227 0310 18       		.byte	0x18
 1228 0311 00       		.byte	0
 1229 0312 04       		.uleb128 0x4
 1230 0313 FE050000 		.4byte	.LASF61
 1231 0317 07       		.byte	0x7
 1232 0318 5C       		.byte	0x5c
 1233 0319 1D030000 		.4byte	0x31d
 1234 031d 0A       		.uleb128 0xa
 1235 031e 04       		.byte	0x4
 1236 031f 23030000 		.4byte	0x323
 1237 0323 0C       		.uleb128 0xc
 1238 0324 2E030000 		.4byte	0x32e
 1239 0328 0D       		.uleb128 0xd
 1240 0329 2E030000 		.4byte	0x32e
 1241 032d 00       		.byte	0
 1242 032e 0E       		.uleb128 0xe
ARM GAS  /tmp/ccvWj7Xf.s 			page 23


 1243 032f 04       		.byte	0x4
 1244 0330 04       		.uleb128 0x4
 1245 0331 92040000 		.4byte	.LASF62
 1246 0335 07       		.byte	0x7
 1247 0336 61       		.byte	0x61
 1248 0337 3B030000 		.4byte	0x33b
 1249 033b 0B       		.uleb128 0xb
 1250 033c 3A050000 		.4byte	.LASF63
 1251 0340 14       		.byte	0x14
 1252 0341 02       		.byte	0x2
 1253 0342 6B01     		.2byte	0x16b
 1254 0344 8A030000 		.4byte	0x38a
 1255 0348 09       		.uleb128 0x9
 1256 0349 28030000 		.4byte	.LASF64
 1257 034d 02       		.byte	0x2
 1258 034e 6C01     		.2byte	0x16c
 1259 0350 DD060000 		.4byte	0x6dd
 1260 0354 00       		.byte	0
 1261 0355 09       		.uleb128 0x9
 1262 0356 A8020000 		.4byte	.LASF65
 1263 035a 02       		.byte	0x2
 1264 035b 6D01     		.2byte	0x16d
 1265 035d DD060000 		.4byte	0x6dd
 1266 0361 04       		.byte	0x4
 1267 0362 09       		.uleb128 0x9
 1268 0363 3E030000 		.4byte	.LASF66
 1269 0367 02       		.byte	0x2
 1270 0368 6E01     		.2byte	0x16e
 1271 036a 2B010000 		.4byte	0x12b
 1272 036e 08       		.byte	0x8
 1273 036f 09       		.uleb128 0x9
 1274 0370 E7060000 		.4byte	.LASF67
 1275 0374 02       		.byte	0x2
 1276 0375 6F01     		.2byte	0x16f
 1277 0377 12030000 		.4byte	0x312
 1278 037b 0C       		.byte	0xc
 1279 037c 09       		.uleb128 0x9
 1280 037d 4B060000 		.4byte	.LASF68
 1281 0381 02       		.byte	0x2
 1282 0382 7101     		.2byte	0x171
 1283 0384 2E030000 		.4byte	0x32e
 1284 0388 10       		.byte	0x10
 1285 0389 00       		.byte	0
 1286 038a 04       		.uleb128 0x4
 1287 038b CB030000 		.4byte	.LASF69
 1288 038f 07       		.byte	0x7
 1289 0390 66       		.byte	0x66
 1290 0391 95030000 		.4byte	0x395
 1291 0395 0B       		.uleb128 0xb
 1292 0396 21040000 		.4byte	.LASF70
 1293 039a 10       		.byte	0x10
 1294 039b 02       		.byte	0x2
 1295 039c 7B01     		.2byte	0x17b
 1296 039e D7030000 		.4byte	0x3d7
 1297 03a2 09       		.uleb128 0x9
 1298 03a3 28030000 		.4byte	.LASF64
 1299 03a7 02       		.byte	0x2
ARM GAS  /tmp/ccvWj7Xf.s 			page 24


 1300 03a8 7C01     		.2byte	0x17c
 1301 03aa DD060000 		.4byte	0x6dd
 1302 03ae 00       		.byte	0
 1303 03af 09       		.uleb128 0x9
 1304 03b0 A8020000 		.4byte	.LASF65
 1305 03b4 02       		.byte	0x2
 1306 03b5 7E01     		.2byte	0x17e
 1307 03b7 DD060000 		.4byte	0x6dd
 1308 03bb 04       		.byte	0x4
 1309 03bc 09       		.uleb128 0x9
 1310 03bd 3E030000 		.4byte	.LASF66
 1311 03c1 02       		.byte	0x2
 1312 03c2 8001     		.2byte	0x180
 1313 03c4 2B010000 		.4byte	0x12b
 1314 03c8 08       		.byte	0x8
 1315 03c9 09       		.uleb128 0x9
 1316 03ca A7060000 		.4byte	.LASF71
 1317 03ce 02       		.byte	0x2
 1318 03cf 8201     		.2byte	0x182
 1319 03d1 D8060000 		.4byte	0x6d8
 1320 03d5 0C       		.byte	0xc
 1321 03d6 00       		.byte	0
 1322 03d7 04       		.uleb128 0x4
 1323 03d8 66000000 		.4byte	.LASF72
 1324 03dc 07       		.byte	0x7
 1325 03dd 6B       		.byte	0x6b
 1326 03de E2030000 		.4byte	0x3e2
 1327 03e2 0B       		.uleb128 0xb
 1328 03e3 B1040000 		.4byte	.LASF73
 1329 03e7 04       		.byte	0x4
 1330 03e8 02       		.byte	0x2
 1331 03e9 A201     		.2byte	0x1a2
 1332 03eb FD030000 		.4byte	0x3fd
 1333 03ef 09       		.uleb128 0x9
 1334 03f0 2A060000 		.4byte	.LASF74
 1335 03f4 02       		.byte	0x2
 1336 03f5 AA01     		.2byte	0x1aa
 1337 03f7 E3060000 		.4byte	0x6e3
 1338 03fb 00       		.byte	0
 1339 03fc 00       		.byte	0
 1340 03fd 04       		.uleb128 0x4
 1341 03fe 93030000 		.4byte	.LASF75
 1342 0402 07       		.byte	0x7
 1343 0403 70       		.byte	0x70
 1344 0404 08040000 		.4byte	0x408
 1345 0408 0F       		.uleb128 0xf
 1346 0409 60010000 		.4byte	.LASF76
 1347 040d 5802     		.2byte	0x258
 1348 040f 02       		.byte	0x2
 1349 0410 C201     		.2byte	0x1c2
 1350 0412 64040000 		.4byte	0x464
 1351 0416 09       		.uleb128 0x9
 1352 0417 8B060000 		.4byte	.LASF77
 1353 041b 02       		.byte	0x2
 1354 041c C601     		.2byte	0x1c6
 1355 041e AB020000 		.4byte	0x2ab
 1356 0422 00       		.byte	0
ARM GAS  /tmp/ccvWj7Xf.s 			page 25


 1357 0423 09       		.uleb128 0x9
 1358 0424 43010000 		.4byte	.LASF78
 1359 0428 02       		.byte	0x2
 1360 0429 CA01     		.2byte	0x1ca
 1361 042b 8A030000 		.4byte	0x38a
 1362 042f 1C       		.byte	0x1c
 1363 0430 08       		.uleb128 0x8
 1364 0431 64626700 		.ascii	"dbg\000"
 1365 0435 02       		.byte	0x2
 1366 0436 CE01     		.2byte	0x1ce
 1367 0438 D7030000 		.4byte	0x3d7
 1368 043c 2C       		.byte	0x2c
 1369 043d 09       		.uleb128 0x9
 1370 043e B1000000 		.4byte	.LASF79
 1371 0442 02       		.byte	0x2
 1372 0443 D201     		.2byte	0x1d2
 1373 0445 36010000 		.4byte	0x136
 1374 0449 30       		.byte	0x30
 1375 044a 08       		.uleb128 0x8
 1376 044b 746D00   		.ascii	"tm\000"
 1377 044e 02       		.byte	0x2
 1378 044f D701     		.2byte	0x1d7
 1379 0451 F6050000 		.4byte	0x5f6
 1380 0455 78       		.byte	0x78
 1381 0456 09       		.uleb128 0x9
 1382 0457 E5020000 		.4byte	.LASF80
 1383 045b 02       		.byte	0x2
 1384 045c E301     		.2byte	0x1e3
 1385 045e E8060000 		.4byte	0x6e8
 1386 0462 80       		.byte	0x80
 1387 0463 00       		.byte	0
 1388 0464 03       		.uleb128 0x3
 1389 0465 04       		.byte	0x4
 1390 0466 07       		.byte	0x7
 1391 0467 05040000 		.4byte	.LASF81
 1392 046b 04       		.uleb128 0x4
 1393 046c 9F020000 		.4byte	.LASF82
 1394 0470 08       		.byte	0x8
 1395 0471 65       		.byte	0x65
 1396 0472 2E030000 		.4byte	0x32e
 1397 0476 04       		.uleb128 0x4
 1398 0477 E1030000 		.4byte	.LASF83
 1399 047b 08       		.byte	0x8
 1400 047c 6D       		.byte	0x6d
 1401 047d B8000000 		.4byte	0xb8
 1402 0481 06       		.uleb128 0x6
 1403 0482 3B060000 		.4byte	.LASF84
 1404 0486 04       		.byte	0x4
 1405 0487 08       		.byte	0x8
 1406 0488 89       		.byte	0x89
 1407 0489 9A040000 		.4byte	0x49a
 1408 048d 10       		.uleb128 0x10
 1409 048e 72313300 		.ascii	"r13\000"
 1410 0492 08       		.byte	0x8
 1411 0493 8A       		.byte	0x8a
 1412 0494 DB050000 		.4byte	0x5db
 1413 0498 00       		.byte	0
ARM GAS  /tmp/ccvWj7Xf.s 			page 26


 1414 0499 00       		.byte	0
 1415 049a 06       		.uleb128 0x6
 1416 049b 5A000000 		.4byte	.LASF85
 1417 049f 64       		.byte	0x64
 1418 04a0 09       		.byte	0x9
 1419 04a1 F4       		.byte	0xf4
 1420 04a2 DB050000 		.4byte	0x5db
 1421 04a6 10       		.uleb128 0x10
 1422 04a7 73313600 		.ascii	"s16\000"
 1423 04ab 09       		.byte	0x9
 1424 04ac F6       		.byte	0xf6
 1425 04ad 6B040000 		.4byte	0x46b
 1426 04b1 00       		.byte	0
 1427 04b2 10       		.uleb128 0x10
 1428 04b3 73313700 		.ascii	"s17\000"
 1429 04b7 09       		.byte	0x9
 1430 04b8 F7       		.byte	0xf7
 1431 04b9 6B040000 		.4byte	0x46b
 1432 04bd 04       		.byte	0x4
 1433 04be 10       		.uleb128 0x10
 1434 04bf 73313800 		.ascii	"s18\000"
 1435 04c3 09       		.byte	0x9
 1436 04c4 F8       		.byte	0xf8
 1437 04c5 6B040000 		.4byte	0x46b
 1438 04c9 08       		.byte	0x8
 1439 04ca 10       		.uleb128 0x10
 1440 04cb 73313900 		.ascii	"s19\000"
 1441 04cf 09       		.byte	0x9
 1442 04d0 F9       		.byte	0xf9
 1443 04d1 6B040000 		.4byte	0x46b
 1444 04d5 0C       		.byte	0xc
 1445 04d6 10       		.uleb128 0x10
 1446 04d7 73323000 		.ascii	"s20\000"
 1447 04db 09       		.byte	0x9
 1448 04dc FA       		.byte	0xfa
 1449 04dd 6B040000 		.4byte	0x46b
 1450 04e1 10       		.byte	0x10
 1451 04e2 10       		.uleb128 0x10
 1452 04e3 73323100 		.ascii	"s21\000"
 1453 04e7 09       		.byte	0x9
 1454 04e8 FB       		.byte	0xfb
 1455 04e9 6B040000 		.4byte	0x46b
 1456 04ed 14       		.byte	0x14
 1457 04ee 10       		.uleb128 0x10
 1458 04ef 73323200 		.ascii	"s22\000"
 1459 04f3 09       		.byte	0x9
 1460 04f4 FC       		.byte	0xfc
 1461 04f5 6B040000 		.4byte	0x46b
 1462 04f9 18       		.byte	0x18
 1463 04fa 10       		.uleb128 0x10
 1464 04fb 73323300 		.ascii	"s23\000"
 1465 04ff 09       		.byte	0x9
 1466 0500 FD       		.byte	0xfd
 1467 0501 6B040000 		.4byte	0x46b
 1468 0505 1C       		.byte	0x1c
 1469 0506 10       		.uleb128 0x10
 1470 0507 73323400 		.ascii	"s24\000"
ARM GAS  /tmp/ccvWj7Xf.s 			page 27


 1471 050b 09       		.byte	0x9
 1472 050c FE       		.byte	0xfe
 1473 050d 6B040000 		.4byte	0x46b
 1474 0511 20       		.byte	0x20
 1475 0512 10       		.uleb128 0x10
 1476 0513 73323500 		.ascii	"s25\000"
 1477 0517 09       		.byte	0x9
 1478 0518 FF       		.byte	0xff
 1479 0519 6B040000 		.4byte	0x46b
 1480 051d 24       		.byte	0x24
 1481 051e 08       		.uleb128 0x8
 1482 051f 73323600 		.ascii	"s26\000"
 1483 0523 09       		.byte	0x9
 1484 0524 0001     		.2byte	0x100
 1485 0526 6B040000 		.4byte	0x46b
 1486 052a 28       		.byte	0x28
 1487 052b 08       		.uleb128 0x8
 1488 052c 73323700 		.ascii	"s27\000"
 1489 0530 09       		.byte	0x9
 1490 0531 0101     		.2byte	0x101
 1491 0533 6B040000 		.4byte	0x46b
 1492 0537 2C       		.byte	0x2c
 1493 0538 08       		.uleb128 0x8
 1494 0539 73323800 		.ascii	"s28\000"
 1495 053d 09       		.byte	0x9
 1496 053e 0201     		.2byte	0x102
 1497 0540 6B040000 		.4byte	0x46b
 1498 0544 30       		.byte	0x30
 1499 0545 08       		.uleb128 0x8
 1500 0546 73323900 		.ascii	"s29\000"
 1501 054a 09       		.byte	0x9
 1502 054b 0301     		.2byte	0x103
 1503 054d 6B040000 		.4byte	0x46b
 1504 0551 34       		.byte	0x34
 1505 0552 08       		.uleb128 0x8
 1506 0553 73333000 		.ascii	"s30\000"
 1507 0557 09       		.byte	0x9
 1508 0558 0401     		.2byte	0x104
 1509 055a 6B040000 		.4byte	0x46b
 1510 055e 38       		.byte	0x38
 1511 055f 08       		.uleb128 0x8
 1512 0560 73333100 		.ascii	"s31\000"
 1513 0564 09       		.byte	0x9
 1514 0565 0501     		.2byte	0x105
 1515 0567 6B040000 		.4byte	0x46b
 1516 056b 3C       		.byte	0x3c
 1517 056c 08       		.uleb128 0x8
 1518 056d 723400   		.ascii	"r4\000"
 1519 0570 09       		.byte	0x9
 1520 0571 0701     		.2byte	0x107
 1521 0573 6B040000 		.4byte	0x46b
 1522 0577 40       		.byte	0x40
 1523 0578 08       		.uleb128 0x8
 1524 0579 723500   		.ascii	"r5\000"
 1525 057c 09       		.byte	0x9
 1526 057d 0801     		.2byte	0x108
 1527 057f 6B040000 		.4byte	0x46b
ARM GAS  /tmp/ccvWj7Xf.s 			page 28


 1528 0583 44       		.byte	0x44
 1529 0584 08       		.uleb128 0x8
 1530 0585 723600   		.ascii	"r6\000"
 1531 0588 09       		.byte	0x9
 1532 0589 0901     		.2byte	0x109
 1533 058b 6B040000 		.4byte	0x46b
 1534 058f 48       		.byte	0x48
 1535 0590 08       		.uleb128 0x8
 1536 0591 723700   		.ascii	"r7\000"
 1537 0594 09       		.byte	0x9
 1538 0595 0A01     		.2byte	0x10a
 1539 0597 6B040000 		.4byte	0x46b
 1540 059b 4C       		.byte	0x4c
 1541 059c 08       		.uleb128 0x8
 1542 059d 723800   		.ascii	"r8\000"
 1543 05a0 09       		.byte	0x9
 1544 05a1 0B01     		.2byte	0x10b
 1545 05a3 6B040000 		.4byte	0x46b
 1546 05a7 50       		.byte	0x50
 1547 05a8 08       		.uleb128 0x8
 1548 05a9 723900   		.ascii	"r9\000"
 1549 05ac 09       		.byte	0x9
 1550 05ad 0C01     		.2byte	0x10c
 1551 05af 6B040000 		.4byte	0x46b
 1552 05b3 54       		.byte	0x54
 1553 05b4 08       		.uleb128 0x8
 1554 05b5 72313000 		.ascii	"r10\000"
 1555 05b9 09       		.byte	0x9
 1556 05ba 0D01     		.2byte	0x10d
 1557 05bc 6B040000 		.4byte	0x46b
 1558 05c0 58       		.byte	0x58
 1559 05c1 08       		.uleb128 0x8
 1560 05c2 72313100 		.ascii	"r11\000"
 1561 05c6 09       		.byte	0x9
 1562 05c7 0E01     		.2byte	0x10e
 1563 05c9 6B040000 		.4byte	0x46b
 1564 05cd 5C       		.byte	0x5c
 1565 05ce 08       		.uleb128 0x8
 1566 05cf 6C7200   		.ascii	"lr\000"
 1567 05d2 09       		.byte	0x9
 1568 05d3 0F01     		.2byte	0x10f
 1569 05d5 6B040000 		.4byte	0x46b
 1570 05d9 60       		.byte	0x60
 1571 05da 00       		.byte	0
 1572 05db 0A       		.uleb128 0xa
 1573 05dc 04       		.byte	0x4
 1574 05dd 9A040000 		.4byte	0x49a
 1575 05e1 11       		.uleb128 0x11
 1576 05e2 04       		.byte	0x4
 1577 05e3 0A       		.byte	0xa
 1578 05e4 38       		.byte	0x38
 1579 05e5 F6050000 		.4byte	0x5f6
 1580 05e9 07       		.uleb128 0x7
 1581 05ea 34060000 		.4byte	.LASF86
 1582 05ee 0A       		.byte	0xa
 1583 05ef 3C       		.byte	0x3c
 1584 05f0 C8000000 		.4byte	0xc8
ARM GAS  /tmp/ccvWj7Xf.s 			page 29


 1585 05f4 00       		.byte	0
 1586 05f5 00       		.byte	0
 1587 05f6 04       		.uleb128 0x4
 1588 05f7 50040000 		.4byte	.LASF87
 1589 05fb 0A       		.byte	0xa
 1590 05fc 3D       		.byte	0x3d
 1591 05fd E1050000 		.4byte	0x5e1
 1592 0601 12       		.uleb128 0x12
 1593 0602 04       		.byte	0x4
 1594 0603 02       		.byte	0x2
 1595 0604 FA       		.byte	0xfa
 1596 0605 5E060000 		.4byte	0x65e
 1597 0609 13       		.uleb128 0x13
 1598 060a 40000000 		.4byte	.LASF88
 1599 060e 02       		.byte	0x2
 1600 060f 0101     		.2byte	0x101
 1601 0611 0A010000 		.4byte	0x10a
 1602 0615 13       		.uleb128 0x13
 1603 0616 A8000000 		.4byte	.LASF89
 1604 061a 02       		.byte	0x2
 1605 061b 0801     		.2byte	0x108
 1606 061d 0A010000 		.4byte	0x10a
 1607 0621 13       		.uleb128 0x13
 1608 0622 99060000 		.4byte	.LASF90
 1609 0626 02       		.byte	0x2
 1610 0627 0F01     		.2byte	0x10f
 1611 0629 2E030000 		.4byte	0x32e
 1612 062d 13       		.uleb128 0x13
 1613 062e 3A000000 		.4byte	.LASF91
 1614 0632 02       		.byte	0x2
 1615 0633 1601     		.2byte	0x116
 1616 0635 5E060000 		.4byte	0x65e
 1617 0639 13       		.uleb128 0x13
 1618 063a 37030000 		.4byte	.LASF92
 1619 063e 02       		.byte	0x2
 1620 063f 1E01     		.2byte	0x11e
 1621 0641 89060000 		.4byte	0x689
 1622 0645 13       		.uleb128 0x13
 1623 0646 7A050000 		.4byte	.LASF93
 1624 064a 02       		.byte	0x2
 1625 064b 2701     		.2byte	0x127
 1626 064d C0060000 		.4byte	0x6c0
 1627 0651 13       		.uleb128 0x13
 1628 0652 04050000 		.4byte	.LASF94
 1629 0656 02       		.byte	0x2
 1630 0657 2F01     		.2byte	0x12f
 1631 0659 15010000 		.4byte	0x115
 1632 065d 00       		.byte	0
 1633 065e 0A       		.uleb128 0xa
 1634 065f 04       		.byte	0x4
 1635 0660 46020000 		.4byte	0x246
 1636 0664 06       		.uleb128 0x6
 1637 0665 4B050000 		.4byte	.LASF95
 1638 0669 0C       		.byte	0xc
 1639 066a 0B       		.byte	0xb
 1640 066b 34       		.byte	0x34
 1641 066c 89060000 		.4byte	0x689
ARM GAS  /tmp/ccvWj7Xf.s 			page 30


 1642 0670 07       		.uleb128 0x7
 1643 0671 7E020000 		.4byte	.LASF96
 1644 0675 0B       		.byte	0xb
 1645 0676 35       		.byte	0x35
 1646 0677 7B020000 		.4byte	0x27b
 1647 067b 00       		.byte	0
 1648 067c 07       		.uleb128 0x7
 1649 067d 5D030000 		.4byte	.LASF97
 1650 0681 0B       		.byte	0xb
 1651 0682 37       		.byte	0x37
 1652 0683 20010000 		.4byte	0x120
 1653 0687 08       		.byte	0x8
 1654 0688 00       		.byte	0
 1655 0689 0A       		.uleb128 0xa
 1656 068a 04       		.byte	0x4
 1657 068b 64060000 		.4byte	0x664
 1658 068f 06       		.uleb128 0x6
 1659 0690 62060000 		.4byte	.LASF98
 1660 0694 10       		.byte	0x10
 1661 0695 0C       		.byte	0xc
 1662 0696 39       		.byte	0x39
 1663 0697 C0060000 		.4byte	0x6c0
 1664 069b 07       		.uleb128 0x7
 1665 069c 3B010000 		.4byte	.LASF99
 1666 06a0 0C       		.byte	0xc
 1667 06a1 3A       		.byte	0x3a
 1668 06a2 7B020000 		.4byte	0x27b
 1669 06a6 00       		.byte	0
 1670 06a7 07       		.uleb128 0x7
 1671 06a8 D9060000 		.4byte	.LASF100
 1672 06ac 0C       		.byte	0xc
 1673 06ad 3C       		.byte	0x3c
 1674 06ae 51020000 		.4byte	0x251
 1675 06b2 08       		.byte	0x8
 1676 06b3 07       		.uleb128 0x7
 1677 06b4 61040000 		.4byte	.LASF101
 1678 06b8 0C       		.byte	0xc
 1679 06b9 3E       		.byte	0x3e
 1680 06ba 0E070000 		.4byte	0x70e
 1681 06be 0C       		.byte	0xc
 1682 06bf 00       		.byte	0
 1683 06c0 0A       		.uleb128 0xa
 1684 06c1 04       		.byte	0x4
 1685 06c2 8F060000 		.4byte	0x68f
 1686 06c6 0A       		.uleb128 0xa
 1687 06c7 04       		.byte	0x4
 1688 06c8 CC060000 		.4byte	0x6cc
 1689 06cc 14       		.uleb128 0x14
 1690 06cd D1060000 		.4byte	0x6d1
 1691 06d1 03       		.uleb128 0x3
 1692 06d2 01       		.byte	0x1
 1693 06d3 08       		.byte	0x8
 1694 06d4 B7050000 		.4byte	.LASF102
 1695 06d8 05       		.uleb128 0x5
 1696 06d9 2B010000 		.4byte	0x12b
 1697 06dd 0A       		.uleb128 0xa
 1698 06de 04       		.byte	0x4
ARM GAS  /tmp/ccvWj7Xf.s 			page 31


 1699 06df 30030000 		.4byte	0x330
 1700 06e3 05       		.uleb128 0x5
 1701 06e4 C6060000 		.4byte	0x6c6
 1702 06e8 15       		.uleb128 0x15
 1703 06e9 76040000 		.4byte	0x476
 1704 06ed F8060000 		.4byte	0x6f8
 1705 06f1 16       		.uleb128 0x16
 1706 06f2 64040000 		.4byte	0x464
 1707 06f6 3A       		.byte	0x3a
 1708 06f7 00       		.byte	0
 1709 06f8 04       		.uleb128 0x4
 1710 06f9 2E050000 		.4byte	.LASF103
 1711 06fd 0B       		.byte	0xb
 1712 06fe 38       		.byte	0x38
 1713 06ff 64060000 		.4byte	0x664
 1714 0703 04       		.uleb128 0x4
 1715 0704 D7020000 		.4byte	.LASF104
 1716 0708 0C       		.byte	0xc
 1717 0709 34       		.byte	0x34
 1718 070a 8F060000 		.4byte	0x68f
 1719 070e 0A       		.uleb128 0xa
 1720 070f 04       		.byte	0x4
 1721 0710 03070000 		.4byte	0x703
 1722 0714 17       		.uleb128 0x17
 1723 0715 12060000 		.4byte	.LASF107
 1724 0719 03       		.byte	0x3
 1725 071a 2002     		.2byte	0x220
 1726 071c 03       		.byte	0x3
 1727 071d 2E070000 		.4byte	0x72e
 1728 0721 18       		.uleb128 0x18
 1729 0722 DF020000 		.4byte	.LASF109
 1730 0726 03       		.byte	0x3
 1731 0727 2002     		.2byte	0x220
 1732 0729 AD000000 		.4byte	0xad
 1733 072d 00       		.byte	0
 1734 072e 19       		.uleb128 0x19
 1735 072f 80000000 		.4byte	.LASF105
 1736 0733 09       		.byte	0x9
 1737 0734 BC01     		.2byte	0x1bc
 1738 0736 03       		.byte	0x3
 1739 0737 19       		.uleb128 0x19
 1740 0738 4A010000 		.4byte	.LASF106
 1741 073c 09       		.byte	0x9
 1742 073d CA01     		.2byte	0x1ca
 1743 073f 03       		.byte	0x3
 1744 0740 17       		.uleb128 0x17
 1745 0741 75000000 		.4byte	.LASF108
 1746 0745 02       		.byte	0x2
 1747 0746 5A02     		.2byte	0x25a
 1748 0748 03       		.byte	0x3
 1749 0749 5A070000 		.4byte	0x75a
 1750 074d 1A       		.uleb128 0x1a
 1751 074e 74717000 		.ascii	"tqp\000"
 1752 0752 02       		.byte	0x2
 1753 0753 5A02     		.2byte	0x25a
 1754 0755 5A070000 		.4byte	0x75a
 1755 0759 00       		.byte	0
ARM GAS  /tmp/ccvWj7Xf.s 			page 32


 1756 075a 0A       		.uleb128 0xa
 1757 075b 04       		.byte	0x4
 1758 075c 7B020000 		.4byte	0x27b
 1759 0760 1B       		.uleb128 0x1b
 1760 0761 8A000000 		.4byte	.LASF114
 1761 0765 02       		.byte	0x2
 1762 0766 A802     		.2byte	0x2a8
 1763 0768 51020000 		.4byte	0x251
 1764 076c 03       		.byte	0x3
 1765 076d 89070000 		.4byte	0x789
 1766 0771 1A       		.uleb128 0x1a
 1767 0772 74717000 		.ascii	"tqp\000"
 1768 0776 02       		.byte	0x2
 1769 0777 A802     		.2byte	0x2a8
 1770 0779 5A070000 		.4byte	0x75a
 1771 077d 1C       		.uleb128 0x1c
 1772 077e 747000   		.ascii	"tp\000"
 1773 0781 02       		.byte	0x2
 1774 0782 A902     		.2byte	0x2a9
 1775 0784 51020000 		.4byte	0x251
 1776 0788 00       		.byte	0
 1777 0789 19       		.uleb128 0x19
 1778 078a 38040000 		.4byte	.LASF110
 1779 078e 0D       		.byte	0xd
 1780 078f 5A01     		.2byte	0x15a
 1781 0791 03       		.byte	0x3
 1782 0792 17       		.uleb128 0x17
 1783 0793 C7060000 		.4byte	.LASF111
 1784 0797 0D       		.byte	0xd
 1785 0798 6601     		.2byte	0x166
 1786 079a 03       		.byte	0x3
 1787 079b AD070000 		.4byte	0x7ad
 1788 079f 1D       		.uleb128 0x1d
 1789 07a0 1A050000 		.4byte	.LASF112
 1790 07a4 BD070000 		.4byte	0x7bd
 1791 07a8 C7060000 		.4byte	.LASF111
 1792 07ac 00       		.byte	0
 1793 07ad 15       		.uleb128 0x15
 1794 07ae D1060000 		.4byte	0x6d1
 1795 07b2 BD070000 		.4byte	0x7bd
 1796 07b6 16       		.uleb128 0x16
 1797 07b7 64040000 		.4byte	0x464
 1798 07bb 0B       		.byte	0xb
 1799 07bc 00       		.byte	0
 1800 07bd 14       		.uleb128 0x14
 1801 07be AD070000 		.4byte	0x7ad
 1802 07c2 17       		.uleb128 0x17
 1803 07c3 0D000000 		.4byte	.LASF113
 1804 07c7 02       		.byte	0x2
 1805 07c8 9702     		.2byte	0x297
 1806 07ca 03       		.byte	0x3
 1807 07cb E7070000 		.4byte	0x7e7
 1808 07cf 1A       		.uleb128 0x1a
 1809 07d0 747000   		.ascii	"tp\000"
 1810 07d3 02       		.byte	0x2
 1811 07d4 9702     		.2byte	0x297
 1812 07d6 51020000 		.4byte	0x251
ARM GAS  /tmp/ccvWj7Xf.s 			page 33


 1813 07da 1A       		.uleb128 0x1a
 1814 07db 74717000 		.ascii	"tqp\000"
 1815 07df 02       		.byte	0x2
 1816 07e0 9702     		.2byte	0x297
 1817 07e2 5A070000 		.4byte	0x75a
 1818 07e6 00       		.byte	0
 1819 07e7 1B       		.uleb128 0x1b
 1820 07e8 D7050000 		.4byte	.LASF115
 1821 07ec 02       		.byte	0x2
 1822 07ed 9F02     		.2byte	0x29f
 1823 07ef 51020000 		.4byte	0x251
 1824 07f3 03       		.byte	0x3
 1825 07f4 10080000 		.4byte	0x810
 1826 07f8 1A       		.uleb128 0x1a
 1827 07f9 74717000 		.ascii	"tqp\000"
 1828 07fd 02       		.byte	0x2
 1829 07fe 9F02     		.2byte	0x29f
 1830 0800 5A070000 		.4byte	0x75a
 1831 0804 1C       		.uleb128 0x1c
 1832 0805 747000   		.ascii	"tp\000"
 1833 0808 02       		.byte	0x2
 1834 0809 A002     		.2byte	0x2a0
 1835 080b 51020000 		.4byte	0x251
 1836 080f 00       		.byte	0
 1837 0810 1E       		.uleb128 0x1e
 1838 0811 F4020000 		.4byte	.LASF116
 1839 0815 01       		.byte	0x1
 1840 0816 61       		.byte	0x61
 1841 0817 00000000 		.4byte	.LFB219
 1842 081b 08000000 		.4byte	.LFE219-.LFB219
 1843 081f 01       		.uleb128 0x1
 1844 0820 9C       		.byte	0x9c
 1845 0821 5D080000 		.4byte	0x85d
 1846 0825 1F       		.uleb128 0x1f
 1847 0826 737000   		.ascii	"sp\000"
 1848 0829 01       		.byte	0x1
 1849 082a 61       		.byte	0x61
 1850 082b 5D080000 		.4byte	0x85d
 1851 082f 01       		.uleb128 0x1
 1852 0830 50       		.byte	0x50
 1853 0831 1F       		.uleb128 0x1f
 1854 0832 6E00     		.ascii	"n\000"
 1855 0834 01       		.byte	0x1
 1856 0835 61       		.byte	0x61
 1857 0836 20010000 		.4byte	0x120
 1858 083a 01       		.uleb128 0x1
 1859 083b 51       		.byte	0x51
 1860 083c 20       		.uleb128 0x20
 1861 083d 1A050000 		.4byte	.LASF112
 1862 0841 73080000 		.4byte	0x873
 1863 0845 21       		.uleb128 0x21
 1864 0846 40070000 		.4byte	0x740
 1865 084a 00000000 		.4byte	.LBB84
 1866 084e 04000000 		.4byte	.LBE84-.LBB84
 1867 0852 01       		.byte	0x1
 1868 0853 65       		.byte	0x65
 1869 0854 22       		.uleb128 0x22
ARM GAS  /tmp/ccvWj7Xf.s 			page 34


 1870 0855 4D070000 		.4byte	0x74d
 1871 0859 01       		.uleb128 0x1
 1872 085a 50       		.byte	0x50
 1873 085b 00       		.byte	0
 1874 085c 00       		.byte	0
 1875 085d 0A       		.uleb128 0xa
 1876 085e 04       		.byte	0x4
 1877 085f F8060000 		.4byte	0x6f8
 1878 0863 15       		.uleb128 0x15
 1879 0864 D1060000 		.4byte	0x6d1
 1880 0868 73080000 		.4byte	0x873
 1881 086c 16       		.uleb128 0x16
 1882 086d 64040000 		.4byte	0x464
 1883 0871 0F       		.byte	0xf
 1884 0872 00       		.byte	0
 1885 0873 14       		.uleb128 0x14
 1886 0874 63080000 		.4byte	0x863
 1887 0878 1E       		.uleb128 0x1e
 1888 0879 7F060000 		.4byte	.LASF117
 1889 087d 01       		.byte	0x1
 1890 087e 93       		.byte	0x93
 1891 087f 00000000 		.4byte	.LFB221
 1892 0883 28000000 		.4byte	.LFE221-.LFB221
 1893 0887 01       		.uleb128 0x1
 1894 0888 9C       		.byte	0x9c
 1895 0889 FA080000 		.4byte	0x8fa
 1896 088d 23       		.uleb128 0x23
 1897 088e 737000   		.ascii	"sp\000"
 1898 0891 01       		.byte	0x1
 1899 0892 93       		.byte	0x93
 1900 0893 5D080000 		.4byte	0x85d
 1901 0897 00000000 		.4byte	.LLST0
 1902 089b 23       		.uleb128 0x23
 1903 089c 6E00     		.ascii	"n\000"
 1904 089e 01       		.byte	0x1
 1905 089f 93       		.byte	0x93
 1906 08a0 20010000 		.4byte	0x120
 1907 08a4 1E000000 		.4byte	.LLST1
 1908 08a8 24       		.uleb128 0x24
 1909 08a9 636E7400 		.ascii	"cnt\000"
 1910 08ad 01       		.byte	0x1
 1911 08ae 94       		.byte	0x94
 1912 08af 20010000 		.4byte	0x120
 1913 08b3 3F000000 		.4byte	.LLST2
 1914 08b7 20       		.uleb128 0x20
 1915 08b8 1A050000 		.4byte	.LASF112
 1916 08bc FA080000 		.4byte	0x8fa
 1917 08c0 25       		.uleb128 0x25
 1918 08c1 60070000 		.4byte	0x760
 1919 08c5 12000000 		.4byte	.LBB86
 1920 08c9 08000000 		.4byte	.LBE86-.LBB86
 1921 08cd 01       		.byte	0x1
 1922 08ce 9F       		.byte	0x9f
 1923 08cf F0080000 		.4byte	0x8f0
 1924 08d3 26       		.uleb128 0x26
 1925 08d4 71070000 		.4byte	0x771
 1926 08d8 6A000000 		.4byte	.LLST3
ARM GAS  /tmp/ccvWj7Xf.s 			page 35


 1927 08dc 27       		.uleb128 0x27
 1928 08dd 12000000 		.4byte	.LBB87
 1929 08e1 08000000 		.4byte	.LBE87-.LBB87
 1930 08e5 28       		.uleb128 0x28
 1931 08e6 7D070000 		.4byte	0x77d
 1932 08ea 7D000000 		.4byte	.LLST4
 1933 08ee 00       		.byte	0
 1934 08ef 00       		.byte	0
 1935 08f0 29       		.uleb128 0x29
 1936 08f1 1E000000 		.4byte	.LVL6
 1937 08f5 39100000 		.4byte	0x1039
 1938 08f9 00       		.byte	0
 1939 08fa 14       		.uleb128 0x14
 1940 08fb AD070000 		.4byte	0x7ad
 1941 08ff 1E       		.uleb128 0x1e
 1942 0900 52030000 		.4byte	.LASF118
 1943 0904 01       		.byte	0x1
 1944 0905 78       		.byte	0x78
 1945 0906 00000000 		.4byte	.LFB220
 1946 090a 18000000 		.4byte	.LFE220-.LFB220
 1947 090e 01       		.uleb128 0x1
 1948 090f 9C       		.byte	0x9c
 1949 0910 DC090000 		.4byte	0x9dc
 1950 0914 23       		.uleb128 0x23
 1951 0915 737000   		.ascii	"sp\000"
 1952 0918 01       		.byte	0x1
 1953 0919 78       		.byte	0x78
 1954 091a 5D080000 		.4byte	0x85d
 1955 091e 90000000 		.4byte	.LLST5
 1956 0922 23       		.uleb128 0x23
 1957 0923 6E00     		.ascii	"n\000"
 1958 0925 01       		.byte	0x1
 1959 0926 78       		.byte	0x78
 1960 0927 20010000 		.4byte	0x120
 1961 092b B1000000 		.4byte	.LLST6
 1962 092f 25       		.uleb128 0x25
 1963 0930 89070000 		.4byte	0x789
 1964 0934 02000000 		.4byte	.LBB88
 1965 0938 06000000 		.4byte	.LBE88-.LBB88
 1966 093c 01       		.byte	0x1
 1967 093d 7A       		.byte	0x7a
 1968 093e 6B090000 		.4byte	0x96b
 1969 0942 2A       		.uleb128 0x2a
 1970 0943 2E070000 		.4byte	0x72e
 1971 0947 02000000 		.4byte	.LBB89
 1972 094b 06000000 		.4byte	.LBE89-.LBB89
 1973 094f 0D       		.byte	0xd
 1974 0950 5C01     		.2byte	0x15c
 1975 0952 2A       		.uleb128 0x2a
 1976 0953 14070000 		.4byte	0x714
 1977 0957 02000000 		.4byte	.LBB90
 1978 095b 06000000 		.4byte	.LBE90-.LBB90
 1979 095f 09       		.byte	0x9
 1980 0960 BF01     		.2byte	0x1bf
 1981 0962 2B       		.uleb128 0x2b
 1982 0963 21070000 		.4byte	0x721
 1983 0967 20       		.byte	0x20
ARM GAS  /tmp/ccvWj7Xf.s 			page 36


 1984 0968 00       		.byte	0
 1985 0969 00       		.byte	0
 1986 096a 00       		.byte	0
 1987 096b 25       		.uleb128 0x25
 1988 096c 92070000 		.4byte	0x792
 1989 0970 10000000 		.4byte	.LBB92
 1990 0974 08000000 		.4byte	.LBE92-.LBB92
 1991 0978 01       		.byte	0x1
 1992 0979 7D       		.byte	0x7d
 1993 097a B6090000 		.4byte	0x9b6
 1994 097e 27       		.uleb128 0x27
 1995 097f 10000000 		.4byte	.LBB93
 1996 0983 08000000 		.4byte	.LBE93-.LBB93
 1997 0987 2C       		.uleb128 0x2c
 1998 0988 9F070000 		.4byte	0x79f
 1999 098c 2A       		.uleb128 0x2a
 2000 098d 37070000 		.4byte	0x737
 2001 0991 10000000 		.4byte	.LBB94
 2002 0995 08000000 		.4byte	.LBE94-.LBB94
 2003 0999 0D       		.byte	0xd
 2004 099a 7301     		.2byte	0x173
 2005 099c 2A       		.uleb128 0x2a
 2006 099d 14070000 		.4byte	0x714
 2007 09a1 10000000 		.4byte	.LBB95
 2008 09a5 08000000 		.4byte	.LBE95-.LBB95
 2009 09a9 09       		.byte	0x9
 2010 09aa CD01     		.2byte	0x1cd
 2011 09ac 2B       		.uleb128 0x2b
 2012 09ad 21070000 		.4byte	0x721
 2013 09b1 00       		.byte	0
 2014 09b2 00       		.byte	0
 2015 09b3 00       		.byte	0
 2016 09b4 00       		.byte	0
 2017 09b5 00       		.byte	0
 2018 09b6 2D       		.uleb128 0x2d
 2019 09b7 0C000000 		.4byte	.LVL11
 2020 09bb 78080000 		.4byte	0x878
 2021 09bf D2090000 		.4byte	0x9d2
 2022 09c3 2E       		.uleb128 0x2e
 2023 09c4 01       		.uleb128 0x1
 2024 09c5 51       		.byte	0x51
 2025 09c6 03       		.uleb128 0x3
 2026 09c7 F3       		.byte	0xf3
 2027 09c8 01       		.uleb128 0x1
 2028 09c9 51       		.byte	0x51
 2029 09ca 2E       		.uleb128 0x2e
 2030 09cb 01       		.uleb128 0x1
 2031 09cc 50       		.byte	0x50
 2032 09cd 03       		.uleb128 0x3
 2033 09ce F3       		.byte	0xf3
 2034 09cf 01       		.uleb128 0x1
 2035 09d0 50       		.byte	0x50
 2036 09d1 00       		.byte	0
 2037 09d2 29       		.uleb128 0x29
 2038 09d3 10000000 		.4byte	.LVL12
 2039 09d7 4F100000 		.4byte	0x104f
 2040 09db 00       		.byte	0
ARM GAS  /tmp/ccvWj7Xf.s 			page 37


 2041 09dc 2F       		.uleb128 0x2f
 2042 09dd 23050000 		.4byte	.LASF119
 2043 09e1 01       		.byte	0x1
 2044 09e2 C5       		.byte	0xc5
 2045 09e3 0A010000 		.4byte	0x10a
 2046 09e7 00000000 		.4byte	.LFB223
 2047 09eb 34000000 		.4byte	.LFE223-.LFB223
 2048 09ef 01       		.uleb128 0x1
 2049 09f0 9C       		.byte	0x9c
 2050 09f1 420A0000 		.4byte	0xa42
 2051 09f5 23       		.uleb128 0x23
 2052 09f6 737000   		.ascii	"sp\000"
 2053 09f9 01       		.byte	0x1
 2054 09fa C5       		.byte	0xc5
 2055 09fb 5D080000 		.4byte	0x85d
 2056 09ff D2000000 		.4byte	.LLST7
 2057 0a03 20       		.uleb128 0x20
 2058 0a04 1A050000 		.4byte	.LASF112
 2059 0a08 520A0000 		.4byte	0xa52
 2060 0a0c 30       		.uleb128 0x30
 2061 0a0d C2070000 		.4byte	0x7c2
 2062 0a11 18000000 		.4byte	.LBB97
 2063 0a15 00000000 		.4byte	.Ldebug_ranges0+0
 2064 0a19 01       		.byte	0x1
 2065 0a1a CF       		.byte	0xcf
 2066 0a1b 320A0000 		.4byte	0xa32
 2067 0a1f 26       		.uleb128 0x26
 2068 0a20 DA070000 		.4byte	0x7da
 2069 0a24 14010000 		.4byte	.LLST8
 2070 0a28 26       		.uleb128 0x26
 2071 0a29 CF070000 		.4byte	0x7cf
 2072 0a2d 41010000 		.4byte	.LLST9
 2073 0a31 00       		.byte	0
 2074 0a32 31       		.uleb128 0x31
 2075 0a33 28000000 		.4byte	.LVL19
 2076 0a37 57100000 		.4byte	0x1057
 2077 0a3b 2E       		.uleb128 0x2e
 2078 0a3c 01       		.uleb128 0x1
 2079 0a3d 50       		.byte	0x50
 2080 0a3e 01       		.uleb128 0x1
 2081 0a3f 35       		.byte	0x35
 2082 0a40 00       		.byte	0
 2083 0a41 00       		.byte	0
 2084 0a42 15       		.uleb128 0x15
 2085 0a43 D1060000 		.4byte	0x6d1
 2086 0a47 520A0000 		.4byte	0xa52
 2087 0a4b 16       		.uleb128 0x16
 2088 0a4c 64040000 		.4byte	0x464
 2089 0a50 0A       		.byte	0xa
 2090 0a51 00       		.byte	0
 2091 0a52 14       		.uleb128 0x14
 2092 0a53 420A0000 		.4byte	0xa42
 2093 0a57 2F       		.uleb128 0x2f
 2094 0a58 20060000 		.4byte	.LASF120
 2095 0a5c 01       		.byte	0x1
 2096 0a5d AF       		.byte	0xaf
 2097 0a5e 0A010000 		.4byte	0x10a
ARM GAS  /tmp/ccvWj7Xf.s 			page 38


 2098 0a62 00000000 		.4byte	.LFB222
 2099 0a66 14000000 		.4byte	.LFE222-.LFB222
 2100 0a6a 01       		.uleb128 0x1
 2101 0a6b 9C       		.byte	0x9c
 2102 0a6c 240B0000 		.4byte	0xb24
 2103 0a70 23       		.uleb128 0x23
 2104 0a71 737000   		.ascii	"sp\000"
 2105 0a74 01       		.byte	0x1
 2106 0a75 AF       		.byte	0xaf
 2107 0a76 5D080000 		.4byte	0x85d
 2108 0a7a 54010000 		.4byte	.LLST10
 2109 0a7e 32       		.uleb128 0x32
 2110 0a7f 6D736700 		.ascii	"msg\000"
 2111 0a83 01       		.byte	0x1
 2112 0a84 B0       		.byte	0xb0
 2113 0a85 0A010000 		.4byte	0x10a
 2114 0a89 01       		.uleb128 0x1
 2115 0a8a 50       		.byte	0x50
 2116 0a8b 25       		.uleb128 0x25
 2117 0a8c 89070000 		.4byte	0x789
 2118 0a90 02000000 		.4byte	.LBB101
 2119 0a94 06000000 		.4byte	.LBE101-.LBB101
 2120 0a98 01       		.byte	0x1
 2121 0a99 B2       		.byte	0xb2
 2122 0a9a C70A0000 		.4byte	0xac7
 2123 0a9e 2A       		.uleb128 0x2a
 2124 0a9f 2E070000 		.4byte	0x72e
 2125 0aa3 02000000 		.4byte	.LBB102
 2126 0aa7 06000000 		.4byte	.LBE102-.LBB102
 2127 0aab 0D       		.byte	0xd
 2128 0aac 5C01     		.2byte	0x15c
 2129 0aae 2A       		.uleb128 0x2a
 2130 0aaf 14070000 		.4byte	0x714
 2131 0ab3 02000000 		.4byte	.LBB103
 2132 0ab7 06000000 		.4byte	.LBE103-.LBB103
 2133 0abb 09       		.byte	0x9
 2134 0abc BF01     		.2byte	0x1bf
 2135 0abe 2B       		.uleb128 0x2b
 2136 0abf 21070000 		.4byte	0x721
 2137 0ac3 20       		.byte	0x20
 2138 0ac4 00       		.byte	0
 2139 0ac5 00       		.byte	0
 2140 0ac6 00       		.byte	0
 2141 0ac7 25       		.uleb128 0x25
 2142 0ac8 92070000 		.4byte	0x792
 2143 0acc 0C000000 		.4byte	.LBB105
 2144 0ad0 06000000 		.4byte	.LBE105-.LBB105
 2145 0ad4 01       		.byte	0x1
 2146 0ad5 B4       		.byte	0xb4
 2147 0ad6 120B0000 		.4byte	0xb12
 2148 0ada 27       		.uleb128 0x27
 2149 0adb 0C000000 		.4byte	.LBB106
 2150 0adf 06000000 		.4byte	.LBE106-.LBB106
 2151 0ae3 2C       		.uleb128 0x2c
 2152 0ae4 9F070000 		.4byte	0x79f
 2153 0ae8 2A       		.uleb128 0x2a
 2154 0ae9 37070000 		.4byte	0x737
ARM GAS  /tmp/ccvWj7Xf.s 			page 39


 2155 0aed 0C000000 		.4byte	.LBB107
 2156 0af1 06000000 		.4byte	.LBE107-.LBB107
 2157 0af5 0D       		.byte	0xd
 2158 0af6 7301     		.2byte	0x173
 2159 0af8 2A       		.uleb128 0x2a
 2160 0af9 14070000 		.4byte	0x714
 2161 0afd 0C000000 		.4byte	.LBB108
 2162 0b01 06000000 		.4byte	.LBE108-.LBB108
 2163 0b05 09       		.byte	0x9
 2164 0b06 CD01     		.2byte	0x1cd
 2165 0b08 2B       		.uleb128 0x2b
 2166 0b09 21070000 		.4byte	0x721
 2167 0b0d 00       		.byte	0
 2168 0b0e 00       		.byte	0
 2169 0b0f 00       		.byte	0
 2170 0b10 00       		.byte	0
 2171 0b11 00       		.byte	0
 2172 0b12 31       		.uleb128 0x31
 2173 0b13 0C000000 		.4byte	.LVL21
 2174 0b17 DC090000 		.4byte	0x9dc
 2175 0b1b 2E       		.uleb128 0x2e
 2176 0b1c 01       		.uleb128 0x1
 2177 0b1d 50       		.byte	0x50
 2178 0b1e 03       		.uleb128 0x3
 2179 0b1f F3       		.byte	0xf3
 2180 0b20 01       		.uleb128 0x1
 2181 0b21 50       		.byte	0x50
 2182 0b22 00       		.byte	0
 2183 0b23 00       		.byte	0
 2184 0b24 33       		.uleb128 0x33
 2185 0b25 BC050000 		.4byte	.LASF121
 2186 0b29 01       		.byte	0x1
 2187 0b2a 0801     		.2byte	0x108
 2188 0b2c 0A010000 		.4byte	0x10a
 2189 0b30 00000000 		.4byte	.LFB225
 2190 0b34 40000000 		.4byte	.LFE225-.LFB225
 2191 0b38 01       		.uleb128 0x1
 2192 0b39 9C       		.byte	0x9c
 2193 0b3a 9D0B0000 		.4byte	0xb9d
 2194 0b3e 34       		.uleb128 0x34
 2195 0b3f 737000   		.ascii	"sp\000"
 2196 0b42 01       		.byte	0x1
 2197 0b43 0801     		.2byte	0x108
 2198 0b45 5D080000 		.4byte	0x85d
 2199 0b49 75010000 		.4byte	.LLST11
 2200 0b4d 35       		.uleb128 0x35
 2201 0b4e 68040000 		.4byte	.LASF122
 2202 0b52 01       		.byte	0x1
 2203 0b53 0801     		.2byte	0x108
 2204 0b55 2B010000 		.4byte	0x12b
 2205 0b59 AC010000 		.4byte	.LLST12
 2206 0b5d 20       		.uleb128 0x20
 2207 0b5e 1A050000 		.4byte	.LASF112
 2208 0b62 AD0B0000 		.4byte	0xbad
 2209 0b66 36       		.uleb128 0x36
 2210 0b67 C2070000 		.4byte	0x7c2
 2211 0b6b 1E000000 		.4byte	.LBB110
ARM GAS  /tmp/ccvWj7Xf.s 			page 40


 2212 0b6f 18000000 		.4byte	.Ldebug_ranges0+0x18
 2213 0b73 01       		.byte	0x1
 2214 0b74 1701     		.2byte	0x117
 2215 0b76 8D0B0000 		.4byte	0xb8d
 2216 0b7a 26       		.uleb128 0x26
 2217 0b7b DA070000 		.4byte	0x7da
 2218 0b7f D8010000 		.4byte	.LLST13
 2219 0b83 26       		.uleb128 0x26
 2220 0b84 CF070000 		.4byte	0x7cf
 2221 0b88 05020000 		.4byte	.LLST14
 2222 0b8c 00       		.byte	0
 2223 0b8d 37       		.uleb128 0x37
 2224 0b8e 32000000 		.4byte	.LVL26
 2225 0b92 69100000 		.4byte	0x1069
 2226 0b96 2E       		.uleb128 0x2e
 2227 0b97 01       		.uleb128 0x1
 2228 0b98 50       		.byte	0x50
 2229 0b99 01       		.uleb128 0x1
 2230 0b9a 35       		.byte	0x35
 2231 0b9b 00       		.byte	0
 2232 0b9c 00       		.byte	0
 2233 0b9d 15       		.uleb128 0x15
 2234 0b9e D1060000 		.4byte	0x6d1
 2235 0ba2 AD0B0000 		.4byte	0xbad
 2236 0ba6 16       		.uleb128 0x16
 2237 0ba7 64040000 		.4byte	0x464
 2238 0bab 11       		.byte	0x11
 2239 0bac 00       		.byte	0
 2240 0bad 14       		.uleb128 0x14
 2241 0bae 9D0B0000 		.4byte	0xb9d
 2242 0bb2 2F       		.uleb128 0x2f
 2243 0bb3 17030000 		.4byte	.LASF123
 2244 0bb7 01       		.byte	0x1
 2245 0bb8 EB       		.byte	0xeb
 2246 0bb9 0A010000 		.4byte	0x10a
 2247 0bbd 00000000 		.4byte	.LFB224
 2248 0bc1 14000000 		.4byte	.LFE224-.LFB224
 2249 0bc5 01       		.uleb128 0x1
 2250 0bc6 9C       		.byte	0x9c
 2251 0bc7 950C0000 		.4byte	0xc95
 2252 0bcb 23       		.uleb128 0x23
 2253 0bcc 737000   		.ascii	"sp\000"
 2254 0bcf 01       		.byte	0x1
 2255 0bd0 EB       		.byte	0xeb
 2256 0bd1 5D080000 		.4byte	0x85d
 2257 0bd5 18020000 		.4byte	.LLST15
 2258 0bd9 38       		.uleb128 0x38
 2259 0bda 68040000 		.4byte	.LASF122
 2260 0bde 01       		.byte	0x1
 2261 0bdf EB       		.byte	0xeb
 2262 0be0 2B010000 		.4byte	0x12b
 2263 0be4 39020000 		.4byte	.LLST16
 2264 0be8 32       		.uleb128 0x32
 2265 0be9 6D736700 		.ascii	"msg\000"
 2266 0bed 01       		.byte	0x1
 2267 0bee EC       		.byte	0xec
 2268 0bef 0A010000 		.4byte	0x10a
ARM GAS  /tmp/ccvWj7Xf.s 			page 41


 2269 0bf3 01       		.uleb128 0x1
 2270 0bf4 50       		.byte	0x50
 2271 0bf5 25       		.uleb128 0x25
 2272 0bf6 89070000 		.4byte	0x789
 2273 0bfa 02000000 		.4byte	.LBB114
 2274 0bfe 06000000 		.4byte	.LBE114-.LBB114
 2275 0c02 01       		.byte	0x1
 2276 0c03 EE       		.byte	0xee
 2277 0c04 310C0000 		.4byte	0xc31
 2278 0c08 2A       		.uleb128 0x2a
 2279 0c09 2E070000 		.4byte	0x72e
 2280 0c0d 02000000 		.4byte	.LBB115
 2281 0c11 06000000 		.4byte	.LBE115-.LBB115
 2282 0c15 0D       		.byte	0xd
 2283 0c16 5C01     		.2byte	0x15c
 2284 0c18 2A       		.uleb128 0x2a
 2285 0c19 14070000 		.4byte	0x714
 2286 0c1d 02000000 		.4byte	.LBB116
 2287 0c21 06000000 		.4byte	.LBE116-.LBB116
 2288 0c25 09       		.byte	0x9
 2289 0c26 BF01     		.2byte	0x1bf
 2290 0c28 2B       		.uleb128 0x2b
 2291 0c29 21070000 		.4byte	0x721
 2292 0c2d 20       		.byte	0x20
 2293 0c2e 00       		.byte	0
 2294 0c2f 00       		.byte	0
 2295 0c30 00       		.byte	0
 2296 0c31 25       		.uleb128 0x25
 2297 0c32 92070000 		.4byte	0x792
 2298 0c36 0C000000 		.4byte	.LBB118
 2299 0c3a 06000000 		.4byte	.LBE118-.LBB118
 2300 0c3e 01       		.byte	0x1
 2301 0c3f F0       		.byte	0xf0
 2302 0c40 7C0C0000 		.4byte	0xc7c
 2303 0c44 27       		.uleb128 0x27
 2304 0c45 0C000000 		.4byte	.LBB119
 2305 0c49 06000000 		.4byte	.LBE119-.LBB119
 2306 0c4d 2C       		.uleb128 0x2c
 2307 0c4e 9F070000 		.4byte	0x79f
 2308 0c52 2A       		.uleb128 0x2a
 2309 0c53 37070000 		.4byte	0x737
 2310 0c57 0C000000 		.4byte	.LBB120
 2311 0c5b 06000000 		.4byte	.LBE120-.LBB120
 2312 0c5f 0D       		.byte	0xd
 2313 0c60 7301     		.2byte	0x173
 2314 0c62 2A       		.uleb128 0x2a
 2315 0c63 14070000 		.4byte	0x714
 2316 0c67 0C000000 		.4byte	.LBB121
 2317 0c6b 06000000 		.4byte	.LBE121-.LBB121
 2318 0c6f 09       		.byte	0x9
 2319 0c70 CD01     		.2byte	0x1cd
 2320 0c72 2B       		.uleb128 0x2b
 2321 0c73 21070000 		.4byte	0x721
 2322 0c77 00       		.byte	0
 2323 0c78 00       		.byte	0
 2324 0c79 00       		.byte	0
 2325 0c7a 00       		.byte	0
ARM GAS  /tmp/ccvWj7Xf.s 			page 42


 2326 0c7b 00       		.byte	0
 2327 0c7c 31       		.uleb128 0x31
 2328 0c7d 0C000000 		.4byte	.LVL28
 2329 0c81 240B0000 		.4byte	0xb24
 2330 0c85 2E       		.uleb128 0x2e
 2331 0c86 01       		.uleb128 0x1
 2332 0c87 51       		.byte	0x51
 2333 0c88 03       		.uleb128 0x3
 2334 0c89 F3       		.byte	0xf3
 2335 0c8a 01       		.uleb128 0x1
 2336 0c8b 51       		.byte	0x51
 2337 0c8c 2E       		.uleb128 0x2e
 2338 0c8d 01       		.uleb128 0x1
 2339 0c8e 50       		.byte	0x50
 2340 0c8f 03       		.uleb128 0x3
 2341 0c90 F3       		.byte	0xf3
 2342 0c91 01       		.uleb128 0x1
 2343 0c92 50       		.byte	0x50
 2344 0c93 00       		.byte	0
 2345 0c94 00       		.byte	0
 2346 0c95 39       		.uleb128 0x39
 2347 0c96 9C000000 		.4byte	.LASF124
 2348 0c9a 01       		.byte	0x1
 2349 0c9b 2601     		.2byte	0x126
 2350 0c9d 00000000 		.4byte	.LFB226
 2351 0ca1 32000000 		.4byte	.LFE226-.LFB226
 2352 0ca5 01       		.uleb128 0x1
 2353 0ca6 9C       		.byte	0x9c
 2354 0ca7 880D0000 		.4byte	0xd88
 2355 0cab 34       		.uleb128 0x34
 2356 0cac 737000   		.ascii	"sp\000"
 2357 0caf 01       		.byte	0x1
 2358 0cb0 2601     		.2byte	0x126
 2359 0cb2 5D080000 		.4byte	0x85d
 2360 0cb6 5A020000 		.4byte	.LLST17
 2361 0cba 20       		.uleb128 0x20
 2362 0cbb 1A050000 		.4byte	.LASF112
 2363 0cbf 880D0000 		.4byte	0xd88
 2364 0cc3 36       		.uleb128 0x36
 2365 0cc4 89070000 		.4byte	0x789
 2366 0cc8 02000000 		.4byte	.LBB123
 2367 0ccc 30000000 		.4byte	.Ldebug_ranges0+0x30
 2368 0cd0 01       		.byte	0x1
 2369 0cd1 2D01     		.2byte	0x12d
 2370 0cd3 000D0000 		.4byte	0xd00
 2371 0cd7 3A       		.uleb128 0x3a
 2372 0cd8 2E070000 		.4byte	0x72e
 2373 0cdc 02000000 		.4byte	.LBB124
 2374 0ce0 30000000 		.4byte	.Ldebug_ranges0+0x30
 2375 0ce4 0D       		.byte	0xd
 2376 0ce5 5C01     		.2byte	0x15c
 2377 0ce7 3A       		.uleb128 0x3a
 2378 0ce8 14070000 		.4byte	0x714
 2379 0cec 02000000 		.4byte	.LBB125
 2380 0cf0 30000000 		.4byte	.Ldebug_ranges0+0x30
 2381 0cf4 09       		.byte	0x9
 2382 0cf5 BF01     		.2byte	0x1bf
ARM GAS  /tmp/ccvWj7Xf.s 			page 43


 2383 0cf7 2B       		.uleb128 0x2b
 2384 0cf8 21070000 		.4byte	0x721
 2385 0cfc 20       		.byte	0x20
 2386 0cfd 00       		.byte	0
 2387 0cfe 00       		.byte	0
 2388 0cff 00       		.byte	0
 2389 0d00 36       		.uleb128 0x36
 2390 0d01 92070000 		.4byte	0x792
 2391 0d05 14000000 		.4byte	.LBB131
 2392 0d09 48000000 		.4byte	.Ldebug_ranges0+0x48
 2393 0d0d 01       		.byte	0x1
 2394 0d0e 3101     		.2byte	0x131
 2395 0d10 4B0D0000 		.4byte	0xd4b
 2396 0d14 3B       		.uleb128 0x3b
 2397 0d15 48000000 		.4byte	.Ldebug_ranges0+0x48
 2398 0d19 2C       		.uleb128 0x2c
 2399 0d1a 9F070000 		.4byte	0x79f
 2400 0d1e 3A       		.uleb128 0x3a
 2401 0d1f 37070000 		.4byte	0x737
 2402 0d23 14000000 		.4byte	.LBB133
 2403 0d27 48000000 		.4byte	.Ldebug_ranges0+0x48
 2404 0d2b 0D       		.byte	0xd
 2405 0d2c 7301     		.2byte	0x173
 2406 0d2e 3A       		.uleb128 0x3a
 2407 0d2f 14070000 		.4byte	0x714
 2408 0d33 14000000 		.4byte	.LBB134
 2409 0d37 48000000 		.4byte	.Ldebug_ranges0+0x48
 2410 0d3b 09       		.byte	0x9
 2411 0d3c CD01     		.2byte	0x1cd
 2412 0d3e 26       		.uleb128 0x26
 2413 0d3f 21070000 		.4byte	0x721
 2414 0d43 86020000 		.4byte	.LLST18
 2415 0d47 00       		.byte	0
 2416 0d48 00       		.byte	0
 2417 0d49 00       		.byte	0
 2418 0d4a 00       		.byte	0
 2419 0d4b 36       		.uleb128 0x36
 2420 0d4c E7070000 		.4byte	0x7e7
 2421 0d50 1C000000 		.4byte	.LBB140
 2422 0d54 60000000 		.4byte	.Ldebug_ranges0+0x60
 2423 0d58 01       		.byte	0x1
 2424 0d59 2F01     		.2byte	0x12f
 2425 0d5b 780D0000 		.4byte	0xd78
 2426 0d5f 26       		.uleb128 0x26
 2427 0d60 F8070000 		.4byte	0x7f8
 2428 0d64 A6020000 		.4byte	.LLST19
 2429 0d68 3B       		.uleb128 0x3b
 2430 0d69 60000000 		.4byte	.Ldebug_ranges0+0x60
 2431 0d6d 28       		.uleb128 0x28
 2432 0d6e 04080000 		.4byte	0x804
 2433 0d72 D2020000 		.4byte	.LLST20
 2434 0d76 00       		.byte	0
 2435 0d77 00       		.byte	0
 2436 0d78 31       		.uleb128 0x31
 2437 0d79 2A000000 		.4byte	.LVL33
 2438 0d7d 84100000 		.4byte	0x1084
 2439 0d81 2E       		.uleb128 0x2e
ARM GAS  /tmp/ccvWj7Xf.s 			page 44


 2440 0d82 01       		.uleb128 0x1
 2441 0d83 51       		.byte	0x51
 2442 0d84 01       		.uleb128 0x1
 2443 0d85 30       		.byte	0x30
 2444 0d86 00       		.byte	0
 2445 0d87 00       		.byte	0
 2446 0d88 14       		.uleb128 0x14
 2447 0d89 AD070000 		.4byte	0x7ad
 2448 0d8d 39       		.uleb128 0x39
 2449 0d8e 72060000 		.4byte	.LASF125
 2450 0d92 01       		.byte	0x1
 2451 0d93 3F01     		.2byte	0x13f
 2452 0d95 00000000 		.4byte	.LFB227
 2453 0d99 1E000000 		.4byte	.LFE227-.LFB227
 2454 0d9d 01       		.uleb128 0x1
 2455 0d9e 9C       		.byte	0x9c
 2456 0d9f 090E0000 		.4byte	0xe09
 2457 0da3 34       		.uleb128 0x34
 2458 0da4 737000   		.ascii	"sp\000"
 2459 0da7 01       		.byte	0x1
 2460 0da8 3F01     		.2byte	0x13f
 2461 0daa 5D080000 		.4byte	0x85d
 2462 0dae E5020000 		.4byte	.LLST21
 2463 0db2 20       		.uleb128 0x20
 2464 0db3 1A050000 		.4byte	.LASF112
 2465 0db7 190E0000 		.4byte	0xe19
 2466 0dbb 27       		.uleb128 0x27
 2467 0dbc 0C000000 		.4byte	.LBB145
 2468 0dc0 12000000 		.4byte	.LBE145-.LBB145
 2469 0dc4 3C       		.uleb128 0x3c
 2470 0dc5 747000   		.ascii	"tp\000"
 2471 0dc8 01       		.byte	0x1
 2472 0dc9 4A01     		.2byte	0x14a
 2473 0dcb 51020000 		.4byte	0x251
 2474 0dcf 01       		.uleb128 0x1
 2475 0dd0 53       		.byte	0x53
 2476 0dd1 36       		.uleb128 0x36
 2477 0dd2 E7070000 		.4byte	0x7e7
 2478 0dd6 0C000000 		.4byte	.LBB146
 2479 0dda 78000000 		.4byte	.Ldebug_ranges0+0x78
 2480 0dde 01       		.byte	0x1
 2481 0ddf 4A01     		.2byte	0x14a
 2482 0de1 FE0D0000 		.4byte	0xdfe
 2483 0de5 26       		.uleb128 0x26
 2484 0de6 F8070000 		.4byte	0x7f8
 2485 0dea 12030000 		.4byte	.LLST22
 2486 0dee 3B       		.uleb128 0x3b
 2487 0def 78000000 		.4byte	.Ldebug_ranges0+0x78
 2488 0df3 28       		.uleb128 0x28
 2489 0df4 04080000 		.4byte	0x804
 2490 0df8 3F030000 		.4byte	.LLST23
 2491 0dfc 00       		.byte	0
 2492 0dfd 00       		.byte	0
 2493 0dfe 3D       		.uleb128 0x3d
 2494 0dff 1E000000 		.4byte	.LVL38
 2495 0e03 39100000 		.4byte	0x1039
 2496 0e07 00       		.byte	0
ARM GAS  /tmp/ccvWj7Xf.s 			page 45


 2497 0e08 00       		.byte	0
 2498 0e09 15       		.uleb128 0x15
 2499 0e0a D1060000 		.4byte	0x6d1
 2500 0e0e 190E0000 		.4byte	0xe19
 2501 0e12 16       		.uleb128 0x16
 2502 0e13 64040000 		.4byte	0x464
 2503 0e17 0C       		.byte	0xc
 2504 0e18 00       		.byte	0
 2505 0e19 14       		.uleb128 0x14
 2506 0e1a 090E0000 		.4byte	0xe09
 2507 0e1e 39       		.uleb128 0x39
 2508 0e1f BC000000 		.4byte	.LASF126
 2509 0e23 01       		.byte	0x1
 2510 0e24 5D01     		.2byte	0x15d
 2511 0e26 00000000 		.4byte	.LFB228
 2512 0e2a 2E000000 		.4byte	.LFE228-.LFB228
 2513 0e2e 01       		.uleb128 0x1
 2514 0e2f 9C       		.byte	0x9c
 2515 0e30 950E0000 		.4byte	0xe95
 2516 0e34 34       		.uleb128 0x34
 2517 0e35 737000   		.ascii	"sp\000"
 2518 0e38 01       		.byte	0x1
 2519 0e39 5D01     		.2byte	0x15d
 2520 0e3b 5D080000 		.4byte	0x85d
 2521 0e3f 52030000 		.4byte	.LLST24
 2522 0e43 34       		.uleb128 0x34
 2523 0e44 6E00     		.ascii	"n\000"
 2524 0e46 01       		.byte	0x1
 2525 0e47 5D01     		.2byte	0x15d
 2526 0e49 20010000 		.4byte	0x120
 2527 0e4d 70030000 		.4byte	.LLST25
 2528 0e51 20       		.uleb128 0x20
 2529 0e52 1A050000 		.4byte	.LASF112
 2530 0e56 A50E0000 		.4byte	0xea5
 2531 0e5a 3E       		.uleb128 0x3e
 2532 0e5b E7070000 		.4byte	0x7e7
 2533 0e5f 1A000000 		.4byte	.LBB150
 2534 0e63 08000000 		.4byte	.LBE150-.LBB150
 2535 0e67 01       		.byte	0x1
 2536 0e68 6701     		.2byte	0x167
 2537 0e6a 8B0E0000 		.4byte	0xe8b
 2538 0e6e 26       		.uleb128 0x26
 2539 0e6f F8070000 		.4byte	0x7f8
 2540 0e73 A8030000 		.4byte	.LLST26
 2541 0e77 27       		.uleb128 0x27
 2542 0e78 1A000000 		.4byte	.LBB151
 2543 0e7c 08000000 		.4byte	.LBE151-.LBB151
 2544 0e80 28       		.uleb128 0x28
 2545 0e81 04080000 		.4byte	0x804
 2546 0e85 BB030000 		.4byte	.LLST27
 2547 0e89 00       		.byte	0
 2548 0e8a 00       		.byte	0
 2549 0e8b 29       		.uleb128 0x29
 2550 0e8c 26000000 		.4byte	.LVL45
 2551 0e90 39100000 		.4byte	0x1039
 2552 0e94 00       		.byte	0
 2553 0e95 15       		.uleb128 0x15
ARM GAS  /tmp/ccvWj7Xf.s 			page 46


 2554 0e96 D1060000 		.4byte	0x6d1
 2555 0e9a A50E0000 		.4byte	0xea5
 2556 0e9e 16       		.uleb128 0x16
 2557 0e9f 64040000 		.4byte	0x464
 2558 0ea3 10       		.byte	0x10
 2559 0ea4 00       		.byte	0
 2560 0ea5 14       		.uleb128 0x14
 2561 0ea6 950E0000 		.4byte	0xe95
 2562 0eaa 33       		.uleb128 0x33
 2563 0eab 0C010000 		.4byte	.LASF127
 2564 0eaf 01       		.byte	0x1
 2565 0eb0 7A01     		.2byte	0x17a
 2566 0eb2 0A010000 		.4byte	0x10a
 2567 0eb6 00000000 		.4byte	.LFB229
 2568 0eba 6C000000 		.4byte	.LFE229-.LFB229
 2569 0ebe 01       		.uleb128 0x1
 2570 0ebf 9C       		.byte	0x9c
 2571 0ec0 1D100000 		.4byte	0x101d
 2572 0ec4 34       		.uleb128 0x34
 2573 0ec5 73707300 		.ascii	"sps\000"
 2574 0ec9 01       		.byte	0x1
 2575 0eca 7A01     		.2byte	0x17a
 2576 0ecc 5D080000 		.4byte	0x85d
 2577 0ed0 CE030000 		.4byte	.LLST28
 2578 0ed4 34       		.uleb128 0x34
 2579 0ed5 73707700 		.ascii	"spw\000"
 2580 0ed9 01       		.byte	0x1
 2581 0eda 7A01     		.2byte	0x17a
 2582 0edc 5D080000 		.4byte	0x85d
 2583 0ee0 13040000 		.4byte	.LLST29
 2584 0ee4 3F       		.uleb128 0x3f
 2585 0ee5 6D736700 		.ascii	"msg\000"
 2586 0ee9 01       		.byte	0x1
 2587 0eea 7B01     		.2byte	0x17b
 2588 0eec 0A010000 		.4byte	0x10a
 2589 0ef0 4D040000 		.4byte	.LLST30
 2590 0ef4 20       		.uleb128 0x20
 2591 0ef5 1A050000 		.4byte	.LASF112
 2592 0ef9 1D100000 		.4byte	0x101d
 2593 0efd 3E       		.uleb128 0x3e
 2594 0efe 89070000 		.4byte	0x789
 2595 0f02 06000000 		.4byte	.LBB152
 2596 0f06 06000000 		.4byte	.LBE152-.LBB152
 2597 0f0a 01       		.byte	0x1
 2598 0f0b 8501     		.2byte	0x185
 2599 0f0d 3A0F0000 		.4byte	0xf3a
 2600 0f11 2A       		.uleb128 0x2a
 2601 0f12 2E070000 		.4byte	0x72e
 2602 0f16 06000000 		.4byte	.LBB153
 2603 0f1a 06000000 		.4byte	.LBE153-.LBB153
 2604 0f1e 0D       		.byte	0xd
 2605 0f1f 5C01     		.2byte	0x15c
 2606 0f21 2A       		.uleb128 0x2a
 2607 0f22 14070000 		.4byte	0x714
 2608 0f26 06000000 		.4byte	.LBB154
 2609 0f2a 06000000 		.4byte	.LBE154-.LBB154
 2610 0f2e 09       		.byte	0x9
ARM GAS  /tmp/ccvWj7Xf.s 			page 47


 2611 0f2f BF01     		.2byte	0x1bf
 2612 0f31 2B       		.uleb128 0x2b
 2613 0f32 21070000 		.4byte	0x721
 2614 0f36 20       		.byte	0x20
 2615 0f37 00       		.byte	0
 2616 0f38 00       		.byte	0
 2617 0f39 00       		.byte	0
 2618 0f3a 36       		.uleb128 0x36
 2619 0f3b 92070000 		.4byte	0x792
 2620 0f3f 26000000 		.4byte	.LBB156
 2621 0f43 90000000 		.4byte	.Ldebug_ranges0+0x90
 2622 0f47 01       		.byte	0x1
 2623 0f48 9401     		.2byte	0x194
 2624 0f4a 850F0000 		.4byte	0xf85
 2625 0f4e 3B       		.uleb128 0x3b
 2626 0f4f 90000000 		.4byte	.Ldebug_ranges0+0x90
 2627 0f53 2C       		.uleb128 0x2c
 2628 0f54 9F070000 		.4byte	0x79f
 2629 0f58 3A       		.uleb128 0x3a
 2630 0f59 37070000 		.4byte	0x737
 2631 0f5d 26000000 		.4byte	.LBB158
 2632 0f61 90000000 		.4byte	.Ldebug_ranges0+0x90
 2633 0f65 0D       		.byte	0xd
 2634 0f66 7301     		.2byte	0x173
 2635 0f68 3A       		.uleb128 0x3a
 2636 0f69 14070000 		.4byte	0x714
 2637 0f6d 26000000 		.4byte	.LBB159
 2638 0f71 90000000 		.4byte	.Ldebug_ranges0+0x90
 2639 0f75 09       		.byte	0x9
 2640 0f76 CD01     		.2byte	0x1cd
 2641 0f78 26       		.uleb128 0x26
 2642 0f79 21070000 		.4byte	0x721
 2643 0f7d 77040000 		.4byte	.LLST31
 2644 0f81 00       		.byte	0
 2645 0f82 00       		.byte	0
 2646 0f83 00       		.byte	0
 2647 0f84 00       		.byte	0
 2648 0f85 40       		.uleb128 0x40
 2649 0f86 30000000 		.4byte	.LBB165
 2650 0f8a 18000000 		.4byte	.LBE165-.LBB165
 2651 0f8e D90F0000 		.4byte	0xfd9
 2652 0f92 3F       		.uleb128 0x3f
 2653 0f93 63747000 		.ascii	"ctp\000"
 2654 0f97 01       		.byte	0x1
 2655 0f98 8A01     		.2byte	0x18a
 2656 0f9a 51020000 		.4byte	0x251
 2657 0f9e 97040000 		.4byte	.LLST32
 2658 0fa2 36       		.uleb128 0x36
 2659 0fa3 C2070000 		.4byte	0x7c2
 2660 0fa7 32000000 		.4byte	.LBB166
 2661 0fab A8000000 		.4byte	.Ldebug_ranges0+0xa8
 2662 0faf 01       		.byte	0x1
 2663 0fb0 8B01     		.2byte	0x18b
 2664 0fb2 C90F0000 		.4byte	0xfc9
 2665 0fb6 26       		.uleb128 0x26
 2666 0fb7 DA070000 		.4byte	0x7da
 2667 0fbb AA040000 		.4byte	.LLST33
ARM GAS  /tmp/ccvWj7Xf.s 			page 48


 2668 0fbf 26       		.uleb128 0x26
 2669 0fc0 CF070000 		.4byte	0x7cf
 2670 0fc4 97040000 		.4byte	.LLST32
 2671 0fc8 00       		.byte	0
 2672 0fc9 31       		.uleb128 0x31
 2673 0fca 46000000 		.4byte	.LVL55
 2674 0fce 57100000 		.4byte	0x1057
 2675 0fd2 2E       		.uleb128 0x2e
 2676 0fd3 01       		.uleb128 0x1
 2677 0fd4 50       		.byte	0x50
 2678 0fd5 01       		.uleb128 0x1
 2679 0fd6 35       		.byte	0x35
 2680 0fd7 00       		.byte	0
 2681 0fd8 00       		.byte	0
 2682 0fd9 3E       		.uleb128 0x3e
 2683 0fda E7070000 		.4byte	0x7e7
 2684 0fde 52000000 		.4byte	.LBB171
 2685 0fe2 08000000 		.4byte	.LBE171-.LBB171
 2686 0fe6 01       		.byte	0x1
 2687 0fe7 8701     		.2byte	0x187
 2688 0fe9 0A100000 		.4byte	0x100a
 2689 0fed 26       		.uleb128 0x26
 2690 0fee F8070000 		.4byte	0x7f8
 2691 0ff2 BD040000 		.4byte	.LLST35
 2692 0ff6 27       		.uleb128 0x27
 2693 0ff7 52000000 		.4byte	.LBB172
 2694 0ffb 08000000 		.4byte	.LBE172-.LBB172
 2695 0fff 28       		.uleb128 0x28
 2696 1000 04080000 		.4byte	0x804
 2697 1004 E9040000 		.4byte	.LLST36
 2698 1008 00       		.byte	0
 2699 1009 00       		.byte	0
 2700 100a 29       		.uleb128 0x29
 2701 100b 24000000 		.4byte	.LVL51
 2702 100f 4F100000 		.4byte	0x104f
 2703 1013 29       		.uleb128 0x29
 2704 1014 60000000 		.4byte	.LVL59
 2705 1018 39100000 		.4byte	0x1039
 2706 101c 00       		.byte	0
 2707 101d 14       		.uleb128 0x14
 2708 101e 63080000 		.4byte	0x863
 2709 1022 41       		.uleb128 0x41
 2710 1023 CD000000 		.4byte	.LASF128
 2711 1027 0E       		.byte	0xe
 2712 1028 A706     		.2byte	0x6a7
 2713 102a C3000000 		.4byte	0xc3
 2714 102e 42       		.uleb128 0x42
 2715 102f 636800   		.ascii	"ch\000"
 2716 1032 02       		.byte	0x2
 2717 1033 0902     		.2byte	0x209
 2718 1035 FD030000 		.4byte	0x3fd
 2719 1039 43       		.uleb128 0x43
 2720 103a 89050000 		.4byte	.LASF129
 2721 103e 02       		.byte	0x2
 2722 103f 1302     		.2byte	0x213
 2723 1041 51020000 		.4byte	0x251
 2724 1045 4F100000 		.4byte	0x104f
ARM GAS  /tmp/ccvWj7Xf.s 			page 49


 2725 1049 0D       		.uleb128 0xd
 2726 104a 51020000 		.4byte	0x251
 2727 104e 00       		.byte	0
 2728 104f 44       		.uleb128 0x44
 2729 1050 86020000 		.4byte	.LASF134
 2730 1054 02       		.byte	0x2
 2731 1055 1702     		.2byte	0x217
 2732 1057 45       		.uleb128 0x45
 2733 1058 58050000 		.4byte	.LASF135
 2734 105c 02       		.byte	0x2
 2735 105d 1402     		.2byte	0x214
 2736 105f 69100000 		.4byte	0x1069
 2737 1063 0D       		.uleb128 0xd
 2738 1064 DE000000 		.4byte	0xde
 2739 1068 00       		.byte	0
 2740 1069 43       		.uleb128 0x43
 2741 106a B2060000 		.4byte	.LASF130
 2742 106e 02       		.byte	0x2
 2743 106f 1502     		.2byte	0x215
 2744 1071 0A010000 		.4byte	0x10a
 2745 1075 84100000 		.4byte	0x1084
 2746 1079 0D       		.uleb128 0xd
 2747 107a DE000000 		.4byte	0xde
 2748 107e 0D       		.uleb128 0xd
 2749 107f 2B010000 		.4byte	0x12b
 2750 1083 00       		.byte	0
 2751 1084 46       		.uleb128 0x46
 2752 1085 80030000 		.4byte	.LASF136
 2753 1089 02       		.byte	0x2
 2754 108a 1602     		.2byte	0x216
 2755 108c 0D       		.uleb128 0xd
 2756 108d 51020000 		.4byte	0x251
 2757 1091 0D       		.uleb128 0xd
 2758 1092 0A010000 		.4byte	0x10a
 2759 1096 00       		.byte	0
 2760 1097 00       		.byte	0
 2761              		.section	.debug_abbrev,"",%progbits
 2762              	.Ldebug_abbrev0:
 2763 0000 01       		.uleb128 0x1
 2764 0001 11       		.uleb128 0x11
 2765 0002 01       		.byte	0x1
 2766 0003 25       		.uleb128 0x25
 2767 0004 0E       		.uleb128 0xe
 2768 0005 13       		.uleb128 0x13
 2769 0006 0B       		.uleb128 0xb
 2770 0007 03       		.uleb128 0x3
 2771 0008 0E       		.uleb128 0xe
 2772 0009 1B       		.uleb128 0x1b
 2773 000a 0E       		.uleb128 0xe
 2774 000b 55       		.uleb128 0x55
 2775 000c 17       		.uleb128 0x17
 2776 000d 11       		.uleb128 0x11
 2777 000e 01       		.uleb128 0x1
 2778 000f 10       		.uleb128 0x10
 2779 0010 17       		.uleb128 0x17
 2780 0011 00       		.byte	0
 2781 0012 00       		.byte	0
ARM GAS  /tmp/ccvWj7Xf.s 			page 50


 2782 0013 02       		.uleb128 0x2
 2783 0014 24       		.uleb128 0x24
 2784 0015 00       		.byte	0
 2785 0016 0B       		.uleb128 0xb
 2786 0017 0B       		.uleb128 0xb
 2787 0018 3E       		.uleb128 0x3e
 2788 0019 0B       		.uleb128 0xb
 2789 001a 03       		.uleb128 0x3
 2790 001b 08       		.uleb128 0x8
 2791 001c 00       		.byte	0
 2792 001d 00       		.byte	0
 2793 001e 03       		.uleb128 0x3
 2794 001f 24       		.uleb128 0x24
 2795 0020 00       		.byte	0
 2796 0021 0B       		.uleb128 0xb
 2797 0022 0B       		.uleb128 0xb
 2798 0023 3E       		.uleb128 0x3e
 2799 0024 0B       		.uleb128 0xb
 2800 0025 03       		.uleb128 0x3
 2801 0026 0E       		.uleb128 0xe
 2802 0027 00       		.byte	0
 2803 0028 00       		.byte	0
 2804 0029 04       		.uleb128 0x4
 2805 002a 16       		.uleb128 0x16
 2806 002b 00       		.byte	0
 2807 002c 03       		.uleb128 0x3
 2808 002d 0E       		.uleb128 0xe
 2809 002e 3A       		.uleb128 0x3a
 2810 002f 0B       		.uleb128 0xb
 2811 0030 3B       		.uleb128 0x3b
 2812 0031 0B       		.uleb128 0xb
 2813 0032 49       		.uleb128 0x49
 2814 0033 13       		.uleb128 0x13
 2815 0034 00       		.byte	0
 2816 0035 00       		.byte	0
 2817 0036 05       		.uleb128 0x5
 2818 0037 35       		.uleb128 0x35
 2819 0038 00       		.byte	0
 2820 0039 49       		.uleb128 0x49
 2821 003a 13       		.uleb128 0x13
 2822 003b 00       		.byte	0
 2823 003c 00       		.byte	0
 2824 003d 06       		.uleb128 0x6
 2825 003e 13       		.uleb128 0x13
 2826 003f 01       		.byte	0x1
 2827 0040 03       		.uleb128 0x3
 2828 0041 0E       		.uleb128 0xe
 2829 0042 0B       		.uleb128 0xb
 2830 0043 0B       		.uleb128 0xb
 2831 0044 3A       		.uleb128 0x3a
 2832 0045 0B       		.uleb128 0xb
 2833 0046 3B       		.uleb128 0x3b
 2834 0047 0B       		.uleb128 0xb
 2835 0048 01       		.uleb128 0x1
 2836 0049 13       		.uleb128 0x13
 2837 004a 00       		.byte	0
 2838 004b 00       		.byte	0
ARM GAS  /tmp/ccvWj7Xf.s 			page 51


 2839 004c 07       		.uleb128 0x7
 2840 004d 0D       		.uleb128 0xd
 2841 004e 00       		.byte	0
 2842 004f 03       		.uleb128 0x3
 2843 0050 0E       		.uleb128 0xe
 2844 0051 3A       		.uleb128 0x3a
 2845 0052 0B       		.uleb128 0xb
 2846 0053 3B       		.uleb128 0x3b
 2847 0054 0B       		.uleb128 0xb
 2848 0055 49       		.uleb128 0x49
 2849 0056 13       		.uleb128 0x13
 2850 0057 38       		.uleb128 0x38
 2851 0058 0B       		.uleb128 0xb
 2852 0059 00       		.byte	0
 2853 005a 00       		.byte	0
 2854 005b 08       		.uleb128 0x8
 2855 005c 0D       		.uleb128 0xd
 2856 005d 00       		.byte	0
 2857 005e 03       		.uleb128 0x3
 2858 005f 08       		.uleb128 0x8
 2859 0060 3A       		.uleb128 0x3a
 2860 0061 0B       		.uleb128 0xb
 2861 0062 3B       		.uleb128 0x3b
 2862 0063 05       		.uleb128 0x5
 2863 0064 49       		.uleb128 0x49
 2864 0065 13       		.uleb128 0x13
 2865 0066 38       		.uleb128 0x38
 2866 0067 0B       		.uleb128 0xb
 2867 0068 00       		.byte	0
 2868 0069 00       		.byte	0
 2869 006a 09       		.uleb128 0x9
 2870 006b 0D       		.uleb128 0xd
 2871 006c 00       		.byte	0
 2872 006d 03       		.uleb128 0x3
 2873 006e 0E       		.uleb128 0xe
 2874 006f 3A       		.uleb128 0x3a
 2875 0070 0B       		.uleb128 0xb
 2876 0071 3B       		.uleb128 0x3b
 2877 0072 05       		.uleb128 0x5
 2878 0073 49       		.uleb128 0x49
 2879 0074 13       		.uleb128 0x13
 2880 0075 38       		.uleb128 0x38
 2881 0076 0B       		.uleb128 0xb
 2882 0077 00       		.byte	0
 2883 0078 00       		.byte	0
 2884 0079 0A       		.uleb128 0xa
 2885 007a 0F       		.uleb128 0xf
 2886 007b 00       		.byte	0
 2887 007c 0B       		.uleb128 0xb
 2888 007d 0B       		.uleb128 0xb
 2889 007e 49       		.uleb128 0x49
 2890 007f 13       		.uleb128 0x13
 2891 0080 00       		.byte	0
 2892 0081 00       		.byte	0
 2893 0082 0B       		.uleb128 0xb
 2894 0083 13       		.uleb128 0x13
 2895 0084 01       		.byte	0x1
ARM GAS  /tmp/ccvWj7Xf.s 			page 52


 2896 0085 03       		.uleb128 0x3
 2897 0086 0E       		.uleb128 0xe
 2898 0087 0B       		.uleb128 0xb
 2899 0088 0B       		.uleb128 0xb
 2900 0089 3A       		.uleb128 0x3a
 2901 008a 0B       		.uleb128 0xb
 2902 008b 3B       		.uleb128 0x3b
 2903 008c 05       		.uleb128 0x5
 2904 008d 01       		.uleb128 0x1
 2905 008e 13       		.uleb128 0x13
 2906 008f 00       		.byte	0
 2907 0090 00       		.byte	0
 2908 0091 0C       		.uleb128 0xc
 2909 0092 15       		.uleb128 0x15
 2910 0093 01       		.byte	0x1
 2911 0094 27       		.uleb128 0x27
 2912 0095 19       		.uleb128 0x19
 2913 0096 01       		.uleb128 0x1
 2914 0097 13       		.uleb128 0x13
 2915 0098 00       		.byte	0
 2916 0099 00       		.byte	0
 2917 009a 0D       		.uleb128 0xd
 2918 009b 05       		.uleb128 0x5
 2919 009c 00       		.byte	0
 2920 009d 49       		.uleb128 0x49
 2921 009e 13       		.uleb128 0x13
 2922 009f 00       		.byte	0
 2923 00a0 00       		.byte	0
 2924 00a1 0E       		.uleb128 0xe
 2925 00a2 0F       		.uleb128 0xf
 2926 00a3 00       		.byte	0
 2927 00a4 0B       		.uleb128 0xb
 2928 00a5 0B       		.uleb128 0xb
 2929 00a6 00       		.byte	0
 2930 00a7 00       		.byte	0
 2931 00a8 0F       		.uleb128 0xf
 2932 00a9 13       		.uleb128 0x13
 2933 00aa 01       		.byte	0x1
 2934 00ab 03       		.uleb128 0x3
 2935 00ac 0E       		.uleb128 0xe
 2936 00ad 0B       		.uleb128 0xb
 2937 00ae 05       		.uleb128 0x5
 2938 00af 3A       		.uleb128 0x3a
 2939 00b0 0B       		.uleb128 0xb
 2940 00b1 3B       		.uleb128 0x3b
 2941 00b2 05       		.uleb128 0x5
 2942 00b3 01       		.uleb128 0x1
 2943 00b4 13       		.uleb128 0x13
 2944 00b5 00       		.byte	0
 2945 00b6 00       		.byte	0
 2946 00b7 10       		.uleb128 0x10
 2947 00b8 0D       		.uleb128 0xd
 2948 00b9 00       		.byte	0
 2949 00ba 03       		.uleb128 0x3
 2950 00bb 08       		.uleb128 0x8
 2951 00bc 3A       		.uleb128 0x3a
 2952 00bd 0B       		.uleb128 0xb
ARM GAS  /tmp/ccvWj7Xf.s 			page 53


 2953 00be 3B       		.uleb128 0x3b
 2954 00bf 0B       		.uleb128 0xb
 2955 00c0 49       		.uleb128 0x49
 2956 00c1 13       		.uleb128 0x13
 2957 00c2 38       		.uleb128 0x38
 2958 00c3 0B       		.uleb128 0xb
 2959 00c4 00       		.byte	0
 2960 00c5 00       		.byte	0
 2961 00c6 11       		.uleb128 0x11
 2962 00c7 13       		.uleb128 0x13
 2963 00c8 01       		.byte	0x1
 2964 00c9 0B       		.uleb128 0xb
 2965 00ca 0B       		.uleb128 0xb
 2966 00cb 3A       		.uleb128 0x3a
 2967 00cc 0B       		.uleb128 0xb
 2968 00cd 3B       		.uleb128 0x3b
 2969 00ce 0B       		.uleb128 0xb
 2970 00cf 01       		.uleb128 0x1
 2971 00d0 13       		.uleb128 0x13
 2972 00d1 00       		.byte	0
 2973 00d2 00       		.byte	0
 2974 00d3 12       		.uleb128 0x12
 2975 00d4 17       		.uleb128 0x17
 2976 00d5 01       		.byte	0x1
 2977 00d6 0B       		.uleb128 0xb
 2978 00d7 0B       		.uleb128 0xb
 2979 00d8 3A       		.uleb128 0x3a
 2980 00d9 0B       		.uleb128 0xb
 2981 00da 3B       		.uleb128 0x3b
 2982 00db 0B       		.uleb128 0xb
 2983 00dc 01       		.uleb128 0x1
 2984 00dd 13       		.uleb128 0x13
 2985 00de 00       		.byte	0
 2986 00df 00       		.byte	0
 2987 00e0 13       		.uleb128 0x13
 2988 00e1 0D       		.uleb128 0xd
 2989 00e2 00       		.byte	0
 2990 00e3 03       		.uleb128 0x3
 2991 00e4 0E       		.uleb128 0xe
 2992 00e5 3A       		.uleb128 0x3a
 2993 00e6 0B       		.uleb128 0xb
 2994 00e7 3B       		.uleb128 0x3b
 2995 00e8 05       		.uleb128 0x5
 2996 00e9 49       		.uleb128 0x49
 2997 00ea 13       		.uleb128 0x13
 2998 00eb 00       		.byte	0
 2999 00ec 00       		.byte	0
 3000 00ed 14       		.uleb128 0x14
 3001 00ee 26       		.uleb128 0x26
 3002 00ef 00       		.byte	0
 3003 00f0 49       		.uleb128 0x49
 3004 00f1 13       		.uleb128 0x13
 3005 00f2 00       		.byte	0
 3006 00f3 00       		.byte	0
 3007 00f4 15       		.uleb128 0x15
 3008 00f5 01       		.uleb128 0x1
 3009 00f6 01       		.byte	0x1
ARM GAS  /tmp/ccvWj7Xf.s 			page 54


 3010 00f7 49       		.uleb128 0x49
 3011 00f8 13       		.uleb128 0x13
 3012 00f9 01       		.uleb128 0x1
 3013 00fa 13       		.uleb128 0x13
 3014 00fb 00       		.byte	0
 3015 00fc 00       		.byte	0
 3016 00fd 16       		.uleb128 0x16
 3017 00fe 21       		.uleb128 0x21
 3018 00ff 00       		.byte	0
 3019 0100 49       		.uleb128 0x49
 3020 0101 13       		.uleb128 0x13
 3021 0102 2F       		.uleb128 0x2f
 3022 0103 0B       		.uleb128 0xb
 3023 0104 00       		.byte	0
 3024 0105 00       		.byte	0
 3025 0106 17       		.uleb128 0x17
 3026 0107 2E       		.uleb128 0x2e
 3027 0108 01       		.byte	0x1
 3028 0109 03       		.uleb128 0x3
 3029 010a 0E       		.uleb128 0xe
 3030 010b 3A       		.uleb128 0x3a
 3031 010c 0B       		.uleb128 0xb
 3032 010d 3B       		.uleb128 0x3b
 3033 010e 05       		.uleb128 0x5
 3034 010f 27       		.uleb128 0x27
 3035 0110 19       		.uleb128 0x19
 3036 0111 20       		.uleb128 0x20
 3037 0112 0B       		.uleb128 0xb
 3038 0113 01       		.uleb128 0x1
 3039 0114 13       		.uleb128 0x13
 3040 0115 00       		.byte	0
 3041 0116 00       		.byte	0
 3042 0117 18       		.uleb128 0x18
 3043 0118 05       		.uleb128 0x5
 3044 0119 00       		.byte	0
 3045 011a 03       		.uleb128 0x3
 3046 011b 0E       		.uleb128 0xe
 3047 011c 3A       		.uleb128 0x3a
 3048 011d 0B       		.uleb128 0xb
 3049 011e 3B       		.uleb128 0x3b
 3050 011f 05       		.uleb128 0x5
 3051 0120 49       		.uleb128 0x49
 3052 0121 13       		.uleb128 0x13
 3053 0122 00       		.byte	0
 3054 0123 00       		.byte	0
 3055 0124 19       		.uleb128 0x19
 3056 0125 2E       		.uleb128 0x2e
 3057 0126 00       		.byte	0
 3058 0127 03       		.uleb128 0x3
 3059 0128 0E       		.uleb128 0xe
 3060 0129 3A       		.uleb128 0x3a
 3061 012a 0B       		.uleb128 0xb
 3062 012b 3B       		.uleb128 0x3b
 3063 012c 05       		.uleb128 0x5
 3064 012d 27       		.uleb128 0x27
 3065 012e 19       		.uleb128 0x19
 3066 012f 20       		.uleb128 0x20
ARM GAS  /tmp/ccvWj7Xf.s 			page 55


 3067 0130 0B       		.uleb128 0xb
 3068 0131 00       		.byte	0
 3069 0132 00       		.byte	0
 3070 0133 1A       		.uleb128 0x1a
 3071 0134 05       		.uleb128 0x5
 3072 0135 00       		.byte	0
 3073 0136 03       		.uleb128 0x3
 3074 0137 08       		.uleb128 0x8
 3075 0138 3A       		.uleb128 0x3a
 3076 0139 0B       		.uleb128 0xb
 3077 013a 3B       		.uleb128 0x3b
 3078 013b 05       		.uleb128 0x5
 3079 013c 49       		.uleb128 0x49
 3080 013d 13       		.uleb128 0x13
 3081 013e 00       		.byte	0
 3082 013f 00       		.byte	0
 3083 0140 1B       		.uleb128 0x1b
 3084 0141 2E       		.uleb128 0x2e
 3085 0142 01       		.byte	0x1
 3086 0143 03       		.uleb128 0x3
 3087 0144 0E       		.uleb128 0xe
 3088 0145 3A       		.uleb128 0x3a
 3089 0146 0B       		.uleb128 0xb
 3090 0147 3B       		.uleb128 0x3b
 3091 0148 05       		.uleb128 0x5
 3092 0149 27       		.uleb128 0x27
 3093 014a 19       		.uleb128 0x19
 3094 014b 49       		.uleb128 0x49
 3095 014c 13       		.uleb128 0x13
 3096 014d 20       		.uleb128 0x20
 3097 014e 0B       		.uleb128 0xb
 3098 014f 01       		.uleb128 0x1
 3099 0150 13       		.uleb128 0x13
 3100 0151 00       		.byte	0
 3101 0152 00       		.byte	0
 3102 0153 1C       		.uleb128 0x1c
 3103 0154 34       		.uleb128 0x34
 3104 0155 00       		.byte	0
 3105 0156 03       		.uleb128 0x3
 3106 0157 08       		.uleb128 0x8
 3107 0158 3A       		.uleb128 0x3a
 3108 0159 0B       		.uleb128 0xb
 3109 015a 3B       		.uleb128 0x3b
 3110 015b 05       		.uleb128 0x5
 3111 015c 49       		.uleb128 0x49
 3112 015d 13       		.uleb128 0x13
 3113 015e 00       		.byte	0
 3114 015f 00       		.byte	0
 3115 0160 1D       		.uleb128 0x1d
 3116 0161 34       		.uleb128 0x34
 3117 0162 00       		.byte	0
 3118 0163 03       		.uleb128 0x3
 3119 0164 0E       		.uleb128 0xe
 3120 0165 49       		.uleb128 0x49
 3121 0166 13       		.uleb128 0x13
 3122 0167 34       		.uleb128 0x34
 3123 0168 19       		.uleb128 0x19
ARM GAS  /tmp/ccvWj7Xf.s 			page 56


 3124 0169 1C       		.uleb128 0x1c
 3125 016a 0E       		.uleb128 0xe
 3126 016b 00       		.byte	0
 3127 016c 00       		.byte	0
 3128 016d 1E       		.uleb128 0x1e
 3129 016e 2E       		.uleb128 0x2e
 3130 016f 01       		.byte	0x1
 3131 0170 3F       		.uleb128 0x3f
 3132 0171 19       		.uleb128 0x19
 3133 0172 03       		.uleb128 0x3
 3134 0173 0E       		.uleb128 0xe
 3135 0174 3A       		.uleb128 0x3a
 3136 0175 0B       		.uleb128 0xb
 3137 0176 3B       		.uleb128 0x3b
 3138 0177 0B       		.uleb128 0xb
 3139 0178 27       		.uleb128 0x27
 3140 0179 19       		.uleb128 0x19
 3141 017a 11       		.uleb128 0x11
 3142 017b 01       		.uleb128 0x1
 3143 017c 12       		.uleb128 0x12
 3144 017d 06       		.uleb128 0x6
 3145 017e 40       		.uleb128 0x40
 3146 017f 18       		.uleb128 0x18
 3147 0180 9742     		.uleb128 0x2117
 3148 0182 19       		.uleb128 0x19
 3149 0183 01       		.uleb128 0x1
 3150 0184 13       		.uleb128 0x13
 3151 0185 00       		.byte	0
 3152 0186 00       		.byte	0
 3153 0187 1F       		.uleb128 0x1f
 3154 0188 05       		.uleb128 0x5
 3155 0189 00       		.byte	0
 3156 018a 03       		.uleb128 0x3
 3157 018b 08       		.uleb128 0x8
 3158 018c 3A       		.uleb128 0x3a
 3159 018d 0B       		.uleb128 0xb
 3160 018e 3B       		.uleb128 0x3b
 3161 018f 0B       		.uleb128 0xb
 3162 0190 49       		.uleb128 0x49
 3163 0191 13       		.uleb128 0x13
 3164 0192 02       		.uleb128 0x2
 3165 0193 18       		.uleb128 0x18
 3166 0194 00       		.byte	0
 3167 0195 00       		.byte	0
 3168 0196 20       		.uleb128 0x20
 3169 0197 34       		.uleb128 0x34
 3170 0198 00       		.byte	0
 3171 0199 03       		.uleb128 0x3
 3172 019a 0E       		.uleb128 0xe
 3173 019b 49       		.uleb128 0x49
 3174 019c 13       		.uleb128 0x13
 3175 019d 34       		.uleb128 0x34
 3176 019e 19       		.uleb128 0x19
 3177 019f 00       		.byte	0
 3178 01a0 00       		.byte	0
 3179 01a1 21       		.uleb128 0x21
 3180 01a2 1D       		.uleb128 0x1d
ARM GAS  /tmp/ccvWj7Xf.s 			page 57


 3181 01a3 01       		.byte	0x1
 3182 01a4 31       		.uleb128 0x31
 3183 01a5 13       		.uleb128 0x13
 3184 01a6 11       		.uleb128 0x11
 3185 01a7 01       		.uleb128 0x1
 3186 01a8 12       		.uleb128 0x12
 3187 01a9 06       		.uleb128 0x6
 3188 01aa 58       		.uleb128 0x58
 3189 01ab 0B       		.uleb128 0xb
 3190 01ac 59       		.uleb128 0x59
 3191 01ad 0B       		.uleb128 0xb
 3192 01ae 00       		.byte	0
 3193 01af 00       		.byte	0
 3194 01b0 22       		.uleb128 0x22
 3195 01b1 05       		.uleb128 0x5
 3196 01b2 00       		.byte	0
 3197 01b3 31       		.uleb128 0x31
 3198 01b4 13       		.uleb128 0x13
 3199 01b5 02       		.uleb128 0x2
 3200 01b6 18       		.uleb128 0x18
 3201 01b7 00       		.byte	0
 3202 01b8 00       		.byte	0
 3203 01b9 23       		.uleb128 0x23
 3204 01ba 05       		.uleb128 0x5
 3205 01bb 00       		.byte	0
 3206 01bc 03       		.uleb128 0x3
 3207 01bd 08       		.uleb128 0x8
 3208 01be 3A       		.uleb128 0x3a
 3209 01bf 0B       		.uleb128 0xb
 3210 01c0 3B       		.uleb128 0x3b
 3211 01c1 0B       		.uleb128 0xb
 3212 01c2 49       		.uleb128 0x49
 3213 01c3 13       		.uleb128 0x13
 3214 01c4 02       		.uleb128 0x2
 3215 01c5 17       		.uleb128 0x17
 3216 01c6 00       		.byte	0
 3217 01c7 00       		.byte	0
 3218 01c8 24       		.uleb128 0x24
 3219 01c9 34       		.uleb128 0x34
 3220 01ca 00       		.byte	0
 3221 01cb 03       		.uleb128 0x3
 3222 01cc 08       		.uleb128 0x8
 3223 01cd 3A       		.uleb128 0x3a
 3224 01ce 0B       		.uleb128 0xb
 3225 01cf 3B       		.uleb128 0x3b
 3226 01d0 0B       		.uleb128 0xb
 3227 01d1 49       		.uleb128 0x49
 3228 01d2 13       		.uleb128 0x13
 3229 01d3 02       		.uleb128 0x2
 3230 01d4 17       		.uleb128 0x17
 3231 01d5 00       		.byte	0
 3232 01d6 00       		.byte	0
 3233 01d7 25       		.uleb128 0x25
 3234 01d8 1D       		.uleb128 0x1d
 3235 01d9 01       		.byte	0x1
 3236 01da 31       		.uleb128 0x31
 3237 01db 13       		.uleb128 0x13
ARM GAS  /tmp/ccvWj7Xf.s 			page 58


 3238 01dc 11       		.uleb128 0x11
 3239 01dd 01       		.uleb128 0x1
 3240 01de 12       		.uleb128 0x12
 3241 01df 06       		.uleb128 0x6
 3242 01e0 58       		.uleb128 0x58
 3243 01e1 0B       		.uleb128 0xb
 3244 01e2 59       		.uleb128 0x59
 3245 01e3 0B       		.uleb128 0xb
 3246 01e4 01       		.uleb128 0x1
 3247 01e5 13       		.uleb128 0x13
 3248 01e6 00       		.byte	0
 3249 01e7 00       		.byte	0
 3250 01e8 26       		.uleb128 0x26
 3251 01e9 05       		.uleb128 0x5
 3252 01ea 00       		.byte	0
 3253 01eb 31       		.uleb128 0x31
 3254 01ec 13       		.uleb128 0x13
 3255 01ed 02       		.uleb128 0x2
 3256 01ee 17       		.uleb128 0x17
 3257 01ef 00       		.byte	0
 3258 01f0 00       		.byte	0
 3259 01f1 27       		.uleb128 0x27
 3260 01f2 0B       		.uleb128 0xb
 3261 01f3 01       		.byte	0x1
 3262 01f4 11       		.uleb128 0x11
 3263 01f5 01       		.uleb128 0x1
 3264 01f6 12       		.uleb128 0x12
 3265 01f7 06       		.uleb128 0x6
 3266 01f8 00       		.byte	0
 3267 01f9 00       		.byte	0
 3268 01fa 28       		.uleb128 0x28
 3269 01fb 34       		.uleb128 0x34
 3270 01fc 00       		.byte	0
 3271 01fd 31       		.uleb128 0x31
 3272 01fe 13       		.uleb128 0x13
 3273 01ff 02       		.uleb128 0x2
 3274 0200 17       		.uleb128 0x17
 3275 0201 00       		.byte	0
 3276 0202 00       		.byte	0
 3277 0203 29       		.uleb128 0x29
 3278 0204 898201   		.uleb128 0x4109
 3279 0207 00       		.byte	0
 3280 0208 11       		.uleb128 0x11
 3281 0209 01       		.uleb128 0x1
 3282 020a 31       		.uleb128 0x31
 3283 020b 13       		.uleb128 0x13
 3284 020c 00       		.byte	0
 3285 020d 00       		.byte	0
 3286 020e 2A       		.uleb128 0x2a
 3287 020f 1D       		.uleb128 0x1d
 3288 0210 01       		.byte	0x1
 3289 0211 31       		.uleb128 0x31
 3290 0212 13       		.uleb128 0x13
 3291 0213 11       		.uleb128 0x11
 3292 0214 01       		.uleb128 0x1
 3293 0215 12       		.uleb128 0x12
 3294 0216 06       		.uleb128 0x6
ARM GAS  /tmp/ccvWj7Xf.s 			page 59


 3295 0217 58       		.uleb128 0x58
 3296 0218 0B       		.uleb128 0xb
 3297 0219 59       		.uleb128 0x59
 3298 021a 05       		.uleb128 0x5
 3299 021b 00       		.byte	0
 3300 021c 00       		.byte	0
 3301 021d 2B       		.uleb128 0x2b
 3302 021e 05       		.uleb128 0x5
 3303 021f 00       		.byte	0
 3304 0220 31       		.uleb128 0x31
 3305 0221 13       		.uleb128 0x13
 3306 0222 1C       		.uleb128 0x1c
 3307 0223 0B       		.uleb128 0xb
 3308 0224 00       		.byte	0
 3309 0225 00       		.byte	0
 3310 0226 2C       		.uleb128 0x2c
 3311 0227 34       		.uleb128 0x34
 3312 0228 00       		.byte	0
 3313 0229 31       		.uleb128 0x31
 3314 022a 13       		.uleb128 0x13
 3315 022b 00       		.byte	0
 3316 022c 00       		.byte	0
 3317 022d 2D       		.uleb128 0x2d
 3318 022e 898201   		.uleb128 0x4109
 3319 0231 01       		.byte	0x1
 3320 0232 11       		.uleb128 0x11
 3321 0233 01       		.uleb128 0x1
 3322 0234 31       		.uleb128 0x31
 3323 0235 13       		.uleb128 0x13
 3324 0236 01       		.uleb128 0x1
 3325 0237 13       		.uleb128 0x13
 3326 0238 00       		.byte	0
 3327 0239 00       		.byte	0
 3328 023a 2E       		.uleb128 0x2e
 3329 023b 8A8201   		.uleb128 0x410a
 3330 023e 00       		.byte	0
 3331 023f 02       		.uleb128 0x2
 3332 0240 18       		.uleb128 0x18
 3333 0241 9142     		.uleb128 0x2111
 3334 0243 18       		.uleb128 0x18
 3335 0244 00       		.byte	0
 3336 0245 00       		.byte	0
 3337 0246 2F       		.uleb128 0x2f
 3338 0247 2E       		.uleb128 0x2e
 3339 0248 01       		.byte	0x1
 3340 0249 3F       		.uleb128 0x3f
 3341 024a 19       		.uleb128 0x19
 3342 024b 03       		.uleb128 0x3
 3343 024c 0E       		.uleb128 0xe
 3344 024d 3A       		.uleb128 0x3a
 3345 024e 0B       		.uleb128 0xb
 3346 024f 3B       		.uleb128 0x3b
 3347 0250 0B       		.uleb128 0xb
 3348 0251 27       		.uleb128 0x27
 3349 0252 19       		.uleb128 0x19
 3350 0253 49       		.uleb128 0x49
 3351 0254 13       		.uleb128 0x13
ARM GAS  /tmp/ccvWj7Xf.s 			page 60


 3352 0255 11       		.uleb128 0x11
 3353 0256 01       		.uleb128 0x1
 3354 0257 12       		.uleb128 0x12
 3355 0258 06       		.uleb128 0x6
 3356 0259 40       		.uleb128 0x40
 3357 025a 18       		.uleb128 0x18
 3358 025b 9742     		.uleb128 0x2117
 3359 025d 19       		.uleb128 0x19
 3360 025e 01       		.uleb128 0x1
 3361 025f 13       		.uleb128 0x13
 3362 0260 00       		.byte	0
 3363 0261 00       		.byte	0
 3364 0262 30       		.uleb128 0x30
 3365 0263 1D       		.uleb128 0x1d
 3366 0264 01       		.byte	0x1
 3367 0265 31       		.uleb128 0x31
 3368 0266 13       		.uleb128 0x13
 3369 0267 52       		.uleb128 0x52
 3370 0268 01       		.uleb128 0x1
 3371 0269 55       		.uleb128 0x55
 3372 026a 17       		.uleb128 0x17
 3373 026b 58       		.uleb128 0x58
 3374 026c 0B       		.uleb128 0xb
 3375 026d 59       		.uleb128 0x59
 3376 026e 0B       		.uleb128 0xb
 3377 026f 01       		.uleb128 0x1
 3378 0270 13       		.uleb128 0x13
 3379 0271 00       		.byte	0
 3380 0272 00       		.byte	0
 3381 0273 31       		.uleb128 0x31
 3382 0274 898201   		.uleb128 0x4109
 3383 0277 01       		.byte	0x1
 3384 0278 11       		.uleb128 0x11
 3385 0279 01       		.uleb128 0x1
 3386 027a 31       		.uleb128 0x31
 3387 027b 13       		.uleb128 0x13
 3388 027c 00       		.byte	0
 3389 027d 00       		.byte	0
 3390 027e 32       		.uleb128 0x32
 3391 027f 34       		.uleb128 0x34
 3392 0280 00       		.byte	0
 3393 0281 03       		.uleb128 0x3
 3394 0282 08       		.uleb128 0x8
 3395 0283 3A       		.uleb128 0x3a
 3396 0284 0B       		.uleb128 0xb
 3397 0285 3B       		.uleb128 0x3b
 3398 0286 0B       		.uleb128 0xb
 3399 0287 49       		.uleb128 0x49
 3400 0288 13       		.uleb128 0x13
 3401 0289 02       		.uleb128 0x2
 3402 028a 18       		.uleb128 0x18
 3403 028b 00       		.byte	0
 3404 028c 00       		.byte	0
 3405 028d 33       		.uleb128 0x33
 3406 028e 2E       		.uleb128 0x2e
 3407 028f 01       		.byte	0x1
 3408 0290 3F       		.uleb128 0x3f
ARM GAS  /tmp/ccvWj7Xf.s 			page 61


 3409 0291 19       		.uleb128 0x19
 3410 0292 03       		.uleb128 0x3
 3411 0293 0E       		.uleb128 0xe
 3412 0294 3A       		.uleb128 0x3a
 3413 0295 0B       		.uleb128 0xb
 3414 0296 3B       		.uleb128 0x3b
 3415 0297 05       		.uleb128 0x5
 3416 0298 27       		.uleb128 0x27
 3417 0299 19       		.uleb128 0x19
 3418 029a 49       		.uleb128 0x49
 3419 029b 13       		.uleb128 0x13
 3420 029c 11       		.uleb128 0x11
 3421 029d 01       		.uleb128 0x1
 3422 029e 12       		.uleb128 0x12
 3423 029f 06       		.uleb128 0x6
 3424 02a0 40       		.uleb128 0x40
 3425 02a1 18       		.uleb128 0x18
 3426 02a2 9742     		.uleb128 0x2117
 3427 02a4 19       		.uleb128 0x19
 3428 02a5 01       		.uleb128 0x1
 3429 02a6 13       		.uleb128 0x13
 3430 02a7 00       		.byte	0
 3431 02a8 00       		.byte	0
 3432 02a9 34       		.uleb128 0x34
 3433 02aa 05       		.uleb128 0x5
 3434 02ab 00       		.byte	0
 3435 02ac 03       		.uleb128 0x3
 3436 02ad 08       		.uleb128 0x8
 3437 02ae 3A       		.uleb128 0x3a
 3438 02af 0B       		.uleb128 0xb
 3439 02b0 3B       		.uleb128 0x3b
 3440 02b1 05       		.uleb128 0x5
 3441 02b2 49       		.uleb128 0x49
 3442 02b3 13       		.uleb128 0x13
 3443 02b4 02       		.uleb128 0x2
 3444 02b5 17       		.uleb128 0x17
 3445 02b6 00       		.byte	0
 3446 02b7 00       		.byte	0
 3447 02b8 35       		.uleb128 0x35
 3448 02b9 05       		.uleb128 0x5
 3449 02ba 00       		.byte	0
 3450 02bb 03       		.uleb128 0x3
 3451 02bc 0E       		.uleb128 0xe
 3452 02bd 3A       		.uleb128 0x3a
 3453 02be 0B       		.uleb128 0xb
 3454 02bf 3B       		.uleb128 0x3b
 3455 02c0 05       		.uleb128 0x5
 3456 02c1 49       		.uleb128 0x49
 3457 02c2 13       		.uleb128 0x13
 3458 02c3 02       		.uleb128 0x2
 3459 02c4 17       		.uleb128 0x17
 3460 02c5 00       		.byte	0
 3461 02c6 00       		.byte	0
 3462 02c7 36       		.uleb128 0x36
 3463 02c8 1D       		.uleb128 0x1d
 3464 02c9 01       		.byte	0x1
 3465 02ca 31       		.uleb128 0x31
ARM GAS  /tmp/ccvWj7Xf.s 			page 62


 3466 02cb 13       		.uleb128 0x13
 3467 02cc 52       		.uleb128 0x52
 3468 02cd 01       		.uleb128 0x1
 3469 02ce 55       		.uleb128 0x55
 3470 02cf 17       		.uleb128 0x17
 3471 02d0 58       		.uleb128 0x58
 3472 02d1 0B       		.uleb128 0xb
 3473 02d2 59       		.uleb128 0x59
 3474 02d3 05       		.uleb128 0x5
 3475 02d4 01       		.uleb128 0x1
 3476 02d5 13       		.uleb128 0x13
 3477 02d6 00       		.byte	0
 3478 02d7 00       		.byte	0
 3479 02d8 37       		.uleb128 0x37
 3480 02d9 898201   		.uleb128 0x4109
 3481 02dc 01       		.byte	0x1
 3482 02dd 11       		.uleb128 0x11
 3483 02de 01       		.uleb128 0x1
 3484 02df 9542     		.uleb128 0x2115
 3485 02e1 19       		.uleb128 0x19
 3486 02e2 31       		.uleb128 0x31
 3487 02e3 13       		.uleb128 0x13
 3488 02e4 00       		.byte	0
 3489 02e5 00       		.byte	0
 3490 02e6 38       		.uleb128 0x38
 3491 02e7 05       		.uleb128 0x5
 3492 02e8 00       		.byte	0
 3493 02e9 03       		.uleb128 0x3
 3494 02ea 0E       		.uleb128 0xe
 3495 02eb 3A       		.uleb128 0x3a
 3496 02ec 0B       		.uleb128 0xb
 3497 02ed 3B       		.uleb128 0x3b
 3498 02ee 0B       		.uleb128 0xb
 3499 02ef 49       		.uleb128 0x49
 3500 02f0 13       		.uleb128 0x13
 3501 02f1 02       		.uleb128 0x2
 3502 02f2 17       		.uleb128 0x17
 3503 02f3 00       		.byte	0
 3504 02f4 00       		.byte	0
 3505 02f5 39       		.uleb128 0x39
 3506 02f6 2E       		.uleb128 0x2e
 3507 02f7 01       		.byte	0x1
 3508 02f8 3F       		.uleb128 0x3f
 3509 02f9 19       		.uleb128 0x19
 3510 02fa 03       		.uleb128 0x3
 3511 02fb 0E       		.uleb128 0xe
 3512 02fc 3A       		.uleb128 0x3a
 3513 02fd 0B       		.uleb128 0xb
 3514 02fe 3B       		.uleb128 0x3b
 3515 02ff 05       		.uleb128 0x5
 3516 0300 27       		.uleb128 0x27
 3517 0301 19       		.uleb128 0x19
 3518 0302 11       		.uleb128 0x11
 3519 0303 01       		.uleb128 0x1
 3520 0304 12       		.uleb128 0x12
 3521 0305 06       		.uleb128 0x6
 3522 0306 40       		.uleb128 0x40
ARM GAS  /tmp/ccvWj7Xf.s 			page 63


 3523 0307 18       		.uleb128 0x18
 3524 0308 9742     		.uleb128 0x2117
 3525 030a 19       		.uleb128 0x19
 3526 030b 01       		.uleb128 0x1
 3527 030c 13       		.uleb128 0x13
 3528 030d 00       		.byte	0
 3529 030e 00       		.byte	0
 3530 030f 3A       		.uleb128 0x3a
 3531 0310 1D       		.uleb128 0x1d
 3532 0311 01       		.byte	0x1
 3533 0312 31       		.uleb128 0x31
 3534 0313 13       		.uleb128 0x13
 3535 0314 52       		.uleb128 0x52
 3536 0315 01       		.uleb128 0x1
 3537 0316 55       		.uleb128 0x55
 3538 0317 17       		.uleb128 0x17
 3539 0318 58       		.uleb128 0x58
 3540 0319 0B       		.uleb128 0xb
 3541 031a 59       		.uleb128 0x59
 3542 031b 05       		.uleb128 0x5
 3543 031c 00       		.byte	0
 3544 031d 00       		.byte	0
 3545 031e 3B       		.uleb128 0x3b
 3546 031f 0B       		.uleb128 0xb
 3547 0320 01       		.byte	0x1
 3548 0321 55       		.uleb128 0x55
 3549 0322 17       		.uleb128 0x17
 3550 0323 00       		.byte	0
 3551 0324 00       		.byte	0
 3552 0325 3C       		.uleb128 0x3c
 3553 0326 34       		.uleb128 0x34
 3554 0327 00       		.byte	0
 3555 0328 03       		.uleb128 0x3
 3556 0329 08       		.uleb128 0x8
 3557 032a 3A       		.uleb128 0x3a
 3558 032b 0B       		.uleb128 0xb
 3559 032c 3B       		.uleb128 0x3b
 3560 032d 05       		.uleb128 0x5
 3561 032e 49       		.uleb128 0x49
 3562 032f 13       		.uleb128 0x13
 3563 0330 02       		.uleb128 0x2
 3564 0331 18       		.uleb128 0x18
 3565 0332 00       		.byte	0
 3566 0333 00       		.byte	0
 3567 0334 3D       		.uleb128 0x3d
 3568 0335 898201   		.uleb128 0x4109
 3569 0338 00       		.byte	0
 3570 0339 11       		.uleb128 0x11
 3571 033a 01       		.uleb128 0x1
 3572 033b 9542     		.uleb128 0x2115
 3573 033d 19       		.uleb128 0x19
 3574 033e 31       		.uleb128 0x31
 3575 033f 13       		.uleb128 0x13
 3576 0340 00       		.byte	0
 3577 0341 00       		.byte	0
 3578 0342 3E       		.uleb128 0x3e
 3579 0343 1D       		.uleb128 0x1d
ARM GAS  /tmp/ccvWj7Xf.s 			page 64


 3580 0344 01       		.byte	0x1
 3581 0345 31       		.uleb128 0x31
 3582 0346 13       		.uleb128 0x13
 3583 0347 11       		.uleb128 0x11
 3584 0348 01       		.uleb128 0x1
 3585 0349 12       		.uleb128 0x12
 3586 034a 06       		.uleb128 0x6
 3587 034b 58       		.uleb128 0x58
 3588 034c 0B       		.uleb128 0xb
 3589 034d 59       		.uleb128 0x59
 3590 034e 05       		.uleb128 0x5
 3591 034f 01       		.uleb128 0x1
 3592 0350 13       		.uleb128 0x13
 3593 0351 00       		.byte	0
 3594 0352 00       		.byte	0
 3595 0353 3F       		.uleb128 0x3f
 3596 0354 34       		.uleb128 0x34
 3597 0355 00       		.byte	0
 3598 0356 03       		.uleb128 0x3
 3599 0357 08       		.uleb128 0x8
 3600 0358 3A       		.uleb128 0x3a
 3601 0359 0B       		.uleb128 0xb
 3602 035a 3B       		.uleb128 0x3b
 3603 035b 05       		.uleb128 0x5
 3604 035c 49       		.uleb128 0x49
 3605 035d 13       		.uleb128 0x13
 3606 035e 02       		.uleb128 0x2
 3607 035f 17       		.uleb128 0x17
 3608 0360 00       		.byte	0
 3609 0361 00       		.byte	0
 3610 0362 40       		.uleb128 0x40
 3611 0363 0B       		.uleb128 0xb
 3612 0364 01       		.byte	0x1
 3613 0365 11       		.uleb128 0x11
 3614 0366 01       		.uleb128 0x1
 3615 0367 12       		.uleb128 0x12
 3616 0368 06       		.uleb128 0x6
 3617 0369 01       		.uleb128 0x1
 3618 036a 13       		.uleb128 0x13
 3619 036b 00       		.byte	0
 3620 036c 00       		.byte	0
 3621 036d 41       		.uleb128 0x41
 3622 036e 34       		.uleb128 0x34
 3623 036f 00       		.byte	0
 3624 0370 03       		.uleb128 0x3
 3625 0371 0E       		.uleb128 0xe
 3626 0372 3A       		.uleb128 0x3a
 3627 0373 0B       		.uleb128 0xb
 3628 0374 3B       		.uleb128 0x3b
 3629 0375 05       		.uleb128 0x5
 3630 0376 49       		.uleb128 0x49
 3631 0377 13       		.uleb128 0x13
 3632 0378 3F       		.uleb128 0x3f
 3633 0379 19       		.uleb128 0x19
 3634 037a 3C       		.uleb128 0x3c
 3635 037b 19       		.uleb128 0x19
 3636 037c 00       		.byte	0
ARM GAS  /tmp/ccvWj7Xf.s 			page 65


 3637 037d 00       		.byte	0
 3638 037e 42       		.uleb128 0x42
 3639 037f 34       		.uleb128 0x34
 3640 0380 00       		.byte	0
 3641 0381 03       		.uleb128 0x3
 3642 0382 08       		.uleb128 0x8
 3643 0383 3A       		.uleb128 0x3a
 3644 0384 0B       		.uleb128 0xb
 3645 0385 3B       		.uleb128 0x3b
 3646 0386 05       		.uleb128 0x5
 3647 0387 49       		.uleb128 0x49
 3648 0388 13       		.uleb128 0x13
 3649 0389 3F       		.uleb128 0x3f
 3650 038a 19       		.uleb128 0x19
 3651 038b 3C       		.uleb128 0x3c
 3652 038c 19       		.uleb128 0x19
 3653 038d 00       		.byte	0
 3654 038e 00       		.byte	0
 3655 038f 43       		.uleb128 0x43
 3656 0390 2E       		.uleb128 0x2e
 3657 0391 01       		.byte	0x1
 3658 0392 3F       		.uleb128 0x3f
 3659 0393 19       		.uleb128 0x19
 3660 0394 03       		.uleb128 0x3
 3661 0395 0E       		.uleb128 0xe
 3662 0396 3A       		.uleb128 0x3a
 3663 0397 0B       		.uleb128 0xb
 3664 0398 3B       		.uleb128 0x3b
 3665 0399 05       		.uleb128 0x5
 3666 039a 27       		.uleb128 0x27
 3667 039b 19       		.uleb128 0x19
 3668 039c 49       		.uleb128 0x49
 3669 039d 13       		.uleb128 0x13
 3670 039e 3C       		.uleb128 0x3c
 3671 039f 19       		.uleb128 0x19
 3672 03a0 01       		.uleb128 0x1
 3673 03a1 13       		.uleb128 0x13
 3674 03a2 00       		.byte	0
 3675 03a3 00       		.byte	0
 3676 03a4 44       		.uleb128 0x44
 3677 03a5 2E       		.uleb128 0x2e
 3678 03a6 00       		.byte	0
 3679 03a7 3F       		.uleb128 0x3f
 3680 03a8 19       		.uleb128 0x19
 3681 03a9 03       		.uleb128 0x3
 3682 03aa 0E       		.uleb128 0xe
 3683 03ab 3A       		.uleb128 0x3a
 3684 03ac 0B       		.uleb128 0xb
 3685 03ad 3B       		.uleb128 0x3b
 3686 03ae 05       		.uleb128 0x5
 3687 03af 27       		.uleb128 0x27
 3688 03b0 19       		.uleb128 0x19
 3689 03b1 3C       		.uleb128 0x3c
 3690 03b2 19       		.uleb128 0x19
 3691 03b3 00       		.byte	0
 3692 03b4 00       		.byte	0
 3693 03b5 45       		.uleb128 0x45
ARM GAS  /tmp/ccvWj7Xf.s 			page 66


 3694 03b6 2E       		.uleb128 0x2e
 3695 03b7 01       		.byte	0x1
 3696 03b8 3F       		.uleb128 0x3f
 3697 03b9 19       		.uleb128 0x19
 3698 03ba 03       		.uleb128 0x3
 3699 03bb 0E       		.uleb128 0xe
 3700 03bc 3A       		.uleb128 0x3a
 3701 03bd 0B       		.uleb128 0xb
 3702 03be 3B       		.uleb128 0x3b
 3703 03bf 05       		.uleb128 0x5
 3704 03c0 27       		.uleb128 0x27
 3705 03c1 19       		.uleb128 0x19
 3706 03c2 3C       		.uleb128 0x3c
 3707 03c3 19       		.uleb128 0x19
 3708 03c4 01       		.uleb128 0x1
 3709 03c5 13       		.uleb128 0x13
 3710 03c6 00       		.byte	0
 3711 03c7 00       		.byte	0
 3712 03c8 46       		.uleb128 0x46
 3713 03c9 2E       		.uleb128 0x2e
 3714 03ca 01       		.byte	0x1
 3715 03cb 3F       		.uleb128 0x3f
 3716 03cc 19       		.uleb128 0x19
 3717 03cd 03       		.uleb128 0x3
 3718 03ce 0E       		.uleb128 0xe
 3719 03cf 3A       		.uleb128 0x3a
 3720 03d0 0B       		.uleb128 0xb
 3721 03d1 3B       		.uleb128 0x3b
 3722 03d2 05       		.uleb128 0x5
 3723 03d3 27       		.uleb128 0x27
 3724 03d4 19       		.uleb128 0x19
 3725 03d5 3C       		.uleb128 0x3c
 3726 03d6 19       		.uleb128 0x19
 3727 03d7 00       		.byte	0
 3728 03d8 00       		.byte	0
 3729 03d9 00       		.byte	0
 3730              		.section	.debug_loc,"",%progbits
 3731              	.Ldebug_loc0:
 3732              	.LLST0:
 3733 0000 00000000 		.4byte	.LVL1
 3734 0004 12000000 		.4byte	.LVL4
 3735 0008 0100     		.2byte	0x1
 3736 000a 50       		.byte	0x50
 3737 000b 12000000 		.4byte	.LVL4
 3738 000f 28000000 		.4byte	.LFE221
 3739 0013 0100     		.2byte	0x1
 3740 0015 54       		.byte	0x54
 3741 0016 00000000 		.4byte	0
 3742 001a 00000000 		.4byte	0
 3743              	.LLST1:
 3744 001e 00000000 		.4byte	.LVL1
 3745 0022 12000000 		.4byte	.LVL4
 3746 0026 0100     		.2byte	0x1
 3747 0028 51       		.byte	0x51
 3748 0029 12000000 		.4byte	.LVL4
 3749 002d 28000000 		.4byte	.LFE221
 3750 0031 0400     		.2byte	0x4
ARM GAS  /tmp/ccvWj7Xf.s 			page 67


 3751 0033 F3       		.byte	0xf3
 3752 0034 01       		.uleb128 0x1
 3753 0035 51       		.byte	0x51
 3754 0036 9F       		.byte	0x9f
 3755 0037 00000000 		.4byte	0
 3756 003b 00000000 		.4byte	0
 3757              	.LLST2:
 3758 003f 04000000 		.4byte	.LVL2
 3759 0043 20000000 		.4byte	.LVL7
 3760 0047 0100     		.2byte	0x1
 3761 0049 55       		.byte	0x55
 3762 004a 20000000 		.4byte	.LVL7
 3763 004e 24000000 		.4byte	.LVL8
 3764 0052 0300     		.2byte	0x3
 3765 0054 75       		.byte	0x75
 3766 0055 7F       		.sleb128 -1
 3767 0056 9F       		.byte	0x9f
 3768 0057 24000000 		.4byte	.LVL8
 3769 005b 28000000 		.4byte	.LFE221
 3770 005f 0100     		.2byte	0x1
 3771 0061 55       		.byte	0x55
 3772 0062 00000000 		.4byte	0
 3773 0066 00000000 		.4byte	0
 3774              	.LLST3:
 3775 006a 12000000 		.4byte	.LVL4
 3776 006e 26000000 		.4byte	.LVL9
 3777 0072 0100     		.2byte	0x1
 3778 0074 54       		.byte	0x54
 3779 0075 00000000 		.4byte	0
 3780 0079 00000000 		.4byte	0
 3781              	.LLST4:
 3782 007d 14000000 		.4byte	.LVL5
 3783 0081 1D000000 		.4byte	.LVL6-1
 3784 0085 0100     		.2byte	0x1
 3785 0087 50       		.byte	0x50
 3786 0088 00000000 		.4byte	0
 3787 008c 00000000 		.4byte	0
 3788              	.LLST5:
 3789 0090 00000000 		.4byte	.LVL10
 3790 0094 0B000000 		.4byte	.LVL11-1
 3791 0098 0100     		.2byte	0x1
 3792 009a 50       		.byte	0x50
 3793 009b 0B000000 		.4byte	.LVL11-1
 3794 009f 18000000 		.4byte	.LFE220
 3795 00a3 0400     		.2byte	0x4
 3796 00a5 F3       		.byte	0xf3
 3797 00a6 01       		.uleb128 0x1
 3798 00a7 50       		.byte	0x50
 3799 00a8 9F       		.byte	0x9f
 3800 00a9 00000000 		.4byte	0
 3801 00ad 00000000 		.4byte	0
 3802              	.LLST6:
 3803 00b1 00000000 		.4byte	.LVL10
 3804 00b5 0B000000 		.4byte	.LVL11-1
 3805 00b9 0100     		.2byte	0x1
 3806 00bb 51       		.byte	0x51
 3807 00bc 0B000000 		.4byte	.LVL11-1
ARM GAS  /tmp/ccvWj7Xf.s 			page 68


 3808 00c0 18000000 		.4byte	.LFE220
 3809 00c4 0400     		.2byte	0x4
 3810 00c6 F3       		.byte	0xf3
 3811 00c7 01       		.uleb128 0x1
 3812 00c8 51       		.byte	0x51
 3813 00c9 9F       		.byte	0x9f
 3814 00ca 00000000 		.4byte	0
 3815 00ce 00000000 		.4byte	0
 3816              	.LLST7:
 3817 00d2 00000000 		.4byte	.LVL13
 3818 00d6 10000000 		.4byte	.LVL14
 3819 00da 0100     		.2byte	0x1
 3820 00dc 50       		.byte	0x50
 3821 00dd 10000000 		.4byte	.LVL14
 3822 00e1 12000000 		.4byte	.LVL15
 3823 00e5 0100     		.2byte	0x1
 3824 00e7 53       		.byte	0x53
 3825 00e8 12000000 		.4byte	.LVL15
 3826 00ec 22000000 		.4byte	.LVL17
 3827 00f0 0100     		.2byte	0x1
 3828 00f2 50       		.byte	0x50
 3829 00f3 22000000 		.4byte	.LVL17
 3830 00f7 27000000 		.4byte	.LVL19-1
 3831 00fb 0100     		.2byte	0x1
 3832 00fd 53       		.byte	0x53
 3833 00fe 27000000 		.4byte	.LVL19-1
 3834 0102 34000000 		.4byte	.LFE223
 3835 0106 0400     		.2byte	0x4
 3836 0108 F3       		.byte	0xf3
 3837 0109 01       		.uleb128 0x1
 3838 010a 50       		.byte	0x50
 3839 010b 9F       		.byte	0x9f
 3840 010c 00000000 		.4byte	0
 3841 0110 00000000 		.4byte	0
 3842              	.LLST8:
 3843 0114 18000000 		.4byte	.LVL16
 3844 0118 24000000 		.4byte	.LVL18
 3845 011c 0200     		.2byte	0x2
 3846 011e 72       		.byte	0x72
 3847 011f 24       		.sleb128 36
 3848 0120 24000000 		.4byte	.LVL18
 3849 0124 27000000 		.4byte	.LVL19-1
 3850 0128 0100     		.2byte	0x1
 3851 012a 53       		.byte	0x53
 3852 012b 27000000 		.4byte	.LVL19-1
 3853 012f 34000000 		.4byte	.LFE223
 3854 0133 0400     		.2byte	0x4
 3855 0135 F3       		.byte	0xf3
 3856 0136 01       		.uleb128 0x1
 3857 0137 50       		.byte	0x50
 3858 0138 9F       		.byte	0x9f
 3859 0139 00000000 		.4byte	0
 3860 013d 00000000 		.4byte	0
 3861              	.LLST9:
 3862 0141 18000000 		.4byte	.LVL16
 3863 0145 27000000 		.4byte	.LVL19-1
 3864 0149 0100     		.2byte	0x1
ARM GAS  /tmp/ccvWj7Xf.s 			page 69


 3865 014b 52       		.byte	0x52
 3866 014c 00000000 		.4byte	0
 3867 0150 00000000 		.4byte	0
 3868              	.LLST10:
 3869 0154 00000000 		.4byte	.LVL20
 3870 0158 0B000000 		.4byte	.LVL21-1
 3871 015c 0100     		.2byte	0x1
 3872 015e 50       		.byte	0x50
 3873 015f 0B000000 		.4byte	.LVL21-1
 3874 0163 14000000 		.4byte	.LFE222
 3875 0167 0400     		.2byte	0x4
 3876 0169 F3       		.byte	0xf3
 3877 016a 01       		.uleb128 0x1
 3878 016b 50       		.byte	0x50
 3879 016c 9F       		.byte	0x9f
 3880 016d 00000000 		.4byte	0
 3881 0171 00000000 		.4byte	0
 3882              	.LLST11:
 3883 0175 00000000 		.4byte	.LVL22
 3884 0179 04000000 		.4byte	.LVL23
 3885 017d 0100     		.2byte	0x1
 3886 017f 50       		.byte	0x50
 3887 0180 04000000 		.4byte	.LVL23
 3888 0184 31000000 		.4byte	.LVL26-1
 3889 0188 0100     		.2byte	0x1
 3890 018a 53       		.byte	0x53
 3891 018b 31000000 		.4byte	.LVL26-1
 3892 018f 32000000 		.4byte	.LVL26
 3893 0193 0400     		.2byte	0x4
 3894 0195 F3       		.byte	0xf3
 3895 0196 01       		.uleb128 0x1
 3896 0197 50       		.byte	0x50
 3897 0198 9F       		.byte	0x9f
 3898 0199 32000000 		.4byte	.LVL26
 3899 019d 40000000 		.4byte	.LFE225
 3900 01a1 0100     		.2byte	0x1
 3901 01a3 53       		.byte	0x53
 3902 01a4 00000000 		.4byte	0
 3903 01a8 00000000 		.4byte	0
 3904              	.LLST12:
 3905 01ac 00000000 		.4byte	.LVL22
 3906 01b0 31000000 		.4byte	.LVL26-1
 3907 01b4 0100     		.2byte	0x1
 3908 01b6 51       		.byte	0x51
 3909 01b7 31000000 		.4byte	.LVL26-1
 3910 01bb 32000000 		.4byte	.LVL26
 3911 01bf 0400     		.2byte	0x4
 3912 01c1 F3       		.byte	0xf3
 3913 01c2 01       		.uleb128 0x1
 3914 01c3 51       		.byte	0x51
 3915 01c4 9F       		.byte	0x9f
 3916 01c5 32000000 		.4byte	.LVL26
 3917 01c9 40000000 		.4byte	.LFE225
 3918 01cd 0100     		.2byte	0x1
 3919 01cf 51       		.byte	0x51
 3920 01d0 00000000 		.4byte	0
 3921 01d4 00000000 		.4byte	0
ARM GAS  /tmp/ccvWj7Xf.s 			page 70


 3922              	.LLST13:
 3923 01d8 1E000000 		.4byte	.LVL24
 3924 01dc 2A000000 		.4byte	.LVL25
 3925 01e0 0200     		.2byte	0x2
 3926 01e2 72       		.byte	0x72
 3927 01e3 24       		.sleb128 36
 3928 01e4 2A000000 		.4byte	.LVL25
 3929 01e8 31000000 		.4byte	.LVL26-1
 3930 01ec 0100     		.2byte	0x1
 3931 01ee 53       		.byte	0x53
 3932 01ef 31000000 		.4byte	.LVL26-1
 3933 01f3 32000000 		.4byte	.LVL26
 3934 01f7 0400     		.2byte	0x4
 3935 01f9 F3       		.byte	0xf3
 3936 01fa 01       		.uleb128 0x1
 3937 01fb 50       		.byte	0x50
 3938 01fc 9F       		.byte	0x9f
 3939 01fd 00000000 		.4byte	0
 3940 0201 00000000 		.4byte	0
 3941              	.LLST14:
 3942 0205 1E000000 		.4byte	.LVL24
 3943 0209 31000000 		.4byte	.LVL26-1
 3944 020d 0100     		.2byte	0x1
 3945 020f 52       		.byte	0x52
 3946 0210 00000000 		.4byte	0
 3947 0214 00000000 		.4byte	0
 3948              	.LLST15:
 3949 0218 00000000 		.4byte	.LVL27
 3950 021c 0B000000 		.4byte	.LVL28-1
 3951 0220 0100     		.2byte	0x1
 3952 0222 50       		.byte	0x50
 3953 0223 0B000000 		.4byte	.LVL28-1
 3954 0227 14000000 		.4byte	.LFE224
 3955 022b 0400     		.2byte	0x4
 3956 022d F3       		.byte	0xf3
 3957 022e 01       		.uleb128 0x1
 3958 022f 50       		.byte	0x50
 3959 0230 9F       		.byte	0x9f
 3960 0231 00000000 		.4byte	0
 3961 0235 00000000 		.4byte	0
 3962              	.LLST16:
 3963 0239 00000000 		.4byte	.LVL27
 3964 023d 0B000000 		.4byte	.LVL28-1
 3965 0241 0100     		.2byte	0x1
 3966 0243 51       		.byte	0x51
 3967 0244 0B000000 		.4byte	.LVL28-1
 3968 0248 14000000 		.4byte	.LFE224
 3969 024c 0400     		.2byte	0x4
 3970 024e F3       		.byte	0xf3
 3971 024f 01       		.uleb128 0x1
 3972 0250 51       		.byte	0x51
 3973 0251 9F       		.byte	0x9f
 3974 0252 00000000 		.4byte	0
 3975 0256 00000000 		.4byte	0
 3976              	.LLST17:
 3977 025a 00000000 		.4byte	.LVL29
 3978 025e 1E000000 		.4byte	.LVL32
ARM GAS  /tmp/ccvWj7Xf.s 			page 71


 3979 0262 0100     		.2byte	0x1
 3980 0264 50       		.byte	0x50
 3981 0265 1E000000 		.4byte	.LVL32
 3982 0269 29000000 		.4byte	.LVL33-1
 3983 026d 0100     		.2byte	0x1
 3984 026f 53       		.byte	0x53
 3985 0270 29000000 		.4byte	.LVL33-1
 3986 0274 32000000 		.4byte	.LFE226
 3987 0278 0400     		.2byte	0x4
 3988 027a F3       		.byte	0xf3
 3989 027b 01       		.uleb128 0x1
 3990 027c 50       		.byte	0x50
 3991 027d 9F       		.byte	0x9f
 3992 027e 00000000 		.4byte	0
 3993 0282 00000000 		.4byte	0
 3994              	.LLST18:
 3995 0286 14000000 		.4byte	.LVL30
 3996 028a 1C000000 		.4byte	.LVL31
 3997 028e 0200     		.2byte	0x2
 3998 0290 30       		.byte	0x30
 3999 0291 9F       		.byte	0x9f
 4000 0292 2A000000 		.4byte	.LVL33
 4001 0296 32000000 		.4byte	.LFE226
 4002 029a 0200     		.2byte	0x2
 4003 029c 30       		.byte	0x30
 4004 029d 9F       		.byte	0x9f
 4005 029e 00000000 		.4byte	0
 4006 02a2 00000000 		.4byte	0
 4007              	.LLST19:
 4008 02a6 1C000000 		.4byte	.LVL31
 4009 02aa 1E000000 		.4byte	.LVL32
 4010 02ae 0100     		.2byte	0x1
 4011 02b0 50       		.byte	0x50
 4012 02b1 1E000000 		.4byte	.LVL32
 4013 02b5 29000000 		.4byte	.LVL33-1
 4014 02b9 0100     		.2byte	0x1
 4015 02bb 53       		.byte	0x53
 4016 02bc 29000000 		.4byte	.LVL33-1
 4017 02c0 32000000 		.4byte	.LFE226
 4018 02c4 0400     		.2byte	0x4
 4019 02c6 F3       		.byte	0xf3
 4020 02c7 01       		.uleb128 0x1
 4021 02c8 50       		.byte	0x50
 4022 02c9 9F       		.byte	0x9f
 4023 02ca 00000000 		.4byte	0
 4024 02ce 00000000 		.4byte	0
 4025              	.LLST20:
 4026 02d2 1E000000 		.4byte	.LVL32
 4027 02d6 29000000 		.4byte	.LVL33-1
 4028 02da 0100     		.2byte	0x1
 4029 02dc 50       		.byte	0x50
 4030 02dd 00000000 		.4byte	0
 4031 02e1 00000000 		.4byte	0
 4032              	.LLST21:
 4033 02e5 00000000 		.4byte	.LVL34
 4034 02e9 18000000 		.4byte	.LVL37
 4035 02ed 0100     		.2byte	0x1
ARM GAS  /tmp/ccvWj7Xf.s 			page 72


 4036 02ef 50       		.byte	0x50
 4037 02f0 18000000 		.4byte	.LVL37
 4038 02f4 1D000000 		.4byte	.LVL38-1
 4039 02f8 0200     		.2byte	0x2
 4040 02fa 72       		.byte	0x72
 4041 02fb 04       		.sleb128 4
 4042 02fc 1D000000 		.4byte	.LVL38-1
 4043 0300 1E000000 		.4byte	.LFE227
 4044 0304 0400     		.2byte	0x4
 4045 0306 F3       		.byte	0xf3
 4046 0307 01       		.uleb128 0x1
 4047 0308 50       		.byte	0x50
 4048 0309 9F       		.byte	0x9f
 4049 030a 00000000 		.4byte	0
 4050 030e 00000000 		.4byte	0
 4051              	.LLST22:
 4052 0312 0C000000 		.4byte	.LVL35
 4053 0316 18000000 		.4byte	.LVL37
 4054 031a 0100     		.2byte	0x1
 4055 031c 50       		.byte	0x50
 4056 031d 18000000 		.4byte	.LVL37
 4057 0321 1D000000 		.4byte	.LVL38-1
 4058 0325 0200     		.2byte	0x2
 4059 0327 72       		.byte	0x72
 4060 0328 04       		.sleb128 4
 4061 0329 1D000000 		.4byte	.LVL38-1
 4062 032d 1E000000 		.4byte	.LFE227
 4063 0331 0400     		.2byte	0x4
 4064 0333 F3       		.byte	0xf3
 4065 0334 01       		.uleb128 0x1
 4066 0335 50       		.byte	0x50
 4067 0336 9F       		.byte	0x9f
 4068 0337 00000000 		.4byte	0
 4069 033b 00000000 		.4byte	0
 4070              	.LLST23:
 4071 033f 0E000000 		.4byte	.LVL36
 4072 0343 1D000000 		.4byte	.LVL38-1
 4073 0347 0100     		.2byte	0x1
 4074 0349 53       		.byte	0x53
 4075 034a 00000000 		.4byte	0
 4076 034e 00000000 		.4byte	0
 4077              	.LLST24:
 4078 0352 00000000 		.4byte	.LVL39
 4079 0356 0C000000 		.4byte	.LVL40
 4080 035a 0100     		.2byte	0x1
 4081 035c 50       		.byte	0x50
 4082 035d 0C000000 		.4byte	.LVL40
 4083 0361 2E000000 		.4byte	.LFE228
 4084 0365 0100     		.2byte	0x1
 4085 0367 55       		.byte	0x55
 4086 0368 00000000 		.4byte	0
 4087 036c 00000000 		.4byte	0
 4088              	.LLST25:
 4089 0370 00000000 		.4byte	.LVL39
 4090 0374 0C000000 		.4byte	.LVL40
 4091 0378 0100     		.2byte	0x1
 4092 037a 51       		.byte	0x51
ARM GAS  /tmp/ccvWj7Xf.s 			page 73


 4093 037b 0C000000 		.4byte	.LVL40
 4094 037f 0E000000 		.4byte	.LVL41
 4095 0383 0300     		.2byte	0x3
 4096 0385 74       		.byte	0x74
 4097 0386 7F       		.sleb128 -1
 4098 0387 9F       		.byte	0x9f
 4099 0388 0E000000 		.4byte	.LVL41
 4100 038c 28000000 		.4byte	.LVL46
 4101 0390 0100     		.2byte	0x1
 4102 0392 54       		.byte	0x54
 4103 0393 28000000 		.4byte	.LVL46
 4104 0397 2A000000 		.4byte	.LVL47
 4105 039b 0300     		.2byte	0x3
 4106 039d 74       		.byte	0x74
 4107 039e 01       		.sleb128 1
 4108 039f 9F       		.byte	0x9f
 4109 03a0 00000000 		.4byte	0
 4110 03a4 00000000 		.4byte	0
 4111              	.LLST26:
 4112 03a8 1A000000 		.4byte	.LVL43
 4113 03ac 2C000000 		.4byte	.LVL48
 4114 03b0 0100     		.2byte	0x1
 4115 03b2 55       		.byte	0x55
 4116 03b3 00000000 		.4byte	0
 4117 03b7 00000000 		.4byte	0
 4118              	.LLST27:
 4119 03bb 1C000000 		.4byte	.LVL44
 4120 03bf 25000000 		.4byte	.LVL45-1
 4121 03c3 0100     		.2byte	0x1
 4122 03c5 50       		.byte	0x50
 4123 03c6 00000000 		.4byte	0
 4124 03ca 00000000 		.4byte	0
 4125              	.LLST28:
 4126 03ce 00000000 		.4byte	.LVL49
 4127 03d2 16000000 		.4byte	.LVL50
 4128 03d6 0100     		.2byte	0x1
 4129 03d8 50       		.byte	0x50
 4130 03d9 16000000 		.4byte	.LVL50
 4131 03dd 52000000 		.4byte	.LVL57
 4132 03e1 0400     		.2byte	0x4
 4133 03e3 F3       		.byte	0xf3
 4134 03e4 01       		.uleb128 0x1
 4135 03e5 50       		.byte	0x50
 4136 03e6 9F       		.byte	0x9f
 4137 03e7 52000000 		.4byte	.LVL57
 4138 03eb 54000000 		.4byte	.LVL58
 4139 03ef 0100     		.2byte	0x1
 4140 03f1 50       		.byte	0x50
 4141 03f2 54000000 		.4byte	.LVL58
 4142 03f6 5F000000 		.4byte	.LVL59-1
 4143 03fa 0100     		.2byte	0x1
 4144 03fc 53       		.byte	0x53
 4145 03fd 5F000000 		.4byte	.LVL59-1
 4146 0401 6C000000 		.4byte	.LFE229
 4147 0405 0400     		.2byte	0x4
 4148 0407 F3       		.byte	0xf3
 4149 0408 01       		.uleb128 0x1
ARM GAS  /tmp/ccvWj7Xf.s 			page 74


 4150 0409 50       		.byte	0x50
 4151 040a 9F       		.byte	0x9f
 4152 040b 00000000 		.4byte	0
 4153 040f 00000000 		.4byte	0
 4154              	.LLST29:
 4155 0413 00000000 		.4byte	.LVL49
 4156 0417 16000000 		.4byte	.LVL50
 4157 041b 0100     		.2byte	0x1
 4158 041d 51       		.byte	0x51
 4159 041e 16000000 		.4byte	.LVL50
 4160 0422 52000000 		.4byte	.LVL57
 4161 0426 0400     		.2byte	0x4
 4162 0428 F3       		.byte	0xf3
 4163 0429 01       		.uleb128 0x1
 4164 042a 51       		.byte	0x51
 4165 042b 9F       		.byte	0x9f
 4166 042c 52000000 		.4byte	.LVL57
 4167 0430 5F000000 		.4byte	.LVL59-1
 4168 0434 0100     		.2byte	0x1
 4169 0436 51       		.byte	0x51
 4170 0437 5F000000 		.4byte	.LVL59-1
 4171 043b 6C000000 		.4byte	.LFE229
 4172 043f 0400     		.2byte	0x4
 4173 0441 F3       		.byte	0xf3
 4174 0442 01       		.uleb128 0x1
 4175 0443 51       		.byte	0x51
 4176 0444 9F       		.byte	0x9f
 4177 0445 00000000 		.4byte	0
 4178 0449 00000000 		.4byte	0
 4179              	.LLST30:
 4180 044d 24000000 		.4byte	.LVL51
 4181 0451 26000000 		.4byte	.LVL52
 4182 0455 0200     		.2byte	0x2
 4183 0457 30       		.byte	0x30
 4184 0458 9F       		.byte	0x9f
 4185 0459 26000000 		.4byte	.LVL52
 4186 045d 30000000 		.4byte	.LVL53
 4187 0461 0100     		.2byte	0x1
 4188 0463 50       		.byte	0x50
 4189 0464 48000000 		.4byte	.LVL56
 4190 0468 52000000 		.4byte	.LVL57
 4191 046c 0100     		.2byte	0x1
 4192 046e 50       		.byte	0x50
 4193 046f 00000000 		.4byte	0
 4194 0473 00000000 		.4byte	0
 4195              	.LLST31:
 4196 0477 26000000 		.4byte	.LVL52
 4197 047b 30000000 		.4byte	.LVL53
 4198 047f 0200     		.2byte	0x2
 4199 0481 30       		.byte	0x30
 4200 0482 9F       		.byte	0x9f
 4201 0483 48000000 		.4byte	.LVL56
 4202 0487 52000000 		.4byte	.LVL57
 4203 048b 0200     		.2byte	0x2
 4204 048d 30       		.byte	0x30
 4205 048e 9F       		.byte	0x9f
 4206 048f 00000000 		.4byte	0
ARM GAS  /tmp/ccvWj7Xf.s 			page 75


 4207 0493 00000000 		.4byte	0
 4208              	.LLST32:
 4209 0497 36000000 		.4byte	.LVL54
 4210 049b 52000000 		.4byte	.LVL57
 4211 049f 0100     		.2byte	0x1
 4212 04a1 54       		.byte	0x54
 4213 04a2 00000000 		.4byte	0
 4214 04a6 00000000 		.4byte	0
 4215              	.LLST33:
 4216 04aa 36000000 		.4byte	.LVL54
 4217 04ae 45000000 		.4byte	.LVL55-1
 4218 04b2 0100     		.2byte	0x1
 4219 04b4 51       		.byte	0x51
 4220 04b5 00000000 		.4byte	0
 4221 04b9 00000000 		.4byte	0
 4222              	.LLST35:
 4223 04bd 52000000 		.4byte	.LVL57
 4224 04c1 54000000 		.4byte	.LVL58
 4225 04c5 0100     		.2byte	0x1
 4226 04c7 50       		.byte	0x50
 4227 04c8 54000000 		.4byte	.LVL58
 4228 04cc 5F000000 		.4byte	.LVL59-1
 4229 04d0 0100     		.2byte	0x1
 4230 04d2 53       		.byte	0x53
 4231 04d3 5F000000 		.4byte	.LVL59-1
 4232 04d7 6C000000 		.4byte	.LFE229
 4233 04db 0400     		.2byte	0x4
 4234 04dd F3       		.byte	0xf3
 4235 04de 01       		.uleb128 0x1
 4236 04df 50       		.byte	0x50
 4237 04e0 9F       		.byte	0x9f
 4238 04e1 00000000 		.4byte	0
 4239 04e5 00000000 		.4byte	0
 4240              	.LLST36:
 4241 04e9 54000000 		.4byte	.LVL58
 4242 04ed 5F000000 		.4byte	.LVL59-1
 4243 04f1 0100     		.2byte	0x1
 4244 04f3 50       		.byte	0x50
 4245 04f4 00000000 		.4byte	0
 4246 04f8 00000000 		.4byte	0
 4247              		.section	.debug_aranges,"",%progbits
 4248 0000 6C000000 		.4byte	0x6c
 4249 0004 0200     		.2byte	0x2
 4250 0006 00000000 		.4byte	.Ldebug_info0
 4251 000a 04       		.byte	0x4
 4252 000b 00       		.byte	0
 4253 000c 0000     		.2byte	0
 4254 000e 0000     		.2byte	0
 4255 0010 00000000 		.4byte	.LFB219
 4256 0014 08000000 		.4byte	.LFE219-.LFB219
 4257 0018 00000000 		.4byte	.LFB221
 4258 001c 28000000 		.4byte	.LFE221-.LFB221
 4259 0020 00000000 		.4byte	.LFB220
 4260 0024 18000000 		.4byte	.LFE220-.LFB220
 4261 0028 00000000 		.4byte	.LFB223
 4262 002c 34000000 		.4byte	.LFE223-.LFB223
 4263 0030 00000000 		.4byte	.LFB222
ARM GAS  /tmp/ccvWj7Xf.s 			page 76


 4264 0034 14000000 		.4byte	.LFE222-.LFB222
 4265 0038 00000000 		.4byte	.LFB225
 4266 003c 40000000 		.4byte	.LFE225-.LFB225
 4267 0040 00000000 		.4byte	.LFB224
 4268 0044 14000000 		.4byte	.LFE224-.LFB224
 4269 0048 00000000 		.4byte	.LFB226
 4270 004c 32000000 		.4byte	.LFE226-.LFB226
 4271 0050 00000000 		.4byte	.LFB227
 4272 0054 1E000000 		.4byte	.LFE227-.LFB227
 4273 0058 00000000 		.4byte	.LFB228
 4274 005c 2E000000 		.4byte	.LFE228-.LFB228
 4275 0060 00000000 		.4byte	.LFB229
 4276 0064 6C000000 		.4byte	.LFE229-.LFB229
 4277 0068 00000000 		.4byte	0
 4278 006c 00000000 		.4byte	0
 4279              		.section	.debug_ranges,"",%progbits
 4280              	.Ldebug_ranges0:
 4281 0000 18000000 		.4byte	.LBB97
 4282 0004 20000000 		.4byte	.LBE97
 4283 0008 22000000 		.4byte	.LBB100
 4284 000c 24000000 		.4byte	.LBE100
 4285 0010 00000000 		.4byte	0
 4286 0014 00000000 		.4byte	0
 4287 0018 1E000000 		.4byte	.LBB110
 4288 001c 20000000 		.4byte	.LBE110
 4289 0020 22000000 		.4byte	.LBB113
 4290 0024 2A000000 		.4byte	.LBE113
 4291 0028 00000000 		.4byte	0
 4292 002c 00000000 		.4byte	0
 4293 0030 02000000 		.4byte	.LBB123
 4294 0034 04000000 		.4byte	.LBE123
 4295 0038 06000000 		.4byte	.LBB130
 4296 003c 0A000000 		.4byte	.LBE130
 4297 0040 00000000 		.4byte	0
 4298 0044 00000000 		.4byte	0
 4299 0048 14000000 		.4byte	.LBB131
 4300 004c 1C000000 		.4byte	.LBE131
 4301 0050 2A000000 		.4byte	.LBB144
 4302 0054 32000000 		.4byte	.LBE144
 4303 0058 00000000 		.4byte	0
 4304 005c 00000000 		.4byte	0
 4305 0060 1C000000 		.4byte	.LBB140
 4306 0064 22000000 		.4byte	.LBE140
 4307 0068 24000000 		.4byte	.LBB143
 4308 006c 26000000 		.4byte	.LBE143
 4309 0070 00000000 		.4byte	0
 4310 0074 00000000 		.4byte	0
 4311 0078 0C000000 		.4byte	.LBB146
 4312 007c 12000000 		.4byte	.LBE146
 4313 0080 14000000 		.4byte	.LBB149
 4314 0084 16000000 		.4byte	.LBE149
 4315 0088 00000000 		.4byte	0
 4316 008c 00000000 		.4byte	0
 4317 0090 26000000 		.4byte	.LBB156
 4318 0094 2C000000 		.4byte	.LBE156
 4319 0098 48000000 		.4byte	.LBB170
 4320 009c 4E000000 		.4byte	.LBE170
ARM GAS  /tmp/ccvWj7Xf.s 			page 77


 4321 00a0 00000000 		.4byte	0
 4322 00a4 00000000 		.4byte	0
 4323 00a8 32000000 		.4byte	.LBB166
 4324 00ac 34000000 		.4byte	.LBE166
 4325 00b0 38000000 		.4byte	.LBB169
 4326 00b4 40000000 		.4byte	.LBE169
 4327 00b8 00000000 		.4byte	0
 4328 00bc 00000000 		.4byte	0
 4329 00c0 00000000 		.4byte	.LFB219
 4330 00c4 08000000 		.4byte	.LFE219
 4331 00c8 00000000 		.4byte	.LFB221
 4332 00cc 28000000 		.4byte	.LFE221
 4333 00d0 00000000 		.4byte	.LFB220
 4334 00d4 18000000 		.4byte	.LFE220
 4335 00d8 00000000 		.4byte	.LFB223
 4336 00dc 34000000 		.4byte	.LFE223
 4337 00e0 00000000 		.4byte	.LFB222
 4338 00e4 14000000 		.4byte	.LFE222
 4339 00e8 00000000 		.4byte	.LFB225
 4340 00ec 40000000 		.4byte	.LFE225
 4341 00f0 00000000 		.4byte	.LFB224
 4342 00f4 14000000 		.4byte	.LFE224
 4343 00f8 00000000 		.4byte	.LFB226
 4344 00fc 32000000 		.4byte	.LFE226
 4345 0100 00000000 		.4byte	.LFB227
 4346 0104 1E000000 		.4byte	.LFE227
 4347 0108 00000000 		.4byte	.LFB228
 4348 010c 2E000000 		.4byte	.LFE228
 4349 0110 00000000 		.4byte	.LFB229
 4350 0114 6C000000 		.4byte	.LFE229
 4351 0118 00000000 		.4byte	0
 4352 011c 00000000 		.4byte	0
 4353              		.section	.debug_line,"",%progbits
 4354              	.Ldebug_line0:
 4355 0000 E0030000 		.section	.debug_str,"MS",%progbits,1
 4355      0200A401 
 4355      00000201 
 4355      FB0E0D00 
 4355      01010101 
 4356              	.LASF53:
 4357 0000 72656164 		.ascii	"ready_list_t\000"
 4357      795F6C69 
 4357      73745F74 
 4357      00
 4358              	.LASF113:
 4359 000d 71756575 		.ascii	"queue_insert\000"
 4359      655F696E 
 4359      73657274 
 4359      00
 4360              	.LASF132:
 4361 001a 43686962 		.ascii	"ChibiOS_3.0.2/os/rt/src/chsem.c\000"
 4361      694F535F 
 4361      332E302E 
 4361      322F6F73 
 4361      2F72742F 
 4362              	.LASF91:
 4363 003a 77747472 		.ascii	"wttrp\000"
ARM GAS  /tmp/ccvWj7Xf.s 			page 78


 4363      7000
 4364              	.LASF88:
 4365 0040 7264796D 		.ascii	"rdymsg\000"
 4365      736700
 4366              	.LASF16:
 4367 0047 75696E74 		.ascii	"uint64_t\000"
 4367      36345F74 
 4367      00
 4368              	.LASF5:
 4369 0050 5F5F7569 		.ascii	"__uint8_t\000"
 4369      6E74385F 
 4369      7400
 4370              	.LASF85:
 4371 005a 706F7274 		.ascii	"port_intctx\000"
 4371      5F696E74 
 4371      63747800 
 4372              	.LASF72:
 4373 0066 73797374 		.ascii	"system_debug_t\000"
 4373      656D5F64 
 4373      65627567 
 4373      5F7400
 4374              	.LASF108:
 4375 0075 71756575 		.ascii	"queue_init\000"
 4375      655F696E 
 4375      697400
 4376              	.LASF105:
 4377 0080 706F7274 		.ascii	"port_lock\000"
 4377      5F6C6F63 
 4377      6B00
 4378              	.LASF114:
 4379 008a 71756575 		.ascii	"queue_lifo_remove\000"
 4379      655F6C69 
 4379      666F5F72 
 4379      656D6F76 
 4379      6500
 4380              	.LASF124:
 4381 009c 63685365 		.ascii	"chSemSignal\000"
 4381      6D536967 
 4381      6E616C00 
 4382              	.LASF89:
 4383 00a8 65786974 		.ascii	"exitcode\000"
 4383      636F6465 
 4383      00
 4384              	.LASF79:
 4385 00b1 6D61696E 		.ascii	"mainthread\000"
 4385      74687265 
 4385      616400
 4386              	.LASF126:
 4387 00bc 63685365 		.ascii	"chSemAddCounterI\000"
 4387      6D416464 
 4387      436F756E 
 4387      74657249 
 4387      00
 4388              	.LASF128:
 4389 00cd 49544D5F 		.ascii	"ITM_RxBuffer\000"
 4389      52784275 
 4389      66666572 
ARM GAS  /tmp/ccvWj7Xf.s 			page 79


 4389      00
 4390              	.LASF52:
 4391 00da 63685F74 		.ascii	"ch_threads_queue\000"
 4391      68726561 
 4391      64735F71 
 4391      75657565 
 4391      00
 4392              	.LASF30:
 4393 00eb 705F7072 		.ascii	"p_prio\000"
 4393      696F00
 4394              	.LASF10:
 4395 00f2 6C6F6E67 		.ascii	"long long int\000"
 4395      206C6F6E 
 4395      6720696E 
 4395      7400
 4396              	.LASF1:
 4397 0100 7369676E 		.ascii	"signed char\000"
 4397      65642063 
 4397      68617200 
 4398              	.LASF127:
 4399 010c 63685365 		.ascii	"chSemSignalWait\000"
 4399      6D536967 
 4399      6E616C57 
 4399      61697400 
 4400              	.LASF46:
 4401 011c 705F6D70 		.ascii	"p_mpool\000"
 4401      6F6F6C00 
 4402              	.LASF12:
 4403 0124 6C6F6E67 		.ascii	"long long unsigned int\000"
 4403      206C6F6E 
 4403      6720756E 
 4403      7369676E 
 4403      65642069 
 4404              	.LASF99:
 4405 013b 6D5F7175 		.ascii	"m_queue\000"
 4405      65756500 
 4406              	.LASF78:
 4407 0143 76746C69 		.ascii	"vtlist\000"
 4407      737400
 4408              	.LASF106:
 4409 014a 706F7274 		.ascii	"port_unlock\000"
 4409      5F756E6C 
 4409      6F636B00 
 4410              	.LASF21:
 4411 0156 74736C69 		.ascii	"tslices_t\000"
 4411      6365735F 
 4411      7400
 4412              	.LASF76:
 4413 0160 63685F73 		.ascii	"ch_system\000"
 4413      79737465 
 4413      6D00
 4414              	.LASF7:
 4415 016a 6C6F6E67 		.ascii	"long int\000"
 4415      20696E74 
 4415      00
 4416              	.LASF19:
 4417 0173 74737461 		.ascii	"tstate_t\000"
ARM GAS  /tmp/ccvWj7Xf.s 			page 80


 4417      74655F74 
 4417      00
 4418              	.LASF131:
 4419 017c 474E5520 		.ascii	"GNU C 4.8.4 20141219 (release) -mcpu=cortex-m4 -mfl"
 4419      4320342E 
 4419      382E3420 
 4419      32303134 
 4419      31323139 
 4420 01af 6F61742D 		.ascii	"oat-abi=hard -mfpu=fpv4-sp-d16 -mno-thumb-interwork"
 4420      6162693D 
 4420      68617264 
 4420      202D6D66 
 4420      70753D66 
 4421 01e2 202D6D74 		.ascii	" -mthumb -ggdb -O2 -std=gnu99 -fomit-frame-pointer "
 4421      68756D62 
 4421      202D6767 
 4421      6462202D 
 4421      4F32202D 
 4422 0215 2D66616C 		.ascii	"-falign-functions=16 -ffunction-sections -fdata-sec"
 4422      69676E2D 
 4422      66756E63 
 4422      74696F6E 
 4422      733D3136 
 4423 0248 74696F6E 		.ascii	"tions -fno-common -fsingle-precision-constant\000"
 4423      73202D66 
 4423      6E6F2D63 
 4423      6F6D6D6F 
 4423      6E202D66 
 4424              	.LASF32:
 4425 0276 705F6E65 		.ascii	"p_newer\000"
 4425      77657200 
 4426              	.LASF96:
 4427 027e 735F7175 		.ascii	"s_queue\000"
 4427      65756500 
 4428              	.LASF134:
 4429 0286 63685363 		.ascii	"chSchRescheduleS\000"
 4429      68526573 
 4429      63686564 
 4429      756C6553 
 4429      00
 4430              	.LASF58:
 4431 0297 725F6E65 		.ascii	"r_newer\000"
 4431      77657200 
 4432              	.LASF82:
 4433 029f 72656761 		.ascii	"regarm_t\000"
 4433      726D5F74 
 4433      00
 4434              	.LASF65:
 4435 02a8 76745F70 		.ascii	"vt_prev\000"
 4435      72657600 
 4436              	.LASF133:
 4437 02b0 2F686F6D 		.ascii	"/home/taylor/Programming/VESC/firmware\000"
 4437      652F7461 
 4437      796C6F72 
 4437      2F50726F 
 4437      6772616D 
 4438              	.LASF104:
ARM GAS  /tmp/ccvWj7Xf.s 			page 81


 4439 02d7 6D757465 		.ascii	"mutex_t\000"
 4439      785F7400 
 4440              	.LASF109:
 4441 02df 76616C75 		.ascii	"value\000"
 4441      6500
 4442              	.LASF80:
 4443 02e5 69646C65 		.ascii	"idle_thread_wa\000"
 4443      5F746872 
 4443      6561645F 
 4443      776100
 4444              	.LASF116:
 4445 02f4 63685365 		.ascii	"chSemObjectInit\000"
 4445      6D4F626A 
 4445      65637449 
 4445      6E697400 
 4446              	.LASF25:
 4447 0304 636E745F 		.ascii	"cnt_t\000"
 4447      7400
 4448              	.LASF0:
 4449 030a 756E7369 		.ascii	"unsigned int\000"
 4449      676E6564 
 4449      20696E74 
 4449      00
 4450              	.LASF123:
 4451 0317 63685365 		.ascii	"chSemWaitTimeout\000"
 4451      6D576169 
 4451      7454696D 
 4451      656F7574 
 4451      00
 4452              	.LASF64:
 4453 0328 76745F6E 		.ascii	"vt_next\000"
 4453      65787400 
 4454              	.LASF39:
 4455 0330 705F7469 		.ascii	"p_time\000"
 4455      6D6500
 4456              	.LASF92:
 4457 0337 77747365 		.ascii	"wtsemp\000"
 4457      6D7000
 4458              	.LASF66:
 4459 033e 76745F64 		.ascii	"vt_delta\000"
 4459      656C7461 
 4459      00
 4460              	.LASF41:
 4461 0347 705F6D73 		.ascii	"p_msgqueue\000"
 4461      67717565 
 4461      756500
 4462              	.LASF118:
 4463 0352 63685365 		.ascii	"chSemReset\000"
 4463      6D526573 
 4463      657400
 4464              	.LASF97:
 4465 035d 735F636E 		.ascii	"s_cnt\000"
 4465      7400
 4466              	.LASF4:
 4467 0363 73686F72 		.ascii	"short unsigned int\000"
 4467      7420756E 
 4467      7369676E 
ARM GAS  /tmp/ccvWj7Xf.s 			page 82


 4467      65642069 
 4467      6E7400
 4468              	.LASF49:
 4469 0376 63685F74 		.ascii	"ch_thread\000"
 4469      68726561 
 4469      6400
 4470              	.LASF136:
 4471 0380 63685363 		.ascii	"chSchWakeupS\000"
 4471      6857616B 
 4471      65757053 
 4471      00
 4472              	.LASF23:
 4473 038d 6D73675F 		.ascii	"msg_t\000"
 4473      7400
 4474              	.LASF75:
 4475 0393 63685F73 		.ascii	"ch_system_t\000"
 4475      79737465 
 4475      6D5F7400 
 4476              	.LASF18:
 4477 039f 746D6F64 		.ascii	"tmode_t\000"
 4477      655F7400 
 4478              	.LASF54:
 4479 03a7 63685F72 		.ascii	"ch_ready_list\000"
 4479      65616479 
 4479      5F6C6973 
 4479      7400
 4480              	.LASF24:
 4481 03b5 6576656E 		.ascii	"eventmask_t\000"
 4481      746D6173 
 4481      6B5F7400 
 4482              	.LASF6:
 4483 03c1 5F5F696E 		.ascii	"__int32_t\000"
 4483      7433325F 
 4483      7400
 4484              	.LASF69:
 4485 03cb 76697274 		.ascii	"virtual_timers_list_t\000"
 4485      75616C5F 
 4485      74696D65 
 4485      72735F6C 
 4485      6973745F 
 4486              	.LASF83:
 4487 03e1 73746B61 		.ascii	"stkalign_t\000"
 4487      6C69676E 
 4487      5F7400
 4488              	.LASF48:
 4489 03ec 74687265 		.ascii	"threads_list_t\000"
 4489      6164735F 
 4489      6C697374 
 4489      5F7400
 4490              	.LASF40:
 4491 03fb 705F7761 		.ascii	"p_waiting\000"
 4491      6974696E 
 4491      6700
 4492              	.LASF81:
 4493 0405 73697A65 		.ascii	"sizetype\000"
 4493      74797065 
 4493      00
ARM GAS  /tmp/ccvWj7Xf.s 			page 83


 4494              	.LASF47:
 4495 040e 74687265 		.ascii	"thread_reference_t\000"
 4495      61645F72 
 4495      65666572 
 4495      656E6365 
 4495      5F7400
 4496              	.LASF70:
 4497 0421 63685F76 		.ascii	"ch_virtual_timers_list\000"
 4497      69727475 
 4497      616C5F74 
 4497      696D6572 
 4497      735F6C69 
 4498              	.LASF110:
 4499 0438 63685379 		.ascii	"chSysLock\000"
 4499      734C6F63 
 4499      6B00
 4500              	.LASF33:
 4501 0442 705F6F6C 		.ascii	"p_older\000"
 4501      64657200 
 4502              	.LASF57:
 4503 044a 725F6374 		.ascii	"r_ctx\000"
 4503      7800
 4504              	.LASF87:
 4505 0450 746D5F63 		.ascii	"tm_calibration_t\000"
 4505      616C6962 
 4505      72617469 
 4505      6F6E5F74 
 4505      00
 4506              	.LASF101:
 4507 0461 6D5F6E65 		.ascii	"m_next\000"
 4507      787400
 4508              	.LASF122:
 4509 0468 74696D65 		.ascii	"time\000"
 4509      00
 4510              	.LASF60:
 4511 046d 725F6375 		.ascii	"r_current\000"
 4511      7272656E 
 4511      7400
 4512              	.LASF59:
 4513 0477 725F6F6C 		.ascii	"r_older\000"
 4513      64657200 
 4514              	.LASF11:
 4515 047f 5F5F7569 		.ascii	"__uint64_t\000"
 4515      6E743634 
 4515      5F7400
 4516              	.LASF20:
 4517 048a 74726566 		.ascii	"trefs_t\000"
 4517      735F7400 
 4518              	.LASF62:
 4519 0492 76697274 		.ascii	"virtual_timer_t\000"
 4519      75616C5F 
 4519      74696D65 
 4519      725F7400 
 4520              	.LASF29:
 4521 04a2 705F7072 		.ascii	"p_prev\000"
 4521      657600
 4522              	.LASF22:
ARM GAS  /tmp/ccvWj7Xf.s 			page 84


 4523 04a9 74707269 		.ascii	"tprio_t\000"
 4523      6F5F7400 
 4524              	.LASF73:
 4525 04b1 63685F73 		.ascii	"ch_system_debug\000"
 4525      79737465 
 4525      6D5F6465 
 4525      62756700 
 4526              	.LASF14:
 4527 04c1 696E7433 		.ascii	"int32_t\000"
 4527      325F7400 
 4528              	.LASF2:
 4529 04c9 756E7369 		.ascii	"unsigned char\000"
 4529      676E6564 
 4529      20636861 
 4529      7200
 4530              	.LASF44:
 4531 04d7 705F6D74 		.ascii	"p_mtxlist\000"
 4531      786C6973 
 4531      7400
 4532              	.LASF3:
 4533 04e1 73686F72 		.ascii	"short int\000"
 4533      7420696E 
 4533      7400
 4534              	.LASF35:
 4535 04eb 705F7374 		.ascii	"p_state\000"
 4535      61746500 
 4536              	.LASF38:
 4537 04f3 705F7072 		.ascii	"p_preempt\000"
 4537      65656D70 
 4537      7400
 4538              	.LASF56:
 4539 04fd 725F7072 		.ascii	"r_prio\000"
 4539      696F00
 4540              	.LASF94:
 4541 0504 65776D61 		.ascii	"ewmask\000"
 4541      736B00
 4542              	.LASF28:
 4543 050b 705F6E65 		.ascii	"p_next\000"
 4543      787400
 4544              	.LASF36:
 4545 0512 705F666C 		.ascii	"p_flags\000"
 4545      61677300 
 4546              	.LASF112:
 4547 051a 5F5F6675 		.ascii	"__func__\000"
 4547      6E635F5F 
 4547      00
 4548              	.LASF119:
 4549 0523 63685365 		.ascii	"chSemWaitS\000"
 4549      6D576169 
 4549      745300
 4550              	.LASF103:
 4551 052e 73656D61 		.ascii	"semaphore_t\000"
 4551      70686F72 
 4551      655F7400 
 4552              	.LASF63:
 4553 053a 63685F76 		.ascii	"ch_virtual_timer\000"
 4553      69727475 
ARM GAS  /tmp/ccvWj7Xf.s 			page 85


 4553      616C5F74 
 4553      696D6572 
 4553      00
 4554              	.LASF95:
 4555 054b 63685F73 		.ascii	"ch_semaphore\000"
 4555      656D6170 
 4555      686F7265 
 4555      00
 4556              	.LASF135:
 4557 0558 63685363 		.ascii	"chSchGoSleepS\000"
 4557      68476F53 
 4557      6C656570 
 4557      5300
 4558              	.LASF43:
 4559 0566 705F6570 		.ascii	"p_epending\000"
 4559      656E6469 
 4559      6E6700
 4560              	.LASF15:
 4561 0571 75696E74 		.ascii	"uint32_t\000"
 4561      33325F74 
 4561      00
 4562              	.LASF93:
 4563 057a 77746D74 		.ascii	"wtmtxp\000"
 4563      787000
 4564              	.LASF55:
 4565 0581 725F7175 		.ascii	"r_queue\000"
 4565      65756500 
 4566              	.LASF129:
 4567 0589 63685363 		.ascii	"chSchReadyI\000"
 4567      68526561 
 4567      64794900 
 4568              	.LASF50:
 4569 0595 63685F74 		.ascii	"ch_threads_list\000"
 4569      68726561 
 4569      64735F6C 
 4569      69737400 
 4570              	.LASF9:
 4571 05a5 6C6F6E67 		.ascii	"long unsigned int\000"
 4571      20756E73 
 4571      69676E65 
 4571      6420696E 
 4571      7400
 4572              	.LASF102:
 4573 05b7 63686172 		.ascii	"char\000"
 4573      00
 4574              	.LASF121:
 4575 05bc 63685365 		.ascii	"chSemWaitTimeoutS\000"
 4575      6D576169 
 4575      7454696D 
 4575      656F7574 
 4575      5300
 4576              	.LASF27:
 4577 05ce 74687265 		.ascii	"thread_t\000"
 4577      61645F74 
 4577      00
 4578              	.LASF115:
 4579 05d7 71756575 		.ascii	"queue_fifo_remove\000"
ARM GAS  /tmp/ccvWj7Xf.s 			page 86


 4579      655F6669 
 4579      666F5F72 
 4579      656D6F76 
 4579      6500
 4580              	.LASF26:
 4581 05e9 73797374 		.ascii	"systime_t\000"
 4581      696D655F 
 4581      7400
 4582              	.LASF45:
 4583 05f3 705F7265 		.ascii	"p_realprio\000"
 4583      616C7072 
 4583      696F00
 4584              	.LASF61:
 4585 05fe 76746675 		.ascii	"vtfunc_t\000"
 4585      6E635F74 
 4585      00
 4586              	.LASF8:
 4587 0607 5F5F7569 		.ascii	"__uint32_t\000"
 4587      6E743332 
 4587      5F7400
 4588              	.LASF107:
 4589 0612 5F5F7365 		.ascii	"__set_BASEPRI\000"
 4589      745F4241 
 4589      53455052 
 4589      4900
 4590              	.LASF120:
 4591 0620 63685365 		.ascii	"chSemWait\000"
 4591      6D576169 
 4591      7400
 4592              	.LASF74:
 4593 062a 70616E69 		.ascii	"panic_msg\000"
 4593      635F6D73 
 4593      6700
 4594              	.LASF86:
 4595 0634 6F666673 		.ascii	"offset\000"
 4595      657400
 4596              	.LASF84:
 4597 063b 636F6E74 		.ascii	"context\000"
 4597      65787400 
 4598              	.LASF17:
 4599 0643 7274636E 		.ascii	"rtcnt_t\000"
 4599      745F7400 
 4600              	.LASF68:
 4601 064b 76745F70 		.ascii	"vt_par\000"
 4601      617200
 4602              	.LASF51:
 4603 0652 74687265 		.ascii	"threads_queue_t\000"
 4603      6164735F 
 4603      71756575 
 4603      655F7400 
 4604              	.LASF98:
 4605 0662 63685F6D 		.ascii	"ch_mutex\000"
 4605      75746578 
 4605      00
 4606              	.LASF37:
 4607 066b 705F7265 		.ascii	"p_refs\000"
 4607      667300
ARM GAS  /tmp/ccvWj7Xf.s 			page 87


 4608              	.LASF125:
 4609 0672 63685365 		.ascii	"chSemSignalI\000"
 4609      6D536967 
 4609      6E616C49 
 4609      00
 4610              	.LASF117:
 4611 067f 63685365 		.ascii	"chSemResetI\000"
 4611      6D526573 
 4611      65744900 
 4612              	.LASF77:
 4613 068b 726C6973 		.ascii	"rlist\000"
 4613      7400
 4614              	.LASF13:
 4615 0691 75696E74 		.ascii	"uint8_t\000"
 4615      385F7400 
 4616              	.LASF90:
 4617 0699 77746F62 		.ascii	"wtobjp\000"
 4617      6A7000
 4618              	.LASF34:
 4619 06a0 705F6E61 		.ascii	"p_name\000"
 4619      6D6500
 4620              	.LASF71:
 4621 06a7 76745F73 		.ascii	"vt_systime\000"
 4621      79737469 
 4621      6D6500
 4622              	.LASF130:
 4623 06b2 63685363 		.ascii	"chSchGoSleepTimeoutS\000"
 4623      68476F53 
 4623      6C656570 
 4623      54696D65 
 4623      6F757453 
 4624              	.LASF111:
 4625 06c7 63685379 		.ascii	"chSysUnlock\000"
 4625      73556E6C 
 4625      6F636B00 
 4626              	.LASF42:
 4627 06d3 705F6D73 		.ascii	"p_msg\000"
 4627      6700
 4628              	.LASF100:
 4629 06d9 6D5F6F77 		.ascii	"m_owner\000"
 4629      6E657200 
 4630              	.LASF31:
 4631 06e1 705F6374 		.ascii	"p_ctx\000"
 4631      7800
 4632              	.LASF67:
 4633 06e7 76745F66 		.ascii	"vt_func\000"
 4633      756E6300 
 4634              		.ident	"GCC: (4.8.4-1+11-1) 4.8.4 20141219 (release)"
ARM GAS  /tmp/ccvWj7Xf.s 			page 88


DEFINED SYMBOLS
                            *ABS*:0000000000000000 chsem.c
     /tmp/ccvWj7Xf.s:21     .text.chSemObjectInit:0000000000000000 $t
     /tmp/ccvWj7Xf.s:27     .text.chSemObjectInit:0000000000000000 chSemObjectInit
     /tmp/ccvWj7Xf.s:52     .text.chSemResetI:0000000000000000 $t
     /tmp/ccvWj7Xf.s:58     .text.chSemResetI:0000000000000000 chSemResetI
     /tmp/ccvWj7Xf.s:119    .text.chSemReset:0000000000000000 $t
     /tmp/ccvWj7Xf.s:125    .text.chSemReset:0000000000000000 chSemReset
     /tmp/ccvWj7Xf.s:178    .text.chSemWaitS:0000000000000000 $t
     /tmp/ccvWj7Xf.s:184    .text.chSemWaitS:0000000000000000 chSemWaitS
     /tmp/ccvWj7Xf.s:248    .text.chSemWaitS:0000000000000030 $d
     /tmp/ccvWj7Xf.s:253    .text.chSemWait:0000000000000000 $t
     /tmp/ccvWj7Xf.s:259    .text.chSemWait:0000000000000000 chSemWait
     /tmp/ccvWj7Xf.s:309    .text.chSemWaitTimeoutS:0000000000000000 $t
     /tmp/ccvWj7Xf.s:315    .text.chSemWaitTimeoutS:0000000000000000 chSemWaitTimeoutS
     /tmp/ccvWj7Xf.s:383    .text.chSemWaitTimeoutS:000000000000003c $d
     /tmp/ccvWj7Xf.s:388    .text.chSemWaitTimeout:0000000000000000 $t
     /tmp/ccvWj7Xf.s:394    .text.chSemWaitTimeout:0000000000000000 chSemWaitTimeout
     /tmp/ccvWj7Xf.s:444    .text.chSemSignal:0000000000000000 $t
     /tmp/ccvWj7Xf.s:450    .text.chSemSignal:0000000000000000 chSemSignal
     /tmp/ccvWj7Xf.s:554    .text.chSemSignalI:0000000000000000 $t
     /tmp/ccvWj7Xf.s:560    .text.chSemSignalI:0000000000000000 chSemSignalI
     /tmp/ccvWj7Xf.s:609    .text.chSemAddCounterI:0000000000000000 $t
     /tmp/ccvWj7Xf.s:615    .text.chSemAddCounterI:0000000000000000 chSemAddCounterI
     /tmp/ccvWj7Xf.s:682    .text.chSemSignalWait:0000000000000000 $t
     /tmp/ccvWj7Xf.s:688    .text.chSemSignalWait:0000000000000000 chSemSignalWait
     /tmp/ccvWj7Xf.s:836    .text.chSemSignalWait:0000000000000068 $d
                     .debug_frame:0000000000000010 $d
     /tmp/ccvWj7Xf.s:252    .text.chSemWaitS:0000000000000034 $t
     /tmp/ccvWj7Xf.s:840    .text.chSemSignalWait:000000000000006c $t

UNDEFINED SYMBOLS
chSchReadyI
chSchRescheduleS
chSchGoSleepS
ch
chSchGoSleepTimeoutS
chSchWakeupS
