ARM GAS  /tmp/ccvWj7Xf.s 			page 1


   1              		.syntax unified
   2              		.cpu cortex-m4
   3              		.eabi_attribute 27, 3
   4              		.eabi_attribute 28, 1
   5              		.fpu fpv4-sp-d16
   6              		.eabi_attribute 20, 1
   7              		.eabi_attribute 21, 1
   8              		.eabi_attribute 23, 3
   9              		.eabi_attribute 24, 1
  10              		.eabi_attribute 25, 1
  11              		.eabi_attribute 26, 1
  12              		.eabi_attribute 30, 2
  13              		.eabi_attribute 34, 1
  14              		.eabi_attribute 18, 4
  15              		.thumb
  16              		.file	"chsem.c"
  17              		.text
  18              	.Ltext0:
  19              		.cfi_sections	.debug_frame
  20              		.section	.text.chSemObjectInit,"ax",%progbits
  21              		.align	2
  22              		.p2align 4,,15
  23              		.global	chSemObjectInit
  24              		.thumb
  25              		.thumb_func
  26              		.type	chSemObjectInit, %function
  27              	chSemObjectInit:
  28              	.LFB219:
  29              		.file 1 "ChibiOS_3.0.2/os/rt/src/chsem.c"
  30              		.loc 1 97 0
  31              		.cfi_startproc
  32              		@ args = 0, pretend = 0, frame = 0
  33              		@ frame_needed = 0, uses_anonymous_args = 0
  34              		@ link register save eliminated.
  35              	.LVL0:
  36              	.LBB84:
  37              	.LBB85:
  38              		.file 2 "ChibiOS_3.0.2/os/rt/include/chschd.h"
  39              		.loc 2 604 0
  40 0000 0060     		str	r0, [r0]
  41              		.loc 2 605 0
  42 0002 4060     		str	r0, [r0, #4]
  43              	.LBE85:
  44              	.LBE84:
  45              		.loc 1 102 0
  46 0004 8160     		str	r1, [r0, #8]
  47 0006 7047     		bx	lr
  48              		.cfi_endproc
  49              	.LFE219:
  50              		.size	chSemObjectInit, .-chSemObjectInit
  51 0008 AFF30080 		.section	.text.chSemResetI,"ax",%progbits
  51      AFF30080 
  52              		.align	2
  53              		.p2align 4,,15
  54              		.global	chSemResetI
  55              		.thumb
  56              		.thumb_func
ARM GAS  /tmp/ccvWj7Xf.s 			page 2


  57              		.type	chSemResetI, %function
  58              	chSemResetI:
  59              	.LFB221:
  60              		.loc 1 147 0
  61              		.cfi_startproc
  62              		@ args = 0, pretend = 0, frame = 0
  63              		@ frame_needed = 0, uses_anonymous_args = 0
  64              	.LVL1:
  65 0000 70B5     		push	{r4, r5, r6, lr}
  66              		.cfi_def_cfa_offset 16
  67              		.cfi_offset 4, -16
  68              		.cfi_offset 5, -12
  69              		.cfi_offset 6, -8
  70              		.cfi_offset 14, -4
  71              		.loc 1 156 0
  72 0002 8568     		ldr	r5, [r0, #8]
  73              	.LVL2:
  74              		.loc 1 157 0
  75 0004 8160     		str	r1, [r0, #8]
  76              		.loc 1 158 0
  77 0006 0135     		adds	r5, r5, #1
  78              	.LVL3:
  79 0008 002D     		cmp	r5, #0
  80              		.loc 1 147 0
  81 000a 0446     		mov	r4, r0
  82              		.loc 1 158 0
  83 000c 0BDC     		bgt	.L2
  84              		.loc 1 159 0
  85 000e 6FF00106 		mvn	r6, #1
  86              	.LVL4:
  87              	.L5:
  88              	.LBB86:
  89              	.LBB87:
  90              		.loc 2 681 0
  91 0012 6068     		ldr	r0, [r4, #4]
  92              	.LVL5:
  93              		.loc 2 683 0
  94 0014 4368     		ldr	r3, [r0, #4]
  95 0016 6360     		str	r3, [r4, #4]
  96              		.loc 2 684 0
  97 0018 1C60     		str	r4, [r3]
  98              	.LBE87:
  99              	.LBE86:
 100              		.loc 1 159 0
 101 001a FFF7FEFF 		bl	chSchReadyI
 102              	.LVL6:
 103              		.loc 1 158 0
 104 001e 0135     		adds	r5, r5, #1
 105              	.LVL7:
 106 0020 012D     		cmp	r5, #1
 107              		.loc 1 159 0
 108 0022 4662     		str	r6, [r0, #36]
 109              	.LVL8:
 110              		.loc 1 158 0
 111 0024 F5D1     		bne	.L5
 112              	.LVL9:
 113              	.L2:
ARM GAS  /tmp/ccvWj7Xf.s 			page 3


 114 0026 70BD     		pop	{r4, r5, r6, pc}
 115              		.cfi_endproc
 116              	.LFE221:
 117              		.size	chSemResetI, .-chSemResetI
 118 0028 AFF30080 		.section	.text.chSemReset,"ax",%progbits
 118      AFF30080 
 119              		.align	2
 120              		.p2align 4,,15
 121              		.global	chSemReset
 122              		.thumb
 123              		.thumb_func
 124              		.type	chSemReset, %function
 125              	chSemReset:
 126              	.LFB220:
 127              		.loc 1 120 0
 128              		.cfi_startproc
 129              		@ args = 0, pretend = 0, frame = 0
 130              		@ frame_needed = 0, uses_anonymous_args = 0
 131              	.LVL10:
 132 0000 08B5     		push	{r3, lr}
 133              		.cfi_def_cfa_offset 8
 134              		.cfi_offset 3, -8
 135              		.cfi_offset 14, -4
 136              	.LBB88:
 137              	.LBB89:
 138              	.LBB90:
 139              	.LBB91:
 140              		.file 3 "ChibiOS_3.0.2/os/ext/CMSIS/include/core_cmFunc.h"
 141              		.loc 3 546 0
 142 0002 2023     		movs	r3, #32
 143              	@ 546 "ChibiOS_3.0.2/os/ext/CMSIS/include/core_cmFunc.h" 1
 144 0004 83F31188 		MSR basepri, r3
 145              	@ 0 "" 2
 146              		.thumb
 147              	.LBE91:
 148              	.LBE90:
 149              	.LBE89:
 150              	.LBE88:
 151              		.loc 1 123 0
 152 0008 FFF7FEFF 		bl	chSemResetI
 153              	.LVL11:
 154              		.loc 1 124 0
 155 000c FFF7FEFF 		bl	chSchRescheduleS
 156              	.LVL12:
 157              	.LBB92:
 158              	.LBB93:
 159              	.LBB94:
 160              	.LBB95:
 161              	.LBB96:
 162              		.loc 3 546 0
 163 0010 0023     		movs	r3, #0
 164              	@ 546 "ChibiOS_3.0.2/os/ext/CMSIS/include/core_cmFunc.h" 1
 165 0012 83F31188 		MSR basepri, r3
 166              	@ 0 "" 2
 167              		.thumb
 168 0016 08BD     		pop	{r3, pc}
 169              	.LBE96:
ARM GAS  /tmp/ccvWj7Xf.s 			page 4


 170              	.LBE95:
 171              	.LBE94:
 172              	.LBE93:
 173              	.LBE92:
 174              		.cfi_endproc
 175              	.LFE220:
 176              		.size	chSemReset, .-chSemReset
 177 0018 AFF30080 		.section	.text.chSemWaitS,"ax",%progbits
 177      AFF30080 
 178              		.align	2
 179              		.p2align 4,,15
 180              		.global	chSemWaitS
 181              		.thumb
 182              		.thumb_func
 183              		.type	chSemWaitS, %function
 184              	chSemWaitS:
 185              	.LFB223:
 186              		.loc 1 197 0
 187              		.cfi_startproc
 188              		@ args = 0, pretend = 0, frame = 0
 189              		@ frame_needed = 0, uses_anonymous_args = 0
 190              	.LVL13:
 191              		.loc 1 205 0
 192 0000 8268     		ldr	r2, [r0, #8]
 193 0002 013A     		subs	r2, r2, #1
 194 0004 002A     		cmp	r2, #0
 195              		.loc 1 197 0
 196 0006 10B5     		push	{r4, lr}
 197              		.cfi_def_cfa_offset 8
 198              		.cfi_offset 4, -8
 199              		.cfi_offset 14, -4
 200              		.loc 1 197 0
 201 0008 0346     		mov	r3, r0
 202              		.loc 1 205 0
 203 000a 8260     		str	r2, [r0, #8]
 204 000c 01DB     		blt	.L14
 205              		.loc 1 213 0
 206 000e 0020     		movs	r0, #0
 207              	.LVL14:
 208              		.loc 1 214 0
 209 0010 10BD     		pop	{r4, pc}
 210              	.LVL15:
 211              	.L14:
 212              		.loc 1 206 0
 213 0012 074C     		ldr	r4, .L15
 214 0014 A269     		ldr	r2, [r4, #24]
 215 0016 5062     		str	r0, [r2, #36]
 216              	.LVL16:
 217              	.LBB97:
 218              	.LBB98:
 219              		.loc 2 666 0
 220 0018 4168     		ldr	r1, [r0, #4]
 221 001a 5160     		str	r1, [r2, #4]
 222              		.loc 2 665 0
 223 001c 1060     		str	r0, [r2]
 224              		.loc 2 667 0
 225 001e 0A60     		str	r2, [r1]
ARM GAS  /tmp/ccvWj7Xf.s 			page 5


 226              	.LBE98:
 227              	.LBE97:
 228              		.loc 1 208 0
 229 0020 0520     		movs	r0, #5
 230              	.LVL17:
 231              	.LBB100:
 232              	.LBB99:
 233              		.loc 2 668 0
 234 0022 5A60     		str	r2, [r3, #4]
 235              	.LVL18:
 236              	.LBE99:
 237              	.LBE100:
 238              		.loc 1 208 0
 239 0024 FFF7FEFF 		bl	chSchGoSleepS
 240              	.LVL19:
 241              		.loc 1 210 0
 242 0028 A369     		ldr	r3, [r4, #24]
 243 002a 586A     		ldr	r0, [r3, #36]
 244 002c 10BD     		pop	{r4, pc}
 245              	.L16:
 246 002e 00BF     		.align	2
 247              	.L15:
 248 0030 00000000 		.word	ch
 249              		.cfi_endproc
 250              	.LFE223:
 251              		.size	chSemWaitS, .-chSemWaitS
 252 0034 AFF30080 		.section	.text.chSemWait,"ax",%progbits
 252      AFF30080 
 252      AFF30080 
 253              		.align	2
 254              		.p2align 4,,15
 255              		.global	chSemWait
 256              		.thumb
 257              		.thumb_func
 258              		.type	chSemWait, %function
 259              	chSemWait:
 260              	.LFB222:
 261              		.loc 1 175 0
 262              		.cfi_startproc
 263              		@ args = 0, pretend = 0, frame = 0
 264              		@ frame_needed = 0, uses_anonymous_args = 0
 265              	.LVL20:
 266 0000 08B5     		push	{r3, lr}
 267              		.cfi_def_cfa_offset 8
 268              		.cfi_offset 3, -8
 269              		.cfi_offset 14, -4
 270              	.LBB101:
 271              	.LBB102:
 272              	.LBB103:
 273              	.LBB104:
 274              		.loc 3 546 0
 275 0002 2023     		movs	r3, #32
 276              	@ 546 "ChibiOS_3.0.2/os/ext/CMSIS/include/core_cmFunc.h" 1
 277 0004 83F31188 		MSR basepri, r3
 278              	@ 0 "" 2
 279              		.thumb
 280              	.LBE104:
ARM GAS  /tmp/ccvWj7Xf.s 			page 6


 281              	.LBE103:
 282              	.LBE102:
 283              	.LBE101:
 284              		.loc 1 179 0
 285 0008 FFF7FEFF 		bl	chSemWaitS
 286              	.LVL21:
 287              	.LBB105:
 288              	.LBB106:
 289              	.LBB107:
 290              	.LBB108:
 291              	.LBB109:
 292              		.loc 3 546 0
 293 000c 0023     		movs	r3, #0
 294              	@ 546 "ChibiOS_3.0.2/os/ext/CMSIS/include/core_cmFunc.h" 1
 295 000e 83F31188 		MSR basepri, r3
 296              	@ 0 "" 2
 297              		.thumb
 298              	.LBE109:
 299              	.LBE108:
 300              	.LBE107:
 301              	.LBE106:
 302              	.LBE105:
 303              		.loc 1 183 0
 304 0012 08BD     		pop	{r3, pc}
 305              		.cfi_endproc
 306              	.LFE222:
 307              		.size	chSemWait, .-chSemWait
 308 0014 AFF30080 		.section	.text.chSemWaitTimeoutS,"ax",%progbits
 308      AFF30080 
 308      AFF30080 
 309              		.align	2
 310              		.p2align 4,,15
 311              		.global	chSemWaitTimeoutS
 312              		.thumb
 313              		.thumb_func
 314              		.type	chSemWaitTimeoutS, %function
 315              	chSemWaitTimeoutS:
 316              	.LFB225:
 317              		.loc 1 264 0
 318              		.cfi_startproc
 319              		@ args = 0, pretend = 0, frame = 0
 320              		@ frame_needed = 0, uses_anonymous_args = 0
 321              		@ link register save eliminated.
 322              	.LVL22:
 323 0000 0346     		mov	r3, r0
 324              		.loc 1 272 0
 325 0002 8068     		ldr	r0, [r0, #8]
 326              	.LVL23:
 327 0004 421E     		subs	r2, r0, #1
 328 0006 002A     		cmp	r2, #0
 329              		.loc 1 264 0
 330 0008 10B4     		push	{r4}
 331              		.cfi_def_cfa_offset 4
 332              		.cfi_offset 4, -4
 333              		.loc 1 272 0
 334 000a 9A60     		str	r2, [r3, #8]
 335 000c 03DB     		blt	.L22
ARM GAS  /tmp/ccvWj7Xf.s 			page 7


 336              		.loc 1 284 0
 337 000e 0020     		movs	r0, #0
 338              	.L19:
 339              		.loc 1 285 0
 340 0010 5DF8044B 		ldr	r4, [sp], #4
 341 0014 7047     		bx	lr
 342              	.L22:
 343              		.loc 1 273 0
 344 0016 61B1     		cbz	r1, .L23
 345              		.loc 1 278 0
 346 0018 084A     		ldr	r2, .L24
 347 001a 9269     		ldr	r2, [r2, #24]
 348 001c 5362     		str	r3, [r2, #36]
 349              	.LVL24:
 350              	.LBB110:
 351              	.LBB111:
 352              		.loc 2 666 0
 353 001e 5C68     		ldr	r4, [r3, #4]
 354              	.LBE111:
 355              	.LBE110:
 356              		.loc 1 281 0
 357 0020 0520     		movs	r0, #5
 358              	.LBB113:
 359              	.LBB112:
 360              		.loc 2 666 0
 361 0022 82E81800 		stmia	r2, {r3, r4}
 362              		.loc 2 667 0
 363 0026 2260     		str	r2, [r4]
 364              		.loc 2 668 0
 365 0028 5A60     		str	r2, [r3, #4]
 366              	.LVL25:
 367              	.LBE112:
 368              	.LBE113:
 369              		.loc 1 285 0
 370 002a 5DF8044B 		ldr	r4, [sp], #4
 371              		.loc 1 281 0
 372 002e FFF7FEBF 		b	chSchGoSleepTimeoutS
 373              	.LVL26:
 374              	.L23:
 375              		.loc 1 274 0
 376 0032 9860     		str	r0, [r3, #8]
 377              		.loc 1 276 0
 378 0034 4FF0FF30 		mov	r0, #-1
 379 0038 EAE7     		b	.L19
 380              	.L25:
 381 003a 00BF     		.align	2
 382              	.L24:
 383 003c 00000000 		.word	ch
 384              		.cfi_endproc
 385              	.LFE225:
 386              		.size	chSemWaitTimeoutS, .-chSemWaitTimeoutS
 387              		.section	.text.chSemWaitTimeout,"ax",%progbits
 388              		.align	2
 389              		.p2align 4,,15
 390              		.global	chSemWaitTimeout
 391              		.thumb
 392              		.thumb_func
ARM GAS  /tmp/ccvWj7Xf.s 			page 8


 393              		.type	chSemWaitTimeout, %function
 394              	chSemWaitTimeout:
 395              	.LFB224:
 396              		.loc 1 235 0
 397              		.cfi_startproc
 398              		@ args = 0, pretend = 0, frame = 0
 399              		@ frame_needed = 0, uses_anonymous_args = 0
 400              	.LVL27:
 401 0000 08B5     		push	{r3, lr}
 402              		.cfi_def_cfa_offset 8
 403              		.cfi_offset 3, -8
 404              		.cfi_offset 14, -4
 405              	.LBB114:
 406              	.LBB115:
 407              	.LBB116:
 408              	.LBB117:
 409              		.loc 3 546 0
 410 0002 2023     		movs	r3, #32
 411              	@ 546 "ChibiOS_3.0.2/os/ext/CMSIS/include/core_cmFunc.h" 1
 412 0004 83F31188 		MSR basepri, r3
 413              	@ 0 "" 2
 414              		.thumb
 415              	.LBE117:
 416              	.LBE116:
 417              	.LBE115:
 418              	.LBE114:
 419              		.loc 1 239 0
 420 0008 FFF7FEFF 		bl	chSemWaitTimeoutS
 421              	.LVL28:
 422              	.LBB118:
 423              	.LBB119:
 424              	.LBB120:
 425              	.LBB121:
 426              	.LBB122:
 427              		.loc 3 546 0
 428 000c 0023     		movs	r3, #0
 429              	@ 546 "ChibiOS_3.0.2/os/ext/CMSIS/include/core_cmFunc.h" 1
 430 000e 83F31188 		MSR basepri, r3
 431              	@ 0 "" 2
 432              		.thumb
 433              	.LBE122:
 434              	.LBE121:
 435              	.LBE120:
 436              	.LBE119:
 437              	.LBE118:
 438              		.loc 1 243 0
 439 0012 08BD     		pop	{r3, pc}
 440              		.cfi_endproc
 441              	.LFE224:
 442              		.size	chSemWaitTimeout, .-chSemWaitTimeout
 443 0014 AFF30080 		.section	.text.chSemSignal,"ax",%progbits
 443      AFF30080 
 443      AFF30080 
 444              		.align	2
 445              		.p2align 4,,15
 446              		.global	chSemSignal
 447              		.thumb
ARM GAS  /tmp/ccvWj7Xf.s 			page 9


 448              		.thumb_func
 449              		.type	chSemSignal, %function
 450              	chSemSignal:
 451              	.LFB226:
 452              		.loc 1 294 0
 453              		.cfi_startproc
 454              		@ args = 0, pretend = 0, frame = 0
 455              		@ frame_needed = 0, uses_anonymous_args = 0
 456              	.LVL29:
 457 0000 08B5     		push	{r3, lr}
 458              		.cfi_def_cfa_offset 8
 459              		.cfi_offset 3, -8
 460              		.cfi_offset 14, -4
 461              	.LBB123:
 462              	.LBB124:
 463              	.LBB125:
 464              	.LBB126:
 465              		.loc 3 546 0
 466 0002 2022     		movs	r2, #32
 467              	.LBE126:
 468              	.LBE125:
 469              	.LBE124:
 470              	.LBE123:
 471              		.loc 1 294 0
 472 0004 0346     		mov	r3, r0
 473              	.LBB130:
 474              	.LBB129:
 475              	.LBB128:
 476              	.LBB127:
 477              		.loc 3 546 0
 478              	@ 546 "ChibiOS_3.0.2/os/ext/CMSIS/include/core_cmFunc.h" 1
 479 0006 82F31188 		MSR basepri, r2
 480              	@ 0 "" 2
 481              		.thumb
 482              	.LBE127:
 483              	.LBE128:
 484              	.LBE129:
 485              	.LBE130:
 486              		.loc 1 302 0
 487 000a 8268     		ldr	r2, [r0, #8]
 488 000c 0132     		adds	r2, r2, #1
 489 000e 002A     		cmp	r2, #0
 490 0010 8260     		str	r2, [r0, #8]
 491 0012 03DD     		ble	.L29
 492              	.LVL30:
 493              	.LBB131:
 494              	.LBB132:
 495              	.LBB133:
 496              	.LBB134:
 497              	.LBB135:
 498              		.loc 3 546 0
 499 0014 0023     		movs	r3, #0
 500              	@ 546 "ChibiOS_3.0.2/os/ext/CMSIS/include/core_cmFunc.h" 1
 501 0016 83F31188 		MSR basepri, r3
 502              	@ 0 "" 2
 503              		.thumb
 504 001a 08BD     		pop	{r3, pc}
ARM GAS  /tmp/ccvWj7Xf.s 			page 10


 505              	.LVL31:
 506              	.L29:
 507              	.LBE135:
 508              	.LBE134:
 509              	.LBE133:
 510              	.LBE132:
 511              	.LBE131:
 512              	.LBB140:
 513              	.LBB141:
 514              		.loc 2 672 0
 515 001c 0068     		ldr	r0, [r0]
 516              	.LVL32:
 517              		.loc 2 674 0
 518 001e 0268     		ldr	r2, [r0]
 519 0020 1A60     		str	r2, [r3]
 520              	.LBE141:
 521              	.LBE140:
 522              		.loc 1 303 0
 523 0022 0021     		movs	r1, #0
 524              	.LBB143:
 525              	.LBB142:
 526              		.loc 2 675 0
 527 0024 5360     		str	r3, [r2, #4]
 528              	.LBE142:
 529              	.LBE143:
 530              		.loc 1 303 0
 531 0026 FFF7FEFF 		bl	chSchWakeupS
 532              	.LVL33:
 533              	.LBB144:
 534              	.LBB139:
 535              	.LBB138:
 536              	.LBB137:
 537              	.LBB136:
 538              		.loc 3 546 0
 539 002a 0023     		movs	r3, #0
 540              	@ 546 "ChibiOS_3.0.2/os/ext/CMSIS/include/core_cmFunc.h" 1
 541 002c 83F31188 		MSR basepri, r3
 542              	@ 0 "" 2
 543              		.thumb
 544 0030 08BD     		pop	{r3, pc}
 545              	.LBE136:
 546              	.LBE137:
 547              	.LBE138:
 548              	.LBE139:
 549              	.LBE144:
 550              		.cfi_endproc
 551              	.LFE226:
 552              		.size	chSemSignal, .-chSemSignal
 553 0032 00BFAFF3 		.section	.text.chSemSignalI,"ax",%progbits
 553      0080AFF3 
 553      0080AFF3 
 553      0080
 554              		.align	2
 555              		.p2align 4,,15
 556              		.global	chSemSignalI
 557              		.thumb
 558              		.thumb_func
ARM GAS  /tmp/ccvWj7Xf.s 			page 11


 559              		.type	chSemSignalI, %function
 560              	chSemSignalI:
 561              	.LFB227:
 562              		.loc 1 319 0
 563              		.cfi_startproc
 564              		@ args = 0, pretend = 0, frame = 0
 565              		@ frame_needed = 0, uses_anonymous_args = 0
 566              		@ link register save eliminated.
 567              	.LVL34:
 568              		.loc 1 327 0
 569 0000 8368     		ldr	r3, [r0, #8]
 570 0002 0133     		adds	r3, r3, #1
 571 0004 002B     		cmp	r3, #0
 572 0006 8360     		str	r3, [r0, #8]
 573 0008 00DD     		ble	.L32
 574 000a 7047     		bx	lr
 575              	.L32:
 576              	.LVL35:
 577              	.LBB145:
 578              	.LBB146:
 579              	.LBB147:
 580              		.loc 2 672 0
 581 000c 0368     		ldr	r3, [r0]
 582              	.LVL36:
 583              		.loc 2 674 0
 584 000e 1A68     		ldr	r2, [r3]
 585 0010 0260     		str	r2, [r0]
 586              	.LBE147:
 587              	.LBE146:
 588              		.loc 1 331 0
 589 0012 0021     		movs	r1, #0
 590              	.LBB149:
 591              	.LBB148:
 592              		.loc 2 675 0
 593 0014 5060     		str	r0, [r2, #4]
 594              	.LBE148:
 595              	.LBE149:
 596              		.loc 1 332 0
 597 0016 1846     		mov	r0, r3
 598              	.LVL37:
 599              		.loc 1 331 0
 600 0018 5962     		str	r1, [r3, #36]
 601              		.loc 1 332 0
 602 001a FFF7FEBF 		b	chSchReadyI
 603              	.LVL38:
 604              	.LBE145:
 605              		.cfi_endproc
 606              	.LFE227:
 607              		.size	chSemSignalI, .-chSemSignalI
 608 001e 00BF     		.section	.text.chSemAddCounterI,"ax",%progbits
 609              		.align	2
 610              		.p2align 4,,15
 611              		.global	chSemAddCounterI
 612              		.thumb
 613              		.thumb_func
 614              		.type	chSemAddCounterI, %function
 615              	chSemAddCounterI:
ARM GAS  /tmp/ccvWj7Xf.s 			page 12


 616              	.LFB228:
 617              		.loc 1 349 0
 618              		.cfi_startproc
 619              		@ args = 0, pretend = 0, frame = 0
 620              		@ frame_needed = 0, uses_anonymous_args = 0
 621              	.LVL39:
 622 0000 70B5     		push	{r4, r5, r6, lr}
 623              		.cfi_def_cfa_offset 16
 624              		.cfi_offset 4, -16
 625              		.cfi_offset 5, -12
 626              		.cfi_offset 6, -8
 627              		.cfi_offset 14, -4
 628              		.loc 1 357 0
 629 0002 0C1E     		subs	r4, r1, #0
 630              		.loc 1 349 0
 631 0004 0546     		mov	r5, r0
 632              		.loc 1 357 0
 633 0006 11DD     		ble	.L33
 634              		.loc 1 359 0
 635 0008 0026     		movs	r6, #0
 636 000a 01E0     		b	.L37
 637              	.LVL40:
 638              	.L35:
 639              		.loc 1 357 0
 640 000c 013C     		subs	r4, r4, #1
 641              	.LVL41:
 642 000e 0DD0     		beq	.L33
 643              	.LVL42:
 644              	.L37:
 645              		.loc 1 358 0
 646 0010 AB68     		ldr	r3, [r5, #8]
 647 0012 0133     		adds	r3, r3, #1
 648 0014 002B     		cmp	r3, #0
 649 0016 AB60     		str	r3, [r5, #8]
 650 0018 F8DC     		bgt	.L35
 651              	.LVL43:
 652              	.LBB150:
 653              	.LBB151:
 654              		.loc 2 672 0
 655 001a 2868     		ldr	r0, [r5]
 656              	.LVL44:
 657              		.loc 2 674 0
 658 001c 0368     		ldr	r3, [r0]
 659 001e 2B60     		str	r3, [r5]
 660              		.loc 2 675 0
 661 0020 5D60     		str	r5, [r3, #4]
 662              	.LBE151:
 663              	.LBE150:
 664              		.loc 1 359 0
 665 0022 FFF7FEFF 		bl	chSchReadyI
 666              	.LVL45:
 667              		.loc 1 357 0
 668 0026 013C     		subs	r4, r4, #1
 669              	.LVL46:
 670              		.loc 1 359 0
 671 0028 4662     		str	r6, [r0, #36]
 672              	.LVL47:
ARM GAS  /tmp/ccvWj7Xf.s 			page 13


 673              		.loc 1 357 0
 674 002a F1D1     		bne	.L37
 675              	.LVL48:
 676              	.L33:
 677 002c 70BD     		pop	{r4, r5, r6, pc}
 678              		.cfi_endproc
 679              	.LFE228:
 680              		.size	chSemAddCounterI, .-chSemAddCounterI
 681 002e 00BF     		.section	.text.chSemSignalWait,"ax",%progbits
 682              		.align	2
 683              		.p2align 4,,15
 684              		.global	chSemSignalWait
 685              		.thumb
 686              		.thumb_func
 687              		.type	chSemSignalWait, %function
 688              	chSemSignalWait:
 689              	.LFB229:
 690              		.loc 1 378 0
 691              		.cfi_startproc
 692              		@ args = 0, pretend = 0, frame = 8
 693              		@ frame_needed = 0, uses_anonymous_args = 0
 694              	.LVL49:
 695 0000 10B5     		push	{r4, lr}
 696              		.cfi_def_cfa_offset 8
 697              		.cfi_offset 4, -8
 698              		.cfi_offset 14, -4
 699 0002 0346     		mov	r3, r0
 700 0004 82B0     		sub	sp, sp, #8
 701              		.cfi_def_cfa_offset 16
 702              	.LBB152:
 703              	.LBB153:
 704              	.LBB154:
 705              	.LBB155:
 706              		.loc 3 546 0
 707 0006 2022     		movs	r2, #32
 708              	@ 546 "ChibiOS_3.0.2/os/ext/CMSIS/include/core_cmFunc.h" 1
 709 0008 82F31188 		MSR basepri, r2
 710              	@ 0 "" 2
 711              		.thumb
 712              	.LBE155:
 713              	.LBE154:
 714              	.LBE153:
 715              	.LBE152:
 716              		.loc 1 390 0
 717 000c 8268     		ldr	r2, [r0, #8]
 718 000e 0132     		adds	r2, r2, #1
 719 0010 002A     		cmp	r2, #0
 720 0012 8260     		str	r2, [r0, #8]
 721 0014 1DDD     		ble	.L45
 722              	.LVL50:
 723              	.L42:
 724              		.loc 1 393 0
 725 0016 8B68     		ldr	r3, [r1, #8]
 726 0018 013B     		subs	r3, r3, #1
 727 001a 002B     		cmp	r3, #0
 728 001c 8B60     		str	r3, [r1, #8]
 729 001e 07DB     		blt	.L46
ARM GAS  /tmp/ccvWj7Xf.s 			page 14


 730              		.loc 1 401 0
 731 0020 FFF7FEFF 		bl	chSchRescheduleS
 732              	.LVL51:
 733              		.loc 1 402 0
 734 0024 0020     		movs	r0, #0
 735              	.LVL52:
 736              	.LBB156:
 737              	.LBB157:
 738              	.LBB158:
 739              	.LBB159:
 740              	.LBB160:
 741              		.loc 3 546 0
 742 0026 0023     		movs	r3, #0
 743              	@ 546 "ChibiOS_3.0.2/os/ext/CMSIS/include/core_cmFunc.h" 1
 744 0028 83F31188 		MSR basepri, r3
 745              	@ 0 "" 2
 746              		.thumb
 747              	.LBE160:
 748              	.LBE159:
 749              	.LBE158:
 750              	.LBE157:
 751              	.LBE156:
 752              		.loc 1 407 0
 753 002c 02B0     		add	sp, sp, #8
 754              		@ sp needed
 755 002e 10BD     		pop	{r4, pc}
 756              	.LVL53:
 757              	.L46:
 758              	.LBB165:
 759              		.loc 1 394 0
 760 0030 0D4A     		ldr	r2, .L47
 761              	.LBB166:
 762              	.LBB167:
 763              		.loc 2 666 0
 764 0032 4B68     		ldr	r3, [r1, #4]
 765              	.LBE167:
 766              	.LBE166:
 767              		.loc 1 394 0
 768 0034 9469     		ldr	r4, [r2, #24]
 769              	.LVL54:
 770              		.loc 1 397 0
 771 0036 0520     		movs	r0, #5
 772              	.LBB169:
 773              	.LBB168:
 774              		.loc 2 666 0
 775 0038 84E80A00 		stmia	r4, {r1, r3}
 776              		.loc 2 667 0
 777 003c 1C60     		str	r4, [r3]
 778              		.loc 2 668 0
 779 003e 4C60     		str	r4, [r1, #4]
 780              	.LBE168:
 781              	.LBE169:
 782              		.loc 1 396 0
 783 0040 6162     		str	r1, [r4, #36]
 784              		.loc 1 397 0
 785 0042 FFF7FEFF 		bl	chSchGoSleepS
 786              	.LVL55:
ARM GAS  /tmp/ccvWj7Xf.s 			page 15


 787              		.loc 1 398 0
 788 0046 606A     		ldr	r0, [r4, #36]
 789              	.LVL56:
 790              	.LBE165:
 791              	.LBB170:
 792              	.LBB164:
 793              	.LBB163:
 794              	.LBB162:
 795              	.LBB161:
 796              		.loc 3 546 0
 797 0048 0023     		movs	r3, #0
 798              	@ 546 "ChibiOS_3.0.2/os/ext/CMSIS/include/core_cmFunc.h" 1
 799 004a 83F31188 		MSR basepri, r3
 800              	@ 0 "" 2
 801              		.thumb
 802              	.LBE161:
 803              	.LBE162:
 804              	.LBE163:
 805              	.LBE164:
 806              	.LBE170:
 807              		.loc 1 407 0
 808 004e 02B0     		add	sp, sp, #8
 809              		@ sp needed
 810 0050 10BD     		pop	{r4, pc}
 811              	.LVL57:
 812              	.L45:
 813              	.LBB171:
 814              	.LBB172:
 815              		.loc 2 672 0
 816 0052 0068     		ldr	r0, [r0]
 817              	.LVL58:
 818              		.loc 2 674 0
 819 0054 0268     		ldr	r2, [r0]
 820 0056 1A60     		str	r2, [r3]
 821              		.loc 2 675 0
 822 0058 5360     		str	r3, [r2, #4]
 823              	.LBE172:
 824              	.LBE171:
 825              		.loc 1 391 0
 826 005a 0191     		str	r1, [sp, #4]
 827 005c FFF7FEFF 		bl	chSchReadyI
 828              	.LVL59:
 829 0060 0023     		movs	r3, #0
 830 0062 4362     		str	r3, [r0, #36]
 831 0064 0199     		ldr	r1, [sp, #4]
 832 0066 D6E7     		b	.L42
 833              	.L48:
 834              		.align	2
 835              	.L47:
 836 0068 00000000 		.word	ch
 837              		.cfi_endproc
 838              	.LFE229:
 839              		.size	chSemSignalWait, .-chSemSignalWait
 840 006c AFF30080 		.text
 841              	.Letext0:
 842              		.file 4 "/usr/include/newlib/machine/_default_types.h"
 843              		.file 5 "/usr/include/newlib/stdint.h"
ARM GAS  /tmp/ccvWj7Xf.s 			page 16


 844              		.file 6 "ChibiOS_3.0.2/os/rt/ports/ARMCMx/compilers/GCC/chtypes.h"
 845              		.file 7 "ChibiOS_3.0.2/os/rt/include/chsystypes.h"
 846              		.file 8 "ChibiOS_3.0.2/os/rt/ports/ARMCMx/chcore.h"
 847              		.file 9 "ChibiOS_3.0.2/os/rt/ports/ARMCMx/chcore_v7m.h"
 848              		.file 10 "ChibiOS_3.0.2/os/rt/include/chtm.h"
 849              		.file 11 "ChibiOS_3.0.2/os/rt/include/chsem.h"
 850              		.file 12 "ChibiOS_3.0.2/os/rt/include/chmtx.h"
 851              		.file 13 "ChibiOS_3.0.2/os/rt/include/chsys.h"
 852              		.file 14 "ChibiOS_3.0.2/os/ext/CMSIS/include/core_cm4.h"