ARM GAS  /tmp/ccvwnF8z.s 			page 1


   1              		.syntax unified
   2              		.cpu cortex-m4
   3              		.eabi_attribute 27, 3
   4              		.eabi_attribute 28, 1
   5              		.fpu fpv4-sp-d16
   6              		.eabi_attribute 20, 1
   7              		.eabi_attribute 21, 1
   8              		.eabi_attribute 23, 3
   9              		.eabi_attribute 24, 1
  10              		.eabi_attribute 25, 1
  11              		.eabi_attribute 26, 1
  12              		.eabi_attribute 30, 2
  13              		.eabi_attribute 34, 1
  14              		.eabi_attribute 18, 4
  15              		.thumb
  16              		.file	"chsys.c"
  17              		.text
  18              	.Ltext0:
  19              		.cfi_sections	.debug_frame
  20              		.section	.text._idle_thread,"ax",%progbits
  21              		.align	2
  22              		.p2align 4,,15
  23              		.thumb
  24              		.thumb_func
  25              		.type	_idle_thread, %function
  26              	_idle_thread:
  27              	.LFB219:
  28              		.file 1 "ChibiOS_3.0.2/os/rt/src/chsys.c"
  29              		.loc 1 65 0
  30              		.cfi_startproc
  31              		@ Volatile: function does not return.
  32              		@ args = 0, pretend = 0, frame = 0
  33              		@ frame_needed = 0, uses_anonymous_args = 0
  34              		@ link register save eliminated.
  35              	.LVL0:
  36              	.L2:
  37 0000 FEE7     		b	.L2
  38              		.cfi_endproc
  39              	.LFE219:
  40              		.size	_idle_thread, .-_idle_thread
  41 0002 00BFAFF3 		.section	.text.chSysInit,"ax",%progbits
  41      0080AFF3 
  41      0080AFF3 
  41      0080
  42              		.align	2
  43              		.p2align 4,,15
  44              		.global	chSysInit
  45              		.thumb
  46              		.thumb_func
  47              		.type	chSysInit, %function
  48              	chSysInit:
  49              	.LFB220:
  50              		.loc 1 93 0
  51              		.cfi_startproc
  52              		@ args = 0, pretend = 0, frame = 0
  53              		@ frame_needed = 0, uses_anonymous_args = 0
  54              	.LBB148:
ARM GAS  /tmp/ccvwnF8z.s 			page 2


  55              	.LBB149:
  56              		.file 2 "ChibiOS_3.0.2/os/rt/ports/ARMCMx/chcore_v7m.h"
  57              		.loc 2 377 0
  58 0000 204B     		ldr	r3, .L4
  59              	.LBB150:
  60              	.LBB151:
  61              		.file 3 "ChibiOS_3.0.2/os/ext/CMSIS/include/core_cm4.h"
  62              		.loc 3 1442 0
  63 0002 214A     		ldr	r2, .L4+4
  64              	.LBE151:
  65              	.LBE150:
  66              		.loc 2 383 0
  67 0004 2148     		ldr	r0, .L4+8
  68              		.loc 2 384 0
  69 0006 2249     		ldr	r1, .L4+12
  70              	.LBE149:
  71              	.LBE148:
  72              		.loc 1 93 0
  73 0008 F0B5     		push	{r4, r5, r6, r7, lr}
  74              		.cfi_def_cfa_offset 20
  75              		.cfi_offset 4, -20
  76              		.cfi_offset 5, -16
  77              		.cfi_offset 6, -12
  78              		.cfi_offset 7, -8
  79              		.cfi_offset 14, -4
  80              	.LBB167:
  81              	.LBB164:
  82              		.loc 2 377 0
  83 000a 0024     		movs	r4, #0
  84 000c 9C60     		str	r4, [r3, #8]
  85              	.LVL1:
  86              	.LBB154:
  87              	.LBB152:
  88              		.loc 3 1440 0
  89 000e DF68     		ldr	r7, [r3, #12]
  90              	.LVL2:
  91              	.LBE152:
  92              	.LBE154:
  93              	.LBE164:
  94              	.LBE167:
  95              		.loc 1 119 0
  96 0010 204D     		ldr	r5, .L4+16
  97              	.LBB168:
  98              	.LBB165:
  99              	.LBB155:
 100              	.LBB153:
 101              		.loc 3 1441 0
 102 0012 4FF6FF06 		movw	r6, #63743
 103 0016 3E40     		ands	r6, r6, r7
 104              	.LVL3:
 105              		.loc 3 1442 0
 106 0018 3243     		orrs	r2, r2, r6
 107              	.LVL4:
 108              		.loc 3 1445 0
 109 001a DA60     		str	r2, [r3, #12]
 110              	.LBE153:
 111              	.LBE155:
ARM GAS  /tmp/ccvwnF8z.s 			page 3


 112              		.loc 2 383 0
 113 001c C268     		ldr	r2, [r0, #12]
 114              	.LVL5:
 115 001e 42F08072 		orr	r2, r2, #16777216
 116 0022 C260     		str	r2, [r0, #12]
 117              	.LVL6:
 118              		.loc 2 384 0
 119 0024 0E68     		ldr	r6, [r1]
 120              	.LVL7:
 121              	.LBB156:
 122              	.LBB157:
 123              		.loc 3 1553 0
 124 0026 2022     		movs	r2, #32
 125              	.LBE157:
 126              	.LBE156:
 127              	.LBB159:
 128              	.LBB160:
 129 0028 1020     		movs	r0, #16
 130              	.LBE160:
 131              	.LBE159:
 132              		.loc 2 384 0
 133 002a 46F00106 		orr	r6, r6, #1
 134 002e 0E60     		str	r6, [r1]
 135              	.LVL8:
 136              	.LBE165:
 137              	.LBE168:
 138              		.loc 1 93 0
 139 0030 83B0     		sub	sp, sp, #12
 140              		.cfi_def_cfa_offset 32
 141              	.LBB169:
 142              	.LBB166:
 143              	.LBB162:
 144              	.LBB161:
 145              		.loc 3 1553 0
 146 0032 D877     		strb	r0, [r3, #31]
 147              	.LVL9:
 148              	.LBE161:
 149              	.LBE162:
 150              	.LBB163:
 151              	.LBB158:
 152 0034 83F82220 		strb	r2, [r3, #34]
 153              	.LBE158:
 154              	.LBE163:
 155              	.LBE166:
 156              	.LBE169:
 157              		.loc 1 99 0
 158 0038 FFF7FEFF 		bl	_scheduler_init
 159              	.LVL10:
 160              		.loc 1 100 0
 161 003c FFF7FEFF 		bl	_vt_init
 162              	.LVL11:
 163              		.loc 1 102 0
 164 0040 FFF7FEFF 		bl	_tm_init
 165              	.LVL12:
 166              		.loc 1 105 0
 167 0044 FFF7FEFF 		bl	_core_init
 168              	.LVL13:
ARM GAS  /tmp/ccvwnF8z.s 			page 4


 169              		.loc 1 108 0
 170 0048 FFF7FEFF 		bl	_heap_init
 171              	.LVL14:
 172              		.loc 1 119 0
 173 004c 2846     		mov	r0, r5
 174 004e 4021     		movs	r1, #64
 175 0050 FFF7FEFF 		bl	_thread_init
 176              	.LVL15:
 177 0054 A5F13003 		sub	r3, r5, #48
 178              		.loc 1 125 0
 179 0058 0122     		movs	r2, #1
 180              		.loc 1 119 0
 181 005a 9861     		str	r0, [r3, #24]
 182              		.loc 1 125 0
 183 005c 0277     		strb	r2, [r0, #28]
 184              	.LVL16:
 185              	.LBB170:
 186              	.LBB171:
 187              	.LBB172:
 188              	.LBB173:
 189              		.file 4 "ChibiOS_3.0.2/os/ext/CMSIS/include/core_cmFunc.h"
 190              		.loc 4 546 0
 191              	@ 546 "ChibiOS_3.0.2/os/ext/CMSIS/include/core_cmFunc.h" 1
 192 005e 84F31188 		MSR basepri, r4
 193              	@ 0 "" 2
 194              		.thumb
 195              	.LBE173:
 196              	.LBE172:
 197              	.LBB174:
 198              	.LBB175:
 199              		.loc 4 331 0
 200              	@ 331 "ChibiOS_3.0.2/os/ext/CMSIS/include/core_cmFunc.h" 1
 201 0062 62B6     		cpsie i
 202              	@ 0 "" 2
 203              	.LVL17:
 204              		.thumb
 205              	.LBE175:
 206              	.LBE174:
 207              	.LBE171:
 208              	.LBE170:
 209              	.LBB176:
 210              	.LBB177:
 211              		.file 5 "ChibiOS_3.0.2/os/rt/include/chregistry.h"
 212              		.loc 5 135 0
 213 0064 9B69     		ldr	r3, [r3, #24]
 214 0066 0C49     		ldr	r1, .L4+20
 215 0068 9961     		str	r1, [r3, #24]
 216              	.LBE177:
 217              	.LBE176:
 218              	.LBB178:
 219              		.loc 1 144 0
 220 006a 05F15000 		add	r0, r5, #80
 221 006e 0094     		str	r4, [sp]
 222 0070 4FF4EC71 		mov	r1, #472
 223 0074 094B     		ldr	r3, .L4+24
 224 0076 FFF7FEFF 		bl	chThdCreateStatic
 225              	.LVL18:
ARM GAS  /tmp/ccvwnF8z.s 			page 5


 226              	.LBB179:
 227              	.LBB180:
 228              		.loc 5 175 0
 229 007a 094B     		ldr	r3, .L4+28
 230 007c 8361     		str	r3, [r0, #24]
 231              	.LBE180:
 232              	.LBE179:
 233              	.LBE178:
 234              		.loc 1 152 0
 235 007e 03B0     		add	sp, sp, #12
 236              		@ sp needed
 237 0080 F0BD     		pop	{r4, r5, r6, r7, pc}
 238              	.LVL19:
 239              	.L5:
 240 0082 00BF     		.align	2
 241              	.L4:
 242 0084 00ED00E0 		.word	-536810240
 243 0088 0003FA05 		.word	100270848
 244 008c F0ED00E0 		.word	-536810000
 245 0090 001000E0 		.word	-536866816
 246 0094 30000000 		.word	ch+48
 247 0098 00000000 		.word	ch_debug
 248 009c 00000000 		.word	_idle_thread
 249 00a0 00000000 		.word	.LC0
 250              		.cfi_endproc
 251              	.LFE220:
 252              		.size	chSysInit, .-chSysInit
 253 00a4 AFF30080 		.section	.text.chSysHalt,"ax",%progbits
 253      AFF30080 
 253      AFF30080 
 254              		.align	2
 255              		.p2align 4,,15
 256              		.global	chSysHalt
 257              		.thumb
 258              		.thumb_func
 259              		.type	chSysHalt, %function
 260              	chSysHalt:
 261              	.LFB221:
 262              		.loc 1 166 0
 263              		.cfi_startproc
 264              		@ Volatile: function does not return.
 265              		@ args = 0, pretend = 0, frame = 0
 266              		@ frame_needed = 0, uses_anonymous_args = 0
 267              		@ link register save eliminated.
 268              	.LVL20:
 269              	.LBB181:
 270              	.LBB182:
 271              	.LBB183:
 272              		.loc 4 342 0
 273              	@ 342 "ChibiOS_3.0.2/os/ext/CMSIS/include/core_cmFunc.h" 1
 274 0000 72B6     		cpsid i
 275              	@ 0 "" 2
 276              		.thumb
 277              	.LBE183:
 278              	.LBE182:
 279              	.LBE181:
 280              		.loc 1 175 0
ARM GAS  /tmp/ccvwnF8z.s 			page 6


 281 0002 014B     		ldr	r3, .L9
 282 0004 D862     		str	r0, [r3, #44]
 283              	.L7:
 284 0006 FEE7     		b	.L7
 285              	.L10:
 286              		.align	2
 287              	.L9:
 288 0008 00000000 		.word	ch
 289              		.cfi_endproc
 290              	.LFE221:
 291              		.size	chSysHalt, .-chSysHalt
 292 000c AFF30080 		.section	.text.chSysIntegrityCheckI,"ax",%progbits
 293              		.align	2
 294              		.p2align 4,,15
 295              		.global	chSysIntegrityCheckI
 296              		.thumb
 297              		.thumb_func
 298              		.type	chSysIntegrityCheckI, %function
 299              	chSysIntegrityCheckI:
 300              	.LFB222:
 301              		.loc 1 206 0
 302              		.cfi_startproc
 303              		@ args = 0, pretend = 0, frame = 0
 304              		@ frame_needed = 0, uses_anonymous_args = 0
 305              		@ link register save eliminated.
 306              	.LVL21:
 307              		.loc 1 212 0
 308 0000 C207     		lsls	r2, r0, #31
 309              		.loc 1 206 0
 310 0002 10B4     		push	{r4}
 311              		.cfi_def_cfa_offset 4
 312              		.cfi_offset 4, -4
 313              		.loc 1 212 0
 314 0004 14D5     		bpl	.L12
 315              	.LVL22:
 316              	.LBB184:
 317              		.loc 1 217 0
 318 0006 264B     		ldr	r3, .L39
 319 0008 1968     		ldr	r1, [r3]
 320              	.LVL23:
 321              		.loc 1 218 0
 322 000a 9942     		cmp	r1, r3
 323              		.loc 1 216 0
 324 000c 4FF00002 		mov	r2, #0
 325              		.loc 1 218 0
 326 0010 04D0     		beq	.L13
 327              	.LVL24:
 328              	.L14:
 329              		.loc 1 220 0
 330 0012 0968     		ldr	r1, [r1]
 331              	.LVL25:
 332              		.loc 1 218 0
 333 0014 9942     		cmp	r1, r3
 334              		.loc 1 219 0
 335 0016 02F10102 		add	r2, r2, #1
 336              	.LVL26:
 337              		.loc 1 218 0
ARM GAS  /tmp/ccvwnF8z.s 			page 7


 338 001a FAD1     		bne	.L14
 339              	.LVL27:
 340              	.L13:
 341              		.loc 1 224 0
 342 001c 5968     		ldr	r1, [r3, #4]
 343              	.LVL28:
 344              		.loc 1 225 0
 345 001e 9942     		cmp	r1, r3
 346 0020 04D0     		beq	.L15
 347              	.L16:
 348              		.loc 1 227 0
 349 0022 4968     		ldr	r1, [r1, #4]
 350              	.LVL29:
 351              		.loc 1 225 0
 352 0024 9942     		cmp	r1, r3
 353              		.loc 1 226 0
 354 0026 02F1FF32 		add	r2, r2, #-1
 355              	.LVL30:
 356              		.loc 1 225 0
 357 002a FAD1     		bne	.L16
 358              	.L15:
 359              		.loc 1 231 0
 360 002c 002A     		cmp	r2, #0
 361 002e 32D1     		bne	.L30
 362              	.LVL31:
 363              	.L12:
 364              	.LBE184:
 365              		.loc 1 237 0
 366 0030 8307     		lsls	r3, r0, #30
 367 0032 14D5     		bpl	.L18
 368              	.LVL32:
 369              	.LBB185:
 370              		.loc 1 242 0
 371 0034 1A4B     		ldr	r3, .L39
 372 0036 1C46     		mov	r4, r3
 373              		.loc 1 241 0
 374 0038 0022     		movs	r2, #0
 375              		.loc 1 242 0
 376 003a 54F81C1F 		ldr	r1, [r4, #28]!
 377              	.LVL33:
 378              		.loc 1 243 0
 379 003e A142     		cmp	r1, r4
 380 0040 04D0     		beq	.L19
 381              	.LVL34:
 382              	.L20:
 383              		.loc 1 245 0
 384 0042 0968     		ldr	r1, [r1]
 385              	.LVL35:
 386              		.loc 1 243 0
 387 0044 A142     		cmp	r1, r4
 388              		.loc 1 244 0
 389 0046 02F10102 		add	r2, r2, #1
 390              	.LVL36:
 391              		.loc 1 243 0
 392 004a FAD1     		bne	.L20
 393              	.LVL37:
 394              	.L19:
ARM GAS  /tmp/ccvwnF8z.s 			page 8


 395              		.loc 1 249 0
 396 004c 1B6A     		ldr	r3, [r3, #32]
 397              	.LVL38:
 398              		.loc 1 250 0
 399 004e A342     		cmp	r3, r4
 400 0050 04D0     		beq	.L21
 401              	.L22:
 402              		.loc 1 252 0
 403 0052 5B68     		ldr	r3, [r3, #4]
 404              	.LVL39:
 405              		.loc 1 250 0
 406 0054 A342     		cmp	r3, r4
 407              		.loc 1 251 0
 408 0056 02F1FF32 		add	r2, r2, #-1
 409              	.LVL40:
 410              		.loc 1 250 0
 411 005a FAD1     		bne	.L22
 412              	.L21:
 413              		.loc 1 256 0
 414 005c DAB9     		cbnz	r2, .L30
 415              	.LVL41:
 416              	.L18:
 417              	.LBE185:
 418              		.loc 1 262 0
 419 005e 10F00400 		ands	r0, r0, #4
 420              	.LVL42:
 421 0062 15D0     		beq	.L17
 422              	.LVL43:
 423              	.LBB186:
 424              		.loc 1 267 0
 425 0064 0E4B     		ldr	r3, .L39
 426 0066 1A69     		ldr	r2, [r3, #16]
 427              	.LVL44:
 428              		.loc 1 268 0
 429 0068 9A42     		cmp	r2, r3
 430              		.loc 1 266 0
 431 006a 4FF00000 		mov	r0, #0
 432              		.loc 1 268 0
 433 006e 04D0     		beq	.L23
 434              	.LVL45:
 435              	.L24:
 436              		.loc 1 270 0
 437 0070 1269     		ldr	r2, [r2, #16]
 438              	.LVL46:
 439              		.loc 1 268 0
 440 0072 9A42     		cmp	r2, r3
 441              		.loc 1 269 0
 442 0074 00F10100 		add	r0, r0, #1
 443              	.LVL47:
 444              		.loc 1 268 0
 445 0078 FAD1     		bne	.L24
 446              	.LVL48:
 447              	.L23:
 448              		.loc 1 274 0
 449 007a 5A69     		ldr	r2, [r3, #20]
 450              	.LVL49:
 451              		.loc 1 275 0
ARM GAS  /tmp/ccvwnF8z.s 			page 9


 452 007c 9A42     		cmp	r2, r3
 453 007e 04D0     		beq	.L25
 454              	.L26:
 455              		.loc 1 277 0
 456 0080 5269     		ldr	r2, [r2, #20]
 457              	.LVL50:
 458              		.loc 1 275 0
 459 0082 9A42     		cmp	r2, r3
 460              		.loc 1 276 0
 461 0084 00F1FF30 		add	r0, r0, #-1
 462              	.LVL51:
 463              		.loc 1 275 0
 464 0088 FAD1     		bne	.L26
 465              	.L25:
 466              		.loc 1 281 0
 467 008a 0030     		adds	r0, r0, #0
 468 008c 18BF     		it	ne
 469 008e 0120     		movne	r0, #1
 470              	.LVL52:
 471              	.L17:
 472              	.LBE186:
 473              		.loc 1 294 0
 474 0090 5DF8044B 		ldr	r4, [sp], #4
 475 0094 7047     		bx	lr
 476              	.LVL53:
 477              	.L30:
 478              	.LBB187:
 479              		.loc 1 232 0
 480 0096 0120     		movs	r0, #1
 481              	.LVL54:
 482              	.LBE187:
 483              		.loc 1 294 0
 484 0098 5DF8044B 		ldr	r4, [sp], #4
 485 009c 7047     		bx	lr
 486              	.L40:
 487 009e 00BF     		.align	2
 488              	.L39:
 489 00a0 00000000 		.word	ch
 490              		.cfi_endproc
 491              	.LFE222:
 492              		.size	chSysIntegrityCheckI, .-chSysIntegrityCheckI
 493 00a4 AFF30080 		.section	.text.chSysTimerHandlerI,"ax",%progbits
 493      AFF30080 
 493      AFF30080 
 494              		.align	2
 495              		.p2align 4,,15
 496              		.global	chSysTimerHandlerI
 497              		.thumb
 498              		.thumb_func
 499              		.type	chSysTimerHandlerI, %function
 500              	chSysTimerHandlerI:
 501              	.LFB223:
 502              		.loc 1 307 0
 503              		.cfi_startproc
 504              		@ args = 0, pretend = 0, frame = 0
 505              		@ frame_needed = 0, uses_anonymous_args = 0
 506 0000 F8B5     		push	{r3, r4, r5, r6, r7, lr}
ARM GAS  /tmp/ccvwnF8z.s 			page 10


 507              		.cfi_def_cfa_offset 24
 508              		.cfi_offset 3, -24
 509              		.cfi_offset 4, -20
 510              		.cfi_offset 5, -16
 511              		.cfi_offset 6, -12
 512              		.cfi_offset 7, -8
 513              		.cfi_offset 14, -4
 514              		.loc 1 313 0
 515 0002 134C     		ldr	r4, .L49
 516 0004 A269     		ldr	r2, [r4, #24]
 517 0006 D37F     		ldrb	r3, [r2, #31]	@ zero_extendqisi2
 518 0008 0BB1     		cbz	r3, .L42
 519              		.loc 1 315 0
 520 000a 013B     		subs	r3, r3, #1
 521 000c D377     		strb	r3, [r2, #31]
 522              	.L42:
 523              		.loc 1 319 0
 524 000e 116A     		ldr	r1, [r2, #32]
 525              	.LBB201:
 526              	.LBB202:
 527              		.file 6 "ChibiOS_3.0.2/os/rt/include/chvt.h"
 528              		.loc 6 472 0
 529 0010 E369     		ldr	r3, [r4, #28]
 530 0012 104E     		ldr	r6, .L49+4
 531              	.LBE202:
 532              	.LBE201:
 533              		.loc 1 319 0
 534 0014 0131     		adds	r1, r1, #1
 535 0016 1162     		str	r1, [r2, #32]
 536              	.LBB220:
 537              	.LBB219:
 538              		.loc 6 471 0
 539 0018 A26A     		ldr	r2, [r4, #40]
 540              		.loc 6 472 0
 541 001a B342     		cmp	r3, r6
 542              		.loc 6 471 0
 543 001c 02F10102 		add	r2, r2, #1
 544 0020 A262     		str	r2, [r4, #40]
 545              		.loc 6 472 0
 546 0022 13D0     		beq	.L41
 547              		.loc 6 474 0
 548 0024 9D68     		ldr	r5, [r3, #8]
 549 0026 013D     		subs	r5, r5, #1
 550 0028 9D60     		str	r5, [r3, #8]
 551              		.loc 6 475 0
 552 002a 7DB9     		cbnz	r5, .L41
 553              	.LBB203:
 554              	.LBB204:
 555              	.LBB205:
 556              	.LBB206:
 557              	.LBB207:
 558              	.LBB208:
 559              		.loc 4 546 0
 560 002c 2027     		movs	r7, #32
 561              	.L45:
 562              	.LVL55:
 563              	.LBE208:
ARM GAS  /tmp/ccvwnF8z.s 			page 11


 564              	.LBE207:
 565              	.LBE206:
 566              	.LBE205:
 567              	.LBE204:
 568              		.loc 6 482 0
 569 002e 1A68     		ldr	r2, [r3]
 570              		.loc 6 480 0
 571 0030 D968     		ldr	r1, [r3, #12]
 572              	.LVL56:
 573              		.loc 6 481 0
 574 0032 DD60     		str	r5, [r3, #12]
 575              		.loc 6 482 0
 576 0034 5660     		str	r6, [r2, #4]
 577              		.loc 6 483 0
 578 0036 E261     		str	r2, [r4, #28]
 579              	.LVL57:
 580              	.LBB213:
 581              	.LBB214:
 582              	.LBB215:
 583              	.LBB216:
 584              	.LBB217:
 585              		.loc 4 546 0
 586              	@ 546 "ChibiOS_3.0.2/os/ext/CMSIS/include/core_cmFunc.h" 1
 587 0038 85F31188 		MSR basepri, r5
 588              	@ 0 "" 2
 589              		.thumb
 590              	.LBE217:
 591              	.LBE216:
 592              	.LBE215:
 593              	.LBE214:
 594              	.LBE213:
 595              		.loc 6 485 0
 596 003c 1869     		ldr	r0, [r3, #16]
 597 003e 8847     		blx	r1
 598              	.LVL58:
 599              	.LBB218:
 600              	.LBB212:
 601              	.LBB211:
 602              	.LBB210:
 603              	.LBB209:
 604              		.loc 4 546 0
 605              	@ 546 "ChibiOS_3.0.2/os/ext/CMSIS/include/core_cmFunc.h" 1
 606 0040 87F31188 		MSR basepri, r7
 607              	@ 0 "" 2
 608              		.thumb
 609              	.LBE209:
 610              	.LBE210:
 611              	.LBE211:
 612              	.LBE212:
 613              	.LBE218:
 614              	.LBE203:
 615              		.loc 6 475 0
 616 0044 E369     		ldr	r3, [r4, #28]
 617 0046 9A68     		ldr	r2, [r3, #8]
 618 0048 002A     		cmp	r2, #0
 619 004a F0D0     		beq	.L45
 620              	.LVL59:
ARM GAS  /tmp/ccvwnF8z.s 			page 12


 621              	.L41:
 622 004c F8BD     		pop	{r3, r4, r5, r6, r7, pc}
 623              	.L50:
 624 004e 00BF     		.align	2
 625              	.L49:
 626 0050 00000000 		.word	ch
 627 0054 1C000000 		.word	ch+28
 628              	.LBE219:
 629              	.LBE220:
 630              		.cfi_endproc
 631              	.LFE223:
 632              		.size	chSysTimerHandlerI, .-chSysTimerHandlerI
 633 0058 AFF30080 		.section	.text.chSysGetStatusAndLockX,"ax",%progbits
 633      AFF30080 
 634              		.align	2
 635              		.p2align 4,,15
 636              		.global	chSysGetStatusAndLockX
 637              		.thumb
 638              		.thumb_func
 639              		.type	chSysGetStatusAndLockX, %function
 640              	chSysGetStatusAndLockX:
 641              	.LFB224:
 642              		.loc 1 340 0
 643              		.cfi_startproc
 644              		@ args = 0, pretend = 0, frame = 0
 645              		@ frame_needed = 0, uses_anonymous_args = 0
 646              		@ link register save eliminated.
 647              	.LBB221:
 648              	.LBB222:
 649              	.LBB223:
 650              	.LBB224:
 651              		.loc 4 533 0
 652              	@ 533 "ChibiOS_3.0.2/os/ext/CMSIS/include/core_cmFunc.h" 1
 653 0000 EFF31280 		MRS r0, basepri_max
 654              	@ 0 "" 2
 655              	.LVL60:
 656              		.thumb
 657              	.LBE224:
 658              	.LBE223:
 659              	.LBE222:
 660              	.LBE221:
 661              		.loc 1 343 0
 662 0004 20B9     		cbnz	r0, .L52
 663              	.LBB225:
 664              	.LBB226:
 665              	.LBB227:
 666              	.LBB228:
 667              		.loc 4 383 0
 668              	@ 383 "ChibiOS_3.0.2/os/ext/CMSIS/include/core_cmFunc.h" 1
 669 0006 EFF30583 		MRS r3, ipsr
 670              	@ 0 "" 2
 671              	.LVL61:
 672              		.thumb
 673              	.LBE228:
 674              	.LBE227:
 675              	.LBE226:
 676              	.LBE225:
ARM GAS  /tmp/ccvwnF8z.s 			page 13


 677              	.LBB229:
 678              	.LBB230:
 679              	.LBB231:
 680              	.LBB232:
 681              		.loc 4 546 0
 682 000a 2023     		movs	r3, #32
 683              	.LVL62:
 684              	@ 546 "ChibiOS_3.0.2/os/ext/CMSIS/include/core_cmFunc.h" 1
 685 000c 83F31188 		MSR basepri, r3
 686              	@ 0 "" 2
 687              	.LVL63:
 688              		.thumb
 689              	.L52:
 690              	.LBE232:
 691              	.LBE231:
 692              	.LBE230:
 693              	.LBE229:
 694              		.loc 1 352 0
 695 0010 7047     		bx	lr
 696              		.cfi_endproc
 697              	.LFE224:
 698              		.size	chSysGetStatusAndLockX, .-chSysGetStatusAndLockX
 699 0012 00BFAFF3 		.section	.text.chSysRestoreStatusX,"ax",%progbits
 699      0080AFF3 
 699      0080AFF3 
 699      0080
 700              		.align	2
 701              		.p2align 4,,15
 702              		.global	chSysRestoreStatusX
 703              		.thumb
 704              		.thumb_func
 705              		.type	chSysRestoreStatusX, %function
 706              	chSysRestoreStatusX:
 707              	.LFB225:
 708              		.loc 1 363 0
 709              		.cfi_startproc
 710              		@ args = 0, pretend = 0, frame = 0
 711              		@ frame_needed = 0, uses_anonymous_args = 0
 712              	.LVL64:
 713 0000 10B5     		push	{r4, lr}
 714              		.cfi_def_cfa_offset 8
 715              		.cfi_offset 4, -8
 716              		.cfi_offset 14, -4
 717              		.loc 1 365 0
 718 0002 58B9     		cbnz	r0, .L54
 719              	.LBB233:
 720              	.LBB234:
 721              	.LBB235:
 722              	.LBB236:
 723              		.loc 4 383 0
 724              	@ 383 "ChibiOS_3.0.2/os/ext/CMSIS/include/core_cmFunc.h" 1
 725 0004 EFF30584 		MRS r4, ipsr
 726              	@ 0 "" 2
 727              	.LVL65:
 728              		.thumb
 729              	.LBE236:
 730              	.LBE235:
ARM GAS  /tmp/ccvwnF8z.s 			page 14


 731              		.loc 2 436 0
 732 0008 C4F30804 		ubfx	r4, r4, #0, #9
 733              	.LVL66:
 734              	.LBE234:
 735              	.LBE233:
 736              		.loc 1 366 0
 737 000c 14B1     		cbz	r4, .L56
 738              	.LVL67:
 739              	.LBB237:
 740              	.LBB238:
 741              	.LBB239:
 742              	.LBB240:
 743              	.LBB241:
 744              		.loc 4 546 0
 745              	@ 546 "ChibiOS_3.0.2/os/ext/CMSIS/include/core_cmFunc.h" 1
 746 000e 80F31188 		MSR basepri, r0
 747              	@ 0 "" 2
 748              		.thumb
 749 0012 10BD     		pop	{r4, pc}
 750              	.LVL68:
 751              	.L56:
 752              	.LBE241:
 753              	.LBE240:
 754              	.LBE239:
 755              	.LBE238:
 756              	.LBE237:
 757              		.loc 1 370 0
 758 0014 FFF7FEFF 		bl	chSchRescheduleS
 759              	.LVL69:
 760              	.LBB242:
 761              	.LBB243:
 762              	.LBB244:
 763              	.LBB245:
 764              	.LBB246:
 765              		.loc 4 546 0
 766              	@ 546 "ChibiOS_3.0.2/os/ext/CMSIS/include/core_cmFunc.h" 1
 767 0018 84F31188 		MSR basepri, r4
 768              	@ 0 "" 2
 769              	.LVL70:
 770              		.thumb
 771              	.L54:
 772 001c 10BD     		pop	{r4, pc}
 773              	.LBE246:
 774              	.LBE245:
 775              	.LBE244:
 776              	.LBE243:
 777              	.LBE242:
 778              		.cfi_endproc
 779              	.LFE225:
 780              		.size	chSysRestoreStatusX, .-chSysRestoreStatusX
 781 001e 00BF     		.section	.text.chSysIsCounterWithinX,"ax",%progbits
 782              		.align	2
 783              		.p2align 4,,15
 784              		.global	chSysIsCounterWithinX
 785              		.thumb
 786              		.thumb_func
 787              		.type	chSysIsCounterWithinX, %function
ARM GAS  /tmp/ccvwnF8z.s 			page 15


 788              	chSysIsCounterWithinX:
 789              	.LFB226:
 790              		.loc 1 395 0
 791              		.cfi_startproc
 792              		@ args = 0, pretend = 0, frame = 0
 793              		@ frame_needed = 0, uses_anonymous_args = 0
 794              		@ link register save eliminated.
 795              	.LVL71:
 796              		.loc 1 397 0
 797 0000 401A     		subs	r0, r0, r1
 798              	.LVL72:
 799 0002 521A     		subs	r2, r2, r1
 800              	.LVL73:
 801              		.loc 1 398 0
 802 0004 9042     		cmp	r0, r2
 803 0006 2CBF     		ite	cs
 804 0008 0020     		movcs	r0, #0
 805 000a 0120     		movcc	r0, #1
 806 000c 7047     		bx	lr
 807              		.cfi_endproc
 808              	.LFE226:
 809              		.size	chSysIsCounterWithinX, .-chSysIsCounterWithinX
 810 000e 00BF     		.section	.text.chSysPolledDelayX,"ax",%progbits
 811              		.align	2
 812              		.p2align 4,,15
 813              		.global	chSysPolledDelayX
 814              		.thumb
 815              		.thumb_func
 816              		.type	chSysPolledDelayX, %function
 817              	chSysPolledDelayX:
 818              	.LFB227:
 819              		.loc 1 411 0
 820              		.cfi_startproc
 821              		@ args = 0, pretend = 0, frame = 0
 822              		@ frame_needed = 0, uses_anonymous_args = 0
 823              		@ link register save eliminated.
 824              	.LVL74:
 825              	.LBB247:
 826              	.LBB248:
 827              		.loc 2 548 0
 828 0000 0349     		ldr	r1, .L61
 829 0002 4A68     		ldr	r2, [r1, #4]
 830              	.LVL75:
 831              	.L60:
 832              	.LBE248:
 833              	.LBE247:
 834              	.LBB249:
 835              	.LBB250:
 836              		.loc 2 548 0 is_stmt 0 discriminator 1
 837 0004 4B68     		ldr	r3, [r1, #4]
 838              	.LVL76:
 839              	.LBE250:
 840              	.LBE249:
 841              	.LBB251:
 842              	.LBB252:
 843              		.loc 1 397 0 is_stmt 1 discriminator 1
 844 0006 9B1A     		subs	r3, r3, r2
ARM GAS  /tmp/ccvwnF8z.s 			page 16


 845              	.LVL77:
 846              	.LBE252:
 847              	.LBE251:
 848              		.loc 1 415 0 discriminator 1
 849 0008 9842     		cmp	r0, r3
 850 000a FBD8     		bhi	.L60
 851              		.loc 1 417 0
 852 000c 7047     		bx	lr
 853              	.L62:
 854 000e 00BF     		.align	2
 855              	.L61:
 856 0010 001000E0 		.word	-536866816
 857              		.cfi_endproc
 858              	.LFE227:
 859              		.size	chSysPolledDelayX, .-chSysPolledDelayX
 860 0014 AFF30080 		.section	.rodata.str1.4,"aMS",%progbits,1
 860      AFF30080 
 860      AFF30080 
 861              		.align	2
 862              	.LC0:
 863 0000 69646C65 		.ascii	"idle\000"
 863      00
 864 0005 000000   		.text
 865              	.Letext0:
 866              		.file 7 "/usr/lib/gcc/arm-none-eabi/4.8/include/stddef.h"
 867              		.file 8 "/usr/include/newlib/machine/_default_types.h"
 868              		.file 9 "/usr/include/newlib/stdint.h"
 869              		.file 10 "ChibiOS_3.0.2/os/rt/ports/ARMCMx/compilers/GCC/chtypes.h"
 870              		.file 11 "ChibiOS_3.0.2/os/rt/include/chsystypes.h"
 871              		.file 12 "ChibiOS_3.0.2/os/rt/include/chschd.h"
 872              		.file 13 "ChibiOS_3.0.2/os/ext/CMSIS/ST/stm32f407xx.h"
 873              		.file 14 "ChibiOS_3.0.2/os/rt/ports/ARMCMx/chcore.h"
 874              		.file 15 "ChibiOS_3.0.2/os/rt/include/chtm.h"
 875              		.file 16 "ChibiOS_3.0.2/os/rt/include/chsem.h"
 876              		.file 17 "ChibiOS_3.0.2/os/rt/include/chmtx.h"
 877              		.file 18 "ChibiOS_3.0.2/os/rt/include/chthreads.h"
 878              		.file 19 "ChibiOS_3.0.2/os/rt/include/chsys.h"
 879              		.file 20 "ChibiOS_3.0.2/os/rt/include/chmemcore.h"
 880              		.file 21 "ChibiOS_3.0.2/os/rt/include/chheap.h"