ARM GAS  /tmp/ccyMjK9R.s 			page 1


   1              		.syntax unified
   2              		.cpu cortex-m4
   3              		.eabi_attribute 27, 3
   4              		.eabi_attribute 28, 1
   5              		.fpu fpv4-sp-d16
   6              		.eabi_attribute 20, 1
   7              		.eabi_attribute 21, 1
   8              		.eabi_attribute 23, 3
   9              		.eabi_attribute 24, 1
  10              		.eabi_attribute 25, 1
  11              		.eabi_attribute 26, 1
  12              		.eabi_attribute 30, 2
  13              		.eabi_attribute 34, 1
  14              		.eabi_attribute 18, 4
  15              		.thumb
  16              		.file	"chthreads.c"
  17              		.text
  18              	.Ltext0:
  19              		.cfi_sections	.debug_frame
  20              		.section	.text._thread_init,"ax",%progbits
  21              		.align	2
  22              		.p2align 4,,15
  23              		.global	_thread_init
  24              		.thumb
  25              		.thumb_func
  26              		.type	_thread_init, %function
  27              	_thread_init:
  28              	.LFB219:
  29              		.file 1 "ChibiOS_3.0.2/os/rt/src/chthreads.c"
  30              		.loc 1 91 0
  31              		.cfi_startproc
  32              		@ args = 0, pretend = 0, frame = 0
  33              		@ frame_needed = 0, uses_anonymous_args = 0
  34              		@ link register save eliminated.
  35              	.LVL0:
  36 0000 2DE9F003 		push	{r4, r5, r6, r7, r8, r9}
  37              		.cfi_def_cfa_offset 24
  38              		.cfi_offset 4, -24
  39              		.cfi_offset 5, -20
  40              		.cfi_offset 6, -16
  41              		.cfi_offset 7, -12
  42              		.cfi_offset 8, -8
  43              		.cfi_offset 9, -4
  44              		.loc 1 114 0
  45 0004 114C     		ldr	r4, .L2
  46              		.loc 1 100 0
  47 0006 0164     		str	r1, [r0, #64]
  48              		.loc 1 114 0
  49 0008 6569     		ldr	r5, [r4, #20]
  50 000a 4561     		str	r5, [r0, #20]
  51              		.loc 1 95 0
  52 000c 0022     		movs	r2, #0
  53              		.loc 1 120 0
  54 000e 00F12C06 		add	r6, r0, #44
  55              		.loc 1 94 0
  56 0012 4FF00209 		mov	r9, #2
  57              		.loc 1 97 0
ARM GAS  /tmp/ccyMjK9R.s 			page 2


  58 0016 4FF00408 		mov	r8, #4
  59              		.loc 1 117 0
  60 001a 00F12807 		add	r7, r0, #40
  61              		.loc 1 110 0
  62 001e 4FF0010C 		mov	ip, #1
  63              		.loc 1 114 0
  64 0022 0461     		str	r4, [r0, #16]
  65              		.loc 1 93 0
  66 0024 8160     		str	r1, [r0, #8]
  67              		.loc 1 94 0
  68 0026 80F81C90 		strb	r9, [r0, #28]
  69              		.loc 1 97 0
  70 002a 80F81F80 		strb	r8, [r0, #31]
  71              		.loc 1 110 0
  72 002e 80F81EC0 		strb	ip, [r0, #30]
  73              		.loc 1 95 0
  74 0032 4277     		strb	r2, [r0, #29]
  75              		.loc 1 101 0
  76 0034 C263     		str	r2, [r0, #60]
  77              		.loc 1 104 0
  78 0036 8263     		str	r2, [r0, #56]
  79              		.loc 1 107 0
  80 0038 0262     		str	r2, [r0, #32]
  81              		.loc 1 113 0
  82 003a 8261     		str	r2, [r0, #24]
  83              		.loc 1 114 0
  84 003c 2861     		str	r0, [r5, #16]
  85 003e 6061     		str	r0, [r4, #20]
  86              	.LVL1:
  87              	.LBB184:
  88              	.LBB185:
  89              		.file 2 "ChibiOS_3.0.2/os/rt/include/chschd.h"
  90              		.loc 2 566 0
  91 0040 8762     		str	r7, [r0, #40]
  92              	.LBE185:
  93              	.LBE184:
  94              	.LBB186:
  95              	.LBB187:
  96              		.loc 2 604 0
  97 0042 C662     		str	r6, [r0, #44]
  98              		.loc 2 605 0
  99 0044 0663     		str	r6, [r0, #48]
 100              	.LBE187:
 101              	.LBE186:
 102              		.loc 1 133 0
 103 0046 BDE8F003 		pop	{r4, r5, r6, r7, r8, r9}
 104              	.LVL2:
 105 004a 7047     		bx	lr
 106              	.L3:
 107              		.align	2
 108              	.L2:
 109 004c 00000000 		.word	ch
 110              		.cfi_endproc
 111              	.LFE219:
 112              		.size	_thread_init, .-_thread_init
 113              		.section	.text.chThdCreateI,"ax",%progbits
 114              		.align	2
ARM GAS  /tmp/ccyMjK9R.s 			page 3


 115              		.p2align 4,,15
 116              		.global	chThdCreateI
 117              		.thumb
 118              		.thumb_func
 119              		.type	chThdCreateI, %function
 120              	chThdCreateI:
 121              	.LFB220:
 122              		.loc 1 178 0
 123              		.cfi_startproc
 124              		@ args = 4, pretend = 0, frame = 0
 125              		@ frame_needed = 0, uses_anonymous_args = 0
 126              		@ link register save eliminated.
 127              	.LVL3:
 128 0000 2DE9F00F 		push	{r4, r5, r6, r7, r8, r9, r10, fp}
 129              		.cfi_def_cfa_offset 32
 130              		.cfi_offset 4, -32
 131              		.cfi_offset 5, -28
 132              		.cfi_offset 6, -24
 133              		.cfi_offset 7, -20
 134              		.cfi_offset 8, -16
 135              		.cfi_offset 9, -12
 136              		.cfi_offset 10, -8
 137              		.cfi_offset 11, -4
 138              	.LBB188:
 139              	.LBB189:
 140              		.loc 1 114 0
 141 0004 174D     		ldr	r5, .L5
 142              	.LBE189:
 143              	.LBE188:
 144              		.loc 1 178 0
 145 0006 089E     		ldr	r6, [sp, #32]
 146              	.LBB198:
 147              	.LBB194:
 148              		.loc 1 114 0
 149 0008 6F69     		ldr	r7, [r5, #20]
 150              	.LBE194:
 151              	.LBE198:
 152              		.loc 1 187 0
 153 000a DFF85CC0 		ldr	ip, .L5+4
 154 000e 6439     		subs	r1, r1, #100
 155              	.LVL4:
 156 0010 0144     		add	r1, r1, r0
 157              	.LVL5:
 158 0012 C160     		str	r1, [r0, #12]
 159              	.LBB199:
 160              	.LBB195:
 161              		.loc 1 94 0
 162 0014 4FF0020B 		mov	fp, #2
 163              	.LBE195:
 164              	.LBE199:
 165              		.loc 1 187 0
 166 0018 0B64     		str	r3, [r1, #64]
 167 001a 4E64     		str	r6, [r1, #68]
 168              	.LBB200:
 169              	.LBB196:
 170              		.loc 1 95 0
 171 001c 0023     		movs	r3, #0
ARM GAS  /tmp/ccyMjK9R.s 			page 4


 172              	.LVL6:
 173              		.loc 1 120 0
 174 001e 00F12C06 		add	r6, r0, #44
 175              		.loc 1 97 0
 176 0022 4FF0040A 		mov	r10, #4
 177              		.loc 1 110 0
 178 0026 4FF00109 		mov	r9, #1
 179              		.loc 1 117 0
 180 002a 00F12808 		add	r8, r0, #40
 181              	.LBE196:
 182              	.LBE200:
 183              		.loc 1 187 0
 184 002e C1F860C0 		str	ip, [r1, #96]
 185              	.LVL7:
 186              	.LBB201:
 187              	.LBB197:
 188              		.loc 1 114 0
 189 0032 0561     		str	r5, [r0, #16]
 190 0034 4761     		str	r7, [r0, #20]
 191              		.loc 1 93 0
 192 0036 8260     		str	r2, [r0, #8]
 193              		.loc 1 94 0
 194 0038 80F81CB0 		strb	fp, [r0, #28]
 195              	.LVL8:
 196              		.loc 1 97 0
 197 003c 80F81FA0 		strb	r10, [r0, #31]
 198              		.loc 1 110 0
 199 0040 80F81E90 		strb	r9, [r0, #30]
 200              		.loc 1 100 0
 201 0044 0264     		str	r2, [r0, #64]
 202              		.loc 1 95 0
 203 0046 4377     		strb	r3, [r0, #29]
 204              		.loc 1 101 0
 205 0048 C363     		str	r3, [r0, #60]
 206              		.loc 1 104 0
 207 004a 8363     		str	r3, [r0, #56]
 208              		.loc 1 107 0
 209 004c 0362     		str	r3, [r0, #32]
 210              		.loc 1 113 0
 211 004e 8361     		str	r3, [r0, #24]
 212              		.loc 1 114 0
 213 0050 3861     		str	r0, [r7, #16]
 214              	.LBB190:
 215              	.LBB191:
 216              		.loc 2 566 0
 217 0052 C0F82880 		str	r8, [r0, #40]
 218              	.LBE191:
 219              	.LBE190:
 220              		.loc 1 114 0
 221 0056 6861     		str	r0, [r5, #20]
 222              	.LVL9:
 223              	.LBB192:
 224              	.LBB193:
 225              		.loc 2 604 0
 226 0058 C662     		str	r6, [r0, #44]
 227              		.loc 2 605 0
 228 005a 0663     		str	r6, [r0, #48]
ARM GAS  /tmp/ccyMjK9R.s 			page 5


 229              	.LBE193:
 230              	.LBE192:
 231              	.LBE197:
 232              	.LBE201:
 233              		.loc 1 190 0
 234 005c BDE8F00F 		pop	{r4, r5, r6, r7, r8, r9, r10, fp}
 235              	.LVL10:
 236 0060 7047     		bx	lr
 237              	.L6:
 238 0062 00BF     		.align	2
 239              	.L5:
 240 0064 00000000 		.word	ch
 241 0068 00000000 		.word	_port_thread_start
 242              		.cfi_endproc
 243              	.LFE220:
 244              		.size	chThdCreateI, .-chThdCreateI
 245 006c AFF30080 		.section	.text.chThdCreateStatic,"ax",%progbits
 246              		.align	2
 247              		.p2align 4,,15
 248              		.global	chThdCreateStatic
 249              		.thumb
 250              		.thumb_func
 251              		.type	chThdCreateStatic, %function
 252              	chThdCreateStatic:
 253              	.LFB221:
 254              		.loc 1 209 0
 255              		.cfi_startproc
 256              		@ args = 4, pretend = 0, frame = 0
 257              		@ frame_needed = 0, uses_anonymous_args = 0
 258              	.LVL11:
 259 0000 2DE9F84F 		push	{r3, r4, r5, r6, r7, r8, r9, r10, fp, lr}
 260              		.cfi_def_cfa_offset 40
 261              		.cfi_offset 3, -40
 262              		.cfi_offset 4, -36
 263              		.cfi_offset 5, -32
 264              		.cfi_offset 6, -28
 265              		.cfi_offset 7, -24
 266              		.cfi_offset 8, -20
 267              		.cfi_offset 9, -16
 268              		.cfi_offset 10, -12
 269              		.cfi_offset 11, -8
 270              		.cfi_offset 14, -4
 271              		.loc 1 209 0
 272 0004 0446     		mov	r4, r0
 273              	.LBB202:
 274              	.LBB203:
 275              	.LBB204:
 276              	.LBB205:
 277              		.file 3 "ChibiOS_3.0.2/os/ext/CMSIS/include/core_cmFunc.h"
 278              		.loc 3 546 0
 279 0006 2025     		movs	r5, #32
 280              	@ 546 "ChibiOS_3.0.2/os/ext/CMSIS/include/core_cmFunc.h" 1
 281 0008 85F31188 		MSR basepri, r5
 282              	@ 0 "" 2
 283              	.LVL12:
 284              		.thumb
 285              	.LBE205:
ARM GAS  /tmp/ccyMjK9R.s 			page 6


 286              	.LBE204:
 287              	.LBE203:
 288              	.LBE202:
 289              	.LBB206:
 290              	.LBB207:
 291              	.LBB208:
 292              	.LBB209:
 293              		.loc 1 114 0
 294 000c 1B4E     		ldr	r6, .L8
 295              	.LBE209:
 296              	.LBE208:
 297              		.loc 1 187 0
 298 000e 0A9F     		ldr	r7, [sp, #40]
 299              	.LBB219:
 300              	.LBB214:
 301              		.loc 1 114 0
 302 0010 D6F814E0 		ldr	lr, [r6, #20]
 303              	.LBE214:
 304              	.LBE219:
 305              		.loc 1 187 0
 306 0014 DFF868B0 		ldr	fp, .L8+4
 307 0018 6439     		subs	r1, r1, #100
 308              	.LVL13:
 309 001a 0144     		add	r1, r1, r0
 310              	.LVL14:
 311 001c C160     		str	r1, [r0, #12]
 312              	.LBB220:
 313              	.LBB215:
 314              		.loc 1 95 0
 315 001e 0025     		movs	r5, #0
 316              	.LBE215:
 317              	.LBE220:
 318              		.loc 1 187 0
 319 0020 0B64     		str	r3, [r1, #64]
 320              	.LBB221:
 321              	.LBB216:
 322              		.loc 1 117 0
 323 0022 00F1280C 		add	ip, r0, #40
 324              		.loc 1 120 0
 325 0026 00F12C03 		add	r3, r0, #44
 326              	.LVL15:
 327              		.loc 1 94 0
 328 002a 4FF0020A 		mov	r10, #2
 329              		.loc 1 97 0
 330 002e 4FF00409 		mov	r9, #4
 331              		.loc 1 110 0
 332 0032 4FF00108 		mov	r8, #1
 333              	.LBE216:
 334              	.LBE221:
 335              		.loc 1 187 0
 336 0036 4F64     		str	r7, [r1, #68]
 337 0038 C1F860B0 		str	fp, [r1, #96]
 338              	.LVL16:
 339              	.LBB222:
 340              	.LBB217:
 341              		.loc 1 93 0
 342 003c 8260     		str	r2, [r0, #8]
ARM GAS  /tmp/ccyMjK9R.s 			page 7


 343              		.loc 1 114 0
 344 003e 0661     		str	r6, [r0, #16]
 345 0040 C0F814E0 		str	lr, [r0, #20]
 346              		.loc 1 100 0
 347 0044 0264     		str	r2, [r0, #64]
 348              		.loc 1 94 0
 349 0046 80F81CA0 		strb	r10, [r0, #28]
 350              	.LVL17:
 351              		.loc 1 97 0
 352 004a 80F81F90 		strb	r9, [r0, #31]
 353              		.loc 1 110 0
 354 004e 80F81E80 		strb	r8, [r0, #30]
 355              		.loc 1 95 0
 356 0052 4577     		strb	r5, [r0, #29]
 357              		.loc 1 101 0
 358 0054 C563     		str	r5, [r0, #60]
 359              		.loc 1 104 0
 360 0056 8563     		str	r5, [r0, #56]
 361              		.loc 1 107 0
 362 0058 0562     		str	r5, [r0, #32]
 363              		.loc 1 113 0
 364 005a 8561     		str	r5, [r0, #24]
 365              	.LBE217:
 366              	.LBE222:
 367              	.LBE207:
 368              	.LBE206:
 369              		.loc 1 223 0
 370 005c 2946     		mov	r1, r5
 371              	.LBB225:
 372              	.LBB224:
 373              	.LBB223:
 374              	.LBB218:
 375              		.loc 1 114 0
 376 005e CEF81000 		str	r0, [lr, #16]
 377              	.LBB210:
 378              	.LBB211:
 379              		.loc 2 566 0
 380 0062 C0F828C0 		str	ip, [r0, #40]
 381              	.LBE211:
 382              	.LBE210:
 383              	.LBB212:
 384              	.LBB213:
 385              		.loc 2 604 0
 386 0066 C362     		str	r3, [r0, #44]
 387              		.loc 2 605 0
 388 0068 0363     		str	r3, [r0, #48]
 389              	.LBE213:
 390              	.LBE212:
 391              		.loc 1 114 0
 392 006a 7061     		str	r0, [r6, #20]
 393              	.LVL18:
 394              	.LBE218:
 395              	.LBE223:
 396              	.LBE224:
 397              	.LBE225:
 398              		.loc 1 223 0
 399 006c FFF7FEFF 		bl	chSchWakeupS
ARM GAS  /tmp/ccyMjK9R.s 			page 8


 400              	.LVL19:
 401              	.LBB226:
 402              	.LBB227:
 403              	.LBB228:
 404              	.LBB229:
 405              	.LBB230:
 406              		.loc 3 546 0
 407              	@ 546 "ChibiOS_3.0.2/os/ext/CMSIS/include/core_cmFunc.h" 1
 408 0070 85F31188 		MSR basepri, r5
 409              	@ 0 "" 2
 410              		.thumb
 411              	.LBE230:
 412              	.LBE229:
 413              	.LBE228:
 414              	.LBE227:
 415              	.LBE226:
 416              		.loc 1 227 0
 417 0074 2046     		mov	r0, r4
 418 0076 BDE8F88F 		pop	{r3, r4, r5, r6, r7, r8, r9, r10, fp, pc}
 419              	.LVL20:
 420              	.L9:
 421 007a 00BF     		.align	2
 422              	.L8:
 423 007c 00000000 		.word	ch
 424 0080 00000000 		.word	_port_thread_start
 425              		.cfi_endproc
 426              	.LFE221:
 427              		.size	chThdCreateStatic, .-chThdCreateStatic
 428 0084 AFF30080 		.section	.text.chThdStart,"ax",%progbits
 428      AFF30080 
 428      AFF30080 
 429              		.align	2
 430              		.p2align 4,,15
 431              		.global	chThdStart
 432              		.thumb
 433              		.thumb_func
 434              		.type	chThdStart, %function
 435              	chThdStart:
 436              	.LFB222:
 437              		.loc 1 238 0
 438              		.cfi_startproc
 439              		@ args = 0, pretend = 0, frame = 0
 440              		@ frame_needed = 0, uses_anonymous_args = 0
 441              	.LVL21:
 442 0000 08B5     		push	{r3, lr}
 443              		.cfi_def_cfa_offset 8
 444              		.cfi_offset 3, -8
 445              		.cfi_offset 14, -4
 446              	.LBB231:
 447              	.LBB232:
 448              	.LBB233:
 449              	.LBB234:
 450              		.loc 3 546 0
 451 0002 2023     		movs	r3, #32
 452              	@ 546 "ChibiOS_3.0.2/os/ext/CMSIS/include/core_cmFunc.h" 1
 453 0004 83F31188 		MSR basepri, r3
 454              	@ 0 "" 2
ARM GAS  /tmp/ccyMjK9R.s 			page 9


 455              	.LVL22:
 456              		.thumb
 457              	.LBE234:
 458              	.LBE233:
 459              	.LBE232:
 460              	.LBE231:
 461              	.LBB235:
 462              	.LBB236:
 463              		.file 4 "ChibiOS_3.0.2/os/rt/include/chthreads.h"
 464              		.loc 4 249 0
 465 0008 FFF7FEFF 		bl	chSchReadyI
 466              	.LVL23:
 467              	.LBE236:
 468              	.LBE235:
 469              	.LBB237:
 470              	.LBB238:
 471              	.LBB239:
 472              	.LBB240:
 473              	.LBB241:
 474              		.loc 3 546 0
 475 000c 0023     		movs	r3, #0
 476              	@ 546 "ChibiOS_3.0.2/os/ext/CMSIS/include/core_cmFunc.h" 1
 477 000e 83F31188 		MSR basepri, r3
 478              	@ 0 "" 2
 479              		.thumb
 480              	.LBE241:
 481              	.LBE240:
 482              	.LBE239:
 483              	.LBE238:
 484              	.LBE237:
 485              		.loc 1 245 0
 486 0012 08BD     		pop	{r3, pc}
 487              		.cfi_endproc
 488              	.LFE222:
 489              		.size	chThdStart, .-chThdStart
 490 0014 AFF30080 		.section	.text.chThdSetPriority,"ax",%progbits
 490      AFF30080 
 490      AFF30080 
 491              		.align	2
 492              		.p2align 4,,15
 493              		.global	chThdSetPriority
 494              		.thumb
 495              		.thumb_func
 496              		.type	chThdSetPriority, %function
 497              	chThdSetPriority:
 498              	.LFB223:
 499              		.loc 1 259 0
 500              		.cfi_startproc
 501              		@ args = 0, pretend = 0, frame = 0
 502              		@ frame_needed = 0, uses_anonymous_args = 0
 503              	.LVL24:
 504 0000 10B5     		push	{r4, lr}
 505              		.cfi_def_cfa_offset 8
 506              		.cfi_offset 4, -8
 507              		.cfi_offset 14, -4
 508              	.LBB242:
 509              	.LBB243:
ARM GAS  /tmp/ccyMjK9R.s 			page 10


 510              	.LBB244:
 511              	.LBB245:
 512              		.loc 3 546 0
 513 0002 2023     		movs	r3, #32
 514              	@ 546 "ChibiOS_3.0.2/os/ext/CMSIS/include/core_cmFunc.h" 1
 515 0004 83F31188 		MSR basepri, r3
 516              	@ 0 "" 2
 517              		.thumb
 518              	.LBE245:
 519              	.LBE244:
 520              	.LBE243:
 521              	.LBE242:
 522              		.loc 1 266 0
 523 0008 084B     		ldr	r3, .L15
 524 000a 9B69     		ldr	r3, [r3, #24]
 525 000c 1C6C     		ldr	r4, [r3, #64]
 526              	.LVL25:
 527              		.loc 1 267 0
 528 000e 9968     		ldr	r1, [r3, #8]
 529 0010 8C42     		cmp	r4, r1
 530 0012 01D0     		beq	.L12
 531              		.loc 1 267 0 is_stmt 0 discriminator 1
 532 0014 8142     		cmp	r1, r0
 533 0016 00D2     		bcs	.L13
 534              	.L12:
 535              		.loc 1 268 0 is_stmt 1
 536 0018 9860     		str	r0, [r3, #8]
 537              	.L13:
 538              		.loc 1 270 0
 539 001a 1864     		str	r0, [r3, #64]
 540              		.loc 1 275 0
 541 001c FFF7FEFF 		bl	chSchRescheduleS
 542              	.LVL26:
 543              	.LBB246:
 544              	.LBB247:
 545              	.LBB248:
 546              	.LBB249:
 547              	.LBB250:
 548              		.loc 3 546 0
 549 0020 0023     		movs	r3, #0
 550              	@ 546 "ChibiOS_3.0.2/os/ext/CMSIS/include/core_cmFunc.h" 1
 551 0022 83F31188 		MSR basepri, r3
 552              	@ 0 "" 2
 553              		.thumb
 554              	.LBE250:
 555              	.LBE249:
 556              	.LBE248:
 557              	.LBE247:
 558              	.LBE246:
 559              		.loc 1 279 0
 560 0026 2046     		mov	r0, r4
 561 0028 10BD     		pop	{r4, pc}
 562              	.LVL27:
 563              	.L16:
 564 002a 00BF     		.align	2
 565              	.L15:
 566 002c 00000000 		.word	ch
ARM GAS  /tmp/ccyMjK9R.s 			page 11


 567              		.cfi_endproc
 568              	.LFE223:
 569              		.size	chThdSetPriority, .-chThdSetPriority
 570              		.section	.text.chThdTerminate,"ax",%progbits
 571              		.align	2
 572              		.p2align 4,,15
 573              		.global	chThdTerminate
 574              		.thumb
 575              		.thumb_func
 576              		.type	chThdTerminate, %function
 577              	chThdTerminate:
 578              	.LFB224:
 579              		.loc 1 293 0
 580              		.cfi_startproc
 581              		@ args = 0, pretend = 0, frame = 0
 582              		@ frame_needed = 0, uses_anonymous_args = 0
 583              		@ link register save eliminated.
 584              	.LVL28:
 585              	.LBB251:
 586              	.LBB252:
 587              	.LBB253:
 588              	.LBB254:
 589              		.loc 3 546 0
 590 0000 2023     		movs	r3, #32
 591              	@ 546 "ChibiOS_3.0.2/os/ext/CMSIS/include/core_cmFunc.h" 1
 592 0002 83F31188 		MSR basepri, r3
 593              	@ 0 "" 2
 594              		.thumb
 595              	.LBE254:
 596              	.LBE253:
 597              	.LBE252:
 598              	.LBE251:
 599              		.loc 1 296 0
 600 0006 437F     		ldrb	r3, [r0, #29]	@ zero_extendqisi2
 601 0008 43F00403 		orr	r3, r3, #4
 602 000c 4377     		strb	r3, [r0, #29]
 603              	.LVL29:
 604              	.LBB255:
 605              	.LBB256:
 606              	.LBB257:
 607              	.LBB258:
 608              	.LBB259:
 609              		.loc 3 546 0
 610 000e 0023     		movs	r3, #0
 611              	@ 546 "ChibiOS_3.0.2/os/ext/CMSIS/include/core_cmFunc.h" 1
 612 0010 83F31188 		MSR basepri, r3
 613              	@ 0 "" 2
 614              		.thumb
 615 0014 7047     		bx	lr
 616              	.LBE259:
 617              	.LBE258:
 618              	.LBE257:
 619              	.LBE256:
 620              	.LBE255:
 621              		.cfi_endproc
 622              	.LFE224:
 623              		.size	chThdTerminate, .-chThdTerminate
ARM GAS  /tmp/ccyMjK9R.s 			page 12


 624              		.section	.text.chThdSleep,"ax",%progbits
 625              		.align	2
 626              		.p2align 4,,15
 627              		.global	chThdSleep
 628              		.thumb
 629              		.thumb_func
 630              		.type	chThdSleep, %function
 631              	chThdSleep:
 632              	.LFB225:
 633              		.loc 1 312 0
 634              		.cfi_startproc
 635              		@ args = 0, pretend = 0, frame = 0
 636              		@ frame_needed = 0, uses_anonymous_args = 0
 637              	.LVL30:
 638 0000 08B5     		push	{r3, lr}
 639              		.cfi_def_cfa_offset 8
 640              		.cfi_offset 3, -8
 641              		.cfi_offset 14, -4
 642              		.loc 1 312 0
 643 0002 0146     		mov	r1, r0
 644              	.LBB260:
 645              	.LBB261:
 646              	.LBB262:
 647              	.LBB263:
 648              		.loc 3 546 0
 649 0004 2023     		movs	r3, #32
 650              	@ 546 "ChibiOS_3.0.2/os/ext/CMSIS/include/core_cmFunc.h" 1
 651 0006 83F31188 		MSR basepri, r3
 652              	@ 0 "" 2
 653              	.LVL31:
 654              		.thumb
 655              	.LBE263:
 656              	.LBE262:
 657              	.LBE261:
 658              	.LBE260:
 659              	.LBB264:
 660              	.LBB265:
 661              		.loc 4 268 0
 662 000a 0820     		movs	r0, #8
 663              	.LVL32:
 664 000c FFF7FEFF 		bl	chSchGoSleepTimeoutS
 665              	.LVL33:
 666              	.LBE265:
 667              	.LBE264:
 668              	.LBB266:
 669              	.LBB267:
 670              	.LBB268:
 671              	.LBB269:
 672              	.LBB270:
 673              		.loc 3 546 0
 674 0010 0023     		movs	r3, #0
 675              	@ 546 "ChibiOS_3.0.2/os/ext/CMSIS/include/core_cmFunc.h" 1
 676 0012 83F31188 		MSR basepri, r3
 677              	@ 0 "" 2
 678              		.thumb
 679 0016 08BD     		pop	{r3, pc}
 680              	.LBE270:
ARM GAS  /tmp/ccyMjK9R.s 			page 13


 681              	.LBE269:
 682              	.LBE268:
 683              	.LBE267:
 684              	.LBE266:
 685              		.cfi_endproc
 686              	.LFE225:
 687              		.size	chThdSleep, .-chThdSleep
 688 0018 AFF30080 		.section	.text.chThdSleepUntil,"ax",%progbits
 688      AFF30080 
 689              		.align	2
 690              		.p2align 4,,15
 691              		.global	chThdSleepUntil
 692              		.thumb
 693              		.thumb_func
 694              		.type	chThdSleepUntil, %function
 695              	chThdSleepUntil:
 696              	.LFB226:
 697              		.loc 1 332 0
 698              		.cfi_startproc
 699              		@ args = 0, pretend = 0, frame = 0
 700              		@ frame_needed = 0, uses_anonymous_args = 0
 701              	.LVL34:
 702 0000 08B5     		push	{r3, lr}
 703              		.cfi_def_cfa_offset 8
 704              		.cfi_offset 3, -8
 705              		.cfi_offset 14, -4
 706              	.LBB271:
 707              	.LBB272:
 708              	.LBB273:
 709              	.LBB274:
 710              		.loc 3 546 0
 711 0002 2023     		movs	r3, #32
 712              	@ 546 "ChibiOS_3.0.2/os/ext/CMSIS/include/core_cmFunc.h" 1
 713 0004 83F31188 		MSR basepri, r3
 714              	@ 0 "" 2
 715              		.thumb
 716              	.LBE274:
 717              	.LBE273:
 718              	.LBE272:
 719              	.LBE271:
 720              	.LBB275:
 721              	.LBB276:
 722              		.file 5 "ChibiOS_3.0.2/os/rt/include/chvt.h"
 723              		.loc 5 231 0
 724 0008 054B     		ldr	r3, .L24
 725 000a 9B6A     		ldr	r3, [r3, #40]
 726              	.LVL35:
 727              	.LBE276:
 728              	.LBE275:
 729              		.loc 1 336 0
 730 000c C11A     		subs	r1, r0, r3
 731              	.LVL36:
 732 000e 02D0     		beq	.L20
 733              	.LVL37:
 734              	.LBB277:
 735              	.LBB278:
 736              		.loc 4 268 0
ARM GAS  /tmp/ccyMjK9R.s 			page 14


 737 0010 0820     		movs	r0, #8
 738 0012 FFF7FEFF 		bl	chSchGoSleepTimeoutS
 739              	.LVL38:
 740              	.L20:
 741              	.LBE278:
 742              	.LBE277:
 743              	.LBB279:
 744              	.LBB280:
 745              	.LBB281:
 746              	.LBB282:
 747              	.LBB283:
 748              		.loc 3 546 0
 749 0016 0023     		movs	r3, #0
 750              	@ 546 "ChibiOS_3.0.2/os/ext/CMSIS/include/core_cmFunc.h" 1
 751 0018 83F31188 		MSR basepri, r3
 752              	@ 0 "" 2
 753              		.thumb
 754 001c 08BD     		pop	{r3, pc}
 755              	.L25:
 756 001e 00BF     		.align	2
 757              	.L24:
 758 0020 00000000 		.word	ch
 759              	.LBE283:
 760              	.LBE282:
 761              	.LBE281:
 762              	.LBE280:
 763              	.LBE279:
 764              		.cfi_endproc
 765              	.LFE226:
 766              		.size	chThdSleepUntil, .-chThdSleepUntil
 767 0024 AFF30080 		.section	.text.chThdSleepUntilWindowed,"ax",%progbits
 767      AFF30080 
 767      AFF30080 
 768              		.align	2
 769              		.p2align 4,,15
 770              		.global	chThdSleepUntilWindowed
 771              		.thumb
 772              		.thumb_func
 773              		.type	chThdSleepUntilWindowed, %function
 774              	chThdSleepUntilWindowed:
 775              	.LFB227:
 776              		.loc 1 356 0
 777              		.cfi_startproc
 778              		@ args = 0, pretend = 0, frame = 0
 779              		@ frame_needed = 0, uses_anonymous_args = 0
 780              	.LVL39:
 781 0000 10B5     		push	{r4, lr}
 782              		.cfi_def_cfa_offset 8
 783              		.cfi_offset 4, -8
 784              		.cfi_offset 14, -4
 785              	.LBB284:
 786              	.LBB285:
 787              	.LBB286:
 788              	.LBB287:
 789              		.loc 3 546 0
 790 0002 2023     		movs	r3, #32
 791              	.LBE287:
ARM GAS  /tmp/ccyMjK9R.s 			page 15


 792              	.LBE286:
 793              	.LBE285:
 794              	.LBE284:
 795              		.loc 1 356 0
 796 0004 0C46     		mov	r4, r1
 797              	.LBB291:
 798              	.LBB290:
 799              	.LBB289:
 800              	.LBB288:
 801              		.loc 3 546 0
 802              	@ 546 "ChibiOS_3.0.2/os/ext/CMSIS/include/core_cmFunc.h" 1
 803 0006 83F31188 		MSR basepri, r3
 804              	@ 0 "" 2
 805              		.thumb
 806              	.LBE288:
 807              	.LBE289:
 808              	.LBE290:
 809              	.LBE291:
 810              	.LBB292:
 811              	.LBB293:
 812              		.loc 5 231 0
 813 000a 074B     		ldr	r3, .L28
 814 000c 996A     		ldr	r1, [r3, #40]
 815              	.LVL40:
 816              	.LBE293:
 817              	.LBE292:
 818              	.LBB294:
 819              	.LBB295:
 820              		.loc 5 288 0
 821 000e 231A     		subs	r3, r4, r0
 822 0010 081A     		subs	r0, r1, r0
 823              	.LVL41:
 824              	.LBE295:
 825              	.LBE294:
 826              		.loc 1 361 0
 827 0012 9842     		cmp	r0, r3
 828 0014 03D2     		bcs	.L27
 829              	.LVL42:
 830              	.LBB296:
 831              	.LBB297:
 832              		.loc 4 268 0
 833 0016 611A     		subs	r1, r4, r1
 834              	.LVL43:
 835 0018 0820     		movs	r0, #8
 836 001a FFF7FEFF 		bl	chSchGoSleepTimeoutS
 837              	.LVL44:
 838              	.L27:
 839              	.LBE297:
 840              	.LBE296:
 841              	.LBB298:
 842              	.LBB299:
 843              	.LBB300:
 844              	.LBB301:
 845              	.LBB302:
 846              		.loc 3 546 0
 847 001e 0023     		movs	r3, #0
 848              	@ 546 "ChibiOS_3.0.2/os/ext/CMSIS/include/core_cmFunc.h" 1
ARM GAS  /tmp/ccyMjK9R.s 			page 16


 849 0020 83F31188 		MSR basepri, r3
 850              	@ 0 "" 2
 851              		.thumb
 852              	.LBE302:
 853              	.LBE301:
 854              	.LBE300:
 855              	.LBE299:
 856              	.LBE298:
 857              		.loc 1 367 0
 858 0024 2046     		mov	r0, r4
 859 0026 10BD     		pop	{r4, pc}
 860              	.LVL45:
 861              	.L29:
 862              		.align	2
 863              	.L28:
 864 0028 00000000 		.word	ch
 865              		.cfi_endproc
 866              	.LFE227:
 867              		.size	chThdSleepUntilWindowed, .-chThdSleepUntilWindowed
 868 002c AFF30080 		.section	.text.chThdYield,"ax",%progbits
 869              		.align	2
 870              		.p2align 4,,15
 871              		.global	chThdYield
 872              		.thumb
 873              		.thumb_func
 874              		.type	chThdYield, %function
 875              	chThdYield:
 876              	.LFB228:
 877              		.loc 1 376 0
 878              		.cfi_startproc
 879              		@ args = 0, pretend = 0, frame = 0
 880              		@ frame_needed = 0, uses_anonymous_args = 0
 881              	.LVL46:
 882 0000 08B5     		push	{r3, lr}
 883              		.cfi_def_cfa_offset 8
 884              		.cfi_offset 3, -8
 885              		.cfi_offset 14, -4
 886              	.LBB316:
 887              	.LBB317:
 888              	.LBB318:
 889              	.LBB319:
 890              		.loc 3 546 0
 891 0002 2023     		movs	r3, #32
 892              	@ 546 "ChibiOS_3.0.2/os/ext/CMSIS/include/core_cmFunc.h" 1
 893 0004 83F31188 		MSR basepri, r3
 894              	@ 0 "" 2
 895              		.thumb
 896              	.LBE319:
 897              	.LBE318:
 898              	.LBE317:
 899              	.LBE316:
 900              	.LBB320:
 901              	.LBB321:
 902              	.LBB322:
 903              	.LBB323:
 904              		.loc 2 731 0
 905 0008 064B     		ldr	r3, .L32
ARM GAS  /tmp/ccyMjK9R.s 			page 17


 906 000a 1A68     		ldr	r2, [r3]
 907 000c 9B69     		ldr	r3, [r3, #24]
 908              	.LBE323:
 909              	.LBE322:
 910              		.loc 2 745 0
 911 000e 9268     		ldr	r2, [r2, #8]
 912 0010 9B68     		ldr	r3, [r3, #8]
 913 0012 9A42     		cmp	r2, r3
 914 0014 01D3     		bcc	.L31
 915              		.loc 2 746 0
 916 0016 FFF7FEFF 		bl	chSchDoRescheduleBehind
 917              	.LVL47:
 918              	.L31:
 919              	.LBE321:
 920              	.LBE320:
 921              	.LBB324:
 922              	.LBB325:
 923              	.LBB326:
 924              	.LBB327:
 925              	.LBB328:
 926              		.loc 3 546 0
 927 001a 0023     		movs	r3, #0
 928              	@ 546 "ChibiOS_3.0.2/os/ext/CMSIS/include/core_cmFunc.h" 1
 929 001c 83F31188 		MSR basepri, r3
 930              	@ 0 "" 2
 931              		.thumb
 932 0020 08BD     		pop	{r3, pc}
 933              	.L33:
 934 0022 00BF     		.align	2
 935              	.L32:
 936 0024 00000000 		.word	ch
 937              	.LBE328:
 938              	.LBE327:
 939              	.LBE326:
 940              	.LBE325:
 941              	.LBE324:
 942              		.cfi_endproc
 943              	.LFE228:
 944              		.size	chThdYield, .-chThdYield
 945 0028 AFF30080 		.section	.text.chThdExitS,"ax",%progbits
 945      AFF30080 
 946              		.align	2
 947              		.p2align 4,,15
 948              		.global	chThdExitS
 949              		.thumb
 950              		.thumb_func
 951              		.type	chThdExitS, %function
 952              	chThdExitS:
 953              	.LFB230:
 954              		.loc 1 418 0
 955              		.cfi_startproc
 956              		@ args = 0, pretend = 0, frame = 0
 957              		@ frame_needed = 0, uses_anonymous_args = 0
 958              	.LVL48:
 959 0000 38B5     		push	{r3, r4, r5, lr}
 960              		.cfi_def_cfa_offset 16
 961              		.cfi_offset 3, -16
ARM GAS  /tmp/ccyMjK9R.s 			page 18


 962              		.cfi_offset 4, -12
 963              		.cfi_offset 5, -8
 964              		.cfi_offset 14, -4
 965              		.loc 1 419 0
 966 0002 0E4B     		ldr	r3, .L40
 967 0004 9C69     		ldr	r4, [r3, #24]
 968              	.LVL49:
 969              	.LBB329:
 970              	.LBB330:
 971              		.loc 2 592 0
 972 0006 A36A     		ldr	r3, [r4, #40]
 973              	.LBE330:
 974              	.LBE329:
 975              		.loc 1 421 0
 976 0008 6062     		str	r0, [r4, #36]
 977              		.loc 1 426 0
 978 000a 04F12805 		add	r5, r4, #40
 979              	.LVL50:
 980 000e 9D42     		cmp	r5, r3
 981 0010 07D0     		beq	.L38
 982              	.LVL51:
 983              	.L39:
 984              	.LBB332:
 985              	.LBB333:
 986              		.loc 2 646 0
 987 0012 1A68     		ldr	r2, [r3]
 988 0014 A262     		str	r2, [r4, #40]
 989              	.LBE333:
 990              	.LBE332:
 991              		.loc 1 427 0
 992 0016 1846     		mov	r0, r3
 993 0018 FFF7FEFF 		bl	chSchReadyI
 994              	.LVL52:
 995              	.LBB334:
 996              	.LBB331:
 997              		.loc 2 592 0
 998 001c A36A     		ldr	r3, [r4, #40]
 999              	.LBE331:
 1000              	.LBE334:
 1001              		.loc 1 426 0
 1002 001e AB42     		cmp	r3, r5
 1003 0020 F7D1     		bne	.L39
 1004              	.LVL53:
 1005              	.L38:
 1006              		.loc 1 433 0
 1007 0022 637F     		ldrb	r3, [r4, #29]	@ zero_extendqisi2
 1008 0024 9B07     		lsls	r3, r3, #30
 1009 0026 04D1     		bne	.L37
 1010              		.loc 1 434 0
 1011 0028 6369     		ldr	r3, [r4, #20]
 1012 002a 2269     		ldr	r2, [r4, #16]
 1013 002c 1A61     		str	r2, [r3, #16]
 1014 002e 2269     		ldr	r2, [r4, #16]
 1015 0030 5361     		str	r3, [r2, #20]
 1016              	.L37:
 1017              		.loc 1 437 0
 1018 0032 0F20     		movs	r0, #15
ARM GAS  /tmp/ccyMjK9R.s 			page 19


 1019              		.loc 1 441 0
 1020 0034 BDE83840 		pop	{r3, r4, r5, lr}
 1021              	.LVL54:
 1022              		.loc 1 437 0
 1023 0038 FFF7FEBF 		b	chSchGoSleepS
 1024              	.LVL55:
 1025              	.L41:
 1026              		.align	2
 1027              	.L40:
 1028 003c 00000000 		.word	ch
 1029              		.cfi_endproc
 1030              	.LFE230:
 1031              		.size	chThdExitS, .-chThdExitS
 1032              		.section	.text.chThdExit,"ax",%progbits
 1033              		.align	2
 1034              		.p2align 4,,15
 1035              		.global	chThdExit
 1036              		.thumb
 1037              		.thumb_func
 1038              		.type	chThdExit, %function
 1039              	chThdExit:
 1040              	.LFB229:
 1041              		.loc 1 397 0
 1042              		.cfi_startproc
 1043              		@ args = 0, pretend = 0, frame = 0
 1044              		@ frame_needed = 0, uses_anonymous_args = 0
 1045              		@ link register save eliminated.
 1046              	.LVL56:
 1047              	.LBB335:
 1048              	.LBB336:
 1049              	.LBB337:
 1050              	.LBB338:
 1051              		.loc 3 546 0
 1052 0000 2023     		movs	r3, #32
 1053              	@ 546 "ChibiOS_3.0.2/os/ext/CMSIS/include/core_cmFunc.h" 1
 1054 0002 83F31188 		MSR basepri, r3
 1055              	@ 0 "" 2
 1056              		.thumb
 1057              	.LBE338:
 1058              	.LBE337:
 1059              	.LBE336:
 1060              	.LBE335:
 1061              		.loc 1 400 0
 1062 0006 FFF7FEBF 		b	chThdExitS
 1063              	.LVL57:
 1064              		.cfi_endproc
 1065              	.LFE229:
 1066              		.size	chThdExit, .-chThdExit
 1067 000a 00BFAFF3 		.section	.text.chThdWait,"ax",%progbits
 1067      0080
 1068              		.align	2
 1069              		.p2align 4,,15
 1070              		.global	chThdWait
 1071              		.thumb
 1072              		.thumb_func
 1073              		.type	chThdWait, %function
 1074              	chThdWait:
ARM GAS  /tmp/ccyMjK9R.s 			page 20


 1075              	.LFB231:
 1076              		.loc 1 475 0
 1077              		.cfi_startproc
 1078              		@ args = 0, pretend = 0, frame = 0
 1079              		@ frame_needed = 0, uses_anonymous_args = 0
 1080              	.LVL58:
 1081 0000 38B5     		push	{r3, r4, r5, lr}
 1082              		.cfi_def_cfa_offset 16
 1083              		.cfi_offset 3, -16
 1084              		.cfi_offset 4, -12
 1085              		.cfi_offset 5, -8
 1086              		.cfi_offset 14, -4
 1087              		.loc 1 475 0
 1088 0002 0446     		mov	r4, r0
 1089              	.LBB339:
 1090              	.LBB340:
 1091              	.LBB341:
 1092              	.LBB342:
 1093              		.loc 3 546 0
 1094 0004 2023     		movs	r3, #32
 1095              	@ 546 "ChibiOS_3.0.2/os/ext/CMSIS/include/core_cmFunc.h" 1
 1096 0006 83F31188 		MSR basepri, r3
 1097              	@ 0 "" 2
 1098              		.thumb
 1099              	.LBE342:
 1100              	.LBE341:
 1101              	.LBE340:
 1102              	.LBE339:
 1103              		.loc 1 485 0
 1104 000a 037F     		ldrb	r3, [r0, #28]	@ zero_extendqisi2
 1105 000c 0F2B     		cmp	r3, #15
 1106 000e 07D0     		beq	.L44
 1107              		.loc 1 486 0
 1108 0010 084B     		ldr	r3, .L48
 1109              	.LBB343:
 1110              	.LBB344:
 1111              		.loc 2 639 0
 1112 0012 826A     		ldr	r2, [r0, #40]
 1113              	.LBE344:
 1114              	.LBE343:
 1115              		.loc 1 486 0
 1116 0014 9B69     		ldr	r3, [r3, #24]
 1117              	.LVL59:
 1118              		.loc 1 487 0
 1119 0016 0920     		movs	r0, #9
 1120              	.LVL60:
 1121              	.LBB346:
 1122              	.LBB345:
 1123              		.loc 2 639 0
 1124 0018 1A60     		str	r2, [r3]
 1125              		.loc 2 640 0
 1126 001a A362     		str	r3, [r4, #40]
 1127              	.LBE345:
 1128              	.LBE346:
 1129              		.loc 1 487 0
 1130 001c FFF7FEFF 		bl	chSchGoSleepS
 1131              	.LVL61:
ARM GAS  /tmp/ccyMjK9R.s 			page 21


 1132              	.L44:
 1133              		.loc 1 489 0
 1134 0020 656A     		ldr	r5, [r4, #36]
 1135              	.LVL62:
 1136              	.LBB347:
 1137              	.LBB348:
 1138              	.LBB349:
 1139              	.LBB350:
 1140              	.LBB351:
 1141              		.loc 3 546 0
 1142 0022 0023     		movs	r3, #0
 1143              	@ 546 "ChibiOS_3.0.2/os/ext/CMSIS/include/core_cmFunc.h" 1
 1144 0024 83F31188 		MSR basepri, r3
 1145              	@ 0 "" 2
 1146              		.thumb
 1147              	.LBE351:
 1148              	.LBE350:
 1149              	.LBE349:
 1150              	.LBE348:
 1151              	.LBE347:
 1152              		.loc 1 494 0
 1153 0028 2046     		mov	r0, r4
 1154 002a FFF7FEFF 		bl	chThdRelease
 1155              	.LVL63:
 1156              		.loc 1 498 0
 1157 002e 2846     		mov	r0, r5
 1158 0030 38BD     		pop	{r3, r4, r5, pc}
 1159              	.LVL64:
 1160              	.L49:
 1161 0032 00BF     		.align	2
 1162              	.L48:
 1163 0034 00000000 		.word	ch
 1164              		.cfi_endproc
 1165              	.LFE231:
 1166              		.size	chThdWait, .-chThdWait
 1167 0038 AFF30080 		.section	.text.chThdSuspendS,"ax",%progbits
 1167      AFF30080 
 1168              		.align	2
 1169              		.p2align 4,,15
 1170              		.global	chThdSuspendS
 1171              		.thumb
 1172              		.thumb_func
 1173              		.type	chThdSuspendS, %function
 1174              	chThdSuspendS:
 1175              	.LFB232:
 1176              		.loc 1 511 0
 1177              		.cfi_startproc
 1178              		@ args = 0, pretend = 0, frame = 0
 1179              		@ frame_needed = 0, uses_anonymous_args = 0
 1180              	.LVL65:
 1181 0000 10B5     		push	{r4, lr}
 1182              		.cfi_def_cfa_offset 8
 1183              		.cfi_offset 4, -8
 1184              		.cfi_offset 14, -4
 1185              	.LBB352:
 1186              	.LBB353:
 1187              		.loc 4 176 0
ARM GAS  /tmp/ccyMjK9R.s 			page 22


 1188 0002 054C     		ldr	r4, .L51
 1189 0004 A369     		ldr	r3, [r4, #24]
 1190              	.LBE353:
 1191              	.LBE352:
 1192              		.loc 1 516 0
 1193 0006 0360     		str	r3, [r0]
 1194              		.loc 1 511 0
 1195 0008 0246     		mov	r2, r0
 1196              		.loc 1 517 0
 1197 000a 5A62     		str	r2, [r3, #36]
 1198              		.loc 1 518 0
 1199 000c 0320     		movs	r0, #3
 1200              	.LVL66:
 1201 000e FFF7FEFF 		bl	chSchGoSleepS
 1202              	.LVL67:
 1203              		.loc 1 520 0
 1204 0012 A369     		ldr	r3, [r4, #24]
 1205              		.loc 1 521 0
 1206 0014 586A     		ldr	r0, [r3, #36]
 1207 0016 10BD     		pop	{r4, pc}
 1208              	.L52:
 1209              		.align	2
 1210              	.L51:
 1211 0018 00000000 		.word	ch
 1212              		.cfi_endproc
 1213              	.LFE232:
 1214              		.size	chThdSuspendS, .-chThdSuspendS
 1215 001c AFF30080 		.section	.text.chThdSuspendTimeoutS,"ax",%progbits
 1216              		.align	2
 1217              		.p2align 4,,15
 1218              		.global	chThdSuspendTimeoutS
 1219              		.thumb
 1220              		.thumb_func
 1221              		.type	chThdSuspendTimeoutS, %function
 1222              	chThdSuspendTimeoutS:
 1223              	.LFB233:
 1224              		.loc 1 542 0
 1225              		.cfi_startproc
 1226              		@ args = 0, pretend = 0, frame = 0
 1227              		@ frame_needed = 0, uses_anonymous_args = 0
 1228              		@ link register save eliminated.
 1229              	.LVL68:
 1230              	.LBB354:
 1231              	.LBB355:
 1232              		.loc 4 176 0
 1233 0000 054B     		ldr	r3, .L55
 1234              	.LBE355:
 1235              	.LBE354:
 1236              		.loc 1 542 0
 1237 0002 0246     		mov	r2, r0
 1238              	.LBB357:
 1239              	.LBB356:
 1240              		.loc 4 176 0
 1241 0004 9B69     		ldr	r3, [r3, #24]
 1242              	.LBE356:
 1243              	.LBE357:
 1244              		.loc 1 547 0
ARM GAS  /tmp/ccyMjK9R.s 			page 23


 1245 0006 21B1     		cbz	r1, .L54
 1246              		.loc 1 551 0
 1247 0008 0360     		str	r3, [r0]
 1248              		.loc 1 554 0
 1249 000a 0320     		movs	r0, #3
 1250              	.LVL69:
 1251              		.loc 1 552 0
 1252 000c 5A62     		str	r2, [r3, #36]
 1253              		.loc 1 554 0
 1254 000e FFF7FEBF 		b	chSchGoSleepTimeoutS
 1255              	.LVL70:
 1256              	.L54:
 1257              		.loc 1 555 0
 1258 0012 4FF0FF30 		mov	r0, #-1
 1259              	.LVL71:
 1260 0016 7047     		bx	lr
 1261              	.L56:
 1262              		.align	2
 1263              	.L55:
 1264 0018 00000000 		.word	ch
 1265              		.cfi_endproc
 1266              	.LFE233:
 1267              		.size	chThdSuspendTimeoutS, .-chThdSuspendTimeoutS
 1268 001c AFF30080 		.section	.text.chThdResumeI,"ax",%progbits
 1269              		.align	2
 1270              		.p2align 4,,15
 1271              		.global	chThdResumeI
 1272              		.thumb
 1273              		.thumb_func
 1274              		.type	chThdResumeI, %function
 1275              	chThdResumeI:
 1276              	.LFB234:
 1277              		.loc 1 567 0
 1278              		.cfi_startproc
 1279              		@ args = 0, pretend = 0, frame = 0
 1280              		@ frame_needed = 0, uses_anonymous_args = 0
 1281              		@ link register save eliminated.
 1282              	.LVL72:
 1283              		.loc 1 569 0
 1284 0000 0368     		ldr	r3, [r0]
 1285 0002 2BB1     		cbz	r3, .L57
 1286              	.LVL73:
 1287              	.LBB358:
 1288              		.loc 1 575 0
 1289 0004 0022     		movs	r2, #0
 1290 0006 0260     		str	r2, [r0]
 1291              		.loc 1 577 0
 1292 0008 1846     		mov	r0, r3
 1293              	.LVL74:
 1294              		.loc 1 576 0
 1295 000a 5962     		str	r1, [r3, #36]
 1296              		.loc 1 577 0
 1297 000c FFF7FEBF 		b	chSchReadyI
 1298              	.LVL75:
 1299              	.L57:
 1300 0010 7047     		bx	lr
 1301              	.LBE358:
ARM GAS  /tmp/ccyMjK9R.s 			page 24


 1302              		.cfi_endproc
 1303              	.LFE234:
 1304              		.size	chThdResumeI, .-chThdResumeI
 1305 0012 00BFAFF3 		.section	.text.chThdResumeS,"ax",%progbits
 1305      0080AFF3 
 1305      0080AFF3 
 1305      0080
 1306              		.align	2
 1307              		.p2align 4,,15
 1308              		.global	chThdResumeS
 1309              		.thumb
 1310              		.thumb_func
 1311              		.type	chThdResumeS, %function
 1312              	chThdResumeS:
 1313              	.LFB235:
 1314              		.loc 1 591 0
 1315              		.cfi_startproc
 1316              		@ args = 0, pretend = 0, frame = 0
 1317              		@ frame_needed = 0, uses_anonymous_args = 0
 1318              		@ link register save eliminated.
 1319              	.LVL76:
 1320              		.loc 1 591 0
 1321 0000 0346     		mov	r3, r0
 1322              		.loc 1 593 0
 1323 0002 0068     		ldr	r0, [r0]
 1324              	.LVL77:
 1325 0004 18B1     		cbz	r0, .L59
 1326              	.LVL78:
 1327              	.LBB359:
 1328              		.loc 1 599 0
 1329 0006 0022     		movs	r2, #0
 1330 0008 1A60     		str	r2, [r3]
 1331              		.loc 1 600 0
 1332 000a FFF7FEBF 		b	chSchWakeupS
 1333              	.LVL79:
 1334              	.L59:
 1335 000e 7047     		bx	lr
 1336              	.LBE359:
 1337              		.cfi_endproc
 1338              	.LFE235:
 1339              		.size	chThdResumeS, .-chThdResumeS
 1340              		.section	.text.chThdResume,"ax",%progbits
 1341              		.align	2
 1342              		.p2align 4,,15
 1343              		.global	chThdResume
 1344              		.thumb
 1345              		.thumb_func
 1346              		.type	chThdResume, %function
 1347              	chThdResume:
 1348              	.LFB236:
 1349              		.loc 1 614 0
 1350              		.cfi_startproc
 1351              		@ args = 0, pretend = 0, frame = 0
 1352              		@ frame_needed = 0, uses_anonymous_args = 0
 1353              	.LVL80:
 1354 0000 08B5     		push	{r3, lr}
 1355              		.cfi_def_cfa_offset 8
ARM GAS  /tmp/ccyMjK9R.s 			page 25


 1356              		.cfi_offset 3, -8
 1357              		.cfi_offset 14, -4
 1358              	.LBB360:
 1359              	.LBB361:
 1360              	.LBB362:
 1361              	.LBB363:
 1362              		.loc 3 546 0
 1363 0002 2022     		movs	r2, #32
 1364              	.LBE363:
 1365              	.LBE362:
 1366              	.LBE361:
 1367              	.LBE360:
 1368              		.loc 1 614 0
 1369 0004 0346     		mov	r3, r0
 1370              	.LVL81:
 1371              	.LBB367:
 1372              	.LBB366:
 1373              	.LBB365:
 1374              	.LBB364:
 1375              		.loc 3 546 0
 1376              	@ 546 "ChibiOS_3.0.2/os/ext/CMSIS/include/core_cmFunc.h" 1
 1377 0006 82F31188 		MSR basepri, r2
 1378              	@ 0 "" 2
 1379              	.LVL82:
 1380              		.thumb
 1381              	.LBE364:
 1382              	.LBE365:
 1383              	.LBE366:
 1384              	.LBE367:
 1385              	.LBB368:
 1386              	.LBB369:
 1387              		.loc 1 593 0
 1388 000a 0068     		ldr	r0, [r0]
 1389              	.LVL83:
 1390 000c 18B1     		cbz	r0, .L62
 1391              	.LVL84:
 1392              	.LBB370:
 1393              		.loc 1 599 0
 1394 000e 0022     		movs	r2, #0
 1395 0010 1A60     		str	r2, [r3]
 1396              		.loc 1 600 0
 1397 0012 FFF7FEFF 		bl	chSchWakeupS
 1398              	.LVL85:
 1399              	.L62:
 1400              	.LBE370:
 1401              	.LBE369:
 1402              	.LBE368:
 1403              	.LBB371:
 1404              	.LBB372:
 1405              	.LBB373:
 1406              	.LBB374:
 1407              	.LBB375:
 1408              		.loc 3 546 0
 1409 0016 0023     		movs	r3, #0
 1410              	@ 546 "ChibiOS_3.0.2/os/ext/CMSIS/include/core_cmFunc.h" 1
 1411 0018 83F31188 		MSR basepri, r3
 1412              	@ 0 "" 2
ARM GAS  /tmp/ccyMjK9R.s 			page 26


 1413              		.thumb
 1414 001c 08BD     		pop	{r3, pc}
 1415              	.LBE375:
 1416              	.LBE374:
 1417              	.LBE373:
 1418              	.LBE372:
 1419              	.LBE371:
 1420              		.cfi_endproc
 1421              	.LFE236:
 1422              		.size	chThdResume, .-chThdResume
 1423 001e 00BF     		.section	.text.chThdEnqueueTimeoutS,"ax",%progbits
 1424              		.align	2
 1425              		.p2align 4,,15
 1426              		.global	chThdEnqueueTimeoutS
 1427              		.thumb
 1428              		.thumb_func
 1429              		.type	chThdEnqueueTimeoutS, %function
 1430              	chThdEnqueueTimeoutS:
 1431              	.LFB237:
 1432              		.loc 1 644 0
 1433              		.cfi_startproc
 1434              		@ args = 0, pretend = 0, frame = 0
 1435              		@ frame_needed = 0, uses_anonymous_args = 0
 1436              		@ link register save eliminated.
 1437              	.LVL86:
 1438 0000 10B4     		push	{r4}
 1439              		.cfi_def_cfa_offset 4
 1440              		.cfi_offset 4, -4
 1441              		.loc 1 644 0
 1442 0002 0246     		mov	r2, r0
 1443              		.loc 1 646 0
 1444 0004 59B1     		cbz	r1, .L67
 1445              		.loc 1 650 0
 1446 0006 084B     		ldr	r3, .L68
 1447              	.LBB376:
 1448              	.LBB377:
 1449              		.loc 2 666 0
 1450 0008 4468     		ldr	r4, [r0, #4]
 1451              	.LBE377:
 1452              	.LBE376:
 1453              		.loc 1 650 0
 1454 000a 9B69     		ldr	r3, [r3, #24]
 1455              	.LVL87:
 1456              		.loc 1 652 0
 1457 000c 0420     		movs	r0, #4
 1458              	.LVL88:
 1459              	.LBB379:
 1460              	.LBB378:
 1461              		.loc 2 666 0
 1462 000e 83E81400 		stmia	r3, {r2, r4}
 1463              		.loc 2 667 0
 1464 0012 2360     		str	r3, [r4]
 1465              		.loc 2 668 0
 1466 0014 5360     		str	r3, [r2, #4]
 1467              	.LBE378:
 1468              	.LBE379:
 1469              		.loc 1 653 0
ARM GAS  /tmp/ccyMjK9R.s 			page 27


 1470 0016 5DF8044B 		ldr	r4, [sp], #4
 1471              		.loc 1 652 0
 1472 001a FFF7FEBF 		b	chSchGoSleepTimeoutS
 1473              	.LVL89:
 1474              	.L67:
 1475              		.loc 1 653 0
 1476 001e 4FF0FF30 		mov	r0, #-1
 1477              	.LVL90:
 1478 0022 5DF8044B 		ldr	r4, [sp], #4
 1479 0026 7047     		bx	lr
 1480              	.L69:
 1481              		.align	2
 1482              	.L68:
 1483 0028 00000000 		.word	ch
 1484              		.cfi_endproc
 1485              	.LFE237:
 1486              		.size	chThdEnqueueTimeoutS, .-chThdEnqueueTimeoutS
 1487 002c AFF30080 		.section	.text.chThdDequeueNextI,"ax",%progbits
 1488              		.align	2
 1489              		.p2align 4,,15
 1490              		.global	chThdDequeueNextI
 1491              		.thumb
 1492              		.thumb_func
 1493              		.type	chThdDequeueNextI, %function
 1494              	chThdDequeueNextI:
 1495              	.LFB238:
 1496              		.loc 1 664 0
 1497              		.cfi_startproc
 1498              		@ args = 0, pretend = 0, frame = 0
 1499              		@ frame_needed = 0, uses_anonymous_args = 0
 1500              		@ link register save eliminated.
 1501              	.LVL91:
 1502              	.LBB380:
 1503              	.LBB381:
 1504              		.loc 2 631 0
 1505 0000 0268     		ldr	r2, [r0]
 1506              	.LBE381:
 1507              	.LBE380:
 1508              		.loc 1 666 0
 1509 0002 9042     		cmp	r0, r2
 1510              		.loc 1 664 0
 1511 0004 10B4     		push	{r4}
 1512              		.cfi_def_cfa_offset 4
 1513              		.cfi_offset 4, -4
 1514              		.loc 1 664 0
 1515 0006 0346     		mov	r3, r0
 1516              	.LVL92:
 1517              		.loc 1 666 0
 1518 0008 08D0     		beq	.L70
 1519              	.LVL93:
 1520              	.LBB382:
 1521              	.LBB383:
 1522              	.LBB384:
 1523              	.LBB385:
 1524              		.loc 2 674 0
 1525 000a 1468     		ldr	r4, [r2]
 1526 000c 0460     		str	r4, [r0]
ARM GAS  /tmp/ccyMjK9R.s 			page 28


 1527              		.loc 2 675 0
 1528 000e 6360     		str	r3, [r4, #4]
 1529              	.LBE385:
 1530              	.LBE384:
 1531              		.loc 4 321 0
 1532 0010 5162     		str	r1, [r2, #36]
 1533              		.loc 4 322 0
 1534 0012 1046     		mov	r0, r2
 1535              	.LVL94:
 1536              	.LBE383:
 1537              	.LBE382:
 1538              		.loc 1 669 0
 1539 0014 5DF8044B 		ldr	r4, [sp], #4
 1540              	.LBB387:
 1541              	.LBB386:
 1542              		.loc 4 322 0
 1543 0018 FFF7FEBF 		b	chSchReadyI
 1544              	.LVL95:
 1545              	.L70:
 1546              	.LBE386:
 1547              	.LBE387:
 1548              		.loc 1 669 0
 1549 001c 5DF8044B 		ldr	r4, [sp], #4
 1550 0020 7047     		bx	lr
 1551              		.cfi_endproc
 1552              	.LFE238:
 1553              		.size	chThdDequeueNextI, .-chThdDequeueNextI
 1554 0022 00BFAFF3 		.section	.text.chThdDequeueAllI,"ax",%progbits
 1554      0080AFF3 
 1554      0080AFF3 
 1554      0080
 1555              		.align	2
 1556              		.p2align 4,,15
 1557              		.global	chThdDequeueAllI
 1558              		.thumb
 1559              		.thumb_func
 1560              		.type	chThdDequeueAllI, %function
 1561              	chThdDequeueAllI:
 1562              	.LFB239:
 1563              		.loc 1 679 0
 1564              		.cfi_startproc
 1565              		@ args = 0, pretend = 0, frame = 0
 1566              		@ frame_needed = 0, uses_anonymous_args = 0
 1567              	.LVL96:
 1568 0000 38B5     		push	{r3, r4, r5, lr}
 1569              		.cfi_def_cfa_offset 16
 1570              		.cfi_offset 3, -16
 1571              		.cfi_offset 4, -12
 1572              		.cfi_offset 5, -8
 1573              		.cfi_offset 14, -4
 1574              	.LBB388:
 1575              	.LBB389:
 1576              		.loc 2 631 0
 1577 0002 0368     		ldr	r3, [r0]
 1578              	.LBE389:
 1579              	.LBE388:
 1580              		.loc 1 681 0
ARM GAS  /tmp/ccyMjK9R.s 			page 29


 1581 0004 9842     		cmp	r0, r3
 1582              		.loc 1 679 0
 1583 0006 0446     		mov	r4, r0
 1584              	.LVL97:
 1585 0008 0D46     		mov	r5, r1
 1586              		.loc 1 681 0
 1587 000a 09D0     		beq	.L72
 1588              	.LVL98:
 1589              	.L75:
 1590              	.LBB391:
 1591              	.LBB392:
 1592              	.LBB393:
 1593              	.LBB394:
 1594              		.loc 2 674 0
 1595 000c 1A68     		ldr	r2, [r3]
 1596 000e 2260     		str	r2, [r4]
 1597              	.LBE394:
 1598              	.LBE393:
 1599              		.loc 4 322 0
 1600 0010 1846     		mov	r0, r3
 1601              	.LBB396:
 1602              	.LBB395:
 1603              		.loc 2 675 0
 1604 0012 5460     		str	r4, [r2, #4]
 1605              	.LBE395:
 1606              	.LBE396:
 1607              		.loc 4 321 0
 1608 0014 5D62     		str	r5, [r3, #36]
 1609              		.loc 4 322 0
 1610 0016 FFF7FEFF 		bl	chSchReadyI
 1611              	.LVL99:
 1612              	.LBE392:
 1613              	.LBE391:
 1614              	.LBB397:
 1615              	.LBB390:
 1616              		.loc 2 631 0
 1617 001a 2368     		ldr	r3, [r4]
 1618              	.LBE390:
 1619              	.LBE397:
 1620              		.loc 1 681 0
 1621 001c 9C42     		cmp	r4, r3
 1622 001e F5D1     		bne	.L75
 1623              	.LVL100:
 1624              	.L72:
 1625 0020 38BD     		pop	{r3, r4, r5, pc}
 1626              		.cfi_endproc
 1627              	.LFE239:
 1628              		.size	chThdDequeueAllI, .-chThdDequeueAllI
 1629              		.text
 1630              	.Letext0:
 1631              		.file 6 "/usr/lib/gcc/arm-none-eabi/4.8/include/stddef.h"
 1632              		.file 7 "/usr/include/newlib/machine/_default_types.h"
 1633              		.file 8 "/usr/include/newlib/stdint.h"
 1634              		.file 9 "ChibiOS_3.0.2/os/rt/ports/ARMCMx/compilers/GCC/chtypes.h"
 1635              		.file 10 "ChibiOS_3.0.2/os/rt/include/chsystypes.h"
 1636              		.file 11 "ChibiOS_3.0.2/os/rt/ports/ARMCMx/chcore.h"
 1637              		.file 12 "ChibiOS_3.0.2/os/rt/ports/ARMCMx/chcore_v7m.h"
ARM GAS  /tmp/ccyMjK9R.s 			page 30


 1638              		.file 13 "ChibiOS_3.0.2/os/rt/include/chtm.h"
 1639              		.file 14 "ChibiOS_3.0.2/os/rt/include/chsem.h"
 1640              		.file 15 "ChibiOS_3.0.2/os/rt/include/chmtx.h"
 1641              		.file 16 "ChibiOS_3.0.2/os/rt/include/chsys.h"
 1642              		.file 17 "ChibiOS_3.0.2/os/ext/CMSIS/include/core_cm4.h"
 1643              		.file 18 "ChibiOS_3.0.2/os/rt/include/chdynamic.h"