ARM GAS  /tmp/ccLdgR41.s 			page 1


   1              		.syntax unified
   2              		.cpu cortex-m4
   3              		.eabi_attribute 27, 3
   4              		.eabi_attribute 28, 1
   5              		.fpu fpv4-sp-d16
   6              		.eabi_attribute 20, 1
   7              		.eabi_attribute 21, 1
   8              		.eabi_attribute 23, 3
   9              		.eabi_attribute 24, 1
  10              		.eabi_attribute 25, 1
  11              		.eabi_attribute 26, 1
  12              		.eabi_attribute 30, 2
  13              		.eabi_attribute 34, 1
  14              		.eabi_attribute 18, 4
  15              		.thumb
  16              		.file	"chtm.c"
  17              		.text
  18              	.Ltext0:
  19              		.cfi_sections	.debug_frame
  20              		.section	.text.chTMObjectInit,"ax",%progbits
  21              		.align	2
  22              		.p2align 4,,15
  23              		.global	chTMObjectInit
  24              		.thumb
  25              		.thumb_func
  26              		.type	chTMObjectInit, %function
  27              	chTMObjectInit:
  28              	.LFB221:
  29              		.file 1 "ChibiOS_3.0.2/os/rt/src/chtm.c"
  30              		.loc 1 99 0
  31              		.cfi_startproc
  32              		@ args = 0, pretend = 0, frame = 0
  33              		@ frame_needed = 0, uses_anonymous_args = 0
  34              		@ link register save eliminated.
  35              	.LVL0:
  36              		.loc 1 105 0
  37 0000 0022     		movs	r2, #0
  38 0002 0023     		movs	r3, #0
  39 0004 C0E90423 		strd	r2, [r0, #16]
  40              		.loc 1 102 0
  41 0008 0023     		movs	r3, #0
  42 000a 4FF0FF32 		mov	r2, #-1
  43 000e 80E80C00 		stmia	r0, {r2, r3}
  44              		.loc 1 103 0
  45 0012 8360     		str	r3, [r0, #8]
  46              		.loc 1 104 0
  47 0014 C360     		str	r3, [r0, #12]
  48 0016 7047     		bx	lr
  49              		.cfi_endproc
  50              	.LFE221:
  51              		.size	chTMObjectInit, .-chTMObjectInit
  52 0018 AFF30080 		.section	.text.chTMStartMeasurementX,"ax",%progbits
  52      AFF30080 
  53              		.align	2
  54              		.p2align 4,,15
  55              		.global	chTMStartMeasurementX
  56              		.thumb
ARM GAS  /tmp/ccLdgR41.s 			page 2


  57              		.thumb_func
  58              		.type	chTMStartMeasurementX, %function
  59              	chTMStartMeasurementX:
  60              	.LFB222:
  61              		.loc 1 116 0
  62              		.cfi_startproc
  63              		@ args = 0, pretend = 0, frame = 0
  64              		@ frame_needed = 0, uses_anonymous_args = 0
  65              		@ link register save eliminated.
  66              	.LVL1:
  67              	.LBB14:
  68              	.LBB15:
  69              		.file 2 "ChibiOS_3.0.2/os/rt/ports/ARMCMx/chcore_v7m.h"
  70              		.loc 2 548 0
  71 0000 014B     		ldr	r3, .L3
  72 0002 5B68     		ldr	r3, [r3, #4]
  73              	.LBE15:
  74              	.LBE14:
  75              		.loc 1 118 0
  76 0004 8360     		str	r3, [r0, #8]
  77 0006 7047     		bx	lr
  78              	.L4:
  79              		.align	2
  80              	.L3:
  81 0008 001000E0 		.word	-536866816
  82              		.cfi_endproc
  83              	.LFE222:
  84              		.size	chTMStartMeasurementX, .-chTMStartMeasurementX
  85 000c AFF30080 		.section	.text.chTMStopMeasurementX,"ax",%progbits
  86              		.align	2
  87              		.p2align 4,,15
  88              		.global	chTMStopMeasurementX
  89              		.thumb
  90              		.thumb_func
  91              		.type	chTMStopMeasurementX, %function
  92              	chTMStopMeasurementX:
  93              	.LFB223:
  94              		.loc 1 129 0
  95              		.cfi_startproc
  96              		@ args = 0, pretend = 0, frame = 0
  97              		@ frame_needed = 0, uses_anonymous_args = 0
  98              		@ link register save eliminated.
  99              	.LVL2:
 100              	.LBB16:
 101              	.LBB17:
 102              		.loc 2 548 0
 103 0000 0F4A     		ldr	r2, .L10
 104              	.LBE17:
 105              	.LBE16:
 106              		.loc 1 131 0
 107 0002 104B     		ldr	r3, .L10+4
 108              	.LBB19:
 109              	.LBB18:
 110              		.loc 2 548 0
 111 0004 5168     		ldr	r1, [r2, #4]
 112              	.LBE18:
 113              	.LBE19:
ARM GAS  /tmp/ccLdgR41.s 			page 3


 114              		.loc 1 129 0
 115 0006 F0B4     		push	{r4, r5, r6, r7}
 116              		.cfi_def_cfa_offset 16
 117              		.cfi_offset 4, -16
 118              		.cfi_offset 5, -12
 119              		.cfi_offset 6, -8
 120              		.cfi_offset 7, -4
 121              	.LBB20:
 122              	.LBB21:
 123              		.loc 1 58 0
 124 0008 8668     		ldr	r6, [r0, #8]
 125              	.LBE21:
 126              	.LBE20:
 127              		.loc 1 131 0
 128 000a 9F6F     		ldr	r7, [r3, #120]
 129              	.LVL3:
 130              	.LBB24:
 131              	.LBB22:
 132              		.loc 1 57 0
 133 000c C568     		ldr	r5, [r0, #12]
 134              		.loc 1 61 0
 135 000e 4468     		ldr	r4, [r0, #4]
 136              		.loc 1 59 0
 137 0010 D0E90423 		ldrd	r2, [r0, #16]
 138              		.loc 1 58 0
 139 0014 891B     		subs	r1, r1, r6
 140              	.LVL4:
 141 0016 C91B     		subs	r1, r1, r7
 142              		.loc 1 59 0
 143 0018 5218     		adds	r2, r2, r1
 144 001a 43F10003 		adc	r3, r3, #0
 145              		.loc 1 57 0
 146 001e 0135     		adds	r5, r5, #1
 147              		.loc 1 61 0
 148 0020 A142     		cmp	r1, r4
 149              		.loc 1 57 0
 150 0022 C560     		str	r5, [r0, #12]
 151              		.loc 1 58 0
 152 0024 8160     		str	r1, [r0, #8]
 153              		.loc 1 59 0
 154 0026 C0E90423 		strd	r2, [r0, #16]
 155              		.loc 1 61 0
 156 002a 05D8     		bhi	.L9
 157              		.loc 1 64 0
 158 002c 0368     		ldr	r3, [r0]
 159 002e 9942     		cmp	r1, r3
 160              		.loc 1 65 0
 161 0030 38BF     		it	cc
 162 0032 0160     		strcc	r1, [r0]
 163              	.LBE22:
 164              	.LBE24:
 165              		.loc 1 132 0
 166 0034 F0BC     		pop	{r4, r5, r6, r7}
 167              	.LVL5:
 168 0036 7047     		bx	lr
 169              	.LVL6:
 170              	.L9:
ARM GAS  /tmp/ccLdgR41.s 			page 4


 171              	.LBB25:
 172              	.LBB23:
 173              		.loc 1 62 0
 174 0038 4160     		str	r1, [r0, #4]
 175              	.LBE23:
 176              	.LBE25:
 177              		.loc 1 132 0
 178 003a F0BC     		pop	{r4, r5, r6, r7}
 179              	.LVL7:
 180 003c 7047     		bx	lr
 181              	.L11:
 182 003e 00BF     		.align	2
 183              	.L10:
 184 0040 001000E0 		.word	-536866816
 185 0044 00000000 		.word	ch
 186              		.cfi_endproc
 187              	.LFE223:
 188              		.size	chTMStopMeasurementX, .-chTMStopMeasurementX
 189 0048 AFF30080 		.section	.text._tm_init,"ax",%progbits
 189      AFF30080 
 190              		.align	2
 191              		.p2align 4,,15
 192              		.global	_tm_init
 193              		.thumb
 194              		.thumb_func
 195              		.type	_tm_init, %function
 196              	_tm_init:
 197              	.LFB220:
 198              		.loc 1 79 0
 199              		.cfi_startproc
 200              		@ args = 0, pretend = 0, frame = 24
 201              		@ frame_needed = 0, uses_anonymous_args = 0
 202 0000 30B5     		push	{r4, r5, lr}
 203              		.cfi_def_cfa_offset 12
 204              		.cfi_offset 4, -12
 205              		.cfi_offset 5, -8
 206              		.cfi_offset 14, -4
 207              		.loc 1 85 0
 208 0002 0C4C     		ldr	r4, .L13
 209              		.loc 1 79 0
 210 0004 87B0     		sub	sp, sp, #28
 211              		.cfi_def_cfa_offset 40
 212              		.loc 1 85 0
 213 0006 0021     		movs	r1, #0
 214              	.LBB26:
 215              	.LBB27:
 216              		.loc 1 105 0
 217 0008 0022     		movs	r2, #0
 218 000a 0023     		movs	r3, #0
 219              	.LBE27:
 220              	.LBE26:
 221              		.loc 1 87 0
 222 000c 6846     		mov	r0, sp
 223              	.LBB30:
 224              	.LBB28:
 225              		.loc 1 101 0
 226 000e 4FF0FF35 		mov	r5, #-1
ARM GAS  /tmp/ccLdgR41.s 			page 5


 227              		.loc 1 105 0
 228 0012 CDE90423 		strd	r2, [sp, #16]
 229              	.LBE28:
 230              	.LBE30:
 231              		.loc 1 85 0
 232 0016 A167     		str	r1, [r4, #120]
 233              	.LVL8:
 234              	.LBB31:
 235              	.LBB29:
 236              		.loc 1 102 0
 237 0018 0191     		str	r1, [sp, #4]
 238              		.loc 1 103 0
 239 001a 0291     		str	r1, [sp, #8]
 240              		.loc 1 104 0
 241 001c 0391     		str	r1, [sp, #12]
 242              		.loc 1 101 0
 243 001e 0095     		str	r5, [sp]
 244              	.LBE29:
 245              	.LBE31:
 246              		.loc 1 87 0
 247 0020 FFF7FEFF 		bl	chTMStartMeasurementX
 248              	.LVL9:
 249              		.loc 1 88 0
 250 0024 6846     		mov	r0, sp
 251 0026 FFF7FEFF 		bl	chTMStopMeasurementX
 252              	.LVL10:
 253              		.loc 1 89 0
 254 002a 029B     		ldr	r3, [sp, #8]
 255 002c A367     		str	r3, [r4, #120]
 256              		.loc 1 90 0
 257 002e 07B0     		add	sp, sp, #28
 258              	.LVL11:
 259              		@ sp needed
 260 0030 30BD     		pop	{r4, r5, pc}
 261              	.LVL12:
 262              	.L14:
 263 0032 00BF     		.align	2
 264              	.L13:
 265 0034 00000000 		.word	ch
 266              		.cfi_endproc
 267              	.LFE220:
 268              		.size	_tm_init, .-_tm_init
 269 0038 AFF30080 		.section	.text.chTMChainMeasurementToX,"ax",%progbits
 269      AFF30080 
 270              		.align	2
 271              		.p2align 4,,15
 272              		.global	chTMChainMeasurementToX
 273              		.thumb
 274              		.thumb_func
 275              		.type	chTMChainMeasurementToX, %function
 276              	chTMChainMeasurementToX:
 277              	.LFB224:
 278              		.loc 1 147 0
 279              		.cfi_startproc
 280              		@ args = 0, pretend = 0, frame = 0
 281              		@ frame_needed = 0, uses_anonymous_args = 0
 282              		@ link register save eliminated.
ARM GAS  /tmp/ccLdgR41.s 			page 6


 283              	.LVL13:
 284              	.LBB32:
 285              	.LBB33:
 286              		.loc 2 548 0
 287 0000 0E4B     		ldr	r3, .L19
 288              	.LBE33:
 289              	.LBE32:
 290              		.loc 1 147 0
 291 0002 70B4     		push	{r4, r5, r6}
 292              		.cfi_def_cfa_offset 12
 293              		.cfi_offset 4, -12
 294              		.cfi_offset 5, -8
 295              		.cfi_offset 6, -4
 296              	.LBB35:
 297              	.LBB34:
 298              		.loc 2 548 0
 299 0004 5C68     		ldr	r4, [r3, #4]
 300              	.LBE34:
 301              	.LBE35:
 302              		.loc 1 150 0
 303 0006 8C60     		str	r4, [r1, #8]
 304              	.LVL14:
 305              	.LBB36:
 306              	.LBB37:
 307              		.loc 1 59 0
 308 0008 D0E90423 		ldrd	r2, [r0, #16]
 309              		.loc 1 58 0
 310 000c 8168     		ldr	r1, [r0, #8]
 311              	.LVL15:
 312              		.loc 1 57 0
 313 000e C668     		ldr	r6, [r0, #12]
 314              		.loc 1 61 0
 315 0010 4568     		ldr	r5, [r0, #4]
 316              		.loc 1 58 0
 317 0012 611A     		subs	r1, r4, r1
 318              		.loc 1 59 0
 319 0014 5218     		adds	r2, r2, r1
 320 0016 43F10003 		adc	r3, r3, #0
 321              		.loc 1 57 0
 322 001a 0136     		adds	r6, r6, #1
 323              		.loc 1 61 0
 324 001c A942     		cmp	r1, r5
 325              		.loc 1 57 0
 326 001e C660     		str	r6, [r0, #12]
 327              		.loc 1 58 0
 328 0020 8160     		str	r1, [r0, #8]
 329              		.loc 1 59 0
 330 0022 C0E90423 		strd	r2, [r0, #16]
 331              		.loc 1 61 0
 332 0026 05D8     		bhi	.L18
 333              		.loc 1 64 0
 334 0028 0368     		ldr	r3, [r0]
 335 002a 9942     		cmp	r1, r3
 336              		.loc 1 65 0
 337 002c 38BF     		it	cc
 338 002e 0160     		strcc	r1, [r0]
 339              	.LBE37:
ARM GAS  /tmp/ccLdgR41.s 			page 7


 340              	.LBE36:
 341              		.loc 1 154 0
 342 0030 70BC     		pop	{r4, r5, r6}
 343              	.LVL16:
 344 0032 7047     		bx	lr
 345              	.LVL17:
 346              	.L18:
 347              	.LBB39:
 348              	.LBB38:
 349              		.loc 1 62 0
 350 0034 4160     		str	r1, [r0, #4]
 351              	.LBE38:
 352              	.LBE39:
 353              		.loc 1 154 0
 354 0036 70BC     		pop	{r4, r5, r6}
 355              	.LVL18:
 356 0038 7047     		bx	lr
 357              	.L20:
 358 003a 00BF     		.align	2
 359              	.L19:
 360 003c 001000E0 		.word	-536866816
 361              		.cfi_endproc
 362              	.LFE224:
 363              		.size	chTMChainMeasurementToX, .-chTMChainMeasurementToX
 364              		.text
 365              	.Letext0:
 366              		.file 3 "/usr/include/newlib/machine/_default_types.h"
 367              		.file 4 "/usr/include/newlib/stdint.h"
 368              		.file 5 "ChibiOS_3.0.2/os/rt/ports/ARMCMx/compilers/GCC/chtypes.h"
 369              		.file 6 "ChibiOS_3.0.2/os/rt/include/chsystypes.h"
 370              		.file 7 "ChibiOS_3.0.2/os/rt/include/chschd.h"
 371              		.file 8 "ChibiOS_3.0.2/os/ext/CMSIS/include/core_cm4.h"
 372              		.file 9 "ChibiOS_3.0.2/os/rt/ports/ARMCMx/chcore.h"
 373              		.file 10 "ChibiOS_3.0.2/os/rt/include/chtm.h"
 374              		.file 11 "ChibiOS_3.0.2/os/rt/include/chsem.h"
 375              		.file 12 "ChibiOS_3.0.2/os/rt/include/chmtx.h"