ARM GAS  /tmp/ccwYtwwJ.s 			page 1


   1              		.syntax unified
   2              		.cpu cortex-m4
   3              		.eabi_attribute 27, 3
   4              		.eabi_attribute 28, 1
   5              		.fpu fpv4-sp-d16
   6              		.eabi_attribute 20, 1
   7              		.eabi_attribute 21, 1
   8              		.eabi_attribute 23, 3
   9              		.eabi_attribute 24, 1
  10              		.eabi_attribute 25, 1
  11              		.eabi_attribute 26, 1
  12              		.eabi_attribute 30, 2
  13              		.eabi_attribute 34, 1
  14              		.eabi_attribute 18, 4
  15              		.thumb
  16              		.file	"chvt.c"
  17              		.text
  18              	.Ltext0:
  19              		.cfi_sections	.debug_frame
  20              		.section	.text._vt_init,"ax",%progbits
  21              		.align	2
  22              		.p2align 4,,15
  23              		.global	_vt_init
  24              		.thumb
  25              		.thumb_func
  26              		.type	_vt_init, %function
  27              	_vt_init:
  28              	.LFB219:
  29              		.file 1 "ChibiOS_3.0.2/os/rt/src/chvt.c"
  30              		.loc 1 61 0
  31              		.cfi_startproc
  32              		@ args = 0, pretend = 0, frame = 0
  33              		@ frame_needed = 0, uses_anonymous_args = 0
  34              		@ link register save eliminated.
  35              		.loc 1 63 0
  36 0000 054B     		ldr	r3, .L2
  37              		.loc 1 65 0
  38 0002 4FF0FF30 		mov	r0, #-1
  39              		.loc 1 63 0
  40 0006 03F11C02 		add	r2, r3, #28
  41              		.loc 1 67 0
  42 000a 0021     		movs	r1, #0
  43              		.loc 1 65 0
  44 000c 5862     		str	r0, [r3, #36]
  45              		.loc 1 67 0
  46 000e 9962     		str	r1, [r3, #40]
  47              		.loc 1 63 0
  48 0010 DA61     		str	r2, [r3, #28]
  49              		.loc 1 64 0
  50 0012 1A62     		str	r2, [r3, #32]
  51 0014 7047     		bx	lr
  52              	.L3:
  53 0016 00BF     		.align	2
  54              	.L2:
  55 0018 00000000 		.word	ch
  56              		.cfi_endproc
  57              	.LFE219:
ARM GAS  /tmp/ccwYtwwJ.s 			page 2


  58              		.size	_vt_init, .-_vt_init
  59 001c AFF30080 		.section	.text.chVTDoSetI,"ax",%progbits
  60              		.align	2
  61              		.p2align 4,,15
  62              		.global	chVTDoSetI
  63              		.thumb
  64              		.thumb_func
  65              		.type	chVTDoSetI, %function
  66              	chVTDoSetI:
  67              	.LFB220:
  68              		.loc 1 96 0
  69              		.cfi_startproc
  70              		@ args = 0, pretend = 0, frame = 0
  71              		@ frame_needed = 0, uses_anonymous_args = 0
  72              		@ link register save eliminated.
  73              	.LVL0:
  74 0000 70B4     		push	{r4, r5, r6}
  75              		.cfi_def_cfa_offset 12
  76              		.cfi_offset 4, -12
  77              		.cfi_offset 5, -8
  78              		.cfi_offset 6, -4
  79              		.loc 1 150 0
  80 0002 0D4E     		ldr	r6, .L8
  81 0004 F469     		ldr	r4, [r6, #28]
  82              		.loc 1 151 0
  83 0006 A568     		ldr	r5, [r4, #8]
  84              		.loc 1 103 0
  85 0008 0361     		str	r3, [r0, #16]
  86              		.loc 1 151 0
  87 000a A942     		cmp	r1, r5
  88              		.loc 1 104 0
  89 000c C260     		str	r2, [r0, #12]
  90              	.LVL1:
  91              		.loc 1 151 0
  92 000e 04D9     		bls	.L5
  93              	.LVL2:
  94              	.L6:
  95              		.loc 1 153 0
  96 0010 2468     		ldr	r4, [r4]
  97              	.LVL3:
  98              		.loc 1 152 0
  99 0012 491B     		subs	r1, r1, r5
 100              	.LVL4:
 101              		.loc 1 151 0
 102 0014 A568     		ldr	r5, [r4, #8]
 103 0016 8D42     		cmp	r5, r1
 104 0018 FAD3     		bcc	.L6
 105              	.L5:
 106              		.loc 1 158 0
 107 001a 6368     		ldr	r3, [r4, #4]
 108              	.LVL5:
 109 001c 4360     		str	r3, [r0, #4]
 110              		.loc 1 157 0
 111 001e 0460     		str	r4, [r0]
 112              		.loc 1 159 0
 113 0020 1860     		str	r0, [r3]
 114              		.loc 1 160 0
ARM GAS  /tmp/ccwYtwwJ.s 			page 3


 115 0022 6060     		str	r0, [r4, #4]
 116              		.loc 1 161 0
 117 0024 8160     		str	r1, [r0, #8]
 118              		.loc 1 165 0
 119 0026 A368     		ldr	r3, [r4, #8]
 120              		.loc 1 166 0
 121 0028 4FF0FF32 		mov	r2, #-1
 122              	.LVL6:
 123              		.loc 1 165 0
 124 002c 591A     		subs	r1, r3, r1
 125              	.LVL7:
 126 002e A160     		str	r1, [r4, #8]
 127              	.LVL8:
 128              		.loc 1 166 0
 129 0030 7262     		str	r2, [r6, #36]
 130              		.loc 1 167 0
 131 0032 70BC     		pop	{r4, r5, r6}
 132              	.LVL9:
 133 0034 7047     		bx	lr
 134              	.L9:
 135 0036 00BF     		.align	2
 136              	.L8:
 137 0038 00000000 		.word	ch
 138              		.cfi_endproc
 139              	.LFE220:
 140              		.size	chVTDoSetI, .-chVTDoSetI
 141 003c AFF30080 		.section	.text.chVTDoResetI,"ax",%progbits
 142              		.align	2
 143              		.p2align 4,,15
 144              		.global	chVTDoResetI
 145              		.thumb
 146              		.thumb_func
 147              		.type	chVTDoResetI, %function
 148              	chVTDoResetI:
 149              	.LFB221:
 150              		.loc 1 177 0
 151              		.cfi_startproc
 152              		@ args = 0, pretend = 0, frame = 0
 153              		@ frame_needed = 0, uses_anonymous_args = 0
 154              		@ link register save eliminated.
 155              	.LVL10:
 156              		.loc 1 186 0
 157 0000 0368     		ldr	r3, [r0]
 158 0002 8168     		ldr	r1, [r0, #8]
 159              		.loc 1 189 0
 160 0004 4268     		ldr	r2, [r0, #4]
 161              		.loc 1 177 0
 162 0006 30B4     		push	{r4, r5}
 163              		.cfi_def_cfa_offset 8
 164              		.cfi_offset 4, -8
 165              		.cfi_offset 5, -4
 166              		.loc 1 186 0
 167 0008 9C68     		ldr	r4, [r3, #8]
 168              		.loc 1 195 0
 169 000a 064D     		ldr	r5, .L11
 170              		.loc 1 186 0
 171 000c 2144     		add	r1, r1, r4
ARM GAS  /tmp/ccwYtwwJ.s 			page 4


 172 000e 9960     		str	r1, [r3, #8]
 173              		.loc 1 189 0
 174 0010 1360     		str	r3, [r2]
 175              		.loc 1 190 0
 176 0012 0368     		ldr	r3, [r0]
 177              		.loc 1 191 0
 178 0014 0024     		movs	r4, #0
 179              		.loc 1 195 0
 180 0016 4FF0FF31 		mov	r1, #-1
 181              		.loc 1 190 0
 182 001a 5A60     		str	r2, [r3, #4]
 183              		.loc 1 191 0
 184 001c C460     		str	r4, [r0, #12]
 185              		.loc 1 195 0
 186 001e 6962     		str	r1, [r5, #36]
 187              		.loc 1 255 0
 188 0020 30BC     		pop	{r4, r5}
 189 0022 7047     		bx	lr
 190              	.L12:
 191              		.align	2
 192              	.L11:
 193 0024 00000000 		.word	ch
 194              		.cfi_endproc
 195              	.LFE221:
 196              		.size	chVTDoResetI, .-chVTDoResetI
 197 0028 AFF30080 		.text
 197      AFF30080 
 198              	.Letext0:
 199              		.file 2 "/usr/include/newlib/machine/_default_types.h"
 200              		.file 3 "/usr/include/newlib/stdint.h"
 201              		.file 4 "ChibiOS_3.0.2/os/rt/ports/ARMCMx/compilers/GCC/chtypes.h"
 202              		.file 5 "ChibiOS_3.0.2/os/rt/include/chsystypes.h"
 203              		.file 6 "ChibiOS_3.0.2/os/rt/include/chschd.h"
 204              		.file 7 "ChibiOS_3.0.2/os/rt/ports/ARMCMx/chcore.h"
 205              		.file 8 "ChibiOS_3.0.2/os/rt/ports/ARMCMx/chcore_v7m.h"
 206              		.file 9 "ChibiOS_3.0.2/os/rt/include/chtm.h"
 207              		.file 10 "ChibiOS_3.0.2/os/rt/include/chsem.h"
 208              		.file 11 "ChibiOS_3.0.2/os/rt/include/chmtx.h"
 209              		.file 12 "ChibiOS_3.0.2/os/ext/CMSIS/include/core_cm4.h"