ARM GAS  /tmp/ccGCfXPn.s 			page 1


   1              		.syntax unified
   2              		.cpu cortex-m4
   3              		.eabi_attribute 27, 3
   4              		.eabi_attribute 28, 1
   5              		.fpu fpv4-sp-d16
   6              		.eabi_attribute 20, 1
   7              		.eabi_attribute 21, 1
   8              		.eabi_attribute 23, 3
   9              		.eabi_attribute 24, 1
  10              		.eabi_attribute 25, 1
  11              		.eabi_attribute 26, 1
  12              		.eabi_attribute 30, 2
  13              		.eabi_attribute 34, 1
  14              		.eabi_attribute 18, 4
  15              		.thumb
  16              		.file	"comm_can.c"
  17              		.text
  18              	.Ltext0:
  19              		.cfi_sections	.debug_frame
  20              		.section	.text.cancom_read_thread,"ax",%progbits
  21              		.align	2
  22              		.p2align 4,,15
  23              		.thumb
  24              		.thumb_func
  25              		.type	cancom_read_thread, %function
  26              	cancom_read_thread:
  27              	.LFB258:
  28              		.file 1 "comm_can.c"
  29              		.loc 1 116 0
  30              		.cfi_startproc
  31              		@ args = 0, pretend = 0, frame = 40
  32              		@ frame_needed = 0, uses_anonymous_args = 0
  33              	.LVL0:
  34 0000 2DE9F043 		push	{r4, r5, r6, r7, r8, r9, lr}
  35              		.cfi_def_cfa_offset 28
  36              		.cfi_offset 4, -28
  37              		.cfi_offset 5, -24
  38              		.cfi_offset 6, -20
  39              		.cfi_offset 7, -16
  40              		.cfi_offset 8, -12
  41              		.cfi_offset 9, -8
  42              		.cfi_offset 14, -4
  43              	.LBB65:
  44              	.LBB66:
  45              		.file 2 "ChibiOS_3.0.2/os/rt/include/chregistry.h"
  46              		.loc 2 135 0
  47 0004 DFF8B490 		ldr	r9, .L13+20
  48 0008 274A     		ldr	r2, .L13
  49 000a D9F81830 		ldr	r3, [r9, #24]
  50              	.LBE66:
  51              	.LBE65:
  52              	.LBB68:
  53              	.LBB69:
  54              	.LBB70:
  55              		.file 3 "ChibiOS_3.0.2/os/rt/include/chevents.h"
  56              		.loc 3 193 0
  57 000e 2748     		ldr	r0, .L13+4
ARM GAS  /tmp/ccGCfXPn.s 			page 2


  58              	.LVL1:
  59              	.LBE70:
  60              	.LBE69:
  61              	.LBE68:
  62              	.LBB73:
  63              	.LBB67:
  64              		.loc 2 135 0
  65 0010 9A61     		str	r2, [r3, #24]
  66              	.LVL2:
  67              	.LBE67:
  68              	.LBE73:
  69              		.loc 1 116 0
  70 0012 8BB0     		sub	sp, sp, #44
  71              		.cfi_def_cfa_offset 72
  72              	.LVL3:
  73              	.LBB74:
  74              	.LBB72:
  75              	.LBB71:
  76              		.loc 3 193 0
  77 0014 6946     		mov	r1, sp
  78 0016 0122     		movs	r2, #1
  79 0018 4FF0FF33 		mov	r3, #-1
  80 001c FFF7FEFF 		bl	chEvtRegisterMaskWithFlags
  81              	.LVL4:
  82 0020 234E     		ldr	r6, .L13+8
  83              	.L4:
  84              	.LBE71:
  85              	.LBE72:
  86              	.LBE74:
  87              	.LBB75:
  88              	.LBB76:
  89              		.file 4 "ChibiOS_3.0.2/os/rt/include/chthreads.h"
  90              		.loc 4 233 0 discriminator 1
  91 0022 D9F81830 		ldr	r3, [r9, #24]
  92 0026 5B7F     		ldrb	r3, [r3, #29]	@ zero_extendqisi2
  93 0028 03F00403 		and	r3, r3, #4
  94              	.LBE76:
  95              	.LBE75:
  96              		.loc 1 125 0 discriminator 1
  97 002c 03F0FF04 		and	r4, r3, #255
  98 0030 002B     		cmp	r3, #0
  99 0032 31D1     		bne	.L12
 100              	.LBB77:
 101              		.loc 1 126 0
 102 0034 4FF0FF30 		mov	r0, #-1
 103 0038 6421     		movs	r1, #100
 104 003a FFF7FEFF 		bl	chEvtWaitAnyTimeout
 105              	.LVL5:
 106 003e 0028     		cmp	r0, #0
 107 0040 EFD0     		beq	.L4
 108              		.loc 1 130 0
 109 0042 2146     		mov	r1, r4
 110 0044 2346     		mov	r3, r4
 111 0046 05AA     		add	r2, sp, #20
 112 0048 1A48     		ldr	r0, .L13+12
 113 004a FFF7FEFF 		bl	canReceive
 114              	.LVL6:
ARM GAS  /tmp/ccGCfXPn.s 			page 3


 115              		.loc 1 132 0
 116 004e 0028     		cmp	r0, #0
 117 0050 E7D1     		bne	.L4
 118 0052 DFF86C80 		ldr	r8, .L13+24
 119 0056 184F     		ldr	r7, .L13+16
 120              	.L9:
 121              	.LVL7:
 122              		.loc 1 133 0
 123 0058 3568     		ldr	r5, [r6]
 124 005a 05AC     		add	r4, sp, #20
 125 005c 0FCC     		ldmia	r4!, {r0, r1, r2, r3}
 126 005e D4F800E0 		ldr	lr, [r4]
 127 0062 05EB8504 		add	r4, r5, r5, lsl #2
 128 0066 08EB8404 		add	r4, r8, r4, lsl #2
 129 006a 0FC4     		stmia	r4!, {r0, r1, r2, r3}
 130              		.loc 1 138 0
 131 006c 0121     		movs	r1, #1
 132              		.loc 1 133 0
 133 006e 0D44     		add	r5, r5, r1
 134              		.loc 1 134 0
 135 0070 642D     		cmp	r5, #100
 136              		.loc 1 135 0
 137 0072 08BF     		it	eq
 138 0074 0023     		moveq	r3, #0
 139              		.loc 1 138 0
 140 0076 3868     		ldr	r0, [r7]
 141              		.loc 1 133 0
 142 0078 3560     		str	r5, [r6]
 143 007a C4F800E0 		str	lr, [r4]
 144              		.loc 1 135 0
 145 007e 08BF     		it	eq
 146 0080 3360     		streq	r3, [r6]
 147              		.loc 1 138 0
 148 0082 FFF7FEFF 		bl	chEvtSignal
 149              	.LVL8:
 150              		.loc 1 140 0
 151 0086 0021     		movs	r1, #0
 152 0088 0B46     		mov	r3, r1
 153 008a 0A48     		ldr	r0, .L13+12
 154 008c 05AA     		add	r2, sp, #20
 155 008e FFF7FEFF 		bl	canReceive
 156              	.LVL9:
 157              		.loc 1 132 0
 158 0092 0028     		cmp	r0, #0
 159 0094 E0D0     		beq	.L9
 160 0096 C4E7     		b	.L4
 161              	.LVL10:
 162              	.L12:
 163              	.LBE77:
 164              		.loc 1 144 0
 165 0098 6946     		mov	r1, sp
 166 009a 0448     		ldr	r0, .L13+4
 167              	.LVL11:
 168 009c FFF7FEFF 		bl	chEvtUnregister
 169              	.LVL12:
 170              		.loc 1 145 0
 171 00a0 0BB0     		add	sp, sp, #44
ARM GAS  /tmp/ccGCfXPn.s 			page 4


 172              	.LVL13:
 173              		@ sp needed
 174 00a2 BDE8F083 		pop	{r4, r5, r6, r7, r8, r9, pc}
 175              	.LVL14:
 176              	.L14:
 177 00a6 00BF     		.align	2
 178              	.L13:
 179 00a8 00000000 		.word	.LC0
 180 00ac 18000000 		.word	CAND1+24
 181 00b0 00000000 		.word	.LANCHOR0
 182 00b4 00000000 		.word	CAND1
 183 00b8 00000000 		.word	.LANCHOR2
 184 00bc 00000000 		.word	ch
 185 00c0 00000000 		.word	.LANCHOR1
 186              		.cfi_endproc
 187              	.LFE258:
 188              		.size	cancom_read_thread, .-cancom_read_thread
 189 00c4 AFF30080 		.section	.text.comm_can_init,"ax",%progbits
 189      AFF30080 
 189      AFF30080 
 190              		.align	2
 191              		.p2align 4,,15
 192              		.global	comm_can_init
 193              		.thumb
 194              		.thumb_func
 195              		.type	comm_can_init, %function
 196              	comm_can_init:
 197              	.LFB256:
 198              		.loc 1 77 0
 199              		.cfi_startproc
 200              		@ args = 0, pretend = 0, frame = 0
 201              		@ frame_needed = 0, uses_anonymous_args = 0
 202              	.LVL15:
 203 0000 10B5     		push	{r4, lr}
 204              		.cfi_def_cfa_offset 8
 205              		.cfi_offset 4, -8
 206              		.cfi_offset 14, -4
 207 0002 1E49     		ldr	r1, .L19
 208 0004 82B0     		sub	sp, sp, #8
 209              		.cfi_def_cfa_offset 16
 210              		.loc 1 77 0
 211 0006 0023     		movs	r3, #0
 212              	.LBB78:
 213              		.loc 1 79 0
 214 0008 4FF0FF32 		mov	r2, #-1
 215              	.LVL16:
 216              	.L17:
 217              		.loc 1 79 0 is_stmt 0 discriminator 2
 218 000c CA50     		str	r2, [r1, r3]
 219 000e 1433     		adds	r3, r3, #20
 220              		.loc 1 78 0 is_stmt 1 discriminator 2
 221 0010 C82B     		cmp	r3, #200
 222 0012 FBD1     		bne	.L17
 223              	.LBE78:
 224              		.loc 1 83 0
 225 0014 1A4B     		ldr	r3, .L19+4
 226              		.loc 1 82 0
ARM GAS  /tmp/ccGCfXPn.s 			page 5


 227 0016 1B4A     		ldr	r2, .L19+8
 228              		.loc 1 85 0
 229 0018 1B48     		ldr	r0, .L19+12
 230              		.loc 1 82 0
 231 001a 0024     		movs	r4, #0
 232              		.loc 1 83 0
 233 001c 1C60     		str	r4, [r3]
 234              		.loc 1 82 0
 235 001e 1460     		str	r4, [r2]
 236              		.loc 1 85 0
 237 0020 FFF7FEFF 		bl	chMtxObjectInit
 238              	.LVL17:
 239              		.loc 1 87 0
 240 0024 1948     		ldr	r0, .L19+16
 241 0026 4FF48071 		mov	r1, #256
 242 002a 40F28A42 		movw	r2, #1162
 243 002e FFF7FEFF 		bl	_pal_lld_setgroupmode
 244              	.LVL18:
 245              		.loc 1 91 0
 246 0032 40F28A42 		movw	r2, #1162
 247 0036 1548     		ldr	r0, .L19+16
 248 0038 4FF40071 		mov	r1, #512
 249 003c FFF7FEFF 		bl	_pal_lld_setgroupmode
 250              	.LVL19:
 251              		.loc 1 96 0
 252 0040 1348     		ldr	r0, .L19+20
 253 0042 1449     		ldr	r1, .L19+24
 254 0044 FFF7FEFF 		bl	canStart
 255              	.LVL20:
 256              		.loc 1 98 0
 257 0048 0094     		str	r4, [sp]
 258 004a 134B     		ldr	r3, .L19+28
 259 004c 1348     		ldr	r0, .L19+32
 260 004e 4FF46671 		mov	r1, #920
 261 0052 4122     		movs	r2, #65
 262 0054 FFF7FEFF 		bl	chThdCreateStatic
 263              	.LVL21:
 264              		.loc 1 100 0
 265 0058 0094     		str	r4, [sp]
 266 005a 114B     		ldr	r3, .L19+36
 267 005c 1148     		ldr	r0, .L19+40
 268 005e 4FF4B361 		mov	r1, #1432
 269 0062 4022     		movs	r2, #64
 270 0064 FFF7FEFF 		bl	chThdCreateStatic
 271              	.LVL22:
 272              		.loc 1 102 0
 273 0068 0094     		str	r4, [sp]
 274 006a 0F4B     		ldr	r3, .L19+44
 275 006c 0F48     		ldr	r0, .L19+48
 276 006e 41F29811 		movw	r1, #4504
 277 0072 4022     		movs	r2, #64
 278 0074 FFF7FEFF 		bl	chThdCreateStatic
 279              	.LVL23:
 280              		.loc 1 104 0
 281 0078 02B0     		add	sp, sp, #8
 282              		@ sp needed
 283 007a 10BD     		pop	{r4, pc}
ARM GAS  /tmp/ccGCfXPn.s 			page 6


 284              	.L20:
 285              		.align	2
 286              	.L19:
 287 007c 00000000 		.word	.LANCHOR3
 288 0080 00000000 		.word	.LANCHOR0
 289 0084 00000000 		.word	.LANCHOR4
 290 0088 00000000 		.word	.LANCHOR5
 291 008c 00040240 		.word	1073873920
 292 0090 00000000 		.word	CAND1
 293 0094 00000000 		.word	.LANCHOR6
 294 0098 00000000 		.word	cancom_read_thread
 295 009c 00000000 		.word	.LANCHOR7
 296 00a0 00000000 		.word	cancom_status_thread
 297 00a4 00000000 		.word	.LANCHOR8
 298 00a8 00000000 		.word	cancom_process_thread
 299 00ac 00000000 		.word	.LANCHOR9
 300              		.cfi_endproc
 301              	.LFE256:
 302              		.size	comm_can_init, .-comm_can_init
 303              		.section	.text.comm_can_set_baud,"ax",%progbits
 304              		.align	2
 305              		.p2align 4,,15
 306              		.global	comm_can_set_baud
 307              		.thumb
 308              		.thumb_func
 309              		.type	comm_can_set_baud, %function
 310              	comm_can_set_baud:
 311              	.LFB257:
 312              		.loc 1 106 0
 313              		.cfi_startproc
 314              		@ args = 0, pretend = 0, frame = 0
 315              		@ frame_needed = 0, uses_anonymous_args = 0
 316              	.LVL24:
 317 0000 10B5     		push	{r4, lr}
 318              		.cfi_def_cfa_offset 8
 319              		.cfi_offset 4, -8
 320              		.cfi_offset 14, -4
 321              		.loc 1 107 0
 322 0002 0328     		cmp	r0, #3
 323 0004 18D8     		bhi	.L21
 324 0006 DFE800F0 		tbb	[pc, r0]
 325              	.L24:
 326 000a 14       		.byte	(.L23-.L24)/2
 327 000b 11       		.byte	(.L25-.L24)/2
 328 000c 0E       		.byte	(.L26-.L24)/2
 329 000d 02       		.byte	(.L27-.L24)/2
 330              		.p2align 1
 331              	.L27:
 332              	.LVL25:
 333              	.LBB87:
 334              	.LBB88:
 335              		.loc 1 603 0
 336 000e 0B4C     		ldr	r4, .L29
 337 0010 0B4B     		ldr	r3, .L29+4
 338              	.LVL26:
 339              	.L28:
 340              		.loc 1 606 0
ARM GAS  /tmp/ccGCfXPn.s 			page 7


 341 0012 0C48     		ldr	r0, .L29+8
 342              	.LVL27:
 343              		.loc 1 603 0
 344 0014 6360     		str	r3, [r4, #4]
 345              		.loc 1 606 0
 346 0016 FFF7FEFF 		bl	canStop
 347              	.LVL28:
 348              		.loc 1 607 0
 349 001a 2146     		mov	r1, r4
 350 001c 0948     		ldr	r0, .L29+8
 351              	.LBE88:
 352              	.LBE87:
 353              		.loc 1 114 0
 354 001e BDE81040 		pop	{r4, lr}
 355              	.LBB90:
 356              	.LBB89:
 357              		.loc 1 607 0
 358 0022 FFF7FEBF 		b	canStart
 359              	.LVL29:
 360              	.L26:
 361              	.LBE89:
 362              	.LBE90:
 363              	.LBB91:
 364              	.LBB92:
 365              		.loc 1 603 0
 366 0026 054C     		ldr	r4, .L29
 367 0028 074B     		ldr	r3, .L29+12
 368 002a F2E7     		b	.L28
 369              	.LVL30:
 370              	.L25:
 371              	.LBE92:
 372              	.LBE91:
 373              	.LBB93:
 374              	.LBB94:
 375 002c 034C     		ldr	r4, .L29
 376 002e 074B     		ldr	r3, .L29+16
 377 0030 EFE7     		b	.L28
 378              	.LVL31:
 379              	.L23:
 380              	.LBE94:
 381              	.LBE93:
 382              	.LBB95:
 383              	.LBB96:
 384 0032 024C     		ldr	r4, .L29
 385 0034 064B     		ldr	r3, .L29+20
 386 0036 ECE7     		b	.L28
 387              	.LVL32:
 388              	.L21:
 389 0038 10BD     		pop	{r4, pc}
 390              	.L30:
 391 003a 00BF     		.align	2
 392              	.L29:
 393 003c 00000000 		.word	.LANCHOR6
 394 0040 02002903 		.word	53018626
 395 0044 00000000 		.word	CAND1
 396 0048 05002903 		.word	53018629
 397 004c 07004E03 		.word	55443463
ARM GAS  /tmp/ccGCfXPn.s 			page 8


 398 0050 0F004E03 		.word	55443471
 399              	.LBE96:
 400              	.LBE95:
 401              		.cfi_endproc
 402              	.LFE257:
 403              		.size	comm_can_set_baud, .-comm_can_set_baud
 404 0054 AFF30080 		.section	.text.comm_can_transmit_eid,"ax",%progbits
 404      AFF30080 
 404      AFF30080 
 405              		.align	2
 406              		.p2align 4,,15
 407              		.global	comm_can_transmit_eid
 408              		.thumb
 409              		.thumb_func
 410              		.type	comm_can_transmit_eid, %function
 411              	comm_can_transmit_eid:
 412              	.LFB261:
 413              		.loc 1 344 0
 414              		.cfi_startproc
 415              		@ args = 0, pretend = 0, frame = 16
 416              		@ frame_needed = 0, uses_anonymous_args = 0
 417              	.LVL33:
 418 0000 70B5     		push	{r4, r5, r6, lr}
 419              		.cfi_def_cfa_offset 16
 420              		.cfi_offset 4, -16
 421              		.cfi_offset 5, -12
 422              		.cfi_offset 6, -8
 423              		.cfi_offset 14, -4
 424 0002 84B0     		sub	sp, sp, #16
 425              		.cfi_def_cfa_offset 32
 426 0004 082A     		cmp	r2, #8
 427 0006 28BF     		it	cs
 428 0008 0822     		movcs	r2, #8
 429              	.LVL34:
 430              		.loc 1 351 0
 431 000a 9DF80060 		ldrb	r6, [sp]	@ zero_extendqisi2
 432              		.loc 1 352 0
 433 000e 019B     		ldr	r3, [sp, #4]
 434              		.loc 1 357 0
 435 0010 0E4D     		ldr	r5, .L32
 436              		.loc 1 353 0
 437 0012 46F02006 		orr	r6, r6, #32
 438              		.loc 1 354 0
 439 0016 04AC     		add	r4, sp, #16
 440 0018 06F0EF06 		and	r6, r6, #239
 441 001c 62F30306 		bfi	r6, r2, #0, #4
 442              		.loc 1 352 0
 443 0020 60F31C03 		bfi	r3, r0, #0, #29
 444              		.loc 1 355 0
 445 0024 02A8     		add	r0, sp, #8
 446              	.LVL35:
 447              		.loc 1 352 0
 448 0026 0193     		str	r3, [sp, #4]
 449              		.loc 1 354 0
 450 0028 04F8106D 		strb	r6, [r4, #-16]!
 451              		.loc 1 355 0
 452 002c FFF7FEFF 		bl	memcpy
ARM GAS  /tmp/ccGCfXPn.s 			page 9


 453              	.LVL36:
 454              		.loc 1 357 0
 455 0030 2846     		mov	r0, r5
 456 0032 FFF7FEFF 		bl	chMtxLock
 457              	.LVL37:
 458              		.loc 1 358 0
 459 0036 6A46     		mov	r2, sp
 460 0038 0021     		movs	r1, #0
 461 003a C823     		movs	r3, #200
 462 003c 0448     		ldr	r0, .L32+4
 463 003e FFF7FEFF 		bl	canTransmit
 464              	.LVL38:
 465              		.loc 1 359 0
 466 0042 2846     		mov	r0, r5
 467 0044 FFF7FEFF 		bl	chMtxUnlock
 468              	.LVL39:
 469              		.loc 1 366 0
 470 0048 04B0     		add	sp, sp, #16
 471              		@ sp needed
 472 004a 70BD     		pop	{r4, r5, r6, pc}
 473              	.L33:
 474              		.align	2
 475              	.L32:
 476 004c 00000000 		.word	.LANCHOR5
 477 0050 00000000 		.word	CAND1
 478              		.cfi_endproc
 479              	.LFE261:
 480              		.size	comm_can_transmit_eid, .-comm_can_transmit_eid
 481 0054 AFF30080 		.section	.text.cancom_status_thread,"ax",%progbits
 481      AFF30080 
 481      AFF30080 
 482              		.align	2
 483              		.p2align 4,,15
 484              		.thumb
 485              		.thumb_func
 486              		.type	cancom_status_thread, %function
 487              	cancom_status_thread:
 488              	.LFB260:
 489              		.loc 1 319 0
 490              		.cfi_startproc
 491              		@ args = 0, pretend = 0, frame = 16
 492              		@ frame_needed = 0, uses_anonymous_args = 0
 493              	.LVL40:
 494 0000 10B5     		push	{r4, lr}
 495              		.cfi_def_cfa_offset 8
 496              		.cfi_offset 4, -8
 497              		.cfi_offset 14, -4
 498              	.LBB97:
 499              	.LBB98:
 500              		.loc 2 135 0
 501 0002 274B     		ldr	r3, .L42
 502 0004 274A     		ldr	r2, .L42+4
 503 0006 9B69     		ldr	r3, [r3, #24]
 504              	.LBE98:
 505              	.LBE97:
 506              		.loc 1 319 0
 507 0008 2DED028B 		fstmfdd	sp!, {d8}
ARM GAS  /tmp/ccGCfXPn.s 			page 10


 508              		.cfi_def_cfa_offset 16
 509              		.cfi_offset 80, -16
 510              	.LBB100:
 511              	.LBB101:
 512              		.loc 1 326 0
 513 000c 0024     		movs	r4, #0
 514              	.LBE101:
 515              	.LBE100:
 516              		.loc 1 319 0
 517 000e 84B0     		sub	sp, sp, #16
 518              		.cfi_def_cfa_offset 32
 519              	.LBB105:
 520              	.LBB102:
 521              		.loc 1 330 0
 522 0010 DFED258A 		flds	s17, .L42+8
 523              	.LBE102:
 524              	.LBE105:
 525              	.LBB106:
 526              	.LBB99:
 527              		.loc 2 135 0
 528 0014 9A61     		str	r2, [r3, #24]
 529              	.LBE99:
 530              	.LBE106:
 531              	.LBB107:
 532              	.LBB103:
 533              		.loc 1 329 0
 534 0016 B2EE048A 		fconsts	s16, #36
 535 001a 0BE0     		b	.L37
 536              	.LVL41:
 537              	.L35:
 538              	.LBE103:
 539              		.loc 1 335 0
 540 001c FFF7FEFF 		bl	app_get_configuration
 541              	.LVL42:
 542 0020 0369     		ldr	r3, [r0, #16]
 543 0022 42F21070 		movw	r0, #10000
 544 0026 B0FBF3F0 		udiv	r0, r0, r3
 545              	.LVL43:
 546              		.loc 1 337 0
 547 002a 0028     		cmp	r0, #0
 548              	.LVL44:
 549              		.loc 1 340 0
 550 002c 08BF     		it	eq
 551 002e 0120     		moveq	r0, #1
 552              	.LVL45:
 553 0030 FFF7FEFF 		bl	chThdSleep
 554              	.LVL46:
 555              	.L37:
 556              		.loc 1 324 0
 557 0034 FFF7FEFF 		bl	app_get_configuration
 558              	.LVL47:
 559 0038 037B     		ldrb	r3, [r0, #12]	@ zero_extendqisi2
 560 003a 002B     		cmp	r3, #0
 561 003c EED0     		beq	.L35
 562              	.LBB104:
 563              		.loc 1 326 0
 564 003e 0194     		str	r4, [sp, #4]
ARM GAS  /tmp/ccGCfXPn.s 			page 11


 565              		.loc 1 328 0
 566 0040 FFF7FEFF 		bl	mc_interface_get_rpm
 567              	.LVL48:
 568 0044 BDEEC00A 		ftosizs	s0, s0
 569 0048 02A8     		add	r0, sp, #8
 570 004a 01AA     		add	r2, sp, #4
 571 004c 10EE101A 		fmrs	r1, s0	@ int
 572 0050 FFF7FEFF 		bl	buffer_append_int32
 573              	.LVL49:
 574              		.loc 1 329 0
 575 0054 FFF7FEFF 		bl	mc_interface_get_tot_current
 576              	.LVL50:
 577 0058 20EE080A 		fmuls	s0, s0, s16
 578 005c 02A8     		add	r0, sp, #8
 579 005e BDEEC00A 		ftosizs	s0, s0
 580 0062 01AA     		add	r2, sp, #4
 581 0064 10EE101A 		fmrs	r1, s0	@ int
 582 0068 09B2     		sxth	r1, r1
 583 006a FFF7FEFF 		bl	buffer_append_int16
 584              	.LVL51:
 585              		.loc 1 330 0
 586 006e FFF7FEFF 		bl	mc_interface_get_duty_cycle_now
 587              	.LVL52:
 588 0072 20EE280A 		fmuls	s0, s0, s17
 589 0076 01AA     		add	r2, sp, #4
 590 0078 BDEEC00A 		ftosizs	s0, s0
 591 007c 02A8     		add	r0, sp, #8
 592 007e 10EE101A 		fmrs	r1, s0	@ int
 593 0082 09B2     		sxth	r1, r1
 594 0084 FFF7FEFF 		bl	buffer_append_int16
 595              	.LVL53:
 596              		.loc 1 331 0
 597 0088 FFF7FEFF 		bl	app_get_configuration
 598              	.LVL54:
 599 008c 0078     		ldrb	r0, [r0]	@ zero_extendqisi2
 600 008e 9DF80420 		ldrb	r2, [sp, #4]	@ zero_extendqisi2
 601 0092 40F41060 		orr	r0, r0, #2304
 602 0096 02A9     		add	r1, sp, #8
 603 0098 FFF7FEFF 		bl	comm_can_transmit_eid
 604              	.LVL55:
 605 009c BEE7     		b	.L35
 606              	.L43:
 607 009e 00BF     		.align	2
 608              	.L42:
 609 00a0 00000000 		.word	ch
 610 00a4 04000000 		.word	.LC1
 611 00a8 00007A44 		.word	1148846080
 612              	.LBE104:
 613              	.LBE107:
 614              		.cfi_endproc
 615              	.LFE260:
 616              		.size	cancom_status_thread, .-cancom_status_thread
 617 00ac AFF30080 		.section	.text.comm_can_transmit_sid,"ax",%progbits
 618              		.align	2
 619              		.p2align 4,,15
 620              		.global	comm_can_transmit_sid
 621              		.thumb
ARM GAS  /tmp/ccGCfXPn.s 			page 12


 622              		.thumb_func
 623              		.type	comm_can_transmit_sid, %function
 624              	comm_can_transmit_sid:
 625              	.LFB262:
 626              		.loc 1 368 0
 627              		.cfi_startproc
 628              		@ args = 0, pretend = 0, frame = 16
 629              		@ frame_needed = 0, uses_anonymous_args = 0
 630              	.LVL56:
 631 0000 70B5     		push	{r4, r5, r6, lr}
 632              		.cfi_def_cfa_offset 16
 633              		.cfi_offset 4, -16
 634              		.cfi_offset 5, -12
 635              		.cfi_offset 6, -8
 636              		.cfi_offset 14, -4
 637 0002 84B0     		sub	sp, sp, #16
 638              		.cfi_def_cfa_offset 32
 639 0004 082A     		cmp	r2, #8
 640 0006 28BF     		it	cs
 641 0008 0822     		movcs	r2, #8
 642              	.LVL57:
 643              		.loc 1 375 0
 644 000a 9DF80060 		ldrb	r6, [sp]	@ zero_extendqisi2
 645              		.loc 1 376 0
 646 000e BDF80430 		ldrh	r3, [sp, #4]
 647              		.loc 1 381 0
 648 0012 0E4D     		ldr	r5, .L45
 649              		.loc 1 378 0
 650 0014 04AC     		add	r4, sp, #16
 651 0016 06F0CF06 		and	r6, r6, #207
 652 001a 62F30306 		bfi	r6, r2, #0, #4
 653              		.loc 1 376 0
 654 001e 60F30A03 		bfi	r3, r0, #0, #11
 655              		.loc 1 379 0
 656 0022 02A8     		add	r0, sp, #8
 657              	.LVL58:
 658              		.loc 1 376 0
 659 0024 ADF80430 		strh	r3, [sp, #4]	@ movhi
 660              		.loc 1 378 0
 661 0028 04F8106D 		strb	r6, [r4, #-16]!
 662              		.loc 1 379 0
 663 002c FFF7FEFF 		bl	memcpy
 664              	.LVL59:
 665              		.loc 1 381 0
 666 0030 2846     		mov	r0, r5
 667 0032 FFF7FEFF 		bl	chMtxLock
 668              	.LVL60:
 669              		.loc 1 382 0
 670 0036 6A46     		mov	r2, sp
 671 0038 0021     		movs	r1, #0
 672 003a C823     		movs	r3, #200
 673 003c 0448     		ldr	r0, .L45+4
 674 003e FFF7FEFF 		bl	canTransmit
 675              	.LVL61:
 676              		.loc 1 383 0
 677 0042 2846     		mov	r0, r5
 678 0044 FFF7FEFF 		bl	chMtxUnlock
ARM GAS  /tmp/ccGCfXPn.s 			page 13


 679              	.LVL62:
 680              		.loc 1 390 0
 681 0048 04B0     		add	sp, sp, #16
 682              		@ sp needed
 683 004a 70BD     		pop	{r4, r5, r6, pc}
 684              	.L46:
 685              		.align	2
 686              	.L45:
 687 004c 00000000 		.word	.LANCHOR5
 688 0050 00000000 		.word	CAND1
 689              		.cfi_endproc
 690              	.LFE262:
 691              		.size	comm_can_transmit_sid, .-comm_can_transmit_sid
 692 0054 AFF30080 		.section	.text.cancom_process_thread,"ax",%progbits
 692      AFF30080 
 692      AFF30080 
 693              		.align	2
 694              		.p2align 4,,15
 695              		.thumb
 696              		.thumb_func
 697              		.type	cancom_process_thread, %function
 698              	cancom_process_thread:
 699              	.LFB259:
 700              		.loc 1 147 0
 701              		.cfi_startproc
 702              		@ args = 0, pretend = 0, frame = 40
 703              		@ frame_needed = 0, uses_anonymous_args = 0
 704              	.LVL63:
 705 0000 2DE9F04F 		push	{r4, r5, r6, r7, r8, r9, r10, fp, lr}
 706              		.cfi_def_cfa_offset 36
 707              		.cfi_offset 4, -36
 708              		.cfi_offset 5, -32
 709              		.cfi_offset 6, -28
 710              		.cfi_offset 7, -24
 711              		.cfi_offset 8, -20
 712              		.cfi_offset 9, -16
 713              		.cfi_offset 10, -12
 714              		.cfi_offset 11, -8
 715              		.cfi_offset 14, -4
 716              	.LBB108:
 717              	.LBB109:
 718              		.loc 2 135 0
 719 0004 B14A     		ldr	r2, .L87
 720              	.LBE109:
 721              	.LBE108:
 722              		.loc 1 151 0
 723 0006 B249     		ldr	r1, .L87+4
 724              	.LBB112:
 725              	.LBB110:
 726              		.loc 2 135 0
 727 0008 9369     		ldr	r3, [r2, #24]
 728 000a B24A     		ldr	r2, .L87+8
 729 000c B24E     		ldr	r6, .L87+12
 730 000e DFF8E4B2 		ldr	fp, .L87+40
 731 0012 B24F     		ldr	r7, .L87+16
 732 0014 DFF8E092 		ldr	r9, .L87+44
 733 0018 DFF8E082 		ldr	r8, .L87+48
ARM GAS  /tmp/ccGCfXPn.s 			page 14


 734              	.LBE110:
 735              	.LBE112:
 736              		.loc 1 147 0
 737 001c 2DED028B 		fstmfdd	sp!, {d8}
 738              		.cfi_def_cfa_offset 44
 739              		.cfi_offset 80, -44
 740 0020 8BB0     		sub	sp, sp, #44
 741              		.cfi_def_cfa_offset 88
 742              	.LBB113:
 743              	.LBB111:
 744              		.loc 2 135 0
 745 0022 9A61     		str	r2, [r3, #24]
 746              	.LBE111:
 747              	.LBE113:
 748              	.LBB114:
 749              	.LBB115:
 750              	.LBB116:
 751              		.loc 1 297 0
 752 0024 9FEDAE8A 		flds	s16, .L87+20
 753              	.LBE116:
 754              		.loc 1 278 0
 755 0028 DFEDAE8A 		flds	s17, .L87+24
 756              	.LBE115:
 757              	.LBE114:
 758              		.loc 1 151 0
 759 002c 0B60     		str	r3, [r1]
 760              		.loc 1 153 0
 761 002e 0022     		movs	r2, #0
 762 0030 0292     		str	r2, [sp, #8]
 763              	.LVL64:
 764              	.L80:
 765              		.loc 1 162 0
 766 0032 0120     		movs	r0, #1
 767 0034 FFF7FEFF 		bl	chEvtWaitAny
 768              	.LVL65:
 769              		.loc 1 164 0
 770 0038 D6F800E0 		ldr	lr, [r6]
 771 003c DBF80030 		ldr	r3, [fp]
 772 0040 9E45     		cmp	lr, r3
 773 0042 F6D0     		beq	.L80
 774              	.LBB133:
 775              		.loc 1 165 0
 776 0044 DFF890A2 		ldr	r10, .L87+12
 777 0048 15E0     		b	.L79
 778              	.L50:
 779              		.loc 1 307 0
 780 004a D9F80040 		ldr	r4, [r9]
 781 004e 4CB1     		cbz	r4, .L72
 782              		.loc 1 308 0
 783 0050 BDF81C00 		ldrh	r0, [sp, #28]
 784 0054 02F00F02 		and	r2, r2, #15
 785 0058 C0F30A00 		ubfx	r0, r0, #0, #11
 786 005c 08A9     		add	r1, sp, #32
 787 005e A047     		blx	r4
 788              	.LVL66:
 789 0060 DAF80030 		ldr	r3, [r10]
 790              	.L72:
ARM GAS  /tmp/ccGCfXPn.s 			page 15


 791              	.LBE133:
 792              		.loc 1 164 0
 793 0064 DBF80020 		ldr	r2, [fp]
 794              	.LBB134:
 795              		.loc 1 312 0
 796 0068 642B     		cmp	r3, #100
 797              		.loc 1 313 0
 798 006a 04BF     		itt	eq
 799 006c 0023     		moveq	r3, #0
 800 006e 3360     		streq	r3, [r6]
 801              	.LBE134:
 802              		.loc 1 164 0
 803 0070 9A42     		cmp	r2, r3
 804 0072 DED0     		beq	.L80
 805 0074 9E46     		mov	lr, r3
 806              	.L79:
 807              	.LBB135:
 808              		.loc 1 165 0
 809 0076 0EEB8E05 		add	r5, lr, lr, lsl #2
 810 007a 07EB8505 		add	r5, r7, r5, lsl #2
 811 007e 0FCD     		ldmia	r5!, {r0, r1, r2, r3}
 812 0080 05AC     		add	r4, sp, #20
 813 0082 0FC4     		stmia	r4!, {r0, r1, r2, r3}
 814              		.loc 1 167 0
 815 0084 9DF81820 		ldrb	r2, [sp, #24]	@ zero_extendqisi2
 816              		.loc 1 165 0
 817 0088 2B68     		ldr	r3, [r5]
 818 008a 2360     		str	r3, [r4]
 819              		.loc 1 167 0
 820 008c 9106     		lsls	r1, r2, #26
 821              		.loc 1 165 0
 822 008e 0EF10103 		add	r3, lr, #1
 823 0092 3360     		str	r3, [r6]
 824              		.loc 1 167 0
 825 0094 D9D5     		bpl	.L50
 826              	.LBB132:
 827              		.loc 1 168 0
 828 0096 079B     		ldr	r3, [sp, #28]
 829 0098 C3F31C03 		ubfx	r3, r3, #0, #29
 830 009c DDB2     		uxtb	r5, r3
 831              	.LVL67:
 832              		.loc 1 172 0
 833 009e FF2D     		cmp	r5, #255
 834              		.loc 1 169 0
 835 00a0 4FEA2324 		asr	r4, r3, #8
 836              	.LVL68:
 837              		.loc 1 172 0
 838 00a4 14D0     		beq	.L64
 839              		.loc 1 172 0 is_stmt 0 discriminator 1
 840 00a6 FFF7FEFF 		bl	app_get_configuration
 841              	.LVL69:
 842 00aa 0378     		ldrb	r3, [r0]	@ zero_extendqisi2
 843 00ac AB42     		cmp	r3, r5
 844 00ae 0FD0     		beq	.L64
 845 00b0 E3B2     		uxtb	r3, r4
 846              	.L52:
 847              		.loc 1 287 0 is_stmt 1
ARM GAS  /tmp/ccGCfXPn.s 			page 16


 848 00b2 092B     		cmp	r3, #9
 849 00b4 0AD1     		bne	.L66
 850 00b6 8C4C     		ldr	r4, .L87+28
 851              	.LVL70:
 852              	.L76:
 853              	.LBB130:
 854              		.loc 1 291 0
 855 00b8 2368     		ldr	r3, [r4]
 856 00ba AB42     		cmp	r3, r5
 857 00bc 00F02081 		beq	.L74
 858              		.loc 1 291 0 is_stmt 0 discriminator 1
 859 00c0 0133     		adds	r3, r3, #1
 860 00c2 00F01D81 		beq	.L74
 861 00c6 1434     		adds	r4, r4, #20
 862              	.LVL71:
 863              		.loc 1 289 0 is_stmt 1
 864 00c8 4445     		cmp	r4, r8
 865 00ca F5D1     		bne	.L76
 866              	.LVL72:
 867              	.L66:
 868 00cc 3368     		ldr	r3, [r6]
 869 00ce C9E7     		b	.L72
 870              	.LVL73:
 871              	.L64:
 872              	.LBE130:
 873              		.loc 1 173 0
 874 00d0 E3B2     		uxtb	r3, r4
 875 00d2 0B2B     		cmp	r3, #11
 876 00d4 EDD8     		bhi	.L52
 877 00d6 01A1     		adr	r1, .L54
 878 00d8 51F823F0 		ldr	pc, [r1, r3, lsl #2]
 879              		.p2align 2
 880              	.L54:
 881 00dc 8B020000 		.word	.L53+1
 882 00e0 AF020000 		.word	.L55+1
 883 00e4 CB010000 		.word	.L56+1
 884 00e8 3D020000 		.word	.L57+1
 885 00ec B3000000 		.word	.L52+1
 886 00f0 1F020000 		.word	.L58+1
 887 00f4 5D020000 		.word	.L59+1
 888 00f8 71010000 		.word	.L60+1
 889 00fc 45010000 		.word	.L61+1
 890 0100 B3000000 		.word	.L52+1
 891 0104 29010000 		.word	.L62+1
 892 0108 0D010000 		.word	.L63+1
 893              		.p2align 1
 894              	.L63:
 895              		.loc 1 277 0
 896 010c 0023     		movs	r3, #0
 897              		.loc 1 278 0
 898 010e 08A8     		add	r0, sp, #32
 899 0110 02A9     		add	r1, sp, #8
 900 0112 9FED740A 		flds	s0, .L87+24
 901              		.loc 1 277 0
 902 0116 0293     		str	r3, [sp, #8]
 903              		.loc 1 278 0
 904 0118 FFF7FEFF 		bl	buffer_get_float32
ARM GAS  /tmp/ccGCfXPn.s 			page 17


 905              	.LVL74:
 906 011c FFF7FEFF 		bl	mc_interface_set_brake_current_rel
 907              	.LVL75:
 908              		.loc 1 279 0
 909 0120 FFF7FEFF 		bl	timeout_reset
 910              	.LVL76:
 911 0124 3368     		ldr	r3, [r6]
 912 0126 9DE7     		b	.L72
 913              	.L62:
 914              		.loc 1 271 0
 915 0128 0023     		movs	r3, #0
 916              		.loc 1 272 0
 917 012a 08A8     		add	r0, sp, #32
 918 012c 02A9     		add	r1, sp, #8
 919 012e 9FED6D0A 		flds	s0, .L87+24
 920              		.loc 1 271 0
 921 0132 0293     		str	r3, [sp, #8]
 922              		.loc 1 272 0
 923 0134 FFF7FEFF 		bl	buffer_get_float32
 924              	.LVL77:
 925 0138 FFF7FEFF 		bl	mc_interface_set_current_rel
 926              	.LVL78:
 927              		.loc 1 273 0
 928 013c FFF7FEFF 		bl	timeout_reset
 929              	.LVL79:
 930 0140 3368     		ldr	r3, [r6]
 931 0142 8FE7     		b	.L72
 932              	.L61:
 933              		.loc 1 259 0
 934 0144 6949     		ldr	r1, .L87+32
 935 0146 9DF82020 		ldrb	r2, [sp, #32]	@ zero_extendqisi2
 936              		.loc 1 262 0
 937 014a 9DF82130 		ldrb	r3, [sp, #33]	@ zero_extendqisi2
 938              		.loc 1 259 0
 939 014e 0A60     		str	r2, [r1]
 940              		.loc 1 260 0
 941 0150 0222     		movs	r2, #2
 942 0152 0292     		str	r2, [sp, #8]
 943              	.LVL80:
 944              		.loc 1 262 0
 945 0154 002B     		cmp	r3, #0
 946 0156 00F00481 		beq	.L69
 947              		.loc 1 263 0
 948 015a 9DF81810 		ldrb	r1, [sp, #24]	@ zero_extendqisi2
 949 015e 01F00F01 		and	r1, r1, #15
 950 0162 0239     		subs	r1, r1, #2
 951 0164 0DF12200 		add	r0, sp, #34
 952 0168 FFF7FEFF 		bl	commands_send_packet
 953              	.LVL81:
 954 016c 3368     		ldr	r3, [r6]
 955 016e 79E7     		b	.L72
 956              	.L60:
 957              		.loc 1 235 0
 958 0170 9DF82330 		ldrb	r3, [sp, #35]	@ zero_extendqisi2
 959              		.loc 1 234 0
 960 0174 9DF82240 		ldrb	r4, [sp, #34]	@ zero_extendqisi2
 961              	.LVL82:
ARM GAS  /tmp/ccGCfXPn.s 			page 18


 962              		.loc 1 232 0
 963 0178 5C49     		ldr	r1, .L87+32
 964 017a 9DF82020 		ldrb	r2, [sp, #32]	@ zero_extendqisi2
 965 017e 0A60     		str	r2, [r1]
 966              		.loc 1 235 0
 967 0180 43EA0424 		orr	r4, r3, r4, lsl #8
 968              		.loc 1 237 0
 969 0184 B4F5806F 		cmp	r4, #1024
 970              		.loc 1 235 0
 971 0188 4FF00403 		mov	r3, #4
 972 018c 0293     		str	r3, [sp, #8]
 973              		.loc 1 233 0
 974 018e 9DF82150 		ldrb	r5, [sp, #33]	@ zero_extendqisi2
 975              	.LVL83:
 976              		.loc 1 237 0
 977 0192 9BD8     		bhi	.L66
 978              		.loc 1 242 0
 979 0194 0623     		movs	r3, #6
 980              		.loc 1 241 0
 981 0196 9DF82420 		ldrb	r2, [sp, #36]	@ zero_extendqisi2
 982              	.LVL84:
 983              		.loc 1 242 0
 984 019a 0293     		str	r3, [sp, #8]
 985              		.loc 1 244 0
 986 019c 5448     		ldr	r0, .L87+36
 987              		.loc 1 242 0
 988 019e 9DF82530 		ldrb	r3, [sp, #37]	@ zero_extendqisi2
 989              	.LVL85:
 990              		.loc 1 244 0
 991 01a2 0192     		str	r2, [sp, #4]
 992 01a4 2146     		mov	r1, r4
 993 01a6 0093     		str	r3, [sp]
 994 01a8 FFF7FEFF 		bl	crc16
 995              	.LVL86:
 996              		.loc 1 246 0
 997 01ac 019A     		ldr	r2, [sp, #4]
 998 01ae 009B     		ldr	r3, [sp]
 999 01b0 43EA0223 		orr	r3, r3, r2, lsl #8
 1000              		.loc 1 244 0
 1001 01b4 9842     		cmp	r0, r3
 1002 01b6 89D1     		bne	.L66
 1003              		.loc 1 248 0
 1004 01b8 002D     		cmp	r5, #0
 1005 01ba 00F0E280 		beq	.L68
 1006              		.loc 1 249 0
 1007 01be 2146     		mov	r1, r4
 1008 01c0 4B48     		ldr	r0, .L87+36
 1009 01c2 FFF7FEFF 		bl	commands_send_packet
 1010              	.LVL87:
 1011 01c6 3368     		ldr	r3, [r6]
 1012 01c8 4CE7     		b	.L72
 1013              	.LVL88:
 1014              	.L56:
 1015              		.loc 1 195 0
 1016 01ca 0024     		movs	r4, #0
 1017              	.LVL89:
 1018              		.loc 1 196 0
ARM GAS  /tmp/ccGCfXPn.s 			page 19


 1019 01cc 08A8     		add	r0, sp, #32
 1020 01ce 02A9     		add	r1, sp, #8
 1021              		.loc 1 195 0
 1022 01d0 0294     		str	r4, [sp, #8]
 1023              		.loc 1 196 0
 1024 01d2 FFF7FEFF 		bl	buffer_get_int32
 1025              	.LVL90:
 1026 01d6 07EE100A 		fmsr	s14, r0	@ int
 1027 01da B8EEC70A 		fsitos	s0, s14
 1028 01de 80EE080A 		fdivs	s0, s0, s16
 1029 01e2 FFF7FEFF 		bl	mc_interface_set_brake_current
 1030              	.LVL91:
 1031              	.L86:
 1032              		.loc 1 197 0
 1033 01e6 FFF7FEFF 		bl	timeout_reset
 1034              	.LVL92:
 1035              		.loc 1 198 0
 1036 01ea 0294     		str	r4, [sp, #8]
 1037              		.loc 1 199 0
 1038 01ec FFF7FEFF 		bl	encoder_cumulative_counts
 1039              	.LVL93:
 1040 01f0 02AA     		add	r2, sp, #8
 1041 01f2 0146     		mov	r1, r0
 1042 01f4 03A8     		add	r0, sp, #12
 1043 01f6 FFF7FEFF 		bl	buffer_append_int32
 1044              	.LVL94:
 1045              		.loc 1 200 0
 1046 01fa FFF7FEFF 		bl	mc_interface_get_rpm
 1047              	.LVL95:
 1048 01fe 02A9     		add	r1, sp, #8
 1049 0200 03A8     		add	r0, sp, #12
 1050 0202 FFF7FEFF 		bl	buffer_append_float32_auto
 1051              	.LVL96:
 1052              		.loc 1 202 0
 1053 0206 FFF7FEFF 		bl	app_get_configuration
 1054              	.LVL97:
 1055 020a 0078     		ldrb	r0, [r0]	@ zero_extendqisi2
 1056 020c 9DF80820 		ldrb	r2, [sp, #8]	@ zero_extendqisi2
 1057 0210 40F44060 		orr	r0, r0, #3072
 1058 0214 03A9     		add	r1, sp, #12
 1059 0216 FFF7FEFF 		bl	comm_can_transmit_sid
 1060              	.LVL98:
 1061 021a 3368     		ldr	r3, [r6]
 1062 021c 22E7     		b	.L72
 1063              	.LVL99:
 1064              	.L58:
 1065              		.loc 1 219 0
 1066 021e 9DF81820 		ldrb	r2, [sp, #24]	@ zero_extendqisi2
 1067 0222 9DF82000 		ldrb	r0, [sp, #32]	@ zero_extendqisi2
 1068 0226 3249     		ldr	r1, .L87+36
 1069 0228 02F00F02 		and	r2, r2, #15
 1070 022c 0844     		add	r0, r0, r1
 1071 022e 013A     		subs	r2, r2, #1
 1072 0230 0DF12101 		add	r1, sp, #33
 1073 0234 FFF7FEFF 		bl	memcpy
 1074              	.LVL100:
 1075 0238 3368     		ldr	r3, [r6]
ARM GAS  /tmp/ccGCfXPn.s 			page 20


 1076 023a 13E7     		b	.L72
 1077              	.L57:
 1078              		.loc 1 207 0
 1079 023c 0023     		movs	r3, #0
 1080              		.loc 1 208 0
 1081 023e 02A9     		add	r1, sp, #8
 1082 0240 08A8     		add	r0, sp, #32
 1083              		.loc 1 207 0
 1084 0242 0293     		str	r3, [sp, #8]
 1085              		.loc 1 208 0
 1086 0244 FFF7FEFF 		bl	buffer_get_int32
 1087              	.LVL101:
 1088 0248 07EE900A 		fmsr	s15, r0	@ int
 1089 024c B8EEE70A 		fsitos	s0, s15
 1090 0250 FFF7FEFF 		bl	mc_interface_set_pid_speed
 1091              	.LVL102:
 1092              		.loc 1 209 0
 1093 0254 FFF7FEFF 		bl	timeout_reset
 1094              	.LVL103:
 1095 0258 3368     		ldr	r3, [r6]
 1096 025a 03E7     		b	.L72
 1097              	.L59:
 1098              		.loc 1 223 0
 1099 025c 9DF82000 		ldrb	r0, [sp, #32]	@ zero_extendqisi2
 1100              	.LVL104:
 1101              		.loc 1 224 0
 1102 0260 9DF82130 		ldrb	r3, [sp, #33]	@ zero_extendqisi2
 1103 0264 43EA0020 		orr	r0, r3, r0, lsl #8
 1104              	.LVL105:
 1105              		.loc 1 225 0
 1106 0268 B0F5806F 		cmp	r0, #1024
 1107 026c BFF42EAF 		bcs	.L66
 1108              		.loc 1 226 0
 1109 0270 9DF81820 		ldrb	r2, [sp, #24]	@ zero_extendqisi2
 1110 0274 1E4B     		ldr	r3, .L87+36
 1111 0276 02F00F02 		and	r2, r2, #15
 1112 027a 1844     		add	r0, r0, r3
 1113              	.LVL106:
 1114 027c 023A     		subs	r2, r2, #2
 1115 027e 0DF12201 		add	r1, sp, #34
 1116 0282 FFF7FEFF 		bl	memcpy
 1117              	.LVL107:
 1118 0286 3368     		ldr	r3, [r6]
 1119 0288 ECE6     		b	.L72
 1120              	.L53:
 1121              		.loc 1 175 0
 1122 028a 0023     		movs	r3, #0
 1123              		.loc 1 176 0
 1124 028c 02A9     		add	r1, sp, #8
 1125 028e 08A8     		add	r0, sp, #32
 1126              		.loc 1 175 0
 1127 0290 0293     		str	r3, [sp, #8]
 1128              		.loc 1 176 0
 1129 0292 FFF7FEFF 		bl	buffer_get_int32
 1130              	.LVL108:
 1131 0296 07EE100A 		fmsr	s14, r0	@ int
 1132 029a B8EEC70A 		fsitos	s0, s14
ARM GAS  /tmp/ccGCfXPn.s 			page 21


 1133 029e 80EE280A 		fdivs	s0, s0, s17
 1134 02a2 FFF7FEFF 		bl	mc_interface_set_duty
 1135              	.LVL109:
 1136              		.loc 1 177 0
 1137 02a6 FFF7FEFF 		bl	timeout_reset
 1138              	.LVL110:
 1139 02aa 3368     		ldr	r3, [r6]
 1140 02ac DAE6     		b	.L72
 1141              	.L55:
 1142              		.loc 1 181 0
 1143 02ae 0024     		movs	r4, #0
 1144              	.LVL111:
 1145              		.loc 1 182 0
 1146 02b0 08A8     		add	r0, sp, #32
 1147 02b2 02A9     		add	r1, sp, #8
 1148              		.loc 1 181 0
 1149 02b4 0294     		str	r4, [sp, #8]
 1150              		.loc 1 182 0
 1151 02b6 FFF7FEFF 		bl	buffer_get_int32
 1152              	.LVL112:
 1153 02ba 07EE900A 		fmsr	s15, r0	@ int
 1154 02be B8EEE70A 		fsitos	s0, s15
 1155 02c2 80EE080A 		fdivs	s0, s0, s16
 1156 02c6 FFF7FEFF 		bl	mc_interface_set_current
 1157              	.LVL113:
 1158 02ca 8CE7     		b	.L86
 1159              	.L88:
 1160              		.align	2
 1161              	.L87:
 1162 02cc 00000000 		.word	ch
 1163 02d0 00000000 		.word	.LANCHOR2
 1164 02d4 10000000 		.word	.LC2
 1165 02d8 00000000 		.word	.LANCHOR4
 1166 02dc 00000000 		.word	.LANCHOR1
 1167 02e0 00007A44 		.word	1148846080
 1168 02e4 0050C347 		.word	1203982336
 1169 02e8 00000000 		.word	.LANCHOR3
 1170 02ec 00000000 		.word	.LANCHOR11
 1171 02f0 00000000 		.word	.LANCHOR10
 1172 02f4 00000000 		.word	.LANCHOR0
 1173 02f8 00000000 		.word	.LANCHOR12
 1174 02fc C8000000 		.word	.LANCHOR3+200
 1175              	.LVL114:
 1176              	.L74:
 1177              	.LBB131:
 1178              		.loc 1 292 0
 1179 0300 0023     		movs	r3, #0
 1180              		.loc 1 293 0
 1181 0302 2560     		str	r5, [r4]
 1182              	.LVL115:
 1183              		.loc 1 292 0
 1184 0304 0293     		str	r3, [sp, #8]
 1185              	.LBB117:
 1186              	.LBB118:
 1187              	.LBB119:
 1188              	.LBB120:
 1189              	.LBB121:
ARM GAS  /tmp/ccGCfXPn.s 			page 22


 1190              	.LBB122:
 1191              		.file 5 "ChibiOS_3.0.2/os/ext/CMSIS/include/core_cmFunc.h"
 1192              		.loc 5 546 0
 1193 0306 2022     		movs	r2, #32
 1194              	@ 546 "ChibiOS_3.0.2/os/ext/CMSIS/include/core_cmFunc.h" 1
 1195 0308 82F31188 		MSR basepri, r2
 1196              	@ 0 "" 2
 1197              		.thumb
 1198              	.LBE122:
 1199              	.LBE121:
 1200              	.LBE120:
 1201              	.LBE119:
 1202              	.LBB123:
 1203              	.LBB124:
 1204              		.file 6 "ChibiOS_3.0.2/os/rt/include/chvt.h"
 1205              		.loc 6 231 0
 1206 030c 2149     		ldr	r1, .L89
 1207 030e 8A6A     		ldr	r2, [r1, #40]
 1208              	.LVL116:
 1209              	.LBE124:
 1210              	.LBE123:
 1211              	.LBB125:
 1212              	.LBB126:
 1213              	.LBB127:
 1214              	.LBB128:
 1215              	.LBB129:
 1216              		.loc 5 546 0
 1217              	@ 546 "ChibiOS_3.0.2/os/ext/CMSIS/include/core_cmFunc.h" 1
 1218 0310 83F31188 		MSR basepri, r3
 1219              	@ 0 "" 2
 1220              		.thumb
 1221              	.LBE129:
 1222              	.LBE128:
 1223              	.LBE127:
 1224              	.LBE126:
 1225              	.LBE125:
 1226              	.LBE118:
 1227              	.LBE117:
 1228              		.loc 1 294 0
 1229 0314 6260     		str	r2, [r4, #4]
 1230              		.loc 1 295 0
 1231 0316 02A9     		add	r1, sp, #8
 1232 0318 08A8     		add	r0, sp, #32
 1233 031a FFF7FEFF 		bl	buffer_get_int32
 1234              	.LVL117:
 1235 031e 07EE100A 		fmsr	s14, r0	@ int
 1236 0322 F8EEC77A 		fsitos	s15, s14
 1237              		.loc 1 296 0
 1238 0326 02A9     		add	r1, sp, #8
 1239              		.loc 1 295 0
 1240 0328 C4ED027A 		fsts	s15, [r4, #8]
 1241              		.loc 1 296 0
 1242 032c 08A8     		add	r0, sp, #32
 1243 032e FFF7FEFF 		bl	buffer_get_int16
 1244              	.LVL118:
 1245 0332 07EE900A 		fmsr	s15, r0	@ int
 1246 0336 B8EEE77A 		fsitos	s14, s15
ARM GAS  /tmp/ccGCfXPn.s 			page 23


 1247 033a F2EE047A 		fconsts	s15, #36
 1248 033e C7EE277A 		fdivs	s15, s14, s15
 1249              		.loc 1 297 0
 1250 0342 08A8     		add	r0, sp, #32
 1251 0344 02A9     		add	r1, sp, #8
 1252              		.loc 1 296 0
 1253 0346 C4ED037A 		fsts	s15, [r4, #12]
 1254              		.loc 1 297 0
 1255 034a FFF7FEFF 		bl	buffer_get_int16
 1256              	.LVL119:
 1257 034e 07EE100A 		fmsr	s14, r0	@ int
 1258 0352 F8EEC77A 		fsitos	s15, s14
 1259 0356 3368     		ldr	r3, [r6]
 1260 0358 C7EE887A 		fdivs	s15, s15, s16
 1261 035c C4ED047A 		fsts	s15, [r4, #16]
 1262              		.loc 1 298 0
 1263 0360 80E6     		b	.L72
 1264              	.LVL120:
 1265              	.L69:
 1266              	.LBE131:
 1267              		.loc 1 265 0
 1268 0362 0D48     		ldr	r0, .L89+4
 1269 0364 FFF7FEFF 		bl	commands_set_send_func
 1270              	.LVL121:
 1271              		.loc 1 266 0
 1272 0368 029B     		ldr	r3, [sp, #8]
 1273 036a 9DF81810 		ldrb	r1, [sp, #24]	@ zero_extendqisi2
 1274 036e 05A8     		add	r0, sp, #20
 1275 0370 1844     		add	r0, r0, r3
 1276 0372 01F00F01 		and	r1, r1, #15
 1277 0376 C91A     		subs	r1, r1, r3
 1278 0378 0C30     		adds	r0, r0, #12
 1279 037a FFF7FEFF 		bl	commands_process_packet
 1280              	.LVL122:
 1281 037e 3368     		ldr	r3, [r6]
 1282 0380 70E6     		b	.L72
 1283              	.LVL123:
 1284              	.L68:
 1285              		.loc 1 251 0
 1286 0382 0548     		ldr	r0, .L89+4
 1287 0384 FFF7FEFF 		bl	commands_set_send_func
 1288              	.LVL124:
 1289              		.loc 1 252 0
 1290 0388 2146     		mov	r1, r4
 1291 038a 0448     		ldr	r0, .L89+8
 1292 038c FFF7FEFF 		bl	commands_process_packet
 1293              	.LVL125:
 1294 0390 3368     		ldr	r3, [r6]
 1295 0392 67E6     		b	.L72
 1296              	.L90:
 1297              		.align	2
 1298              	.L89:
 1299 0394 00000000 		.word	ch
 1300 0398 00000000 		.word	send_packet_wrapper
 1301 039c 00000000 		.word	.LANCHOR10
 1302              	.LBE132:
 1303              	.LBE135:
ARM GAS  /tmp/ccGCfXPn.s 			page 24


 1304              		.cfi_endproc
 1305              	.LFE259:
 1306              		.size	cancom_process_thread, .-cancom_process_thread
 1307              		.section	.text.comm_can_set_sid_rx_callback,"ax",%progbits
 1308              		.align	2
 1309              		.p2align 4,,15
 1310              		.global	comm_can_set_sid_rx_callback
 1311              		.thumb
 1312              		.thumb_func
 1313              		.type	comm_can_set_sid_rx_callback, %function
 1314              	comm_can_set_sid_rx_callback:
 1315              	.LFB263:
 1316              		.loc 1 398 0
 1317              		.cfi_startproc
 1318              		@ args = 0, pretend = 0, frame = 0
 1319              		@ frame_needed = 0, uses_anonymous_args = 0
 1320              		@ link register save eliminated.
 1321              	.LVL126:
 1322              		.loc 1 399 0
 1323 0000 014B     		ldr	r3, .L92
 1324 0002 1860     		str	r0, [r3]
 1325 0004 7047     		bx	lr
 1326              	.L93:
 1327 0006 00BF     		.align	2
 1328              	.L92:
 1329 0008 00000000 		.word	.LANCHOR12
 1330              		.cfi_endproc
 1331              	.LFE263:
 1332              		.size	comm_can_set_sid_rx_callback, .-comm_can_set_sid_rx_callback
 1333 000c AFF30080 		.section	.text.comm_can_send_buffer,"ax",%progbits
 1334              		.align	2
 1335              		.p2align 4,,15
 1336              		.global	comm_can_send_buffer
 1337              		.thumb
 1338              		.thumb_func
 1339              		.type	comm_can_send_buffer, %function
 1340              	comm_can_send_buffer:
 1341              	.LFB264:
 1342              		.loc 1 420 0
 1343              		.cfi_startproc
 1344              		@ args = 0, pretend = 0, frame = 24
 1345              		@ frame_needed = 0, uses_anonymous_args = 0
 1346              	.LVL127:
 1347 0000 2DE9F04F 		push	{r4, r5, r6, r7, r8, r9, r10, fp, lr}
 1348              		.cfi_def_cfa_offset 36
 1349              		.cfi_offset 4, -36
 1350              		.cfi_offset 5, -32
 1351              		.cfi_offset 6, -28
 1352              		.cfi_offset 7, -24
 1353              		.cfi_offset 8, -20
 1354              		.cfi_offset 9, -16
 1355              		.cfi_offset 10, -12
 1356              		.cfi_offset 11, -8
 1357              		.cfi_offset 14, -4
 1358 0004 87B0     		sub	sp, sp, #28
 1359              		.cfi_def_cfa_offset 64
 1360              		.loc 1 423 0
ARM GAS  /tmp/ccGCfXPn.s 			page 25


 1361 0006 062A     		cmp	r2, #6
 1362              		.loc 1 420 0
 1363 0008 1546     		mov	r5, r2
 1364 000a 0190     		str	r0, [sp, #4]
 1365 000c 8A46     		mov	r10, r1
 1366 000e 0393     		str	r3, [sp, #12]
 1367              		.loc 1 423 0
 1368 0010 7FD9     		bls	.L95
 1369 0012 4FF0000B 		mov	fp, #0
 1370 0016 D3B2     		uxtb	r3, r2
 1371              	.LVL128:
 1372 0018 5C46     		mov	r4, fp
 1373 001a 40F4A066 		orr	r6, r0, #1280
 1374 001e 0293     		str	r3, [sp, #8]
 1375 0020 8846     		mov	r8, r1
 1376              	.LBB136:
 1377              	.LBB137:
 1378              	.LBB138:
 1379              		.loc 1 434 0
 1380 0022 40F20317 		movw	r7, #259
 1381 0026 01E0     		b	.L96
 1382              	.LVL129:
 1383              	.L101:
 1384 0028 BC42     		cmp	r4, r7
 1385 002a 40D0     		beq	.L98
 1386              	.LVL130:
 1387              	.L96:
 1388              		.loc 1 438 0
 1389 002c 0734     		adds	r4, r4, #7
 1390              	.LVL131:
 1391              		.loc 1 441 0
 1392 002e 5FFA8BF3 		uxtb	r3, fp
 1393              		.loc 1 443 0
 1394 0032 A542     		cmp	r5, r4
 1395              		.loc 1 441 0
 1396 0034 8DF81030 		strb	r3, [sp, #16]
 1397              		.loc 1 443 0
 1398 0038 C0F08480 		bcc	.L99
 1399              		.loc 1 444 0
 1400 003c D8F80030 		ldr	r3, [r8]	@ unaligned
 1401 0040 B8F80420 		ldrh	r2, [r8, #4]	@ unaligned
 1402 0044 CDF81130 		str	r3, [sp, #17]	@ unaligned
 1403 0048 98F80630 		ldrb	r3, [r8, #6]	@ zero_extendqisi2
 1404 004c ADF81520 		strh	r2, [sp, #21]	@ unaligned
 1405 0050 8DF81730 		strb	r3, [sp, #23]
 1406 0054 0822     		movs	r2, #8
 1407              	.LVL132:
 1408              	.L100:
 1409              		.loc 1 450 0
 1410 0056 3046     		mov	r0, r6
 1411 0058 04A9     		add	r1, sp, #16
 1412 005a FFF7FEFF 		bl	comm_can_transmit_eid
 1413              	.LVL133:
 1414              	.LBE138:
 1415              		.loc 1 433 0
 1416 005e A542     		cmp	r5, r4
 1417 0060 0BF1070B 		add	fp, fp, #7
ARM GAS  /tmp/ccGCfXPn.s 			page 26


 1418 0064 08F10708 		add	r8, r8, #7
 1419 0068 DED8     		bhi	.L101
 1420              	.LVL134:
 1421              	.L104:
 1422              	.LBE137:
 1423              		.loc 1 471 0
 1424 006a FFF7FEFF 		bl	app_get_configuration
 1425              	.LVL135:
 1426 006e 0278     		ldrb	r2, [r0]	@ zero_extendqisi2
 1427 0070 8DF81020 		strb	r2, [sp, #16]
 1428              	.LVL136:
 1429              		.loc 1 472 0
 1430 0074 039A     		ldr	r2, [sp, #12]
 1431 0076 8DF81120 		strb	r2, [sp, #17]
 1432              	.LVL137:
 1433              		.loc 1 473 0
 1434 007a 2B0A     		lsrs	r3, r5, #8
 1435              		.loc 1 474 0
 1436 007c 029A     		ldr	r2, [sp, #8]
 1437 007e 8DF81320 		strb	r2, [sp, #19]
 1438              		.loc 1 475 0
 1439 0082 2946     		mov	r1, r5
 1440 0084 5046     		mov	r0, r10
 1441              		.loc 1 473 0
 1442 0086 8DF81230 		strb	r3, [sp, #18]
 1443              	.LVL138:
 1444              		.loc 1 475 0
 1445 008a FFF7FEFF 		bl	crc16
 1446              	.LVL139:
 1447              		.loc 1 479 0
 1448 008e 019A     		ldr	r2, [sp, #4]
 1449              		.loc 1 475 0
 1450 0090 0346     		mov	r3, r0
 1451              	.LVL140:
 1452              		.loc 1 476 0
 1453 0092 040A     		lsrs	r4, r0, #8
 1454              		.loc 1 479 0
 1455 0094 04A9     		add	r1, sp, #16
 1456 0096 42F4E060 		orr	r0, r2, #1792
 1457              	.LVL141:
 1458 009a 0622     		movs	r2, #6
 1459              		.loc 1 477 0
 1460 009c 8DF81530 		strb	r3, [sp, #21]
 1461              		.loc 1 476 0
 1462 00a0 8DF81440 		strb	r4, [sp, #20]
 1463              	.LVL142:
 1464              		.loc 1 479 0
 1465 00a4 FFF7FEFF 		bl	comm_can_transmit_eid
 1466              	.LVL143:
 1467              	.LBE136:
 1468              		.loc 1 482 0
 1469 00a8 07B0     		add	sp, sp, #28
 1470              		@ sp needed
 1471 00aa BDE8F08F 		pop	{r4, r5, r6, r7, r8, r9, r10, fp, pc}
 1472              	.LVL144:
 1473              	.L98:
 1474 00ae 019B     		ldr	r3, [sp, #4]
ARM GAS  /tmp/ccGCfXPn.s 			page 27


 1475 00b0 43F4C067 		orr	r7, r3, #1536
 1476 00b4 029B     		ldr	r3, [sp, #8]
 1477 00b6 0AF2031B 		addw	fp, r10, #259
 1478 00ba 9E1D     		adds	r6, r3, #6
 1479 00bc 03F10808 		add	r8, r3, #8
 1480 00c0 10E0     		b	.L105
 1481              	.LVL145:
 1482              	.L106:
 1483              	.LBB144:
 1484              	.LBB140:
 1485              	.LBB141:
 1486              		.loc 1 460 0
 1487 00c2 DBF80020 		ldr	r2, [fp]	@ unaligned
 1488 00c6 BBF80430 		ldrh	r3, [fp, #4]	@ unaligned
 1489 00ca CDF81220 		str	r2, [sp, #18]	@ unaligned
 1490 00ce ADF81630 		strh	r3, [sp, #22]	@ unaligned
 1491 00d2 0822     		movs	r2, #8
 1492              	.L103:
 1493              		.loc 1 466 0
 1494 00d4 3846     		mov	r0, r7
 1495 00d6 04A9     		add	r1, sp, #16
 1496 00d8 FFF7FEFF 		bl	comm_can_transmit_eid
 1497              	.LVL146:
 1498              	.LBE141:
 1499              		.loc 1 454 0
 1500 00dc A542     		cmp	r5, r4
 1501 00de 0BF1060B 		add	fp, fp, #6
 1502 00e2 C2D9     		bls	.L104
 1503              	.LVL147:
 1504              	.L105:
 1505              	.LBB142:
 1506              		.loc 1 456 0
 1507 00e4 230A     		lsrs	r3, r4, #8
 1508              		.loc 1 457 0
 1509 00e6 8DF81140 		strb	r4, [sp, #17]
 1510              		.loc 1 459 0
 1511 00ea 0634     		adds	r4, r4, #6
 1512              	.LVL148:
 1513 00ec 5FFA84F9 		uxtb	r9, r4
 1514              	.LVL149:
 1515 00f0 A542     		cmp	r5, r4
 1516              		.loc 1 456 0
 1517 00f2 8DF81030 		strb	r3, [sp, #16]
 1518 00f6 C9EB0602 		rsb	r2, r9, r6
 1519              		.loc 1 459 0
 1520 00fa E2D2     		bcs	.L106
 1521              		.loc 1 463 0
 1522 00fc D2B2     		uxtb	r2, r2
 1523 00fe 0DF11200 		add	r0, sp, #18
 1524 0102 5946     		mov	r1, fp
 1525 0104 C9EB0809 		rsb	r9, r9, r8
 1526 0108 FFF7FEFF 		bl	memcpy
 1527              	.LVL150:
 1528 010c 5FFA89F2 		uxtb	r2, r9
 1529 0110 E0E7     		b	.L103
 1530              	.LVL151:
 1531              	.L95:
ARM GAS  /tmp/ccGCfXPn.s 			page 28


 1532              	.LBE142:
 1533              	.LBE140:
 1534              	.LBE144:
 1535              	.LBB145:
 1536              		.loc 1 425 0
 1537 0112 FFF7FEFF 		bl	app_get_configuration
 1538              	.LVL152:
 1539 0116 0378     		ldrb	r3, [r0]	@ zero_extendqisi2
 1540 0118 8DF81030 		strb	r3, [sp, #16]
 1541              	.LVL153:
 1542              		.loc 1 427 0
 1543 011c 5146     		mov	r1, r10
 1544              		.loc 1 426 0
 1545 011e 039B     		ldr	r3, [sp, #12]
 1546 0120 8DF81130 		strb	r3, [sp, #17]
 1547              		.loc 1 427 0
 1548 0124 2A46     		mov	r2, r5
 1549 0126 0DF11200 		add	r0, sp, #18
 1550 012a FFF7FEFF 		bl	memcpy
 1551              	.LVL154:
 1552              		.loc 1 429 0
 1553 012e 019B     		ldr	r3, [sp, #4]
 1554              		.loc 1 428 0
 1555 0130 AA1C     		adds	r2, r5, #2
 1556              	.LVL155:
 1557              		.loc 1 429 0
 1558 0132 D2B2     		uxtb	r2, r2
 1559              	.LVL156:
 1560 0134 43F40060 		orr	r0, r3, #2048
 1561 0138 04A9     		add	r1, sp, #16
 1562 013a FFF7FEFF 		bl	comm_can_transmit_eid
 1563              	.LVL157:
 1564              	.LBE145:
 1565              		.loc 1 482 0
 1566 013e 07B0     		add	sp, sp, #28
 1567              		@ sp needed
 1568 0140 BDE8F08F 		pop	{r4, r5, r6, r7, r8, r9, r10, fp, pc}
 1569              	.LVL158:
 1570              	.L99:
 1571 0144 EA1A     		subs	r2, r5, r3
 1572              	.LBB146:
 1573              	.LBB143:
 1574              	.LBB139:
 1575              		.loc 1 447 0
 1576 0146 D2B2     		uxtb	r2, r2
 1577 0148 0DF11100 		add	r0, sp, #17
 1578 014c 4146     		mov	r1, r8
 1579 014e FFF7FEFF 		bl	memcpy
 1580              	.LVL159:
 1581 0152 029B     		ldr	r3, [sp, #8]
 1582 0154 C4F10802 		rsb	r2, r4, #8
 1583 0158 1A44     		add	r2, r2, r3
 1584 015a D2B2     		uxtb	r2, r2
 1585 015c 7BE7     		b	.L100
 1586              	.LBE139:
 1587              	.LBE143:
 1588              	.LBE146:
ARM GAS  /tmp/ccGCfXPn.s 			page 29


 1589              		.cfi_endproc
 1590              	.LFE264:
 1591              		.size	comm_can_send_buffer, .-comm_can_send_buffer
 1592 015e 00BF     		.section	.text.send_packet_wrapper,"ax",%progbits
 1593              		.align	2
 1594              		.p2align 4,,15
 1595              		.thumb
 1596              		.thumb_func
 1597              		.type	send_packet_wrapper, %function
 1598              	send_packet_wrapper:
 1599              	.LFB274:
 1600              		.loc 1 594 0
 1601              		.cfi_startproc
 1602              		@ args = 0, pretend = 0, frame = 0
 1603              		@ frame_needed = 0, uses_anonymous_args = 0
 1604              		@ link register save eliminated.
 1605              	.LVL160:
 1606              		.loc 1 595 0
 1607 0000 034B     		ldr	r3, .L108
 1608              		.loc 1 594 0
 1609 0002 0A46     		mov	r2, r1
 1610              		.loc 1 595 0
 1611 0004 0146     		mov	r1, r0
 1612              	.LVL161:
 1613 0006 1878     		ldrb	r0, [r3]	@ zero_extendqisi2
 1614              	.LVL162:
 1615 0008 0123     		movs	r3, #1
 1616 000a FFF7FEBF 		b	comm_can_send_buffer
 1617              	.LVL163:
 1618              	.L109:
 1619 000e 00BF     		.align	2
 1620              	.L108:
 1621 0010 00000000 		.word	.LANCHOR11
 1622              		.cfi_endproc
 1623              	.LFE274:
 1624              		.size	send_packet_wrapper, .-send_packet_wrapper
 1625 0014 AFF30080 		.section	.text.comm_can_set_duty,"ax",%progbits
 1625      AFF30080 
 1625      AFF30080 
 1626              		.align	2
 1627              		.p2align 4,,15
 1628              		.global	comm_can_set_duty
 1629              		.thumb
 1630              		.thumb_func
 1631              		.type	comm_can_set_duty, %function
 1632              	comm_can_set_duty:
 1633              	.LFB265:
 1634              		.loc 1 484 0
 1635              		.cfi_startproc
 1636              		@ args = 0, pretend = 0, frame = 8
 1637              		@ frame_needed = 0, uses_anonymous_args = 0
 1638              	.LVL164:
 1639 0000 10B5     		push	{r4, lr}
 1640              		.cfi_def_cfa_offset 8
 1641              		.cfi_offset 4, -8
 1642              		.cfi_offset 14, -4
 1643              		.loc 1 487 0
ARM GAS  /tmp/ccGCfXPn.s 			page 30


 1644 0002 DFED0C7A 		flds	s15, .L111
 1645 0006 20EE270A 		fmuls	s0, s0, s15
 1646              	.LVL165:
 1647              		.loc 1 484 0
 1648 000a 82B0     		sub	sp, sp, #8
 1649              		.cfi_def_cfa_offset 16
 1650              		.loc 1 487 0
 1651 000c BDEEC00A 		ftosizs	s0, s0
 1652              		.loc 1 485 0
 1653 0010 0023     		movs	r3, #0
 1654              		.loc 1 487 0
 1655 0012 10EE101A 		fmrs	r1, s0	@ int
 1656              		.loc 1 484 0
 1657 0016 0446     		mov	r4, r0
 1658              		.loc 1 487 0
 1659 0018 6A46     		mov	r2, sp
 1660 001a 01A8     		add	r0, sp, #4
 1661              	.LVL166:
 1662              		.loc 1 485 0
 1663 001c 0093     		str	r3, [sp]
 1664              		.loc 1 487 0
 1665 001e FFF7FEFF 		bl	buffer_append_int32
 1666              	.LVL167:
 1667              		.loc 1 488 0
 1668 0022 2046     		mov	r0, r4
 1669 0024 01A9     		add	r1, sp, #4
 1670 0026 9DF80020 		ldrb	r2, [sp]	@ zero_extendqisi2
 1671 002a FFF7FEFF 		bl	comm_can_transmit_eid
 1672              	.LVL168:
 1673              		.loc 1 490 0
 1674 002e 02B0     		add	sp, sp, #8
 1675              		@ sp needed
 1676 0030 10BD     		pop	{r4, pc}
 1677              	.L112:
 1678 0032 00BF     		.align	2
 1679              	.L111:
 1680 0034 0050C347 		.word	1203982336
 1681              		.cfi_endproc
 1682              	.LFE265:
 1683              		.size	comm_can_set_duty, .-comm_can_set_duty
 1684 0038 AFF30080 		.section	.text.comm_can_set_current,"ax",%progbits
 1684      AFF30080 
 1685              		.align	2
 1686              		.p2align 4,,15
 1687              		.global	comm_can_set_current
 1688              		.thumb
 1689              		.thumb_func
 1690              		.type	comm_can_set_current, %function
 1691              	comm_can_set_current:
 1692              	.LFB266:
 1693              		.loc 1 492 0
 1694              		.cfi_startproc
 1695              		@ args = 0, pretend = 0, frame = 8
 1696              		@ frame_needed = 0, uses_anonymous_args = 0
 1697              	.LVL169:
 1698 0000 10B5     		push	{r4, lr}
 1699              		.cfi_def_cfa_offset 8
ARM GAS  /tmp/ccGCfXPn.s 			page 31


 1700              		.cfi_offset 4, -8
 1701              		.cfi_offset 14, -4
 1702              		.loc 1 495 0
 1703 0002 DFED0C7A 		flds	s15, .L114
 1704 0006 20EE270A 		fmuls	s0, s0, s15
 1705              	.LVL170:
 1706              		.loc 1 492 0
 1707 000a 82B0     		sub	sp, sp, #8
 1708              		.cfi_def_cfa_offset 16
 1709              		.loc 1 495 0
 1710 000c BDEEC00A 		ftosizs	s0, s0
 1711              		.loc 1 493 0
 1712 0010 0023     		movs	r3, #0
 1713              		.loc 1 495 0
 1714 0012 10EE101A 		fmrs	r1, s0	@ int
 1715              		.loc 1 492 0
 1716 0016 0446     		mov	r4, r0
 1717              		.loc 1 495 0
 1718 0018 6A46     		mov	r2, sp
 1719 001a 01A8     		add	r0, sp, #4
 1720              	.LVL171:
 1721              		.loc 1 493 0
 1722 001c 0093     		str	r3, [sp]
 1723              		.loc 1 495 0
 1724 001e FFF7FEFF 		bl	buffer_append_int32
 1725              	.LVL172:
 1726              		.loc 1 496 0
 1727 0022 44F48070 		orr	r0, r4, #256
 1728 0026 01A9     		add	r1, sp, #4
 1729 0028 9DF80020 		ldrb	r2, [sp]	@ zero_extendqisi2
 1730 002c FFF7FEFF 		bl	comm_can_transmit_eid
 1731              	.LVL173:
 1732              		.loc 1 498 0
 1733 0030 02B0     		add	sp, sp, #8
 1734              		@ sp needed
 1735 0032 10BD     		pop	{r4, pc}
 1736              	.L115:
 1737              		.align	2
 1738              	.L114:
 1739 0034 00007A44 		.word	1148846080
 1740              		.cfi_endproc
 1741              	.LFE266:
 1742              		.size	comm_can_set_current, .-comm_can_set_current
 1743 0038 AFF30080 		.section	.text.comm_can_set_current_brake,"ax",%progbits
 1743      AFF30080 
 1744              		.align	2
 1745              		.p2align 4,,15
 1746              		.global	comm_can_set_current_brake
 1747              		.thumb
 1748              		.thumb_func
 1749              		.type	comm_can_set_current_brake, %function
 1750              	comm_can_set_current_brake:
 1751              	.LFB267:
 1752              		.loc 1 500 0
 1753              		.cfi_startproc
 1754              		@ args = 0, pretend = 0, frame = 8
 1755              		@ frame_needed = 0, uses_anonymous_args = 0
ARM GAS  /tmp/ccGCfXPn.s 			page 32


 1756              	.LVL174:
 1757 0000 10B5     		push	{r4, lr}
 1758              		.cfi_def_cfa_offset 8
 1759              		.cfi_offset 4, -8
 1760              		.cfi_offset 14, -4
 1761              		.loc 1 503 0
 1762 0002 DFED0C7A 		flds	s15, .L117
 1763 0006 20EE270A 		fmuls	s0, s0, s15
 1764              	.LVL175:
 1765              		.loc 1 500 0
 1766 000a 82B0     		sub	sp, sp, #8
 1767              		.cfi_def_cfa_offset 16
 1768              		.loc 1 503 0
 1769 000c BDEEC00A 		ftosizs	s0, s0
 1770              		.loc 1 501 0
 1771 0010 0023     		movs	r3, #0
 1772              		.loc 1 503 0
 1773 0012 10EE101A 		fmrs	r1, s0	@ int
 1774              		.loc 1 500 0
 1775 0016 0446     		mov	r4, r0
 1776              		.loc 1 503 0
 1777 0018 6A46     		mov	r2, sp
 1778 001a 01A8     		add	r0, sp, #4
 1779              	.LVL176:
 1780              		.loc 1 501 0
 1781 001c 0093     		str	r3, [sp]
 1782              		.loc 1 503 0
 1783 001e FFF7FEFF 		bl	buffer_append_int32
 1784              	.LVL177:
 1785              		.loc 1 504 0
 1786 0022 44F40070 		orr	r0, r4, #512
 1787 0026 01A9     		add	r1, sp, #4
 1788 0028 9DF80020 		ldrb	r2, [sp]	@ zero_extendqisi2
 1789 002c FFF7FEFF 		bl	comm_can_transmit_eid
 1790              	.LVL178:
 1791              		.loc 1 506 0
 1792 0030 02B0     		add	sp, sp, #8
 1793              		@ sp needed
 1794 0032 10BD     		pop	{r4, pc}
 1795              	.L118:
 1796              		.align	2
 1797              	.L117:
 1798 0034 00007A44 		.word	1148846080
 1799              		.cfi_endproc
 1800              	.LFE267:
 1801              		.size	comm_can_set_current_brake, .-comm_can_set_current_brake
 1802 0038 AFF30080 		.section	.text.comm_can_set_rpm,"ax",%progbits
 1802      AFF30080 
 1803              		.align	2
 1804              		.p2align 4,,15
 1805              		.global	comm_can_set_rpm
 1806              		.thumb
 1807              		.thumb_func
 1808              		.type	comm_can_set_rpm, %function
 1809              	comm_can_set_rpm:
 1810              	.LFB268:
 1811              		.loc 1 508 0
ARM GAS  /tmp/ccGCfXPn.s 			page 33


 1812              		.cfi_startproc
 1813              		@ args = 0, pretend = 0, frame = 8
 1814              		@ frame_needed = 0, uses_anonymous_args = 0
 1815              	.LVL179:
 1816 0000 10B5     		push	{r4, lr}
 1817              		.cfi_def_cfa_offset 8
 1818              		.cfi_offset 4, -8
 1819              		.cfi_offset 14, -4
 1820              		.loc 1 511 0
 1821 0002 BDEEC00A 		ftosizs	s0, s0
 1822              	.LVL180:
 1823              		.loc 1 508 0
 1824 0006 82B0     		sub	sp, sp, #8
 1825              		.cfi_def_cfa_offset 16
 1826              		.loc 1 509 0
 1827 0008 0023     		movs	r3, #0
 1828              		.loc 1 511 0
 1829 000a 10EE101A 		fmrs	r1, s0	@ int
 1830              		.loc 1 508 0
 1831 000e 0446     		mov	r4, r0
 1832              		.loc 1 511 0
 1833 0010 6A46     		mov	r2, sp
 1834 0012 01A8     		add	r0, sp, #4
 1835              	.LVL181:
 1836              		.loc 1 509 0
 1837 0014 0093     		str	r3, [sp]
 1838              		.loc 1 511 0
 1839 0016 FFF7FEFF 		bl	buffer_append_int32
 1840              	.LVL182:
 1841              		.loc 1 512 0
 1842 001a 44F44070 		orr	r0, r4, #768
 1843 001e 01A9     		add	r1, sp, #4
 1844 0020 9DF80020 		ldrb	r2, [sp]	@ zero_extendqisi2
 1845 0024 FFF7FEFF 		bl	comm_can_transmit_eid
 1846              	.LVL183:
 1847              		.loc 1 514 0
 1848 0028 02B0     		add	sp, sp, #8
 1849              		@ sp needed
 1850 002a 10BD     		pop	{r4, pc}
 1851              		.cfi_endproc
 1852              	.LFE268:
 1853              		.size	comm_can_set_rpm, .-comm_can_set_rpm
 1854 002c AFF30080 		.section	.text.comm_can_set_pos,"ax",%progbits
 1855              		.align	2
 1856              		.p2align 4,,15
 1857              		.global	comm_can_set_pos
 1858              		.thumb
 1859              		.thumb_func
 1860              		.type	comm_can_set_pos, %function
 1861              	comm_can_set_pos:
 1862              	.LFB269:
 1863              		.loc 1 516 0
 1864              		.cfi_startproc
 1865              		@ args = 0, pretend = 0, frame = 8
 1866              		@ frame_needed = 0, uses_anonymous_args = 0
 1867              	.LVL184:
 1868 0000 10B5     		push	{r4, lr}
ARM GAS  /tmp/ccGCfXPn.s 			page 34


 1869              		.cfi_def_cfa_offset 8
 1870              		.cfi_offset 4, -8
 1871              		.cfi_offset 14, -4
 1872              		.loc 1 519 0
 1873 0002 DFED0C7A 		flds	s15, .L121
 1874 0006 20EE270A 		fmuls	s0, s0, s15
 1875              	.LVL185:
 1876              		.loc 1 516 0
 1877 000a 82B0     		sub	sp, sp, #8
 1878              		.cfi_def_cfa_offset 16
 1879              		.loc 1 519 0
 1880 000c BDEEC00A 		ftosizs	s0, s0
 1881              		.loc 1 517 0
 1882 0010 0023     		movs	r3, #0
 1883              		.loc 1 519 0
 1884 0012 10EE101A 		fmrs	r1, s0	@ int
 1885              		.loc 1 516 0
 1886 0016 0446     		mov	r4, r0
 1887              		.loc 1 519 0
 1888 0018 6A46     		mov	r2, sp
 1889 001a 01A8     		add	r0, sp, #4
 1890              	.LVL186:
 1891              		.loc 1 517 0
 1892 001c 0093     		str	r3, [sp]
 1893              		.loc 1 519 0
 1894 001e FFF7FEFF 		bl	buffer_append_int32
 1895              	.LVL187:
 1896              		.loc 1 520 0
 1897 0022 44F48060 		orr	r0, r4, #1024
 1898 0026 01A9     		add	r1, sp, #4
 1899 0028 9DF80020 		ldrb	r2, [sp]	@ zero_extendqisi2
 1900 002c FFF7FEFF 		bl	comm_can_transmit_eid
 1901              	.LVL188:
 1902              		.loc 1 522 0
 1903 0030 02B0     		add	sp, sp, #8
 1904              		@ sp needed
 1905 0032 10BD     		pop	{r4, pc}
 1906              	.L122:
 1907              		.align	2
 1908              	.L121:
 1909 0034 00247449 		.word	1232348160
 1910              		.cfi_endproc
 1911              	.LFE269:
 1912              		.size	comm_can_set_pos, .-comm_can_set_pos
 1913 0038 AFF30080 		.section	.text.comm_can_set_current_rel,"ax",%progbits
 1913      AFF30080 
 1914              		.align	2
 1915              		.p2align 4,,15
 1916              		.global	comm_can_set_current_rel
 1917              		.thumb
 1918              		.thumb_func
 1919              		.type	comm_can_set_current_rel, %function
 1920              	comm_can_set_current_rel:
 1921              	.LFB270:
 1922              		.loc 1 533 0
 1923              		.cfi_startproc
 1924              		@ args = 0, pretend = 0, frame = 8
ARM GAS  /tmp/ccGCfXPn.s 			page 35


 1925              		@ frame_needed = 0, uses_anonymous_args = 0
 1926              	.LVL189:
 1927 0000 10B5     		push	{r4, lr}
 1928              		.cfi_def_cfa_offset 8
 1929              		.cfi_offset 4, -8
 1930              		.cfi_offset 14, -4
 1931 0002 82B0     		sub	sp, sp, #8
 1932              		.cfi_def_cfa_offset 16
 1933              		.loc 1 534 0
 1934 0004 0023     		movs	r3, #0
 1935              		.loc 1 533 0
 1936 0006 0446     		mov	r4, r0
 1937              		.loc 1 536 0
 1938 0008 DFED070A 		flds	s1, .L124
 1939              		.loc 1 534 0
 1940 000c 0093     		str	r3, [sp]
 1941              		.loc 1 536 0
 1942 000e 01A8     		add	r0, sp, #4
 1943              	.LVL190:
 1944 0010 6946     		mov	r1, sp
 1945 0012 FFF7FEFF 		bl	buffer_append_float32
 1946              	.LVL191:
 1947              		.loc 1 537 0
 1948 0016 44F42060 		orr	r0, r4, #2560
 1949 001a 01A9     		add	r1, sp, #4
 1950 001c 9DF80020 		ldrb	r2, [sp]	@ zero_extendqisi2
 1951 0020 FFF7FEFF 		bl	comm_can_transmit_eid
 1952              	.LVL192:
 1953              		.loc 1 539 0
 1954 0024 02B0     		add	sp, sp, #8
 1955              		@ sp needed
 1956 0026 10BD     		pop	{r4, pc}
 1957              	.L125:
 1958              		.align	2
 1959              	.L124:
 1960 0028 0050C347 		.word	1203982336
 1961              		.cfi_endproc
 1962              	.LFE270:
 1963              		.size	comm_can_set_current_rel, .-comm_can_set_current_rel
 1964 002c AFF30080 		.section	.text.comm_can_set_current_brake_rel,"ax",%progbits
 1965              		.align	2
 1966              		.p2align 4,,15
 1967              		.global	comm_can_set_current_brake_rel
 1968              		.thumb
 1969              		.thumb_func
 1970              		.type	comm_can_set_current_brake_rel, %function
 1971              	comm_can_set_current_brake_rel:
 1972              	.LFB271:
 1973              		.loc 1 550 0
 1974              		.cfi_startproc
 1975              		@ args = 0, pretend = 0, frame = 8
 1976              		@ frame_needed = 0, uses_anonymous_args = 0
 1977              	.LVL193:
 1978 0000 10B5     		push	{r4, lr}
 1979              		.cfi_def_cfa_offset 8
 1980              		.cfi_offset 4, -8
 1981              		.cfi_offset 14, -4
ARM GAS  /tmp/ccGCfXPn.s 			page 36


 1982 0002 82B0     		sub	sp, sp, #8
 1983              		.cfi_def_cfa_offset 16
 1984              		.loc 1 551 0
 1985 0004 0023     		movs	r3, #0
 1986              		.loc 1 550 0
 1987 0006 0446     		mov	r4, r0
 1988              		.loc 1 553 0
 1989 0008 DFED070A 		flds	s1, .L127
 1990              		.loc 1 551 0
 1991 000c 0093     		str	r3, [sp]
 1992              		.loc 1 553 0
 1993 000e 01A8     		add	r0, sp, #4
 1994              	.LVL194:
 1995 0010 6946     		mov	r1, sp
 1996 0012 FFF7FEFF 		bl	buffer_append_float32
 1997              	.LVL195:
 1998              		.loc 1 554 0
 1999 0016 44F43060 		orr	r0, r4, #2816
 2000 001a 01A9     		add	r1, sp, #4
 2001 001c 9DF80020 		ldrb	r2, [sp]	@ zero_extendqisi2
 2002 0020 FFF7FEFF 		bl	comm_can_transmit_eid
 2003              	.LVL196:
 2004              		.loc 1 556 0
 2005 0024 02B0     		add	sp, sp, #8
 2006              		@ sp needed
 2007 0026 10BD     		pop	{r4, pc}
 2008              	.L128:
 2009              		.align	2
 2010              	.L127:
 2011 0028 0050C347 		.word	1203982336
 2012              		.cfi_endproc
 2013              	.LFE271:
 2014              		.size	comm_can_set_current_brake_rel, .-comm_can_set_current_brake_rel
 2015 002c AFF30080 		.section	.text.comm_can_get_status_msg_index,"ax",%progbits
 2016              		.align	2
 2017              		.p2align 4,,15
 2018              		.global	comm_can_get_status_msg_index
 2019              		.thumb
 2020              		.thumb_func
 2021              		.type	comm_can_get_status_msg_index, %function
 2022              	comm_can_get_status_msg_index:
 2023              	.LFB272:
 2024              		.loc 1 567 0
 2025              		.cfi_startproc
 2026              		@ args = 0, pretend = 0, frame = 0
 2027              		@ frame_needed = 0, uses_anonymous_args = 0
 2028              		@ link register save eliminated.
 2029              	.LVL197:
 2030              		.loc 1 568 0
 2031 0000 0928     		cmp	r0, #9
 2032              		.loc 1 569 0
 2033 0002 DDBF     		ittte	le
 2034 0004 034B     		ldrle	r3, .L132
 2035 0006 00EB8000 		addle	r0, r0, r0, lsl #2
 2036              	.LVL198:
 2037 000a 03EB8000 		addle	r0, r3, r0, lsl #2
 2038              		.loc 1 571 0
ARM GAS  /tmp/ccGCfXPn.s 			page 37


 2039 000e 0020     		movgt	r0, #0
 2040              		.loc 1 573 0
 2041 0010 7047     		bx	lr
 2042              	.L133:
 2043 0012 00BF     		.align	2
 2044              	.L132:
 2045 0014 00000000 		.word	.LANCHOR3
 2046              		.cfi_endproc
 2047              	.LFE272:
 2048              		.size	comm_can_get_status_msg_index, .-comm_can_get_status_msg_index
 2049 0018 AFF30080 		.section	.text.comm_can_get_status_msg_id,"ax",%progbits
 2049      AFF30080 
 2050              		.align	2
 2051              		.p2align 4,,15
 2052              		.global	comm_can_get_status_msg_id
 2053              		.thumb
 2054              		.thumb_func
 2055              		.type	comm_can_get_status_msg_id, %function
 2056              	comm_can_get_status_msg_id:
 2057              	.LFB273:
 2058              		.loc 1 584 0
 2059              		.cfi_startproc
 2060              		@ args = 0, pretend = 0, frame = 0
 2061              		@ frame_needed = 0, uses_anonymous_args = 0
 2062              		@ link register save eliminated.
 2063              	.LVL199:
 2064 0000 30B4     		push	{r4, r5}
 2065              		.cfi_def_cfa_offset 8
 2066              		.cfi_offset 4, -8
 2067              		.cfi_offset 5, -4
 2068              		.loc 1 584 0
 2069 0002 0023     		movs	r3, #0
 2070 0004 094C     		ldr	r4, .L141
 2071              	.LBB147:
 2072              		.loc 1 585 0
 2073 0006 1A46     		mov	r2, r3
 2074              	.LVL200:
 2075              	.L137:
 2076              		.loc 1 586 0
 2077 0008 E158     		ldr	r1, [r4, r3]
 2078 000a 084D     		ldr	r5, .L141
 2079 000c 8142     		cmp	r1, r0
 2080 000e 03F11403 		add	r3, r3, #20
 2081 0012 05D0     		beq	.L140
 2082              		.loc 1 585 0
 2083 0014 0132     		adds	r2, r2, #1
 2084              	.LVL201:
 2085 0016 0A2A     		cmp	r2, #10
 2086 0018 F6D1     		bne	.L137
 2087              	.LBE147:
 2088              		.loc 1 591 0
 2089 001a 0020     		movs	r0, #0
 2090              	.LVL202:
 2091              		.loc 1 592 0
 2092 001c 30BC     		pop	{r4, r5}
 2093 001e 7047     		bx	lr
 2094              	.LVL203:
ARM GAS  /tmp/ccGCfXPn.s 			page 38


 2095              	.L140:
 2096              	.LBB148:
 2097              		.loc 1 587 0
 2098 0020 02EB8202 		add	r2, r2, r2, lsl #2
 2099              	.LVL204:
 2100 0024 05EB8200 		add	r0, r5, r2, lsl #2
 2101              	.LVL205:
 2102              	.LBE148:
 2103              		.loc 1 592 0
 2104 0028 30BC     		pop	{r4, r5}
 2105 002a 7047     		bx	lr
 2106              	.L142:
 2107              		.align	2
 2108              	.L141:
 2109 002c 00000000 		.word	.LANCHOR3
 2110              		.cfi_endproc
 2111              	.LFE273:
 2112              		.size	comm_can_get_status_msg_id, .-comm_can_get_status_msg_id
 2113              		.section	.bss.cancom_process_thread_wa,"aw",%nobits
 2114              		.align	3
 2115              		.set	.LANCHOR9,. + 0
 2116              		.type	cancom_process_thread_wa, %object
 2117              		.size	cancom_process_thread_wa, 4504
 2118              	cancom_process_thread_wa:
 2119 0000 00000000 		.space	4504
 2119      00000000 
 2119      00000000 
 2119      00000000 
 2119      00000000 
 2120              		.section	.bss.rx_frame_read,"aw",%nobits
 2121              		.align	2
 2122              		.set	.LANCHOR4,. + 0
 2123              		.type	rx_frame_read, %object
 2124              		.size	rx_frame_read, 4
 2125              	rx_frame_read:
 2126 0000 00000000 		.space	4
 2127              		.section	.bss.rx_buffer,"aw",%nobits
 2128              		.align	2
 2129              		.set	.LANCHOR10,. + 0
 2130              		.type	rx_buffer, %object
 2131              		.size	rx_buffer, 1024
 2132              	rx_buffer:
 2133 0000 00000000 		.space	1024
 2133      00000000 
 2133      00000000 
 2133      00000000 
 2133      00000000 
 2134              		.section	.bss.cancom_status_thread_wa,"aw",%nobits
 2135              		.align	3
 2136              		.set	.LANCHOR8,. + 0
 2137              		.type	cancom_status_thread_wa, %object
 2138              		.size	cancom_status_thread_wa, 1432
 2139              	cancom_status_thread_wa:
 2140 0000 00000000 		.space	1432
 2140      00000000 
 2140      00000000 
 2140      00000000 
ARM GAS  /tmp/ccGCfXPn.s 			page 39


 2140      00000000 
 2141              		.section	.bss.stat_msgs,"aw",%nobits
 2142              		.align	2
 2143              		.set	.LANCHOR3,. + 0
 2144              		.type	stat_msgs, %object
 2145              		.size	stat_msgs, 200
 2146              	stat_msgs:
 2147 0000 00000000 		.space	200
 2147      00000000 
 2147      00000000 
 2147      00000000 
 2147      00000000 
 2148              		.section	.bss.rx_frames,"aw",%nobits
 2149              		.align	2
 2150              		.set	.LANCHOR1,. + 0
 2151              		.type	rx_frames, %object
 2152              		.size	rx_frames, 2000
 2153              	rx_frames:
 2154 0000 00000000 		.space	2000
 2154      00000000 
 2154      00000000 
 2154      00000000 
 2154      00000000 
 2155              		.section	.rodata.str1.4,"aMS",%progbits,1
 2156              		.align	2
 2157              	.LC0:
 2158 0000 43414E00 		.ascii	"CAN\000"
 2159              	.LC1:
 2160 0004 43414E20 		.ascii	"CAN status\000"
 2160      73746174 
 2160      757300
 2161 000f 00       		.space	1
 2162              	.LC2:
 2163 0010 43616E63 		.ascii	"Cancom process\000"
 2163      6F6D2070 
 2163      726F6365 
 2163      737300
 2164 001f 00       		.section	.bss.can_mtx,"aw",%nobits
 2165              		.align	2
 2166              		.set	.LANCHOR5,. + 0
 2167              		.type	can_mtx, %object
 2168              		.size	can_mtx, 16
 2169              	can_mtx:
 2170 0000 00000000 		.space	16
 2170      00000000 
 2170      00000000 
 2170      00000000 
 2171              		.section	.bss.sid_callback,"aw",%nobits
 2172              		.align	2
 2173              		.set	.LANCHOR12,. + 0
 2174              		.type	sid_callback, %object
 2175              		.size	sid_callback, 4
 2176              	sid_callback:
 2177 0000 00000000 		.space	4
 2178              		.section	.data.cancfg,"aw",%progbits
 2179              		.align	2
 2180              		.set	.LANCHOR6,. + 0
ARM GAS  /tmp/ccGCfXPn.s 			page 40


 2181              		.type	cancfg, %object
 2182              		.size	cancfg, 8
 2183              	cancfg:
 2184 0000 64000000 		.word	100
 2185 0004 05002903 		.word	53018629
 2186              		.section	.bss.cancom_read_thread_wa,"aw",%nobits
 2187              		.align	3
 2188              		.set	.LANCHOR7,. + 0
 2189              		.type	cancom_read_thread_wa, %object
 2190              		.size	cancom_read_thread_wa, 920
 2191              	cancom_read_thread_wa:
 2192 0000 00000000 		.space	920
 2192      00000000 
 2192      00000000 
 2192      00000000 
 2192      00000000 
 2193              		.section	.bss.process_tp,"aw",%nobits
 2194              		.align	2
 2195              		.set	.LANCHOR2,. + 0
 2196              		.type	process_tp, %object
 2197              		.size	process_tp, 4
 2198              	process_tp:
 2199 0000 00000000 		.space	4
 2200              		.section	.bss.rx_buffer_last_id,"aw",%nobits
 2201              		.align	2
 2202              		.set	.LANCHOR11,. + 0
 2203              		.type	rx_buffer_last_id, %object
 2204              		.size	rx_buffer_last_id, 4
 2205              	rx_buffer_last_id:
 2206 0000 00000000 		.space	4
 2207              		.section	.bss.rx_frame_write,"aw",%nobits
 2208              		.align	2
 2209              		.set	.LANCHOR0,. + 0
 2210              		.type	rx_frame_write, %object
 2211              		.size	rx_frame_write, 4
 2212              	rx_frame_write:
 2213 0000 00000000 		.space	4
 2214              		.text
 2215              	.Letext0:
 2216              		.file 7 "/usr/lib/gcc/arm-none-eabi/4.8/include/stddef.h"
 2217              		.file 8 "/usr/include/newlib/machine/_default_types.h"
 2218              		.file 9 "/usr/include/newlib/stdint.h"
 2219              		.file 10 "ChibiOS_3.0.2/os/rt/ports/ARMCMx/compilers/GCC/chtypes.h"
 2220              		.file 11 "ChibiOS_3.0.2/os/rt/include/chsystypes.h"
 2221              		.file 12 "ChibiOS_3.0.2/os/rt/include/chschd.h"
 2222              		.file 13 "ChibiOS_3.0.2/os/ext/CMSIS/ST/stm32f407xx.h"
 2223              		.file 14 "ChibiOS_3.0.2/os/rt/ports/ARMCMx/chcore.h"
 2224              		.file 15 "ChibiOS_3.0.2/os/rt/ports/ARMCMx/chcore_v7m.h"
 2225              		.file 16 "ChibiOS_3.0.2/os/rt/include/chtm.h"
 2226              		.file 17 "ChibiOS_3.0.2/os/rt/include/chsem.h"
 2227              		.file 18 "ChibiOS_3.0.2/os/rt/include/chmtx.h"
 2228              		.file 19 "datatypes.h"
 2229              		.file 20 "ChibiOS_3.0.2/os/hal/ports/STM32/LLD/GPIOv2/pal_lld.h"
 2230              		.file 21 "ChibiOS_3.0.2/os/hal/include/can.h"
 2231              		.file 22 "ChibiOS_3.0.2/os/hal/ports/STM32/LLD/can_lld.h"
 2232              		.file 23 "ChibiOS_3.0.2/os/rt/include/chsys.h"
 2233              		.file 24 "ChibiOS_3.0.2/os/ext/CMSIS/include/core_cm4.h"
ARM GAS  /tmp/ccGCfXPn.s 			page 41


 2234              		.file 25 "buffer.h"
 2235              		.file 26 "mc_interface.h"
 2236              		.file 27 "applications/app.h"
 2237              		.file 28 "commands.h"
 2238              		.file 29 "crc.h"
 2239              		.file 30 "encoder.h"
 2240              		.file 31 "timeout.h"