ARM GAS  /tmp/ccXMUhDG.s 			page 1


   1              		.syntax unified
   2              		.cpu cortex-m4
   3              		.eabi_attribute 27, 3
   4              		.eabi_attribute 28, 1
   5              		.fpu fpv4-sp-d16
   6              		.eabi_attribute 20, 1
   7              		.eabi_attribute 21, 1
   8              		.eabi_attribute 23, 3
   9              		.eabi_attribute 24, 1
  10              		.eabi_attribute 25, 1
  11              		.eabi_attribute 26, 1
  12              		.eabi_attribute 30, 2
  13              		.eabi_attribute 34, 1
  14              		.eabi_attribute 18, 4
  15              		.thumb
  16              		.file	"comm_usb_serial.c"
  17              		.text
  18              	.Ltext0:
  19              		.cfi_sections	.debug_frame
  20              		.section	.text.get_descriptor,"ax",%progbits
  21              		.align	2
  22              		.p2align 4,,15
  23              		.thumb
  24              		.thumb_func
  25              		.type	get_descriptor, %function
  26              	get_descriptor:
  27              	.LFB256:
  28              		.file 1 "comm_usb_serial.c"
  29              		.loc 1 190 0
  30              		.cfi_startproc
  31              		@ args = 0, pretend = 0, frame = 0
  32              		@ frame_needed = 0, uses_anonymous_args = 0
  33              		@ link register save eliminated.
  34              	.LVL0:
  35              		.loc 1 194 0
  36 0000 0229     		cmp	r1, #2
  37 0002 06D0     		beq	.L6
  38 0004 0329     		cmp	r1, #3
  39 0006 06D0     		beq	.L4
  40              		.loc 1 203 0
  41 0008 0748     		ldr	r0, .L9
  42              	.LVL1:
  43              		.loc 1 194 0
  44 000a 0129     		cmp	r1, #1
  45              		.loc 1 203 0
  46 000c 18BF     		it	ne
  47 000e 0020     		movne	r0, #0
  48 0010 7047     		bx	lr
  49              	.LVL2:
  50              	.L6:
  51              		.loc 1 198 0
  52 0012 0648     		ldr	r0, .L9+4
  53              	.LVL3:
  54 0014 7047     		bx	lr
  55              	.LVL4:
  56              	.L4:
  57              		.loc 1 200 0
ARM GAS  /tmp/ccXMUhDG.s 			page 2


  58 0016 032A     		cmp	r2, #3
  59 0018 03D8     		bhi	.L7
  60              		.loc 1 201 0
  61 001a 0548     		ldr	r0, .L9+8
  62              	.LVL5:
  63 001c 00EBC200 		add	r0, r0, r2, lsl #3
  64 0020 7047     		bx	lr
  65              	.LVL6:
  66              	.L7:
  67              		.loc 1 203 0
  68 0022 0020     		movs	r0, #0
  69              	.LVL7:
  70              		.loc 1 204 0
  71 0024 7047     		bx	lr
  72              	.L10:
  73 0026 00BF     		.align	2
  74              	.L9:
  75 0028 00000000 		.word	.LANCHOR0
  76 002c 00000000 		.word	.LANCHOR1
  77 0030 00000000 		.word	.LANCHOR2
  78              		.cfi_endproc
  79              	.LFE256:
  80              		.size	get_descriptor, .-get_descriptor
  81 0034 AFF30080 		.section	.text.usb_event,"ax",%progbits
  81      AFF30080 
  81      AFF30080 
  82              		.align	2
  83              		.p2align 4,,15
  84              		.thumb
  85              		.thumb_func
  86              		.type	usb_event, %function
  87              	usb_event:
  88              	.LFB257:
  89              		.loc 1 256 0
  90              		.cfi_startproc
  91              		@ args = 0, pretend = 0, frame = 0
  92              		@ frame_needed = 0, uses_anonymous_args = 0
  93              	.LVL8:
  94              		.loc 1 258 0
  95 0000 0229     		cmp	r1, #2
  96              		.loc 1 256 0
  97 0002 38B5     		push	{r3, r4, r5, lr}
  98              		.cfi_def_cfa_offset 16
  99              		.cfi_offset 3, -16
 100              		.cfi_offset 4, -12
 101              		.cfi_offset 5, -8
 102              		.cfi_offset 14, -4
 103              		.loc 1 256 0
 104 0004 0C46     		mov	r4, r1
 105 0006 0546     		mov	r5, r0
 106              		.loc 1 258 0
 107 0008 11D1     		bne	.L11
 108              	.LVL9:
 109              	.LBB58:
 110              	.LBB59:
 111              	.LBB60:
 112              	.LBB61:
ARM GAS  /tmp/ccXMUhDG.s 			page 3


 113              	.LBB62:
 114              	.LBB63:
 115              	.LBB64:
 116              		.file 2 "ChibiOS_3.0.2/os/ext/CMSIS/include/core_cmFunc.h"
 117              		.loc 2 546 0
 118 000a 2023     		movs	r3, #32
 119              	@ 546 "ChibiOS_3.0.2/os/ext/CMSIS/include/core_cmFunc.h" 1
 120 000c 83F31188 		MSR basepri, r3
 121              	@ 0 "" 2
 122              		.thumb
 123              	.LBE64:
 124              	.LBE63:
 125              	.LBE62:
 126              	.LBE61:
 127              	.LBE60:
 128              		.loc 1 269 0
 129 0010 0121     		movs	r1, #1
 130              	.LVL10:
 131 0012 074A     		ldr	r2, .L14
 132 0014 FFF7FEFF 		bl	usbInitEndpointI
 133              	.LVL11:
 134              		.loc 1 270 0
 135 0018 2846     		mov	r0, r5
 136 001a 2146     		mov	r1, r4
 137 001c 054A     		ldr	r2, .L14+4
 138 001e FFF7FEFF 		bl	usbInitEndpointI
 139              	.LVL12:
 140              		.loc 1 273 0
 141 0022 0548     		ldr	r0, .L14+8
 142 0024 FFF7FEFF 		bl	sduConfigureHookI
 143              	.LVL13:
 144              	.LBB65:
 145              	.LBB66:
 146              	.LBB67:
 147              	.LBB68:
 148              	.LBB69:
 149              		.loc 2 546 0
 150 0028 0023     		movs	r3, #0
 151              	@ 546 "ChibiOS_3.0.2/os/ext/CMSIS/include/core_cmFunc.h" 1
 152 002a 83F31188 		MSR basepri, r3
 153              	@ 0 "" 2
 154              	.LVL14:
 155              		.thumb
 156              	.L11:
 157 002e 38BD     		pop	{r3, r4, r5, pc}
 158              	.LVL15:
 159              	.L15:
 160              		.align	2
 161              	.L14:
 162 0030 00000000 		.word	.LANCHOR3
 163 0034 00000000 		.word	.LANCHOR4
 164 0038 00000000 		.word	.LANCHOR5
 165              	.LBE69:
 166              	.LBE68:
 167              	.LBE67:
 168              	.LBE66:
 169              	.LBE65:
ARM GAS  /tmp/ccXMUhDG.s 			page 4


 170              	.LBE59:
 171              	.LBE58:
 172              		.cfi_endproc
 173              	.LFE257:
 174              		.size	usb_event, .-usb_event
 175 003c AFF30080 		.section	.text.comm_usb_serial_init,"ax",%progbits
 176              		.align	2
 177              		.p2align 4,,15
 178              		.global	comm_usb_serial_init
 179              		.thumb
 180              		.thumb_func
 181              		.type	comm_usb_serial_init, %function
 182              	comm_usb_serial_init:
 183              	.LFB258:
 184              		.loc 1 307 0
 185              		.cfi_startproc
 186              		@ args = 0, pretend = 0, frame = 0
 187              		@ frame_needed = 0, uses_anonymous_args = 0
 188 0000 70B5     		push	{r4, r5, r6, lr}
 189              		.cfi_def_cfa_offset 16
 190              		.cfi_offset 4, -16
 191              		.cfi_offset 5, -12
 192              		.cfi_offset 6, -8
 193              		.cfi_offset 14, -4
 194              		.loc 1 308 0
 195 0002 154E     		ldr	r6, .L17
 196              		.loc 1 317 0
 197 0004 154D     		ldr	r5, .L17+4
 198              		.loc 1 325 0
 199 0006 164C     		ldr	r4, .L17+8
 200              		.loc 1 308 0
 201 0008 3046     		mov	r0, r6
 202 000a 4FF40061 		mov	r1, #2048
 203 000e 40F20A52 		movw	r2, #1290
 204 0012 FFF7FEFF 		bl	_pal_lld_setgroupmode
 205              	.LVL16:
 206              		.loc 1 312 0
 207 0016 40F20A52 		movw	r2, #1290
 208 001a 4FF48051 		mov	r1, #4096
 209 001e 3046     		mov	r0, r6
 210 0020 FFF7FEFF 		bl	_pal_lld_setgroupmode
 211              	.LVL17:
 212              		.loc 1 317 0
 213 0024 2846     		mov	r0, r5
 214 0026 FFF7FEFF 		bl	sduObjectInit
 215              	.LVL18:
 216              		.loc 1 318 0
 217 002a 0E49     		ldr	r1, .L17+12
 218 002c 2846     		mov	r0, r5
 219 002e FFF7FEFF 		bl	sduStart
 220              	.LVL19:
 221              		.loc 1 325 0
 222 0032 236D     		ldr	r3, [r4, #80]
 223 0034 9A6B     		ldr	r2, [r3, #56]
 224 0036 22F40022 		bic	r2, r2, #524288
 225 003a 9A63     		str	r2, [r3, #56]
 226              		.loc 1 326 0
ARM GAS  /tmp/ccXMUhDG.s 			page 5


 227 003c 43F69820 		movw	r0, #15000
 228 0040 FFF7FEFF 		bl	chThdSleep
 229              	.LVL20:
 230              		.loc 1 327 0
 231 0044 2046     		mov	r0, r4
 232 0046 0849     		ldr	r1, .L17+16
 233 0048 FFF7FEFF 		bl	usbStart
 234              	.LVL21:
 235              		.loc 1 328 0
 236 004c 236D     		ldr	r3, [r4, #80]
 237 004e 9A6B     		ldr	r2, [r3, #56]
 238 0050 42F40022 		orr	r2, r2, #524288
 239 0054 9A63     		str	r2, [r3, #56]
 240 0056 70BD     		pop	{r4, r5, r6, pc}
 241              	.L18:
 242              		.align	2
 243              	.L17:
 244 0058 00000240 		.word	1073872896
 245 005c 00000000 		.word	.LANCHOR5
 246 0060 00000000 		.word	USBD1
 247 0064 00000000 		.word	.LANCHOR6
 248 0068 00000000 		.word	.LANCHOR7
 249              		.cfi_endproc
 250              	.LFE258:
 251              		.size	comm_usb_serial_init, .-comm_usb_serial_init
 252 006c AFF30080 		.section	.text.comm_usb_serial_is_active,"ax",%progbits
 253              		.align	2
 254              		.p2align 4,,15
 255              		.global	comm_usb_serial_is_active
 256              		.thumb
 257              		.thumb_func
 258              		.type	comm_usb_serial_is_active, %function
 259              	comm_usb_serial_is_active:
 260              	.LFB259:
 261              		.loc 1 331 0
 262              		.cfi_startproc
 263              		@ args = 0, pretend = 0, frame = 0
 264              		@ frame_needed = 0, uses_anonymous_args = 0
 265              		@ link register save eliminated.
 266              		.loc 1 332 0
 267 0000 044B     		ldr	r3, .L20
 268 0002 D3F85432 		ldr	r3, [r3, #596]
 269 0006 1B68     		ldr	r3, [r3]
 270 0008 1878     		ldrb	r0, [r3]	@ zero_extendqisi2
 271              		.loc 1 333 0
 272 000a 031F     		subs	r3, r0, #4
 273 000c 5842     		rsbs	r0, r3, #0
 274 000e 5841     		adcs	r0, r0, r3
 275 0010 7047     		bx	lr
 276              	.L21:
 277 0012 00BF     		.align	2
 278              	.L20:
 279 0014 00000000 		.word	.LANCHOR5
 280              		.cfi_endproc
 281              	.LFE259:
 282              		.size	comm_usb_serial_is_active, .-comm_usb_serial_is_active
 283              		.global	serusbcfg
ARM GAS  /tmp/ccXMUhDG.s 			page 6


 284              		.global	SDU1
 285 0018 AFF30080 		.section	.rodata.ep1config,"a",%progbits
 285      AFF30080 
 286              		.align	2
 287              		.set	.LANCHOR3,. + 0
 288              		.type	ep1config, %object
 289              		.size	ep1config, 36
 290              	ep1config:
 291 0000 02000000 		.word	2
 292 0004 00000000 		.word	0
 293 0008 00000000 		.word	sduDataTransmitted
 294 000c 00000000 		.word	sduDataReceived
 295 0010 4000     		.short	64
 296 0012 4000     		.short	64
 297 0014 00000000 		.word	ep1instate
 298 0018 00000000 		.word	ep1outstate
 299 001c 0200     		.short	2
 300 001e 0000     		.space	2
 301 0020 00000000 		.word	0
 302              		.section	.bss.ep2instate,"aw",%nobits
 303              		.align	2
 304              		.type	ep2instate, %object
 305              		.size	ep2instate, 20
 306              	ep2instate:
 307 0000 00000000 		.space	20
 307      00000000 
 307      00000000 
 307      00000000 
 307      00000000 
 308              		.section	.bss.SDU1,"aw",%nobits
 309              		.align	2
 310              		.set	.LANCHOR5,. + 0
 311              		.type	SDU1, %object
 312              		.size	SDU1, 600
 313              	SDU1:
 314 0000 00000000 		.space	600
 314      00000000 
 314      00000000 
 314      00000000 
 314      00000000 
 315              		.section	.bss.ep1instate,"aw",%nobits
 316              		.align	2
 317              		.type	ep1instate, %object
 318              		.size	ep1instate, 20
 319              	ep1instate:
 320 0000 00000000 		.space	20
 320      00000000 
 320      00000000 
 320      00000000 
 320      00000000 
 321              		.section	.rodata.vcom_configuration_descriptor,"a",%progbits
 322              		.align	2
 323              		.set	.LANCHOR1,. + 0
 324              		.type	vcom_configuration_descriptor, %object
 325              		.size	vcom_configuration_descriptor, 8
 326              	vcom_configuration_descriptor:
 327 0000 43000000 		.word	67
ARM GAS  /tmp/ccXMUhDG.s 			page 7


 328 0004 00000000 		.word	vcom_configuration_descriptor_data
 329              		.section	.rodata.ep2config,"a",%progbits
 330              		.align	2
 331              		.set	.LANCHOR4,. + 0
 332              		.type	ep2config, %object
 333              		.size	ep2config, 36
 334              	ep2config:
 335 0000 03000000 		.word	3
 336 0004 00000000 		.word	0
 337 0008 00000000 		.word	sduInterruptTransmitted
 338 000c 00000000 		.word	0
 339 0010 1000     		.short	16
 340 0012 0000     		.short	0
 341 0014 00000000 		.word	ep2instate
 342 0018 00000000 		.word	0
 343 001c 0100     		.short	1
 344 001e 0000     		.space	2
 345 0020 00000000 		.word	0
 346              		.section	.rodata.usbcfg,"a",%progbits
 347              		.align	2
 348              		.set	.LANCHOR7,. + 0
 349              		.type	usbcfg, %object
 350              		.size	usbcfg, 16
 351              	usbcfg:
 352 0000 00000000 		.word	usb_event
 353 0004 00000000 		.word	get_descriptor
 354 0008 00000000 		.word	sduRequestsHook
 355 000c 00000000 		.word	0
 356              		.section	.rodata.vcom_configuration_descriptor_data,"a",%progbits
 357              		.align	2
 358              		.type	vcom_configuration_descriptor_data, %object
 359              		.size	vcom_configuration_descriptor_data, 67
 360              	vcom_configuration_descriptor_data:
 361 0000 09       		.byte	9
 362 0001 02       		.byte	2
 363 0002 43       		.byte	67
 364 0003 00       		.byte	0
 365 0004 02       		.byte	2
 366 0005 01       		.byte	1
 367 0006 00       		.byte	0
 368 0007 C0       		.byte	-64
 369 0008 32       		.byte	50
 370 0009 09       		.byte	9
 371 000a 04       		.byte	4
 372 000b 00       		.byte	0
 373 000c 00       		.byte	0
 374 000d 01       		.byte	1
 375 000e 02       		.byte	2
 376 000f 02       		.byte	2
 377 0010 01       		.byte	1
 378 0011 00       		.byte	0
 379 0012 05       		.byte	5
 380 0013 24       		.byte	36
 381 0014 00       		.byte	0
 382 0015 10       		.byte	16
 383 0016 01       		.byte	1
 384 0017 05       		.byte	5
ARM GAS  /tmp/ccXMUhDG.s 			page 8


 385 0018 24       		.byte	36
 386 0019 01       		.byte	1
 387 001a 00       		.byte	0
 388 001b 01       		.byte	1
 389 001c 04       		.byte	4
 390 001d 24       		.byte	36
 391 001e 02       		.byte	2
 392 001f 02       		.byte	2
 393 0020 05       		.byte	5
 394 0021 24       		.byte	36
 395 0022 06       		.byte	6
 396 0023 00       		.byte	0
 397 0024 01       		.byte	1
 398 0025 07       		.byte	7
 399 0026 05       		.byte	5
 400 0027 82       		.byte	-126
 401 0028 03       		.byte	3
 402 0029 08       		.byte	8
 403 002a 00       		.byte	0
 404 002b FF       		.byte	-1
 405 002c 09       		.byte	9
 406 002d 04       		.byte	4
 407 002e 01       		.byte	1
 408 002f 00       		.byte	0
 409 0030 02       		.byte	2
 410 0031 0A       		.byte	10
 411 0032 00       		.byte	0
 412 0033 00       		.byte	0
 413 0034 00       		.byte	0
 414 0035 07       		.byte	7
 415 0036 05       		.byte	5
 416 0037 01       		.byte	1
 417 0038 02       		.byte	2
 418 0039 40       		.byte	64
 419 003a 00       		.byte	0
 420 003b 00       		.byte	0
 421 003c 07       		.byte	7
 422 003d 05       		.byte	5
 423 003e 81       		.byte	-127
 424 003f 02       		.byte	2
 425 0040 40       		.byte	64
 426 0041 00       		.byte	0
 427 0042 00       		.byte	0
 428 0043 00       		.section	.rodata.vcom_device_descriptor_data,"a",%progbits
 429              		.align	2
 430              		.type	vcom_device_descriptor_data, %object
 431              		.size	vcom_device_descriptor_data, 18
 432              	vcom_device_descriptor_data:
 433 0000 12       		.byte	18
 434 0001 01       		.byte	1
 435 0002 10       		.byte	16
 436 0003 01       		.byte	1
 437 0004 02       		.byte	2
 438 0005 00       		.byte	0
 439 0006 00       		.byte	0
 440 0007 40       		.byte	64
 441 0008 83       		.byte	-125
ARM GAS  /tmp/ccXMUhDG.s 			page 9


 442 0009 04       		.byte	4
 443 000a 40       		.byte	64
 444 000b 57       		.byte	87
 445 000c 00       		.byte	0
 446 000d 02       		.byte	2
 447 000e 01       		.byte	1
 448 000f 02       		.byte	2
 449 0010 03       		.byte	3
 450 0011 01       		.byte	1
 451 0012 0000     		.section	.bss.ep1outstate,"aw",%nobits
 452              		.align	2
 453              		.type	ep1outstate, %object
 454              		.size	ep1outstate, 20
 455              	ep1outstate:
 456 0000 00000000 		.space	20
 456      00000000 
 456      00000000 
 456      00000000 
 456      00000000 
 457              		.section	.rodata.vcom_string0,"a",%progbits
 458              		.align	2
 459              		.type	vcom_string0, %object
 460              		.size	vcom_string0, 4
 461              	vcom_string0:
 462 0000 04       		.byte	4
 463 0001 03       		.byte	3
 464 0002 09       		.byte	9
 465 0003 04       		.byte	4
 466              		.section	.rodata.vcom_string1,"a",%progbits
 467              		.align	2
 468              		.type	vcom_string1, %object
 469              		.size	vcom_string1, 38
 470              	vcom_string1:
 471 0000 26       		.byte	38
 472 0001 03       		.byte	3
 473 0002 53       		.byte	83
 474 0003 00       		.byte	0
 475 0004 54       		.byte	84
 476 0005 00       		.byte	0
 477 0006 4D       		.byte	77
 478 0007 00       		.byte	0
 479 0008 69       		.byte	105
 480 0009 00       		.byte	0
 481 000a 63       		.byte	99
 482 000b 00       		.byte	0
 483 000c 72       		.byte	114
 484 000d 00       		.byte	0
 485 000e 6F       		.byte	111
 486 000f 00       		.byte	0
 487 0010 65       		.byte	101
 488 0011 00       		.byte	0
 489 0012 6C       		.byte	108
 490 0013 00       		.byte	0
 491 0014 65       		.byte	101
 492 0015 00       		.byte	0
 493 0016 63       		.byte	99
 494 0017 00       		.byte	0
ARM GAS  /tmp/ccXMUhDG.s 			page 10


 495 0018 74       		.byte	116
 496 0019 00       		.byte	0
 497 001a 72       		.byte	114
 498 001b 00       		.byte	0
 499 001c 6F       		.byte	111
 500 001d 00       		.byte	0
 501 001e 6E       		.byte	110
 502 001f 00       		.byte	0
 503 0020 69       		.byte	105
 504 0021 00       		.byte	0
 505 0022 63       		.byte	99
 506 0023 00       		.byte	0
 507 0024 73       		.byte	115
 508 0025 00       		.byte	0
 509 0026 0000     		.section	.rodata.vcom_string2,"a",%progbits
 510              		.align	2
 511              		.type	vcom_string2, %object
 512              		.size	vcom_string2, 56
 513              	vcom_string2:
 514 0000 38       		.byte	56
 515 0001 03       		.byte	3
 516 0002 43       		.byte	67
 517 0003 00       		.byte	0
 518 0004 68       		.byte	104
 519 0005 00       		.byte	0
 520 0006 69       		.byte	105
 521 0007 00       		.byte	0
 522 0008 62       		.byte	98
 523 0009 00       		.byte	0
 524 000a 69       		.byte	105
 525 000b 00       		.byte	0
 526 000c 4F       		.byte	79
 527 000d 00       		.byte	0
 528 000e 53       		.byte	83
 529 000f 00       		.byte	0
 530 0010 2F       		.byte	47
 531 0011 00       		.byte	0
 532 0012 52       		.byte	82
 533 0013 00       		.byte	0
 534 0014 54       		.byte	84
 535 0015 00       		.byte	0
 536 0016 20       		.byte	32
 537 0017 00       		.byte	0
 538 0018 56       		.byte	86
 539 0019 00       		.byte	0
 540 001a 69       		.byte	105
 541 001b 00       		.byte	0
 542 001c 72       		.byte	114
 543 001d 00       		.byte	0
 544 001e 74       		.byte	116
 545 001f 00       		.byte	0
 546 0020 75       		.byte	117
 547 0021 00       		.byte	0
 548 0022 61       		.byte	97
 549 0023 00       		.byte	0
 550 0024 6C       		.byte	108
 551 0025 00       		.byte	0
ARM GAS  /tmp/ccXMUhDG.s 			page 11


 552 0026 20       		.byte	32
 553 0027 00       		.byte	0
 554 0028 43       		.byte	67
 555 0029 00       		.byte	0
 556 002a 4F       		.byte	79
 557 002b 00       		.byte	0
 558 002c 4D       		.byte	77
 559 002d 00       		.byte	0
 560 002e 20       		.byte	32
 561 002f 00       		.byte	0
 562 0030 50       		.byte	80
 563 0031 00       		.byte	0
 564 0032 6F       		.byte	111
 565 0033 00       		.byte	0
 566 0034 72       		.byte	114
 567 0035 00       		.byte	0
 568 0036 74       		.byte	116
 569 0037 00       		.byte	0
 570              		.section	.rodata.vcom_string3,"a",%progbits
 571              		.align	2
 572              		.type	vcom_string3, %object
 573              		.size	vcom_string3, 8
 574              	vcom_string3:
 575 0000 08       		.byte	8
 576 0001 03       		.byte	3
 577 0002 33       		.byte	51
 578 0003 00       		.byte	0
 579 0004 30       		.byte	48
 580 0005 00       		.byte	0
 581 0006 31       		.byte	49
 582 0007 00       		.byte	0
 583              		.section	.rodata.vcom_strings,"a",%progbits
 584              		.align	2
 585              		.set	.LANCHOR2,. + 0
 586              		.type	vcom_strings, %object
 587              		.size	vcom_strings, 32
 588              	vcom_strings:
 589 0000 04000000 		.word	4
 590 0004 00000000 		.word	vcom_string0
 591 0008 26000000 		.word	38
 592 000c 00000000 		.word	vcom_string1
 593 0010 38000000 		.word	56
 594 0014 00000000 		.word	vcom_string2
 595 0018 08000000 		.word	8
 596 001c 00000000 		.word	vcom_string3
 597              		.section	.rodata.serusbcfg,"a",%progbits
 598              		.align	2
 599              		.set	.LANCHOR6,. + 0
 600              		.type	serusbcfg, %object
 601              		.size	serusbcfg, 8
 602              	serusbcfg:
 603 0000 00000000 		.word	USBD1
 604 0004 01       		.byte	1
 605 0005 01       		.byte	1
 606 0006 02       		.byte	2
 607 0007 00       		.space	1
 608              		.section	.rodata.vcom_device_descriptor,"a",%progbits
ARM GAS  /tmp/ccXMUhDG.s 			page 12


 609              		.align	2
 610              		.set	.LANCHOR0,. + 0
 611              		.type	vcom_device_descriptor, %object
 612              		.size	vcom_device_descriptor, 8
 613              	vcom_device_descriptor:
 614 0000 12000000 		.word	18
 615 0004 00000000 		.word	vcom_device_descriptor_data
 616              		.text
 617              	.Letext0:
 618              		.file 3 "/usr/lib/gcc/arm-none-eabi/4.8/include/stddef.h"
 619              		.file 4 "/usr/include/newlib/machine/_default_types.h"
 620              		.file 5 "/usr/include/newlib/stdint.h"
 621              		.file 6 "ChibiOS_3.0.2/os/rt/ports/ARMCMx/compilers/GCC/chtypes.h"
 622              		.file 7 "ChibiOS_3.0.2/os/rt/include/chsystypes.h"
 623              		.file 8 "ChibiOS_3.0.2/os/rt/include/chschd.h"
 624              		.file 9 "ChibiOS_3.0.2/os/rt/ports/ARMCMx/chcore.h"
 625              		.file 10 "ChibiOS_3.0.2/os/rt/ports/ARMCMx/chcore_v7m.h"
 626              		.file 11 "ChibiOS_3.0.2/os/rt/include/chtm.h"
 627              		.file 12 "ChibiOS_3.0.2/os/rt/include/chsem.h"
 628              		.file 13 "ChibiOS_3.0.2/os/rt/include/chmtx.h"
 629              		.file 14 "ChibiOS_3.0.2/os/rt/include/chevents.h"
 630              		.file 15 "ChibiOS_3.0.2/os/rt/include/chqueues.h"
 631              		.file 16 "ChibiOS_3.0.2/os/hal/ports/STM32/LLD/GPIOv2/pal_lld.h"
 632              		.file 17 "ChibiOS_3.0.2/os/hal/include/usb.h"
 633              		.file 18 "ChibiOS_3.0.2/os/hal/ports/STM32/LLD/OTGv1/usb_lld.h"
 634              		.file 19 "ChibiOS_3.0.2/os/hal/ports/STM32/LLD/OTGv1/stm32_otg.h"
 635              		.file 20 "ChibiOS_3.0.2/os/hal/include/serial_usb.h"
 636              		.file 21 "ChibiOS_3.0.2/os/rt/include/chsys.h"
 637              		.file 22 "ChibiOS_3.0.2/os/ext/CMSIS/include/core_cm4.h"
 638              		.file 23 "ChibiOS_3.0.2/os/rt/include/chthreads.h"