ARM GAS  /tmp/ccTQOGyd.s 			page 1


   1              		.syntax unified
   2              		.cpu cortex-m4
   3              		.eabi_attribute 27, 3
   4              		.eabi_attribute 28, 1
   5              		.fpu fpv4-sp-d16
   6              		.eabi_attribute 20, 1
   7              		.eabi_attribute 21, 1
   8              		.eabi_attribute 23, 3
   9              		.eabi_attribute 24, 1
  10              		.eabi_attribute 25, 1
  11              		.eabi_attribute 26, 1
  12              		.eabi_attribute 30, 2
  13              		.eabi_attribute 34, 1
  14              		.eabi_attribute 18, 4
  15              		.thumb
  16              		.file	"commands.c"
  17              		.text
  18              	.Ltext0:
  19              		.cfi_sections	.debug_frame
  20              		.section	.text.detect_thread,"ax",%progbits
  21              		.align	2
  22              		.p2align 4,,15
  23              		.thumb
  24              		.thumb_func
  25              		.type	detect_thread, %function
  26              	detect_thread:
  27              	.LFB268:
  28              		.file 1 "commands.c"
  29              		.loc 1 1023 0
  30              		.cfi_startproc
  31              		@ args = 0, pretend = 0, frame = 8
  32              		@ frame_needed = 0, uses_anonymous_args = 0
  33              	.LVL0:
  34 0000 2DE9F04F 		push	{r4, r5, r6, r7, r8, r9, r10, fp, lr}
  35              		.cfi_def_cfa_offset 36
  36              		.cfi_offset 4, -36
  37              		.cfi_offset 5, -32
  38              		.cfi_offset 6, -28
  39              		.cfi_offset 7, -24
  40              		.cfi_offset 8, -20
  41              		.cfi_offset 9, -16
  42              		.cfi_offset 10, -12
  43              		.cfi_offset 11, -8
  44              		.cfi_offset 14, -4
  45              	.LBB63:
  46              	.LBB64:
  47              		.file 2 "ChibiOS_3.0.2/os/rt/include/chregistry.h"
  48              		.loc 2 135 0
  49 0004 334B     		ldr	r3, .L11
  50              	.LBE64:
  51              	.LBE63:
  52              		.loc 1 1028 0
  53 0006 344A     		ldr	r2, .L11+4
  54              	.LBB67:
  55              	.LBB65:
  56              		.loc 2 135 0
  57 0008 9B69     		ldr	r3, [r3, #24]
ARM GAS  /tmp/ccTQOGyd.s 			page 2


  58 000a 3449     		ldr	r1, .L11+8
  59 000c DFF8F4B0 		ldr	fp, .L11+48
  60 0010 DFF8F4A0 		ldr	r10, .L11+52
  61 0014 DFF8F490 		ldr	r9, .L11+56
  62 0018 DFF8D880 		ldr	r8, .L11+32
  63 001c 304C     		ldr	r4, .L11+12
  64 001e 314F     		ldr	r7, .L11+16
  65              	.LBE65:
  66              	.LBE67:
  67              	.LBB68:
  68              		.loc 1 1033 0
  69 0020 314E     		ldr	r6, .L11+20
  70              	.LBE68:
  71              		.loc 1 1023 0
  72 0022 2DED028B 		fstmfdd	sp!, {d8}
  73              		.cfi_def_cfa_offset 44
  74              		.cfi_offset 80, -44
  75              	.LBB71:
  76              		.loc 1 1036 0
  77 0026 DFED318A 		flds	s17, .L11+24
  78 002a 9FED318A 		flds	s16, .L11+28
  79              	.LBE71:
  80              	.LBB72:
  81              	.LBB66:
  82              		.loc 2 135 0
  83 002e 9961     		str	r1, [r3, #24]
  84              	.LBE66:
  85              	.LBE72:
  86              		.loc 1 1023 0
  87 0030 83B0     		sub	sp, sp, #12
  88              		.cfi_def_cfa_offset 56
  89              		.loc 1 1028 0
  90 0032 1360     		str	r3, [r2]
  91              	.LVL1:
  92              	.L6:
  93              	.LBB73:
  94              		.loc 1 1033 0
  95 0034 2F4D     		ldr	r5, .L11+32
  96              		.loc 1 1031 0
  97 0036 0120     		movs	r0, #1
  98 0038 FFF7FEFF 		bl	chEvtWaitAny
  99              	.LVL2:
 100              		.loc 1 1033 0
 101 003c 2946     		mov	r1, r5
 102 003e 9BED000A 		flds	s0, [fp]
 103 0042 DAED000A 		flds	s1, [r10]
 104 0046 99ED001A 		flds	s2, [r9]
 105 004a 2748     		ldr	r0, .L11+20
 106 004c 2A4A     		ldr	r2, .L11+36
 107 004e 254B     		ldr	r3, .L11+16
 108 0050 FFF7FEFF 		bl	conf_general_detect_motor_param
 109              	.LVL3:
 110 0054 78B3     		cbz	r0, .L2
 111 0056 D6ED007A 		flds	s15, [r6]
 112 005a 67EE887A 		fmuls	s15, s15, s16
 113 005e FDEEE77A 		ftosizs	s15, s15
 114 0062 17EE901A 		fmrs	r1, s15	@ int
ARM GAS  /tmp/ccTQOGyd.s 			page 3


 115              	.L3:
 116              		.loc 1 1041 0
 117 0066 0122     		movs	r2, #1
 118 0068 1823     		movs	r3, #24
 119              		.loc 1 1042 0
 120 006a 1D48     		ldr	r0, .L11+12
 121              		.loc 1 1041 0
 122 006c 0192     		str	r2, [sp, #4]
 123              		.loc 1 1042 0
 124 006e 01AA     		add	r2, sp, #4
 125              		.loc 1 1041 0
 126 0070 2370     		strb	r3, [r4]
 127              		.loc 1 1042 0
 128 0072 FFF7FEFF 		bl	buffer_append_int32
 129              	.LVL4:
 130              		.loc 1 1043 0
 131 0076 D8ED007A 		flds	s15, [r8]
 132 007a 1948     		ldr	r0, .L11+12
 133 007c 67EE887A 		fmuls	s15, s15, s16
 134 0080 01AA     		add	r2, sp, #4
 135 0082 FDEEE77A 		ftosizs	s15, s15
 136 0086 17EE901A 		fmrs	r1, s15	@ int
 137 008a FFF7FEFF 		bl	buffer_append_int32
 138              	.LVL5:
 139              		.loc 1 1048 0
 140 008e 1B49     		ldr	r1, .L11+40
 141              		.loc 1 1044 0
 142 0090 194B     		ldr	r3, .L11+36
 143 0092 019A     		ldr	r2, [sp, #4]
 144              		.loc 1 1048 0
 145 0094 0D68     		ldr	r5, [r1]
 146              		.loc 1 1044 0
 147 0096 03CB     		ldmia	r3!, {r0, r1}
 148 0098 04EB020E 		add	lr, r4, r2
 149 009c A050     		str	r0, [r4, r2]	@ unaligned
 150              		.loc 1 1046 0
 151 009e 3B68     		ldr	r3, [r7]
 152              		.loc 1 1044 0
 153 00a0 CEF80410 		str	r1, [lr, #4]	@ unaligned
 154              		.loc 1 1046 0
 155 00a4 0932     		adds	r2, r2, #9
 156              		.loc 1 1049 0
 157 00a6 0E48     		ldr	r0, .L11+12
 158              		.loc 1 1046 0
 159 00a8 0192     		str	r2, [sp, #4]
 160              		.loc 1 1049 0
 161 00aa 1146     		mov	r1, r2
 162              		.loc 1 1046 0
 163 00ac 8EF80830 		strb	r3, [lr, #8]
 164              		.loc 1 1048 0
 165 00b0 3DB1     		cbz	r5, .L4
 166              		.loc 1 1049 0
 167 00b2 A847     		blx	r5
 168              	.LVL6:
 169 00b4 BEE7     		b	.L6
 170              	.L2:
 171              		.loc 1 1036 0
ARM GAS  /tmp/ccTQOGyd.s 			page 4


 172 00b6 C6ED008A 		fsts	s17, [r6]
 173              		.loc 1 1037 0
 174 00ba C5ED008A 		fsts	s17, [r5]
 175 00be 0146     		mov	r1, r0
 176 00c0 D1E7     		b	.L3
 177              	.L4:
 178              	.LVL7:
 179              	.LBB69:
 180              	.LBB70:
 181              		.loc 1 91 0
 182 00c2 0F49     		ldr	r1, .L11+44
 183              	.LVL8:
 184              		.loc 1 92 0
 185 00c4 0648     		ldr	r0, .L11+12
 186              		.loc 1 91 0
 187 00c6 0B68     		ldr	r3, [r1]
 188              		.loc 1 92 0
 189 00c8 1146     		mov	r1, r2
 190              		.loc 1 91 0
 191 00ca 002B     		cmp	r3, #0
 192 00cc B2D0     		beq	.L6
 193              	.LVL9:
 194              		.loc 1 92 0
 195 00ce 9847     		blx	r3
 196              	.LVL10:
 197              	.LBE70:
 198              	.LBE69:
 199              	.LBE73:
 200              		.loc 1 1053 0
 201 00d0 B0E7     		b	.L6
 202              	.L12:
 203 00d2 00BF     		.align	2
 204              	.L11:
 205 00d4 00000000 		.word	ch
 206 00d8 00000000 		.word	.LANCHOR0
 207 00dc 00000000 		.word	.LC0
 208 00e0 00000000 		.word	.LANCHOR8
 209 00e4 00000000 		.word	.LANCHOR7
 210 00e8 00000000 		.word	.LANCHOR4
 211 00ec 00000000 		.word	0
 212 00f0 00007A44 		.word	1148846080
 213 00f4 00000000 		.word	.LANCHOR5
 214 00f8 00000000 		.word	.LANCHOR6
 215 00fc 00000000 		.word	.LANCHOR9
 216 0100 00000000 		.word	.LANCHOR10
 217 0104 00000000 		.word	.LANCHOR1
 218 0108 00000000 		.word	.LANCHOR2
 219 010c 00000000 		.word	.LANCHOR3
 220              		.cfi_endproc
 221              	.LFE268:
 222              		.size	detect_thread, .-detect_thread
 223              		.section	.text.commands_init,"ax",%progbits
 224              		.align	2
 225              		.p2align 4,,15
 226              		.global	commands_init
 227              		.thumb
 228              		.thumb_func
ARM GAS  /tmp/ccTQOGyd.s 			page 5


 229              		.type	commands_init, %function
 230              	commands_init:
 231              	.LFB256:
 232              		.loc 1 67 0
 233              		.cfi_startproc
 234              		@ args = 0, pretend = 0, frame = 0
 235              		@ frame_needed = 0, uses_anonymous_args = 0
 236 0000 00B5     		push	{lr}
 237              		.cfi_def_cfa_offset 4
 238              		.cfi_offset 14, -4
 239 0002 83B0     		sub	sp, sp, #12
 240              		.cfi_def_cfa_offset 16
 241              		.loc 1 68 0
 242 0004 0023     		movs	r3, #0
 243 0006 0093     		str	r3, [sp]
 244 0008 40F69811 		movw	r1, #2456
 245 000c 034B     		ldr	r3, .L14
 246 000e 0448     		ldr	r0, .L14+4
 247 0010 4022     		movs	r2, #64
 248 0012 FFF7FEFF 		bl	chThdCreateStatic
 249              	.LVL11:
 250              		.loc 1 69 0
 251 0016 03B0     		add	sp, sp, #12
 252              		@ sp needed
 253 0018 5DF804FB 		ldr	pc, [sp], #4
 254              	.L15:
 255              		.align	2
 256              	.L14:
 257 001c 00000000 		.word	detect_thread
 258 0020 00000000 		.word	.LANCHOR11
 259              		.cfi_endproc
 260              	.LFE256:
 261              		.size	commands_init, .-commands_init
 262 0024 AFF30080 		.section	.text.commands_set_send_func,"ax",%progbits
 262      AFF30080 
 262      AFF30080 
 263              		.align	2
 264              		.p2align 4,,15
 265              		.global	commands_set_send_func
 266              		.thumb
 267              		.thumb_func
 268              		.type	commands_set_send_func, %function
 269              	commands_set_send_func:
 270              	.LFB257:
 271              		.loc 1 77 0
 272              		.cfi_startproc
 273              		@ args = 0, pretend = 0, frame = 0
 274              		@ frame_needed = 0, uses_anonymous_args = 0
 275              		@ link register save eliminated.
 276              	.LVL12:
 277              		.loc 1 78 0
 278 0000 014B     		ldr	r3, .L17
 279 0002 1860     		str	r0, [r3]
 280 0004 7047     		bx	lr
 281              	.L18:
 282 0006 00BF     		.align	2
 283              	.L17:
ARM GAS  /tmp/ccTQOGyd.s 			page 6


 284 0008 00000000 		.word	.LANCHOR10
 285              		.cfi_endproc
 286              	.LFE257:
 287              		.size	commands_set_send_func, .-commands_set_send_func
 288 000c AFF30080 		.section	.text.commands_send_packet,"ax",%progbits
 289              		.align	2
 290              		.p2align 4,,15
 291              		.global	commands_send_packet
 292              		.thumb
 293              		.thumb_func
 294              		.type	commands_send_packet, %function
 295              	commands_send_packet:
 296              	.LFB258:
 297              		.loc 1 90 0
 298              		.cfi_startproc
 299              		@ args = 0, pretend = 0, frame = 0
 300              		@ frame_needed = 0, uses_anonymous_args = 0
 301              	.LVL13:
 302 0000 08B5     		push	{r3, lr}
 303              		.cfi_def_cfa_offset 8
 304              		.cfi_offset 3, -8
 305              		.cfi_offset 14, -4
 306              		.loc 1 91 0
 307 0002 024B     		ldr	r3, .L24
 308 0004 1B68     		ldr	r3, [r3]
 309 0006 03B1     		cbz	r3, .L19
 310              		.loc 1 92 0
 311 0008 9847     		blx	r3
 312              	.LVL14:
 313              	.L19:
 314 000a 08BD     		pop	{r3, pc}
 315              	.L25:
 316              		.align	2
 317              	.L24:
 318 000c 00000000 		.word	.LANCHOR10
 319              		.cfi_endproc
 320              	.LFE258:
 321              		.size	commands_send_packet, .-commands_send_packet
 322              		.section	.text.commands_printf,"ax",%progbits
 323              		.align	2
 324              		.p2align 4,,15
 325              		.global	commands_printf
 326              		.thumb
 327              		.thumb_func
 328              		.type	commands_printf, %function
 329              	commands_printf:
 330              	.LFB260:
 331              		.loc 1 874 0
 332              		.cfi_startproc
 333              		@ args = 4, pretend = 16, frame = 8
 334              		@ frame_needed = 0, uses_anonymous_args = 1
 335              	.LVL15:
 336 0000 0FB4     		push	{r0, r1, r2, r3}
 337              		.cfi_def_cfa_offset 16
 338              		.cfi_offset 0, -16
 339              		.cfi_offset 1, -12
 340              		.cfi_offset 2, -8
ARM GAS  /tmp/ccTQOGyd.s 			page 7


 341              		.cfi_offset 3, -4
 342 0002 00B5     		push	{lr}
 343              		.cfi_def_cfa_offset 20
 344              		.cfi_offset 14, -20
 345 0004 83B0     		sub	sp, sp, #12
 346              		.cfi_def_cfa_offset 32
 347              		.loc 1 874 0
 348 0006 04AB     		add	r3, sp, #16
 349              		.loc 1 880 0
 350 0008 0C48     		ldr	r0, .L33
 351              		.loc 1 874 0
 352 000a 53F8042B 		ldr	r2, [r3], #4
 353              		.loc 1 876 0
 354 000e 0193     		str	r3, [sp, #4]
 355              		.loc 1 880 0
 356 0010 1521     		movs	r1, #21
 357 0012 00F8011B 		strb	r1, [r0], #1
 358              		.loc 1 881 0
 359 0016 FE21     		movs	r1, #254
 360 0018 FFF7FEFF 		bl	vsnprintf
 361              	.LVL16:
 362              		.loc 1 884 0
 363 001c 0028     		cmp	r0, #0
 364 001e 08DD     		ble	.L26
 365              	.LVL17:
 366              	.LBB74:
 367              	.LBB75:
 368              		.loc 1 91 0
 369 0020 074B     		ldr	r3, .L33+4
 370 0022 1B68     		ldr	r3, [r3]
 371              	.LBE75:
 372              	.LBE74:
 373              		.loc 1 885 0
 374 0024 FD28     		cmp	r0, #253
 375 0026 D4BF     		ite	le
 376 0028 411C     		addle	r1, r0, #1
 377 002a FF21     		movgt	r1, #255
 378              	.LVL18:
 379              	.LBB77:
 380              	.LBB76:
 381              		.loc 1 91 0
 382 002c 0BB1     		cbz	r3, .L26
 383              		.loc 1 92 0
 384 002e 0348     		ldr	r0, .L33
 385              	.LVL19:
 386 0030 9847     		blx	r3
 387              	.LVL20:
 388              	.L26:
 389              	.LBE76:
 390              	.LBE77:
 391              		.loc 1 887 0
 392 0032 03B0     		add	sp, sp, #12
 393              		@ sp needed
 394 0034 5DF804EB 		ldr	lr, [sp], #4
 395 0038 04B0     		add	sp, sp, #16
 396 003a 7047     		bx	lr
 397              	.L34:
ARM GAS  /tmp/ccTQOGyd.s 			page 8


 398              		.align	2
 399              	.L33:
 400 003c 00000000 		.word	.LANCHOR12
 401 0040 00000000 		.word	.LANCHOR10
 402              		.cfi_endproc
 403              	.LFE260:
 404              		.size	commands_printf, .-commands_printf
 405 0044 AFF30080 		.section	.text.commands_send_rotor_pos,"ax",%progbits
 405      AFF30080 
 405      AFF30080 
 406              		.align	2
 407              		.p2align 4,,15
 408              		.global	commands_send_rotor_pos
 409              		.thumb
 410              		.thumb_func
 411              		.type	commands_send_rotor_pos, %function
 412              	commands_send_rotor_pos:
 413              	.LFB261:
 414              		.loc 1 889 0
 415              		.cfi_startproc
 416              		@ args = 0, pretend = 0, frame = 16
 417              		@ frame_needed = 0, uses_anonymous_args = 0
 418              	.LVL21:
 419 0000 10B5     		push	{r4, lr}
 420              		.cfi_def_cfa_offset 8
 421              		.cfi_offset 4, -8
 422              		.cfi_offset 14, -4
 423              		.loc 1 894 0
 424 0002 DFED0D7A 		flds	s15, .L40
 425              		.loc 1 889 0
 426 0006 84B0     		sub	sp, sp, #16
 427              		.cfi_def_cfa_offset 24
 428              		.loc 1 893 0
 429 0008 04AC     		add	r4, sp, #16
 430              		.loc 1 894 0
 431 000a 20EE270A 		fmuls	s0, s0, s15
 432              	.LVL22:
 433              		.loc 1 893 0
 434 000e 1623     		movs	r3, #22
 435 0010 04F8083D 		strb	r3, [r4, #-8]!
 436              		.loc 1 894 0
 437 0014 BDEEC00A 		ftosizs	s0, s0
 438              		.loc 1 893 0
 439 0018 0123     		movs	r3, #1
 440              		.loc 1 894 0
 441 001a 10EE101A 		fmrs	r1, s0	@ int
 442 001e 2046     		mov	r0, r4
 443 0020 01AA     		add	r2, sp, #4
 444              		.loc 1 893 0
 445 0022 0193     		str	r3, [sp, #4]
 446              		.loc 1 894 0
 447 0024 FFF7FEFF 		bl	buffer_append_int32
 448              	.LVL23:
 449              	.LBB78:
 450              	.LBB79:
 451              		.loc 1 91 0
 452 0028 044B     		ldr	r3, .L40+4
ARM GAS  /tmp/ccTQOGyd.s 			page 9


 453              	.LBE79:
 454              	.LBE78:
 455              		.loc 1 896 0
 456 002a 0199     		ldr	r1, [sp, #4]
 457              	.LVL24:
 458              	.LBB81:
 459              	.LBB80:
 460              		.loc 1 91 0
 461 002c 1B68     		ldr	r3, [r3]
 462 002e 0BB1     		cbz	r3, .L35
 463              		.loc 1 92 0
 464 0030 2046     		mov	r0, r4
 465 0032 9847     		blx	r3
 466              	.LVL25:
 467              	.L35:
 468              	.LBE80:
 469              	.LBE81:
 470              		.loc 1 897 0
 471 0034 04B0     		add	sp, sp, #16
 472              		@ sp needed
 473 0036 10BD     		pop	{r4, pc}
 474              	.LVL26:
 475              	.L41:
 476              		.align	2
 477              	.L40:
 478 0038 0050C347 		.word	1203982336
 479 003c 00000000 		.word	.LANCHOR10
 480              		.cfi_endproc
 481              	.LFE261:
 482              		.size	commands_send_rotor_pos, .-commands_send_rotor_pos
 483              		.section	.text.commands_send_rotor_pos_counts,"ax",%progbits
 484              		.align	2
 485              		.p2align 4,,15
 486              		.global	commands_send_rotor_pos_counts
 487              		.thumb
 488              		.thumb_func
 489              		.type	commands_send_rotor_pos_counts, %function
 490              	commands_send_rotor_pos_counts:
 491              	.LFB262:
 492              		.loc 1 899 0
 493              		.cfi_startproc
 494              		@ args = 0, pretend = 0, frame = 16
 495              		@ frame_needed = 0, uses_anonymous_args = 0
 496              	.LVL27:
 497 0000 10B5     		push	{r4, lr}
 498              		.cfi_def_cfa_offset 8
 499              		.cfi_offset 4, -8
 500              		.cfi_offset 14, -4
 501 0002 84B0     		sub	sp, sp, #16
 502              		.cfi_def_cfa_offset 24
 503              		.loc 1 903 0
 504 0004 04AC     		add	r4, sp, #16
 505 0006 2623     		movs	r3, #38
 506 0008 04F8083D 		strb	r3, [r4, #-8]!
 507              		.loc 1 899 0
 508 000c 0146     		mov	r1, r0
 509              		.loc 1 903 0
ARM GAS  /tmp/ccTQOGyd.s 			page 10


 510 000e 0123     		movs	r3, #1
 511              		.loc 1 904 0
 512 0010 2046     		mov	r0, r4
 513              	.LVL28:
 514 0012 01AA     		add	r2, sp, #4
 515              		.loc 1 903 0
 516 0014 0193     		str	r3, [sp, #4]
 517              		.loc 1 904 0
 518 0016 FFF7FEFF 		bl	buffer_append_int32
 519              	.LVL29:
 520              	.LBB82:
 521              	.LBB83:
 522              		.loc 1 91 0
 523 001a 044B     		ldr	r3, .L47
 524              	.LBE83:
 525              	.LBE82:
 526              		.loc 1 906 0
 527 001c 0199     		ldr	r1, [sp, #4]
 528              	.LVL30:
 529              	.LBB85:
 530              	.LBB84:
 531              		.loc 1 91 0
 532 001e 1B68     		ldr	r3, [r3]
 533 0020 0BB1     		cbz	r3, .L42
 534              		.loc 1 92 0
 535 0022 2046     		mov	r0, r4
 536 0024 9847     		blx	r3
 537              	.LVL31:
 538              	.L42:
 539              	.LBE84:
 540              	.LBE85:
 541              		.loc 1 907 0
 542 0026 04B0     		add	sp, sp, #16
 543              		@ sp needed
 544 0028 10BD     		pop	{r4, pc}
 545              	.LVL32:
 546              	.L48:
 547 002a 00BF     		.align	2
 548              	.L47:
 549 002c 00000000 		.word	.LANCHOR10
 550              		.cfi_endproc
 551              	.LFE262:
 552              		.size	commands_send_rotor_pos_counts, .-commands_send_rotor_pos_counts
 553              		.section	.text.commands_send_experiment_samples,"ax",%progbits
 554              		.align	2
 555              		.p2align 4,,15
 556              		.global	commands_send_experiment_samples
 557              		.thumb
 558              		.thumb_func
 559              		.type	commands_send_experiment_samples, %function
 560              	commands_send_experiment_samples:
 561              	.LFB263:
 562              		.loc 1 909 0
 563              		.cfi_startproc
 564              		@ args = 0, pretend = 0, frame = 8
 565              		@ frame_needed = 1, uses_anonymous_args = 0
 566              	.LVL33:
ARM GAS  /tmp/ccTQOGyd.s 			page 11


 567 0000 2DE9F043 		push	{r4, r5, r6, r7, r8, r9, lr}
 568              		.cfi_def_cfa_offset 28
 569              		.cfi_offset 4, -28
 570              		.cfi_offset 5, -24
 571              		.cfi_offset 6, -20
 572              		.cfi_offset 7, -16
 573              		.cfi_offset 8, -12
 574              		.cfi_offset 9, -8
 575              		.cfi_offset 14, -4
 576 0004 2DED028B 		fstmfdd	sp!, {d8}
 577              		.cfi_def_cfa_offset 36
 578              		.cfi_offset 80, -36
 579              		.loc 1 910 0
 580 0008 8B00     		lsls	r3, r1, #2
 581              		.loc 1 909 0
 582 000a 83B0     		sub	sp, sp, #12
 583              		.cfi_def_cfa_offset 48
 584              		.loc 1 910 0
 585 000c FF2B     		cmp	r3, #255
 586              		.loc 1 909 0
 587 000e 0E46     		mov	r6, r1
 588 0010 00AF     		add	r7, sp, #0
 589              		.cfi_def_cfa_register 7
 590 0012 E946     		mov	r9, sp
 591              		.loc 1 910 0
 592 0014 26DC     		bgt	.L49
 593              	.LVL34:
 594              		.loc 1 914 0
 595 0016 0833     		adds	r3, r3, #8
 596              	.LVL35:
 597 0018 23F00703 		bic	r3, r3, #7
 598              	.LVL36:
 599 001c ADEB030D 		sub	sp, sp, r3
 600              		.loc 1 917 0
 601 0020 0121     		movs	r1, #1
 602              	.LVL37:
 603 0022 1723     		movs	r3, #23
 604              	.LBB86:
 605              		.loc 1 919 0
 606 0024 002E     		cmp	r6, #0
 607              	.LBE86:
 608              		.loc 1 917 0
 609 0026 8DF80030 		strb	r3, [sp]
 610              		.loc 1 914 0
 611 002a E846     		mov	r8, sp
 612              	.LVL38:
 613              		.loc 1 917 0
 614 002c 7960     		str	r1, [r7, #4]
 615              	.LBB87:
 616              		.loc 1 919 0
 617 002e 13DD     		ble	.L51
 618              		.loc 1 920 0
 619 0030 9FED0F8A 		flds	s16, .L60
 620 0034 0546     		mov	r5, r0
 621              		.loc 1 919 0
 622 0036 0024     		movs	r4, #0
 623              	.LVL39:
ARM GAS  /tmp/ccTQOGyd.s 			page 12


 624              	.L53:
 625              		.loc 1 920 0 discriminator 2
 626 0038 F5EC017A 		fldmias	r5!, {s15}
 627 003c 67EE887A 		fmuls	s15, s15, s16
 628              		.loc 1 919 0 discriminator 2
 629 0040 0134     		adds	r4, r4, #1
 630              	.LVL40:
 631              		.loc 1 920 0 discriminator 2
 632 0042 FDEEE77A 		ftosizs	s15, s15
 633 0046 4046     		mov	r0, r8
 634 0048 17EE901A 		fmrs	r1, s15	@ int
 635 004c 3A1D     		adds	r2, r7, #4
 636 004e FFF7FEFF 		bl	buffer_append_int32
 637              	.LVL41:
 638              		.loc 1 919 0 discriminator 2
 639 0052 B442     		cmp	r4, r6
 640 0054 F0D1     		bne	.L53
 641 0056 7968     		ldr	r1, [r7, #4]
 642              	.LVL42:
 643              	.L51:
 644              	.LBE87:
 645              	.LBB88:
 646              	.LBB89:
 647              		.loc 1 91 0
 648 0058 064B     		ldr	r3, .L60+4
 649 005a 1B68     		ldr	r3, [r3]
 650 005c 0BB1     		cbz	r3, .L54
 651              		.loc 1 92 0
 652 005e 4046     		mov	r0, r8
 653 0060 9847     		blx	r3
 654              	.LVL43:
 655              	.L54:
 656              	.LBE89:
 657              	.LBE88:
 658 0062 CD46     		mov	sp, r9
 659              	.LVL44:
 660              	.L49:
 661              		.loc 1 924 0
 662 0064 0C37     		adds	r7, r7, #12
 663 0066 BD46     		mov	sp, r7
 664              		@ sp needed
 665 0068 BDEC028B 		fldmfdd	sp!, {d8}
 666 006c BDE8F083 		pop	{r4, r5, r6, r7, r8, r9, pc}
 667              	.LVL45:
 668              	.L61:
 669              		.align	2
 670              	.L60:
 671 0070 00401C46 		.word	1176256512
 672 0074 00000000 		.word	.LANCHOR10
 673              		.cfi_endproc
 674              	.LFE263:
 675              		.size	commands_send_experiment_samples, .-commands_send_experiment_samples
 676 0078 AFF30080 		.section	.text.commands_get_disp_pos_mode,"ax",%progbits
 676      AFF30080 
 677              		.align	2
 678              		.p2align 4,,15
 679              		.global	commands_get_disp_pos_mode
ARM GAS  /tmp/ccTQOGyd.s 			page 13


 680              		.thumb
 681              		.thumb_func
 682              		.type	commands_get_disp_pos_mode, %function
 683              	commands_get_disp_pos_mode:
 684              	.LFB264:
 685              		.loc 1 926 0
 686              		.cfi_startproc
 687              		@ args = 0, pretend = 0, frame = 0
 688              		@ frame_needed = 0, uses_anonymous_args = 0
 689              		@ link register save eliminated.
 690              		.loc 1 927 0
 691 0000 014B     		ldr	r3, .L63
 692              		.loc 1 928 0
 693 0002 1878     		ldrb	r0, [r3]	@ zero_extendqisi2
 694 0004 7047     		bx	lr
 695              	.L64:
 696 0006 00BF     		.align	2
 697              	.L63:
 698 0008 00000000 		.word	.LANCHOR13
 699              		.cfi_endproc
 700              	.LFE264:
 701              		.size	commands_get_disp_pos_mode, .-commands_get_disp_pos_mode
 702 000c AFF30080 		.section	.text.commands_set_app_data_handler,"ax",%progbits
 703              		.align	2
 704              		.p2align 4,,15
 705              		.global	commands_set_app_data_handler
 706              		.thumb
 707              		.thumb_func
 708              		.type	commands_set_app_data_handler, %function
 709              	commands_set_app_data_handler:
 710              	.LFB265:
 711              		.loc 1 930 0
 712              		.cfi_startproc
 713              		@ args = 0, pretend = 0, frame = 0
 714              		@ frame_needed = 0, uses_anonymous_args = 0
 715              		@ link register save eliminated.
 716              	.LVL46:
 717              		.loc 1 931 0
 718 0000 014B     		ldr	r3, .L66
 719 0002 1860     		str	r0, [r3]
 720 0004 7047     		bx	lr
 721              	.L67:
 722 0006 00BF     		.align	2
 723              	.L66:
 724 0008 00000000 		.word	.LANCHOR14
 725              		.cfi_endproc
 726              	.LFE265:
 727              		.size	commands_set_app_data_handler, .-commands_set_app_data_handler
 728 000c AFF30080 		.section	.text.commands_send_app_data,"ax",%progbits
 729              		.align	2
 730              		.p2align 4,,15
 731              		.global	commands_send_app_data
 732              		.thumb
 733              		.thumb_func
 734              		.type	commands_send_app_data, %function
 735              	commands_send_app_data:
 736              	.LFB266:
ARM GAS  /tmp/ccTQOGyd.s 			page 14


 737              		.loc 1 934 0
 738              		.cfi_startproc
 739              		@ args = 0, pretend = 0, frame = 0
 740              		@ frame_needed = 0, uses_anonymous_args = 0
 741              	.LVL47:
 742 0000 38B5     		push	{r3, r4, r5, lr}
 743              		.cfi_def_cfa_offset 16
 744              		.cfi_offset 3, -16
 745              		.cfi_offset 4, -12
 746              		.cfi_offset 5, -8
 747              		.cfi_offset 14, -4
 748              		.loc 1 937 0
 749 0002 094D     		ldr	r5, .L73
 750              		.loc 1 934 0
 751 0004 0246     		mov	r2, r0
 752              		.loc 1 937 0
 753 0006 2846     		mov	r0, r5
 754              	.LVL48:
 755              		.loc 1 934 0
 756 0008 0C46     		mov	r4, r1
 757              		.loc 1 937 0
 758 000a 2423     		movs	r3, #36
 759              		.loc 1 938 0
 760 000c 1146     		mov	r1, r2
 761              	.LVL49:
 762              		.loc 1 937 0
 763 000e 00F8013B 		strb	r3, [r0], #1
 764              		.loc 1 938 0
 765 0012 2246     		mov	r2, r4
 766              	.LVL50:
 767 0014 FFF7FEFF 		bl	memcpy
 768              	.LVL51:
 769              	.LBB90:
 770              	.LBB91:
 771              		.loc 1 91 0
 772 0018 044B     		ldr	r3, .L73+4
 773 001a 1B68     		ldr	r3, [r3]
 774              	.LBE91:
 775              	.LBE90:
 776              		.loc 1 939 0
 777 001c 611C     		adds	r1, r4, #1
 778              	.LVL52:
 779              	.LBB93:
 780              	.LBB92:
 781              		.loc 1 91 0
 782 001e 0BB1     		cbz	r3, .L68
 783              		.loc 1 92 0
 784 0020 2846     		mov	r0, r5
 785 0022 9847     		blx	r3
 786              	.LVL53:
 787              	.L68:
 788 0024 38BD     		pop	{r3, r4, r5, pc}
 789              	.LVL54:
 790              	.L74:
 791 0026 00BF     		.align	2
 792              	.L73:
 793 0028 00000000 		.word	.LANCHOR8
ARM GAS  /tmp/ccTQOGyd.s 			page 15


 794 002c 00000000 		.word	.LANCHOR10
 795              	.LBE92:
 796              	.LBE93:
 797              		.cfi_endproc
 798              	.LFE266:
 799              		.size	commands_send_app_data, .-commands_send_app_data
 800              		.section	.text.commands_send_appconf,"ax",%progbits
 801              		.align	2
 802              		.p2align 4,,15
 803              		.global	commands_send_appconf
 804              		.thumb
 805              		.thumb_func
 806              		.type	commands_send_appconf, %function
 807              	commands_send_appconf:
 808              	.LFB267:
 809              		.loc 1 944 0
 810              		.cfi_startproc
 811              		@ args = 0, pretend = 0, frame = 8
 812              		@ frame_needed = 0, uses_anonymous_args = 0
 813              	.LVL55:
 814 0000 F0B5     		push	{r4, r5, r6, r7, lr}
 815              		.cfi_def_cfa_offset 20
 816              		.cfi_offset 4, -20
 817              		.cfi_offset 5, -16
 818              		.cfi_offset 6, -12
 819              		.cfi_offset 7, -8
 820              		.cfi_offset 14, -4
 821              		.loc 1 946 0
 822 0002 AF4D     		ldr	r5, .L80
 823              	.LBB94:
 824              	.LBB95:
 825              		.loc 1 91 0
 826 0004 AF4F     		ldr	r7, .L80+4
 827              	.LBE95:
 828              	.LBE94:
 829              		.loc 1 946 0
 830 0006 2870     		strb	r0, [r5]
 831              		.loc 1 944 0
 832 0008 83B0     		sub	sp, sp, #12
 833              		.cfi_def_cfa_offset 32
 834              		.loc 1 947 0
 835 000a 02AE     		add	r6, sp, #8
 836 000c 0222     		movs	r2, #2
 837 000e 46F8042D 		str	r2, [r6, #-4]!
 838 0012 0B78     		ldrb	r3, [r1]	@ zero_extendqisi2
 839 0014 6B70     		strb	r3, [r5, #1]
 840              		.loc 1 944 0
 841 0016 0C46     		mov	r4, r1
 842              		.loc 1 948 0
 843 0018 3246     		mov	r2, r6
 844 001a 4968     		ldr	r1, [r1, #4]
 845              	.LVL56:
 846 001c 2846     		mov	r0, r5
 847              	.LVL57:
 848 001e FFF7FEFF 		bl	buffer_append_uint32
 849              	.LVL58:
 850              		.loc 1 949 0
ARM GAS  /tmp/ccTQOGyd.s 			page 16


 851 0022 3146     		mov	r1, r6
 852 0024 94ED020A 		flds	s0, [r4, #8]
 853 0028 2846     		mov	r0, r5
 854 002a FFF7FEFF 		bl	buffer_append_float32_auto
 855              	.LVL59:
 856              		.loc 1 950 0
 857 002e 019B     		ldr	r3, [sp, #4]
 858 0030 227B     		ldrb	r2, [r4, #12]	@ zero_extendqisi2
 859 0032 EA54     		strb	r2, [r5, r3]
 860              		.loc 1 951 0
 861 0034 2846     		mov	r0, r5
 862              		.loc 1 950 0
 863 0036 0133     		adds	r3, r3, #1
 864              		.loc 1 951 0
 865 0038 3246     		mov	r2, r6
 866 003a 218A     		ldrh	r1, [r4, #16]
 867              		.loc 1 950 0
 868 003c 0193     		str	r3, [sp, #4]
 869              		.loc 1 951 0
 870 003e FFF7FEFF 		bl	buffer_append_uint16
 871              	.LVL60:
 872              		.loc 1 952 0
 873 0042 019B     		ldr	r3, [sp, #4]
 874 0044 227D     		ldrb	r2, [r4, #20]	@ zero_extendqisi2
 875 0046 EA54     		strb	r2, [r5, r3]
 876              		.loc 1 954 0
 877 0048 EA18     		adds	r2, r5, r3
 878 004a 617D     		ldrb	r1, [r4, #21]	@ zero_extendqisi2
 879 004c 5170     		strb	r1, [r2, #1]
 880              		.loc 1 956 0
 881 004e 217E     		ldrb	r1, [r4, #24]	@ zero_extendqisi2
 882 0050 9170     		strb	r1, [r2, #2]
 883 0052 0333     		adds	r3, r3, #3
 884              		.loc 1 957 0
 885 0054 3146     		mov	r1, r6
 886 0056 94ED070A 		flds	s0, [r4, #28]
 887              		.loc 1 956 0
 888 005a 0193     		str	r3, [sp, #4]
 889              		.loc 1 957 0
 890 005c 2846     		mov	r0, r5
 891 005e FFF7FEFF 		bl	buffer_append_float32_auto
 892              	.LVL61:
 893              		.loc 1 958 0
 894 0062 3146     		mov	r1, r6
 895 0064 2846     		mov	r0, r5
 896 0066 94ED080A 		flds	s0, [r4, #32]
 897 006a FFF7FEFF 		bl	buffer_append_float32_auto
 898              	.LVL62:
 899              		.loc 1 959 0
 900 006e 3146     		mov	r1, r6
 901 0070 2846     		mov	r0, r5
 902 0072 94ED090A 		flds	s0, [r4, #36]
 903 0076 FFF7FEFF 		bl	buffer_append_float32_auto
 904              	.LVL63:
 905              		.loc 1 960 0
 906 007a 3146     		mov	r1, r6
 907 007c 2846     		mov	r0, r5
ARM GAS  /tmp/ccTQOGyd.s 			page 17


 908 007e 94ED0A0A 		flds	s0, [r4, #40]
 909 0082 FFF7FEFF 		bl	buffer_append_float32_auto
 910              	.LVL64:
 911              		.loc 1 961 0
 912 0086 3146     		mov	r1, r6
 913 0088 2846     		mov	r0, r5
 914 008a 94ED0B0A 		flds	s0, [r4, #44]
 915 008e FFF7FEFF 		bl	buffer_append_float32_auto
 916              	.LVL65:
 917              		.loc 1 962 0
 918 0092 019B     		ldr	r3, [sp, #4]
 919 0094 94F83020 		ldrb	r2, [r4, #48]	@ zero_extendqisi2
 920 0098 EA54     		strb	r2, [r5, r3]
 921              		.loc 1 963 0
 922 009a EA18     		adds	r2, r5, r3
 923 009c 94F83110 		ldrb	r1, [r4, #49]	@ zero_extendqisi2
 924 00a0 5170     		strb	r1, [r2, #1]
 925 00a2 0233     		adds	r3, r3, #2
 926              		.loc 1 964 0
 927 00a4 3146     		mov	r1, r6
 928 00a6 94ED0D0A 		flds	s0, [r4, #52]
 929              		.loc 1 963 0
 930 00aa 0193     		str	r3, [sp, #4]
 931              		.loc 1 964 0
 932 00ac 2846     		mov	r0, r5
 933 00ae FFF7FEFF 		bl	buffer_append_float32_auto
 934              	.LVL66:
 935              		.loc 1 965 0
 936 00b2 3146     		mov	r1, r6
 937 00b4 2846     		mov	r0, r5
 938 00b6 94ED0E0A 		flds	s0, [r4, #56]
 939 00ba FFF7FEFF 		bl	buffer_append_float32_auto
 940              	.LVL67:
 941              		.loc 1 966 0
 942 00be 019B     		ldr	r3, [sp, #4]
 943 00c0 94F83C20 		ldrb	r2, [r4, #60]	@ zero_extendqisi2
 944 00c4 EA54     		strb	r2, [r5, r3]
 945              		.loc 1 967 0
 946 00c6 3146     		mov	r1, r6
 947              		.loc 1 966 0
 948 00c8 0133     		adds	r3, r3, #1
 949              		.loc 1 967 0
 950 00ca 94ED100A 		flds	s0, [r4, #64]
 951              		.loc 1 966 0
 952 00ce 0193     		str	r3, [sp, #4]
 953              		.loc 1 967 0
 954 00d0 2846     		mov	r0, r5
 955 00d2 FFF7FEFF 		bl	buffer_append_float32_auto
 956              	.LVL68:
 957              		.loc 1 968 0
 958 00d6 3146     		mov	r1, r6
 959 00d8 2846     		mov	r0, r5
 960 00da 94ED110A 		flds	s0, [r4, #68]
 961 00de FFF7FEFF 		bl	buffer_append_float32_auto
 962              	.LVL69:
 963              		.loc 1 969 0
 964 00e2 019B     		ldr	r3, [sp, #4]
ARM GAS  /tmp/ccTQOGyd.s 			page 18


 965 00e4 94F84820 		ldrb	r2, [r4, #72]	@ zero_extendqisi2
 966 00e8 EA54     		strb	r2, [r5, r3]
 967              		.loc 1 970 0
 968 00ea EA18     		adds	r2, r5, r3
 969 00ec 94F84910 		ldrb	r1, [r4, #73]	@ zero_extendqisi2
 970 00f0 5170     		strb	r1, [r2, #1]
 971 00f2 0233     		adds	r3, r3, #2
 972              		.loc 1 971 0
 973 00f4 3146     		mov	r1, r6
 974 00f6 94ED130A 		flds	s0, [r4, #76]
 975              		.loc 1 970 0
 976 00fa 0193     		str	r3, [sp, #4]
 977              		.loc 1 971 0
 978 00fc 2846     		mov	r0, r5
 979 00fe FFF7FEFF 		bl	buffer_append_float32_auto
 980              	.LVL70:
 981              		.loc 1 973 0
 982 0102 019B     		ldr	r3, [sp, #4]
 983 0104 94F85020 		ldrb	r2, [r4, #80]	@ zero_extendqisi2
 984 0108 EA54     		strb	r2, [r5, r3]
 985              		.loc 1 974 0
 986 010a 3146     		mov	r1, r6
 987              		.loc 1 973 0
 988 010c 0133     		adds	r3, r3, #1
 989              		.loc 1 974 0
 990 010e 94ED150A 		flds	s0, [r4, #84]
 991              		.loc 1 973 0
 992 0112 0193     		str	r3, [sp, #4]
 993              		.loc 1 974 0
 994 0114 2846     		mov	r0, r5
 995 0116 FFF7FEFF 		bl	buffer_append_float32_auto
 996              	.LVL71:
 997              		.loc 1 975 0
 998 011a 3146     		mov	r1, r6
 999 011c 2846     		mov	r0, r5
 1000 011e 94ED160A 		flds	s0, [r4, #88]
 1001 0122 FFF7FEFF 		bl	buffer_append_float32_auto
 1002              	.LVL72:
 1003              		.loc 1 976 0
 1004 0126 3146     		mov	r1, r6
 1005 0128 2846     		mov	r0, r5
 1006 012a 94ED170A 		flds	s0, [r4, #92]
 1007 012e FFF7FEFF 		bl	buffer_append_float32_auto
 1008              	.LVL73:
 1009              		.loc 1 977 0
 1010 0132 3146     		mov	r1, r6
 1011 0134 2846     		mov	r0, r5
 1012 0136 94ED180A 		flds	s0, [r4, #96]
 1013 013a FFF7FEFF 		bl	buffer_append_float32_auto
 1014              	.LVL74:
 1015              		.loc 1 978 0
 1016 013e 3146     		mov	r1, r6
 1017 0140 2846     		mov	r0, r5
 1018 0142 94ED190A 		flds	s0, [r4, #100]
 1019 0146 FFF7FEFF 		bl	buffer_append_float32_auto
 1020              	.LVL75:
 1021              		.loc 1 979 0
ARM GAS  /tmp/ccTQOGyd.s 			page 19


 1022 014a 3146     		mov	r1, r6
 1023 014c 2846     		mov	r0, r5
 1024 014e 94ED1A0A 		flds	s0, [r4, #104]
 1025 0152 FFF7FEFF 		bl	buffer_append_float32_auto
 1026              	.LVL76:
 1027              		.loc 1 980 0
 1028 0156 019A     		ldr	r2, [sp, #4]
 1029 0158 94F86C30 		ldrb	r3, [r4, #108]	@ zero_extendqisi2
 1030 015c AB54     		strb	r3, [r5, r2]
 1031              		.loc 1 981 0
 1032 015e AB18     		adds	r3, r5, r2
 1033 0160 94F86D10 		ldrb	r1, [r4, #109]	@ zero_extendqisi2
 1034 0164 5970     		strb	r1, [r3, #1]
 1035              		.loc 1 982 0
 1036 0166 94F86E10 		ldrb	r1, [r4, #110]	@ zero_extendqisi2
 1037 016a 9970     		strb	r1, [r3, #2]
 1038              		.loc 1 983 0
 1039 016c 94F86F10 		ldrb	r1, [r4, #111]	@ zero_extendqisi2
 1040 0170 D970     		strb	r1, [r3, #3]
 1041              		.loc 1 984 0
 1042 0172 94F87010 		ldrb	r1, [r4, #112]	@ zero_extendqisi2
 1043 0176 1971     		strb	r1, [r3, #4]
 1044              		.loc 1 985 0
 1045 0178 94F87110 		ldrb	r1, [r4, #113]	@ zero_extendqisi2
 1046 017c 5971     		strb	r1, [r3, #5]
 1047 017e 0632     		adds	r2, r2, #6
 1048              		.loc 1 986 0
 1049 0180 3146     		mov	r1, r6
 1050 0182 94ED1D0A 		flds	s0, [r4, #116]
 1051              		.loc 1 985 0
 1052 0186 0192     		str	r2, [sp, #4]
 1053              		.loc 1 986 0
 1054 0188 2846     		mov	r0, r5
 1055 018a FFF7FEFF 		bl	buffer_append_float32_auto
 1056              	.LVL77:
 1057              		.loc 1 987 0
 1058 018e 3146     		mov	r1, r6
 1059 0190 2846     		mov	r0, r5
 1060 0192 94ED1E0A 		flds	s0, [r4, #120]
 1061 0196 FFF7FEFF 		bl	buffer_append_float32_auto
 1062              	.LVL78:
 1063              		.loc 1 988 0
 1064 019a 019B     		ldr	r3, [sp, #4]
 1065 019c 94F87C20 		ldrb	r2, [r4, #124]	@ zero_extendqisi2
 1066 01a0 EA54     		strb	r2, [r5, r3]
 1067              		.loc 1 989 0
 1068 01a2 3146     		mov	r1, r6
 1069              		.loc 1 988 0
 1070 01a4 0133     		adds	r3, r3, #1
 1071              		.loc 1 989 0
 1072 01a6 94ED200A 		flds	s0, [r4, #128]
 1073              		.loc 1 988 0
 1074 01aa 0193     		str	r3, [sp, #4]
 1075              		.loc 1 989 0
 1076 01ac 2846     		mov	r0, r5
 1077 01ae FFF7FEFF 		bl	buffer_append_float32_auto
 1078              	.LVL79:
ARM GAS  /tmp/ccTQOGyd.s 			page 20


 1079              		.loc 1 990 0
 1080 01b2 3146     		mov	r1, r6
 1081 01b4 2846     		mov	r0, r5
 1082 01b6 94ED210A 		flds	s0, [r4, #132]
 1083 01ba FFF7FEFF 		bl	buffer_append_float32_auto
 1084              	.LVL80:
 1085              		.loc 1 991 0
 1086 01be 019B     		ldr	r3, [sp, #4]
 1087 01c0 94F88820 		ldrb	r2, [r4, #136]	@ zero_extendqisi2
 1088 01c4 EA54     		strb	r2, [r5, r3]
 1089              		.loc 1 992 0
 1090 01c6 EA18     		adds	r2, r5, r3
 1091 01c8 94F88910 		ldrb	r1, [r4, #137]	@ zero_extendqisi2
 1092 01cc 5170     		strb	r1, [r2, #1]
 1093 01ce 0233     		adds	r3, r3, #2
 1094              		.loc 1 993 0
 1095 01d0 94ED230A 		flds	s0, [r4, #140]
 1096              		.loc 1 992 0
 1097 01d4 0193     		str	r3, [sp, #4]
 1098              		.loc 1 993 0
 1099 01d6 3146     		mov	r1, r6
 1100 01d8 2846     		mov	r0, r5
 1101 01da FFF7FEFF 		bl	buffer_append_float32_auto
 1102              	.LVL81:
 1103              		.loc 1 994 0
 1104 01de 3246     		mov	r2, r6
 1105 01e0 2846     		mov	r0, r5
 1106 01e2 B4F89010 		ldrh	r1, [r4, #144]
 1107 01e6 FFF7FEFF 		bl	buffer_append_uint16
 1108              	.LVL82:
 1109              		.loc 1 996 0
 1110 01ea 3246     		mov	r2, r6
 1111 01ec 2846     		mov	r0, r5
 1112 01ee D4F89410 		ldr	r1, [r4, #148]
 1113 01f2 FFF7FEFF 		bl	buffer_append_uint32
 1114              	.LVL83:
 1115              		.loc 1 998 0
 1116 01f6 019B     		ldr	r3, [sp, #4]
 1117 01f8 94F89820 		ldrb	r2, [r4, #152]	@ zero_extendqisi2
 1118 01fc EA54     		strb	r2, [r5, r3]
 1119              		.loc 1 999 0
 1120 01fe 3146     		mov	r1, r6
 1121              		.loc 1 998 0
 1122 0200 0133     		adds	r3, r3, #1
 1123              		.loc 1 999 0
 1124 0202 94ED270A 		flds	s0, [r4, #156]
 1125              		.loc 1 998 0
 1126 0206 0193     		str	r3, [sp, #4]
 1127              		.loc 1 999 0
 1128 0208 2846     		mov	r0, r5
 1129 020a FFF7FEFF 		bl	buffer_append_float32_auto
 1130              	.LVL84:
 1131              		.loc 1 1000 0
 1132 020e 3146     		mov	r1, r6
 1133 0210 2846     		mov	r0, r5
 1134 0212 94ED280A 		flds	s0, [r4, #160]
 1135 0216 FFF7FEFF 		bl	buffer_append_float32_auto
ARM GAS  /tmp/ccTQOGyd.s 			page 21


 1136              	.LVL85:
 1137              		.loc 1 1001 0
 1138 021a 3146     		mov	r1, r6
 1139 021c 2846     		mov	r0, r5
 1140 021e 94ED290A 		flds	s0, [r4, #164]
 1141 0222 FFF7FEFF 		bl	buffer_append_float32_auto
 1142              	.LVL86:
 1143              		.loc 1 1002 0
 1144 0226 3146     		mov	r1, r6
 1145 0228 2846     		mov	r0, r5
 1146 022a 94ED2A0A 		flds	s0, [r4, #168]
 1147 022e FFF7FEFF 		bl	buffer_append_float32_auto
 1148              	.LVL87:
 1149              		.loc 1 1003 0
 1150 0232 3146     		mov	r1, r6
 1151 0234 2846     		mov	r0, r5
 1152 0236 94ED2B0A 		flds	s0, [r4, #172]
 1153 023a FFF7FEFF 		bl	buffer_append_float32_auto
 1154              	.LVL88:
 1155              		.loc 1 1004 0
 1156 023e 3146     		mov	r1, r6
 1157 0240 2846     		mov	r0, r5
 1158 0242 94ED2C0A 		flds	s0, [r4, #176]
 1159 0246 FFF7FEFF 		bl	buffer_append_float32_auto
 1160              	.LVL89:
 1161              		.loc 1 1005 0
 1162 024a 019B     		ldr	r3, [sp, #4]
 1163 024c 94F8B420 		ldrb	r2, [r4, #180]	@ zero_extendqisi2
 1164 0250 EA54     		strb	r2, [r5, r3]
 1165              		.loc 1 1006 0
 1166 0252 EA18     		adds	r2, r5, r3
 1167 0254 94F8B510 		ldrb	r1, [r4, #181]	@ zero_extendqisi2
 1168 0258 5170     		strb	r1, [r2, #1]
 1169              		.loc 1 1007 0
 1170 025a 94F8B610 		ldrb	r1, [r4, #182]	@ zero_extendqisi2
 1171 025e 9170     		strb	r1, [r2, #2]
 1172 0260 0333     		adds	r3, r3, #3
 1173              		.loc 1 1008 0
 1174 0262 3146     		mov	r1, r6
 1175 0264 2846     		mov	r0, r5
 1176 0266 94ED2E0A 		flds	s0, [r4, #184]
 1177              		.loc 1 1007 0
 1178 026a 0193     		str	r3, [sp, #4]
 1179              		.loc 1 1008 0
 1180 026c FFF7FEFF 		bl	buffer_append_float32_auto
 1181              	.LVL90:
 1182              		.loc 1 1010 0
 1183 0270 0199     		ldr	r1, [sp, #4]
 1184 0272 94F8BC30 		ldrb	r3, [r4, #188]	@ zero_extendqisi2
 1185 0276 6B54     		strb	r3, [r5, r1]
 1186              		.loc 1 1011 0
 1187 0278 6B18     		adds	r3, r5, r1
 1188 027a 94F8BD20 		ldrb	r2, [r4, #189]	@ zero_extendqisi2
 1189 027e 5A70     		strb	r2, [r3, #1]
 1190              		.loc 1 1012 0
 1191 0280 94F8BE20 		ldrb	r2, [r4, #190]	@ zero_extendqisi2
 1192 0284 9A70     		strb	r2, [r3, #2]
ARM GAS  /tmp/ccTQOGyd.s 			page 22


 1193              		.loc 1 1013 0
 1194 0286 94F8BF20 		ldrb	r2, [r4, #191]	@ zero_extendqisi2
 1195 028a DA70     		strb	r2, [r3, #3]
 1196              		.loc 1 1014 0
 1197 028c 94F8C020 		ldrb	r2, [r4, #192]	@ zero_extendqisi2
 1198 0290 1A71     		strb	r2, [r3, #4]
 1199              		.loc 1 1015 0
 1200 0292 94F8C120 		ldrb	r2, [r4, #193]	@ zero_extendqisi2
 1201 0296 5A71     		strb	r2, [r3, #5]
 1202              		.loc 1 1016 0
 1203 0298 2246     		mov	r2, r4
 1204              		.loc 1 1015 0
 1205 029a 881D     		adds	r0, r1, #6
 1206              		.loc 1 1016 0
 1207 029c 32F8C2CF 		ldrh	ip, [r2, #194]!	@ unaligned
 1208 02a0 9678     		ldrb	r6, [r2, #2]	@ zero_extendqisi2
 1209 02a2 25F800C0 		strh	ip, [r5, r0]	@ unaligned
 1210 02a6 2844     		add	r0, r0, r5
 1211              	.LBB98:
 1212              	.LBB96:
 1213              		.loc 1 91 0
 1214 02a8 3A68     		ldr	r2, [r7]
 1215              	.LBE96:
 1216              	.LBE98:
 1217              		.loc 1 1016 0
 1218 02aa 8670     		strb	r6, [r0, #2]
 1219              		.loc 1 1018 0
 1220 02ac 94F8C500 		ldrb	r0, [r4, #197]	@ zero_extendqisi2
 1221 02b0 5872     		strb	r0, [r3, #9]
 1222              	.LVL91:
 1223 02b2 0A31     		adds	r1, r1, #10
 1224              	.LVL92:
 1225 02b4 0191     		str	r1, [sp, #4]
 1226              	.LBB99:
 1227              	.LBB97:
 1228              		.loc 1 91 0
 1229 02b6 0AB1     		cbz	r2, .L75
 1230              		.loc 1 92 0
 1231 02b8 2846     		mov	r0, r5
 1232 02ba 9047     		blx	r2
 1233              	.LVL93:
 1234              	.L75:
 1235              	.LBE97:
 1236              	.LBE99:
 1237              		.loc 1 1021 0
 1238 02bc 03B0     		add	sp, sp, #12
 1239              		@ sp needed
 1240 02be F0BD     		pop	{r4, r5, r6, r7, pc}
 1241              	.LVL94:
 1242              	.L81:
 1243              		.align	2
 1244              	.L80:
 1245 02c0 00000000 		.word	.LANCHOR8
 1246 02c4 00000000 		.word	.LANCHOR10
 1247              		.cfi_endproc
 1248              	.LFE267:
 1249              		.size	commands_send_appconf, .-commands_send_appconf
ARM GAS  /tmp/ccTQOGyd.s 			page 23


 1250 02c8 AFF30080 		.section	.text.commands_process_packet,"ax",%progbits
 1250      AFF30080 
 1251              		.align	2
 1252              		.p2align 4,,15
 1253              		.global	commands_process_packet
 1254              		.thumb
 1255              		.thumb_func
 1256              		.type	commands_process_packet, %function
 1257              	commands_process_packet:
 1258              	.LFB259:
 1259              		.loc 1 105 0
 1260              		.cfi_startproc
 1261              		@ args = 0, pretend = 0, frame = 216
 1262              		@ frame_needed = 0, uses_anonymous_args = 0
 1263              	.LVL95:
 1264 0000 2DE9F047 		push	{r4, r5, r6, r7, r8, r9, r10, lr}
 1265              		.cfi_def_cfa_offset 32
 1266              		.cfi_offset 4, -32
 1267              		.cfi_offset 5, -28
 1268              		.cfi_offset 6, -24
 1269              		.cfi_offset 7, -20
 1270              		.cfi_offset 8, -16
 1271              		.cfi_offset 9, -12
 1272              		.cfi_offset 10, -8
 1273              		.cfi_offset 14, -4
 1274 0004 2DED048B 		fstmfdd	sp!, {d8, d9}
 1275              		.cfi_def_cfa_offset 48
 1276              		.cfi_offset 80, -48
 1277              		.cfi_offset 82, -40
 1278 0008 0746     		mov	r7, r0
 1279 000a B6B0     		sub	sp, sp, #216
 1280              		.cfi_def_cfa_offset 264
 1281              		.loc 1 106 0
 1282 000c 0029     		cmp	r1, #0
 1283 000e 7FD0     		beq	.L82
 1284              		.loc 1 118 0
 1285 0010 0446     		mov	r4, r0
 1286              		.loc 1 111 0
 1287 0012 0023     		movs	r3, #0
 1288              		.loc 1 118 0
 1289 0014 14F8018B 		ldrb	r8, [r4], #1	@ zero_extendqisi2
 1290              	.LVL96:
 1291              		.loc 1 111 0
 1292 0018 0293     		str	r3, [sp, #8]
 1293              		.loc 1 120 0
 1294 001a 4D1E     		subs	r5, r1, #1
 1295              	.LVL97:
 1296              		.loc 1 122 0
 1297 001c B8F1270F 		cmp	r8, #39
 1298 0020 76D8     		bhi	.L82
 1299 0022 DFE818F0 		tbh	[pc, r8, lsl #1]
 1300              	.L86:
 1301 0026 DF02     		.2byte	(.L85-.L86)/2
 1302 0028 DC02     		.2byte	(.L87-.L86)/2
 1303 002a C702     		.2byte	(.L88-.L86)/2
 1304 002c AC02     		.2byte	(.L89-.L86)/2
 1305 002e 0F02     		.2byte	(.L90-.L86)/2
ARM GAS  /tmp/ccTQOGyd.s 			page 24


 1306 0030 FE01     		.2byte	(.L91-.L86)/2
 1307 0032 ED01     		.2byte	(.L92-.L86)/2
 1308 0034 DC01     		.2byte	(.L93-.L86)/2
 1309 0036 030B     		.2byte	(.L94-.L86)/2
 1310 0038 F10A     		.2byte	(.L95-.L86)/2
 1311 003a D705     		.2byte	(.L96-.L86)/2
 1312 003c 7A00     		.2byte	(.L97-.L86)/2
 1313 003e 7500     		.2byte	(.L82-.L86)/2
 1314 0040 1908     		.2byte	(.L98-.L86)/2
 1315 0042 E905     		.2byte	(.L99-.L86)/2
 1316 0044 E905     		.2byte	(.L99-.L86)/2
 1317 0046 FD03     		.2byte	(.L100-.L86)/2
 1318 0048 E903     		.2byte	(.L101-.L86)/2
 1319 004a E903     		.2byte	(.L101-.L86)/2
 1320 004c C505     		.2byte	(.L102-.L86)/2
 1321 004e BE05     		.2byte	(.L103-.L86)/2
 1322 0050 7500     		.2byte	(.L82-.L86)/2
 1323 0052 7500     		.2byte	(.L82-.L86)/2
 1324 0054 7500     		.2byte	(.L82-.L86)/2
 1325 0056 B701     		.2byte	(.L104-.L86)/2
 1326 0058 2800     		.2byte	(.L105-.L86)/2
 1327 005a 5301     		.2byte	(.L106-.L86)/2
 1328 005c E700     		.2byte	(.L107-.L86)/2
 1329 005e 9600     		.2byte	(.L108-.L86)/2
 1330 0060 9400     		.2byte	(.L109-.L86)/2
 1331 0062 9100     		.2byte	(.L110-.L86)/2
 1332 0064 CE03     		.2byte	(.L111-.L86)/2
 1333 0066 9C03     		.2byte	(.L112-.L86)/2
 1334 0068 8803     		.2byte	(.L113-.L86)/2
 1335 006a 8103     		.2byte	(.L114-.L86)/2
 1336 006c 5C03     		.2byte	(.L115-.L86)/2
 1337 006e 5303     		.2byte	(.L116-.L86)/2
 1338 0070 1F03     		.2byte	(.L117-.L86)/2
 1339 0072 7500     		.2byte	(.L82-.L86)/2
 1340 0074 FC02     		.2byte	(.L118-.L86)/2
 1341              		.p2align 1
 1342              	.L105:
 1343              	.LBB100:
 1344              		.loc 1 661 0
 1345 0076 FFF7FEFF 		bl	mc_interface_get_configuration
 1346              	.LVL98:
 1347 007a B94C     		ldr	r4, .L216
 1348              	.LVL99:
 1349              		.loc 1 664 0
 1350 007c B94D     		ldr	r5, .L216+4
 1351              	.LVL100:
 1352 007e BA4E     		ldr	r6, .L216+8
 1353              		.loc 1 669 0
 1354 0080 9FEDBA8A 		flds	s16, .L216+12
 1355              		.loc 1 661 0
 1356 0084 0146     		mov	r1, r0
 1357 0086 4FF4BA72 		mov	r2, #372
 1358 008a 2046     		mov	r0, r4
 1359 008c FFF7FEFF 		bl	memcpy
 1360              	.LVL101:
 1361              		.loc 1 662 0
 1362 0090 2146     		mov	r1, r4
ARM GAS  /tmp/ccTQOGyd.s 			page 25


 1363 0092 4FF4BA72 		mov	r2, #372
 1364 0096 B648     		ldr	r0, .L216+16
 1365 0098 FFF7FEFF 		bl	memcpy
 1366              	.LVL102:
 1367              		.loc 1 666 0
 1368 009c 0222     		movs	r2, #2
 1369              		.loc 1 667 0
 1370 009e 2046     		mov	r0, r4
 1371              		.loc 1 664 0
 1372 00a0 2B68     		ldr	r3, [r5]
 1373              		.loc 1 666 0
 1374 00a2 A270     		strb	r2, [r4, #2]
 1375              		.loc 1 664 0
 1376 00a4 3360     		str	r3, [r6]
 1377              		.loc 1 667 0
 1378 00a6 FFF7FEFF 		bl	mc_interface_set_configuration
 1379              	.LVL103:
 1380              		.loc 1 671 0
 1381 00aa 03A8     		add	r0, sp, #12
 1382 00ac 04A9     		add	r1, sp, #16
 1383              		.loc 1 669 0
 1384 00ae 8DED038A 		fsts	s16, [sp, #12]
 1385              		.loc 1 670 0
 1386 00b2 8DED048A 		fsts	s16, [sp, #16]
 1387              		.loc 1 671 0
 1388 00b6 FFF7FEFF 		bl	mcpwm_foc_measure_res_ind
 1389              	.LVL104:
 1390 00ba 0446     		mov	r4, r0
 1391              	.LVL105:
 1392              		.loc 1 672 0
 1393 00bc AC48     		ldr	r0, .L216+16
 1394              	.LVL106:
 1395 00be FFF7FEFF 		bl	mc_interface_set_configuration
 1396              	.LVL107:
 1397              		.loc 1 674 0
 1398 00c2 002C     		cmp	r4, #0
 1399 00c4 41F0C082 		bne	.L211
 1400              		.loc 1 676 0
 1401 00c8 B0EE480A 		fcpys	s0, s16
 1402              		.loc 1 675 0
 1403 00cc 8DED038A 		fsts	s16, [sp, #12]
 1404              		.loc 1 676 0
 1405 00d0 8DED048A 		fsts	s16, [sp, #16]
 1406              	.L128:
 1407              		.loc 1 680 0
 1408 00d4 36AF     		add	r7, sp, #216
 1409              	.LVL108:
 1410 00d6 0123     		movs	r3, #1
 1411 00d8 47F8D03D 		str	r3, [r7, #-208]!
 1412 00dc A54C     		ldr	r4, .L216+20
 1413              	.LVL109:
 1414              		.loc 1 681 0
 1415 00de DFEDA60A 		flds	s1, .L216+24
 1416              		.loc 1 680 0
 1417 00e2 1923     		movs	r3, #25
 1418              		.loc 1 681 0
 1419 00e4 3946     		mov	r1, r7
ARM GAS  /tmp/ccTQOGyd.s 			page 26


 1420 00e6 2046     		mov	r0, r4
 1421              		.loc 1 680 0
 1422 00e8 2370     		strb	r3, [r4]
 1423              		.loc 1 681 0
 1424 00ea FFF7FEFF 		bl	buffer_append_float32
 1425              	.LVL110:
 1426              		.loc 1 682 0
 1427 00ee 2046     		mov	r0, r4
 1428 00f0 3946     		mov	r1, r7
 1429 00f2 9DED040A 		flds	s0, [sp, #16]
 1430 00f6 DFEDA60A 		flds	s1, .L216+48
 1431 00fa FFF7FEFF 		bl	buffer_append_float32
 1432              	.LVL111:
 1433              		.loc 1 683 0
 1434 00fe 3368     		ldr	r3, [r6]
 1435 0100 002B     		cmp	r3, #0
 1436 0102 40F02881 		bne	.L203
 1437              	.L133:
 1438              	.LBE100:
 1439              	.LBB101:
 1440              	.LBB102:
 1441              	.LBB103:
 1442              		.loc 1 91 0
 1443 0106 2B68     		ldr	r3, [r5]
 1444              	.LBE103:
 1445              	.LBE102:
 1446              		.loc 1 713 0
 1447 0108 0299     		ldr	r1, [sp, #8]
 1448              	.LVL112:
 1449              	.LBB105:
 1450              	.LBB104:
 1451              		.loc 1 91 0
 1452 010a 0BB1     		cbz	r3, .L82
 1453              	.LVL113:
 1454              	.L201:
 1455              	.LBE104:
 1456              	.LBE105:
 1457              	.LBE101:
 1458              	.LBB106:
 1459              	.LBB107:
 1460              		.loc 1 92 0
 1461 010c 2046     		mov	r0, r4
 1462 010e 9847     		blx	r3
 1463              	.LVL114:
 1464              	.L82:
 1465              	.LBE107:
 1466              	.LBE106:
 1467              		.loc 1 872 0
 1468 0110 36B0     		add	sp, sp, #216
 1469              		@ sp needed
 1470 0112 BDEC048B 		fldmfdd	sp!, {d8-d9}
 1471 0116 BDE8F087 		pop	{r4, r5, r6, r7, r8, r9, r10, pc}
 1472              	.LVL115:
 1473              	.L97:
 1474              		.loc 1 236 0
 1475 011a FFF7FEFF 		bl	mc_interface_get_configuration
 1476              	.LVL116:
ARM GAS  /tmp/ccTQOGyd.s 			page 27


 1477 011e 904C     		ldr	r4, .L216
 1478              	.LVL117:
 1479 0120 0146     		mov	r1, r0
 1480 0122 4FF4BA72 		mov	r2, #372
 1481 0126 2046     		mov	r0, r4
 1482 0128 FFF7FEFF 		bl	memcpy
 1483              	.LVL118:
 1484              		.loc 1 239 0
 1485 012c 9349     		ldr	r1, .L216+28
 1486 012e 7B78     		ldrb	r3, [r7, #1]	@ zero_extendqisi2
 1487              		.loc 1 241 0
 1488 0130 A278     		ldrb	r2, [r4, #2]	@ zero_extendqisi2
 1489              		.loc 1 239 0
 1490 0132 0B70     		strb	r3, [r1]
 1491 0134 0121     		movs	r1, #1
 1492 0136 0291     		str	r1, [sp, #8]
 1493              		.loc 1 241 0
 1494 0138 32B9     		cbnz	r2, .L110
 1495              		.loc 1 242 0
 1496 013a 002B     		cmp	r3, #0
 1497 013c 01F08C82 		beq	.L212
 1498              		.loc 1 244 0
 1499 0140 012B     		cmp	r3, #1
 1500 0142 01D1     		bne	.L110
 1501              		.loc 1 245 0
 1502 0144 FFF7FEFF 		bl	mcpwm_set_detect
 1503              	.LVL119:
 1504              	.L110:
 1505              		.loc 1 809 0
 1506 0148 FFF7FEFF 		bl	timeout_reset
 1507              	.LVL120:
 1508              		.loc 1 810 0
 1509 014c E0E7     		b	.L82
 1510              	.LVL121:
 1511              	.L109:
 1512              	.LBB110:
 1513              	.LBB111:
 1514              		.file 3 "ChibiOS_3.0.2/os/ext/CMSIS/include/core_cmFunc.h"
 1515              		.loc 3 342 0
 1516              	@ 342 "ChibiOS_3.0.2/os/ext/CMSIS/include/core_cmFunc.h" 1
 1517 014e 72B6     		cpsid i
 1518              	@ 0 "" 2
 1519              		.thumb
 1520              	.L141:
 1521 0150 FEE7     		b	.L141
 1522              	.L108:
 1523              	.LBE111:
 1524              	.LBE110:
 1525              		.loc 1 762 0
 1526 0152 FFF7FEFF 		bl	mc_interface_get_configuration
 1527              	.LVL122:
 1528 0156 824D     		ldr	r5, .L216
 1529              	.LVL123:
 1530 0158 0146     		mov	r1, r0
 1531 015a 4FF4BA72 		mov	r2, #372
 1532 015e 2846     		mov	r0, r5
 1533 0160 FFF7FEFF 		bl	memcpy
ARM GAS  /tmp/ccTQOGyd.s 			page 28


 1534              	.LVL124:
 1535              		.loc 1 764 0
 1536 0164 95F85C81 		ldrb	r8, [r5, #348]	@ zero_extendqisi2
 1537              	.LVL125:
 1538 0168 B8F1000F 		cmp	r8, #0
 1539 016c 41F0BE82 		bne	.L138
 1540              	.LBB112:
 1541              		.loc 1 765 0
 1542 0170 2946     		mov	r1, r5
 1543 0172 4FF4BA72 		mov	r2, #372
 1544 0176 7E48     		ldr	r0, .L216+16
 1545              		.loc 1 769 0
 1546 0178 7A4F     		ldr	r7, .L216+4
 1547 017a 7B4E     		ldr	r6, .L216+8
 1548              		.loc 1 765 0
 1549 017c FFF7FEFF 		bl	memcpy
 1550              	.LVL126:
 1551              		.loc 1 766 0
 1552 0180 36A9     		add	r1, sp, #216
 1553              		.loc 1 767 0
 1554 0182 2046     		mov	r0, r4
 1555              		.loc 1 766 0
 1556 0184 41F8D08D 		str	r8, [r1, #-208]!
 1557              		.loc 1 767 0
 1558 0188 9FED810A 		flds	s0, .L216+48
 1559              		.loc 1 772 0
 1560 018c 7C4C     		ldr	r4, .L216+32
 1561              	.LVL127:
 1562              		.loc 1 767 0
 1563 018e FFF7FEFF 		bl	buffer_get_float32
 1564              	.LVL128:
 1565              		.loc 1 769 0
 1566 0192 3B68     		ldr	r3, [r7]
 1567              		.loc 1 773 0
 1568 0194 7B49     		ldr	r1, .L216+36
 1569              		.loc 1 774 0
 1570 0196 7C4A     		ldr	r2, .L216+40
 1571              		.loc 1 769 0
 1572 0198 3360     		str	r3, [r6]
 1573              		.loc 1 775 0
 1574 019a 2846     		mov	r0, r5
 1575              		.loc 1 771 0
 1576 019c 0223     		movs	r3, #2
 1577              		.loc 1 767 0
 1578 019e B0EE408A 		fcpys	s16, s0
 1579              	.LVL129:
 1580              		.loc 1 773 0
 1581 01a2 C5F8A410 		str	r1, [r5, #164]	@ float
 1582              		.loc 1 771 0
 1583 01a6 AB70     		strb	r3, [r5, #2]
 1584              		.loc 1 774 0
 1585 01a8 C5F8A820 		str	r2, [r5, #168]	@ float
 1586              		.loc 1 772 0
 1587 01ac C5F8AC40 		str	r4, [r5, #172]	@ float
 1588              		.loc 1 775 0
 1589 01b0 FFF7FEFF 		bl	mc_interface_set_configuration
 1590              	.LVL130:
ARM GAS  /tmp/ccTQOGyd.s 			page 29


 1591              		.loc 1 778 0
 1592 01b4 B0EE480A 		fcpys	s0, s16
 1593 01b8 04A8     		add	r0, sp, #16
 1594 01ba FFF7FEFF 		bl	mcpwm_foc_hall_detect
 1595              	.LVL131:
 1596 01be 8046     		mov	r8, r0
 1597              	.LVL132:
 1598              		.loc 1 779 0
 1599 01c0 6B48     		ldr	r0, .L216+16
 1600              	.LVL133:
 1601 01c2 FFF7FEFF 		bl	mc_interface_set_configuration
 1602              	.LVL134:
 1603              		.loc 1 782 0
 1604 01c6 6B4B     		ldr	r3, .L216+20
 1605              		.loc 1 787 0
 1606 01c8 3568     		ldr	r5, [r6]
 1607              		.loc 1 782 0
 1608 01ca 1C46     		mov	r4, r3
 1609              		.loc 1 783 0
 1610 01cc 04AA     		add	r2, sp, #16
 1611 01ce 03CA     		ldmia	r2!, {r0, r1}
 1612              		.loc 1 782 0
 1613 01d0 1C22     		movs	r2, #28
 1614 01d2 04F8012B 		strb	r2, [r4], #1
 1615              		.loc 1 785 0
 1616 01d6 88F00106 		eor	r6, r8, #1
 1617 01da 0A22     		movs	r2, #10
 1618              		.loc 1 783 0
 1619 01dc C3F80100 		str	r0, [r3, #1]	@ unaligned
 1620              		.loc 1 785 0
 1621 01e0 0292     		str	r2, [sp, #8]
 1622              		.loc 1 783 0
 1623 01e2 6160     		str	r1, [r4, #4]	@ unaligned
 1624              		.loc 1 785 0
 1625 01e4 5E72     		strb	r6, [r3, #9]
 1626              		.loc 1 787 0
 1627 01e6 002D     		cmp	r5, #0
 1628 01e8 01F07782 		beq	.L139
 1629              		.loc 1 788 0
 1630 01ec 1846     		mov	r0, r3
 1631 01ee 1146     		mov	r1, r2
 1632 01f0 A847     		blx	r5
 1633              	.LVL135:
 1634 01f2 8DE7     		b	.L82
 1635              	.LVL136:
 1636              	.L107:
 1637              	.LBE112:
 1638              		.loc 1 719 0
 1639 01f4 FFF7FEFF 		bl	encoder_is_configured
 1640              	.LVL137:
 1641 01f8 0646     		mov	r6, r0
 1642 01fa 0028     		cmp	r0, #0
 1643 01fc 01F04B82 		beq	.L135
 1644              	.LBB115:
 1645              		.loc 1 720 0
 1646 0200 FFF7FEFF 		bl	mc_interface_get_configuration
 1647              	.LVL138:
ARM GAS  /tmp/ccTQOGyd.s 			page 30


 1648 0204 564D     		ldr	r5, .L216
 1649              	.LVL139:
 1650              		.loc 1 723 0
 1651 0206 DFF85C91 		ldr	r9, .L216+4
 1652 020a DFF85CA1 		ldr	r10, .L216+8
 1653              		.loc 1 741 0
 1654 020e 594E     		ldr	r6, .L216+20
 1655              		.loc 1 725 0
 1656 0210 36AF     		add	r7, sp, #216
 1657              		.loc 1 720 0
 1658 0212 0146     		mov	r1, r0
 1659 0214 4FF4BA72 		mov	r2, #372
 1660 0218 2846     		mov	r0, r5
 1661 021a FFF7FEFF 		bl	memcpy
 1662              	.LVL140:
 1663              		.loc 1 725 0
 1664 021e 4FF00008 		mov	r8, #0
 1665              	.LVL141:
 1666              		.loc 1 721 0
 1667 0222 4FF4BA72 		mov	r2, #372
 1668 0226 2946     		mov	r1, r5
 1669 0228 5148     		ldr	r0, .L216+16
 1670 022a FFF7FEFF 		bl	memcpy
 1671              	.LVL142:
 1672              		.loc 1 725 0
 1673 022e 47F8D08D 		str	r8, [r7, #-208]!
 1674              		.loc 1 726 0
 1675 0232 2046     		mov	r0, r4
 1676              		.loc 1 723 0
 1677 0234 D9F80030 		ldr	r3, [r9]
 1678              		.loc 1 726 0
 1679 0238 9FED550A 		flds	s0, .L216+48
 1680              		.loc 1 723 0
 1681 023c CAF80030 		str	r3, [r10]
 1682              		.loc 1 726 0
 1683 0240 3946     		mov	r1, r7
 1684 0242 FFF7FEFF 		bl	buffer_get_float32
 1685              	.LVL143:
 1686              		.loc 1 729 0
 1687 0246 4E4B     		ldr	r3, .L216+32
 1688              		.loc 1 730 0
 1689 0248 4E49     		ldr	r1, .L216+36
 1690              		.loc 1 731 0
 1691 024a 4F4A     		ldr	r2, .L216+40
 1692              		.loc 1 729 0
 1693 024c C5F8AC30 		str	r3, [r5, #172]	@ float
 1694              		.loc 1 726 0
 1695 0250 B0EE408A 		fcpys	s16, s0
 1696              	.LVL144:
 1697              		.loc 1 728 0
 1698 0254 0223     		movs	r3, #2
 1699              		.loc 1 732 0
 1700 0256 2846     		mov	r0, r5
 1701              		.loc 1 728 0
 1702 0258 AB70     		strb	r3, [r5, #2]
 1703              		.loc 1 730 0
 1704 025a C5F8A410 		str	r1, [r5, #164]	@ float
ARM GAS  /tmp/ccTQOGyd.s 			page 31


 1705              		.loc 1 731 0
 1706 025e C5F8A820 		str	r2, [r5, #168]	@ float
 1707              		.loc 1 734 0
 1708 0262 0024     		movs	r4, #0
 1709              	.LVL145:
 1710              		.loc 1 732 0
 1711 0264 FFF7FEFF 		bl	mc_interface_set_configuration
 1712              	.LVL146:
 1713              		.loc 1 737 0
 1714 0268 B0EE480A 		fcpys	s0, s16
 1715 026c 03A9     		add	r1, sp, #12
 1716 026e 04AA     		add	r2, sp, #16
 1717 0270 0DF10703 		add	r3, sp, #7
 1718 0274 4046     		mov	r0, r8
 1719              		.loc 1 736 0
 1720 0276 8DF80780 		strb	r8, [sp, #7]
 1721              		.loc 1 734 0
 1722 027a 0394     		str	r4, [sp, #12]	@ float
 1723              		.loc 1 735 0
 1724 027c 0494     		str	r4, [sp, #16]	@ float
 1725              		.loc 1 737 0
 1726 027e FFF7FEFF 		bl	mcpwm_foc_encoder_detect
 1727              	.LVL147:
 1728              		.loc 1 738 0
 1729 0282 3B48     		ldr	r0, .L216+16
 1730 0284 FFF7FEFF 		bl	mc_interface_set_configuration
 1731              	.LVL148:
 1732              		.loc 1 741 0
 1733 0288 1B22     		movs	r2, #27
 1734 028a 0123     		movs	r3, #1
 1735              		.loc 1 742 0
 1736 028c 3946     		mov	r1, r7
 1737 028e 3046     		mov	r0, r6
 1738 0290 9DED030A 		flds	s0, [sp, #12]
 1739 0294 DFED380A 		flds	s1, .L216+24
 1740              		.loc 1 741 0
 1741 0298 3270     		strb	r2, [r6]
 1742 029a 0293     		str	r3, [sp, #8]
 1743              		.loc 1 742 0
 1744 029c FFF7FEFF 		bl	buffer_append_float32
 1745              	.LVL149:
 1746              		.loc 1 743 0
 1747 02a0 3946     		mov	r1, r7
 1748 02a2 3046     		mov	r0, r6
 1749 02a4 9DED040A 		flds	s0, [sp, #16]
 1750 02a8 DFED330A 		flds	s1, .L216+24
 1751 02ac FFF7FEFF 		bl	buffer_append_float32
 1752              	.LVL150:
 1753              		.loc 1 744 0
 1754 02b0 0299     		ldr	r1, [sp, #8]
 1755 02b2 9DF80720 		ldrb	r2, [sp, #7]	@ zero_extendqisi2
 1756              		.loc 1 745 0
 1757 02b6 DAF80030 		ldr	r3, [r10]
 1758              		.loc 1 744 0
 1759 02ba 7254     		strb	r2, [r6, r1]
 1760 02bc 0131     		adds	r1, r1, #1
 1761 02be 0291     		str	r1, [sp, #8]
ARM GAS  /tmp/ccTQOGyd.s 			page 32


 1762              		.loc 1 745 0
 1763 02c0 002B     		cmp	r3, #0
 1764 02c2 01F0E181 		beq	.L136
 1765              	.L204:
 1766              	.LBB116:
 1767              	.LBB117:
 1768              		.loc 1 92 0
 1769 02c6 3046     		mov	r0, r6
 1770 02c8 9847     		blx	r3
 1771              	.LVL151:
 1772 02ca 21E7     		b	.L82
 1773              	.LVL152:
 1774              	.L106:
 1775              	.LBE117:
 1776              	.LBE116:
 1777              	.LBE115:
 1778              	.LBB120:
 1779              		.loc 1 693 0
 1780 02cc 02A9     		add	r1, sp, #8
 1781 02ce 2046     		mov	r0, r4
 1782              	.LVL153:
 1783 02d0 9FED2F0A 		flds	s0, .L216+48
 1784              		.loc 1 698 0
 1785 02d4 234D     		ldr	r5, .L216+4
 1786              	.LVL154:
 1787 02d6 244E     		ldr	r6, .L216+8
 1788              		.loc 1 693 0
 1789 02d8 FFF7FEFF 		bl	buffer_get_float32
 1790              	.LVL155:
 1791              		.loc 1 694 0
 1792 02dc 2046     		mov	r0, r4
 1793              		.loc 1 693 0
 1794 02de B0EE408A 		fcpys	s16, s0
 1795              	.LVL156:
 1796              		.loc 1 694 0
 1797 02e2 02A9     		add	r1, sp, #8
 1798 02e4 9FED2A0A 		flds	s0, .L216+48
 1799              	.LVL157:
 1800 02e8 FFF7FEFF 		bl	buffer_get_float32
 1801              	.LVL158:
 1802              		.loc 1 695 0
 1803 02ec 2046     		mov	r0, r4
 1804              		.loc 1 694 0
 1805 02ee F0EE408A 		fcpys	s17, s0
 1806              	.LVL159:
 1807              		.loc 1 695 0
 1808 02f2 02A9     		add	r1, sp, #8
 1809 02f4 9FED260A 		flds	s0, .L216+48
 1810              	.LVL160:
 1811 02f8 FFF7FEFF 		bl	buffer_get_float32
 1812              	.LVL161:
 1813              		.loc 1 696 0
 1814 02fc 2046     		mov	r0, r4
 1815              		.loc 1 695 0
 1816 02fe B0EE409A 		fcpys	s18, s0
 1817              	.LVL162:
 1818              		.loc 1 696 0
ARM GAS  /tmp/ccTQOGyd.s 			page 33


 1819 0302 02A9     		add	r1, sp, #8
 1820 0304 9FED1C0A 		flds	s0, .L216+24
 1821              	.LVL163:
 1822 0308 FFF7FEFF 		bl	buffer_get_float32
 1823              	.LVL164:
 1824              		.loc 1 698 0
 1825 030c 2B68     		ldr	r3, [r5]
 1826 030e 3360     		str	r3, [r6]
 1827              		.loc 1 696 0
 1828 0310 F0EE401A 		fcpys	s3, s0
 1829              	.LVL165:
 1830              		.loc 1 701 0
 1831 0314 F0EE490A 		fcpys	s1, s18
 1832 0318 B0EE681A 		fcpys	s2, s17
 1833 031c B0EE480A 		fcpys	s0, s16
 1834              	.LVL166:
 1835 0320 04A8     		add	r0, sp, #16
 1836 0322 FFF7FEFF 		bl	conf_general_measure_flux_linkage
 1837              	.LVL167:
 1838              		.loc 1 703 0
 1839 0326 0028     		cmp	r0, #0
 1840 0328 41F09281 		bne	.L213
 1841              		.loc 1 704 0
 1842 032c DFED0F7A 		flds	s15, .L216+12
 1843 0330 B0EE670A 		fcpys	s0, s15
 1844 0334 CDED047A 		fsts	s15, [sp, #16]
 1845              	.L132:
 1846              		.loc 1 708 0
 1847 0338 0E4C     		ldr	r4, .L216+20
 1848              	.LVL168:
 1849              		.loc 1 709 0
 1850 033a DFED140A 		flds	s1, .L216+44
 1851              		.loc 1 708 0
 1852 033e 0123     		movs	r3, #1
 1853 0340 1A22     		movs	r2, #26
 1854              		.loc 1 709 0
 1855 0342 02A9     		add	r1, sp, #8
 1856 0344 2046     		mov	r0, r4
 1857              	.LVL169:
 1858              		.loc 1 708 0
 1859 0346 0293     		str	r3, [sp, #8]
 1860 0348 2270     		strb	r2, [r4]
 1861              		.loc 1 709 0
 1862 034a FFF7FEFF 		bl	buffer_append_float32
 1863              	.LVL170:
 1864              		.loc 1 710 0
 1865 034e 3368     		ldr	r3, [r6]
 1866 0350 002B     		cmp	r3, #0
 1867 0352 3FF4D8AE 		beq	.L133
 1868              	.LVL171:
 1869              	.L203:
 1870              		.loc 1 711 0
 1871 0356 2046     		mov	r0, r4
 1872 0358 0299     		ldr	r1, [sp, #8]
 1873 035a 9847     		blx	r3
 1874              	.LVL172:
 1875 035c D8E6     		b	.L82
ARM GAS  /tmp/ccTQOGyd.s 			page 34


 1876              	.L217:
 1877 035e 00BF     		.align	2
 1878              	.L216:
 1879 0360 00000000 		.word	.LANCHOR15
 1880 0364 00000000 		.word	.LANCHOR10
 1881 0368 00000000 		.word	.LANCHOR9
 1882 036c 00000000 		.word	0
 1883 0370 00000000 		.word	.LANCHOR16
 1884 0374 00000000 		.word	.LANCHOR8
 1885 0378 00247449 		.word	1232348160
 1886 037c 00000000 		.word	.LANCHOR13
 1887 0380 00401C46 		.word	1176256512
 1888 0384 0AD7233C 		.word	1008981770
 1889 0388 00002041 		.word	1092616192
 1890 038c 8096184B 		.word	1259902592
 1891 0390 00007A44 		.word	1148846080
 1892              	.LVL173:
 1893              	.L104:
 1894              	.LBE120:
 1895              		.loc 1 651 0
 1896 0394 02A9     		add	r1, sp, #8
 1897 0396 2046     		mov	r0, r4
 1898              	.LVL174:
 1899 0398 1FED030A 		flds	s0, .L216+48
 1900 039c FFF7FEFF 		bl	buffer_get_float32
 1901              	.LVL175:
 1902 03a0 BA4B     		ldr	r3, .L218
 1903              		.loc 1 652 0
 1904 03a2 02A9     		add	r1, sp, #8
 1905              		.loc 1 651 0
 1906 03a4 83ED000A 		fsts	s0, [r3]
 1907              		.loc 1 652 0
 1908 03a8 2046     		mov	r0, r4
 1909 03aa 9FEDB90A 		flds	s0, .L218+4
 1910 03ae FFF7FEFF 		bl	buffer_get_float32
 1911              	.LVL176:
 1912 03b2 B84B     		ldr	r3, .L218+8
 1913              		.loc 1 653 0
 1914 03b4 02A9     		add	r1, sp, #8
 1915 03b6 2046     		mov	r0, r4
 1916              		.loc 1 652 0
 1917 03b8 83ED000A 		fsts	s0, [r3]
 1918              		.loc 1 653 0
 1919 03bc 9FEDB40A 		flds	s0, .L218+4
 1920 03c0 FFF7FEFF 		bl	buffer_get_float32
 1921              	.LVL177:
 1922 03c4 B449     		ldr	r1, .L218+12
 1923              		.loc 1 655 0
 1924 03c6 B54A     		ldr	r2, .L218+16
 1925              		.loc 1 657 0
 1926 03c8 B548     		ldr	r0, .L218+20
 1927              		.loc 1 655 0
 1928 03ca B64B     		ldr	r3, .L218+24
 1929 03cc 1268     		ldr	r2, [r2]
 1930              		.loc 1 653 0
 1931 03ce 81ED000A 		fsts	s0, [r1]
 1932              		.loc 1 657 0
ARM GAS  /tmp/ccTQOGyd.s 			page 35


 1933 03d2 0068     		ldr	r0, [r0]
 1934              		.loc 1 655 0
 1935 03d4 1A60     		str	r2, [r3]
 1936              		.loc 1 657 0
 1937 03d6 0121     		movs	r1, #1
 1938 03d8 FFF7FEFF 		bl	chEvtSignal
 1939              	.LVL178:
 1940              		.loc 1 658 0
 1941 03dc 98E6     		b	.L82
 1942              	.LVL179:
 1943              	.L93:
 1944              		.loc 1 213 0
 1945 03de 02A9     		add	r1, sp, #8
 1946 03e0 2046     		mov	r0, r4
 1947              	.LVL180:
 1948 03e2 FFF7FEFF 		bl	buffer_get_int32
 1949              	.LVL181:
 1950 03e6 06EE900A 		fmsr	s13, r0	@ int
 1951 03ea DFEDA97A 		flds	s15, .L218+4
 1952 03ee B8EEE60A 		fsitos	s0, s13
 1953 03f2 80EE270A 		fdivs	s0, s0, s15
 1954 03f6 FFF7FEFF 		bl	mc_interface_set_brake_current
 1955              	.LVL182:
 1956              		.loc 1 214 0
 1957 03fa FFF7FEFF 		bl	timeout_reset
 1958              	.LVL183:
 1959              		.loc 1 215 0
 1960 03fe 87E6     		b	.L82
 1961              	.LVL184:
 1962              	.L92:
 1963              		.loc 1 195 0
 1964 0400 02A9     		add	r1, sp, #8
 1965 0402 2046     		mov	r0, r4
 1966              	.LVL185:
 1967 0404 FFF7FEFF 		bl	buffer_get_int32
 1968              	.LVL186:
 1969 0408 06EE900A 		fmsr	s13, r0	@ int
 1970 040c DFEDA07A 		flds	s15, .L218+4
 1971 0410 B8EEE60A 		fsitos	s0, s13
 1972 0414 80EE270A 		fdivs	s0, s0, s15
 1973 0418 FFF7FEFF 		bl	mc_interface_set_current
 1974              	.LVL187:
 1975              		.loc 1 196 0
 1976 041c FFF7FEFF 		bl	timeout_reset
 1977              	.LVL188:
 1978              		.loc 1 197 0
 1979 0420 76E6     		b	.L82
 1980              	.LVL189:
 1981              	.L91:
 1982              		.loc 1 189 0
 1983 0422 02A9     		add	r1, sp, #8
 1984 0424 2046     		mov	r0, r4
 1985              	.LVL190:
 1986 0426 FFF7FEFF 		bl	buffer_get_int32
 1987              	.LVL191:
 1988 042a 07EE100A 		fmsr	s14, r0	@ int
 1989 042e DFED9E7A 		flds	s15, .L218+28
ARM GAS  /tmp/ccTQOGyd.s 			page 36


 1990 0432 B8EEC70A 		fsitos	s0, s14
 1991 0436 80EE270A 		fdivs	s0, s0, s15
 1992 043a FFF7FEFF 		bl	mc_interface_set_duty
 1993              	.LVL192:
 1994              		.loc 1 190 0
 1995 043e FFF7FEFF 		bl	timeout_reset
 1996              	.LVL193:
 1997              		.loc 1 191 0
 1998 0442 65E6     		b	.L82
 1999              	.LVL194:
 2000              	.L90:
 2001              		.loc 1 167 0
 2002 0444 36AD     		add	r5, sp, #216
 2003              	.LVL195:
 2004 0446 0123     		movs	r3, #1
 2005 0448 45F8D03D 		str	r3, [r5, #-208]!
 2006 044c 974C     		ldr	r4, .L218+32
 2007              	.LVL196:
 2008 044e 0423     		movs	r3, #4
 2009 0450 2370     		strb	r3, [r4]
 2010              	.LVL197:
 2011              		.loc 1 168 0
 2012 0452 FFF7FEFF 		bl	mc_interface_temp_fet_filtered
 2013              	.LVL198:
 2014 0456 2946     		mov	r1, r5
 2015 0458 2046     		mov	r0, r4
 2016 045a F2EE040A 		fconsts	s1, #36
 2017 045e FFF7FEFF 		bl	buffer_append_float16
 2018              	.LVL199:
 2019              		.loc 1 169 0
 2020 0462 FFF7FEFF 		bl	mc_interface_temp_motor_filtered
 2021              	.LVL200:
 2022 0466 2946     		mov	r1, r5
 2023 0468 2046     		mov	r0, r4
 2024 046a F2EE040A 		fconsts	s1, #36
 2025 046e FFF7FEFF 		bl	buffer_append_float16
 2026              	.LVL201:
 2027              		.loc 1 170 0
 2028 0472 FFF7FEFF 		bl	mc_interface_read_reset_avg_motor_current
 2029              	.LVL202:
 2030 0476 2946     		mov	r1, r5
 2031 0478 2046     		mov	r0, r4
 2032 047a DFED8D0A 		flds	s1, .L218+36
 2033 047e FFF7FEFF 		bl	buffer_append_float32
 2034              	.LVL203:
 2035              		.loc 1 171 0
 2036 0482 FFF7FEFF 		bl	mc_interface_read_reset_avg_input_current
 2037              	.LVL204:
 2038 0486 2946     		mov	r1, r5
 2039 0488 2046     		mov	r0, r4
 2040 048a DFED890A 		flds	s1, .L218+36
 2041 048e FFF7FEFF 		bl	buffer_append_float32
 2042              	.LVL205:
 2043              		.loc 1 172 0
 2044 0492 FFF7FEFF 		bl	mc_interface_read_reset_avg_id
 2045              	.LVL206:
 2046 0496 2946     		mov	r1, r5
ARM GAS  /tmp/ccTQOGyd.s 			page 37


 2047 0498 2046     		mov	r0, r4
 2048 049a DFED850A 		flds	s1, .L218+36
 2049 049e FFF7FEFF 		bl	buffer_append_float32
 2050              	.LVL207:
 2051              		.loc 1 173 0
 2052 04a2 FFF7FEFF 		bl	mc_interface_read_reset_avg_iq
 2053              	.LVL208:
 2054 04a6 2946     		mov	r1, r5
 2055 04a8 2046     		mov	r0, r4
 2056 04aa DFED810A 		flds	s1, .L218+36
 2057 04ae FFF7FEFF 		bl	buffer_append_float32
 2058              	.LVL209:
 2059              		.loc 1 174 0
 2060 04b2 FFF7FEFF 		bl	mc_interface_get_duty_cycle_now
 2061              	.LVL210:
 2062 04b6 2946     		mov	r1, r5
 2063 04b8 2046     		mov	r0, r4
 2064 04ba DFED750A 		flds	s1, .L218+4
 2065 04be FFF7FEFF 		bl	buffer_append_float16
 2066              	.LVL211:
 2067              		.loc 1 175 0
 2068 04c2 FFF7FEFF 		bl	mc_interface_get_rpm
 2069              	.LVL212:
 2070 04c6 2946     		mov	r1, r5
 2071 04c8 2046     		mov	r0, r4
 2072 04ca F7EE000A 		fconsts	s1, #112
 2073 04ce FFF7FEFF 		bl	buffer_append_float32
 2074              	.LVL213:
 2075              		.loc 1 176 0
 2076 04d2 784B     		ldr	r3, .L218+40
 2077 04d4 9FED787A 		flds	s14, .L218+44
 2078 04d8 1B8A     		ldrh	r3, [r3, #16]
 2079 04da DFED787A 		flds	s15, .L218+48
 2080 04de 9BB2     		uxth	r3, r3
 2081 04e0 06EE903A 		fmsr	s13, r3	@ int
 2082 04e4 B8EE660A 		fuitos	s0, s13
 2083 04e8 2946     		mov	r1, r5
 2084 04ea 20EE070A 		fmuls	s0, s0, s14
 2085 04ee F2EE040A 		fconsts	s1, #36
 2086 04f2 20EE270A 		fmuls	s0, s0, s15
 2087 04f6 2046     		mov	r0, r4
 2088 04f8 FFF7FEFF 		bl	buffer_append_float16
 2089              	.LVL214:
 2090              		.loc 1 177 0
 2091 04fc 0020     		movs	r0, #0
 2092 04fe FFF7FEFF 		bl	mc_interface_get_amp_hours
 2093              	.LVL215:
 2094 0502 2946     		mov	r1, r5
 2095 0504 DFED6E0A 		flds	s1, .L218+52
 2096 0508 2046     		mov	r0, r4
 2097 050a FFF7FEFF 		bl	buffer_append_float32
 2098              	.LVL216:
 2099              		.loc 1 178 0
 2100 050e 0020     		movs	r0, #0
 2101 0510 FFF7FEFF 		bl	mc_interface_get_amp_hours_charged
 2102              	.LVL217:
 2103 0514 2946     		mov	r1, r5
ARM GAS  /tmp/ccTQOGyd.s 			page 38


 2104 0516 DFED6A0A 		flds	s1, .L218+52
 2105 051a 2046     		mov	r0, r4
 2106 051c FFF7FEFF 		bl	buffer_append_float32
 2107              	.LVL218:
 2108              		.loc 1 179 0
 2109 0520 0020     		movs	r0, #0
 2110 0522 FFF7FEFF 		bl	mc_interface_get_watt_hours
 2111              	.LVL219:
 2112 0526 2946     		mov	r1, r5
 2113 0528 DFED650A 		flds	s1, .L218+52
 2114 052c 2046     		mov	r0, r4
 2115 052e FFF7FEFF 		bl	buffer_append_float32
 2116              	.LVL220:
 2117              		.loc 1 180 0
 2118 0532 0020     		movs	r0, #0
 2119 0534 FFF7FEFF 		bl	mc_interface_get_watt_hours_charged
 2120              	.LVL221:
 2121 0538 DFED610A 		flds	s1, .L218+52
 2122 053c 2946     		mov	r1, r5
 2123 053e 2046     		mov	r0, r4
 2124 0540 FFF7FEFF 		bl	buffer_append_float32
 2125              	.LVL222:
 2126              		.loc 1 181 0
 2127 0544 0020     		movs	r0, #0
 2128 0546 FFF7FEFF 		bl	mc_interface_get_tachometer_value
 2129              	.LVL223:
 2130 054a 2A46     		mov	r2, r5
 2131 054c 0146     		mov	r1, r0
 2132 054e 2046     		mov	r0, r4
 2133 0550 FFF7FEFF 		bl	buffer_append_int32
 2134              	.LVL224:
 2135              		.loc 1 182 0
 2136 0554 0020     		movs	r0, #0
 2137 0556 FFF7FEFF 		bl	mc_interface_get_tachometer_abs_value
 2138              	.LVL225:
 2139 055a 2A46     		mov	r2, r5
 2140 055c 0146     		mov	r1, r0
 2141 055e 2046     		mov	r0, r4
 2142 0560 FFF7FEFF 		bl	buffer_append_int32
 2143              	.LVL226:
 2144              		.loc 1 183 0
 2145 0564 029D     		ldr	r5, [sp, #8]
 2146 0566 6B1C     		adds	r3, r5, #1
 2147 0568 0293     		str	r3, [sp, #8]
 2148 056a FFF7FEFF 		bl	mc_interface_get_fault
 2149              	.LVL227:
 2150              	.LBB121:
 2151              	.LBB122:
 2152              		.loc 1 91 0
 2153 056e 4B4B     		ldr	r3, .L218+16
 2154              	.LBE122:
 2155              	.LBE121:
 2156              		.loc 1 183 0
 2157 0570 6055     		strb	r0, [r4, r5]
 2158              	.LBB125:
 2159              	.LBB123:
 2160              		.loc 1 91 0
ARM GAS  /tmp/ccTQOGyd.s 			page 39


 2161 0572 1B68     		ldr	r3, [r3]
 2162              	.LBE123:
 2163              	.LBE125:
 2164              		.loc 1 184 0
 2165 0574 0299     		ldr	r1, [sp, #8]
 2166              	.LVL228:
 2167              	.LBB126:
 2168              	.LBB124:
 2169              		.loc 1 91 0
 2170 0576 002B     		cmp	r3, #0
 2171 0578 7FF4C8AD 		bne	.L201
 2172 057c C8E5     		b	.L82
 2173              	.LVL229:
 2174              	.L89:
 2175              	.LBE124:
 2176              	.LBE126:
 2177              		.loc 1 156 0
 2178 057e 2046     		mov	r0, r4
 2179              	.LVL230:
 2180 0580 02A9     		add	r1, sp, #8
 2181 0582 FFF7FEFF 		bl	buffer_get_uint32
 2182              	.LVL231:
 2183              		.loc 1 157 0
 2184 0586 029A     		ldr	r2, [sp, #8]
 2185 0588 A118     		adds	r1, r4, r2
 2186 058a AA1A     		subs	r2, r5, r2
 2187 058c FFF7FEFF 		bl	flash_helper_write_new_app_data
 2188              	.LVL232:
 2189              	.LBB127:
 2190              	.LBB128:
 2191              		.loc 1 91 0
 2192 0590 424A     		ldr	r2, .L218+16
 2193              	.LBE128:
 2194              	.LBE127:
 2195              		.loc 1 160 0
 2196 0592 464B     		ldr	r3, .L218+32
 2197              	.LBB131:
 2198              	.LBB129:
 2199              		.loc 1 91 0
 2200 0594 1268     		ldr	r2, [r2]
 2201              	.LBE129:
 2202              	.LBE131:
 2203              		.loc 1 161 0
 2204 0596 B0F10901 		subs	r1, r0, #9
 2205 059a 4842     		rsbs	r0, r1, #0
 2206              	.LVL233:
 2207 059c 4841     		adcs	r0, r0, r1
 2208              		.loc 1 160 0
 2209 059e 0324     		movs	r4, #3
 2210              	.LVL234:
 2211              		.loc 1 161 0
 2212 05a0 0221     		movs	r1, #2
 2213 05a2 5870     		strb	r0, [r3, #1]
 2214              	.LVL235:
 2215              		.loc 1 160 0
 2216 05a4 1C70     		strb	r4, [r3]
 2217              		.loc 1 161 0
ARM GAS  /tmp/ccTQOGyd.s 			page 40


 2218 05a6 0291     		str	r1, [sp, #8]
 2219              	.LBB132:
 2220              	.LBB130:
 2221              		.loc 1 91 0
 2222 05a8 002A     		cmp	r2, #0
 2223 05aa 3FF4B1AD 		beq	.L82
 2224              	.LVL236:
 2225              	.L197:
 2226              		.loc 1 92 0
 2227 05ae 1846     		mov	r0, r3
 2228 05b0 9047     		blx	r2
 2229              	.LVL237:
 2230 05b2 ADE5     		b	.L82
 2231              	.LVL238:
 2232              	.L88:
 2233              	.LBE130:
 2234              	.LBE132:
 2235              		.loc 1 146 0
 2236 05b4 02A9     		add	r1, sp, #8
 2237 05b6 2046     		mov	r0, r4
 2238              	.LVL239:
 2239 05b8 FFF7FEFF 		bl	buffer_get_uint32
 2240              	.LVL240:
 2241 05bc FFF7FEFF 		bl	flash_helper_erase_new_app
 2242              	.LVL241:
 2243              	.LBB133:
 2244              	.LBB134:
 2245              		.loc 1 91 0
 2246 05c0 364A     		ldr	r2, .L218+16
 2247              	.LBE134:
 2248              	.LBE133:
 2249              		.loc 1 149 0
 2250 05c2 3A4B     		ldr	r3, .L218+32
 2251              	.LBB137:
 2252              	.LBB135:
 2253              		.loc 1 91 0
 2254 05c4 1268     		ldr	r2, [r2]
 2255              	.LBE135:
 2256              	.LBE137:
 2257              		.loc 1 150 0
 2258 05c6 B0F10904 		subs	r4, r0, #9
 2259              	.LVL242:
 2260 05ca 6042     		rsbs	r0, r4, #0
 2261              	.LVL243:
 2262              		.loc 1 149 0
 2263 05cc 4FF00201 		mov	r1, #2
 2264              		.loc 1 150 0
 2265 05d0 6041     		adcs	r0, r0, r4
 2266 05d2 5870     		strb	r0, [r3, #1]
 2267              	.LVL244:
 2268              		.loc 1 149 0
 2269 05d4 1970     		strb	r1, [r3]
 2270              		.loc 1 150 0
 2271 05d6 0291     		str	r1, [sp, #8]
 2272              	.LBB138:
 2273              	.LBB136:
 2274              		.loc 1 91 0
ARM GAS  /tmp/ccTQOGyd.s 			page 41


 2275 05d8 002A     		cmp	r2, #0
 2276 05da E8D1     		bne	.L197
 2277 05dc 98E5     		b	.L82
 2278              	.LVL245:
 2279              	.L87:
 2280              	.LBE136:
 2281              	.LBE138:
 2282              		.loc 1 141 0
 2283 05de FFF7FEFF 		bl	flash_helper_jump_to_bootloader
 2284              	.LVL246:
 2285              		.loc 1 142 0
 2286 05e2 95E5     		b	.L82
 2287              	.LVL247:
 2288              	.L85:
 2289              		.loc 1 130 0
 2290 05e4 374A     		ldr	r2, .L218+56
 2291              		.loc 1 125 0
 2292 05e6 314B     		ldr	r3, .L218+32
 2293              		.loc 1 130 0
 2294 05e8 1068     		ldr	r0, [r2]	@ unaligned
 2295              	.LVL248:
 2296 05ea C3F80300 		str	r0, [r3, #3]	@ unaligned
 2297              	.LVL249:
 2298              		.loc 1 126 0
 2299 05ee 0321     		movs	r1, #3
 2300              		.loc 1 125 0
 2301 05f0 0020     		movs	r0, #0
 2302              		.loc 1 127 0
 2303 05f2 2122     		movs	r2, #33
 2304              		.loc 1 133 0
 2305 05f4 344C     		ldr	r4, .L218+60
 2306              	.LVL250:
 2307              		.loc 1 125 0
 2308 05f6 1870     		strb	r0, [r3]
 2309              		.loc 1 126 0
 2310 05f8 5970     		strb	r1, [r3, #1]
 2311              		.loc 1 127 0
 2312 05fa 9A70     		strb	r2, [r3, #2]
 2313              		.loc 1 133 0
 2314 05fc 07CC     		ldmia	r4!, {r0, r1, r2}
 2315              	.LBB139:
 2316              	.LBB140:
 2317              		.loc 1 91 0
 2318 05fe 274C     		ldr	r4, .L218+16
 2319              	.LBE140:
 2320              	.LBE139:
 2321              		.loc 1 133 0
 2322 0600 C3F80B10 		str	r1, [r3, #11]	@ unaligned
 2323              	.LBB143:
 2324              	.LBB141:
 2325              		.loc 1 91 0
 2326 0604 2468     		ldr	r4, [r4]
 2327              	.LBE141:
 2328              	.LBE143:
 2329              		.loc 1 133 0
 2330 0606 C3F80700 		str	r0, [r3, #7]	@ unaligned
 2331              		.loc 1 134 0
ARM GAS  /tmp/ccTQOGyd.s 			page 42


 2332 060a 1321     		movs	r1, #19
 2333              		.loc 1 133 0
 2334 060c C3F80F20 		str	r2, [r3, #15]	@ unaligned
 2335              		.loc 1 134 0
 2336 0610 0291     		str	r1, [sp, #8]
 2337              	.LVL251:
 2338              	.LBB144:
 2339              	.LBB142:
 2340              		.loc 1 91 0
 2341 0612 002C     		cmp	r4, #0
 2342 0614 3FF47CAD 		beq	.L82
 2343              		.loc 1 92 0
 2344 0618 1846     		mov	r0, r3
 2345 061a A047     		blx	r4
 2346              	.LVL252:
 2347 061c 78E5     		b	.L82
 2348              	.LVL253:
 2349              	.L118:
 2350              	.LBE142:
 2351              	.LBE144:
 2352              		.loc 1 201 0
 2353 061e 02A9     		add	r1, sp, #8
 2354 0620 2046     		mov	r0, r4
 2355              	.LVL254:
 2356 0622 FFF7FEFF 		bl	buffer_get_int32
 2357              	.LVL255:
 2358 0626 07EE100A 		fmsr	s14, r0	@ int
 2359 062a DFED197A 		flds	s15, .L218+4
 2360              		.loc 1 204 0
 2361 062e 1F4C     		ldr	r4, .L218+32
 2362              	.LVL256:
 2363              		.loc 1 201 0
 2364 0630 B8EEC70A 		fsitos	s0, s14
 2365 0634 80EE270A 		fdivs	s0, s0, s15
 2366 0638 FFF7FEFF 		bl	mc_interface_set_current
 2367              	.LVL257:
 2368              		.loc 1 202 0
 2369 063c FFF7FEFF 		bl	timeout_reset
 2370              	.LVL258:
 2371              		.loc 1 204 0
 2372 0640 2622     		movs	r2, #38
 2373 0642 0123     		movs	r3, #1
 2374 0644 2270     		strb	r2, [r4]
 2375 0646 0293     		str	r3, [sp, #8]
 2376              		.loc 1 205 0
 2377 0648 FFF7FEFF 		bl	encoder_cumulative_counts
 2378              	.LVL259:
 2379 064c 02AA     		add	r2, sp, #8
 2380 064e 0146     		mov	r1, r0
 2381 0650 2046     		mov	r0, r4
 2382              	.LVL260:
 2383              	.L210:
 2384              		.loc 1 833 0
 2385 0652 FFF7FEFF 		bl	buffer_append_int32
 2386              	.LVL261:
 2387              	.LBB145:
 2388              	.LBB108:
ARM GAS  /tmp/ccTQOGyd.s 			page 43


 2389              		.loc 1 91 0
 2390 0656 114B     		ldr	r3, .L218+16
 2391              	.LBE108:
 2392              	.LBE145:
 2393              		.loc 1 834 0
 2394 0658 0299     		ldr	r1, [sp, #8]
 2395              	.LVL262:
 2396              	.LBB146:
 2397              	.LBB109:
 2398              		.loc 1 91 0
 2399 065a 1B68     		ldr	r3, [r3]
 2400 065c 002B     		cmp	r3, #0
 2401 065e 7FF455AD 		bne	.L201
 2402 0662 55E5     		b	.L82
 2403              	.LVL263:
 2404              	.L117:
 2405              	.LBE109:
 2406              	.LBE146:
 2407              		.loc 1 861 0
 2408 0664 02A9     		add	r1, sp, #8
 2409 0666 2046     		mov	r0, r4
 2410              	.LVL264:
 2411 0668 FFF7FEFF 		bl	buffer_get_int32
 2412              	.LVL265:
 2413 066c FFF7FEFF 		bl	nrf_driver_start_pairing
 2414              	.LVL266:
 2415              	.LBB147:
 2416              	.LBB148:
 2417              		.loc 1 91 0
 2418 0670 0A4B     		ldr	r3, .L218+16
 2419              	.LBE148:
 2420              	.LBE147:
 2421              		.loc 1 864 0
 2422 0672 0E48     		ldr	r0, .L218+32
 2423              	.LBB151:
 2424              	.LBB149:
 2425              		.loc 1 91 0
 2426 0674 1B68     		ldr	r3, [r3]
 2427              	.LBE149:
 2428              	.LBE151:
 2429              		.loc 1 864 0
 2430 0676 2524     		movs	r4, #37
 2431              	.LVL267:
 2432              		.loc 1 865 0
 2433 0678 0022     		movs	r2, #0
 2434 067a 0221     		movs	r1, #2
 2435              		.loc 1 864 0
 2436 067c 0470     		strb	r4, [r0]
 2437              		.loc 1 865 0
 2438 067e 4270     		strb	r2, [r0, #1]
 2439              	.LVL268:
 2440 0680 0291     		str	r1, [sp, #8]
 2441              	.LBB152:
 2442              	.LBB150:
 2443              		.loc 1 91 0
 2444 0682 002B     		cmp	r3, #0
 2445 0684 3FF444AD 		beq	.L82
ARM GAS  /tmp/ccTQOGyd.s 			page 44


 2446              	.LVL269:
 2447              	.L200:
 2448              		.loc 1 92 0
 2449 0688 9847     		blx	r3
 2450              	.LVL270:
 2451 068a 41E5     		b	.L82
 2452              	.L219:
 2453              		.align	2
 2454              	.L218:
 2455 068c 00000000 		.word	.LANCHOR1
 2456 0690 00007A44 		.word	1148846080
 2457 0694 00000000 		.word	.LANCHOR2
 2458 0698 00000000 		.word	.LANCHOR3
 2459 069c 00000000 		.word	.LANCHOR10
 2460 06a0 00000000 		.word	.LANCHOR0
 2461 06a4 00000000 		.word	.LANCHOR9
 2462 06a8 0050C347 		.word	1203982336
 2463 06ac 00000000 		.word	.LANCHOR8
 2464 06b0 0000C842 		.word	1120403456
 2465 06b4 00000000 		.word	ADC_Value
 2466 06b8 6740533A 		.word	978534503
 2467 06bc 74D19541 		.word	1100337524
 2468 06c0 00401C46 		.word	1176256512
 2469 06c4 08000000 		.word	.LC1
 2470 06c8 107AFF1F 		.word	536836624
 2471              	.LVL271:
 2472              	.L116:
 2473              	.LBE150:
 2474              	.LBE152:
 2475              		.loc 1 854 0
 2476 06cc 514B     		ldr	r3, .L220
 2477 06ce 1B68     		ldr	r3, [r3]
 2478 06d0 002B     		cmp	r3, #0
 2479 06d2 3FF41DAD 		beq	.L82
 2480              		.loc 1 855 0
 2481 06d6 2046     		mov	r0, r4
 2482              	.LVL272:
 2483              	.L202:
 2484 06d8 2946     		mov	r1, r5
 2485 06da 9847     		blx	r3
 2486              	.LVL273:
 2487 06dc 18E5     		b	.L82
 2488              	.LVL274:
 2489              	.L115:
 2490              		.loc 1 845 0
 2491 06de C678     		ldrb	r6, [r0, #3]	@ zero_extendqisi2
 2492              		.loc 1 846 0
 2493 06e0 0579     		ldrb	r5, [r0, #4]	@ zero_extendqisi2
 2494              	.LVL275:
 2495              		.loc 1 843 0
 2496 06e2 4378     		ldrb	r3, [r0, #1]	@ zero_extendqisi2
 2497              		.loc 1 844 0
 2498 06e4 8278     		ldrb	r2, [r0, #2]	@ zero_extendqisi2
 2499              		.loc 1 843 0
 2500 06e6 0493     		str	r3, [sp, #16]
 2501              		.loc 1 845 0
 2502 06e8 0036     		adds	r6, r6, #0
ARM GAS  /tmp/ccTQOGyd.s 			page 45


 2503 06ea 18BF     		it	ne
 2504 06ec 0126     		movne	r6, #1
 2505              		.loc 1 846 0
 2506 06ee 0035     		adds	r5, r5, #0
 2507 06f0 18BF     		it	ne
 2508 06f2 0125     		movne	r5, #1
 2509 06f4 0423     		movs	r3, #4
 2510              		.loc 1 847 0
 2511 06f6 02A9     		add	r1, sp, #8
 2512              	.LVL276:
 2513 06f8 2046     		mov	r0, r4
 2514              	.LVL277:
 2515              		.loc 1 844 0
 2516 06fa 0592     		str	r2, [sp, #20]
 2517              		.loc 1 846 0
 2518 06fc 0293     		str	r3, [sp, #8]
 2519              		.loc 1 845 0
 2520 06fe 8DF82460 		strb	r6, [sp, #36]
 2521              		.loc 1 846 0
 2522 0702 8DF82550 		strb	r5, [sp, #37]
 2523              		.loc 1 847 0
 2524 0706 FFF7FEFF 		bl	buffer_get_int16
 2525              	.LVL278:
 2526              		.loc 1 848 0
 2527 070a 02A9     		add	r1, sp, #8
 2528              		.loc 1 847 0
 2529 070c 0690     		str	r0, [sp, #24]
 2530              		.loc 1 848 0
 2531 070e 2046     		mov	r0, r4
 2532 0710 FFF7FEFF 		bl	buffer_get_int16
 2533              	.LVL279:
 2534              		.loc 1 849 0
 2535 0714 02A9     		add	r1, sp, #8
 2536              		.loc 1 848 0
 2537 0716 0790     		str	r0, [sp, #28]
 2538              		.loc 1 849 0
 2539 0718 2046     		mov	r0, r4
 2540 071a FFF7FEFF 		bl	buffer_get_int16
 2541              	.LVL280:
 2542 071e 0890     		str	r0, [sp, #32]
 2543              		.loc 1 850 0
 2544 0720 04A8     		add	r0, sp, #16
 2545 0722 FFF7FEFF 		bl	app_nunchuk_update_output
 2546              	.LVL281:
 2547              		.loc 1 851 0
 2548 0726 F3E4     		b	.L82
 2549              	.LVL282:
 2550              	.L114:
 2551              		.loc 1 838 0
 2552 0728 8A1E     		subs	r2, r1, #2
 2553 072a 4078     		ldrb	r0, [r0, #1]	@ zero_extendqisi2
 2554              	.LVL283:
 2555 072c B91C     		adds	r1, r7, #2
 2556 072e 0023     		movs	r3, #0
 2557 0730 FFF7FEFF 		bl	comm_can_send_buffer
 2558              	.LVL284:
 2559              		.loc 1 839 0
ARM GAS  /tmp/ccTQOGyd.s 			page 46


 2560 0734 ECE4     		b	.L82
 2561              	.LVL285:
 2562              	.L113:
 2563              		.loc 1 832 0
 2564 0736 36AD     		add	r5, sp, #216
 2565              	.LVL286:
 2566 0738 374C     		ldr	r4, .L220+4
 2567              	.LVL287:
 2568 073a 0122     		movs	r2, #1
 2569 073c 2123     		movs	r3, #33
 2570 073e 45F8D02D 		str	r2, [r5, #-208]!
 2571 0742 2370     		strb	r3, [r4]
 2572              	.LVL288:
 2573              		.loc 1 833 0
 2574 0744 FFF7FEFF 		bl	app_nunchuk_get_decoded_chuk
 2575              	.LVL289:
 2576 0748 DFED347A 		flds	s15, .L220+8
 2577 074c 20EE270A 		fmuls	s0, s0, s15
 2578              	.L206:
 2579 0750 BDEEC00A 		ftosizs	s0, s0
 2580 0754 2A46     		mov	r2, r5
 2581 0756 10EE101A 		fmrs	r1, s0	@ int
 2582 075a 2046     		mov	r0, r4
 2583 075c 79E7     		b	.L210
 2584              	.LVL290:
 2585              	.L112:
 2586              		.loc 1 822 0
 2587 075e 36AD     		add	r5, sp, #216
 2588              	.LVL291:
 2589 0760 2D4C     		ldr	r4, .L220+4
 2590              	.LVL292:
 2591              		.loc 1 823 0
 2592 0762 9FED2E8A 		flds	s16, .L220+8
 2593              		.loc 1 822 0
 2594 0766 2023     		movs	r3, #32
 2595 0768 0122     		movs	r2, #1
 2596 076a 2370     		strb	r3, [r4]
 2597              	.LVL293:
 2598 076c 45F8D02D 		str	r2, [r5, #-208]!
 2599              		.loc 1 823 0
 2600 0770 FFF7FEFF 		bl	app_adc_get_decoded_level
 2601              	.LVL294:
 2602 0774 20EE080A 		fmuls	s0, s0, s16
 2603 0778 2A46     		mov	r2, r5
 2604 077a BDEEC00A 		ftosizs	s0, s0
 2605 077e 2046     		mov	r0, r4
 2606 0780 10EE101A 		fmrs	r1, s0	@ int
 2607 0784 FFF7FEFF 		bl	buffer_append_int32
 2608              	.LVL295:
 2609              		.loc 1 824 0
 2610 0788 FFF7FEFF 		bl	app_adc_get_voltage
 2611              	.LVL296:
 2612 078c 20EE080A 		fmuls	s0, s0, s16
 2613 0790 2A46     		mov	r2, r5
 2614 0792 BDEEC00A 		ftosizs	s0, s0
 2615 0796 2046     		mov	r0, r4
 2616 0798 10EE101A 		fmrs	r1, s0	@ int
ARM GAS  /tmp/ccTQOGyd.s 			page 47


 2617 079c FFF7FEFF 		bl	buffer_append_int32
 2618              	.LVL297:
 2619              		.loc 1 825 0
 2620 07a0 FFF7FEFF 		bl	app_adc_get_decoded_level2
 2621              	.LVL298:
 2622 07a4 20EE080A 		fmuls	s0, s0, s16
 2623 07a8 2A46     		mov	r2, r5
 2624 07aa BDEEC00A 		ftosizs	s0, s0
 2625 07ae 2046     		mov	r0, r4
 2626 07b0 10EE101A 		fmrs	r1, s0	@ int
 2627 07b4 FFF7FEFF 		bl	buffer_append_int32
 2628              	.LVL299:
 2629              		.loc 1 826 0
 2630 07b8 FFF7FEFF 		bl	app_adc_get_voltage2
 2631              	.LVL300:
 2632 07bc 20EE080A 		fmuls	s0, s0, s16
 2633 07c0 C6E7     		b	.L206
 2634              	.LVL301:
 2635              	.L111:
 2636              		.loc 1 814 0
 2637 07c2 36AD     		add	r5, sp, #216
 2638              	.LVL302:
 2639 07c4 144C     		ldr	r4, .L220+4
 2640              	.LVL303:
 2641              		.loc 1 815 0
 2642 07c6 9FED158A 		flds	s16, .L220+8
 2643              		.loc 1 814 0
 2644 07ca 1F23     		movs	r3, #31
 2645 07cc 0122     		movs	r2, #1
 2646 07ce 2370     		strb	r3, [r4]
 2647              	.LVL304:
 2648 07d0 45F8D02D 		str	r2, [r5, #-208]!
 2649              		.loc 1 815 0
 2650 07d4 FFF7FEFF 		bl	app_ppm_get_decoded_level
 2651              	.LVL305:
 2652 07d8 20EE080A 		fmuls	s0, s0, s16
 2653 07dc 2A46     		mov	r2, r5
 2654 07de BDEEC00A 		ftosizs	s0, s0
 2655 07e2 2046     		mov	r0, r4
 2656 07e4 10EE101A 		fmrs	r1, s0	@ int
 2657 07e8 FFF7FEFF 		bl	buffer_append_int32
 2658              	.LVL306:
 2659              		.loc 1 816 0
 2660 07ec 0020     		movs	r0, #0
 2661 07ee FFF7FEFF 		bl	servodec_get_last_pulse_len
 2662              	.LVL307:
 2663 07f2 20EE080A 		fmuls	s0, s0, s16
 2664 07f6 ABE7     		b	.L206
 2665              	.LVL308:
 2666              	.L101:
 2667              		.loc 1 623 0
 2668 07f8 B8F1110F 		cmp	r8, #17
 2669 07fc 00F03A87 		beq	.L214
 2670              		.loc 1 626 0
 2671 0800 04AC     		add	r4, sp, #16
 2672              	.LVL309:
 2673 0802 2046     		mov	r0, r4
ARM GAS  /tmp/ccTQOGyd.s 			page 48


 2674              	.LVL310:
 2675 0804 FFF7FEFF 		bl	conf_general_get_default_app_configuration
 2676              	.LVL311:
 2677              	.L126:
 2678              		.loc 1 629 0
 2679 0808 4046     		mov	r0, r8
 2680 080a 2146     		mov	r1, r4
 2681 080c FFF7FEFF 		bl	commands_send_appconf
 2682              	.LVL312:
 2683              		.loc 1 630 0
 2684 0810 7EE4     		b	.L82
 2685              	.L221:
 2686 0812 00BF     		.align	2
 2687              	.L220:
 2688 0814 00000000 		.word	.LANCHOR14
 2689 0818 00000000 		.word	.LANCHOR8
 2690 081c 00247449 		.word	1232348160
 2691              	.LVL313:
 2692              	.L100:
 2693              		.loc 1 535 0
 2694 0820 FFF7FEFF 		bl	app_get_configuration
 2695              	.LVL314:
 2696 0824 C822     		movs	r2, #200
 2697 0826 0146     		mov	r1, r0
 2698 0828 04A8     		add	r0, sp, #16
 2699              		.loc 1 538 0
 2700 082a 0125     		movs	r5, #1
 2701              	.LVL315:
 2702              		.loc 1 535 0
 2703 082c FFF7FEFF 		bl	memcpy
 2704              	.LVL316:
 2705              		.loc 1 538 0
 2706 0830 7B78     		ldrb	r3, [r7, #1]	@ zero_extendqisi2
 2707 0832 8DF81030 		strb	r3, [sp, #16]
 2708              		.loc 1 539 0
 2709 0836 02A9     		add	r1, sp, #8
 2710 0838 2046     		mov	r0, r4
 2711              		.loc 1 538 0
 2712 083a 0295     		str	r5, [sp, #8]
 2713              		.loc 1 539 0
 2714 083c FFF7FEFF 		bl	buffer_get_uint32
 2715              	.LVL317:
 2716              		.loc 1 540 0
 2717 0840 02A9     		add	r1, sp, #8
 2718              		.loc 1 539 0
 2719 0842 0590     		str	r0, [sp, #20]
 2720              		.loc 1 540 0
 2721 0844 2046     		mov	r0, r4
 2722 0846 FFF7FEFF 		bl	buffer_get_float32_auto
 2723              	.LVL318:
 2724              		.loc 1 541 0
 2725 084a 029B     		ldr	r3, [sp, #8]
 2726 084c E25C     		ldrb	r2, [r4, r3]	@ zero_extendqisi2
 2727              		.loc 1 540 0
 2728 084e 8DED060A 		fsts	s0, [sp, #24]
 2729              		.loc 1 541 0
 2730 0852 0032     		adds	r2, r2, #0
ARM GAS  /tmp/ccTQOGyd.s 			page 49


 2731 0854 18BF     		it	ne
 2732 0856 0122     		movne	r2, #1
 2733 0858 2B44     		add	r3, r3, r5
 2734              		.loc 1 542 0
 2735 085a 02A9     		add	r1, sp, #8
 2736 085c 2046     		mov	r0, r4
 2737              		.loc 1 541 0
 2738 085e 8DF81C20 		strb	r2, [sp, #28]
 2739 0862 0293     		str	r3, [sp, #8]
 2740              		.loc 1 542 0
 2741 0864 FFF7FEFF 		bl	buffer_get_uint16
 2742              	.LVL319:
 2743              		.loc 1 543 0
 2744 0868 029B     		ldr	r3, [sp, #8]
 2745              		.loc 1 542 0
 2746 086a 0890     		str	r0, [sp, #32]
 2747              		.loc 1 543 0
 2748 086c 5919     		adds	r1, r3, r5
 2749              		.loc 1 545 0
 2750 086e 9A1C     		adds	r2, r3, #2
 2751 0870 615C     		ldrb	r1, [r4, r1]	@ zero_extendqisi2
 2752              		.loc 1 547 0
 2753 0872 A65C     		ldrb	r6, [r4, r2]	@ zero_extendqisi2
 2754              		.loc 1 543 0
 2755 0874 E25C     		ldrb	r2, [r4, r3]	@ zero_extendqisi2
 2756              		.loc 1 545 0
 2757 0876 8DF82510 		strb	r1, [sp, #37]
 2758              		.loc 1 547 0
 2759 087a 0333     		adds	r3, r3, #3
 2760              		.loc 1 548 0
 2761 087c 2046     		mov	r0, r4
 2762 087e 02A9     		add	r1, sp, #8
 2763              		.loc 1 543 0
 2764 0880 8DF82420 		strb	r2, [sp, #36]
 2765              		.loc 1 547 0
 2766 0884 0293     		str	r3, [sp, #8]
 2767 0886 8DF82860 		strb	r6, [sp, #40]
 2768              		.loc 1 548 0
 2769 088a FFF7FEFF 		bl	buffer_get_float32_auto
 2770              	.LVL320:
 2771              		.loc 1 549 0
 2772 088e 2046     		mov	r0, r4
 2773 0890 02A9     		add	r1, sp, #8
 2774              		.loc 1 548 0
 2775 0892 8DED0B0A 		fsts	s0, [sp, #44]
 2776              		.loc 1 549 0
 2777 0896 FFF7FEFF 		bl	buffer_get_float32_auto
 2778              	.LVL321:
 2779              		.loc 1 550 0
 2780 089a 2046     		mov	r0, r4
 2781 089c 02A9     		add	r1, sp, #8
 2782              		.loc 1 549 0
 2783 089e 8DED0C0A 		fsts	s0, [sp, #48]
 2784              		.loc 1 550 0
 2785 08a2 FFF7FEFF 		bl	buffer_get_float32_auto
 2786              	.LVL322:
 2787              		.loc 1 551 0
ARM GAS  /tmp/ccTQOGyd.s 			page 50


 2788 08a6 2046     		mov	r0, r4
 2789 08a8 02A9     		add	r1, sp, #8
 2790              		.loc 1 550 0
 2791 08aa 8DED0D0A 		fsts	s0, [sp, #52]
 2792              		.loc 1 551 0
 2793 08ae FFF7FEFF 		bl	buffer_get_float32_auto
 2794              	.LVL323:
 2795              		.loc 1 552 0
 2796 08b2 2046     		mov	r0, r4
 2797 08b4 02A9     		add	r1, sp, #8
 2798              		.loc 1 551 0
 2799 08b6 8DED0E0A 		fsts	s0, [sp, #56]
 2800              		.loc 1 552 0
 2801 08ba FFF7FEFF 		bl	buffer_get_float32_auto
 2802              	.LVL324:
 2803              		.loc 1 553 0
 2804 08be 029B     		ldr	r3, [sp, #8]
 2805 08c0 5919     		adds	r1, r3, r5
 2806 08c2 E25C     		ldrb	r2, [r4, r3]	@ zero_extendqisi2
 2807              		.loc 1 554 0
 2808 08c4 665C     		ldrb	r6, [r4, r1]	@ zero_extendqisi2
 2809              		.loc 1 552 0
 2810 08c6 8DED0F0A 		fsts	s0, [sp, #60]
 2811              		.loc 1 553 0
 2812 08ca 0032     		adds	r2, r2, #0
 2813 08cc 18BF     		it	ne
 2814 08ce 0122     		movne	r2, #1
 2815              		.loc 1 554 0
 2816 08d0 0036     		adds	r6, r6, #0
 2817 08d2 18BF     		it	ne
 2818 08d4 0126     		movne	r6, #1
 2819 08d6 0233     		adds	r3, r3, #2
 2820              		.loc 1 555 0
 2821 08d8 2046     		mov	r0, r4
 2822 08da 02A9     		add	r1, sp, #8
 2823              		.loc 1 553 0
 2824 08dc 8DF84020 		strb	r2, [sp, #64]
 2825              		.loc 1 554 0
 2826 08e0 0293     		str	r3, [sp, #8]
 2827 08e2 8DF84160 		strb	r6, [sp, #65]
 2828              		.loc 1 555 0
 2829 08e6 FFF7FEFF 		bl	buffer_get_float32_auto
 2830              	.LVL325:
 2831              		.loc 1 556 0
 2832 08ea 2046     		mov	r0, r4
 2833 08ec 02A9     		add	r1, sp, #8
 2834              		.loc 1 555 0
 2835 08ee 8DED110A 		fsts	s0, [sp, #68]
 2836              		.loc 1 556 0
 2837 08f2 FFF7FEFF 		bl	buffer_get_float32_auto
 2838              	.LVL326:
 2839              		.loc 1 557 0
 2840 08f6 029B     		ldr	r3, [sp, #8]
 2841              		.loc 1 558 0
 2842 08f8 2046     		mov	r0, r4
 2843              		.loc 1 557 0
 2844 08fa 5A19     		adds	r2, r3, r5
ARM GAS  /tmp/ccTQOGyd.s 			page 51


 2845              		.loc 1 558 0
 2846 08fc 02A9     		add	r1, sp, #8
 2847              		.loc 1 557 0
 2848 08fe E35C     		ldrb	r3, [r4, r3]	@ zero_extendqisi2
 2849 0900 8DF84C30 		strb	r3, [sp, #76]
 2850 0904 0292     		str	r2, [sp, #8]
 2851              		.loc 1 556 0
 2852 0906 8DED120A 		fsts	s0, [sp, #72]
 2853              		.loc 1 558 0
 2854 090a FFF7FEFF 		bl	buffer_get_float32_auto
 2855              	.LVL327:
 2856              		.loc 1 559 0
 2857 090e 2046     		mov	r0, r4
 2858 0910 02A9     		add	r1, sp, #8
 2859              		.loc 1 558 0
 2860 0912 8DED140A 		fsts	s0, [sp, #80]
 2861              		.loc 1 559 0
 2862 0916 FFF7FEFF 		bl	buffer_get_float32_auto
 2863              	.LVL328:
 2864              		.loc 1 560 0
 2865 091a 029B     		ldr	r3, [sp, #8]
 2866 091c 5919     		adds	r1, r3, r5
 2867 091e E25C     		ldrb	r2, [r4, r3]	@ zero_extendqisi2
 2868              		.loc 1 561 0
 2869 0920 665C     		ldrb	r6, [r4, r1]	@ zero_extendqisi2
 2870              		.loc 1 559 0
 2871 0922 8DED150A 		fsts	s0, [sp, #84]
 2872              		.loc 1 560 0
 2873 0926 0032     		adds	r2, r2, #0
 2874 0928 18BF     		it	ne
 2875 092a 0122     		movne	r2, #1
 2876              		.loc 1 561 0
 2877 092c 0036     		adds	r6, r6, #0
 2878 092e 18BF     		it	ne
 2879 0930 0126     		movne	r6, #1
 2880 0932 0233     		adds	r3, r3, #2
 2881              		.loc 1 562 0
 2882 0934 2046     		mov	r0, r4
 2883 0936 02A9     		add	r1, sp, #8
 2884              		.loc 1 561 0
 2885 0938 8DF85960 		strb	r6, [sp, #89]
 2886              		.loc 1 560 0
 2887 093c 8DF85820 		strb	r2, [sp, #88]
 2888              		.loc 1 561 0
 2889 0940 0293     		str	r3, [sp, #8]
 2890              		.loc 1 562 0
 2891 0942 FFF7FEFF 		bl	buffer_get_float32_auto
 2892              	.LVL329:
 2893              		.loc 1 564 0
 2894 0946 029B     		ldr	r3, [sp, #8]
 2895              		.loc 1 565 0
 2896 0948 2046     		mov	r0, r4
 2897              		.loc 1 564 0
 2898 094a 5A19     		adds	r2, r3, r5
 2899              		.loc 1 565 0
 2900 094c 02A9     		add	r1, sp, #8
 2901              		.loc 1 564 0
ARM GAS  /tmp/ccTQOGyd.s 			page 52


 2902 094e E35C     		ldrb	r3, [r4, r3]	@ zero_extendqisi2
 2903 0950 8DF86030 		strb	r3, [sp, #96]
 2904 0954 0292     		str	r2, [sp, #8]
 2905              		.loc 1 562 0
 2906 0956 8DED170A 		fsts	s0, [sp, #92]
 2907              		.loc 1 565 0
 2908 095a FFF7FEFF 		bl	buffer_get_float32_auto
 2909              	.LVL330:
 2910              		.loc 1 566 0
 2911 095e 2046     		mov	r0, r4
 2912 0960 02A9     		add	r1, sp, #8
 2913              		.loc 1 565 0
 2914 0962 8DED190A 		fsts	s0, [sp, #100]
 2915              		.loc 1 566 0
 2916 0966 FFF7FEFF 		bl	buffer_get_float32_auto
 2917              	.LVL331:
 2918              		.loc 1 567 0
 2919 096a 2046     		mov	r0, r4
 2920 096c 02A9     		add	r1, sp, #8
 2921              		.loc 1 566 0
 2922 096e 8DED1A0A 		fsts	s0, [sp, #104]
 2923              		.loc 1 567 0
 2924 0972 FFF7FEFF 		bl	buffer_get_float32_auto
 2925              	.LVL332:
 2926              		.loc 1 568 0
 2927 0976 2046     		mov	r0, r4
 2928 0978 02A9     		add	r1, sp, #8
 2929              		.loc 1 567 0
 2930 097a 8DED1B0A 		fsts	s0, [sp, #108]
 2931              		.loc 1 568 0
 2932 097e FFF7FEFF 		bl	buffer_get_float32_auto
 2933              	.LVL333:
 2934              		.loc 1 569 0
 2935 0982 2046     		mov	r0, r4
 2936 0984 02A9     		add	r1, sp, #8
 2937              		.loc 1 568 0
 2938 0986 8DED1C0A 		fsts	s0, [sp, #112]
 2939              		.loc 1 569 0
 2940 098a FFF7FEFF 		bl	buffer_get_float32_auto
 2941              	.LVL334:
 2942              		.loc 1 570 0
 2943 098e 2046     		mov	r0, r4
 2944 0990 02A9     		add	r1, sp, #8
 2945              		.loc 1 569 0
 2946 0992 8DED1D0A 		fsts	s0, [sp, #116]
 2947              		.loc 1 570 0
 2948 0996 FFF7FEFF 		bl	buffer_get_float32_auto
 2949              	.LVL335:
 2950              		.loc 1 571 0
 2951 099a 029B     		ldr	r3, [sp, #8]
 2952 099c 5F19     		adds	r7, r3, r5
 2953              		.loc 1 572 0
 2954 099e 9E1C     		adds	r6, r3, #2
 2955 09a0 14F80780 		ldrb	r8, [r4, r7]	@ zero_extendqisi2
 2956              	.LVL336:
 2957              		.loc 1 573 0
 2958 09a4 14F806C0 		ldrb	ip, [r4, r6]	@ zero_extendqisi2
ARM GAS  /tmp/ccTQOGyd.s 			page 53


 2959 09a8 D81C     		adds	r0, r3, #3
 2960              		.loc 1 574 0
 2961 09aa 191D     		adds	r1, r3, #4
 2962 09ac 14F800E0 		ldrb	lr, [r4, r0]	@ zero_extendqisi2
 2963              		.loc 1 575 0
 2964 09b0 675C     		ldrb	r7, [r4, r1]	@ zero_extendqisi2
 2965              		.loc 1 572 0
 2966 09b2 18F10008 		adds	r8, r8, #0
 2967              		.loc 1 575 0
 2968 09b6 03F10502 		add	r2, r3, #5
 2969              		.loc 1 572 0
 2970 09ba 18BF     		it	ne
 2971 09bc 4FF00108 		movne	r8, #1
 2972              		.loc 1 573 0
 2973 09c0 1CF1000C 		adds	ip, ip, #0
 2974 09c4 18BF     		it	ne
 2975 09c6 4FF0010C 		movne	ip, #1
 2976              		.loc 1 576 0
 2977 09ca A65C     		ldrb	r6, [r4, r2]	@ zero_extendqisi2
 2978              		.loc 1 571 0
 2979 09cc E25C     		ldrb	r2, [r4, r3]	@ zero_extendqisi2
 2980              		.loc 1 573 0
 2981 09ce 8DF87EC0 		strb	ip, [sp, #126]
 2982              		.loc 1 574 0
 2983 09d2 1EF1000E 		adds	lr, lr, #0
 2984 09d6 18BF     		it	ne
 2985 09d8 4FF0010E 		movne	lr, #1
 2986              		.loc 1 575 0
 2987 09dc 0037     		adds	r7, r7, #0
 2988 09de 18BF     		it	ne
 2989 09e0 0127     		movne	r7, #1
 2990              		.loc 1 576 0
 2991 09e2 0036     		adds	r6, r6, #0
 2992 09e4 18BF     		it	ne
 2993 09e6 0126     		movne	r6, #1
 2994              		.loc 1 571 0
 2995 09e8 0032     		adds	r2, r2, #0
 2996 09ea 18BF     		it	ne
 2997 09ec 0122     		movne	r2, #1
 2998              		.loc 1 576 0
 2999 09ee 0633     		adds	r3, r3, #6
 3000              		.loc 1 577 0
 3001 09f0 2046     		mov	r0, r4
 3002 09f2 02A9     		add	r1, sp, #8
 3003              		.loc 1 574 0
 3004 09f4 8DF87FE0 		strb	lr, [sp, #127]
 3005              		.loc 1 571 0
 3006 09f8 8DF87C20 		strb	r2, [sp, #124]
 3007              		.loc 1 576 0
 3008 09fc 0293     		str	r3, [sp, #8]
 3009              		.loc 1 572 0
 3010 09fe 8DF87D80 		strb	r8, [sp, #125]
 3011              		.loc 1 575 0
 3012 0a02 8DF88070 		strb	r7, [sp, #128]
 3013              		.loc 1 576 0
 3014 0a06 8DF88160 		strb	r6, [sp, #129]
 3015              		.loc 1 570 0
ARM GAS  /tmp/ccTQOGyd.s 			page 54


 3016 0a0a 8DED1E0A 		fsts	s0, [sp, #120]
 3017              		.loc 1 577 0
 3018 0a0e FFF7FEFF 		bl	buffer_get_float32_auto
 3019              	.LVL337:
 3020              		.loc 1 578 0
 3021 0a12 2046     		mov	r0, r4
 3022 0a14 02A9     		add	r1, sp, #8
 3023              		.loc 1 577 0
 3024 0a16 8DED210A 		fsts	s0, [sp, #132]
 3025              		.loc 1 578 0
 3026 0a1a FFF7FEFF 		bl	buffer_get_float32_auto
 3027              	.LVL338:
 3028              		.loc 1 579 0
 3029 0a1e 029B     		ldr	r3, [sp, #8]
 3030              		.loc 1 580 0
 3031 0a20 2046     		mov	r0, r4
 3032              		.loc 1 579 0
 3033 0a22 5A19     		adds	r2, r3, r5
 3034              		.loc 1 580 0
 3035 0a24 02A9     		add	r1, sp, #8
 3036              		.loc 1 579 0
 3037 0a26 E35C     		ldrb	r3, [r4, r3]	@ zero_extendqisi2
 3038 0a28 8DF88C30 		strb	r3, [sp, #140]
 3039 0a2c 0292     		str	r2, [sp, #8]
 3040              		.loc 1 578 0
 3041 0a2e 8DED220A 		fsts	s0, [sp, #136]
 3042              		.loc 1 580 0
 3043 0a32 FFF7FEFF 		bl	buffer_get_float32_auto
 3044              	.LVL339:
 3045              		.loc 1 581 0
 3046 0a36 2046     		mov	r0, r4
 3047 0a38 02A9     		add	r1, sp, #8
 3048              		.loc 1 580 0
 3049 0a3a 8DED240A 		fsts	s0, [sp, #144]
 3050              		.loc 1 581 0
 3051 0a3e FFF7FEFF 		bl	buffer_get_float32_auto
 3052              	.LVL340:
 3053              		.loc 1 582 0
 3054 0a42 029B     		ldr	r3, [sp, #8]
 3055 0a44 5919     		adds	r1, r3, r5
 3056 0a46 E25C     		ldrb	r2, [r4, r3]	@ zero_extendqisi2
 3057              		.loc 1 583 0
 3058 0a48 665C     		ldrb	r6, [r4, r1]	@ zero_extendqisi2
 3059              		.loc 1 581 0
 3060 0a4a 8DED250A 		fsts	s0, [sp, #148]
 3061              		.loc 1 582 0
 3062 0a4e 0032     		adds	r2, r2, #0
 3063 0a50 18BF     		it	ne
 3064 0a52 0122     		movne	r2, #1
 3065              		.loc 1 583 0
 3066 0a54 0036     		adds	r6, r6, #0
 3067 0a56 18BF     		it	ne
 3068 0a58 0126     		movne	r6, #1
 3069 0a5a 0233     		adds	r3, r3, #2
 3070              		.loc 1 584 0
 3071 0a5c 2046     		mov	r0, r4
 3072 0a5e 02A9     		add	r1, sp, #8
ARM GAS  /tmp/ccTQOGyd.s 			page 55


 3073              		.loc 1 582 0
 3074 0a60 8DF89820 		strb	r2, [sp, #152]
 3075              		.loc 1 583 0
 3076 0a64 0293     		str	r3, [sp, #8]
 3077 0a66 8DF89960 		strb	r6, [sp, #153]
 3078              		.loc 1 584 0
 3079 0a6a FFF7FEFF 		bl	buffer_get_float32_auto
 3080              	.LVL341:
 3081              		.loc 1 585 0
 3082 0a6e 02A9     		add	r1, sp, #8
 3083 0a70 2046     		mov	r0, r4
 3084              		.loc 1 584 0
 3085 0a72 8DED270A 		fsts	s0, [sp, #156]
 3086              		.loc 1 585 0
 3087 0a76 FFF7FEFF 		bl	buffer_get_uint16
 3088              	.LVL342:
 3089              		.loc 1 587 0
 3090 0a7a 02A9     		add	r1, sp, #8
 3091              		.loc 1 585 0
 3092 0a7c 2890     		str	r0, [sp, #160]
 3093              		.loc 1 587 0
 3094 0a7e 2046     		mov	r0, r4
 3095 0a80 FFF7FEFF 		bl	buffer_get_uint32
 3096              	.LVL343:
 3097              		.loc 1 589 0
 3098 0a84 029B     		ldr	r3, [sp, #8]
 3099              		.loc 1 587 0
 3100 0a86 2990     		str	r0, [sp, #164]
 3101              		.loc 1 589 0
 3102 0a88 5A19     		adds	r2, r3, r5
 3103              		.loc 1 590 0
 3104 0a8a 2046     		mov	r0, r4
 3105              		.loc 1 589 0
 3106 0a8c E35C     		ldrb	r3, [r4, r3]	@ zero_extendqisi2
 3107 0a8e 8DF8A830 		strb	r3, [sp, #168]
 3108              		.loc 1 590 0
 3109 0a92 02A9     		add	r1, sp, #8
 3110              		.loc 1 589 0
 3111 0a94 0292     		str	r2, [sp, #8]
 3112              		.loc 1 590 0
 3113 0a96 FFF7FEFF 		bl	buffer_get_float32_auto
 3114              	.LVL344:
 3115              		.loc 1 591 0
 3116 0a9a 2046     		mov	r0, r4
 3117 0a9c 02A9     		add	r1, sp, #8
 3118              		.loc 1 590 0
 3119 0a9e 8DED2B0A 		fsts	s0, [sp, #172]
 3120              		.loc 1 591 0
 3121 0aa2 FFF7FEFF 		bl	buffer_get_float32_auto
 3122              	.LVL345:
 3123              		.loc 1 592 0
 3124 0aa6 2046     		mov	r0, r4
 3125 0aa8 02A9     		add	r1, sp, #8
 3126              		.loc 1 591 0
 3127 0aaa 8DED2C0A 		fsts	s0, [sp, #176]
 3128              		.loc 1 592 0
 3129 0aae FFF7FEFF 		bl	buffer_get_float32_auto
ARM GAS  /tmp/ccTQOGyd.s 			page 56


 3130              	.LVL346:
 3131              		.loc 1 593 0
 3132 0ab2 2046     		mov	r0, r4
 3133 0ab4 02A9     		add	r1, sp, #8
 3134              		.loc 1 592 0
 3135 0ab6 8DED2D0A 		fsts	s0, [sp, #180]
 3136              		.loc 1 593 0
 3137 0aba FFF7FEFF 		bl	buffer_get_float32_auto
 3138              	.LVL347:
 3139              		.loc 1 594 0
 3140 0abe 2046     		mov	r0, r4
 3141 0ac0 02A9     		add	r1, sp, #8
 3142              		.loc 1 593 0
 3143 0ac2 8DED2E0A 		fsts	s0, [sp, #184]
 3144              		.loc 1 594 0
 3145 0ac6 FFF7FEFF 		bl	buffer_get_float32_auto
 3146              	.LVL348:
 3147              		.loc 1 595 0
 3148 0aca 2046     		mov	r0, r4
 3149 0acc 02A9     		add	r1, sp, #8
 3150              		.loc 1 594 0
 3151 0ace 8DED2F0A 		fsts	s0, [sp, #188]
 3152              		.loc 1 595 0
 3153 0ad2 FFF7FEFF 		bl	buffer_get_float32_auto
 3154              	.LVL349:
 3155              		.loc 1 596 0
 3156 0ad6 029B     		ldr	r3, [sp, #8]
 3157 0ad8 5919     		adds	r1, r3, r5
 3158              		.loc 1 597 0
 3159 0ada 9A1C     		adds	r2, r3, #2
 3160 0adc 665C     		ldrb	r6, [r4, r1]	@ zero_extendqisi2
 3161              		.loc 1 598 0
 3162 0ade A25C     		ldrb	r2, [r4, r2]	@ zero_extendqisi2
 3163              		.loc 1 596 0
 3164 0ae0 E15C     		ldrb	r1, [r4, r3]	@ zero_extendqisi2
 3165 0ae2 8DF8C410 		strb	r1, [sp, #196]
 3166              		.loc 1 597 0
 3167 0ae6 0036     		adds	r6, r6, #0
 3168 0ae8 18BF     		it	ne
 3169 0aea 0126     		movne	r6, #1
 3170              		.loc 1 598 0
 3171 0aec 0032     		adds	r2, r2, #0
 3172 0aee 18BF     		it	ne
 3173 0af0 0122     		movne	r2, #1
 3174 0af2 0333     		adds	r3, r3, #3
 3175              		.loc 1 599 0
 3176 0af4 2046     		mov	r0, r4
 3177 0af6 02A9     		add	r1, sp, #8
 3178              		.loc 1 597 0
 3179 0af8 8DF8C560 		strb	r6, [sp, #197]
 3180              		.loc 1 598 0
 3181 0afc 8DF8C620 		strb	r2, [sp, #198]
 3182 0b00 0293     		str	r3, [sp, #8]
 3183              		.loc 1 595 0
 3184 0b02 8DED300A 		fsts	s0, [sp, #192]
 3185              		.loc 1 599 0
 3186 0b06 FFF7FEFF 		bl	buffer_get_float32_auto
ARM GAS  /tmp/ccTQOGyd.s 			page 57


 3187              	.LVL350:
 3188              		.loc 1 601 0
 3189 0b0a 029B     		ldr	r3, [sp, #8]
 3190              		.loc 1 599 0
 3191 0b0c 8DED320A 		fsts	s0, [sp, #200]
 3192              		.loc 1 601 0
 3193 0b10 03EB050C 		add	ip, r3, r5
 3194              		.loc 1 602 0
 3195 0b14 03F1020E 		add	lr, r3, #2
 3196              		.loc 1 603 0
 3197 0b18 DF1C     		adds	r7, r3, #3
 3198              		.loc 1 604 0
 3199 0b1a 1E1D     		adds	r6, r3, #4
 3200              		.loc 1 605 0
 3201 0b1c 581D     		adds	r0, r3, #5
 3202              		.loc 1 609 0
 3203 0b1e E118     		adds	r1, r4, r3
 3204              		.loc 1 606 0
 3205 0b20 9A1D     		adds	r2, r3, #6
 3206              		.loc 1 602 0
 3207 0b22 14F80C80 		ldrb	r8, [r4, ip]	@ zero_extendqisi2
 3208              		.loc 1 609 0
 3209 0b26 497A     		ldrb	r1, [r1, #9]	@ zero_extendqisi2
 3210              		.loc 1 603 0
 3211 0b28 14F80EC0 		ldrb	ip, [r4, lr]	@ zero_extendqisi2
 3212              		.loc 1 604 0
 3213 0b2c 14F807E0 		ldrb	lr, [r4, r7]	@ zero_extendqisi2
 3214              		.loc 1 605 0
 3215 0b30 A75D     		ldrb	r7, [r4, r6]	@ zero_extendqisi2
 3216              		.loc 1 606 0
 3217 0b32 265C     		ldrb	r6, [r4, r0]	@ zero_extendqisi2
 3218              		.loc 1 601 0
 3219 0b34 E05C     		ldrb	r0, [r4, r3]	@ zero_extendqisi2
 3220 0b36 8DF8CC00 		strb	r0, [sp, #204]
 3221              		.loc 1 607 0
 3222 0b3a 1444     		add	r4, r4, r2
 3223              	.LVL351:
 3224              		.loc 1 603 0
 3225 0b3c 8DF8CEC0 		strb	ip, [sp, #206]
 3226              		.loc 1 604 0
 3227 0b40 8DF8CFE0 		strb	lr, [sp, #207]
 3228              		.loc 1 606 0
 3229 0b44 0292     		str	r2, [sp, #8]
 3230              		.loc 1 602 0
 3231 0b46 8DF8CD80 		strb	r8, [sp, #205]
 3232              		.loc 1 605 0
 3233 0b4a 8DF8D070 		strb	r7, [sp, #208]
 3234              		.loc 1 606 0
 3235 0b4e 8DF8D160 		strb	r6, [sp, #209]
 3236              		.loc 1 609 0
 3237 0b52 0031     		adds	r1, r1, #0
 3238              		.loc 1 607 0
 3239 0b54 A078     		ldrb	r0, [r4, #2]	@ zero_extendqisi2
 3240 0b56 2288     		ldrh	r2, [r4]	@ unaligned
 3241 0b58 8DF8D400 		strb	r0, [sp, #212]
 3242              		.loc 1 609 0
 3243 0b5c 03F10A03 		add	r3, r3, #10
ARM GAS  /tmp/ccTQOGyd.s 			page 58


 3244 0b60 18BF     		it	ne
 3245 0b62 0121     		movne	r1, #1
 3246              		.loc 1 611 0
 3247 0b64 04A8     		add	r0, sp, #16
 3248              		.loc 1 607 0
 3249 0b66 ADF8D220 		strh	r2, [sp, #210]	@ unaligned
 3250              		.loc 1 609 0
 3251 0b6a 0293     		str	r3, [sp, #8]
 3252 0b6c 8DF8D510 		strb	r1, [sp, #213]
 3253              		.loc 1 611 0
 3254 0b70 FFF7FEFF 		bl	conf_general_store_app_configuration
 3255              	.LVL352:
 3256              		.loc 1 612 0
 3257 0b74 04A8     		add	r0, sp, #16
 3258 0b76 FFF7FEFF 		bl	app_set_configuration
 3259              	.LVL353:
 3260              		.loc 1 613 0
 3261 0b7a 0598     		ldr	r0, [sp, #20]
 3262 0b7c 9DED060A 		flds	s0, [sp, #24]
 3263 0b80 FFF7FEFF 		bl	timeout_configure
 3264              	.LVL354:
 3265              		.loc 1 614 0
 3266 0b84 4FF4FA60 		mov	r0, #2000
 3267 0b88 FFF7FEFF 		bl	chThdSleep
 3268              	.LVL355:
 3269              	.LBB153:
 3270              	.LBB154:
 3271              		.loc 1 91 0
 3272 0b8c 174B     		ldr	r3, .L222
 3273              	.LBE154:
 3274              	.LBE153:
 3275              		.loc 1 617 0
 3276 0b8e 1848     		ldr	r0, .L222+4
 3277              	.LBB157:
 3278              	.LBB155:
 3279              		.loc 1 91 0
 3280 0b90 1B68     		ldr	r3, [r3]
 3281              	.LBE155:
 3282              	.LBE157:
 3283              		.loc 1 617 0
 3284 0b92 0295     		str	r5, [sp, #8]
 3285 0b94 1022     		movs	r2, #16
 3286 0b96 0270     		strb	r2, [r0]
 3287              	.LVL356:
 3288              	.LBB158:
 3289              	.LBB156:
 3290              		.loc 1 91 0
 3291 0b98 002B     		cmp	r3, #0
 3292 0b9a 7FF49DAD 		bne	.L202
 3293 0b9e FFF7B7BA 		b	.L82
 3294              	.LVL357:
 3295              	.L103:
 3296              	.LBE156:
 3297              	.LBE158:
 3298              		.loc 1 645 0
 3299 0ba2 0023     		movs	r3, #0
 3300 0ba4 6355     		strb	r3, [r4, r5]
ARM GAS  /tmp/ccTQOGyd.s 			page 59


 3301              	.LVL358:
 3302              		.loc 1 646 0
 3303 0ba6 2046     		mov	r0, r4
 3304 0ba8 FFF7FEFF 		bl	terminal_process_string
 3305              	.LVL359:
 3306              		.loc 1 647 0
 3307 0bac FFF7B0BA 		b	.L82
 3308              	.LVL360:
 3309              	.L102:
 3310              	.LBB159:
 3311              		.loc 1 638 0
 3312 0bb0 36A9     		add	r1, sp, #216
 3313 0bb2 0123     		movs	r3, #1
 3314 0bb4 41F8D03D 		str	r3, [r1, #-208]!
 3315              		.loc 1 639 0
 3316 0bb8 2046     		mov	r0, r4
 3317              	.LVL361:
 3318              		.loc 1 638 0
 3319 0bba 7D78     		ldrb	r5, [r7, #1]	@ zero_extendqisi2
 3320              	.LVL362:
 3321              		.loc 1 639 0
 3322 0bbc FFF7FEFF 		bl	buffer_get_uint16
 3323              	.LVL363:
 3324              		.loc 1 640 0
 3325 0bc0 029B     		ldr	r3, [sp, #8]
 3326              		.loc 1 639 0
 3327 0bc2 0146     		mov	r1, r0
 3328              	.LVL364:
 3329              		.loc 1 641 0
 3330 0bc4 E25C     		ldrb	r2, [r4, r3]	@ zero_extendqisi2
 3331 0bc6 2846     		mov	r0, r5
 3332              	.LVL365:
 3333              		.loc 1 640 0
 3334 0bc8 0133     		adds	r3, r3, #1
 3335 0bca 0293     		str	r3, [sp, #8]
 3336              	.LVL366:
 3337              		.loc 1 641 0
 3338 0bcc FFF7FEFF 		bl	mc_interface_sample_print_data
 3339              	.LVL367:
 3340              	.LBE159:
 3341              		.loc 1 642 0
 3342 0bd0 FFF79EBA 		b	.L82
 3343              	.LVL368:
 3344              	.L96:
 3345              		.loc 1 231 0
 3346 0bd4 2046     		mov	r0, r4
 3347              	.LVL369:
 3348 0bd6 02A9     		add	r1, sp, #8
 3349 0bd8 9FED060A 		flds	s0, .L222+8
 3350 0bdc FFF7FEFF 		bl	buffer_get_float32
 3351              	.LVL370:
 3352 0be0 FFF7FEFF 		bl	mc_interface_set_handbrake
 3353              	.LVL371:
 3354              		.loc 1 232 0
 3355 0be4 FFF7FEFF 		bl	timeout_reset
 3356              	.LVL372:
 3357              		.loc 1 233 0
ARM GAS  /tmp/ccTQOGyd.s 			page 60


 3358 0be8 FFF792BA 		b	.L82
 3359              	.L223:
 3360              		.align	2
 3361              	.L222:
 3362 0bec 00000000 		.word	.LANCHOR10
 3363 0bf0 00000000 		.word	.LANCHOR8
 3364 0bf4 00007A44 		.word	1148846080
 3365              	.LVL373:
 3366              	.L99:
 3367              		.loc 1 420 0
 3368 0bf8 B8F10E0F 		cmp	r8, #14
 3369 0bfc 00F03085 		beq	.L215
 3370              		.loc 1 423 0
 3371 0c00 BE48     		ldr	r0, .L224
 3372              	.LVL374:
 3373 0c02 FFF7FEFF 		bl	conf_general_get_default_mc_configuration
 3374              	.LVL375:
 3375              	.L124:
 3376              		.loc 1 432 0
 3377 0c06 36AE     		add	r6, sp, #216
 3378              		.loc 1 429 0
 3379 0c08 BC4D     		ldr	r5, .L224
 3380              	.LVL376:
 3381              		.loc 1 427 0
 3382 0c0a BD4C     		ldr	r4, .L224+4
 3383              	.LVL377:
 3384              		.loc 1 429 0
 3385 0c0c 2978     		ldrb	r1, [r5]	@ zero_extendqisi2
 3386              		.loc 1 431 0
 3387 0c0e AA78     		ldrb	r2, [r5, #2]	@ zero_extendqisi2
 3388              		.loc 1 430 0
 3389 0c10 6F78     		ldrb	r7, [r5, #1]	@ zero_extendqisi2
 3390              	.LVL378:
 3391              		.loc 1 434 0
 3392 0c12 95ED010A 		flds	s0, [r5, #4]
 3393              		.loc 1 429 0
 3394 0c16 6170     		strb	r1, [r4, #1]
 3395              		.loc 1 432 0
 3396 0c18 0523     		movs	r3, #5
 3397 0c1a 46F8D03D 		str	r3, [r6, #-208]!
 3398              		.loc 1 434 0
 3399 0c1e 2046     		mov	r0, r4
 3400              		.loc 1 432 0
 3401 0c20 EB78     		ldrb	r3, [r5, #3]	@ zero_extendqisi2
 3402              		.loc 1 431 0
 3403 0c22 E270     		strb	r2, [r4, #3]
 3404              		.loc 1 434 0
 3405 0c24 3146     		mov	r1, r6
 3406              		.loc 1 432 0
 3407 0c26 2371     		strb	r3, [r4, #4]
 3408              		.loc 1 430 0
 3409 0c28 A770     		strb	r7, [r4, #2]
 3410              		.loc 1 427 0
 3411 0c2a 84F80080 		strb	r8, [r4]
 3412              		.loc 1 434 0
 3413 0c2e FFF7FEFF 		bl	buffer_append_float32_auto
 3414              	.LVL379:
ARM GAS  /tmp/ccTQOGyd.s 			page 61


 3415              		.loc 1 435 0
 3416 0c32 2046     		mov	r0, r4
 3417 0c34 3146     		mov	r1, r6
 3418 0c36 95ED020A 		flds	s0, [r5, #8]
 3419 0c3a FFF7FEFF 		bl	buffer_append_float32_auto
 3420              	.LVL380:
 3421              		.loc 1 436 0
 3422 0c3e 2046     		mov	r0, r4
 3423 0c40 3146     		mov	r1, r6
 3424 0c42 95ED030A 		flds	s0, [r5, #12]
 3425 0c46 FFF7FEFF 		bl	buffer_append_float32_auto
 3426              	.LVL381:
 3427              		.loc 1 437 0
 3428 0c4a 2046     		mov	r0, r4
 3429 0c4c 3146     		mov	r1, r6
 3430 0c4e 95ED040A 		flds	s0, [r5, #16]
 3431 0c52 FFF7FEFF 		bl	buffer_append_float32_auto
 3432              	.LVL382:
 3433              		.loc 1 438 0
 3434 0c56 2046     		mov	r0, r4
 3435 0c58 3146     		mov	r1, r6
 3436 0c5a 95ED050A 		flds	s0, [r5, #20]
 3437 0c5e FFF7FEFF 		bl	buffer_append_float32_auto
 3438              	.LVL383:
 3439              		.loc 1 439 0
 3440 0c62 2046     		mov	r0, r4
 3441 0c64 3146     		mov	r1, r6
 3442 0c66 95ED060A 		flds	s0, [r5, #24]
 3443 0c6a FFF7FEFF 		bl	buffer_append_float32_auto
 3444              	.LVL384:
 3445              		.loc 1 440 0
 3446 0c6e 2046     		mov	r0, r4
 3447 0c70 3146     		mov	r1, r6
 3448 0c72 95ED070A 		flds	s0, [r5, #28]
 3449 0c76 FFF7FEFF 		bl	buffer_append_float32_auto
 3450              	.LVL385:
 3451              		.loc 1 441 0
 3452 0c7a 2046     		mov	r0, r4
 3453 0c7c 3146     		mov	r1, r6
 3454 0c7e 95ED080A 		flds	s0, [r5, #32]
 3455 0c82 FFF7FEFF 		bl	buffer_append_float32_auto
 3456              	.LVL386:
 3457              		.loc 1 442 0
 3458 0c86 2046     		mov	r0, r4
 3459 0c88 3146     		mov	r1, r6
 3460 0c8a 95ED090A 		flds	s0, [r5, #36]
 3461 0c8e FFF7FEFF 		bl	buffer_append_float32_auto
 3462              	.LVL387:
 3463              		.loc 1 443 0
 3464 0c92 2046     		mov	r0, r4
 3465 0c94 3146     		mov	r1, r6
 3466 0c96 95ED0A0A 		flds	s0, [r5, #40]
 3467 0c9a FFF7FEFF 		bl	buffer_append_float32_auto
 3468              	.LVL388:
 3469              		.loc 1 444 0
 3470 0c9e 2046     		mov	r0, r4
 3471 0ca0 3146     		mov	r1, r6
ARM GAS  /tmp/ccTQOGyd.s 			page 62


 3472 0ca2 95ED0B0A 		flds	s0, [r5, #44]
 3473 0ca6 FFF7FEFF 		bl	buffer_append_float32_auto
 3474              	.LVL389:
 3475              		.loc 1 445 0
 3476 0caa 2046     		mov	r0, r4
 3477 0cac 3146     		mov	r1, r6
 3478 0cae 95ED0C0A 		flds	s0, [r5, #48]
 3479 0cb2 FFF7FEFF 		bl	buffer_append_float32_auto
 3480              	.LVL390:
 3481              		.loc 1 446 0
 3482 0cb6 2046     		mov	r0, r4
 3483 0cb8 3146     		mov	r1, r6
 3484 0cba 95ED0D0A 		flds	s0, [r5, #52]
 3485 0cbe FFF7FEFF 		bl	buffer_append_float32_auto
 3486              	.LVL391:
 3487              		.loc 1 447 0
 3488 0cc2 2046     		mov	r0, r4
 3489 0cc4 3146     		mov	r1, r6
 3490 0cc6 95ED0E0A 		flds	s0, [r5, #56]
 3491 0cca FFF7FEFF 		bl	buffer_append_float32_auto
 3492              	.LVL392:
 3493              		.loc 1 448 0
 3494 0cce 029B     		ldr	r3, [sp, #8]
 3495 0cd0 95F83C20 		ldrb	r2, [r5, #60]	@ zero_extendqisi2
 3496 0cd4 E254     		strb	r2, [r4, r3]
 3497              		.loc 1 449 0
 3498 0cd6 95ED100A 		flds	s0, [r5, #64]
 3499              		.loc 1 448 0
 3500 0cda 0133     		adds	r3, r3, #1
 3501              		.loc 1 449 0
 3502 0cdc 3146     		mov	r1, r6
 3503 0cde 2046     		mov	r0, r4
 3504              		.loc 1 448 0
 3505 0ce0 0293     		str	r3, [sp, #8]
 3506              		.loc 1 449 0
 3507 0ce2 FFF7FEFF 		bl	buffer_append_float32_auto
 3508              	.LVL393:
 3509              		.loc 1 450 0
 3510 0ce6 2046     		mov	r0, r4
 3511 0ce8 3146     		mov	r1, r6
 3512 0cea 95ED110A 		flds	s0, [r5, #68]
 3513 0cee FFF7FEFF 		bl	buffer_append_float32_auto
 3514              	.LVL394:
 3515              		.loc 1 451 0
 3516 0cf2 2046     		mov	r0, r4
 3517 0cf4 3146     		mov	r1, r6
 3518 0cf6 95ED120A 		flds	s0, [r5, #72]
 3519 0cfa FFF7FEFF 		bl	buffer_append_float32_auto
 3520              	.LVL395:
 3521              		.loc 1 452 0
 3522 0cfe 2046     		mov	r0, r4
 3523 0d00 3146     		mov	r1, r6
 3524 0d02 95ED130A 		flds	s0, [r5, #76]
 3525 0d06 FFF7FEFF 		bl	buffer_append_float32_auto
 3526              	.LVL396:
 3527              		.loc 1 453 0
 3528 0d0a 2046     		mov	r0, r4
ARM GAS  /tmp/ccTQOGyd.s 			page 63


 3529 0d0c 3146     		mov	r1, r6
 3530 0d0e 95ED140A 		flds	s0, [r5, #80]
 3531 0d12 FFF7FEFF 		bl	buffer_append_float32_auto
 3532              	.LVL397:
 3533              		.loc 1 454 0
 3534 0d16 2046     		mov	r0, r4
 3535 0d18 3146     		mov	r1, r6
 3536 0d1a 95ED150A 		flds	s0, [r5, #84]
 3537 0d1e FFF7FEFF 		bl	buffer_append_float32_auto
 3538              	.LVL398:
 3539              		.loc 1 455 0
 3540 0d22 2046     		mov	r0, r4
 3541 0d24 3146     		mov	r1, r6
 3542 0d26 95ED160A 		flds	s0, [r5, #88]
 3543 0d2a FFF7FEFF 		bl	buffer_append_float32_auto
 3544              	.LVL399:
 3545              		.loc 1 456 0
 3546 0d2e 2046     		mov	r0, r4
 3547 0d30 3146     		mov	r1, r6
 3548 0d32 95ED170A 		flds	s0, [r5, #92]
 3549 0d36 FFF7FEFF 		bl	buffer_append_float32_auto
 3550              	.LVL400:
 3551              		.loc 1 457 0
 3552 0d3a 2046     		mov	r0, r4
 3553 0d3c 3146     		mov	r1, r6
 3554 0d3e 95ED180A 		flds	s0, [r5, #96]
 3555 0d42 FFF7FEFF 		bl	buffer_append_float32_auto
 3556              	.LVL401:
 3557              		.loc 1 459 0
 3558 0d46 2046     		mov	r0, r4
 3559 0d48 3146     		mov	r1, r6
 3560 0d4a 95ED1F0A 		flds	s0, [r5, #124]
 3561 0d4e FFF7FEFF 		bl	buffer_append_float32_auto
 3562              	.LVL402:
 3563              		.loc 1 460 0
 3564 0d52 2046     		mov	r0, r4
 3565 0d54 3146     		mov	r1, r6
 3566 0d56 95ED200A 		flds	s0, [r5, #128]
 3567 0d5a FFF7FEFF 		bl	buffer_append_float32_auto
 3568              	.LVL403:
 3569              		.loc 1 461 0
 3570 0d5e 2046     		mov	r0, r4
 3571 0d60 3146     		mov	r1, r6
 3572 0d62 95ED210A 		flds	s0, [r5, #132]
 3573 0d66 FFF7FEFF 		bl	buffer_append_float32_auto
 3574              	.LVL404:
 3575              		.loc 1 462 0
 3576 0d6a 2046     		mov	r0, r4
 3577 0d6c 3146     		mov	r1, r6
 3578 0d6e 95ED220A 		flds	s0, [r5, #136]
 3579 0d72 FFF7FEFF 		bl	buffer_append_float32_auto
 3580              	.LVL405:
 3581              		.loc 1 463 0
 3582 0d76 2046     		mov	r0, r4
 3583 0d78 3146     		mov	r1, r6
 3584 0d7a 95ED230A 		flds	s0, [r5, #140]
 3585 0d7e FFF7FEFF 		bl	buffer_append_float32_auto
ARM GAS  /tmp/ccTQOGyd.s 			page 64


 3586              	.LVL406:
 3587              		.loc 1 464 0
 3588 0d82 2046     		mov	r0, r4
 3589 0d84 3146     		mov	r1, r6
 3590 0d86 95ED240A 		flds	s0, [r5, #144]
 3591 0d8a FFF7FEFF 		bl	buffer_append_float32_auto
 3592              	.LVL407:
 3593              		.loc 1 465 0
 3594 0d8e 2046     		mov	r0, r4
 3595 0d90 3146     		mov	r1, r6
 3596 0d92 95ED250A 		flds	s0, [r5, #148]
 3597 0d96 FFF7FEFF 		bl	buffer_append_float32_auto
 3598              	.LVL408:
 3599              		.loc 1 467 0
 3600 0d9a 029A     		ldr	r2, [sp, #8]
 3601              		.loc 1 469 0
 3602 0d9c 95ED280A 		flds	s0, [r5, #160]
 3603              		.loc 1 467 0
 3604 0da0 05F19803 		add	r3, r5, #152
 3605 0da4 03CB     		ldmia	r3!, {r0, r1}
 3606 0da6 A318     		adds	r3, r4, r2
 3607 0da8 A050     		str	r0, [r4, r2]	@ unaligned
 3608              		.loc 1 468 0
 3609 0daa 0832     		adds	r2, r2, #8
 3610              		.loc 1 467 0
 3611 0dac 5960     		str	r1, [r3, #4]	@ unaligned
 3612              		.loc 1 469 0
 3613 0dae 2046     		mov	r0, r4
 3614 0db0 3146     		mov	r1, r6
 3615              		.loc 1 468 0
 3616 0db2 0292     		str	r2, [sp, #8]
 3617              		.loc 1 469 0
 3618 0db4 FFF7FEFF 		bl	buffer_append_float32_auto
 3619              	.LVL409:
 3620              		.loc 1 471 0
 3621 0db8 2046     		mov	r0, r4
 3622 0dba 3146     		mov	r1, r6
 3623 0dbc 95ED290A 		flds	s0, [r5, #164]
 3624 0dc0 FFF7FEFF 		bl	buffer_append_float32_auto
 3625              	.LVL410:
 3626              		.loc 1 472 0
 3627 0dc4 2046     		mov	r0, r4
 3628 0dc6 3146     		mov	r1, r6
 3629 0dc8 95ED2A0A 		flds	s0, [r5, #168]
 3630 0dcc FFF7FEFF 		bl	buffer_append_float32_auto
 3631              	.LVL411:
 3632              		.loc 1 473 0
 3633 0dd0 2046     		mov	r0, r4
 3634 0dd2 3146     		mov	r1, r6
 3635 0dd4 95ED2B0A 		flds	s0, [r5, #172]
 3636 0dd8 FFF7FEFF 		bl	buffer_append_float32_auto
 3637              	.LVL412:
 3638              		.loc 1 474 0
 3639 0ddc 2046     		mov	r0, r4
 3640 0dde 3146     		mov	r1, r6
 3641 0de0 95ED2C0A 		flds	s0, [r5, #176]
 3642 0de4 FFF7FEFF 		bl	buffer_append_float32_auto
ARM GAS  /tmp/ccTQOGyd.s 			page 65


 3643              	.LVL413:
 3644              		.loc 1 475 0
 3645 0de8 029B     		ldr	r3, [sp, #8]
 3646 0dea 95F8B820 		ldrb	r2, [r5, #184]	@ zero_extendqisi2
 3647 0dee E254     		strb	r2, [r4, r3]
 3648              		.loc 1 476 0
 3649 0df0 95ED2D0A 		flds	s0, [r5, #180]
 3650              		.loc 1 475 0
 3651 0df4 0133     		adds	r3, r3, #1
 3652              		.loc 1 476 0
 3653 0df6 3146     		mov	r1, r6
 3654 0df8 2046     		mov	r0, r4
 3655              		.loc 1 475 0
 3656 0dfa 0293     		str	r3, [sp, #8]
 3657              		.loc 1 476 0
 3658 0dfc FFF7FEFF 		bl	buffer_append_float32_auto
 3659              	.LVL414:
 3660              		.loc 1 477 0
 3661 0e00 2046     		mov	r0, r4
 3662 0e02 3146     		mov	r1, r6
 3663 0e04 95ED2F0A 		flds	s0, [r5, #188]
 3664 0e08 FFF7FEFF 		bl	buffer_append_float32_auto
 3665              	.LVL415:
 3666              		.loc 1 478 0
 3667 0e0c 029B     		ldr	r3, [sp, #8]
 3668 0e0e 95F8F820 		ldrb	r2, [r5, #248]	@ zero_extendqisi2
 3669 0e12 E254     		strb	r2, [r4, r3]
 3670              		.loc 1 479 0
 3671 0e14 95ED350A 		flds	s0, [r5, #212]
 3672              		.loc 1 478 0
 3673 0e18 0133     		adds	r3, r3, #1
 3674              		.loc 1 479 0
 3675 0e1a 3146     		mov	r1, r6
 3676 0e1c 2046     		mov	r0, r4
 3677              		.loc 1 478 0
 3678 0e1e 0293     		str	r3, [sp, #8]
 3679              		.loc 1 479 0
 3680 0e20 FFF7FEFF 		bl	buffer_append_float32_auto
 3681              	.LVL416:
 3682              		.loc 1 480 0
 3683 0e24 2046     		mov	r0, r4
 3684 0e26 3146     		mov	r1, r6
 3685 0e28 95ED360A 		flds	s0, [r5, #216]
 3686 0e2c FFF7FEFF 		bl	buffer_append_float32_auto
 3687              	.LVL417:
 3688              		.loc 1 481 0
 3689 0e30 2046     		mov	r0, r4
 3690 0e32 3146     		mov	r1, r6
 3691 0e34 95ED300A 		flds	s0, [r5, #192]
 3692 0e38 FFF7FEFF 		bl	buffer_append_float32_auto
 3693              	.LVL418:
 3694              		.loc 1 482 0
 3695 0e3c 2046     		mov	r0, r4
 3696 0e3e 3146     		mov	r1, r6
 3697 0e40 95ED310A 		flds	s0, [r5, #196]
 3698 0e44 FFF7FEFF 		bl	buffer_append_float32_auto
 3699              	.LVL419:
ARM GAS  /tmp/ccTQOGyd.s 			page 66


 3700              		.loc 1 483 0
 3701 0e48 2046     		mov	r0, r4
 3702 0e4a 3146     		mov	r1, r6
 3703 0e4c 95ED320A 		flds	s0, [r5, #200]
 3704 0e50 FFF7FEFF 		bl	buffer_append_float32_auto
 3705              	.LVL420:
 3706              		.loc 1 484 0
 3707 0e54 2046     		mov	r0, r4
 3708 0e56 3146     		mov	r1, r6
 3709 0e58 95ED330A 		flds	s0, [r5, #204]
 3710 0e5c FFF7FEFF 		bl	buffer_append_float32_auto
 3711              	.LVL421:
 3712              		.loc 1 485 0
 3713 0e60 2046     		mov	r0, r4
 3714 0e62 3146     		mov	r1, r6
 3715 0e64 95ED340A 		flds	s0, [r5, #208]
 3716 0e68 FFF7FEFF 		bl	buffer_append_float32_auto
 3717              	.LVL422:
 3718              		.loc 1 486 0
 3719 0e6c 2046     		mov	r0, r4
 3720 0e6e 3146     		mov	r1, r6
 3721 0e70 95ED370A 		flds	s0, [r5, #220]
 3722 0e74 FFF7FEFF 		bl	buffer_append_float32_auto
 3723              	.LVL423:
 3724              		.loc 1 487 0
 3725 0e78 2046     		mov	r0, r4
 3726 0e7a 3146     		mov	r1, r6
 3727 0e7c 95ED380A 		flds	s0, [r5, #224]
 3728 0e80 FFF7FEFF 		bl	buffer_append_float32_auto
 3729              	.LVL424:
 3730              		.loc 1 488 0
 3731 0e84 2046     		mov	r0, r4
 3732 0e86 3146     		mov	r1, r6
 3733 0e88 95ED390A 		flds	s0, [r5, #228]
 3734 0e8c FFF7FEFF 		bl	buffer_append_float32_auto
 3735              	.LVL425:
 3736              		.loc 1 489 0
 3737 0e90 2046     		mov	r0, r4
 3738 0e92 3146     		mov	r1, r6
 3739 0e94 95ED3A0A 		flds	s0, [r5, #232]
 3740 0e98 FFF7FEFF 		bl	buffer_append_float32_auto
 3741              	.LVL426:
 3742              		.loc 1 490 0
 3743 0e9c 2046     		mov	r0, r4
 3744 0e9e 3146     		mov	r1, r6
 3745 0ea0 95ED3B0A 		flds	s0, [r5, #236]
 3746 0ea4 FFF7FEFF 		bl	buffer_append_float32_auto
 3747              	.LVL427:
 3748              		.loc 1 491 0
 3749 0ea8 2046     		mov	r0, r4
 3750 0eaa 3146     		mov	r1, r6
 3751 0eac 95ED3C0A 		flds	s0, [r5, #240]
 3752 0eb0 FFF7FEFF 		bl	buffer_append_float32_auto
 3753              	.LVL428:
 3754              		.loc 1 492 0
 3755 0eb4 2046     		mov	r0, r4
 3756 0eb6 3146     		mov	r1, r6
ARM GAS  /tmp/ccTQOGyd.s 			page 67


 3757 0eb8 95ED3D0A 		flds	s0, [r5, #244]
 3758 0ebc FFF7FEFF 		bl	buffer_append_float32_auto
 3759              	.LVL429:
 3760              		.loc 1 493 0
 3761 0ec0 2A46     		mov	r2, r5
 3762 0ec2 029B     		ldr	r3, [sp, #8]
 3763 0ec4 52F8F91F 		ldr	r1, [r2, #249]!	@ unaligned
 3764 0ec8 E150     		str	r1, [r4, r3]	@ unaligned
 3765 0eca 5768     		ldr	r7, [r2, #4]	@ unaligned
 3766              		.loc 1 495 0
 3767 0ecc 95ED410A 		flds	s0, [r5, #260]
 3768              		.loc 1 493 0
 3769 0ed0 E218     		adds	r2, r4, r3
 3770              		.loc 1 495 0
 3771 0ed2 3146     		mov	r1, r6
 3772              		.loc 1 494 0
 3773 0ed4 0833     		adds	r3, r3, #8
 3774              		.loc 1 493 0
 3775 0ed6 5760     		str	r7, [r2, #4]	@ unaligned
 3776              		.loc 1 495 0
 3777 0ed8 2046     		mov	r0, r4
 3778              		.loc 1 494 0
 3779 0eda 0293     		str	r3, [sp, #8]
 3780              		.loc 1 495 0
 3781 0edc FFF7FEFF 		bl	buffer_append_float32_auto
 3782              	.LVL430:
 3783              		.loc 1 496 0
 3784 0ee0 029B     		ldr	r3, [sp, #8]
 3785 0ee2 95F80821 		ldrb	r2, [r5, #264]	@ zero_extendqisi2
 3786 0ee6 E254     		strb	r2, [r4, r3]
 3787              		.loc 1 497 0
 3788 0ee8 E218     		adds	r2, r4, r3
 3789 0eea 95F80971 		ldrb	r7, [r5, #265]	@ zero_extendqisi2
 3790              		.loc 1 498 0
 3791 0eee 95ED430A 		flds	s0, [r5, #268]
 3792              		.loc 1 497 0
 3793 0ef2 5770     		strb	r7, [r2, #1]
 3794 0ef4 0233     		adds	r3, r3, #2
 3795              		.loc 1 498 0
 3796 0ef6 3146     		mov	r1, r6
 3797 0ef8 2046     		mov	r0, r4
 3798 0efa 03E0     		b	.L225
 3799              	.L226:
 3800              		.align	2
 3801              	.L224:
 3802 0efc 00000000 		.word	.LANCHOR15
 3803 0f00 00000000 		.word	.LANCHOR8
 3804              	.L225:
 3805              		.loc 1 497 0
 3806 0f04 0293     		str	r3, [sp, #8]
 3807              		.loc 1 498 0
 3808 0f06 FFF7FEFF 		bl	buffer_append_float32_auto
 3809              	.LVL431:
 3810              		.loc 1 499 0
 3811 0f0a 029B     		ldr	r3, [sp, #8]
 3812 0f0c 95F81021 		ldrb	r2, [r5, #272]	@ zero_extendqisi2
 3813 0f10 E254     		strb	r2, [r4, r3]
ARM GAS  /tmp/ccTQOGyd.s 			page 68


 3814              		.loc 1 500 0
 3815 0f12 95ED450A 		flds	s0, [r5, #276]
 3816              		.loc 1 499 0
 3817 0f16 0133     		adds	r3, r3, #1
 3818              		.loc 1 500 0
 3819 0f18 3146     		mov	r1, r6
 3820 0f1a 2046     		mov	r0, r4
 3821              		.loc 1 499 0
 3822 0f1c 0293     		str	r3, [sp, #8]
 3823              		.loc 1 500 0
 3824 0f1e FFF7FEFF 		bl	buffer_append_float32_auto
 3825              	.LVL432:
 3826              		.loc 1 502 0
 3827 0f22 2046     		mov	r0, r4
 3828 0f24 3146     		mov	r1, r6
 3829 0f26 95ED460A 		flds	s0, [r5, #280]
 3830 0f2a FFF7FEFF 		bl	buffer_append_float32_auto
 3831              	.LVL433:
 3832              		.loc 1 503 0
 3833 0f2e 2046     		mov	r0, r4
 3834 0f30 3146     		mov	r1, r6
 3835 0f32 95ED470A 		flds	s0, [r5, #284]
 3836 0f36 FFF7FEFF 		bl	buffer_append_float32_auto
 3837              	.LVL434:
 3838              		.loc 1 504 0
 3839 0f3a 2046     		mov	r0, r4
 3840 0f3c 3146     		mov	r1, r6
 3841 0f3e 95ED480A 		flds	s0, [r5, #288]
 3842 0f42 FFF7FEFF 		bl	buffer_append_float32_auto
 3843              	.LVL435:
 3844              		.loc 1 505 0
 3845 0f46 2046     		mov	r0, r4
 3846 0f48 3146     		mov	r1, r6
 3847 0f4a 95ED490A 		flds	s0, [r5, #292]
 3848 0f4e FFF7FEFF 		bl	buffer_append_float32_auto
 3849              	.LVL436:
 3850              		.loc 1 506 0
 3851 0f52 029B     		ldr	r3, [sp, #8]
 3852 0f54 95F82821 		ldrb	r2, [r5, #296]	@ zero_extendqisi2
 3853 0f58 E254     		strb	r2, [r4, r3]
 3854              		.loc 1 508 0
 3855 0f5a 95ED4B0A 		flds	s0, [r5, #300]
 3856              		.loc 1 506 0
 3857 0f5e 0133     		adds	r3, r3, #1
 3858              		.loc 1 508 0
 3859 0f60 3146     		mov	r1, r6
 3860 0f62 2046     		mov	r0, r4
 3861              		.loc 1 506 0
 3862 0f64 0293     		str	r3, [sp, #8]
 3863              		.loc 1 508 0
 3864 0f66 FFF7FEFF 		bl	buffer_append_float32_auto
 3865              	.LVL437:
 3866              		.loc 1 509 0
 3867 0f6a 2046     		mov	r0, r4
 3868 0f6c 3146     		mov	r1, r6
 3869 0f6e 95ED4C0A 		flds	s0, [r5, #304]
 3870 0f72 FFF7FEFF 		bl	buffer_append_float32_auto
ARM GAS  /tmp/ccTQOGyd.s 			page 69


 3871              	.LVL438:
 3872              		.loc 1 510 0
 3873 0f76 2046     		mov	r0, r4
 3874 0f78 3146     		mov	r1, r6
 3875 0f7a 95ED4D0A 		flds	s0, [r5, #308]
 3876 0f7e FFF7FEFF 		bl	buffer_append_float32_auto
 3877              	.LVL439:
 3878              		.loc 1 511 0
 3879 0f82 2046     		mov	r0, r4
 3880 0f84 3146     		mov	r1, r6
 3881 0f86 95ED4E0A 		flds	s0, [r5, #312]
 3882 0f8a FFF7FEFF 		bl	buffer_append_float32_auto
 3883              	.LVL440:
 3884              		.loc 1 513 0
 3885 0f8e 2046     		mov	r0, r4
 3886 0f90 3146     		mov	r1, r6
 3887 0f92 95ED4F0A 		flds	s0, [r5, #316]
 3888 0f96 FFF7FEFF 		bl	buffer_append_float32_auto
 3889              	.LVL441:
 3890              		.loc 1 514 0
 3891 0f9a 2046     		mov	r0, r4
 3892 0f9c 3146     		mov	r1, r6
 3893 0f9e 95ED500A 		flds	s0, [r5, #320]
 3894 0fa2 FFF7FEFF 		bl	buffer_append_float32_auto
 3895              	.LVL442:
 3896              		.loc 1 515 0
 3897 0fa6 2046     		mov	r0, r4
 3898 0fa8 3146     		mov	r1, r6
 3899 0faa 95ED510A 		flds	s0, [r5, #324]
 3900 0fae FFF7FEFF 		bl	buffer_append_float32_auto
 3901              	.LVL443:
 3902              		.loc 1 516 0
 3903 0fb2 95ED520A 		flds	s0, [r5, #328]
 3904 0fb6 2046     		mov	r0, r4
 3905 0fb8 3146     		mov	r1, r6
 3906 0fba FFF7FEFF 		bl	buffer_append_float32_auto
 3907              	.LVL444:
 3908              		.loc 1 518 0
 3909 0fbe 3246     		mov	r2, r6
 3910 0fc0 2046     		mov	r0, r4
 3911 0fc2 D5F84C11 		ldr	r1, [r5, #332]
 3912 0fc6 FFF7FEFF 		bl	buffer_append_int32
 3913              	.LVL445:
 3914              		.loc 1 519 0
 3915 0fca 2046     		mov	r0, r4
 3916 0fcc 3146     		mov	r1, r6
 3917 0fce 95ED540A 		flds	s0, [r5, #336]
 3918 0fd2 FFF7FEFF 		bl	buffer_append_float32_auto
 3919              	.LVL446:
 3920              		.loc 1 520 0
 3921 0fd6 95ED550A 		flds	s0, [r5, #340]
 3922 0fda 2046     		mov	r0, r4
 3923 0fdc 3146     		mov	r1, r6
 3924 0fde FFF7FEFF 		bl	buffer_append_float32_auto
 3925              	.LVL447:
 3926              		.loc 1 521 0
 3927 0fe2 2046     		mov	r0, r4
ARM GAS  /tmp/ccTQOGyd.s 			page 70


 3928 0fe4 3246     		mov	r2, r6
 3929 0fe6 D5F85811 		ldr	r1, [r5, #344]
 3930 0fea FFF7FEFF 		bl	buffer_append_uint32
 3931              	.LVL448:
 3932              		.loc 1 522 0
 3933 0fee 029A     		ldr	r2, [sp, #8]
 3934 0ff0 95F85C31 		ldrb	r3, [r5, #348]	@ zero_extendqisi2
 3935 0ff4 A354     		strb	r3, [r4, r2]
 3936              		.loc 1 523 0
 3937 0ff6 A318     		adds	r3, r4, r2
 3938 0ff8 95F85DC1 		ldrb	ip, [r5, #349]	@ zero_extendqisi2
 3939              		.loc 1 524 0
 3940 0ffc 95F85EE1 		ldrb	lr, [r5, #350]	@ zero_extendqisi2
 3941              		.loc 1 525 0
 3942 1000 D5F86071 		ldr	r7, [r5, #352]
 3943              		.loc 1 526 0
 3944 1004 95ED590A 		flds	s0, [r5, #356]
 3945              		.loc 1 523 0
 3946 1008 83F801C0 		strb	ip, [r3, #1]
 3947              		.loc 1 525 0
 3948 100c 0432     		adds	r2, r2, #4
 3949              		.loc 1 526 0
 3950 100e 3146     		mov	r1, r6
 3951 1010 2046     		mov	r0, r4
 3952              		.loc 1 524 0
 3953 1012 83F802E0 		strb	lr, [r3, #2]
 3954              		.loc 1 525 0
 3955 1016 DF70     		strb	r7, [r3, #3]
 3956 1018 0292     		str	r2, [sp, #8]
 3957              		.loc 1 526 0
 3958 101a FFF7FEFF 		bl	buffer_append_float32_auto
 3959              	.LVL449:
 3960              		.loc 1 527 0
 3961 101e 2046     		mov	r0, r4
 3962 1020 3146     		mov	r1, r6
 3963 1022 95ED5A0A 		flds	s0, [r5, #360]
 3964 1026 FFF7FEFF 		bl	buffer_append_float32_auto
 3965              	.LVL450:
 3966              		.loc 1 528 0
 3967 102a 2046     		mov	r0, r4
 3968 102c 3146     		mov	r1, r6
 3969 102e 95ED5B0A 		flds	s0, [r5, #364]
 3970 1032 FFF7FEFF 		bl	buffer_append_float32_auto
 3971              	.LVL451:
 3972              		.loc 1 529 0
 3973 1036 3146     		mov	r1, r6
 3974 1038 2046     		mov	r0, r4
 3975 103a 95ED5C0A 		flds	s0, [r5, #368]
 3976 103e FFF7FEFF 		bl	buffer_append_float32_auto
 3977              	.LVL452:
 3978              	.LBB160:
 3979              	.LBB161:
 3980              		.loc 1 91 0
 3981 1042 044B     		ldr	r3, .L227
 3982              	.LBE161:
 3983              	.LBE160:
 3984              		.loc 1 531 0
ARM GAS  /tmp/ccTQOGyd.s 			page 71


 3985 1044 0299     		ldr	r1, [sp, #8]
 3986              	.LVL453:
 3987              	.LBB163:
 3988              	.LBB162:
 3989              		.loc 1 91 0
 3990 1046 1B68     		ldr	r3, [r3]
 3991 1048 002B     		cmp	r3, #0
 3992 104a 7FF45FA8 		bne	.L201
 3993 104e FFF75FB8 		b	.L82
 3994              	.L228:
 3995 1052 00BF     		.align	2
 3996              	.L227:
 3997 1054 00000000 		.word	.LANCHOR10
 3998              	.LVL454:
 3999              	.L98:
 4000              	.LBE162:
 4001              	.LBE163:
 4002              		.loc 1 264 0
 4003 1058 FFF7FEFF 		bl	mc_interface_get_configuration
 4004              	.LVL455:
 4005 105c BB4D     		ldr	r5, .L229
 4006              	.LVL456:
 4007              		.loc 1 270 0
 4008 105e 36AE     		add	r6, sp, #216
 4009              		.loc 1 264 0
 4010 1060 0146     		mov	r1, r0
 4011 1062 4FF4BA72 		mov	r2, #372
 4012 1066 2846     		mov	r0, r5
 4013 1068 FFF7FEFF 		bl	memcpy
 4014              	.LVL457:
 4015              		.loc 1 270 0
 4016 106c 0423     		movs	r3, #4
 4017 106e 46F8D03D 		str	r3, [r6, #-208]!
 4018              		.loc 1 267 0
 4019 1072 7978     		ldrb	r1, [r7, #1]	@ zero_extendqisi2
 4020              		.loc 1 268 0
 4021 1074 97F802E0 		ldrb	lr, [r7, #2]	@ zero_extendqisi2
 4022              		.loc 1 269 0
 4023 1078 FA78     		ldrb	r2, [r7, #3]	@ zero_extendqisi2
 4024              		.loc 1 270 0
 4025 107a 3B79     		ldrb	r3, [r7, #4]	@ zero_extendqisi2
 4026              		.loc 1 267 0
 4027 107c 2970     		strb	r1, [r5]
 4028              		.loc 1 272 0
 4029 107e 2046     		mov	r0, r4
 4030 1080 3146     		mov	r1, r6
 4031              		.loc 1 268 0
 4032 1082 85F801E0 		strb	lr, [r5, #1]
 4033              		.loc 1 269 0
 4034 1086 AA70     		strb	r2, [r5, #2]
 4035              		.loc 1 270 0
 4036 1088 EB70     		strb	r3, [r5, #3]
 4037              		.loc 1 272 0
 4038 108a FFF7FEFF 		bl	buffer_get_float32_auto
 4039              	.LVL458:
 4040              		.loc 1 273 0
 4041 108e 3146     		mov	r1, r6
ARM GAS  /tmp/ccTQOGyd.s 			page 72


 4042 1090 2046     		mov	r0, r4
 4043              		.loc 1 272 0
 4044 1092 85ED010A 		fsts	s0, [r5, #4]
 4045              		.loc 1 273 0
 4046 1096 FFF7FEFF 		bl	buffer_get_float32_auto
 4047              	.LVL459:
 4048              		.loc 1 274 0
 4049 109a 3146     		mov	r1, r6
 4050 109c 2046     		mov	r0, r4
 4051              		.loc 1 273 0
 4052 109e 85ED020A 		fsts	s0, [r5, #8]
 4053              		.loc 1 274 0
 4054 10a2 FFF7FEFF 		bl	buffer_get_float32_auto
 4055              	.LVL460:
 4056              		.loc 1 275 0
 4057 10a6 3146     		mov	r1, r6
 4058 10a8 2046     		mov	r0, r4
 4059              		.loc 1 274 0
 4060 10aa 85ED030A 		fsts	s0, [r5, #12]
 4061              		.loc 1 275 0
 4062 10ae FFF7FEFF 		bl	buffer_get_float32_auto
 4063              	.LVL461:
 4064              		.loc 1 276 0
 4065 10b2 3146     		mov	r1, r6
 4066 10b4 2046     		mov	r0, r4
 4067              		.loc 1 275 0
 4068 10b6 85ED040A 		fsts	s0, [r5, #16]
 4069              		.loc 1 276 0
 4070 10ba FFF7FEFF 		bl	buffer_get_float32_auto
 4071              	.LVL462:
 4072              		.loc 1 277 0
 4073 10be 3146     		mov	r1, r6
 4074 10c0 2046     		mov	r0, r4
 4075              		.loc 1 276 0
 4076 10c2 85ED050A 		fsts	s0, [r5, #20]
 4077              		.loc 1 277 0
 4078 10c6 FFF7FEFF 		bl	buffer_get_float32_auto
 4079              	.LVL463:
 4080              		.loc 1 278 0
 4081 10ca 3146     		mov	r1, r6
 4082 10cc 2046     		mov	r0, r4
 4083              		.loc 1 277 0
 4084 10ce 85ED060A 		fsts	s0, [r5, #24]
 4085              		.loc 1 278 0
 4086 10d2 FFF7FEFF 		bl	buffer_get_float32_auto
 4087              	.LVL464:
 4088              		.loc 1 279 0
 4089 10d6 3146     		mov	r1, r6
 4090 10d8 2046     		mov	r0, r4
 4091              		.loc 1 278 0
 4092 10da 85ED070A 		fsts	s0, [r5, #28]
 4093              		.loc 1 279 0
 4094 10de FFF7FEFF 		bl	buffer_get_float32_auto
 4095              	.LVL465:
 4096              		.loc 1 280 0
 4097 10e2 3146     		mov	r1, r6
 4098 10e4 2046     		mov	r0, r4
ARM GAS  /tmp/ccTQOGyd.s 			page 73


 4099              		.loc 1 279 0
 4100 10e6 85ED080A 		fsts	s0, [r5, #32]
 4101              		.loc 1 280 0
 4102 10ea FFF7FEFF 		bl	buffer_get_float32_auto
 4103              	.LVL466:
 4104              		.loc 1 281 0
 4105 10ee 3146     		mov	r1, r6
 4106 10f0 2046     		mov	r0, r4
 4107              		.loc 1 280 0
 4108 10f2 85ED090A 		fsts	s0, [r5, #36]
 4109              		.loc 1 281 0
 4110 10f6 FFF7FEFF 		bl	buffer_get_float32_auto
 4111              	.LVL467:
 4112              		.loc 1 282 0
 4113 10fa 3146     		mov	r1, r6
 4114 10fc 2046     		mov	r0, r4
 4115              		.loc 1 281 0
 4116 10fe 85ED0A0A 		fsts	s0, [r5, #40]
 4117              		.loc 1 282 0
 4118 1102 FFF7FEFF 		bl	buffer_get_float32_auto
 4119              	.LVL468:
 4120              		.loc 1 283 0
 4121 1106 3146     		mov	r1, r6
 4122 1108 2046     		mov	r0, r4
 4123              		.loc 1 282 0
 4124 110a 85ED0B0A 		fsts	s0, [r5, #44]
 4125              		.loc 1 283 0
 4126 110e FFF7FEFF 		bl	buffer_get_float32_auto
 4127              	.LVL469:
 4128              		.loc 1 284 0
 4129 1112 3146     		mov	r1, r6
 4130 1114 2046     		mov	r0, r4
 4131              		.loc 1 283 0
 4132 1116 85ED0C0A 		fsts	s0, [r5, #48]
 4133              		.loc 1 284 0
 4134 111a FFF7FEFF 		bl	buffer_get_float32_auto
 4135              	.LVL470:
 4136              		.loc 1 285 0
 4137 111e 3146     		mov	r1, r6
 4138 1120 2046     		mov	r0, r4
 4139              		.loc 1 284 0
 4140 1122 85ED0D0A 		fsts	s0, [r5, #52]
 4141              		.loc 1 285 0
 4142 1126 FFF7FEFF 		bl	buffer_get_float32_auto
 4143              	.LVL471:
 4144              		.loc 1 286 0
 4145 112a 029B     		ldr	r3, [sp, #8]
 4146              		.loc 1 285 0
 4147 112c 85ED0E0A 		fsts	s0, [r5, #56]
 4148              		.loc 1 286 0
 4149 1130 E25C     		ldrb	r2, [r4, r3]	@ zero_extendqisi2
 4150 1132 0032     		adds	r2, r2, #0
 4151 1134 18BF     		it	ne
 4152 1136 0122     		movne	r2, #1
 4153 1138 0133     		adds	r3, r3, #1
 4154              		.loc 1 287 0
 4155 113a 3146     		mov	r1, r6
ARM GAS  /tmp/ccTQOGyd.s 			page 74


 4156 113c 2046     		mov	r0, r4
 4157              		.loc 1 286 0
 4158 113e 85F83C20 		strb	r2, [r5, #60]
 4159 1142 0293     		str	r3, [sp, #8]
 4160              		.loc 1 287 0
 4161 1144 FFF7FEFF 		bl	buffer_get_float32_auto
 4162              	.LVL472:
 4163              		.loc 1 288 0
 4164 1148 3146     		mov	r1, r6
 4165 114a 2046     		mov	r0, r4
 4166              		.loc 1 287 0
 4167 114c 85ED100A 		fsts	s0, [r5, #64]
 4168              		.loc 1 288 0
 4169 1150 FFF7FEFF 		bl	buffer_get_float32_auto
 4170              	.LVL473:
 4171              		.loc 1 289 0
 4172 1154 3146     		mov	r1, r6
 4173 1156 2046     		mov	r0, r4
 4174              		.loc 1 288 0
 4175 1158 85ED110A 		fsts	s0, [r5, #68]
 4176              		.loc 1 289 0
 4177 115c FFF7FEFF 		bl	buffer_get_float32_auto
 4178              	.LVL474:
 4179              		.loc 1 290 0
 4180 1160 3146     		mov	r1, r6
 4181 1162 2046     		mov	r0, r4
 4182              		.loc 1 289 0
 4183 1164 85ED120A 		fsts	s0, [r5, #72]
 4184              		.loc 1 290 0
 4185 1168 FFF7FEFF 		bl	buffer_get_float32_auto
 4186              	.LVL475:
 4187              		.loc 1 291 0
 4188 116c 3146     		mov	r1, r6
 4189 116e 2046     		mov	r0, r4
 4190              		.loc 1 290 0
 4191 1170 85ED130A 		fsts	s0, [r5, #76]
 4192              		.loc 1 291 0
 4193 1174 FFF7FEFF 		bl	buffer_get_float32_auto
 4194              	.LVL476:
 4195              		.loc 1 292 0
 4196 1178 3146     		mov	r1, r6
 4197 117a 2046     		mov	r0, r4
 4198              		.loc 1 291 0
 4199 117c 85ED140A 		fsts	s0, [r5, #80]
 4200              		.loc 1 292 0
 4201 1180 FFF7FEFF 		bl	buffer_get_float32_auto
 4202              	.LVL477:
 4203              		.loc 1 293 0
 4204 1184 3146     		mov	r1, r6
 4205 1186 2046     		mov	r0, r4
 4206              		.loc 1 292 0
 4207 1188 85ED150A 		fsts	s0, [r5, #84]
 4208              		.loc 1 293 0
 4209 118c FFF7FEFF 		bl	buffer_get_float32_auto
 4210              	.LVL478:
 4211              		.loc 1 294 0
 4212 1190 3146     		mov	r1, r6
ARM GAS  /tmp/ccTQOGyd.s 			page 75


 4213 1192 2046     		mov	r0, r4
 4214              		.loc 1 293 0
 4215 1194 85ED160A 		fsts	s0, [r5, #88]
 4216              		.loc 1 294 0
 4217 1198 FFF7FEFF 		bl	buffer_get_float32_auto
 4218              	.LVL479:
 4219              		.loc 1 295 0
 4220 119c 3146     		mov	r1, r6
 4221 119e 2046     		mov	r0, r4
 4222              		.loc 1 294 0
 4223 11a0 85ED170A 		fsts	s0, [r5, #92]
 4224              		.loc 1 295 0
 4225 11a4 FFF7FEFF 		bl	buffer_get_float32_auto
 4226              	.LVL480:
 4227              		.loc 1 299 0
 4228 11a8 D5F80CE0 		ldr	lr, [r5, #12]	@ float
 4229              		.loc 1 297 0
 4230 11ac 6A68     		ldr	r2, [r5, #4]	@ float
 4231              		.loc 1 298 0
 4232 11ae AB68     		ldr	r3, [r5, #8]	@ float
 4233              		.loc 1 300 0
 4234 11b0 2F69     		ldr	r7, [r5, #16]	@ float
 4235              		.loc 1 299 0
 4236 11b2 C5F86CE0 		str	lr, [r5, #108]	@ float
 4237              		.loc 1 304 0
 4238 11b6 3146     		mov	r1, r6
 4239 11b8 2046     		mov	r0, r4
 4240              		.loc 1 297 0
 4241 11ba 6A66     		str	r2, [r5, #100]	@ float
 4242              		.loc 1 301 0
 4243 11bc 6A67     		str	r2, [r5, #116]	@ float
 4244              		.loc 1 298 0
 4245 11be AB66     		str	r3, [r5, #104]	@ float
 4246              		.loc 1 302 0
 4247 11c0 AB67     		str	r3, [r5, #120]	@ float
 4248              		.loc 1 300 0
 4249 11c2 2F67     		str	r7, [r5, #112]	@ float
 4250              		.loc 1 295 0
 4251 11c4 85ED180A 		fsts	s0, [r5, #96]
 4252              		.loc 1 304 0
 4253 11c8 FFF7FEFF 		bl	buffer_get_float32_auto
 4254              	.LVL481:
 4255              		.loc 1 305 0
 4256 11cc 3146     		mov	r1, r6
 4257 11ce 2046     		mov	r0, r4
 4258              		.loc 1 304 0
 4259 11d0 85ED1F0A 		fsts	s0, [r5, #124]
 4260              		.loc 1 305 0
 4261 11d4 FFF7FEFF 		bl	buffer_get_float32_auto
 4262              	.LVL482:
 4263              		.loc 1 306 0
 4264 11d8 3146     		mov	r1, r6
 4265 11da 2046     		mov	r0, r4
 4266              		.loc 1 305 0
 4267 11dc 85ED200A 		fsts	s0, [r5, #128]
 4268              		.loc 1 306 0
 4269 11e0 FFF7FEFF 		bl	buffer_get_float32_auto
ARM GAS  /tmp/ccTQOGyd.s 			page 76


 4270              	.LVL483:
 4271              		.loc 1 307 0
 4272 11e4 3146     		mov	r1, r6
 4273 11e6 2046     		mov	r0, r4
 4274              		.loc 1 306 0
 4275 11e8 85ED210A 		fsts	s0, [r5, #132]
 4276              		.loc 1 307 0
 4277 11ec FFF7FEFF 		bl	buffer_get_float32_auto
 4278              	.LVL484:
 4279              		.loc 1 308 0
 4280 11f0 3146     		mov	r1, r6
 4281 11f2 2046     		mov	r0, r4
 4282              		.loc 1 307 0
 4283 11f4 85ED220A 		fsts	s0, [r5, #136]
 4284              		.loc 1 308 0
 4285 11f8 FFF7FEFF 		bl	buffer_get_float32_auto
 4286              	.LVL485:
 4287              		.loc 1 309 0
 4288 11fc 3146     		mov	r1, r6
 4289 11fe 2046     		mov	r0, r4
 4290              		.loc 1 308 0
 4291 1200 85ED230A 		fsts	s0, [r5, #140]
 4292              		.loc 1 309 0
 4293 1204 FFF7FEFF 		bl	buffer_get_float32_auto
 4294              	.LVL486:
 4295              		.loc 1 310 0
 4296 1208 3146     		mov	r1, r6
 4297 120a 2046     		mov	r0, r4
 4298              		.loc 1 309 0
 4299 120c 85ED240A 		fsts	s0, [r5, #144]
 4300              		.loc 1 310 0
 4301 1210 FFF7FEFF 		bl	buffer_get_float32_auto
 4302              	.LVL487:
 4303              		.loc 1 312 0
 4304 1214 029A     		ldr	r2, [sp, #8]
 4305              		.loc 1 310 0
 4306 1216 85ED250A 		fsts	s0, [r5, #148]
 4307              		.loc 1 312 0
 4308 121a A118     		adds	r1, r4, r2
 4309 121c 05F19803 		add	r3, r5, #152
 4310 1220 0868     		ldr	r0, [r1]	@ unaligned
 4311 1222 4968     		ldr	r1, [r1, #4]	@ unaligned
 4312              		.loc 1 313 0
 4313 1224 0832     		adds	r2, r2, #8
 4314              		.loc 1 312 0
 4315 1226 03C3     		stmia	r3!, {r0, r1}
 4316              		.loc 1 314 0
 4317 1228 3146     		mov	r1, r6
 4318 122a 2046     		mov	r0, r4
 4319              		.loc 1 313 0
 4320 122c 0292     		str	r2, [sp, #8]
 4321              		.loc 1 314 0
 4322 122e FFF7FEFF 		bl	buffer_get_float32_auto
 4323              	.LVL488:
 4324              		.loc 1 316 0
 4325 1232 3146     		mov	r1, r6
 4326 1234 2046     		mov	r0, r4
ARM GAS  /tmp/ccTQOGyd.s 			page 77


 4327              		.loc 1 314 0
 4328 1236 85ED280A 		fsts	s0, [r5, #160]
 4329              		.loc 1 316 0
 4330 123a FFF7FEFF 		bl	buffer_get_float32_auto
 4331              	.LVL489:
 4332              		.loc 1 317 0
 4333 123e 3146     		mov	r1, r6
 4334 1240 2046     		mov	r0, r4
 4335              		.loc 1 316 0
 4336 1242 85ED290A 		fsts	s0, [r5, #164]
 4337              		.loc 1 317 0
 4338 1246 FFF7FEFF 		bl	buffer_get_float32_auto
 4339              	.LVL490:
 4340              		.loc 1 318 0
 4341 124a 3146     		mov	r1, r6
 4342 124c 2046     		mov	r0, r4
 4343              		.loc 1 317 0
 4344 124e 85ED2A0A 		fsts	s0, [r5, #168]
 4345              		.loc 1 318 0
 4346 1252 FFF7FEFF 		bl	buffer_get_float32_auto
 4347              	.LVL491:
 4348              		.loc 1 319 0
 4349 1256 3146     		mov	r1, r6
 4350 1258 2046     		mov	r0, r4
 4351              		.loc 1 318 0
 4352 125a 85ED2B0A 		fsts	s0, [r5, #172]
 4353              		.loc 1 319 0
 4354 125e FFF7FEFF 		bl	buffer_get_float32_auto
 4355              	.LVL492:
 4356              		.loc 1 320 0
 4357 1262 029B     		ldr	r3, [sp, #8]
 4358              		.loc 1 319 0
 4359 1264 85ED2C0A 		fsts	s0, [r5, #176]
 4360              		.loc 1 320 0
 4361 1268 E25C     		ldrb	r2, [r4, r3]	@ zero_extendqisi2
 4362 126a 0032     		adds	r2, r2, #0
 4363 126c 18BF     		it	ne
 4364 126e 0122     		movne	r2, #1
 4365 1270 0133     		adds	r3, r3, #1
 4366              		.loc 1 321 0
 4367 1272 3146     		mov	r1, r6
 4368 1274 2046     		mov	r0, r4
 4369              		.loc 1 320 0
 4370 1276 85F8B820 		strb	r2, [r5, #184]
 4371 127a 0293     		str	r3, [sp, #8]
 4372              		.loc 1 321 0
 4373 127c FFF7FEFF 		bl	buffer_get_float32_auto
 4374              	.LVL493:
 4375              		.loc 1 322 0
 4376 1280 3146     		mov	r1, r6
 4377 1282 2046     		mov	r0, r4
 4378              		.loc 1 321 0
 4379 1284 85ED2D0A 		fsts	s0, [r5, #180]
 4380              		.loc 1 322 0
 4381 1288 FFF7FEFF 		bl	buffer_get_float32_auto
 4382              	.LVL494:
 4383              		.loc 1 323 0
ARM GAS  /tmp/ccTQOGyd.s 			page 78


 4384 128c 029B     		ldr	r3, [sp, #8]
 4385              		.loc 1 322 0
 4386 128e 85ED2F0A 		fsts	s0, [r5, #188]
 4387              		.loc 1 323 0
 4388 1292 E25C     		ldrb	r2, [r4, r3]	@ zero_extendqisi2
 4389 1294 85F8F820 		strb	r2, [r5, #248]
 4390 1298 0133     		adds	r3, r3, #1
 4391              		.loc 1 324 0
 4392 129a 3146     		mov	r1, r6
 4393 129c 2046     		mov	r0, r4
 4394              		.loc 1 323 0
 4395 129e 0293     		str	r3, [sp, #8]
 4396              		.loc 1 324 0
 4397 12a0 FFF7FEFF 		bl	buffer_get_float32_auto
 4398              	.LVL495:
 4399              		.loc 1 325 0
 4400 12a4 3146     		mov	r1, r6
 4401 12a6 2046     		mov	r0, r4
 4402              		.loc 1 324 0
 4403 12a8 85ED350A 		fsts	s0, [r5, #212]
 4404              		.loc 1 325 0
 4405 12ac FFF7FEFF 		bl	buffer_get_float32_auto
 4406              	.LVL496:
 4407              		.loc 1 326 0
 4408 12b0 3146     		mov	r1, r6
 4409 12b2 2046     		mov	r0, r4
 4410              		.loc 1 325 0
 4411 12b4 85ED360A 		fsts	s0, [r5, #216]
 4412              		.loc 1 326 0
 4413 12b8 FFF7FEFF 		bl	buffer_get_float32_auto
 4414              	.LVL497:
 4415              		.loc 1 327 0
 4416 12bc 3146     		mov	r1, r6
 4417 12be 2046     		mov	r0, r4
 4418              		.loc 1 326 0
 4419 12c0 85ED300A 		fsts	s0, [r5, #192]
 4420              		.loc 1 327 0
 4421 12c4 FFF7FEFF 		bl	buffer_get_float32_auto
 4422              	.LVL498:
 4423              		.loc 1 328 0
 4424 12c8 3146     		mov	r1, r6
 4425 12ca 2046     		mov	r0, r4
 4426              		.loc 1 327 0
 4427 12cc 85ED310A 		fsts	s0, [r5, #196]
 4428              		.loc 1 328 0
 4429 12d0 FFF7FEFF 		bl	buffer_get_float32_auto
 4430              	.LVL499:
 4431              		.loc 1 329 0
 4432 12d4 3146     		mov	r1, r6
 4433 12d6 2046     		mov	r0, r4
 4434              		.loc 1 328 0
 4435 12d8 85ED320A 		fsts	s0, [r5, #200]
 4436              		.loc 1 329 0
 4437 12dc FFF7FEFF 		bl	buffer_get_float32_auto
 4438              	.LVL500:
 4439              		.loc 1 330 0
 4440 12e0 3146     		mov	r1, r6
ARM GAS  /tmp/ccTQOGyd.s 			page 79


 4441 12e2 2046     		mov	r0, r4
 4442              		.loc 1 329 0
 4443 12e4 85ED330A 		fsts	s0, [r5, #204]
 4444              		.loc 1 330 0
 4445 12e8 FFF7FEFF 		bl	buffer_get_float32_auto
 4446              	.LVL501:
 4447              		.loc 1 331 0
 4448 12ec 3146     		mov	r1, r6
 4449 12ee 2046     		mov	r0, r4
 4450              		.loc 1 330 0
 4451 12f0 85ED340A 		fsts	s0, [r5, #208]
 4452              		.loc 1 331 0
 4453 12f4 FFF7FEFF 		bl	buffer_get_float32_auto
 4454              	.LVL502:
 4455              		.loc 1 332 0
 4456 12f8 3146     		mov	r1, r6
 4457 12fa 2046     		mov	r0, r4
 4458              		.loc 1 331 0
 4459 12fc 85ED370A 		fsts	s0, [r5, #220]
 4460              		.loc 1 332 0
 4461 1300 FFF7FEFF 		bl	buffer_get_float32_auto
 4462              	.LVL503:
 4463              		.loc 1 333 0
 4464 1304 3146     		mov	r1, r6
 4465 1306 2046     		mov	r0, r4
 4466              		.loc 1 332 0
 4467 1308 85ED380A 		fsts	s0, [r5, #224]
 4468              		.loc 1 333 0
 4469 130c FFF7FEFF 		bl	buffer_get_float32_auto
 4470              	.LVL504:
 4471              		.loc 1 334 0
 4472 1310 3146     		mov	r1, r6
 4473 1312 2046     		mov	r0, r4
 4474              		.loc 1 333 0
 4475 1314 85ED390A 		fsts	s0, [r5, #228]
 4476              		.loc 1 334 0
 4477 1318 FFF7FEFF 		bl	buffer_get_float32_auto
 4478              	.LVL505:
 4479              		.loc 1 335 0
 4480 131c 3146     		mov	r1, r6
 4481 131e 2046     		mov	r0, r4
 4482              		.loc 1 334 0
 4483 1320 85ED3A0A 		fsts	s0, [r5, #232]
 4484              		.loc 1 335 0
 4485 1324 FFF7FEFF 		bl	buffer_get_float32_auto
 4486              	.LVL506:
 4487              		.loc 1 336 0
 4488 1328 3146     		mov	r1, r6
 4489 132a 2046     		mov	r0, r4
 4490              		.loc 1 335 0
 4491 132c 85ED3B0A 		fsts	s0, [r5, #236]
 4492              		.loc 1 336 0
 4493 1330 FFF7FEFF 		bl	buffer_get_float32_auto
 4494              	.LVL507:
 4495              		.loc 1 337 0
 4496 1334 3146     		mov	r1, r6
 4497 1336 2046     		mov	r0, r4
ARM GAS  /tmp/ccTQOGyd.s 			page 80


 4498              		.loc 1 336 0
 4499 1338 85ED3C0A 		fsts	s0, [r5, #240]
 4500              		.loc 1 337 0
 4501 133c FFF7FEFF 		bl	buffer_get_float32_auto
 4502              	.LVL508:
 4503              		.loc 1 338 0
 4504 1340 029A     		ldr	r2, [sp, #8]
 4505              		.loc 1 337 0
 4506 1342 85ED3D0A 		fsts	s0, [r5, #244]
 4507              		.loc 1 338 0
 4508 1346 A318     		adds	r3, r4, r2
 4509 1348 18E0     		b	.L230
 4510              	.L231:
 4511 134a 00BF     		.align	2
 4512              	.L229:
 4513 134c 00000000 		.word	.LANCHOR15
 4514 1350 0000C8C2 		.word	3267887104
 4515 1354 0000C842 		.word	1120403456
 4516 1358 00001643 		.word	1125515264
 4517 135c 00006442 		.word	1113849856
 4518 1360 005043C8 		.word	3359854592
 4519 1364 00504348 		.word	1212370944
 4520 1368 CDCCCC3D 		.word	1036831949
 4521 136c 00000000 		.word	0
 4522 1370 3333733F 		.word	1064514355
 4523 1374 000020C2 		.word	3256877056
 4524 1378 0000DC42 		.word	1121714176
 4525              	.L230:
 4526              		.loc 1 340 0
 4527 137c 3146     		mov	r1, r6
 4528              		.loc 1 338 0
 4529 137e 1F68     		ldr	r7, [r3]	@ unaligned
 4530 1380 5B68     		ldr	r3, [r3, #4]	@ unaligned
 4531 1382 C5F8FD30 		str	r3, [r5, #253]	@ unaligned
 4532              		.loc 1 339 0
 4533 1386 0832     		adds	r2, r2, #8
 4534              		.loc 1 340 0
 4535 1388 2046     		mov	r0, r4
 4536              		.loc 1 338 0
 4537 138a C5F8F970 		str	r7, [r5, #249]	@ unaligned
 4538              		.loc 1 339 0
 4539 138e 0292     		str	r2, [sp, #8]
 4540              		.loc 1 340 0
 4541 1390 FFF7FEFF 		bl	buffer_get_float32_auto
 4542              	.LVL509:
 4543              		.loc 1 341 0
 4544 1394 029B     		ldr	r3, [sp, #8]
 4545              		.loc 1 340 0
 4546 1396 85ED410A 		fsts	s0, [r5, #260]
 4547              		.loc 1 341 0
 4548 139a E15C     		ldrb	r1, [r4, r3]	@ zero_extendqisi2
 4549 139c 0031     		adds	r1, r1, #0
 4550 139e 18BF     		it	ne
 4551 13a0 0121     		movne	r1, #1
 4552 13a2 5A1C     		adds	r2, r3, #1
 4553 13a4 85F80811 		strb	r1, [r5, #264]
 4554              		.loc 1 342 0
ARM GAS  /tmp/ccTQOGyd.s 			page 81


 4555 13a8 A25C     		ldrb	r2, [r4, r2]	@ zero_extendqisi2
 4556 13aa 0032     		adds	r2, r2, #0
 4557 13ac 18BF     		it	ne
 4558 13ae 0122     		movne	r2, #1
 4559 13b0 0233     		adds	r3, r3, #2
 4560              		.loc 1 343 0
 4561 13b2 3146     		mov	r1, r6
 4562 13b4 2046     		mov	r0, r4
 4563              		.loc 1 342 0
 4564 13b6 85F80921 		strb	r2, [r5, #265]
 4565 13ba 0293     		str	r3, [sp, #8]
 4566              		.loc 1 343 0
 4567 13bc FFF7FEFF 		bl	buffer_get_float32_auto
 4568              	.LVL510:
 4569              		.loc 1 344 0
 4570 13c0 029B     		ldr	r3, [sp, #8]
 4571              		.loc 1 343 0
 4572 13c2 85ED430A 		fsts	s0, [r5, #268]
 4573              		.loc 1 344 0
 4574 13c6 E25C     		ldrb	r2, [r4, r3]	@ zero_extendqisi2
 4575 13c8 0032     		adds	r2, r2, #0
 4576 13ca 18BF     		it	ne
 4577 13cc 0122     		movne	r2, #1
 4578 13ce 0133     		adds	r3, r3, #1
 4579              		.loc 1 345 0
 4580 13d0 3146     		mov	r1, r6
 4581 13d2 2046     		mov	r0, r4
 4582              		.loc 1 344 0
 4583 13d4 85F81021 		strb	r2, [r5, #272]
 4584 13d8 0293     		str	r3, [sp, #8]
 4585              		.loc 1 345 0
 4586 13da FFF7FEFF 		bl	buffer_get_float32_auto
 4587              	.LVL511:
 4588              		.loc 1 347 0
 4589 13de 3146     		mov	r1, r6
 4590 13e0 2046     		mov	r0, r4
 4591              		.loc 1 345 0
 4592 13e2 85ED450A 		fsts	s0, [r5, #276]
 4593              		.loc 1 347 0
 4594 13e6 FFF7FEFF 		bl	buffer_get_float32_auto
 4595              	.LVL512:
 4596              		.loc 1 348 0
 4597 13ea 3146     		mov	r1, r6
 4598 13ec 2046     		mov	r0, r4
 4599              		.loc 1 347 0
 4600 13ee 85ED460A 		fsts	s0, [r5, #280]
 4601              		.loc 1 348 0
 4602 13f2 FFF7FEFF 		bl	buffer_get_float32_auto
 4603              	.LVL513:
 4604              		.loc 1 349 0
 4605 13f6 3146     		mov	r1, r6
 4606 13f8 2046     		mov	r0, r4
 4607              		.loc 1 348 0
 4608 13fa 85ED470A 		fsts	s0, [r5, #284]
 4609              		.loc 1 349 0
 4610 13fe FFF7FEFF 		bl	buffer_get_float32_auto
 4611              	.LVL514:
ARM GAS  /tmp/ccTQOGyd.s 			page 82


 4612              		.loc 1 350 0
 4613 1402 3146     		mov	r1, r6
 4614 1404 2046     		mov	r0, r4
 4615              		.loc 1 349 0
 4616 1406 85ED480A 		fsts	s0, [r5, #288]
 4617              		.loc 1 350 0
 4618 140a FFF7FEFF 		bl	buffer_get_float32_auto
 4619              	.LVL515:
 4620              		.loc 1 351 0
 4621 140e 029B     		ldr	r3, [sp, #8]
 4622              		.loc 1 350 0
 4623 1410 85ED490A 		fsts	s0, [r5, #292]
 4624              		.loc 1 351 0
 4625 1414 E25C     		ldrb	r2, [r4, r3]	@ zero_extendqisi2
 4626 1416 0032     		adds	r2, r2, #0
 4627 1418 18BF     		it	ne
 4628 141a 0122     		movne	r2, #1
 4629 141c 0133     		adds	r3, r3, #1
 4630              		.loc 1 353 0
 4631 141e 3146     		mov	r1, r6
 4632 1420 2046     		mov	r0, r4
 4633              		.loc 1 351 0
 4634 1422 85F82821 		strb	r2, [r5, #296]
 4635 1426 0293     		str	r3, [sp, #8]
 4636              		.loc 1 353 0
 4637 1428 FFF7FEFF 		bl	buffer_get_float32_auto
 4638              	.LVL516:
 4639              		.loc 1 354 0
 4640 142c 3146     		mov	r1, r6
 4641 142e 2046     		mov	r0, r4
 4642              		.loc 1 353 0
 4643 1430 85ED4B0A 		fsts	s0, [r5, #300]
 4644              		.loc 1 354 0
 4645 1434 FFF7FEFF 		bl	buffer_get_float32_auto
 4646              	.LVL517:
 4647              		.loc 1 355 0
 4648 1438 3146     		mov	r1, r6
 4649 143a 2046     		mov	r0, r4
 4650              		.loc 1 354 0
 4651 143c 85ED4C0A 		fsts	s0, [r5, #304]
 4652              		.loc 1 355 0
 4653 1440 FFF7FEFF 		bl	buffer_get_float32_auto
 4654              	.LVL518:
 4655              		.loc 1 356 0
 4656 1444 3146     		mov	r1, r6
 4657 1446 2046     		mov	r0, r4
 4658              		.loc 1 355 0
 4659 1448 85ED4D0A 		fsts	s0, [r5, #308]
 4660              		.loc 1 356 0
 4661 144c FFF7FEFF 		bl	buffer_get_float32_auto
 4662              	.LVL519:
 4663              		.loc 1 358 0
 4664 1450 3146     		mov	r1, r6
 4665 1452 2046     		mov	r0, r4
 4666              		.loc 1 356 0
 4667 1454 85ED4E0A 		fsts	s0, [r5, #312]
 4668              		.loc 1 358 0
ARM GAS  /tmp/ccTQOGyd.s 			page 83


 4669 1458 FFF7FEFF 		bl	buffer_get_float32_auto
 4670              	.LVL520:
 4671              		.loc 1 359 0
 4672 145c 3146     		mov	r1, r6
 4673 145e 2046     		mov	r0, r4
 4674              		.loc 1 358 0
 4675 1460 85ED4F0A 		fsts	s0, [r5, #316]
 4676              		.loc 1 359 0
 4677 1464 FFF7FEFF 		bl	buffer_get_float32_auto
 4678              	.LVL521:
 4679              		.loc 1 360 0
 4680 1468 3146     		mov	r1, r6
 4681 146a 2046     		mov	r0, r4
 4682              		.loc 1 359 0
 4683 146c 85ED500A 		fsts	s0, [r5, #320]
 4684              		.loc 1 360 0
 4685 1470 FFF7FEFF 		bl	buffer_get_float32_auto
 4686              	.LVL522:
 4687              		.loc 1 361 0
 4688 1474 3146     		mov	r1, r6
 4689 1476 2046     		mov	r0, r4
 4690              		.loc 1 360 0
 4691 1478 85ED510A 		fsts	s0, [r5, #324]
 4692              		.loc 1 361 0
 4693 147c FFF7FEFF 		bl	buffer_get_float32_auto
 4694              	.LVL523:
 4695              		.loc 1 363 0
 4696 1480 3146     		mov	r1, r6
 4697 1482 2046     		mov	r0, r4
 4698              		.loc 1 361 0
 4699 1484 85ED520A 		fsts	s0, [r5, #328]
 4700              		.loc 1 363 0
 4701 1488 FFF7FEFF 		bl	buffer_get_int32
 4702              	.LVL524:
 4703              		.loc 1 364 0
 4704 148c 3146     		mov	r1, r6
 4705              		.loc 1 363 0
 4706 148e C5F84C01 		str	r0, [r5, #332]
 4707              		.loc 1 364 0
 4708 1492 2046     		mov	r0, r4
 4709 1494 FFF7FEFF 		bl	buffer_get_float32_auto
 4710              	.LVL525:
 4711              		.loc 1 365 0
 4712 1498 3146     		mov	r1, r6
 4713 149a 2046     		mov	r0, r4
 4714              		.loc 1 364 0
 4715 149c 85ED540A 		fsts	s0, [r5, #336]
 4716              		.loc 1 365 0
 4717 14a0 FFF7FEFF 		bl	buffer_get_float32_auto
 4718              	.LVL526:
 4719              		.loc 1 366 0
 4720 14a4 3146     		mov	r1, r6
 4721 14a6 2046     		mov	r0, r4
 4722              		.loc 1 365 0
 4723 14a8 85ED550A 		fsts	s0, [r5, #340]
 4724              		.loc 1 366 0
 4725 14ac FFF7FEFF 		bl	buffer_get_uint32
ARM GAS  /tmp/ccTQOGyd.s 			page 84


 4726              	.LVL527:
 4727              		.loc 1 367 0
 4728 14b0 029B     		ldr	r3, [sp, #8]
 4729              		.loc 1 366 0
 4730 14b2 C5F85801 		str	r0, [r5, #344]
 4731              		.loc 1 367 0
 4732 14b6 E25C     		ldrb	r2, [r4, r3]	@ zero_extendqisi2
 4733 14b8 85F85C21 		strb	r2, [r5, #348]
 4734 14bc 591C     		adds	r1, r3, #1
 4735              		.loc 1 368 0
 4736 14be 9A1C     		adds	r2, r3, #2
 4737 14c0 615C     		ldrb	r1, [r4, r1]	@ zero_extendqisi2
 4738 14c2 0031     		adds	r1, r1, #0
 4739 14c4 18BF     		it	ne
 4740 14c6 0121     		movne	r1, #1
 4741 14c8 85F85D11 		strb	r1, [r5, #349]
 4742              		.loc 1 369 0
 4743 14cc A25C     		ldrb	r2, [r4, r2]	@ zero_extendqisi2
 4744 14ce 85F85E21 		strb	r2, [r5, #350]
 4745 14d2 DA1C     		adds	r2, r3, #3
 4746              		.loc 1 371 0
 4747 14d4 3146     		mov	r1, r6
 4748              		.loc 1 370 0
 4749 14d6 A25C     		ldrb	r2, [r4, r2]	@ zero_extendqisi2
 4750 14d8 C5F86021 		str	r2, [r5, #352]
 4751 14dc 0433     		adds	r3, r3, #4
 4752              		.loc 1 371 0
 4753 14de 2046     		mov	r0, r4
 4754              		.loc 1 370 0
 4755 14e0 0293     		str	r3, [sp, #8]
 4756              		.loc 1 371 0
 4757 14e2 FFF7FEFF 		bl	buffer_get_float32_auto
 4758              	.LVL528:
 4759              		.loc 1 372 0
 4760 14e6 3146     		mov	r1, r6
 4761 14e8 2046     		mov	r0, r4
 4762              		.loc 1 371 0
 4763 14ea 85ED590A 		fsts	s0, [r5, #356]
 4764              		.loc 1 372 0
 4765 14ee FFF7FEFF 		bl	buffer_get_float32_auto
 4766              	.LVL529:
 4767              		.loc 1 373 0
 4768 14f2 3146     		mov	r1, r6
 4769 14f4 2046     		mov	r0, r4
 4770              		.loc 1 372 0
 4771 14f6 85ED5A0A 		fsts	s0, [r5, #360]
 4772              		.loc 1 373 0
 4773 14fa FFF7FEFF 		bl	buffer_get_float32_auto
 4774              	.LVL530:
 4775              		.loc 1 374 0
 4776 14fe 3146     		mov	r1, r6
 4777 1500 2046     		mov	r0, r4
 4778              		.loc 1 373 0
 4779 1502 85ED5B0A 		fsts	s0, [r5, #364]
 4780              		.loc 1 374 0
 4781 1506 FFF7FEFF 		bl	buffer_get_float32_auto
 4782              	.LVL531:
ARM GAS  /tmp/ccTQOGyd.s 			page 85


 4783              		.loc 1 379 0
 4784 150a 5FED6E0A 		flds	s1, .L229+8
 4785              		.loc 1 374 0
 4786 150e 85ED5C0A 		fsts	s0, [r5, #368]
 4787              		.loc 1 379 0
 4788 1512 281D     		adds	r0, r5, #4
 4789 1514 1FED720A 		flds	s0, .L229+4
 4790 1518 FFF7FEFF 		bl	utils_truncate_number
 4791              	.LVL532:
 4792              		.loc 1 380 0
 4793 151c 1FED740A 		flds	s0, .L229+4
 4794 1520 5FED740A 		flds	s1, .L229+8
 4795 1524 05F10800 		add	r0, r5, #8
 4796 1528 FFF7FEFF 		bl	utils_truncate_number
 4797              	.LVL533:
 4798              		.loc 1 383 0
 4799 152c 1FED780A 		flds	s0, .L229+4
 4800 1530 5FED780A 		flds	s1, .L229+8
 4801 1534 05F10C00 		add	r0, r5, #12
 4802 1538 FFF7FEFF 		bl	utils_truncate_number
 4803              	.LVL534:
 4804              		.loc 1 384 0
 4805 153c 1FED7C0A 		flds	s0, .L229+4
 4806 1540 5FED7C0A 		flds	s1, .L229+8
 4807 1544 05F11000 		add	r0, r5, #16
 4808 1548 FFF7FEFF 		bl	utils_truncate_number
 4809              	.LVL535:
 4810              		.loc 1 387 0
 4811 154c 1FED790A 		flds	s0, .L229+32
 4812 1550 5FED7F0A 		flds	s1, .L229+12
 4813 1554 05F11400 		add	r0, r5, #20
 4814 1558 FFF7FEFF 		bl	utils_truncate_number
 4815              	.LVL536:
 4816              		.loc 1 390 0
 4817 155c B1EE080A 		fconsts	s0, #24
 4818 1560 5FED820A 		flds	s1, .L229+16
 4819 1564 05F13000 		add	r0, r5, #48
 4820 1568 FFF7FEFF 		bl	utils_truncate_number
 4821              	.LVL537:
 4822              		.loc 1 391 0
 4823 156c B1EE080A 		fconsts	s0, #24
 4824 1570 5FED860A 		flds	s1, .L229+16
 4825 1574 05F12C00 		add	r0, r5, #44
 4826 1578 FFF7FEFF 		bl	utils_truncate_number
 4827              	.LVL538:
 4828              		.loc 1 394 0
 4829 157c 1FED880A 		flds	s0, .L229+20
 4830 1580 5FED880A 		flds	s1, .L229+24
 4831 1584 05F11C00 		add	r0, r5, #28
 4832 1588 FFF7FEFF 		bl	utils_truncate_number
 4833              	.LVL539:
 4834              		.loc 1 395 0
 4835 158c 1FED8C0A 		flds	s0, .L229+20
 4836 1590 5FED8C0A 		flds	s1, .L229+24
 4837 1594 05F11800 		add	r0, r5, #24
 4838 1598 FFF7FEFF 		bl	utils_truncate_number
 4839              	.LVL540:
ARM GAS  /tmp/ccTQOGyd.s 			page 86


 4840              		.loc 1 398 0
 4841 159c 1FED8D0A 		flds	s0, .L229+32
 4842 15a0 5FED8F0A 		flds	s1, .L229+28
 4843 15a4 05F15400 		add	r0, r5, #84
 4844 15a8 FFF7FEFF 		bl	utils_truncate_number
 4845              	.LVL541:
 4846              		.loc 1 401 0
 4847 15ac 1FED910A 		flds	s0, .L229+32
 4848 15b0 5FED910A 		flds	s1, .L229+36
 4849 15b4 05F15800 		add	r0, r5, #88
 4850 15b8 FFF7FEFF 		bl	utils_truncate_number
 4851              	.LVL542:
 4852              		.loc 1 404 0
 4853 15bc 1FED930A 		flds	s0, .L229+40
 4854 15c0 5FED930A 		flds	s1, .L229+44
 4855 15c4 05F14000 		add	r0, r5, #64
 4856 15c8 FFF7FEFF 		bl	utils_truncate_number
 4857              	.LVL543:
 4858              		.loc 1 405 0
 4859 15cc 1FED970A 		flds	s0, .L229+40
 4860 15d0 5FED970A 		flds	s1, .L229+44
 4861 15d4 05F14400 		add	r0, r5, #68
 4862 15d8 FFF7FEFF 		bl	utils_truncate_number
 4863              	.LVL544:
 4864              		.loc 1 409 0
 4865 15dc 2846     		mov	r0, r5
 4866 15de FFF7FEFF 		bl	conf_general_store_mc_configuration
 4867              	.LVL545:
 4868              		.loc 1 410 0
 4869 15e2 2846     		mov	r0, r5
 4870 15e4 FFF7FEFF 		bl	mc_interface_set_configuration
 4871              	.LVL546:
 4872              		.loc 1 411 0
 4873 15e8 4FF4FA60 		mov	r0, #2000
 4874 15ec FFF7FEFF 		bl	chThdSleep
 4875              	.LVL547:
 4876              	.LBB164:
 4877              	.LBB165:
 4878              		.loc 1 91 0
 4879 15f0 434B     		ldr	r3, .L232
 4880              	.LBE165:
 4881              	.LBE164:
 4882              		.loc 1 414 0
 4883 15f2 4448     		ldr	r0, .L232+4
 4884              	.LBB168:
 4885              	.LBB166:
 4886              		.loc 1 91 0
 4887 15f4 1B68     		ldr	r3, [r3]
 4888              	.LBE166:
 4889              	.LBE168:
 4890              		.loc 1 414 0
 4891 15f6 0D22     		movs	r2, #13
 4892 15f8 0121     		movs	r1, #1
 4893 15fa 0270     		strb	r2, [r0]
 4894              	.LVL548:
 4895 15fc 0291     		str	r1, [sp, #8]
 4896              	.LBB169:
ARM GAS  /tmp/ccTQOGyd.s 			page 87


 4897              	.LBB167:
 4898              		.loc 1 91 0
 4899 15fe 002B     		cmp	r3, #0
 4900 1600 7FF442A8 		bne	.L200
 4901 1604 FEF784BD 		b	.L82
 4902              	.LVL549:
 4903              	.L95:
 4904              	.LBE167:
 4905              	.LBE169:
 4906              		.loc 1 225 0
 4907 1608 02A9     		add	r1, sp, #8
 4908 160a 2046     		mov	r0, r4
 4909              	.LVL550:
 4910 160c FFF7FEFF 		bl	buffer_get_int32
 4911              	.LVL551:
 4912 1610 06EE900A 		fmsr	s13, r0	@ int
 4913 1614 DFED3C7A 		flds	s15, .L232+8
 4914 1618 B8EEE60A 		fsitos	s0, s13
 4915 161c 80EE270A 		fdivs	s0, s0, s15
 4916 1620 FFF7FEFF 		bl	mc_interface_set_pid_pos
 4917              	.LVL552:
 4918              		.loc 1 226 0
 4919 1624 FFF7FEFF 		bl	timeout_reset
 4920              	.LVL553:
 4921              		.loc 1 227 0
 4922 1628 FEF772BD 		b	.L82
 4923              	.LVL554:
 4924              	.L94:
 4925              		.loc 1 219 0
 4926 162c 02A9     		add	r1, sp, #8
 4927 162e 2046     		mov	r0, r4
 4928              	.LVL555:
 4929 1630 FFF7FEFF 		bl	buffer_get_int32
 4930              	.LVL556:
 4931 1634 07EE100A 		fmsr	s14, r0	@ int
 4932 1638 B8EEC70A 		fsitos	s0, s14
 4933 163c FFF7FEFF 		bl	mc_interface_set_pid_speed
 4934              	.LVL557:
 4935              		.loc 1 220 0
 4936 1640 FFF7FEFF 		bl	timeout_reset
 4937              	.LVL558:
 4938              		.loc 1 221 0
 4939 1644 FEF764BD 		b	.L82
 4940              	.LVL559:
 4941              	.L211:
 4942 1648 9DED030A 		flds	s0, [sp, #12]
 4943 164c FEF742BD 		b	.L128
 4944              	.LVL560:
 4945              	.L213:
 4946 1650 9DED040A 		flds	s0, [sp, #16]
 4947 1654 FEF770BE 		b	.L132
 4948              	.LVL561:
 4949              	.L212:
 4950              		.loc 1 243 0
 4951 1658 FFF7FEFF 		bl	mc_interface_release_motor
 4952              	.LVL562:
 4953 165c FEF774BD 		b	.L110
ARM GAS  /tmp/ccTQOGyd.s 			page 88


 4954              	.LVL563:
 4955              	.L215:
 4956              		.loc 1 421 0
 4957 1660 FFF7FEFF 		bl	mc_interface_get_configuration
 4958              	.LVL564:
 4959 1664 4FF4BA72 		mov	r2, #372
 4960 1668 0146     		mov	r1, r0
 4961 166a 2848     		ldr	r0, .L232+12
 4962 166c FFF7FEFF 		bl	memcpy
 4963              	.LVL565:
 4964 1670 FFF7C9BA 		b	.L124
 4965              	.LVL566:
 4966              	.L214:
 4967              		.loc 1 624 0
 4968 1674 FFF7FEFF 		bl	app_get_configuration
 4969              	.LVL567:
 4970 1678 04AC     		add	r4, sp, #16
 4971              	.LVL568:
 4972 167a 0146     		mov	r1, r0
 4973 167c C822     		movs	r2, #200
 4974 167e 2046     		mov	r0, r4
 4975 1680 FFF7FEFF 		bl	memcpy
 4976              	.LVL569:
 4977 1684 FFF7C0B8 		b	.L126
 4978              	.LVL570:
 4979              	.L136:
 4980              	.LBB170:
 4981              	.LBB119:
 4982              	.LBB118:
 4983              		.loc 1 91 0
 4984 1688 D9F80030 		ldr	r3, [r9]
 4985 168c 002B     		cmp	r3, #0
 4986 168e 7EF41AAE 		bne	.L204
 4987 1692 FEF73DBD 		b	.L82
 4988              	.LVL571:
 4989              	.L135:
 4990              	.LBE118:
 4991              	.LBE119:
 4992              	.LBE170:
 4993              		.loc 1 752 0
 4994 1696 36AD     		add	r5, sp, #216
 4995              	.LVL572:
 4996 1698 0123     		movs	r3, #1
 4997 169a 45F8D03D 		str	r3, [r5, #-208]!
 4998 169e 194C     		ldr	r4, .L232+4
 4999              	.LVL573:
 5000              		.loc 1 753 0
 5001 16a0 9FED1B0A 		flds	s0, .L232+16
 5002 16a4 DFED180A 		flds	s1, .L232+8
 5003              		.loc 1 752 0
 5004 16a8 1B23     		movs	r3, #27
 5005              		.loc 1 753 0
 5006 16aa 2946     		mov	r1, r5
 5007 16ac 2046     		mov	r0, r4
 5008              		.loc 1 752 0
 5009 16ae 2370     		strb	r3, [r4]
 5010              		.loc 1 753 0
ARM GAS  /tmp/ccTQOGyd.s 			page 89


 5011 16b0 FFF7FEFF 		bl	buffer_append_float32
 5012              	.LVL574:
 5013              		.loc 1 754 0
 5014 16b4 2946     		mov	r1, r5
 5015 16b6 2046     		mov	r0, r4
 5016 16b8 9FED160A 		flds	s0, .L232+20
 5017 16bc DFED120A 		flds	s1, .L232+8
 5018 16c0 FFF7FEFF 		bl	buffer_append_float32
 5019              	.LVL575:
 5020              	.LBB171:
 5021              	.LBB172:
 5022              		.loc 1 91 0
 5023 16c4 0E4B     		ldr	r3, .L232
 5024              	.LBE172:
 5025              	.LBE171:
 5026              		.loc 1 755 0
 5027 16c6 0299     		ldr	r1, [sp, #8]
 5028              	.LBB175:
 5029              	.LBB173:
 5030              		.loc 1 91 0
 5031 16c8 1B68     		ldr	r3, [r3]
 5032              	.LBE173:
 5033              	.LBE175:
 5034              		.loc 1 755 0
 5035 16ca 6654     		strb	r6, [r4, r1]
 5036              	.LVL576:
 5037 16cc 0131     		adds	r1, r1, #1
 5038              	.LVL577:
 5039 16ce 0291     		str	r1, [sp, #8]
 5040              	.LBB176:
 5041              	.LBB174:
 5042              		.loc 1 91 0
 5043 16d0 002B     		cmp	r3, #0
 5044 16d2 7EF41BAD 		bne	.L201
 5045 16d6 FEF71BBD 		b	.L82
 5046              	.LVL578:
 5047              	.L139:
 5048              	.LBE174:
 5049              	.LBE176:
 5050              	.LBB177:
 5051              	.LBB113:
 5052              	.LBB114:
 5053 16da 3C68     		ldr	r4, [r7]
 5054 16dc 002C     		cmp	r4, #0
 5055 16de 3EF417AD 		beq	.L82
 5056              		.loc 1 92 0
 5057 16e2 1846     		mov	r0, r3
 5058 16e4 1146     		mov	r1, r2
 5059 16e6 A047     		blx	r4
 5060              	.LVL579:
 5061 16e8 FEF712BD 		b	.L82
 5062              	.LVL580:
 5063              	.L138:
 5064              	.LBE114:
 5065              	.LBE113:
 5066              	.LBE177:
 5067              		.loc 1 795 0
ARM GAS  /tmp/ccTQOGyd.s 			page 90


 5068 16ec 054B     		ldr	r3, .L232+4
 5069 16ee 0822     		movs	r2, #8
 5070 16f0 FF21     		movs	r1, #255
 5071 16f2 1846     		mov	r0, r3
 5072 16f4 FFF7FEFF 		bl	memset
 5073              	.LVL581:
 5074              		.loc 1 797 0
 5075 16f8 0022     		movs	r2, #0
 5076 16fa 4272     		strb	r2, [r0, #9]
 5077 16fc FEF708BD 		b	.L82
 5078              	.L233:
 5079              		.align	2
 5080              	.L232:
 5081 1700 00000000 		.word	.LANCHOR10
 5082 1704 00000000 		.word	.LANCHOR8
 5083 1708 00247449 		.word	1232348160
 5084 170c 00000000 		.word	.LANCHOR15
 5085 1710 00407A44 		.word	1148862464
 5086 1714 00000000 		.word	0
 5087              		.cfi_endproc
 5088              	.LFE259:
 5089              		.size	commands_process_packet, .-commands_process_packet
 5090 1718 AFF30080 		.section	.bss.send_func,"aw",%nobits
 5090      AFF30080 
 5091              		.align	2
 5092              		.set	.LANCHOR10,. + 0
 5093              		.type	send_func, %object
 5094              		.size	send_func, 4
 5095              	send_func:
 5096 0000 00000000 		.space	4
 5097              		.section	.bss.detect_min_rpm,"aw",%nobits
 5098              		.align	2
 5099              		.set	.LANCHOR2,. + 0
 5100              		.type	detect_min_rpm, %object
 5101              		.size	detect_min_rpm, 4
 5102              	detect_min_rpm:
 5103 0000 00000000 		.space	4
 5104              		.section	.bss.appdata_func,"aw",%nobits
 5105              		.align	2
 5106              		.set	.LANCHOR14,. + 0
 5107              		.type	appdata_func, %object
 5108              		.size	appdata_func, 4
 5109              	appdata_func:
 5110 0000 00000000 		.space	4
 5111              		.section	.bss.detect_hall_table,"aw",%nobits
 5112              		.align	2
 5113              		.set	.LANCHOR6,. + 0
 5114              		.type	detect_hall_table, %object
 5115              		.size	detect_hall_table, 8
 5116              	detect_hall_table:
 5117 0000 00000000 		.space	8
 5117      00000000 
 5118              		.section	.bss.print_buffer.11487,"aw",%nobits
 5119              		.align	2
 5120              		.set	.LANCHOR12,. + 0
 5121              		.type	print_buffer.11487, %object
 5122              		.size	print_buffer.11487, 255
ARM GAS  /tmp/ccTQOGyd.s 			page 91


 5123              	print_buffer.11487:
 5124 0000 00000000 		.space	255
 5124      00000000 
 5124      00000000 
 5124      00000000 
 5124      00000000 
 5125 00ff 00       		.section	.bss.mcconf_old.11419,"aw",%nobits
 5126              		.align	2
 5127              		.set	.LANCHOR16,. + 0
 5128              		.type	mcconf_old.11419, %object
 5129              		.size	mcconf_old.11419, 372
 5130              	mcconf_old.11419:
 5131 0000 00000000 		.space	372
 5131      00000000 
 5131      00000000 
 5131      00000000 
 5131      00000000 
 5132              		.section	.bss.detect_hall_res,"aw",%nobits
 5133              		.align	2
 5134              		.set	.LANCHOR7,. + 0
 5135              		.type	detect_hall_res, %object
 5136              		.size	detect_hall_res, 4
 5137              	detect_hall_res:
 5138 0000 00000000 		.space	4
 5139              		.section	.bss.detect_thread_wa,"aw",%nobits
 5140              		.align	3
 5141              		.set	.LANCHOR11,. + 0
 5142              		.type	detect_thread_wa, %object
 5143              		.size	detect_thread_wa, 2456
 5144              	detect_thread_wa:
 5145 0000 00000000 		.space	2456
 5145      00000000 
 5145      00000000 
 5145      00000000 
 5145      00000000 
 5146              		.section	.bss.send_buffer,"aw",%nobits
 5147              		.align	2
 5148              		.set	.LANCHOR8,. + 0
 5149              		.type	send_buffer, %object
 5150              		.size	send_buffer, 1024
 5151              	send_buffer:
 5152 0000 00000000 		.space	1024
 5152      00000000 
 5152      00000000 
 5152      00000000 
 5152      00000000 
 5153              		.section	.rodata.str1.4,"aMS",%progbits,1
 5154              		.align	2
 5155              	.LC0:
 5156 0000 44657465 		.ascii	"Detect\000"
 5156      637400
 5157 0007 00       		.space	1
 5158              	.LC1:
 5159 0008 34313000 		.ascii	"410\000"
 5160              		.section	.bss.detect_tp,"aw",%nobits
 5161              		.align	2
 5162              		.set	.LANCHOR0,. + 0
ARM GAS  /tmp/ccTQOGyd.s 			page 92


 5163              		.type	detect_tp, %object
 5164              		.size	detect_tp, 4
 5165              	detect_tp:
 5166 0000 00000000 		.space	4
 5167              		.section	.bss.detect_low_duty,"aw",%nobits
 5168              		.align	2
 5169              		.set	.LANCHOR3,. + 0
 5170              		.type	detect_low_duty, %object
 5171              		.size	detect_low_duty, 4
 5172              	detect_low_duty:
 5173 0000 00000000 		.space	4
 5174              		.section	.bss.mcconf.11418,"aw",%nobits
 5175              		.align	2
 5176              		.set	.LANCHOR15,. + 0
 5177              		.type	mcconf.11418, %object
 5178              		.size	mcconf.11418, 372
 5179              	mcconf.11418:
 5180 0000 00000000 		.space	372
 5180      00000000 
 5180      00000000 
 5180      00000000 
 5180      00000000 
 5181              		.section	.bss.detect_current,"aw",%nobits
 5182              		.align	2
 5183              		.set	.LANCHOR1,. + 0
 5184              		.type	detect_current, %object
 5185              		.size	detect_current, 4
 5186              	detect_current:
 5187 0000 00000000 		.space	4
 5188              		.section	.bss.detect_coupling_k,"aw",%nobits
 5189              		.align	2
 5190              		.set	.LANCHOR5,. + 0
 5191              		.type	detect_coupling_k, %object
 5192              		.size	detect_coupling_k, 4
 5193              	detect_coupling_k:
 5194 0000 00000000 		.space	4
 5195              		.section	.bss.send_func_last,"aw",%nobits
 5196              		.align	2
 5197              		.set	.LANCHOR9,. + 0
 5198              		.type	send_func_last, %object
 5199              		.size	send_func_last, 4
 5200              	send_func_last:
 5201 0000 00000000 		.space	4
 5202              		.section	.bss.detect_cycle_int_limit,"aw",%nobits
 5203              		.align	2
 5204              		.set	.LANCHOR4,. + 0
 5205              		.type	detect_cycle_int_limit, %object
 5206              		.size	detect_cycle_int_limit, 4
 5207              	detect_cycle_int_limit:
 5208 0000 00000000 		.space	4
 5209              		.section	.bss.display_position_mode,"aw",%nobits
 5210              		.set	.LANCHOR13,. + 0
 5211              		.type	display_position_mode, %object
 5212              		.size	display_position_mode, 1
 5213              	display_position_mode:
 5214 0000 00       		.space	1
 5215              		.text
ARM GAS  /tmp/ccTQOGyd.s 			page 93


 5216              	.Letext0:
 5217              		.file 4 "/usr/include/newlib/machine/_default_types.h"
 5218              		.file 5 "/usr/include/newlib/stdint.h"
 5219              		.file 6 "/usr/lib/gcc/arm-none-eabi/4.8/include/stddef.h"
 5220              		.file 7 "ChibiOS_3.0.2/os/rt/ports/ARMCMx/compilers/GCC/chtypes.h"
 5221              		.file 8 "ChibiOS_3.0.2/os/rt/include/chsystypes.h"
 5222              		.file 9 "ChibiOS_3.0.2/os/rt/include/chschd.h"
 5223              		.file 10 "ChibiOS_3.0.2/os/rt/ports/ARMCMx/chcore.h"
 5224              		.file 11 "ChibiOS_3.0.2/os/rt/ports/ARMCMx/chcore_v7m.h"
 5225              		.file 12 "ChibiOS_3.0.2/os/rt/include/chtm.h"
 5226              		.file 13 "ChibiOS_3.0.2/os/rt/include/chsem.h"
 5227              		.file 14 "ChibiOS_3.0.2/os/rt/include/chmtx.h"
 5228              		.file 15 "ChibiOS_3.0.2/os/rt/include/chthreads.h"
 5229              		.file 16 "datatypes.h"
 5230              		.file 17 "ChibiOS_3.0.2/ext/stdperiph_stm32f4/inc/stm32f4xx_flash.h"
 5231              		.file 18 "/usr/lib/gcc/arm-none-eabi/4.8/include/stdarg.h"
 5232              		.file 19 "<built-in>"
 5233              		.file 20 "ChibiOS_3.0.2/os/ext/CMSIS/include/core_cm4.h"
 5234              		.file 21 "mc_interface.h"
 5235              		.file 22 "ChibiOS_3.0.2/os/rt/include/chevents.h"
 5236              		.file 23 "./conf_general.h"
 5237              		.file 24 "buffer.h"
 5238              		.file 25 "/usr/include/newlib/stdio.h"
 5239              		.file 26 "mcpwm_foc.h"
 5240              		.file 27 "mcpwm.h"
 5241              		.file 28 "timeout.h"
 5242              		.file 29 "encoder.h"
 5243              		.file 30 "flash_helper.h"
 5244              		.file 31 "nrf/nrf_driver.h"
 5245              		.file 32 "applications/app.h"
 5246              		.file 33 "comm_can.h"
 5247              		.file 34 "servo_dec.h"
 5248              		.file 35 "terminal.h"
 5249              		.file 36 "utils.h"
 5250              		.file 37 "/usr/include/newlib/string.h"