ARM GAS  /tmp/ccTQOGyd.s 			page 1


   1              		.syntax unified
   2              		.cpu cortex-m4
   3              		.eabi_attribute 27, 3
   4              		.eabi_attribute 28, 1
   5              		.fpu fpv4-sp-d16
   6              		.eabi_attribute 20, 1
   7              		.eabi_attribute 21, 1
   8              		.eabi_attribute 23, 3
   9              		.eabi_attribute 24, 1
  10              		.eabi_attribute 25, 1
  11              		.eabi_attribute 26, 1
  12              		.eabi_attribute 30, 2
  13              		.eabi_attribute 34, 1
  14              		.eabi_attribute 18, 4
  15              		.thumb
  16              		.file	"commands.c"
  17              		.text
  18              	.Ltext0:
  19              		.cfi_sections	.debug_frame
  20              		.section	.text.detect_thread,"ax",%progbits
  21              		.align	2
  22              		.p2align 4,,15
  23              		.thumb
  24              		.thumb_func
  25              		.type	detect_thread, %function
  26              	detect_thread:
  27              	.LFB268:
  28              		.file 1 "commands.c"
  29              		.loc 1 1023 0
  30              		.cfi_startproc
  31              		@ args = 0, pretend = 0, frame = 8
  32              		@ frame_needed = 0, uses_anonymous_args = 0
  33              	.LVL0:
  34 0000 2DE9F04F 		push	{r4, r5, r6, r7, r8, r9, r10, fp, lr}
  35              		.cfi_def_cfa_offset 36
  36              		.cfi_offset 4, -36
  37              		.cfi_offset 5, -32
  38              		.cfi_offset 6, -28
  39              		.cfi_offset 7, -24
  40              		.cfi_offset 8, -20
  41              		.cfi_offset 9, -16
  42              		.cfi_offset 10, -12
  43              		.cfi_offset 11, -8
  44              		.cfi_offset 14, -4
  45              	.LBB63:
  46              	.LBB64:
  47              		.file 2 "ChibiOS_3.0.2/os/rt/include/chregistry.h"
  48              		.loc 2 135 0
  49 0004 334B     		ldr	r3, .L11
  50              	.LBE64:
  51              	.LBE63:
  52              		.loc 1 1028 0
  53 0006 344A     		ldr	r2, .L11+4
  54              	.LBB67:
  55              	.LBB65:
  56              		.loc 2 135 0
  57 0008 9B69     		ldr	r3, [r3, #24]
ARM GAS  /tmp/ccTQOGyd.s 			page 2


  58 000a 3449     		ldr	r1, .L11+8
  59 000c DFF8F4B0 		ldr	fp, .L11+48
  60 0010 DFF8F4A0 		ldr	r10, .L11+52
  61 0014 DFF8F490 		ldr	r9, .L11+56
  62 0018 DFF8D880 		ldr	r8, .L11+32
  63 001c 304C     		ldr	r4, .L11+12
  64 001e 314F     		ldr	r7, .L11+16
  65              	.LBE65:
  66              	.LBE67:
  67              	.LBB68:
  68              		.loc 1 1033 0
  69 0020 314E     		ldr	r6, .L11+20
  70              	.LBE68:
  71              		.loc 1 1023 0
  72 0022 2DED028B 		fstmfdd	sp!, {d8}
  73              		.cfi_def_cfa_offset 44
  74              		.cfi_offset 80, -44
  75              	.LBB71:
  76              		.loc 1 1036 0
  77 0026 DFED318A 		flds	s17, .L11+24
  78 002a 9FED318A 		flds	s16, .L11+28
  79              	.LBE71:
  80              	.LBB72:
  81              	.LBB66:
  82              		.loc 2 135 0
  83 002e 9961     		str	r1, [r3, #24]
  84              	.LBE66:
  85              	.LBE72:
  86              		.loc 1 1023 0
  87 0030 83B0     		sub	sp, sp, #12
  88              		.cfi_def_cfa_offset 56
  89              		.loc 1 1028 0
  90 0032 1360     		str	r3, [r2]
  91              	.LVL1:
  92              	.L6:
  93              	.LBB73:
  94              		.loc 1 1033 0
  95 0034 2F4D     		ldr	r5, .L11+32
  96              		.loc 1 1031 0
  97 0036 0120     		movs	r0, #1
  98 0038 FFF7FEFF 		bl	chEvtWaitAny
  99              	.LVL2:
 100              		.loc 1 1033 0
 101 003c 2946     		mov	r1, r5
 102 003e 9BED000A 		flds	s0, [fp]
 103 0042 DAED000A 		flds	s1, [r10]
 104 0046 99ED001A 		flds	s2, [r9]
 105 004a 2748     		ldr	r0, .L11+20
 106 004c 2A4A     		ldr	r2, .L11+36
 107 004e 254B     		ldr	r3, .L11+16
 108 0050 FFF7FEFF 		bl	conf_general_detect_motor_param
 109              	.LVL3:
 110 0054 78B3     		cbz	r0, .L2
 111 0056 D6ED007A 		flds	s15, [r6]
 112 005a 67EE887A 		fmuls	s15, s15, s16
 113 005e FDEEE77A 		ftosizs	s15, s15
 114 0062 17EE901A 		fmrs	r1, s15	@ int
ARM GAS  /tmp/ccTQOGyd.s 			page 3


 115              	.L3:
 116              		.loc 1 1041 0
 117 0066 0122     		movs	r2, #1
 118 0068 1823     		movs	r3, #24
 119              		.loc 1 1042 0
 120 006a 1D48     		ldr	r0, .L11+12
 121              		.loc 1 1041 0
 122 006c 0192     		str	r2, [sp, #4]
 123              		.loc 1 1042 0
 124 006e 01AA     		add	r2, sp, #4
 125              		.loc 1 1041 0
 126 0070 2370     		strb	r3, [r4]
 127              		.loc 1 1042 0
 128 0072 FFF7FEFF 		bl	buffer_append_int32
 129              	.LVL4:
 130              		.loc 1 1043 0
 131 0076 D8ED007A 		flds	s15, [r8]
 132 007a 1948     		ldr	r0, .L11+12
 133 007c 67EE887A 		fmuls	s15, s15, s16
 134 0080 01AA     		add	r2, sp, #4
 135 0082 FDEEE77A 		ftosizs	s15, s15
 136 0086 17EE901A 		fmrs	r1, s15	@ int
 137 008a FFF7FEFF 		bl	buffer_append_int32
 138              	.LVL5:
 139              		.loc 1 1048 0
 140 008e 1B49     		ldr	r1, .L11+40
 141              		.loc 1 1044 0
 142 0090 194B     		ldr	r3, .L11+36
 143 0092 019A     		ldr	r2, [sp, #4]
 144              		.loc 1 1048 0
 145 0094 0D68     		ldr	r5, [r1]
 146              		.loc 1 1044 0
 147 0096 03CB     		ldmia	r3!, {r0, r1}
 148 0098 04EB020E 		add	lr, r4, r2
 149 009c A050     		str	r0, [r4, r2]	@ unaligned
 150              		.loc 1 1046 0
 151 009e 3B68     		ldr	r3, [r7]
 152              		.loc 1 1044 0
 153 00a0 CEF80410 		str	r1, [lr, #4]	@ unaligned
 154              		.loc 1 1046 0
 155 00a4 0932     		adds	r2, r2, #9
 156              		.loc 1 1049 0
 157 00a6 0E48     		ldr	r0, .L11+12
 158              		.loc 1 1046 0
 159 00a8 0192     		str	r2, [sp, #4]
 160              		.loc 1 1049 0
 161 00aa 1146     		mov	r1, r2
 162              		.loc 1 1046 0
 163 00ac 8EF80830 		strb	r3, [lr, #8]
 164              		.loc 1 1048 0
 165 00b0 3DB1     		cbz	r5, .L4
 166              		.loc 1 1049 0
 167 00b2 A847     		blx	r5
 168              	.LVL6:
 169 00b4 BEE7     		b	.L6
 170              	.L2:
 171              		.loc 1 1036 0
ARM GAS  /tmp/ccTQOGyd.s 			page 4


 172 00b6 C6ED008A 		fsts	s17, [r6]
 173              		.loc 1 1037 0
 174 00ba C5ED008A 		fsts	s17, [r5]
 175 00be 0146     		mov	r1, r0
 176 00c0 D1E7     		b	.L3
 177              	.L4:
 178              	.LVL7:
 179              	.LBB69:
 180              	.LBB70:
 181              		.loc 1 91 0
 182 00c2 0F49     		ldr	r1, .L11+44
 183              	.LVL8:
 184              		.loc 1 92 0
 185 00c4 0648     		ldr	r0, .L11+12
 186              		.loc 1 91 0
 187 00c6 0B68     		ldr	r3, [r1]
 188              		.loc 1 92 0
 189 00c8 1146     		mov	r1, r2
 190              		.loc 1 91 0
 191 00ca 002B     		cmp	r3, #0
 192 00cc B2D0     		beq	.L6
 193              	.LVL9:
 194              		.loc 1 92 0
 195 00ce 9847     		blx	r3
 196              	.LVL10:
 197              	.LBE70:
 198              	.LBE69:
 199              	.LBE73:
 200              		.loc 1 1053 0
 201 00d0 B0E7     		b	.L6
 202              	.L12:
 203 00d2 00BF     		.align	2
 204              	.L11:
 205 00d4 00000000 		.word	ch
 206 00d8 00000000 		.word	.LANCHOR0
 207 00dc 00000000 		.word	.LC0
 208 00e0 00000000 		.word	.LANCHOR8
 209 00e4 00000000 		.word	.LANCHOR7
 210 00e8 00000000 		.word	.LANCHOR4
 211 00ec 00000000 		.word	0
 212 00f0 00007A44 		.word	1148846080
 213 00f4 00000000 		.word	.LANCHOR5
 214 00f8 00000000 		.word	.LANCHOR6
 215 00fc 00000000 		.word	.LANCHOR9
 216 0100 00000000 		.word	.LANCHOR10
 217 0104 00000000 		.word	.LANCHOR1
 218 0108 00000000 		.word	.LANCHOR2
 219 010c 00000000 		.word	.LANCHOR3
 220              		.cfi_endproc
 221              	.LFE268:
 222              		.size	detect_thread, .-detect_thread
 223              		.section	.text.commands_init,"ax",%progbits
 224              		.align	2
 225              		.p2align 4,,15
 226              		.global	commands_init
 227              		.thumb
 228              		.thumb_func
ARM GAS  /tmp/ccTQOGyd.s 			page 5


 229              		.type	commands_init, %function
 230              	commands_init:
 231              	.LFB256:
 232              		.loc 1 67 0
 233              		.cfi_startproc
 234              		@ args = 0, pretend = 0, frame = 0
 235              		@ frame_needed = 0, uses_anonymous_args = 0
 236 0000 00B5     		push	{lr}
 237              		.cfi_def_cfa_offset 4
 238              		.cfi_offset 14, -4
 239 0002 83B0     		sub	sp, sp, #12
 240              		.cfi_def_cfa_offset 16
 241              		.loc 1 68 0
 242 0004 0023     		movs	r3, #0
 243 0006 0093     		str	r3, [sp]
 244 0008 40F69811 		movw	r1, #2456
 245 000c 034B     		ldr	r3, .L14
 246 000e 0448     		ldr	r0, .L14+4
 247 0010 4022     		movs	r2, #64
 248 0012 FFF7FEFF 		bl	chThdCreateStatic
 249              	.LVL11:
 250              		.loc 1 69 0
 251 0016 03B0     		add	sp, sp, #12
 252              		@ sp needed
 253 0018 5DF804FB 		ldr	pc, [sp], #4
 254              	.L15:
 255              		.align	2
 256              	.L14:
 257 001c 00000000 		.word	detect_thread
 258 0020 00000000 		.word	.LANCHOR11
 259              		.cfi_endproc
 260              	.LFE256:
 261              		.size	commands_init, .-commands_init
 262 0024 AFF30080 		.section	.text.commands_set_send_func,"ax",%progbits
 262      AFF30080 
 262      AFF30080 
 263              		.align	2
 264              		.p2align 4,,15
 265              		.global	commands_set_send_func
 266              		.thumb
 267              		.thumb_func
 268              		.type	commands_set_send_func, %function
 269              	commands_set_send_func:
 270              	.LFB257:
 271              		.loc 1 77 0
 272              		.cfi_startproc
 273              		@ args = 0, pretend = 0, frame = 0
 274              		@ frame_needed = 0, uses_anonymous_args = 0
 275              		@ link register save eliminated.
 276              	.LVL12:
 277              		.loc 1 78 0
 278 0000 014B     		ldr	r3, .L17
 279 0002 1860     		str	r0, [r3]
 280 0004 7047     		bx	lr
 281              	.L18:
 282 0006 00BF     		.align	2
 283              	.L17:
ARM GAS  /tmp/ccTQOGyd.s 			page 6


 284 0008 00000000 		.word	.LANCHOR10
 285              		.cfi_endproc
 286              	.LFE257:
 287              		.size	commands_set_send_func, .-commands_set_send_func
 288 000c AFF30080 		.section	.text.commands_send_packet,"ax",%progbits
 289              		.align	2
 290              		.p2align 4,,15
 291              		.global	commands_send_packet
 292              		.thumb
 293              		.thumb_func
 294              		.type	commands_send_packet, %function
 295              	commands_send_packet:
 296              	.LFB258:
 297              		.loc 1 90 0
 298              		.cfi_startproc
 299              		@ args = 0, pretend = 0, frame = 0
 300              		@ frame_needed = 0, uses_anonymous_args = 0
 301              	.LVL13:
 302 0000 08B5     		push	{r3, lr}
 303              		.cfi_def_cfa_offset 8
 304              		.cfi_offset 3, -8
 305              		.cfi_offset 14, -4
 306              		.loc 1 91 0
 307 0002 024B     		ldr	r3, .L24
 308 0004 1B68     		ldr	r3, [r3]
 309 0006 03B1     		cbz	r3, .L19
 310              		.loc 1 92 0
 311 0008 9847     		blx	r3
 312              	.LVL14:
 313              	.L19:
 314 000a 08BD     		pop	{r3, pc}
 315              	.L25:
 316              		.align	2
 317              	.L24:
 318 000c 00000000 		.word	.LANCHOR10
 319              		.cfi_endproc
 320              	.LFE258:
 321              		.size	commands_send_packet, .-commands_send_packet
 322              		.section	.text.commands_printf,"ax",%progbits
 323              		.align	2
 324              		.p2align 4,,15
 325              		.global	commands_printf
 326              		.thumb
 327              		.thumb_func
 328              		.type	commands_printf, %function
 329              	commands_printf:
 330              	.LFB260:
 331              		.loc 1 874 0
 332              		.cfi_startproc
 333              		@ args = 4, pretend = 16, frame = 8
 334              		@ frame_needed = 0, uses_anonymous_args = 1
 335              	.LVL15:
 336 0000 0FB4     		push	{r0, r1, r2, r3}
 337              		.cfi_def_cfa_offset 16
 338              		.cfi_offset 0, -16
 339              		.cfi_offset 1, -12
 340              		.cfi_offset 2, -8
ARM GAS  /tmp/ccTQOGyd.s 			page 7


 341              		.cfi_offset 3, -4
 342 0002 00B5     		push	{lr}
 343              		.cfi_def_cfa_offset 20
 344              		.cfi_offset 14, -20
 345 0004 83B0     		sub	sp, sp, #12
 346              		.cfi_def_cfa_offset 32
 347              		.loc 1 874 0
 348 0006 04AB     		add	r3, sp, #16
 349              		.loc 1 880 0
 350 0008 0C48     		ldr	r0, .L33
 351              		.loc 1 874 0
 352 000a 53F8042B 		ldr	r2, [r3], #4
 353              		.loc 1 876 0
 354 000e 0193     		str	r3, [sp, #4]
 355              		.loc 1 880 0
 356 0010 1521     		movs	r1, #21
 357 0012 00F8011B 		strb	r1, [r0], #1
 358              		.loc 1 881 0
 359 0016 FE21     		movs	r1, #254
 360 0018 FFF7FEFF 		bl	vsnprintf
 361              	.LVL16:
 362              		.loc 1 884 0
 363 001c 0028     		cmp	r0, #0
 364 001e 08DD     		ble	.L26
 365              	.LVL17:
 366              	.LBB74:
 367              	.LBB75:
 368              		.loc 1 91 0
 369 0020 074B     		ldr	r3, .L33+4
 370 0022 1B68     		ldr	r3, [r3]
 371              	.LBE75:
 372              	.LBE74:
 373              		.loc 1 885 0
 374 0024 FD28     		cmp	r0, #253
 375 0026 D4BF     		ite	le
 376 0028 411C     		addle	r1, r0, #1
 377 002a FF21     		movgt	r1, #255
 378              	.LVL18:
 379              	.LBB77:
 380              	.LBB76:
 381              		.loc 1 91 0
 382 002c 0BB1     		cbz	r3, .L26
 383              		.loc 1 92 0
 384 002e 0348     		ldr	r0, .L33
 385              	.LVL19:
 386 0030 9847     		blx	r3
 387              	.LVL20:
 388              	.L26:
 389              	.LBE76:
 390              	.LBE77:
 391              		.loc 1 887 0
 392 0032 03B0     		add	sp, sp, #12
 393              		@ sp needed
 394 0034 5DF804EB 		ldr	lr, [sp], #4
 395 0038 04B0     		add	sp, sp, #16
 396 003a 7047     		bx	lr
 397              	.L34:
ARM GAS  /tmp/ccTQOGyd.s 			page 8


 398              		.align	2
 399              	.L33:
 400 003c 00000000 		.word	.LANCHOR12
 401 0040 00000000 		.word	.LANCHOR10
 402              		.cfi_endproc
 403              	.LFE260:
 404              		.size	commands_printf, .-commands_printf
 405 0044 AFF30080 		.section	.text.commands_send_rotor_pos,"ax",%progbits
 405      AFF30080 
 405      AFF30080 
 406              		.align	2
 407              		.p2align 4,,15
 408              		.global	commands_send_rotor_pos
 409              		.thumb
 410              		.thumb_func
 411              		.type	commands_send_rotor_pos, %function
 412              	commands_send_rotor_pos:
 413              	.LFB261:
 414              		.loc 1 889 0
 415              		.cfi_startproc
 416              		@ args = 0, pretend = 0, frame = 16
 417              		@ frame_needed = 0, uses_anonymous_args = 0
 418              	.LVL21:
 419 0000 10B5     		push	{r4, lr}
 420              		.cfi_def_cfa_offset 8
 421              		.cfi_offset 4, -8
 422              		.cfi_offset 14, -4
 423              		.loc 1 894 0
 424 0002 DFED0D7A 		flds	s15, .L40
 425              		.loc 1 889 0
 426 0006 84B0     		sub	sp, sp, #16
 427              		.cfi_def_cfa_offset 24
 428              		.loc 1 893 0
 429 0008 04AC     		add	r4, sp, #16
 430              		.loc 1 894 0
 431 000a 20EE270A 		fmuls	s0, s0, s15
 432              	.LVL22:
 433              		.loc 1 893 0
 434 000e 1623     		movs	r3, #22
 435 0010 04F8083D 		strb	r3, [r4, #-8]!
 436              		.loc 1 894 0
 437 0014 BDEEC00A 		ftosizs	s0, s0
 438              		.loc 1 893 0
 439 0018 0123     		movs	r3, #1
 440              		.loc 1 894 0
 441 001a 10EE101A 		fmrs	r1, s0	@ int
 442 001e 2046     		mov	r0, r4
 443 0020 01AA     		add	r2, sp, #4
 444              		.loc 1 893 0
 445 0022 0193     		str	r3, [sp, #4]
 446              		.loc 1 894 0
 447 0024 FFF7FEFF 		bl	buffer_append_int32
 448              	.LVL23:
 449              	.LBB78:
 450              	.LBB79:
 451              		.loc 1 91 0
 452 0028 044B     		ldr	r3, .L40+4
ARM GAS  /tmp/ccTQOGyd.s 			page 9


 453              	.LBE79:
 454              	.LBE78:
 455              		.loc 1 896 0
 456 002a 0199     		ldr	r1, [sp, #4]
 457              	.LVL24:
 458              	.LBB81:
 459              	.LBB80:
 460              		.loc 1 91 0
 461 002c 1B68     		ldr	r3, [r3]
 462 002e 0BB1     		cbz	r3, .L35
 463              		.loc 1 92 0
 464 0030 2046     		mov	r0, r4
 465 0032 9847     		blx	r3
 466              	.LVL25:
 467              	.L35:
 468              	.LBE80:
 469              	.LBE81:
 470              		.loc 1 897 0
 471 0034 04B0     		add	sp, sp, #16
 472              		@ sp needed
 473 0036 10BD     		pop	{r4, pc}
 474              	.LVL26:
 475              	.L41:
 476              		.align	2
 477              	.L40:
 478 0038 0050C347 		.word	1203982336
 479 003c 00000000 		.word	.LANCHOR10
 480              		.cfi_endproc
 481              	.LFE261:
 482              		.size	commands_send_rotor_pos, .-commands_send_rotor_pos
 483              		.section	.text.commands_send_rotor_pos_counts,"ax",%progbits
 484              		.align	2
 485              		.p2align 4,,15
 486              		.global	commands_send_rotor_pos_counts
 487              		.thumb
 488              		.thumb_func
 489              		.type	commands_send_rotor_pos_counts, %function
 490              	commands_send_rotor_pos_counts:
 491              	.LFB262:
 492              		.loc 1 899 0
 493              		.cfi_startproc
 494              		@ args = 0, pretend = 0, frame = 16
 495              		@ frame_needed = 0, uses_anonymous_args = 0
 496              	.LVL27:
 497 0000 10B5     		push	{r4, lr}
 498              		.cfi_def_cfa_offset 8
 499              		.cfi_offset 4, -8
 500              		.cfi_offset 14, -4
 501 0002 84B0     		sub	sp, sp, #16
 502              		.cfi_def_cfa_offset 24
 503              		.loc 1 903 0
 504 0004 04AC     		add	r4, sp, #16
 505 0006 2623     		movs	r3, #38
 506 0008 04F8083D 		strb	r3, [r4, #-8]!
 507              		.loc 1 899 0
 508 000c 0146     		mov	r1, r0
 509              		.loc 1 903 0
ARM GAS  /tmp/ccTQOGyd.s 			page 10


 510 000e 0123     		movs	r3, #1
 511              		.loc 1 904 0
 512 0010 2046     		mov	r0, r4
 513              	.LVL28:
 514 0012 01AA     		add	r2, sp, #4
 515              		.loc 1 903 0
 516 0014 0193     		str	r3, [sp, #4]
 517              		.loc 1 904 0
 518 0016 FFF7FEFF 		bl	buffer_append_int32
 519              	.LVL29:
 520              	.LBB82:
 521              	.LBB83:
 522              		.loc 1 91 0
 523 001a 044B     		ldr	r3, .L47
 524              	.LBE83:
 525              	.LBE82:
 526              		.loc 1 906 0
 527 001c 0199     		ldr	r1, [sp, #4]
 528              	.LVL30:
 529              	.LBB85:
 530              	.LBB84:
 531              		.loc 1 91 0
 532 001e 1B68     		ldr	r3, [r3]
 533 0020 0BB1     		cbz	r3, .L42
 534              		.loc 1 92 0
 535 0022 2046     		mov	r0, r4
 536 0024 9847     		blx	r3
 537              	.LVL31:
 538              	.L42:
 539              	.LBE84:
 540              	.LBE85:
 541              		.loc 1 907 0
 542 0026 04B0     		add	sp, sp, #16
 543              		@ sp needed
 544 0028 10BD     		pop	{r4, pc}
 545              	.LVL32:
 546              	.L48:
 547 002a 00BF     		.align	2
 548              	.L47:
 549 002c 00000000 		.word	.LANCHOR10
 550              		.cfi_endproc
 551              	.LFE262:
 552              		.size	commands_send_rotor_pos_counts, .-commands_send_rotor_pos_counts
 553              		.section	.text.commands_send_experiment_samples,"ax",%progbits
 554              		.align	2
 555              		.p2align 4,,15
 556              		.global	commands_send_experiment_samples
 557              		.thumb
 558              		.thumb_func
 559              		.type	commands_send_experiment_samples, %function
 560              	commands_send_experiment_samples:
 561              	.LFB263:
 562              		.loc 1 909 0
 563              		.cfi_startproc
 564              		@ args = 0, pretend = 0, frame = 8
 565              		@ frame_needed = 1, uses_anonymous_args = 0
 566              	.LVL33:
ARM GAS  /tmp/ccTQOGyd.s 			page 11


 567 0000 2DE9F043 		push	{r4, r5, r6, r7, r8, r9, lr}
 568              		.cfi_def_cfa_offset 28
 569              		.cfi_offset 4, -28
 570              		.cfi_offset 5, -24
 571              		.cfi_offset 6, -20
 572              		.cfi_offset 7, -16
 573              		.cfi_offset 8, -12
 574              		.cfi_offset 9, -8
 575              		.cfi_offset 14, -4
 576 0004 2DED028B 		fstmfdd	sp!, {d8}
 577              		.cfi_def_cfa_offset 36
 578              		.cfi_offset 80, -36
 579              		.loc 1 910 0
 580 0008 8B00     		lsls	r3, r1, #2
 581              		.loc 1 909 0
 582 000a 83B0     		sub	sp, sp, #12
 583              		.cfi_def_cfa_offset 48
 584              		.loc 1 910 0
 585 000c FF2B     		cmp	r3, #255
 586              		.loc 1 909 0
 587 000e 0E46     		mov	r6, r1
 588 0010 00AF     		add	r7, sp, #0
 589              		.cfi_def_cfa_register 7
 590 0012 E946     		mov	r9, sp
 591              		.loc 1 910 0
 592 0014 26DC     		bgt	.L49
 593              	.LVL34:
 594              		.loc 1 914 0
 595 0016 0833     		adds	r3, r3, #8
 596              	.LVL35:
 597 0018 23F00703 		bic	r3, r3, #7
 598              	.LVL36:
 599 001c ADEB030D 		sub	sp, sp, r3
 600              		.loc 1 917 0
 601 0020 0121     		movs	r1, #1
 602              	.LVL37:
 603 0022 1723     		movs	r3, #23
 604              	.LBB86:
 605              		.loc 1 919 0
 606 0024 002E     		cmp	r6, #0
 607              	.LBE86:
 608              		.loc 1 917 0
 609 0026 8DF80030 		strb	r3, [sp]
 610              		.loc 1 914 0
 611 002a E846     		mov	r8, sp
 612              	.LVL38:
 613              		.loc 1 917 0
 614 002c 7960     		str	r1, [r7, #4]
 615              	.LBB87:
 616              		.loc 1 919 0
 617 002e 13DD     		ble	.L51
 618              		.loc 1 920 0
 619 0030 9FED0F8A 		flds	s16, .L60
 620 0034 0546     		mov	r5, r0
 621              		.loc 1 919 0
 622 0036 0024     		movs	r4, #0
 623              	.LVL39:
ARM GAS  /tmp/ccTQOGyd.s 			page 12


 624              	.L53:
 625              		.loc 1 920 0 discriminator 2
 626 0038 F5EC017A 		fldmias	r5!, {s15}
 627 003c 67EE887A 		fmuls	s15, s15, s16
 628              		.loc 1 919 0 discriminator 2
 629 0040 0134     		adds	r4, r4, #1
 630              	.LVL40:
 631              		.loc 1 920 0 discriminator 2
 632 0042 FDEEE77A 		ftosizs	s15, s15
 633 0046 4046     		mov	r0, r8
 634 0048 17EE901A 		fmrs	r1, s15	@ int
 635 004c 3A1D     		adds	r2, r7, #4
 636 004e FFF7FEFF 		bl	buffer_append_int32
 637              	.LVL41:
 638              		.loc 1 919 0 discriminator 2
 639 0052 B442     		cmp	r4, r6
 640 0054 F0D1     		bne	.L53
 641 0056 7968     		ldr	r1, [r7, #4]
 642              	.LVL42:
 643              	.L51:
 644              	.LBE87:
 645              	.LBB88:
 646              	.LBB89:
 647              		.loc 1 91 0
 648 0058 064B     		ldr	r3, .L60+4
 649 005a 1B68     		ldr	r3, [r3]
 650 005c 0BB1     		cbz	r3, .L54
 651              		.loc 1 92 0
 652 005e 4046     		mov	r0, r8
 653 0060 9847     		blx	r3
 654              	.LVL43:
 655              	.L54:
 656              	.LBE89:
 657              	.LBE88:
 658 0062 CD46     		mov	sp, r9
 659              	.LVL44:
 660              	.L49:
 661              		.loc 1 924 0
 662 0064 0C37     		adds	r7, r7, #12
 663 0066 BD46     		mov	sp, r7
 664              		@ sp needed
 665 0068 BDEC028B 		fldmfdd	sp!, {d8}
 666 006c BDE8F083 		pop	{r4, r5, r6, r7, r8, r9, pc}
 667              	.LVL45:
 668              	.L61:
 669              		.align	2
 670              	.L60:
 671 0070 00401C46 		.word	1176256512
 672 0074 00000000 		.word	.LANCHOR10
 673              		.cfi_endproc
 674              	.LFE263:
 675              		.size	commands_send_experiment_samples, .-commands_send_experiment_samples
 676 0078 AFF30080 		.section	.text.commands_get_disp_pos_mode,"ax",%progbits
 676      AFF30080 
 677              		.align	2
 678              		.p2align 4,,15
 679              		.global	commands_get_disp_pos_mode
ARM GAS  /tmp/ccTQOGyd.s 			page 13


 680              		.thumb
 681              		.thumb_func
 682              		.type	commands_get_disp_pos_mode, %function
 683              	commands_get_disp_pos_mode:
 684              	.LFB264:
 685              		.loc 1 926 0
 686              		.cfi_startproc
 687              		@ args = 0, pretend = 0, frame = 0
 688              		@ frame_needed = 0, uses_anonymous_args = 0
 689              		@ link register save eliminated.
 690              		.loc 1 927 0
 691 0000 014B     		ldr	r3, .L63
 692              		.loc 1 928 0
 693 0002 1878     		ldrb	r0, [r3]	@ zero_extendqisi2
 694 0004 7047     		bx	lr
 695              	.L64:
 696 0006 00BF     		.align	2
 697              	.L63:
 698 0008 00000000 		.word	.LANCHOR13
 699              		.cfi_endproc
 700              	.LFE264:
 701              		.size	commands_get_disp_pos_mode, .-commands_get_disp_pos_mode
 702 000c AFF30080 		.section	.text.commands_set_app_data_handler,"ax",%progbits
 703              		.align	2
 704              		.p2align 4,,15
 705              		.global	commands_set_app_data_handler
 706              		.thumb
 707              		.thumb_func
 708              		.type	commands_set_app_data_handler, %function
 709              	commands_set_app_data_handler:
 710              	.LFB265:
 711              		.loc 1 930 0
 712              		.cfi_startproc
 713              		@ args = 0, pretend = 0, frame = 0
 714              		@ frame_needed = 0, uses_anonymous_args = 0
 715              		@ link register save eliminated.
 716              	.LVL46:
 717              		.loc 1 931 0
 718 0000 014B     		ldr	r3, .L66
 719 0002 1860     		str	r0, [r3]
 720 0004 7047     		bx	lr
 721              	.L67:
 722 0006 00BF     		.align	2
 723              	.L66:
 724 0008 00000000 		.word	.LANCHOR14
 725              		.cfi_endproc
 726              	.LFE265:
 727              		.size	commands_set_app_data_handler, .-commands_set_app_data_handler
 728 000c AFF30080 		.section	.text.commands_send_app_data,"ax",%progbits
 729              		.align	2
 730              		.p2align 4,,15
 731              		.global	commands_send_app_data
 732              		.thumb
 733              		.thumb_func
 734              		.type	commands_send_app_data, %function
 735              	commands_send_app_data:
 736              	.LFB266:
ARM GAS  /tmp/ccTQOGyd.s 			page 14


 737              		.loc 1 934 0
 738              		.cfi_startproc
 739              		@ args = 0, pretend = 0, frame = 0
 740              		@ frame_needed = 0, uses_anonymous_args = 0
 741              	.LVL47:
 742 0000 38B5     		push	{r3, r4, r5, lr}
 743              		.cfi_def_cfa_offset 16
 744              		.cfi_offset 3, -16
 745              		.cfi_offset 4, -12
 746              		.cfi_offset 5, -8
 747              		.cfi_offset 14, -4
 748              		.loc 1 937 0
 749 0002 094D     		ldr	r5, .L73
 750              		.loc 1 934 0
 751 0004 0246     		mov	r2, r0
 752              		.loc 1 937 0
 753 0006 2846     		mov	r0, r5
 754              	.LVL48:
 755              		.loc 1 934 0
 756 0008 0C46     		mov	r4, r1
 757              		.loc 1 937 0
 758 000a 2423     		movs	r3, #36
 759              		.loc 1 938 0
 760 000c 1146     		mov	r1, r2
 761              	.LVL49:
 762              		.loc 1 937 0
 763 000e 00F8013B 		strb	r3, [r0], #1
 764              		.loc 1 938 0
 765 0012 2246     		mov	r2, r4
 766              	.LVL50:
 767 0014 FFF7FEFF 		bl	memcpy
 768              	.LVL51:
 769              	.LBB90:
 770              	.LBB91:
 771              		.loc 1 91 0
 772 0018 044B     		ldr	r3, .L73+4
 773 001a 1B68     		ldr	r3, [r3]
 774              	.LBE91:
 775              	.LBE90:
 776              		.loc 1 939 0
 777 001c 611C     		adds	r1, r4, #1
 778              	.LVL52:
 779              	.LBB93:
 780              	.LBB92:
 781              		.loc 1 91 0
 782 001e 0BB1     		cbz	r3, .L68
 783              		.loc 1 92 0
 784 0020 2846     		mov	r0, r5
 785 0022 9847     		blx	r3
 786              	.LVL53:
 787              	.L68:
 788 0024 38BD     		pop	{r3, r4, r5, pc}
 789              	.LVL54:
 790              	.L74:
 791 0026 00BF     		.align	2
 792              	.L73:
 793 0028 00000000 		.word	.LANCHOR8
ARM GAS  /tmp/ccTQOGyd.s 			page 15


 794 002c 00000000 		.word	.LANCHOR10
 795              	.LBE92:
 796              	.LBE93:
 797              		.cfi_endproc
 798              	.LFE266:
 799              		.size	commands_send_app_data, .-commands_send_app_data
 800              		.section	.text.commands_send_appconf,"ax",%progbits
 801              		.align	2
 802              		.p2align 4,,15
 803              		.global	commands_send_appconf
 804              		.thumb
 805              		.thumb_func
 806              		.type	commands_send_appconf, %function
 807              	commands_send_appconf:
 808              	.LFB267:
 809              		.loc 1 944 0
 810              		.cfi_startproc
 811              		@ args = 0, pretend = 0, frame = 8
 812              		@ frame_needed = 0, uses_anonymous_args = 0
 813              	.LVL55:
 814 0000 F0B5     		push	{r4, r5, r6, r7, lr}
 815              		.cfi_def_cfa_offset 20
 816              		.cfi_offset 4, -20
 817              		.cfi_offset 5, -16
 818              		.cfi_offset 6, -12
 819              		.cfi_offset 7, -8
 820              		.cfi_offset 14, -4
 821              		.loc 1 946 0
 822 0002 AF4D     		ldr	r5, .L80
 823              	.LBB94:
 824              	.LBB95:
 825              		.loc 1 91 0
 826 0004 AF4F     		ldr	r7, .L80+4
 827              	.LBE95:
 828              	.LBE94:
 829              		.loc 1 946 0
 830 0006 2870     		strb	r0, [r5]
 831              		.loc 1 944 0
 832 0008 83B0     		sub	sp, sp, #12
 833              		.cfi_def_cfa_offset 32
 834              		.loc 1 947 0
 835 000a 02AE     		add	r6, sp, #8
 836 000c 0222     		movs	r2, #2
 837 000e 46F8042D 		str	r2, [r6, #-4]!
 838 0012 0B78     		ldrb	r3, [r1]	@ zero_extendqisi2
 839 0014 6B70     		strb	r3, [r5, #1]
 840              		.loc 1 944 0
 841 0016 0C46     		mov	r4, r1
 842              		.loc 1 948 0
 843 0018 3246     		mov	r2, r6
 844 001a 4968     		ldr	r1, [r1, #4]
 845              	.LVL56:
 846 001c 2846     		mov	r0, r5
 847              	.LVL57:
 848 001e FFF7FEFF 		bl	buffer_append_uint32
 849              	.LVL58:
 850              		.loc 1 949 0
ARM GAS  /tmp/ccTQOGyd.s 			page 16


 851 0022 3146     		mov	r1, r6
 852 0024 94ED020A 		flds	s0, [r4, #8]
 853 0028 2846     		mov	r0, r5
 854 002a FFF7FEFF 		bl	buffer_append_float32_auto
 855              	.LVL59:
 856              		.loc 1 950 0
 857 002e 019B     		ldr	r3, [sp, #4]
 858 0030 227B     		ldrb	r2, [r4, #12]	@ zero_extendqisi2
 859 0032 EA54     		strb	r2, [r5, r3]
 860              		.loc 1 951 0
 861 0034 2846     		mov	r0, r5
 862              		.loc 1 950 0
 863 0036 0133     		adds	r3, r3, #1
 864              		.loc 1 951 0
 865 0038 3246     		mov	r2, r6
 866 003a 218A     		ldrh	r1, [r4, #16]
 867              		.loc 1 950 0
 868 003c 0193     		str	r3, [sp, #4]
 869              		.loc 1 951 0
 870 003e FFF7FEFF 		bl	buffer_append_uint16
 871              	.LVL60:
 872              		.loc 1 952 0
 873 0042 019B     		ldr	r3, [sp, #4]
 874 0044 227D     		ldrb	r2, [r4, #20]	@ zero_extendqisi2
 875 0046 EA54     		strb	r2, [r5, r3]
 876              		.loc 1 954 0
 877 0048 EA18     		adds	r2, r5, r3
 878 004a 617D     		ldrb	r1, [r4, #21]	@ zero_extendqisi2
 879 004c 5170     		strb	r1, [r2, #1]
 880              		.loc 1 956 0
 881 004e 217E     		ldrb	r1, [r4, #24]	@ zero_extendqisi2
 882 0050 9170     		strb	r1, [r2, #2]
 883 0052 0333     		adds	r3, r3, #3
 884              		.loc 1 957 0
 885 0054 3146     		mov	r1, r6
 886 0056 94ED070A 		flds	s0, [r4, #28]
 887              		.loc 1 956 0
 888 005a 0193     		str	r3, [sp, #4]
 889              		.loc 1 957 0
 890 005c 2846     		mov	r0, r5
 891 005e FFF7FEFF 		bl	buffer_append_float32_auto
 892              	.LVL61:
 893              		.loc 1 958 0
 894 0062 3146     		mov	r1, r6
 895 0064 2846     		mov	r0, r5
 896 0066 94ED080A 		flds	s0, [r4, #32]
 897 006a FFF7FEFF 		bl	buffer_append_float32_auto
 898              	.LVL62:
 899              		.loc 1 959 0
 900 006e 3146     		mov	r1, r6
 901 0070 2846     		mov	r0, r5
 902 0072 94ED090A 		flds	s0, [r4, #36]
 903 0076 FFF7FEFF 		bl	buffer_append_float32_auto
 904              	.LVL63:
 905              		.loc 1 960 0
 906 007a 3146     		mov	r1, r6
 907 007c 2846     		mov	r0, r5
ARM GAS  /tmp/ccTQOGyd.s 			page 17


 908 007e 94ED0A0A 		flds	s0, [r4, #40]
 909 0082 FFF7FEFF 		bl	buffer_append_float32_auto
 910              	.LVL64:
 911              		.loc 1 961 0
 912 0086 3146     		mov	r1, r6
 913 0088 2846     		mov	r0, r5
 914 008a 94ED0B0A 		flds	s0, [r4, #44]
 915 008e FFF7FEFF 		bl	buffer_append_float32_auto
 916              	.LVL65:
 917              		.loc 1 962 0
 918 0092 019B     		ldr	r3, [sp, #4]
 919 0094 94F83020 		ldrb	r2, [r4, #48]	@ zero_extendqisi2
 920 0098 EA54     		strb	r2, [r5, r3]
 921              		.loc 1 963 0
 922 009a EA18     		adds	r2, r5, r3
 923 009c 94F83110 		ldrb	r1, [r4, #49]	@ zero_extendqisi2
 924 00a0 5170     		strb	r1, [r2, #1]
 925 00a2 0233     		adds	r3, r3, #2
 926              		.loc 1 964 0
 927 00a4 3146     		mov	r1, r6
 928 00a6 94ED0D0A 		flds	s0, [r4, #52]
 929              		.loc 1 963 0
 930 00aa 0193     		str	r3, [sp, #4]
 931              		.loc 1 964 0
 932 00ac 2846     		mov	r0, r5
 933 00ae FFF7FEFF 		bl	buffer_append_float32_auto
 934              	.LVL66:
 935              		.loc 1 965 0
 936 00b2 3146     		mov	r1, r6
 937 00b4 2846     		mov	r0, r5
 938 00b6 94ED0E0A 		flds	s0, [r4, #56]
 939 00ba FFF7FEFF 		bl	buffer_append_float32_auto
 940              	.LVL67:
 941              		.loc 1 966 0
 942 00be 019B     		ldr	r3, [sp, #4]
 943 00c0 94F83C20 		ldrb	r2, [r4, #60]	@ zero_extendqisi2
 944 00c4 EA54     		strb	r2, [r5, r3]
 945              		.loc 1 967 0
 946 00c6 3146     		mov	r1, r6
 947              		.loc 1 966 0
 948 00c8 0133     		adds	r3, r3, #1
 949              		.loc 1 967 0
 950 00ca 94ED100A 		flds	s0, [r4, #64]
 951              		.loc 1 966 0
 952 00ce 0193     		str	r3, [sp, #4]
 953              		.loc 1 967 0
 954 00d0 2846     		mov	r0, r5
 955 00d2 FFF7FEFF 		bl	buffer_append_float32_auto
 956              	.LVL68:
 957              		.loc 1 968 0
 958 00d6 3146     		mov	r1, r6
 959 00d8 2846     		mov	r0, r5
 960 00da 94ED110A 		flds	s0, [r4, #68]
 961 00de FFF7FEFF 		bl	buffer_append_float32_auto
 962              	.LVL69:
 963              		.loc 1 969 0
 964 00e2 019B     		ldr	r3, [sp, #4]
ARM GAS  /tmp/ccTQOGyd.s 			page 18


 965 00e4 94F84820 		ldrb	r2, [r4, #72]	@ zero_extendqisi2
 966 00e8 EA54     		strb	r2, [r5, r3]
 967              		.loc 1 970 0
 968 00ea EA18     		adds	r2, r5, r3
 969 00ec 94F84910 		ldrb	r1, [r4, #73]	@ zero_extendqisi2
 970 00f0 5170     		strb	r1, [r2, #1]
 971 00f2 0233     		adds	r3, r3, #2
 972              		.loc 1 971 0
 973 00f4 3146     		mov	r1, r6
 974 00f6 94ED130A 		flds	s0, [r4, #76]
 975              		.loc 1 970 0
 976 00fa 0193     		str	r3, [sp, #4]
 977              		.loc 1 971 0
 978 00fc 2846     		mov	r0, r5
 979 00fe FFF7FEFF 		bl	buffer_append_float32_auto
 980              	.LVL70:
 981              		.loc 1 973 0
 982 0102 019B     		ldr	r3, [sp, #4]
 983 0104 94F85020 		ldrb	r2, [r4, #80]	@ zero_extendqisi2
 984 0108 EA54     		strb	r2, [r5, r3]
 985              		.loc 1 974 0
 986 010a 3146     		mov	r1, r6
 987              		.loc 1 973 0
 988 010c 0133     		adds	r3, r3, #1
 989              		.loc 1 974 0
 990 010e 94ED150A 		flds	s0, [r4, #84]
 991              		.loc 1 973 0
 992 0112 0193     		str	r3, [sp, #4]
 993              		.loc 1 974 0
 994 0114 2846     		mov	r0, r5
 995 0116 FFF7FEFF 		bl	buffer_append_float32_auto
 996              	.LVL71:
 997              		.loc 1 975 0
 998 011a 3146     		mov	r1, r6
 999 011c 2846     		mov	r0, r5
 1000 011e 94ED160A 		flds	s0, [r4, #88]
 1001 0122 FFF7FEFF 		bl	buffer_append_float32_auto
 1002              	.LVL72:
 1003              		.loc 1 976 0
 1004 0126 3146     		mov	r1, r6
 1005 0128 2846     		mov	r0, r5
 1006 012a 94ED170A 		flds	s0, [r4, #92]
 1007 012e FFF7FEFF 		bl	buffer_append_float32_auto
 1008              	.LVL73:
 1009              		.loc 1 977 0
 1010 0132 3146     		mov	r1, r6
 1011 0134 2846     		mov	r0, r5
 1012 0136 94ED180A 		flds	s0, [r4, #96]
 1013 013a FFF7FEFF 		bl	buffer_append_float32_auto
 1014              	.LVL74:
 1015              		.loc 1 978 0
 1016 013e 3146     		mov	r1, r6
 1017 0140 2846     		mov	r0, r5
 1018 0142 94ED190A 		flds	s0, [r4, #100]
 1019 0146 FFF7FEFF 		bl	buffer_append_float32_auto
 1020              	.LVL75:
 1021              		.loc 1 979 0
ARM GAS  /tmp/ccTQOGyd.s 			page 19


 1022 014a 3146     		mov	r1, r6
 1023 014c 2846     		mov	r0, r5
 1024 014e 94ED1A0A 		flds	s0, [r4, #104]
 1025 0152 FFF7FEFF 		bl	buffer_append_float32_auto
 1026              	.LVL76:
 1027              		.loc 1 980 0
 1028 0156 019A     		ldr	r2, [sp, #4]
 1029 0158 94F86C30 		ldrb	r3, [r4, #108]	@ zero_extendqisi2
 1030 015c AB54     		strb	r3, [r5, r2]
 1031              		.loc 1 981 0
 1032 015e AB18     		adds	r3, r5, r2
 1033 0160 94F86D10 		ldrb	r1, [r4, #109]	@ zero_extendqisi2
 1034 0164 5970     		strb	r1, [r3, #1]
 1035              		.loc 1 982 0
 1036 0166 94F86E10 		ldrb	r1, [r4, #110]	@ zero_extendqisi2
 1037 016a 9970     		strb	r1, [r3, #2]
 1038              		.loc 1 983 0
 1039 016c 94F86F10 		ldrb	r1, [r4, #111]	@ zero_extendqisi2
 1040 0170 D970     		strb	r1, [r3, #3]
 1041              		.loc 1 984 0
 1042 0172 94F87010 		ldrb	r1, [r4, #112]	@ zero_extendqisi2
 1043 0176 1971     		strb	r1, [r3, #4]
 1044              		.loc 1 985 0
 1045 0178 94F87110 		ldrb	r1, [r4, #113]	@ zero_extendqisi2
 1046 017c 5971     		strb	r1, [r3, #5]
 1047 017e 0632     		adds	r2, r2, #6
 1048              		.loc 1 986 0
 1049 0180 3146     		mov	r1, r6
 1050 0182 94ED1D0A 		flds	s0, [r4, #116]
 1051              		.loc 1 985 0
 1052 0186 0192     		str	r2, [sp, #4]
 1053              		.loc 1 986 0
 1054 0188 2846     		mov	r0, r5
 1055 018a FFF7FEFF 		bl	buffer_append_float32_auto
 1056              	.LVL77:
 1057              		.loc 1 987 0
 1058 018e 3146     		mov	r1, r6
 1059 0190 2846     		mov	r0, r5
 1060 0192 94ED1E0A 		flds	s0, [r4, #120]
 1061 0196 FFF7FEFF 		bl	buffer_append_float32_auto
 1062              	.LVL78:
 1063              		.loc 1 988 0
 1064 019a 019B     		ldr	r3, [sp, #4]
 1065 019c 94F87C20 		ldrb	r2, [r4, #124]	@ zero_extendqisi2
 1066 01a0 EA54     		strb	r2, [r5, r3]
 1067              		.loc 1 989 0
 1068 01a2 3146     		mov	r1, r6
 1069              		.loc 1 988 0
 1070 01a4 0133     		adds	r3, r3, #1
 1071              		.loc 1 989 0
 1072 01a6 94ED200A 		flds	s0, [r4, #128]
 1073              		.loc 1 988 0
 1074 01aa 0193     		str	r3, [sp, #4]
 1075              		.loc 1 989 0
 1076 01ac 2846     		mov	r0, r5
 1077 01ae FFF7FEFF 		bl	buffer_append_float32_auto
 1078              	.LVL79:
ARM GAS  /tmp/ccTQOGyd.s 			page 20


 1079              		.loc 1 990 0
 1080 01b2 3146     		mov	r1, r6
 1081 01b4 2846     		mov	r0, r5
 1082 01b6 94ED210A 		flds	s0, [r4, #132]
 1083 01ba FFF7FEFF 		bl	buffer_append_float32_auto
 1084              	.LVL80:
 1085              		.loc 1 991 0
 1086 01be 019B     		ldr	r3, [sp, #4]
 1087 01c0 94F88820 		ldrb	r2, [r4, #136]	@ zero_extendqisi2
 1088 01c4 EA54     		strb	r2, [r5, r3]
 1089              		.loc 1 992 0
 1090 01c6 EA18     		adds	r2, r5, r3
 1091 01c8 94F88910 		ldrb	r1, [r4, #137]	@ zero_extendqisi2
 1092 01cc 5170     		strb	r1, [r2, #1]
 1093 01ce 0233     		adds	r3, r3, #2
 1094              		.loc 1 993 0
 1095 01d0 94ED230A 		flds	s0, [r4, #140]
 1096              		.loc 1 992 0
 1097 01d4 0193     		str	r3, [sp, #4]
 1098              		.loc 1 993 0
 1099 01d6 3146     		mov	r1, r6
 1100 01d8 2846     		mov	r0, r5
 1101 01da FFF7FEFF 		bl	buffer_append_float32_auto
 1102              	.LVL81:
 1103              		.loc 1 994 0
 1104 01de 3246     		mov	r2, r6
 1105 01e0 2846     		mov	r0, r5
 1106 01e2 B4F89010 		ldrh	r1, [r4, #144]
 1107 01e6 FFF7FEFF 		bl	buffer_append_uint16
 1108              	.LVL82:
 1109              		.loc 1 996 0
 1110 01ea 3246     		mov	r2, r6
 1111 01ec 2846     		mov	r0, r5
 1112 01ee D4F89410 		ldr	r1, [r4, #148]
 1113 01f2 FFF7FEFF 		bl	buffer_append_uint32
 1114              	.LVL83:
 1115              		.loc 1 998 0
 1116 01f6 019B     		ldr	r3, [sp, #4]
 1117 01f8 94F89820 		ldrb	r2, [r4, #152]	@ zero_extendqisi2
 1118 01fc EA54     		strb	r2, [r5, r3]
 1119              		.loc 1 999 0
 1120 01fe 3146     		mov	r1, r6
 1121              		.loc 1 998 0
 1122 0200 0133     		adds	r3, r3, #1
 1123              		.loc 1 999 0
 1124 0202 94ED270A 		flds	s0, [r4, #156]
 1125              		.loc 1 998 0
 1126 0206 0193     		str	r3, [sp, #4]
 1127              		.loc 1 999 0
 1128 0208 2846     		mov	r0, r5
 1129 020a FFF7FEFF 		bl	buffer_append_float32_auto
 1130              	.LVL84:
 1131              		.loc 1 1000 0
 1132 020e 3146     		mov	r1, r6
 1133 0210 2846     		mov	r0, r5
 1134 0212 94ED280A 		flds	s0, [r4, #160]
 1135 0216 FFF7FEFF 		bl	buffer_append_float32_auto
ARM GAS  /tmp/ccTQOGyd.s 			page 21


 1136              	.LVL85:
 1137              		.loc 1 1001 0
 1138 021a 3146     		mov	r1, r6
 1139 021c 2846     		mov	r0, r5
 1140 021e 94ED290A 		flds	s0, [r4, #164]
 1141 0222 FFF7FEFF 		bl	buffer_append_float32_auto
 1142              	.LVL86:
 1143              		.loc 1 1002 0
 1144 0226 3146     		mov	r1, r6
 1145 0228 2846     		mov	r0, r5
 1146 022a 94ED2A0A 		flds	s0, [r4, #168]
 1147 022e FFF7FEFF 		bl	buffer_append_float32_auto
 1148              	.LVL87:
 1149              		.loc 1 1003 0
 1150 0232 3146     		mov	r1, r6
 1151 0234 2846     		mov	r0, r5
 1152 0236 94ED2B0A 		flds	s0, [r4, #172]
 1153 023a FFF7FEFF 		bl	buffer_append_float32_auto
 1154              	.LVL88:
 1155              		.loc 1 1004 0
 1156 023e 3146     		mov	r1, r6
 1157 0240 2846     		mov	r0, r5
 1158 0242 94ED2C0A 		flds	s0, [r4, #176]
 1159 0246 FFF7FEFF 		bl	buffer_append_float32_auto
 1160              	.LVL89:
 1161              		.loc 1 1005 0
 1162 024a 019B     		ldr	r3, [sp, #4]
 1163 024c 94F8B420 		ldrb	r2, [r4, #180]	@ zero_extendqisi2
 1164 0250 EA54     		strb	r2, [r5, r3]
 1165              		.loc 1 1006 0
 1166 0252 EA18     		adds	r2, r5, r3
 1167 0254 94F8B510 		ldrb	r1, [r4, #181]	@ zero_extendqisi2
 1168 0258 5170     		strb	r1, [r2, #1]
 1169              		.loc 1 1007 0
 1170 025a 94F8B610 		ldrb	r1, [r4, #182]	@ zero_extendqisi2
 1171 025e 9170     		strb	r1, [r2, #2]
 1172 0260 0333     		adds	r3, r3, #3
 1173              		.loc 1 1008 0
 1174 0262 3146     		mov	r1, r6
 1175 0264 2846     		mov	r0, r5
 1176 0266 94ED2E0A 		flds	s0, [r4, #184]
 1177              		.loc 1 1007 0
 1178 026a 0193     		str	r3, [sp, #4]
 1179              		.loc 1 1008 0
 1180 026c FFF7FEFF 		bl	buffer_append_float32_auto
 1181              	.LVL90:
 1182              		.loc 1 1010 0
 1183 0270 0199     		ldr	r1, [sp, #4]
 1184 0272 94F8BC30 		ldrb	r3, [r4, #188]	@ zero_extendqisi2
 1185 0276 6B54     		strb	r3, [r5, r1]
 1186              		.loc 1 1011 0
 1187 0278 6B18     		adds	r3, r5, r1
 1188 027a 94F8BD20 		ldrb	r2, [r4, #189]	@ zero_extendqisi2
 1189 027e 5A70     		strb	r2, [r3, #1]
 1190              		.loc 1 1012 0
 1191 0280 94F8BE20 		ldrb	r2, [r4, #190]	@ zero_extendqisi2
 1192 0284 9A70     		strb	r2, [r3, #2]
ARM GAS  /tmp/ccTQOGyd.s 			page 22


 1193              		.loc 1 1013 0
 1194 0286 94F8BF20 		ldrb	r2, [r4, #191]	@ zero_extendqisi2
 1195 028a DA70     		strb	r2, [r3, #3]
 1196              		.loc 1 1014 0
 1197 028c 94F8C020 		ldrb	r2, [r4, #192]	@ zero_extendqisi2
 1198 0290 1A71     		strb	r2, [r3, #4]
 1199              		.loc 1 1015 0
 1200 0292 94F8C120 		ldrb	r2, [r4, #193]	@ zero_extendqisi2
 1201 0296 5A71     		strb	r2, [r3, #5]
 1202              		.loc 1 1016 0
 1203 0298 2246     		mov	r2, r4
 1204              		.loc 1 1015 0
 1205 029a 881D     		adds	r0, r1, #6
 1206              		.loc 1 1016 0
 1207 029c 32F8C2CF 		ldrh	ip, [r2, #194]!	@ unaligned
 1208 02a0 9678     		ldrb	r6, [r2, #2]	@ zero_extendqisi2
 1209 02a2 25F800C0 		strh	ip, [r5, r0]	@ unaligned
 1210 02a6 2844     		add	r0, r0, r5
 1211              	.LBB98:
 1212              	.LBB96:
 1213              		.loc 1 91 0
 1214 02a8 3A68     		ldr	r2, [r7]
 1215              	.LBE96:
 1216              	.LBE98:
 1217              		.loc 1 1016 0
 1218 02aa 8670     		strb	r6, [r0, #2]
 1219              		.loc 1 1018 0
 1220 02ac 94F8C500 		ldrb	r0, [r4, #197]	@ zero_extendqisi2
 1221 02b0 5872     		strb	r0, [r3, #9]
 1222              	.LVL91:
 1223 02b2 0A31     		adds	r1, r1, #10
 1224              	.LVL92:
 1225 02b4 0191     		str	r1, [sp, #4]
 1226              	.LBB99:
 1227              	.LBB97:
 1228              		.loc 1 91 0
 1229 02b6 0AB1     		cbz	r2, .L75
 1230              		.loc 1 92 0
 1231 02b8 2846     		mov	r0, r5
 1232 02ba 9047     		blx	r2
 1233              	.LVL93:
 1234              	.L75:
 1235              	.LBE97:
 1236              	.LBE99:
 1237              		.loc 1 1021 0
 1238 02bc 03B0     		add	sp, sp, #12
 1239              		@ sp needed
 1240 02be F0BD     		pop	{r4, r5, r6, r7, pc}
 1241              	.LVL94:
 1242              	.L81:
 1243              		.align	2
 1244              	.L80:
 1245 02c0 00000000 		.word	.LANCHOR8
 1246 02c4 00000000 		.word	.LANCHOR10
 1247              		.cfi_endproc
 1248              	.LFE267:
 1249              		.size	commands_send_appconf, .-commands_send_appconf
ARM GAS  /tmp/ccTQOGyd.s 			page 23


 1250 02c8 AFF30080 		.section	.text.commands_process_packet,"ax",%progbits
 1250      AFF30080 
 1251              		.align	2
 1252              		.p2align 4,,15
 1253              		.global	commands_process_packet
 1254              		.thumb
 1255              		.thumb_func
 1256              		.type	commands_process_packet, %function
 1257              	commands_process_packet:
 1258              	.LFB259:
 1259              		.loc 1 105 0
 1260              		.cfi_startproc
 1261              		@ args = 0, pretend = 0, frame = 216
 1262              		@ frame_needed = 0, uses_anonymous_args = 0
 1263              	.LVL95:
 1264 0000 2DE9F047 		push	{r4, r5, r6, r7, r8, r9, r10, lr}
 1265              		.cfi_def_cfa_offset 32
 1266              		.cfi_offset 4, -32
 1267              		.cfi_offset 5, -28
 1268              		.cfi_offset 6, -24
 1269              		.cfi_offset 7, -20
 1270              		.cfi_offset 8, -16
 1271              		.cfi_offset 9, -12
 1272              		.cfi_offset 10, -8
 1273              		.cfi_offset 14, -4
 1274 0004 2DED048B 		fstmfdd	sp!, {d8, d9}
 1275              		.cfi_def_cfa_offset 48
 1276              		.cfi_offset 80, -48
 1277              		.cfi_offset 82, -40
 1278 0008 0746     		mov	r7, r0
 1279 000a B6B0     		sub	sp, sp, #216
 1280              		.cfi_def_cfa_offset 264
 1281              		.loc 1 106 0
 1282 000c 0029     		cmp	r1, #0
 1283 000e 7FD0     		beq	.L82
 1284              		.loc 1 118 0
 1285 0010 0446     		mov	r4, r0
 1286              		.loc 1 111 0
 1287 0012 0023     		movs	r3, #0
 1288              		.loc 1 118 0
 1289 0014 14F8018B 		ldrb	r8, [r4], #1	@ zero_extendqisi2
 1290              	.LVL96:
 1291              		.loc 1 111 0
 1292 0018 0293     		str	r3, [sp, #8]
 1293              		.loc 1 120 0
 1294 001a 4D1E     		subs	r5, r1, #1
 1295              	.LVL97:
 1296              		.loc 1 122 0
 1297 001c B8F1270F 		cmp	r8, #39
 1298 0020 76D8     		bhi	.L82
 1299 0022 DFE818F0 		tbh	[pc, r8, lsl #1]
 1300              	.L86:
 1301 0026 DF02     		.2byte	(.L85-.L86)/2
 1302 0028 DC02     		.2byte	(.L87-.L86)/2
 1303 002a C702     		.2byte	(.L88-.L86)/2
 1304 002c AC02     		.2byte	(.L89-.L86)/2
 1305 002e 0F02     		.2byte	(.L90-.L86)/2
ARM GAS  /tmp/ccTQOGyd.s 			page 24


 1306 0030 FE01     		.2byte	(.L91-.L86)/2
 1307 0032 ED01     		.2byte	(.L92-.L86)/2
 1308 0034 DC01     		.2byte	(.L93-.L86)/2
 1309 0036 030B     		.2byte	(.L94-.L86)/2
 1310 0038 F10A     		.2byte	(.L95-.L86)/2
 1311 003a D705     		.2byte	(.L96-.L86)/2
 1312 003c 7A00     		.2byte	(.L97-.L86)/2
 1313 003e 7500     		.2byte	(.L82-.L86)/2
 1314 0040 1908     		.2byte	(.L98-.L86)/2
 1315 0042 E905     		.2byte	(.L99-.L86)/2
 1316 0044 E905     		.2byte	(.L99-.L86)/2
 1317 0046 FD03     		.2byte	(.L100-.L86)/2
 1318 0048 E903     		.2byte	(.L101-.L86)/2
 1319 004a E903     		.2byte	(.L101-.L86)/2
 1320 004c C505     		.2byte	(.L102-.L86)/2
 1321 004e BE05     		.2byte	(.L103-.L86)/2
 1322 0050 7500     		.2byte	(.L82-.L86)/2
 1323 0052 7500     		.2byte	(.L82-.L86)/2
 1324 0054 7500     		.2byte	(.L82-.L86)/2
 1325 0056 B701     		.2byte	(.L104-.L86)/2
 1326 0058 2800     		.2byte	(.L105-.L86)/2
 1327 005a 5301     		.2byte	(.L106-.L86)/2
 1328 005c E700     		.2byte	(.L107-.L86)/2
 1329 005e 9600     		.2byte	(.L108-.L86)/2
 1330 0060 9400     		.2byte	(.L109-.L86)/2
 1331 0062 9100     		.2byte	(.L110-.L86)/2
 1332 0064 CE03     		.2byte	(.L111-.L86)/2
 1333 0066 9C03     		.2byte	(.L112-.L86)/2
 1334 0068 8803     		.2byte	(.L113-.L86)/2
 1335 006a 8103     		.2byte	(.L114-.L86)/2
 1336 006c 5C03     		.2byte	(.L115-.L86)/2
 1337 006e 5303     		.2byte	(.L116-.L86)/2
 1338 0070 1F03     		.2byte	(.L117-.L86)/2
 1339 0072 7500     		.2byte	(.L82-.L86)/2
 1340 0074 FC02     		.2byte	(.L118-.L86)/2
 1341              		.p2align 1
 1342              	.L105:
 1343              	.LBB100:
 1344              		.loc 1 661 0
 1345 0076 FFF7FEFF 		bl	mc_interface_get_configuration
 1346              	.LVL98:
 1347 007a B94C     		ldr	r4, .L216
 1348              	.LVL99:
 1349              		.loc 1 664 0
 1350 007c B94D     		ldr	r5, .L216+4
 1351              	.LVL100:
 1352 007e BA4E     		ldr	r6, .L216+8
 1353              		.loc 1 669 0
 1354 0080 9FEDBA8A 		flds	s16, .L216+12
 1355              		.loc 1 661 0
 1356 0084 0146     		mov	r1, r0
 1357 0086 4FF4BA72 		mov	r2, #372
 1358 008a 2046     		mov	r0, r4
 1359 008c FFF7FEFF 		bl	memcpy
 1360              	.LVL101:
 1361              		.loc 1 662 0
 1362 0090 2146     		mov	r1, r4
ARM GAS  /tmp/ccTQOGyd.s 			page 25


 1363 0092 4FF4BA72 		mov	r2, #372
 1364 0096 B648     		ldr	r0, .L216+16
 1365 0098 FFF7FEFF 		bl	memcpy
 1366              	.LVL102:
 1367              		.loc 1 666 0
 1368 009c 0222     		movs	r2, #2
 1369              		.loc 1 667 0
 1370 009e 2046     		mov	r0, r4
 1371              		.loc 1 664 0
 1372 00a0 2B68     		ldr	r3, [r5]
 1373              		.loc 1 666 0
 1374 00a2 A270     		strb	r2, [r4, #2]
 1375              		.loc 1 664 0
 1376 00a4 3360     		str	r3, [r6]
 1377              		.loc 1 667 0
 1378 00a6 FFF7FEFF 		bl	mc_interface_set_configuration
 1379              	.LVL103:
 1380              		.loc 1 671 0
 1381 00aa 03A8     		add	r0, sp, #12
 1382 00ac 04A9     		add	r1, sp, #16
 1383              		.loc 1 669 0
 1384 00ae 8DED038A 		fsts	s16, [sp, #12]
 1385              		.loc 1 670 0
 1386 00b2 8DED048A 		fsts	s16, [sp, #16]
 1387              		.loc 1 671 0
 1388 00b6 FFF7FEFF 		bl	mcpwm_foc_measure_res_ind
 1389              	.LVL104:
 1390 00ba 0446     		mov	r4, r0
 1391              	.LVL105:
 1392              		.loc 1 672 0
 1393 00bc AC48     		ldr	r0, .L216+16
 1394              	.LVL106:
 1395 00be FFF7FEFF 		bl	mc_interface_set_configuration
 1396              	.LVL107:
 1397              		.loc 1 674 0
 1398 00c2 002C     		cmp	r4, #0
 1399 00c4 41F0C082 		bne	.L211
 1400              		.loc 1 676 0
 1401 00c8 B0EE480A 		fcpys	s0, s16
 1402              		.loc 1 675 0
 1403 00cc 8DED038A 		fsts	s16, [sp, #12]
 1404              		.loc 1 676 0
 1405 00d0 8DED048A 		fsts	s16, [sp, #16]
 1406              	.L128:
 1407              		.loc 1 680 0
 1408 00d4 36AF     		add	r7, sp, #216
 1409              	.LVL108:
 1410 00d6 0123     		movs	r3, #1
 1411 00d8 47F8D03D 		str	r3, [r7, #-208]!
 1412 00dc A54C     		ldr	r4, .L216+20
 1413              	.LVL109:
 1414              		.loc 1 681 0
 1415 00de DFEDA60A 		flds	s1, .L216+24
 1416              		.loc 1 680 0
 1417 00e2 1923     		movs	r3, #25
 1418              		.loc 1 681 0
 1419 00e4 3946     		mov	r1, r7
ARM GAS  /tmp/ccTQOGyd.s 			page 26


 1420 00e6 2046     		mov	r0, r4
 1421              		.loc 1 680 0
 1422 00e8 2370     		strb	r3, [r4]
 1423              		.loc 1 681 0
 1424 00ea FFF7FEFF 		bl	buffer_append_float32
 1425              	.LVL110:
 1426              		.loc 1 682 0
 1427 00ee 2046     		mov	r0, r4
 1428 00f0 3946     		mov	r1, r7
 1429 00f2 9DED040A 		flds	s0, [sp, #16]
 1430 00f6 DFEDA60A 		flds	s1, .L216+48
 1431 00fa FFF7FEFF 		bl	buffer_append_float32
 1432              	.LVL111:
 1433              		.loc 1 683 0
 1434 00fe 3368     		ldr	r3, [r6]
 1435 0100 002B     		cmp	r3, #0
 1436 0102 40F02881 		bne	.L203
 1437              	.L133:
 1438              	.LBE100:
 1439              	.LBB101:
 1440              	.LBB102:
 1441              	.LBB103:
 1442              		.loc 1 91 0
 1443 0106 2B68     		ldr	r3, [r5]
 1444              	.LBE103:
 1445              	.LBE102:
 1446              		.loc 1 713 0
 1447 0108 0299     		ldr	r1, [sp, #8]
 1448              	.LVL112:
 1449              	.LBB105:
 1450              	.LBB104:
 1451              		.loc 1 91 0
 1452 010a 0BB1     		cbz	r3, .L82
 1453              	.LVL113:
 1454              	.L201:
 1455              	.LBE104:
 1456              	.LBE105:
 1457              	.LBE101:
 1458              	.LBB106:
 1459              	.LBB107:
 1460              		.loc 1 92 0
 1461 010c 2046     		mov	r0, r4
 1462 010e 9847     		blx	r3
 1463              	.LVL114:
 1464              	.L82:
 1465              	.LBE107:
 1466              	.LBE106:
 1467              		.loc 1 872 0
 1468 0110 36B0     		add	sp, sp, #216
 1469              		@ sp needed
 1470 0112 BDEC048B 		fldmfdd	sp!, {d8-d9}
 1471 0116 BDE8F087 		pop	{r4, r5, r6, r7, r8, r9, r10, pc}
 1472              	.LVL115:
 1473              	.L97:
 1474              		.loc 1 236 0
 1475 011a FFF7FEFF 		bl	mc_interface_get_configuration
 1476              	.LVL116:
ARM GAS  /tmp/ccTQOGyd.s 			page 27


 1477 011e 904C     		ldr	r4, .L216
 1478              	.LVL117:
 1479 0120 0146     		mov	r1, r0
 1480 0122 4FF4BA72 		mov	r2, #372
 1481 0126 2046     		mov	r0, r4
 1482 0128 FFF7FEFF 		bl	memcpy
 1483              	.LVL118:
 1484              		.loc 1 239 0
 1485 012c 9349     		ldr	r1, .L216+28
 1486 012e 7B78     		ldrb	r3, [r7, #1]	@ zero_extendqisi2
 1487              		.loc 1 241 0
 1488 0130 A278     		ldrb	r2, [r4, #2]	@ zero_extendqisi2
 1489              		.loc 1 239 0
 1490 0132 0B70     		strb	r3, [r1]
 1491 0134 0121     		movs	r1, #1
 1492 0136 0291     		str	r1, [sp, #8]
 1493              		.loc 1 241 0
 1494 0138 32B9     		cbnz	r2, .L110
 1495              		.loc 1 242 0
 1496 013a 002B     		cmp	r3, #0
 1497 013c 01F08C82 		beq	.L212
 1498              		.loc 1 244 0
 1499 0140 012B     		cmp	r3, #1
 1500 0142 01D1     		bne	.L110
 1501              		.loc 1 245 0
 1502 0144 FFF7FEFF 		bl	mcpwm_set_detect
 1503              	.LVL119:
 1504              	.L110:
 1505              		.loc 1 809 0
 1506 0148 FFF7FEFF 		bl	timeout_reset
 1507              	.LVL120:
 1508              		.loc 1 810 0
 1509 014c E0E7     		b	.L82
 1510              	.LVL121:
 1511              	.L109:
 1512              	.LBB110:
 1513              	.LBB111:
 1514              		.file 3 "ChibiOS_3.0.2/os/ext/CMSIS/include/core_cmFunc.h"
 1515              		.loc 3 342 0
 1516              	@ 342 "ChibiOS_3.0.2/os/ext/CMSIS/include/core_cmFunc.h" 1
 1517 014e 72B6     		cpsid i
 1518              	@ 0 "" 2
 1519              		.thumb
 1520              	.L141:
 1521 0150 FEE7     		b	.L141
 1522              	.L108:
 1523              	.LBE111:
 1524              	.LBE110:
 1525              		.loc 1 762 0
 1526 0152 FFF7FEFF 		bl	mc_interface_get_configuration
 1527              	.LVL122:
 1528 0156 824D     		ldr	r5, .L216
 1529              	.LVL123:
 1530 0158 0146     		mov	r1, r0
 1531 015a 4FF4BA72 		mov	r2, #372
 1532 015e 2846     		mov	r0, r5
 1533 0160 FFF7FEFF 		bl	memcpy
ARM GAS  /tmp/ccTQOGyd.s 			page 28


 1534              	.LVL124:
 1535              		.loc 1 764 0
 1536 0164 95F85C81 		ldrb	r8, [r5, #348]	@ zero_extendqisi2
 1537              	.LVL125:
 1538 0168 B8F1000F 		cmp	r8, #0
 1539 016c 41F0BE82 		bne	.L138
 1540              	.LBB112:
 1541              		.loc 1 765 0
 1542 0170 2946     		mov	r1, r5
 1543 0172 4FF4BA72 		mov	r2, #372
 1544 0176 7E48     		ldr	r0, .L216+16
 1545              		.loc 1 769 0
 1546 0178 7A4F     		ldr	r7, .L216+4
 1547 017a 7B4E     		ldr	r6, .L216+8
 1548              		.loc 1 765 0
 1549 017c FFF7FEFF 		bl	memcpy
 1550              	.LVL126:
 1551              		.loc 1 766 0
 1552 0180 36A9     		add	r1, sp, #216
 1553              		.loc 1 767 0
 1554 0182 2046     		mov	r0, r4
 1555              		.loc 1 766 0
 1556 0184 41F8D08D 		str	r8, [r1, #-208]!
 1557              		.loc 1 767 0
 1558 0188 9FED810A 		flds	s0, .L216+48
 1559              		.loc 1 772 0
 1560 018c 7C4C     		ldr	r4, .L216+32
 1561              	.LVL127:
 1562              		.loc 1 767 0
 1563 018e FFF7FEFF 		bl	buffer_get_float32
 1564              	.LVL128:
 1565              		.loc 1 769 0
 1566 0192 3B68     		ldr	r3, [r7]
 1567              		.loc 1 773 0
 1568 0194 7B49     		ldr	r1, .L216+36
 1569              		.loc 1 774 0
 1570 0196 7C4A     		ldr	r2, .L216+40
 1571              		.loc 1 769 0
 1572 0198 3360     		str	r3, [r6]
 1573              		.loc 1 775 0
 1574 019a 2846     		mov	r0, r5
 1575              		.loc 1 771 0
 1576 019c 0223     		movs	r3, #2
 1577              		.loc 1 767 0
 1578 019e B0EE408A 		fcpys	s16, s0
 1579              	.LVL129:
 1580              		.loc 1 773 0
 1581 01a2 C5F8A410 		str	r1, [r5, #164]	@ float
 1582              		.loc 1 771 0
 1583 01a6 AB70     		strb	r3, [r5, #2]
 1584              		.loc 1 774 0
 1585 01a8 C5F8A820 		str	r2, [r5, #168]	@ float
 1586              		.loc 1 772 0
 1587 01ac C5F8AC40 		str	r4, [r5, #172]	@ float
 1588              		.loc 1 775 0
 1589 01b0 FFF7FEFF 		bl	mc_interface_set_configuration
 1590              	.LVL130:
ARM GAS  /tmp/ccTQOGyd.s 			page 29


 1591              		.loc 1 778 0
 1592 01b4 B0EE480A 		fcpys	s0, s16
 1593 01b8 04A8     		add	r0, sp, #16
 1594 01ba FFF7FEFF 		bl	mcpwm_foc_hall_detect
 1595              	.LVL131:
 1596 01be 8046     		mov	r8, r0
 1597              	.LVL132:
 1598              		.loc 1 779 0
 1599 01c0 6B48     		ldr	r0, .L216+16
 1600              	.LVL133:
 1601 01c2 FFF7FEFF 		bl	mc_interface_set_configuration
 1602              	.LVL134:
 1603              		.loc 1 782 0
 1604 01c6 6B4B     		ldr	r3, .L216+20
 1605              		.loc 1 787 0
 1606 01c8 3568     		ldr	r5, [r6]
 1607              		.loc 1 782 0
 1608 01ca 1C46     		mov	r4, r3
 1609              		.loc 1 783 0
 1610 01cc 04AA     		add	r2, sp, #16
 1611 01ce 03CA     		ldmia	r2!, {r0, r1}
 1612              		.loc 1 782 0
 1613 01d0 1C22     		movs	r2, #28
 1614 01d2 04F8012B 		strb	r2, [r4], #1
 1615              		.loc 1 785 0
 1616 01d6 88F00106 		eor	r6, r8, #1
 1617 01da 0A22     		movs	r2, #10
 1618              		.loc 1 783 0
 1619 01dc C3F80100 		str	r0, [r3, #1]	@ unaligned
 1620              		.loc 1 785 0
 1621 01e0 0292     		str	r2, [sp, #8]
 1622              		.loc 1 783 0
 1623 01e2 6160     		str	r1, [r4, #4]	@ unaligned
 1624              		.loc 1 785 0
 1625 01e4 5E72     		strb	r6, [r3, #9]
 1626              		.loc 1 787 0
 1627 01e6 002D     		cmp	r5, #0
 1628 01e8 01F07782 		beq	.L139
 1629              		.loc 1 788 0
 1630 01ec 1846     		mov	r0, r3
 1631 01ee 1146     		mov	r1, r2
 1632 01f0 A847     		blx	r5
 1633              	.LVL135:
 1634 01f2 8DE7     		b	.L82
 1635              	.LVL136:
 1636              	.L107:
 1637              	.LBE112:
 1638              		.loc 1 719 0
 1639 01f4 FFF7FEFF 		bl	encoder_is_configured
 1640              	.LVL137:
 1641 01f8 0646     		mov	r6, r0
 1642 01fa 0028     		cmp	r0, #0
 1643 01fc 01F04B82 		beq	.L135
 1644              	.LBB115:
 1645              		.loc 1 720 0
 1646 0200 FFF7FEFF 		bl	mc_interface_get_configuration
 1647              	.LVL138:
ARM GAS  /tmp/ccTQOGyd.s 			page 30


 1648 0204 564D     		ldr	r5, .L216
 1649              	.LVL139:
 1650              		.loc 1 723 0
 1651 0206 DFF85C91 		ldr	r9, .L216+4
 1652 020a DFF85CA1 		ldr	r10, .L216+8
 1653              		.loc 1 741 0
 1654 020e 594E     		ldr	r6, .L216+20
 1655              		.loc 1 725 0
 1656 0210 36AF     		add	r7, sp, #216
 1657              		.loc 1 720 0
 1658 0212 0146     		mov	r1, r0
 1659 0214 4FF4BA72 		mov	r2, #372
 1660 0218 2846     		mov	r0, r5
 1661 021a FFF7FEFF 		bl	memcpy
 1662              	.LVL140:
 1663              		.loc 1 725 0
 1664 021e 4FF00008 		mov	r8, #0
 1665              	.LVL141:
 1666              		.loc 1 721 0
 1667 0222 4FF4BA72 		mov	r2, #372
 1668 0226 2946     		mov	r1, r5
 1669 0228 5148     		ldr	r0, .L216+16
 1670 022a FFF7FEFF 		bl	memcpy
 1671              	.LVL142:
 1672              		.loc 1 725 0
 1673 022e 47F8D08D 		str	r8, [r7, #-208]!
 1674              		.loc 1 726 0
 1675 0232 2046     		mov	r0, r4
 1676              		.loc 1 723 0
 1677 0234 D9F80030 		ldr	r3, [r9]
 1678              		.loc 1 726 0
 1679 0238 9FED550A 		flds	s0, .L216+48
 1680              		.loc 1 723 0
 1681 023c CAF80030 		str	r3, [r10]
 1682              		.loc 1 726 0
 1683 0240 3946     		mov	r1, r7
 1684 0242 FFF7FEFF 		bl	buffer_get_float32
 1685              	.LVL143:
 1686              		.loc 1 729 0
 1687 0246 4E4B     		ldr	r3, .L216+32
 1688              		.loc 1 730 0
 1689 0248 4E49     		ldr	r1, .L216+36
 1690              		.loc 1 731 0
 1691 024a 4F4A     		ldr	r2, .L216+40
 1692              		.loc 1 729 0
 1693 024c C5F8AC30 		str	r3, [r5, #172]	@ float
 1694              		.loc 1 726 0
 1695 0250 B0EE408A 		fcpys	s16, s0
 1696              	.LVL144:
 1697              		.loc 1 728 0
 1698 0254 0223     		movs	r3, #2
 1699              		.loc 1 732 0
 1700 0256 2846     		mov	r0, r5
 1701              		.loc 1 728 0
 1702 0258 AB70     		strb	r3, [r5, #2]
 1703              		.loc 1 730 0
 1704 025a C5F8A410 		str	r1, [r5, #164]	@ float
ARM GAS  /tmp/ccTQOGyd.s 			page 31


 1705              		.loc 1 731 0
 1706 025e C5F8A820 		str	r2, [r5, #168]	@ float
 1707              		.loc 1 734 0
 1708 0262 0024     		movs	r4, #0
 1709              	.LVL145:
 1710              		.loc 1 732 0
 1711 0264 FFF7FEFF 		bl	mc_interface_set_configuration
 1712              	.LVL146:
 1713              		.loc 1 737 0
 1714 0268 B0EE480A 		fcpys	s0, s16
 1715 026c 03A9     		add	r1, sp, #12
 1716 026e 04AA     		add	r2, sp, #16
 1717 0270 0DF10703 		add	r3, sp, #7
 1718 0274 4046     		mov	r0, r8
 1719              		.loc 1 736 0
 1720 0276 8DF80780 		strb	r8, [sp, #7]
 1721              		.loc 1 734 0
 1722 027a 0394     		str	r4, [sp, #12]	@ float
 1723              		.loc 1 735 0
 1724 027c 0494     		str	r4, [sp, #16]	@ float
 1725              		.loc 1 737 0
 1726 027e FFF7FEFF 		bl	mcpwm_foc_encoder_detect
 1727              	.LVL147:
 1728              		.loc 1 738 0
 1729 0282 3B48     		ldr	r0, .L216+16
 1730 0284 FFF7FEFF 		bl	mc_interface_set_configuration
 1731              	.LVL148:
 1732              		.loc 1 741 0
 1733 0288 1B22     		movs	r2, #27
 1734 028a 0123     		movs	r3, #1
 1735              		.loc 1 742 0
 1736 028c 3946     		mov	r1, r7
 1737 028e 3046     		mov	r0, r6
 1738 0290 9DED030A 		flds	s0, [sp, #12]
 1739 0294 DFED380A 		flds	s1, .L216+24
 1740              		.loc 1 741 0
 1741 0298 3270     		strb	r2, [r6]
 1742 029a 0293     		str	r3, [sp, #8]
 1743              		.loc 1 742 0
 1744 029c FFF7FEFF 		bl	buffer_append_float32
 1745              	.LVL149:
 1746              		.loc 1 743 0
 1747 02a0 3946     		mov	r1, r7
 1748 02a2 3046     		mov	r0, r6
 1749 02a4 9DED040A 		flds	s0, [sp, #16]
 1750 02a8 DFED330A 		flds	s1, .L216+24
 1751 02ac FFF7FEFF 		bl	buffer_append_float32
 1752              	.LVL150:
 1753              		.loc 1 744 0
 1754 02b0 0299     		ldr	r1, [sp, #8]
 1755 02b2 9DF80720 		ldrb	r2, [sp, #7]	@ zero_extendqisi2
 1756              		.loc 1 745 0
 1757 02b6 DAF80030 		ldr	r3, [r10]
 1758              		.loc 1 744 0
 1759 02ba 7254     		strb	r2, [r6, r1]
 1760 02bc 0131     		adds	r1, r1, #1
 1761 02be 0291     		str	r1, [sp, #8]
ARM GAS  /tmp/ccTQOGyd.s 			page 32


 1762              		.loc 1 745 0
 1763 02c0 002B     		cmp	r3, #0
 1764 02c2 01F0E181 		beq	.L136
 1765              	.L204:
 1766              	.LBB116:
 1767              	.LBB117:
 1768              		.loc 1 92 0
 1769 02c6 3046     		mov	r0, r6
 1770 02c8 9847     		blx	r3
 1771              	.LVL151:
 1772 02ca 21E7     		b	.L82
 1773              	.LVL152:
 1774              	.L106:
 1775              	.LBE117:
 1776              	.LBE116:
 1777              	.LBE115:
 1778              	.LBB120:
 1779              		.loc 1 693 0
 1780 02cc 02A9     		add	r1, sp, #8
 1781 02ce 2046     		mov	r0, r4
 1782              	.LVL153:
 1783 02d0 9FED2F0A 		flds	s0, .L216+48
 1784              		.loc 1 698 0
 1785 02d4 234D     		ldr	r5, .L216+4
 1786              	.LVL154:
 1787 02d6 244E     		ldr	r6, .L216+8
 1788              		.loc 1 693 0
 1789 02d8 FFF7FEFF 		bl	buffer_get_float32
 1790              	.LVL155:
 1791              		.loc 1 694 0
 1792 02dc 2046     		mov	r0, r4
 1793              		.loc 1 693 0
 1794 02de B0EE408A 		fcpys	s16, s0
 1795              	.LVL156:
 1796              		.loc 1 694 0
 1797 02e2 02A9     		add	r1, sp, #8
 1798 02e4 9FED2A0A 		flds	s0, .L216+48
 1799              	.LVL157:
 1800 02e8 FFF7FEFF 		bl	buffer_get_float32
 1801              	.LVL158:
 1802              		.loc 1 695 0
 1803 02ec 2046     		mov	r0, r4
 1804              		.loc 1 694 0
 1805 02ee F0EE408A 		fcpys	s17, s0
 1806              	.LVL159:
 1807              		.loc 1 695 0
 1808 02f2 02A9     		add	r1, sp, #8
 1809 02f4 9FED260A 		flds	s0, .L216+48
 1810              	.LVL160:
 1811 02f8 FFF7FEFF 		bl	buffer_get_float32
 1812              	.LVL161:
 1813              		.loc 1 696 0
 1814 02fc 2046     		mov	r0, r4
 1815              		.loc 1 695 0
 1816 02fe B0EE409A 		fcpys	s18, s0
 1817              	.LVL162:
 1818              		.loc 1 696 0
ARM GAS  /tmp/ccTQOGyd.s 			page 33


 1819 0302 02A9     		add	r1, sp, #8
 1820 0304 9FED1C0A 		flds	s0, .L216+24
 1821              	.LVL163:
 1822 0308 FFF7FEFF 		bl	buffer_get_float32
 1823              	.LVL164:
 1824              		.loc 1 698 0
 1825 030c 2B68     		ldr	r3, [r5]
 1826 030e 3360     		str	r3, [r6]
 1827              		.loc 1 696 0
 1828 0310 F0EE401A 		fcpys	s3, s0
 1829              	.LVL165:
 1830              		.loc 1 701 0
 1831 0314 F0EE490A 		fcpys	s1, s18
 1832 0318 B0EE681A 		fcpys	s2, s17
 1833 031c B0EE480A 		fcpys	s0, s16
 1834              	.LVL166:
 1835 0320 04A8     		add	r0, sp, #16
 1836 0322 FFF7FEFF 		bl	conf_general_measure_flux_linkage
 1837              	.LVL167:
 1838              		.loc 1 703 0
 1839 0326 0028     		cmp	r0, #0
 1840 0328 41F09281 		bne	.L213
 1841              		.loc 1 704 0
 1842 032c DFED0F7A 		flds	s15, .L216+12
 1843 0330 B0EE670A 		fcpys	s0, s15
 1844 0334 CDED047A 		fsts	s15, [sp, #16]
 1845              	.L132:
 1846              		.loc 1 708 0
 1847 0338 0E4C     		ldr	r4, .L216+20
 1848              	.LVL168:
 1849              		.loc 1 709 0
 1850 033a DFED140A 		flds	s1, .L216+44
 1851              		.loc 1 708 0
 1852 033e 0123     		movs	r3, #1
 1853 0340 1A22     		movs	r2, #26
 1854              		.loc 1 709 0
 1855 0342 02A9     		add	r1, sp, #8
 1856 0344 2046     		mov	r0, r4
 1857              	.LVL169:
 1858              		.loc 1 708 0
 1859 0346 0293     		str	r3, [sp, #8]
 1860 0348 2270     		strb	r2, [r4]
 1861              		.loc 1 709 0
 1862 034a FFF7FEFF 		bl	buffer_append_float32
 1863              	.LVL170:
 1864              		.loc 1 710 0
 1865 034e 3368     		ldr	r3, [r6]
 1866 0350 002B     		cmp	r3, #0
 1867 0352 3FF4D8AE 		beq	.L133
 1868              	.LVL171:
 1869              	.L203:
 1870              		.loc 1 711 0
 1871 0356 2046     		mov	r0, r4
 1872 0358 0299     		ldr	r1, [sp, #8]
 1873 035a 9847     		blx	r3
 1874              	.LVL172:
 1875 035c D8E6     		b	.L82
ARM GAS  /tmp/ccTQOGyd.s 			page 34


 1876              	.L217:
 1877 035e 00BF     		.align	2
 1878              	.L216:
 1879 0360 00000000 		.word	.LANCHOR15
 1880 0364 00000000 		.word	.LANCHOR10
 1881 0368 00000000 		.word	.LANCHOR9
 1882 036c 00000000 		.word	0
 1883 0370 00000000 		.word	.LANCHOR16
 1884 0374 00000000 		.word	.LANCHOR8
 1885 0378 00247449 		.word	1232348160
 1886 037c 00000000 		.word	.LANCHOR13
 1887 0380 00401C46 		.word	1176256512
 1888 0384 0AD7233C 		.word	1008981770
 1889 0388 00002041 		.word	1092616192
 1890 038c 8096184B 		.word	1259902592
 1891 0390 00007A44 		.word	1148846080
 1892              	.LVL173:
 1893              	.L104:
 1894              	.LBE120:
 1895              		.loc 1 651 0
 1896 0394 02A9     		add	r1, sp, #8
 1897 0396 2046     		mov	r0, r4
 1898              	.LVL174:
 1899 0398 1FED030A 		flds	s0, .L216+48
 1900 039c FFF7FEFF 		bl	buffer_get_float32
 1901              	.LVL175:
 1902 03a0 BA4B     		ldr	r3, .L218
 1903              		.loc 1 652 0
 1904 03a2 02A9     		add	r1, sp, #8
 1905              		.loc 1 651 0
 1906 03a4 83ED000A 		fsts	s0, [r3]
 1907              		.loc 1 652 0
 1908 03a8 2046     		mov	r0, r4
 1909 03aa 9FEDB90A 		flds	s0, .L218+4
 1910 03ae FFF7FEFF 		bl	buffer_get_float32
 1911              	.LVL176:
 1912 03b2 B84B     		ldr	r3, .L218+8
 1913              		.loc 1 653 0
 1914 03b4 02A9     		add	r1, sp, #8
 1915 03b6 2046     		mov	r0, r4
 1916              		.loc 1 652 0
 1917 03b8 83ED000A 		fsts	s0, [r3]
 1918              		.loc 1 653 0
 1919 03bc 9FEDB40A 		flds	s0, .L218+4
 1920 03c0 FFF7FEFF 		bl	buffer_get_float32
 1921              	.LVL177:
 1922 03c4 B449     		ldr	r1, .L218+12
 1923              		.loc 1 655 0
 1924 03c6 B54A     		ldr	r2, .L218+16
 1925              		.loc 1 657 0
 1926 03c8 B548     		ldr	r0, .L218+20
 1927              		.loc 1 655 0
 1928 03ca B64B     		ldr	r3, .L218+24
 1929 03cc 1268     		ldr	r2, [r2]
 1930              		.loc 1 653 0
 1931 03ce 81ED000A 		fsts	s0, [r1]
 1932              		.loc 1 657 0
ARM GAS  /tmp/ccTQOGyd.s 			page 35


 1933 03d2 0068     		ldr	r0, [r0]
 1934              		.loc 1 655 0
 1935 03d4 1A60     		str	r2, [r3]
 1936              		.loc 1 657 0
 1937 03d6 0121     		movs	r1, #1
 1938 03d8 FFF7FEFF 		bl	chEvtSignal
 1939              	.LVL178:
 1940              		.loc 1 658 0
 1941 03dc 98E6     		b	.L82
 1942              	.LVL179:
 1943              	.L93:
 1944              		.loc 1 213 0
 1945 03de 02A9     		add	r1, sp, #8
 1946 03e0 2046     		mov	r0, r4
 1947              	.LVL180:
 1948 03e2 FFF7FEFF 		bl	buffer_get_int32
 1949              	.LVL181:
 1950 03e6 06EE900A 		fmsr	s13, r0	@ int
 1951 03ea DFEDA97A 		flds	s15, .L218+4
 1952 03ee B8EEE60A 		fsitos	s0, s13
 1953 03f2 80EE270A 		fdivs	s0, s0, s15
 1954 03f6 FFF7FEFF 		bl	mc_interface_set_brake_current
 1955              	.LVL182:
 1956              		.loc 1 214 0
 1957 03fa FFF7FEFF 		bl	timeout_reset
 1958              	.LVL183:
 1959              		.loc 1 215 0
 1960 03fe 87E6     		b	.L82
 1961              	.LVL184:
 1962              	.L92:
 1963              		.loc 1 195 0
 1964 0400 02A9     		add	r1, sp, #8
 1965 0402 2046     		mov	r0, r4
 1966              	.LVL185:
 1967 0404 FFF7FEFF 		bl	buffer_get_int32
 1968              	.LVL186:
 1969 0408 06EE900A 		fmsr	s13, r0	@ int
 1970 040c DFEDA07A 		flds	s15, .L218+4
 1971 0410 B8EEE60A 		fsitos	s0, s13
 1972 0414 80EE270A 		fdivs	s0, s0, s15
 1973 0418 FFF7FEFF 		bl	mc_interface_set_current
 1974              	.LVL187:
 1975              		.loc 1 196 0
 1976 041c FFF7FEFF 		bl	timeout_reset
 1977              	.LVL188:
 1978              		.loc 1 197 0
 1979 0420 76E6     		b	.L82
 1980              	.LVL189:
 1981              	.L91:
 1982              		.loc 1 189 0
 1983 0422 02A9     		add	r1, sp, #8
 1984 0424 2046     		mov	r0, r4
 1985              	.LVL190:
 1986 0426 FFF7FEFF 		bl	buffer_get_int32
 1987              	.LVL191:
 1988 042a 07EE100A 		fmsr	s14, r0	@ int
 1989 042e DFED9E7A 		flds	s15, .L218+28
ARM GAS  /tmp/ccTQOGyd.s 			page 36


 1990 0432 B8EEC70A 		fsitos	s0, s14
 1991 0436 80EE270A 		fdivs	s0, s0, s15
 1992 043a FFF7FEFF 		bl	mc_interface_set_duty
 1993              	.LVL192:
 1994              		.loc 1 190 0
 1995 043e FFF7FEFF 		bl	timeout_reset
 1996              	.LVL193:
 1997              		.loc 1 191 0
 1998 0442 65E6     		b	.L82
 1999              	.LVL194:
 2000              	.L90:
 2001              		.loc 1 167 0
 2002 0444 36AD     		add	r5, sp, #216
 2003              	.LVL195:
 2004 0446 0123     		movs	r3, #1
 2005 0448 45F8D03D 		str	r3, [r5, #-208]!
 2006 044c 974C     		ldr	r4, .L218+32
 2007              	.LVL196:
 2008 044e 0423     		movs	r3, #4
 2009 0450 2370     		strb	r3, [r4]
 2010              	.LVL197:
 2011              		.loc 1 168 0
 2012 0452 FFF7FEFF 		bl	mc_interface_temp_fet_filtered
 2013              	.LVL198:
 2014 0456 2946     		mov	r1, r5
 2015 0458 2046     		mov	r0, r4
 2016 045a F2EE040A 		fconsts	s1, #36
 2017 045e FFF7FEFF 		bl	buffer_append_float16
 2018              	.LVL199:
 2019              		.loc 1 169 0
 2020 0462 FFF7FEFF 		bl	mc_interface_temp_motor_filtered
 2021              	.LVL200:
 2022 0466 2946     		mov	r1, r5
 2023 0468 2046     		mov	r0, r4
 2024 046a F2EE040A 		fconsts	s1, #36
 2025 046e FFF7FEFF 		bl	buffer_append_float16
 2026              	.LVL201:
 2027              		.loc 1 170 0
 2028 0472 FFF7FEFF 		bl	mc_interface_read_reset_avg_motor_current
 2029              	.LVL202:
 2030 0476 2946     		mov	r1, r5
 2031 0478 2046     		mov	r0, r4
 2032 047a DFED8D0A 		flds	s1, .L218+36
 2033 047e FFF7FEFF 		bl	buffer_append_float32
 2034              	.LVL203:
 2035              		.loc 1 171 0
 2036 0482 FFF7FEFF 		bl	mc_interface_read_reset_avg_input_current
 2037              	.LVL204:
 2038 0486 2946     		mov	r1, r5
 2039 0488 2046     		mov	r0, r4
 2040 048a DFED890A 		flds	s1, .L218+36
 2041 048e FFF7FEFF 		bl	buffer_append_float32
 2042              	.LVL205:
 2043              		.loc 1 172 0
 2044 0492 FFF7FEFF 		bl	mc_interface_read_reset_avg_id
 2045              	.LVL206:
 2046 0496 2946     		mov	r1, r5
ARM GAS  /tmp/ccTQOGyd.s 			page 37


 2047 0498 2046     		mov	r0, r4
 2048 049a DFED850A 		flds	s1, .L218+36
 2049 049e FFF7FEFF 		bl	buffer_append_float32
 2050              	.LVL207:
 2051              		.loc 1 173 0
 2052 04a2 FFF7FEFF 		bl	mc_interface_read_reset_avg_iq
 2053              	.LVL208:
 2054 04a6 2946     		mov	r1, r5
 2055 04a8 2046     		mov	r0, r4
 2056 04aa DFED810A 		flds	s1, .L218+36
 2057 04ae FFF7FEFF 		bl	buffer_append_float32
 2058              	.LVL209:
 2059              		.loc 1 174 0
 2060 04b2 FFF7FEFF 		bl	mc_interface_get_duty_cycle_now
 2061              	.LVL210:
 2062 04b6 2946     		mov	r1, r5
 2063 04b8 2046     		mov	r0, r4
 2064 04ba DFED750A 		flds	s1, .L218+4
 2065 04be FFF7FEFF 		bl	buffer_append_float16
 2066              	.LVL211:
 2067              		.loc 1 175 0
 2068 04c2 FFF7FEFF 		bl	mc_interface_get_rpm
 2069              	.LVL212:
 2070 04c6 2946     		mov	r1, r5
 2071 04c8 2046     		mov	r0, r4
 2072 04ca F7EE000A 		fconsts	s1, #112
 2073 04ce FFF7FEFF 		bl	buffer_append_float32
 2074              	.LVL213:
 2075              		.loc 1 176 0
 2076 04d2 784B     		ldr	r3, .L218+40
 2077 04d4 9FED787A 		flds	s14, .L218+44
 2078 04d8 1B8A     		ldrh	r3, [r3, #16]
 2079 04da DFED787A 		flds	s15, .L218+48
 2080 04de 9BB2     		uxth	r3, r3
 2081 04e0 06EE903A 		fmsr	s13, r3	@ int
 2082 04e4 B8EE660A 		fuitos	s0, s13
 2083 04e8 2946     		mov	r1, r5
 2084 04ea 20EE070A 		fmuls	s0, s0, s14
 2085 04ee F2EE040A 		fconsts	s1, #36
 2086 04f2 20EE270A 		fmuls	s0, s0, s15
 2087 04f6 2046     		mov	r0, r4
 2088 04f8 FFF7FEFF 		bl	buffer_append_float16
 2089              	.LVL214:
 2090              		.loc 1 177 0
 2091 04fc 0020     		movs	r0, #0
 2092 04fe FFF7FEFF 		bl	mc_interface_get_amp_hours
 2093              	.LVL215:
 2094 0502 2946     		mov	r1, r5
 2095 0504 DFED6E0A 		flds	s1, .L218+52
 2096 0508 2046     		mov	r0, r4
 2097 050a FFF7FEFF 		bl	buffer_append_float32
 2098              	.LVL216:
 2099              		.loc 1 178 0
 2100 050e 0020     		movs	r0, #0
 2101 0510 FFF7FEFF 		bl	mc_interface_get_amp_hours_charged
 2102              	.LVL217:
 2103 0514 2946     		mov	r1, r5
ARM GAS  /tmp/ccTQOGyd.s 			page 38


 2104 0516 DFED6A0A 		flds	s1, .L218+52
 2105 051a 2046     		mov	r0, r4
 2106 051c FFF7FEFF 		bl	buffer_append_float32
 2107              	.LVL218:
 2108              		.loc 1 179 0
 2109 0520 0020     		movs	r0, #0
 2110 0522 FFF7FEFF 		bl	mc_interface_get_watt_hours
 2111              	.LVL219:
 2112 0526 2946     		mov	r1, r5
 2113 0528 DFED650A 		flds	s1, .L218+52
 2114 052c 2046     		mov	r0, r4
 2115 052e FFF7FEFF 		bl	buffer_append_float32
 2116              	.LVL220:
 2117              		.loc 1 180 0
 2118 0532 0020     		movs	r0, #0
 2119 0534 FFF7FEFF 		bl	mc_interface_get_watt_hours_charged
 2120              	.LVL221:
 2121 0538 DFED610A 		flds	s1, .L218+52
 2122 053c 2946     		mov	r1, r5
 2123 053e 2046     		mov	r0, r4
 2124 0540 FFF7FEFF 		bl	buffer_append_float32
 2125              	.LVL222:
 2126              		.loc 1 181 0
 2127 0544 0020     		movs	r0, #0
 2128 0546 FFF7FEFF 		bl	mc_interface_get_tachometer_value
 2129              	.LVL223:
 2130 054a 2A46     		mov	r2, r5
 2131 054c 0146     		mov	r1, r0
 2132 054e 2046     		mov	r0, r4
 2133 0550 FFF7FEFF 		bl	buffer_append_int32
 2134              	.LVL224:
 2135              		.loc 1 182 0
 2136 0554 0020     		movs	r0, #0
 2137 0556 FFF7FEFF 		bl	mc_interface_get_tachometer_abs_value
 2138              	.LVL225:
 2139 055a 2A46     		mov	r2, r5
 2140 055c 0146     		mov	r1, r0
 2141 055e 2046     		mov	r0, r4
 2142 0560 FFF7FEFF 		bl	buffer_append_int32
 2143              	.LVL226:
 2144              		.loc 1 183 0
 2145 0564 029D     		ldr	r5, [sp, #8]
 2146 0566 6B1C     		adds	r3, r5, #1
 2147 0568 0293     		str	r3, [sp, #8]
 2148 056a FFF7FEFF 		bl	mc_interface_get_fault
 2149              	.LVL227:
 2150              	.LBB121:
 2151              	.LBB122:
 2152              		.loc 1 91 0
 2153 056e 4B4B     		ldr	r3, .L218+16
 2154              	.LBE122:
 2155              	.LBE121:
 2156              		.loc 1 183 0
 2157 0570 6055     		strb	r0, [r4, r5]
 2158              	.LBB125:
 2159              	.LBB123:
 2160              		.loc 1 91 0
ARM GAS  /tmp/ccTQOGyd.s 			page 39


 2161 0572 1B68     		ldr	r3, [r3]
 2162              	.LBE123:
 2163              	.LBE125:
 2164              		.loc 1 184 0
 2165 0574 0299     		ldr	r1, [sp, #8]
 2166              	.LVL228:
 2167              	.LBB126:
 2168              	.LBB124:
 2169              		.loc 1 91 0
 2170 0576 002B     		cmp	r3, #0
 2171 0578 7FF4C8AD 		bne	.L201
 2172 057c C8E5     		b	.L82
 2173              	.LVL229:
 2174              	.L89:
 2175              	.LBE124:
 2176              	.LBE126:
 2177              		.loc 1 156 0
 2178 057e 2046     		mov	r0, r4
 2179              	.LVL230:
 2180 0580 02A9     		add	r1, sp, #8
 2181 0582 FFF7FEFF 		bl	buffer_get_uint32
 2182              	.LVL231:
 2183              		.loc 1 157 0
 2184 0586 029A     		ldr	r2, [sp, #8]
 2185 0588 A118     		adds	r1, r4, r2
 2186 058a AA1A     		subs	r2, r5, r2
 2187 058c FFF7FEFF 		bl	flash_helper_write_new_app_data
 2188              	.LVL232:
 2189              	.LBB127:
 2190              	.LBB128:
 2191              		.loc 1 91 0
 2192 0590 424A     		ldr	r2, .L218+16
 2193              	.LBE128:
 2194              	.LBE127:
 2195              		.loc 1 160 0
 2196 0592 464B     		ldr	r3, .L218+32
 2197              	.LBB131:
 2198              	.LBB129:
 2199              		.loc 1 91 0
 2200 0594 1268     		ldr	r2, [r2]
 2201              	.LBE129:
 2202              	.LBE131:
 2203              		.loc 1 161 0
 2204 0596 B0F10901 		subs	r1, r0, #9
 2205 059a 4842     		rsbs	r0, r1, #0
 2206              	.LVL233:
 2207 059c 4841     		adcs	r0, r0, r1
 2208              		.loc 1 160 0
 2209 059e 0324     		movs	r4, #3
 2210              	.LVL234:
 2211              		.loc 1 161 0
 2212 05a0 0221     		movs	r1, #2
 2213 05a2 5870     		strb	r0, [r3, #1]
 2214              	.LVL235:
 2215              		.loc 1 160 0
 2216 05a4 1C70     		strb	r4, [r3]
 2217              		.loc 1 161 0
ARM GAS  /tmp/ccTQOGyd.s 			page 40


 2218 05a6 0291     		str	r1, [sp, #8]
 2219              	.LBB132:
 2220              	.LBB130:
 2221              		.loc 1 91 0
 2222 05a8 002A     		cmp	r2, #0
 2223 05aa 3FF4B1AD 		beq	.L82
 2224              	.LVL236:
 2225              	.L197:
 2226              		.loc 1 92 0
 2227 05ae 1846     		mov	r0, r3
 2228 05b0 9047     		blx	r2
 2229              	.LVL237:
 2230 05b2 ADE5     		b	.L82
 2231              	.LVL238:
 2232              	.L88:
 2233              	.LBE130:
 2234              	.LBE132:
 2235              		.loc 1 146 0
 2236 05b4 02A9     		add	r1, sp, #8
 2237 05b6 2046     		mov	r0, r4
 2238              	.LVL239:
 2239 05b8 FFF7FEFF 		bl	buffer_get_uint32
 2240              	.LVL240:
 2241 05bc FFF7FEFF 		bl	flash_helper_erase_new_app
 2242              	.LVL241:
 2243              	.LBB133:
 2244              	.LBB134:
 2245              		.loc 1 91 0
 2246 05c0 364A     		ldr	r2, .L218+16
 2247              	.LBE134:
 2248              	.LBE133:
 2249              		.loc 1 149 0
 2250 05c2 3A4B     		ldr	r3, .L218+32
 2251              	.LBB137:
 2252              	.LBB135:
 2253              		.loc 1 91 0
 2254 05c4 1268     		ldr	r2, [r2]
 2255              	.LBE135:
 2256              	.LBE137:
 2257              		.loc 1 150 0
 2258 05c6 B0F10904 		subs	r4, r0, #9
 2259              	.LVL242:
 2260 05ca 6042     		rsbs	r0, r4, #0
 2261              	.LVL243:
 2262              		.loc 1 149 0
 2263 05cc 4FF00201 		mov	r1, #2
 2264              		.loc 1 150 0
 2265 05d0 6041     		adcs	r0, r0, r4
 2266 05d2 5870     		strb	r0, [r3, #1]
 2267              	.LVL244:
 2268              		.loc 1 149 0
 2269 05d4 1970     		strb	r1, [r3]
 2270              		.loc 1 150 0
 2271 05d6 0291     		str	r1, [sp, #8]
 2272              	.LBB138:
 2273              	.LBB136:
 2274              		.loc 1 91 0
ARM GAS  /tmp/ccTQOGyd.s 			page 41


 2275 05d8 002A     		cmp	r2, #0
 2276 05da E8D1     		bne	.L197
 2277 05dc 98E5     		b	.L82
 2278              	.LVL245:
 2279              	.L87:
 2280              	.LBE136:
 2281              	.LBE138:
 2282              		.loc 1 141 0
 2283 05de FFF7FEFF 		bl	flash_helper_jump_to_bootloader
 2284              	.LVL246:
 2285              		.loc 1 142 0
 2286 05e2 95E5     		b	.L82
 2287              	.LVL247:
 2288              	.L85:
 2289              		.loc 1 130 0
 2290 05e4 374A     		ldr	r2, .L218+56
 2291              		.loc 1 125 0
 2292 05e6 314B     		ldr	r3, .L218+32
 2293              		.loc 1 130 0
 2294 05e8 1068     		ldr	r0, [r2]	@ unaligned
 2295              	.LVL248:
 2296 05ea C3F80300 		str	r0, [r3, #3]	@ unaligned
 2297              	.LVL249:
 2298              		.loc 1 126 0
 2299 05ee 0321     		movs	r1, #3
 2300              		.loc 1 125 0
 2301 05f0 0020     		movs	r0, #0
 2302              		.loc 1 127 0
 2303 05f2 2122     		movs	r2, #33
 2304              		.loc 1 133 0
 2305 05f4 344C     		ldr	r4, .L218+60
 2306              	.LVL250:
 2307              		.loc 1 125 0
 2308 05f6 1870     		strb	r0, [r3]
 2309              		.loc 1 126 0
 2310 05f8 5970     		strb	r1, [r3, #1]
 2311              		.loc 1 127 0
 2312 05fa 9A70     		strb	r2, [r3, #2]
 2313              		.loc 1 133 0
 2314 05fc 07CC     		ldmia	r4!, {r0, r1, r2}
 2315              	.LBB139:
 2316              	.LBB140:
 2317              		.loc 1 91 0
 2318 05fe 274C     		ldr	r4, .L218+16
 2319              	.LBE140:
 2320              	.LBE139:
 2321              		.loc 1 133 0
 2322 0600 C3F80B10 		str	r1, [r3, #11]	@ unaligned
 2323              	.LBB143:
 2324              	.LBB141:
 2325              		.loc 1 91 0
 2326 0604 2468     		ldr	r4, [r4]
 2327              	.LBE141:
 2328              	.LBE143:
 2329              		.loc 1 133 0
 2330 0606 C3F80700 		str	r0, [r3, #7]	@ unaligned
 2331              		.loc 1 134 0
ARM GAS  /tmp/ccTQOGyd.s 			page 42


 2332 060a 1321     		movs	r1, #19
 2333              		.loc 1 133 0
 2334 060c C3F80F20 		str	r2, [r3, #15]	@ unaligned
 2335              		.loc 1 134 0
 2336 0610 0291     		str	r1, [sp, #8]
 2337              	.LVL251:
 2338              	.LBB144:
 2339              	.LBB142:
 2340              		.loc 1 91 0
 2341 0612 002C     		cmp	r4, #0
 2342 0614 3FF47CAD 		beq	.L82
 2343              		.loc 1 92 0
 2344 0618 1846     		mov	r0, r3
 2345 061a A047     		blx	r4
 2346              	.LVL252:
 2347 061c 78E5     		b	.L82
 2348              	.LVL253:
 2349              	.L118:
 2350              	.LBE142:
 2351              	.LBE144:
 2352              		.loc 1 201 0
 2353 061e 02A9     		add	r1, sp, #8
 2354 0620 2046     		mov	r0, r4
 2355              	.LVL254:
 2356 0622 FFF7FEFF 		bl	buffer_get_int32
 2357              	.LVL255:
 2358 0626 07EE100A 		fmsr	s14, r0	@ int
 2359 062a DFED197A 		flds	s15, .L218+4
 2360              		.loc 1 204 0
 2361 062e 1F4C     		ldr	r4, .L218+32
 2362              	.LVL256:
 2363              		.loc 1 201 0
 2364 0630 B8EEC70A 		fsitos	s0, s14
 2365 0634 80EE270A 		fdivs	s0, s0, s15
 2366 0638 FFF7FEFF 		bl	mc_interface_set_current
 2367              	.LVL257:
 2368              		.loc 1 202 0
 2369 063c FFF7FEFF 		bl	timeout_reset
 2370              	.LVL258:
 2371              		.loc 1 204 0
 2372 0640 2622     		movs	r2, #38
 2373 0642 0123     		movs	r3, #1
 2374 0644 2270     		strb	r2, [r4]
 2375 0646 0293     		str	r3, [sp, #8]
 2376              		.loc 1 205 0
 2377 0648 FFF7FEFF 		bl	encoder_cumulative_counts
 2378              	.LVL259:
 2379 064c 02AA     		add	r2, sp, #8
 2380 064e 0146     		mov	r1, r0
 2381 0650 2046     		mov	r0, r4
 2382              	.LVL260:
 2383              	.L210:
 2384              		.loc 1 833 0
 2385 0652 FFF7FEFF 		bl	buffer_append_int32
 2386              	.LVL261:
 2387              	.LBB145:
 2388              	.LBB108:
ARM GAS  /tmp/ccTQOGyd.s 			page 43


 2389              		.loc 1 91 0
 2390 0656 114B     		ldr	r3, .L218+16
 2391              	.LBE108:
 2392              	.LBE145:
 2393              		.loc 1 834 0
 2394 0658 0299     		ldr	r1, [sp, #8]
 2395              	.LVL262:
 2396              	.LBB146:
 2397              	.LBB109:
 2398              		.loc 1 91 0
 2399 065a 1B68     		ldr	r3, [r3]
 2400 065c 002B     		cmp	r3, #0
 2401 065e 7FF455AD 		bne	.L201
 2402 0662 55E5     		b	.L82
 2403              	.LVL263:
 2404              	.L117:
 2405              	.LBE109:
 2406              	.LBE146:
 2407              		.loc 1 861 0
 2408 0664 02A9     		add	r1, sp, #8
 2409 0666 2046     		mov	r0, r4
 2410              	.LVL264:
 2411 0668 FFF7FEFF 		bl	buffer_get_int32
 2412              	.LVL265:
 2413 066c FFF7FEFF 		bl	nrf_driver_start_pairing
 2414              	.LVL266:
 2415              	.LBB147:
 2416              	.LBB148:
 2417              		.loc 1 91 0
 2418 0670 0A4B     		ldr	r3, .L218+16
 2419              	.LBE148:
 2420              	.LBE147:
 2421              		.loc 1 864 0
 2422 0672 0E48     		ldr	r0, .L218+32
 2423              	.LBB151:
 2424              	.LBB149:
 2425              		.loc 1 91 0
 2426 0674 1B68     		ldr	r3, [r3]
 2427              	.LBE149:
 2428              	.LBE151:
 2429              		.loc 1 864 0
 2430 0676 2524     		movs	r4, #37
 2431              	.LVL267:
 2432              		.loc 1 865 0
 2433 0678 0022     		movs	r2, #0
 2434 067a 0221     		movs	r1, #2
 2435              		.loc 1 864 0
 2436 067c 0470     		strb	r4, [r0]
 2437              		.loc 1 865 0
 2438 067e 4270     		strb	r2, [r0, #1]
 2439              	.LVL268:
 2440 0680 0291     		str	r1, [sp, #8]
 2441              	.LBB152:
 2442              	.LBB150:
 2443              		.loc 1 91 0
 2444 0682 002B     		cmp	r3, #0
 2445 0684 3FF444AD 		beq	.L82
ARM GAS  /tmp/ccTQOGyd.s 			page 44


 2446              	.LVL269:
 2447              	.L200:
 2448              		.loc 1 92 0
 2449 0688 9847     		blx	r3
 2450              	.LVL270:
 2451 068a 41E5     		b	.L82
 2452              	.L219:
 2453              		.align	2
 2454              	.L218:
 2455 068c 00000000 		.word	.LANCHOR1
 2456 0690 00007A44 		.word	1148846080
 2457 0694 00000000 		.word	.LANCHOR2
 2458 0698 00000000 		.word	.LANCHOR3
 2459 069c 00000000 		.word	.LANCHOR10
 2460 06a0 00000000 		.word	.LANCHOR0
 2461 06a4 00000000 		.word	.LANCHOR9
 2462 06a8 0050C347 		.word	1203982336
 2463 06ac 00000000 		.word	.LANCHOR8
 2464 06b0 0000C842 		.word	1120403456
 2465 06b4 00000000 		.word	ADC_Value
 2466 06b8 6740533A 		.word	978534503
 2467 06bc 74D19541 		.word	1100337524
 2468 06c0 00401C46 		.word	1176256512
 2469 06c4 08000000 		.word	.LC1
 2470 06c8 107AFF1F 		.word	536836624
 2471              	.LVL271:
 2472              	.L116:
 2473              	.LBE150:
 2474              	.LBE152:
 2475              		.loc 1 854 0
 2476 06cc 514B     		ldr	r3, .L220
 2477 06ce 1B68     		ldr	r3, [r3]
 2478 06d0 002B     		cmp	r3, #0
 2479 06d2 3FF41DAD 		beq	.L82
 2480              		.loc 1 855 0
 2481 06d6 2046     		mov	r0, r4
 2482              	.LVL272:
 2483              	.L202:
 2484 06d8 2946     		mov	r1, r5
 2485 06da 9847     		blx	r3
 2486              	.LVL273:
 2487 06dc 18E5     		b	.L82
 2488              	.LVL274:
 2489              	.L115:
 2490              		.loc 1 845 0
 2491 06de C678     		ldrb	r6, [r0, #3]	@ zero_extendqisi2
 2492              		.loc 1 846 0
 2493 06e0 0579     		ldrb	r5, [r0, #4]	@ zero_extendqisi2
 2494              	.LVL275:
 2495              		.loc 1 843 0
 2496 06e2 4378     		ldrb	r3, [r0, #1]	@ zero_extendqisi2
 2497              		.loc 1 844 0
 2498 06e4 8278     		ldrb	r2, [r0, #2]	@ zero_extendqisi2
 2499              		.loc 1 843 0
 2500 06e6 0493     		str	r3, [sp, #16]
 2501              		.loc 1 845 0
 2502 06e8 0036     		adds	r6, r6, #0
ARM GAS  /tmp/ccTQOGyd.s 			page 45


 2503 06ea 18BF     		it	ne
 2504 06ec 0126     		movne	r6, #1
 2505              		.loc 1 846 0
 2506 06ee 0035     		adds	r5, r5, #0
 2507 06f0 18BF     		it	ne
 2508 06f2 0125     		movne	r5, #1
 2509 06f4 0423     		movs	r3, #4
 2510              		.loc 1 847 0
 2511 06f6 02A9     		add	r1, sp, #8
 2512              	.LVL276:
 2513 06f8 2046     		mov	r0, r4
 2514              	.LVL277:
 2515              		.loc 1 844 0
 2516 06fa 0592     		str	r2, [sp, #20]
 2517              		.loc 1 846 0
 2518 06fc 0293     		str	r3, [sp, #8]
 2519              		.loc 1 845 0
 2520 06fe 8DF82460 		strb	r6, [sp, #36]
 2521              		.loc 1 846 0
 2522 0702 8DF82550 		strb	r5, [sp, #37]
 2523              		.loc 1 847 0
 2524 0706 FFF7FEFF 		bl	buffer_get_int16
 2525              	.LVL278:
 2526              		.loc 1 848 0
 2527 070a 02A9     		add	r1, sp, #8
 2528              		.loc 1 847 0
 2529 070c 0690     		str	r0, [sp, #24]
 2530              		.loc 1 848 0
 2531 070e 2046     		mov	r0, r4
 2532 0710 FFF7FEFF 		bl	buffer_get_int16
 2533              	.LVL279:
 2534              		.loc 1 849 0
 2535 0714 02A9     		add	r1, sp, #8
 2536              		.loc 1 848 0
 2537 0716 0790     		str	r0, [sp, #28]
 2538              		.loc 1 849 0
 2539 0718 2046     		mov	r0, r4
 2540 071a FFF7FEFF 		bl	buffer_get_int16
 2541              	.LVL280:
 2542 071e 0890     		str	r0, [sp, #32]
 2543              		.loc 1 850 0
 2544 0720 04A8     		add	r0, sp, #16
 2545 0722 FFF7FEFF 		bl	app_nunchuk_update_output
 2546              	.LVL281:
 2547              		.loc 1 851 0
 2548 0726 F3E4     		b	.L82
 2549              	.LVL282:
 2550              	.L114:
 2551              		.loc 1 838 0
 2552 0728 8A1E     		subs	r2, r1, #2
 2553 072a 4078     		ldrb	r0, [r0, #1]	@ zero_extendqisi2
 2554              	.LVL283:
 2555 072c B91C     		adds	r1, r7, #2
 2556 072e 0023     		movs	r3, #0
 2557 0730 FFF7FEFF 		bl	comm_can_send_buffer
 2558              	.LVL284:
 2559              		.loc 1 839 0
ARM GAS  /tmp/ccTQOGyd.s 			page 46


 2560 0734 ECE4     		b	.L82
 2561              	.LVL285:
 2562              	.L113:
 2563              		.loc 1 832 0
 2564 0736 36AD     		add	r5, sp, #216
 2565              	.LVL286:
 2566 0738 374C     		ldr	r4, .L220+4
 2567              	.LVL287:
 2568 073a 0122     		movs	r2, #1
 2569 073c 2123     		movs	r3, #33
 2570 073e 45F8D02D 		str	r2, [r5, #-208]!
 2571 0742 2370     		strb	r3, [r4]
 2572              	.LVL288:
 2573              		.loc 1 833 0
 2574 0744 FFF7FEFF 		bl	app_nunchuk_get_decoded_chuk
 2575              	.LVL289:
 2576 0748 DFED347A 		flds	s15, .L220+8
 2577 074c 20EE270A 		fmuls	s0, s0, s15
 2578              	.L206:
 2579 0750 BDEEC00A 		ftosizs	s0, s0
 2580 0754 2A46     		mov	r2, r5
 2581 0756 10EE101A 		fmrs	r1, s0	@ int
 2582 075a 2046     		mov	r0, r4
 2583 075c 79E7     		b	.L210
 2584              	.LVL290:
 2585              	.L112:
 2586              		.loc 1 822 0
 2587 075e 36AD     		add	r5, sp, #216
 2588              	.LVL291:
 2589 0760 2D4C     		ldr	r4, .L220+4
 2590              	.LVL292:
 2591              		.loc 1 823 0
 2592 0762 9FED2E8A 		flds	s16, .L220+8
 2593              		.loc 1 822 0
 2594 0766 2023     		movs	r3, #32
 2595 0768 0122     		movs	r2, #1
 2596 076a 2370     		strb	r3, [r4]
 2597              	.LVL293:
 2598 076c 45F8D02D 		str	r2, [r5, #-208]!
 2599              		.loc 1 823 0
 2600 0770 FFF7FEFF 		bl	app_adc_get_decoded_level
 2601              	.LVL294:
 2602 0774 20EE080A 		fmuls	s0, s0, s16
 2603 0778 2A46     		mov	r2, r5
 2604 077a BDEEC00A 		ftosizs	s0, s0
 2605 077e 2046     		mov	r0, r4
 2606 0780 10EE101A 		fmrs	r1, s0	@ int
 2607 0784 FFF7FEFF 		bl	buffer_append_int32
 2608              	.LVL295:
 2609              		.loc 1 824 0
 2610 0788 FFF7FEFF 		bl	app_adc_get_voltage
 2611              	.LVL296:
 2612 078c 20EE080A 		fmuls	s0, s0, s16
 2613 0790 2A46     		mov	r2, r5
 2614 0792 BDEEC00A 		ftosizs	s0, s0
 2615 0796 2046     		mov	r0, r4
 2616 0798 10EE101A 		fmrs	r1, s0	@ int
ARM GAS  /tmp/ccTQOGyd.s 			page 47


 2617 079c FFF7FEFF 		bl	buffer_append_int32
 2618              	.LVL297:
 2619              		.loc 1 825 0
 2620 07a0 FFF7FEFF 		bl	app_adc_get_decoded_level2
 2621              	.LVL298:
 2622 07a4 20EE080A 		fmuls	s0, s0, s16
 2623 07a8 2A46     		mov	r2, r5
 2624 07aa BDEEC00A 		ftosizs	s0, s0
 2625 07ae 2046     		mov	r0, r4
 2626 07b0 10EE101A 		fmrs	r1, s0	@ int
 2627 07b4 FFF7FEFF 		bl	buffer_append_int32
 2628              	.LVL299:
 2629              		.loc 1 826 0
 2630 07b8 FFF7FEFF 		bl	app_adc_get_voltage2
 2631              	.LVL300:
 2632 07bc 20EE080A 		fmuls	s0, s0, s16
 2633 07c0 C6E7     		b	.L206
 2634              	.LVL301:
 2635              	.L111:
 2636              		.loc 1 814 0
 2637 07c2 36AD     		add	r5, sp, #216
 2638              	.LVL302:
 2639 07c4 144C     		ldr	r4, .L220+4
 2640              	.LVL303:
 2641              		.loc 1 815 0
 2642 07c6 9FED158A 		flds	s16, .L220+8
 2643              		.loc 1 814 0
 2644 07ca 1F23     		movs	r3, #31
 2645 07cc 0122     		movs	r2, #1
 2646 07ce 2370     		strb	r3, [r4]
 2647              	.LVL304:
 2648 07d0 45F8D02D 		str	r2, [r5, #-208]!
 2649              		.loc 1 815 0
 2650 07d4 FFF7FEFF 		bl	app_ppm_get_decoded_level
 2651              	.LVL305:
 2652 07d8 20EE080A 		fmuls	s0, s0, s16
 2653 07dc 2A46     		mov	r2, r5
 2654 07de BDEEC00A 		ftosizs	s0, s0
 2655 07e2 2046     		mov	r0, r4
 2656 07e4 10EE101A 		fmrs	r1, s0	@ int
 2657 07e8 FFF7FEFF 		bl	buffer_append_int32
 2658              	.LVL306:
 2659              		.loc 1 816 0
 2660 07ec 0020     		movs	r0, #0
 2661 07ee FFF7FEFF 		bl	servodec_get_last_pulse_len
 2662              	.LVL307:
 2663 07f2 20EE080A 		fmuls	s0, s0, s16
 2664 07f6 ABE7     		b	.L206
 2665              	.LVL308:
 2666              	.L101:
 2667              		.loc 1 623 0
 2668 07f8 B8F1110F 		cmp	r8, #17
 2669 07fc 00F03A87 		beq	.L214
 2670              		.loc 1 626 0
 2671 0800 04AC     		add	r4, sp, #16
 2672              	.LVL309:
 2673 0802 2046     		mov	r0, r4
ARM GAS  /tmp/ccTQOGyd.s 			page 48


 2674              	.LVL310:
 2675 0804 FFF7FEFF 		bl	conf_general_get_default_app_configuration
 2676              	.LVL311:
 2677              	.L126:
 2678              		.loc 1 629 0
 2679 0808 4046     		mov	r0, r8
 2680 080a 2146     		mov	r1, r4
 2681 080c FFF7FEFF 		bl	commands_send_appconf
 2682              	.LVL312:
 2683              		.loc 1 630 0
 2684 0810 7EE4     		b	.L82
 2685              	.L221:
 2686 0812 00BF     		.align	2
 2687              	.L220:
 2688 0814 00000000 		.word	.LANCHOR14
 2689 0818 00000000 		.word	.LANCHOR8
 2690 081c 00247449 		.word	1232348160
 2691              	.LVL313:
 2692              	.L100:
 2693              		.loc 1 535 0
 2694 0820 FFF7FEFF 		bl	app_get_configuration
 2695              	.LVL314:
 2696 0824 C822     		movs	r2, #200
 2697 0826 0146     		mov	r1, r0
 2698 0828 04A8     		add	r0, sp, #16
 2699              		.loc 1 538 0
 2700 082a 0125     		movs	r5, #1
 2701              	.LVL315:
 2702              		.loc 1 535 0
 2703 082c FFF7FEFF 		bl	memcpy
 2704              	.LVL316:
 2705              		.loc 1 538 0
 2706 0830 7B78     		ldrb	r3, [r7, #1]	@ zero_extendqisi2
 2707 0832 8DF81030 		strb	r3, [sp, #16]
 2708              		.loc 1 539 0
 2709 0836 02A9     		add	r1, sp, #8
 2710 0838 2046     		mov	r0, r4
 2711              		.loc 1 538 0
 2712 083a 0295     		str	r5, [sp, #8]
 2713              		.loc 1 539 0
 2714 083c FFF7FEFF 		bl	buffer_get_uint32
 2715              	.LVL317:
 2716              		.loc 1 540 0
 2717 0840 02A9     		add	r1, sp, #8
 2718              		.loc 1 539 0
 2719 0842 0590     		str	r0, [sp, #20]
 2720              		.loc 1 540 0
 2721 0844 2046     		mov	r0, r4
 2722 0846 FFF7FEFF 		bl	buffer_get_float32_auto
 2723              	.LVL318:
 2724              		.loc 1 541 0
 2725 084a 029B     		ldr	r3, [sp, #8]
 2726 084c E25C     		ldrb	r2, [r4, r3]	@ zero_extendqisi2
 2727              		.loc 1 540 0
 2728 084e 8DED060A 		fsts	s0, [sp, #24]
 2729              		.loc 1 541 0
 2730 0852 0032     		adds	r2, r2, #0
ARM GAS  /tmp/ccTQOGyd.s 			page 49


 2731 0854 18BF     		it	ne
 2732 0856 0122     		movne	r2, #1
 2733 0858 2B44     		add	r3, r3, r5
 2734              		.loc 1 542 0
 2735 085a 02A9     		add	r1, sp, #8
 2736 085c 2046     		mov	r0, r4
 2737              		.loc 1 541 0
 2738 085e 8DF81C20 		strb	r2, [sp, #28]
 2739 0862 0293     		str	r3, [sp, #8]
 2740              		.loc 1 542 0
 2741 0864 FFF7FEFF 		bl	buffer_get_uint16
 2742              	.LVL319:
 2743              		.loc 1 543 0
 2744 0868 029B     		ldr	r3, [sp, #8]
 2745              		.loc 1 542 0
 2746 086a 0890     		str	r0, [sp, #32]
 2747              		.loc 1 543 0
 2748 086c 5919     		adds	r1, r3, r5
 2749              		.loc 1 545 0
 2750 086e 9A1C     		adds	r2, r3, #2
 2751 0870 615C     		ldrb	r1, [r4, r1]	@ zero_extendqisi2
 2752              		.loc 1 547 0
 2753 0872 A65C     		ldrb	r6, [r4, r2]	@ zero_extendqisi2
 2754              		.loc 1 543 0
 2755 0874 E25C     		ldrb	r2, [r4, r3]	@ zero_extendqisi2
 2756              		.loc 1 545 0
 2757 0876 8DF82510 		strb	r1, [sp, #37]
 2758              		.loc 1 547 0
 2759 087a 0333     		adds	r3, r3, #3
 2760              		.loc 1 548 0
 2761 087c 2046     		mov	r0, r4
 2762 087e 02A9     		add	r1, sp, #8
 2763              		.loc 1 543 0
 2764 0880 8DF82420 		strb	r2, [sp, #36]
 2765              		.loc 1 547 0
 2766 0884 0293     		str	r3, [sp, #8]
 2767 0886 8DF82860 		strb	r6, [sp, #40]
 2768              		.loc 1 548 0
 2769 088a FFF7FEFF 		bl	buffer_get_float32_auto
 2770              	.LVL320:
 2771              		.loc 1 549 0
 2772 088e 2046     		mov	r0, r4
 2773 0890 02A9     		add	r1, sp, #8
 2774              		.loc 1 548 0
 2775 0892 8DED0B0A 		fsts	s0, [sp, #44]
 2776              		.loc 1 549 0
 2777 0896 FFF7FEFF 		bl	buffer_get_float32_auto
 2778              	.LVL321:
 2779              		.loc 1 550 0
 2780 089a 2046     		mov	r0, r4
 2781 089c 02A9     		add	r1, sp, #8
 2782              		.loc 1 549 0
 2783 089e 8DED0C0A 		fsts	s0, [sp, #48]
 2784              		.loc 1 550 0
 2785 08a2 FFF7FEFF 		bl	buffer_get_float32_auto
 2786              	.LVL322:
 2787              		.loc 1 551 0
ARM GAS  /tmp/ccTQOGyd.s 			page 50


 2788 08a6 2046     		mov	r0, r4
 2789 08a8 02A9     		add	r1, sp, #8
 2790              		.loc 1 550 0
 2791 08aa 8DED0D0A 		fsts	s0, [sp, #52]
 2792              		.loc 1 551 0
 2793 08ae FFF7FEFF 		bl	buffer_get_float32_auto
 2794              	.LVL323:
 2795              		.loc 1 552 0
 2796 08b2 2046     		mov	r0, r4
 2797 08b4 02A9     		add	r1, sp, #8
 2798              		.loc 1 551 0
 2799 08b6 8DED0E0A 		fsts	s0, [sp, #56]
 2800              		.loc 1 552 0
 2801 08ba FFF7FEFF 		bl	buffer_get_float32_auto
 2802              	.LVL324:
 2803              		.loc 1 553 0
 2804 08be 029B     		ldr	r3, [sp, #8]
 2805 08c0 5919     		adds	r1, r3, r5
 2806 08c2 E25C     		ldrb	r2, [r4, r3]	@ zero_extendqisi2
 2807              		.loc 1 554 0
 2808 08c4 665C     		ldrb	r6, [r4, r1]	@ zero_extendqisi2
 2809              		.loc 1 552 0
 2810 08c6 8DED0F0A 		fsts	s0, [sp, #60]
 2811              		.loc 1 553 0
 2812 08ca 0032     		adds	r2, r2, #0
 2813 08cc 18BF     		it	ne
 2814 08ce 0122     		movne	r2, #1
 2815              		.loc 1 554 0
 2816 08d0 0036     		adds	r6, r6, #0
 2817 08d2 18BF     		it	ne
 2818 08d4 0126     		movne	r6, #1
 2819 08d6 0233     		adds	r3, r3, #2
 2820              		.loc 1 555 0
 2821 08d8 2046     		mov	r0, r4
 2822 08da 02A9     		add	r1, sp, #8
 2823              		.loc 1 553 0
 2824 08dc 8DF84020 		strb	r2, [sp, #64]
 2825              		.loc 1 554 0
 2826 08e0 0293     		str	r3, [sp, #8]
 2827 08e2 8DF84160 		strb	r6, [sp, #65]
 2828              		.loc 1 555 0
 2829 08e6 FFF7FEFF 		bl	buffer_get_float32_auto
 2830              	.LVL325:
 2831              		.loc 1 556 0
 2832 08ea 2046     		mov	r0, r4
 2833 08ec 02A9     		add	r1, sp, #8
 2834              		.loc 1 555 0
 2835 08ee 8DED110A 		fsts	s0, [sp, #68]
 2836              		.loc 1 556 0
 2837 08f2 FFF7FEFF 		bl	buffer_get_float32_auto
 2838              	.LVL326:
 2839              		.loc 1 557 0
 2840 08f6 029B     		ldr	r3, [sp, #8]
 2841              		.loc 1 558 0
 2842 08f8 2046     		mov	r0, r4
 2843              		.loc 1 557 0
 2844 08fa 5A19     		adds	r2, r3, r5
ARM GAS  /tmp/ccTQOGyd.s 			page 51


 2845              		.loc 1 558 0
 2846 08fc 02A9     		add	r1, sp, #8
 2847              		.loc 1 557 0
 2848 08fe E35C     		ldrb	r3, [r4, r3]	@ zero_extendqisi2
 2849 0900 8DF84C30 		strb	r3, [sp, #76]
 2850 0904 0292     		str	r2, [sp, #8]
 2851              		.loc 1 556 0
 2852 0906 8DED120A 		fsts	s0, [sp, #72]
 2853              		.loc 1 558 0
 2854 090a FFF7FEFF 		bl	buffer_get_float32_auto
 2855              	.LVL327:
 2856              		.loc 1 559 0
 2857 090e 2046     		mov	r0, r4
 2858 0910 02A9     		add	r1, sp, #8
 2859              		.loc 1 558 0
 2860 0912 8DED140A 		fsts	s0, [sp, #80]
 2861              		.loc 1 559 0
 2862 0916 FFF7FEFF 		bl	buffer_get_float32_auto
 2863              	.LVL328:
 2864              		.loc 1 560 0
 2865 091a 029B     		ldr	r3, [sp, #8]
 2866 091c 5919     		adds	r1, r3, r5
 2867 091e E25C     		ldrb	r2, [r4, r3]	@ zero_extendqisi2
 2868              		.loc 1 561 0
 2869 0920 665C     		ldrb	r6, [r4, r1]	@ zero_extendqisi2
 2870              		.loc 1 559 0
 2871 0922 8DED150A 		fsts	s0, [sp, #84]
 2872              		.loc 1 560 0
 2873 0926 0032     		adds	r2, r2, #0
 2874 0928 18BF     		it	ne
 2875 092a 0122     		movne	r2, #1
 2876              		.loc 1 561 0
 2877 092c 0036     		adds	r6, r6, #0
 2878 092e 18BF     		it	ne
 2879 0930 0126     		movne	r6, #1
 2880 0932 0233     		adds	r3, r3, #2
 2881              		.loc 1 562 0
 2882 0934 2046     		mov	r0, r4
 2883 0936 02A9     		add	r1, sp, #8
 2884              		.loc 1 561 0
 2885 0938 8DF85960 		strb	r6, [sp, #89]
 2886              		.loc 1 560 0
 2887 093c 8DF85820 		strb	r2, [sp, #88]
 2888              		.loc 1 561 0
 2889 0940 0293     		str	r3, [sp, #8]
 2890              		.loc 1 562 0
 2891 0942 FFF7FEFF 		bl	buffer_get_float32_auto
 2892              	.LVL329:
 2893              		.loc 1 564 0
 2894 0946 029B     		ldr	r3, [sp, #8]
 2895              		.loc 1 565 0
 2896 0948 2046     		mov	r0, r4
 2897              		.loc 1 564 0
 2898 094a 5A19     		adds	r2, r3, r5
 2899              		.loc 1 565 0
 2900 094c 02A9     		add	r1, sp, #8
 2901              		.loc 1 564 0
ARM GAS  /tmp/ccTQOGyd.s 			page 52


 2902 094e E35C     		ldrb	r3, [r4, r3]	@ zero_extendqisi2
 2903 0950 8DF86030 		strb	r3, [sp, #96]
 2904 0954 0292     		str	r2, [sp, #8]
 2905              		.loc 1 562 0
 2906 0956 8DED170A 		fsts	s0, [sp, #92]
 2907              		.loc 1 565 0
 2908 095a FFF7FEFF 		bl	buffer_get_float32_auto
 2909              	.LVL330:
 2910              		.loc 1 566 0
 2911 095e 2046     		mov	r0, r4
 2912 0960 02A9     		add	r1, sp, #8
 2913              		.loc 1 565 0
 2914 0962 8DED190A 		fsts	s0, [sp, #100]
 2915              		.loc 1 566 0
 2916 0966 FFF7FEFF 		bl	buffer_get_float32_auto
 2917              	.LVL331:
 2918              		.loc 1 567 0
 2919 096a 2046     		mov	r0, r4
 2920 096c 02A9     		add	r1, sp, #8
 2921              		.loc 1 566 0
 2922 096e 8DED1A0A 		fsts	s0, [sp, #104]
 2923              		.loc 1 567 0
 2924 0972 FFF7FEFF 		bl	buffer_get_float32_auto
 2925              	.LVL332:
 2926              		.loc 1 568 0
 2927 0976 2046     		mov	r0, r4
 2928 0978 02A9     		add	r1, sp, #8
 2929              		.loc 1 567 0
 2930 097a 8DED1B0A 		fsts	s0, [sp, #108]
 2931              		.loc 1 568 0
 2932 097e FFF7FEFF 		bl	buffer_get_float32_auto
 2933              	.LVL333:
 2934              		.loc 1 569 0
 2935 0982 2046     		mov	r0, r4
 2936 0984 02A9     		add	r1, sp, #8
 2937              		.loc 1 568 0
 2938 0986 8DED1C0A 		fsts	s0, [sp, #112]
 2939              		.loc 1 569 0
 2940 098a FFF7FEFF 		bl	buffer_get_float32_auto
 2941              	.LVL334:
 2942              		.loc 1 570 0
 2943 098e 2046     		mov	r0, r4
 2944 0990 02A9     		add	r1, sp, #8
 2945              		.loc 1 569 0
 2946 0992 8DED1D0A 		fsts	s0, [sp, #116]
 2947              		.loc 1 570 0
 2948 0996 FFF7FEFF 		bl	buffer_get_float32_auto
 2949              	.LVL335:
 2950              		.loc 1 571 0
 2951 099a 029B     		ldr	r3, [sp, #8]
 2952 099c 5F19     		adds	r7, r3, r5
 2953              		.loc 1 572 0
 2954 099e 9E1C     		adds	r6, r3, #2
 2955 09a0 14F80780 		ldrb	r8, [r4, r7]	@ zero_extendqisi2
 2956              	.LVL336:
 2957              		.loc 1 573 0
 2958 09a4 14F806C0 		ldrb	ip, [r4, r6]	@ zero_extendqisi2
ARM GAS  /tmp/ccTQOGyd.s 			page 53


 2959 09a8 D81C     		adds	r0, r3, #3
 2960              		.loc 1 574 0
 2961 09aa 191D     		adds	r1, r3, #4
 2962 09ac 14F800E0 		ldrb	lr, [r4, r0]	@ zero_extendqisi2
 2963              		.loc 1 575 0
 2964 09b0 675C     		ldrb	r7, [r4, r1]	@ zero_extendqisi2
 2965              		.loc 1 572 0
 2966 09b2 18F10008 		adds	r8, r8, #0
 2967              		.loc 1 575 0
 2968 09b6 03F10502 		add	r2, r3, #5
 2969              		.loc 1 572 0
 2970 09ba 18BF     		it	ne
 2971 09bc 4FF00108 		movne	r8, #1
 2972              		.loc 1 573 0
 2973 09c0 1CF1000C 		adds	ip, ip, #0
 2974 09c4 18BF     		it	ne
 2975 09c6 4FF0010C 		movne	ip, #1
 2976              		.loc 1 576 0
 2977 09ca A65C     		ldrb	r6, [r4, r2]	@ zero_extendqisi2
 2978              		.loc 1 571 0
 2979 09cc E25C     		ldrb	r2, [r4, r3]	@ zero_extendqisi2
 2980              		.loc 1 573 0
 2981 09ce 8DF87EC0 		strb	ip, [sp, #126]
 2982              		.loc 1 574 0
 2983 09d2 1EF1000E 		adds	lr, lr, #0
 2984 09d6 18BF     		it	ne
 2985 09d8 4FF0010E 		movne	lr, #1
 2986              		.loc 1 575 0
 2987 09dc 0037     		adds	r7, r7, #0
 2988 09de 18BF     		it	ne
 2989 09e0 0127     		movne	r7, #1
 2990              		.loc 1 576 0
 2991 09e2 0036     		adds	r6, r6, #0
 2992 09e4 18BF     		it	ne
 2993 09e6 0126     		movne	r6, #1
 2994              		.loc 1 571 0
 2995 09e8 0032     		adds	r2, r2, #0
 2996 09ea 18BF     		it	ne
 2997 09ec 0122     		movne	r2, #1
 2998              		.loc 1 576 0
 2999 09ee 0633     		adds	r3, r3, #6
 3000              		.loc 1 577 0
 3001 09f0 2046     		mov	r0, r4
 3002 09f2 02A9     		add	r1, sp, #8
 3003              		.loc 1 574 0
 3004 09f4 8DF87FE0 		strb	lr, [sp, #127]
 3005              		.loc 1 571 0
 3006 09f8 8DF87C20 		strb	r2, [sp, #124]
 3007              		.loc 1 576 0
 3008 09fc 0293     		str	r3, [sp, #8]
 3009              		.loc 1 572 0
 3010 09fe 8DF87D80 		strb	r8, [sp, #125]
 3011              		.loc 1 575 0
 3012 0a02 8DF88070 		strb	r7, [sp, #128]
 3013              		.loc 1 576 0
 3014 0a06 8DF88160 		strb	r6, [sp, #129]
 3015              		.loc 1 570 0
ARM GAS  /tmp/ccTQOGyd.s 			page 54


 3016 0a0a 8DED1E0A 		fsts	s0, [sp, #120]
 3017              		.loc 1 577 0
 3018 0a0e FFF7FEFF 		bl	buffer_get_float32_auto
 3019              	.LVL337:
 3020              		.loc 1 578 0
 3021 0a12 2046     		mov	r0, r4
 3022 0a14 02A9     		add	r1, sp, #8
 3023              		.loc 1 577 0
 3024 0a16 8DED210A 		fsts	s0, [sp, #132]
 3025              		.loc 1 578 0
 3026 0a1a FFF7FEFF 		bl	buffer_get_float32_auto
 3027              	.LVL338:
 3028              		.loc 1 579 0
 3029 0a1e 029B     		ldr	r3, [sp, #8]
 3030              		.loc 1 580 0
 3031 0a20 2046     		mov	r0, r4
 3032              		.loc 1 579 0
 3033 0a22 5A19     		adds	r2, r3, r5
 3034              		.loc 1 580 0
 3035 0a24 02A9     		add	r1, sp, #8
 3036              		.loc 1 579 0
 3037 0a26 E35C     		ldrb	r3, [r4, r3]	@ zero_extendqisi2
 3038 0a28 8DF88C30 		strb	r3, [sp, #140]
 3039 0a2c 0292     		str	r2, [sp, #8]
 3040              		.loc 1 578 0
 3041 0a2e 8DED220A 		fsts	s0, [sp, #136]
 3042              		.loc 1 580 0
 3043 0a32 FFF7FEFF 		bl	buffer_get_float32_auto
 3044              	.LVL339:
 3045              		.loc 1 581 0
 3046 0a36 2046     		mov	r0, r4
 3047 0a38 02A9     		add	r1, sp, #8
 3048              		.loc 1 580 0
 3049 0a3a 8DED240A 		fsts	s0, [sp, #144]
 3050              		.loc 1 581 0
 3051 0a3e FFF7FEFF 		bl	buffer_get_float32_auto
 3052              	.LVL340:
 3053              		.loc 1 582 0
 3054 0a42 029B     		ldr	r3, [sp, #8]
 3055 0a44 5919     		adds	r1, r3, r5
 3056 0a46 E25C     		ldrb	r2, [r4, r3]	@ zero_extendqisi2
 3057              		.loc 1 583 0
 3058 0a48 665C     		ldrb	r6, [r4, r1]	@ zero_extendqisi2
 3059              		.loc 1 581 0
 3060 0a4a 8DED250A 		fsts	s0, [sp, #148]
 3061              		.loc 1 582 0
 3062 0a4e 0032     		adds	r2, r2, #0
 3063 0a50 18BF     		it	ne
 3064 0a52 0122     		movne	r2, #1
 3065              		.loc 1 583 0
 3066 0a54 0036     		adds	r6, r6, #0
 3067 0a56 18BF     		it	ne
 3068 0a58 0126     		movne	r6, #1
 3069 0a5a 0233     		adds	r3, r3, #2
 3070              		.loc 1 584 0
 3071 0a5c 2046     		mov	r0, r4
 3072 0a5e 02A9     		add	r1, sp, #8
ARM GAS  /tmp/ccTQOGyd.s 			page 55


 3073              		.loc 1 582 0
 3074 0a60 8DF89820 		strb	r2, [sp, #152]
 3075              		.loc 1 583 0
 3076 0a64 0293     		str	r3, [sp, #8]
 3077 0a66 8DF89960 		strb	r6, [sp, #153]
 3078              		.loc 1 584 0
 3079 0a6a FFF7FEFF 		bl	buffer_get_float32_auto
 3080              	.LVL341:
 3081              		.loc 1 585 0
 3082 0a6e 02A9     		add	r1, sp, #8
 3083 0a70 2046     		mov	r0, r4
 3084              		.loc 1 584 0
 3085 0a72 8DED270A 		fsts	s0, [sp, #156]
 3086              		.loc 1 585 0
 3087 0a76 FFF7FEFF 		bl	buffer_get_uint16
 3088              	.LVL342:
 3089              		.loc 1 587 0
 3090 0a7a 02A9     		add	r1, sp, #8
 3091              		.loc 1 585 0
 3092 0a7c 2890     		str	r0, [sp, #160]
 3093              		.loc 1 587 0
 3094 0a7e 2046     		mov	r0, r4
 3095 0a80 FFF7FEFF 		bl	buffer_get_uint32
 3096              	.LVL343:
 3097              		.loc 1 589 0
 3098 0a84 029B     		ldr	r3, [sp, #8]
 3099              		.loc 1 587 0
 3100 0a86 2990     		str	r0, [sp, #164]
 3101              		.loc 1 589 0
 3102 0a88 5A19     		adds	r2, r3, r5
 3103              		.loc 1 590 0
 3104 0a8a 2046     		mov	r0, r4
 3105              		.loc 1 589 0
 3106 0a8c E35C     		ldrb	r3, [r4, r3]	@ zero_extendqisi2
 3107 0a8e 8DF8A830 		strb	r3, [sp, #168]
 3108              		.loc 1 590 0
 3109 0a92 02A9     		add	r1, sp, #8
 3110              		.loc 1 589 0
 3111 0a94 0292     		str	r2, [sp, #8]
 3112              		.loc 1 590 0
 3113 0a96 FFF7FEFF 		bl	buffer_get_float32_auto
 3114              	.LVL344:
 3115              		.loc 1 591 0
 3116 0a9a 2046     		mov	r0, r4
 3117 0a9c 02A9     		add	r1, sp, #8
 3118              		.loc 1 590 0
 3119 0a9e 8DED2B0A 		fsts	s0, [sp, #172]
 3120              		.loc 1 591 0
 3121 0aa2 FFF7FEFF 		bl	buffer_get_float32_auto
 3122              	.LVL345:
 3123              		.loc 1 592 0
 3124 0aa6 2046     		mov	r0, r4
 3125 0aa8 02A9     		add	r1, sp, #8
 3126              		.loc 1 591 0
 3127 0aaa 8DED2C0A 		fsts	s0, [sp, #176]
 3128              		.loc 1 592 0
 3129 0aae FFF7FEFF 		bl	buffer_get_float32_auto
ARM GAS  /tmp/ccTQOGyd.s 			page 56


 3130              	.LVL346:
 3131              		.loc 1 593 0
 3132 0ab2 2046     		mov	r0, r4
 3133 0ab4 02A9     		add	r1, sp, #8
 3134              		.loc 1 592 0
 3135 0ab6 8DED2D0A 		fsts	s0, [sp, #180]
 3136              		.loc 1 593 0
 3137 0aba FFF7FEFF 		bl	buffer_get_float32_auto
 3138              	.LVL347:
 3139              		.loc 1 594 0
 3140 0abe 2046     		mov	r0, r4
 3141 0ac0 02A9     		add	r1, sp, #8
 3142              		.loc 1 593 0
 3143 0ac2 8DED2E0A 		fsts	s0, [sp, #184]
 3144              		.loc 1 594 0
 3145 0ac6 FFF7FEFF 		bl	buffer_get_float32_auto
 3146              	.LVL348:
 3147              		.loc 1 595 0
 3148 0aca 2046     		mov	r0, r4
 3149 0acc 02A9     		add	r1, sp, #8
 3150              		.loc 1 594 0
 3151 0ace 8DED2F0A 		fsts	s0, [sp, #188]
 3152              		.loc 1 595 0
 3153 0ad2 FFF7FEFF 		bl	buffer_get_float32_auto
 3154              	.LVL349:
 3155              		.loc 1 596 0
 3156 0ad6 029B     		ldr	r3, [sp, #8]
 3157 0ad8 5919     		adds	r1, r3, r5
 3158              		.loc 1 597 0
 3159 0ada 9A1C     		adds	r2, r3, #2
 3160 0adc 665C     		ldrb	r6, [r4, r1]	@ zero_extendqisi2
 3161              		.loc 1 598 0
 3162 0ade A25C     		ldrb	r2, [r4, r2]	@ zero_extendqisi2
 3163              		.loc 1 596 0
 3164 0ae0 E15C     		ldrb	r1, [r4, r3]	@ zero_extendqisi2
 3165 0ae2 8DF8C410 		strb	r1, [sp, #196]
 3166              		.loc 1 597 0
 3167 0ae6 0036     		adds	r6, r6, #0
 3168 0ae8 18BF     		it	ne
 3169 0aea 0126     		movne	r6, #1
 3170              		.loc 1 598 0
 3171 0aec 0032     		adds	r2, r2, #0
 3172 0aee 18BF     		it	ne
 3173 0af0 0122     		movne	r2, #1
 3174 0af2 0333     		adds	r3, r3, #3
 3175              		.loc 1 599 0
 3176 0af4 2046     		mov	r0, r4
 3177 0af6 02A9     		add	r1, sp, #8
 3178              		.loc 1 597 0
 3179 0af8 8DF8C560 		strb	r6, [sp, #197]
 3180              		.loc 1 598 0
 3181 0afc 8DF8C620 		strb	r2, [sp, #198]
 3182 0b00 0293     		str	r3, [sp, #8]
 3183              		.loc 1 595 0
 3184 0b02 8DED300A 		fsts	s0, [sp, #192]
 3185              		.loc 1 599 0
 3186 0b06 FFF7FEFF 		bl	buffer_get_float32_auto
ARM GAS  /tmp/ccTQOGyd.s 			page 57


 3187              	.LVL350:
 3188              		.loc 1 601 0
 3189 0b0a 029B     		ldr	r3, [sp, #8]
 3190              		.loc 1 599 0
 3191 0b0c 8DED320A 		fsts	s0, [sp, #200]
 3192              		.loc 1 601 0
 3193 0b10 03EB050C 		add	ip, r3, r5
 3194              		.loc 1 602 0
 3195 0b14 03F1020E 		add	lr, r3, #2
 3196              		.loc 1 603 0
 3197 0b18 DF1C     		adds	r7, r3, #3
 3198              		.loc 1 604 0
 3199 0b1a 1E1D     		adds	r6, r3, #4
 3200              		.loc 1 605 0
 3201 0b1c 581D     		adds	r0, r3, #5
 3202              		.loc 1 609 0
 3203 0b1e E118     		adds	r1, r4, r3
 3204              		.loc 1 606 0
 3205 0b20 9A1D     		adds	r2, r3, #6
 3206              		.loc 1 602 0
 3207 0b22 14F80C80 		ldrb	r8, [r4, ip]	@ zero_extendqisi2
 3208              		.loc 1 609 0
 3209 0b26 497A     		ldrb	r1, [r1, #9]	@ zero_extendqisi2
 3210              		.loc 1 603 0
 3211 0b28 14F80EC0 		ldrb	ip, [r4, lr]	@ zero_extendqisi2
 3212              		.loc 1 604 0
 3213 0b2c 14F807E0 		ldrb	lr, [r4, r7]	@ zero_extendqisi2
 3214              		.loc 1 605 0
 3215 0b30 A75D     		ldrb	r7, [r4, r6]	@ zero_extendqisi2
 3216              		.loc 1 606 0
 3217 0b32 265C     		ldrb	r6, [r4, r0]	@ zero_extendqisi2
 3218              		.loc 1 601 0
 3219 0b34 E05C     		ldrb	r0, [r4, r3]	@ zero_extendqisi2
 3220 0b36 8DF8CC00 		strb	r0, [sp, #204]
 3221              		.loc 1 607 0
 3222 0b3a 1444     		add	r4, r4, r2
 3223              	.LVL351:
 3224              		.loc 1 603 0
 3225 0b3c 8DF8CEC0 		strb	ip, [sp, #206]
 3226              		.loc 1 604 0
 3227 0b40 8DF8CFE0 		strb	lr, [sp, #207]
 3228              		.loc 1 606 0
 3229 0b44 0292     		str	r2, [sp, #8]
 3230              		.loc 1 602 0
 3231 0b46 8DF8CD80 		strb	r8, [sp, #205]
 3232              		.loc 1 605 0
 3233 0b4a 8DF8D070 		strb	r7, [sp, #208]
 3234              		.loc 1 606 0
 3235 0b4e 8DF8D160 		strb	r6, [sp, #209]
 3236              		.loc 1 609 0
 3237 0b52 0031     		adds	r1, r1, #0
 3238              		.loc 1 607 0
 3239 0b54 A078     		ldrb	r0, [r4, #2]	@ zero_extendqisi2
 3240 0b56 2288     		ldrh	r2, [r4]	@ unaligned
 3241 0b58 8DF8D400 		strb	r0, [sp, #212]
 3242              		.loc 1 609 0
 3243 0b5c 03F10A03 		add	r3, r3, #10
ARM GAS  /tmp/ccTQOGyd.s 			page 58


 3244 0b60 18BF     		it	ne
 3245 0b62 0121     		movne	r1, #1
 3246              		.loc 1 611 0
 3247 0b64 04A8     		add	r0, sp, #16
 3248              		.loc 1 607 0
 3249 0b66 ADF8D220 		strh	r2, [sp, #210]	@ unaligned
 3250              		.loc 1 609 0
 3251 0b6a 0293     		str	r3, [sp, #8]
 3252 0b6c 8DF8D510 		strb	r1, [sp, #213]
 3253              		.loc 1 611 0
 3254 0b70 FFF7FEFF 		bl	conf_general_store_app_configuration
 3255              	.LVL352:
 3256              		.loc 1 612 0
 3257 0b74 04A8     		add	r0, sp, #16
 3258 0b76 FFF7FEFF 		bl	app_set_configuration
 3259              	.LVL353:
 3260              		.loc 1 613 0
 3261 0b7a 0598     		ldr	r0, [sp, #20]
 3262 0b7c 9DED060A 		flds	s0, [sp, #24]
 3263 0b80 FFF7FEFF 		bl	timeout_configure
 3264              	.LVL354:
 3265              		.loc 1 614 0
 3266 0b84 4FF4FA60 		mov	r0, #2000
 3267 0b88 FFF7FEFF 		bl	chThdSleep
 3268              	.LVL355:
 3269              	.LBB153:
 3270              	.LBB154:
 3271              		.loc 1 91 0
 3272 0b8c 174B     		ldr	r3, .L222
 3273              	.LBE154:
 3274              	.LBE153:
 3275              		.loc 1 617 0
 3276 0b8e 1848     		ldr	r0, .L222+4
 3277              	.LBB157:
 3278              	.LBB155:
 3279              		.loc 1 91 0
 3280 0b90 1B68     		ldr	r3, [r3]
 3281              	.LBE155:
 3282              	.LBE157:
 3283              		.loc 1 617 0
 3284 0b92 0295     		str	r5, [sp, #8]
 3285 0b94 1022     		movs	r2, #16
 3286 0b96 0270     		strb	r2, [r0]
 3287              	.LVL356:
 3288              	.LBB158:
 3289              	.LBB156:
 3290              		.loc 1 91 0
 3291 0b98 002B     		cmp	r3, #0
 3292 0b9a 7FF49DAD 		bne	.L202
 3293 0b9e FFF7B7BA 		b	.L82
 3294              	.LVL357:
 3295              	.L103:
 3296              	.LBE156:
 3297              	.LBE158:
 3298              		.loc 1 645 0
 3299 0ba2 0023     		movs	r3, #0
 3300 0ba4 6355     		strb	r3, [r4, r5]
ARM GAS  /tmp/ccTQOGyd.s 			page 59


 3301              	.LVL358:
 3302              		.loc 1 646 0
 3303 0ba6 2046     		mov	r0, r4
 3304 0ba8 FFF7FEFF 		bl	terminal_process_string
 3305              	.LVL359:
 3306              		.loc 1 647 0
 3307 0bac FFF7B0BA 		b	.L82
 3308              	.LVL360:
 3309              	.L102:
 3310              	.LBB159:
 3311              		.loc 1 638 0
 3312 0bb0 36A9     		add	r1, sp, #216
 3313 0bb2 0123     		movs	r3, #1
 3314 0bb4 41F8D03D 		str	r3, [r1, #-208]!
 3315              		.loc 1 639 0
 3316 0bb8 2046     		mov	r0, r4
 3317              	.LVL361:
 3318              		.loc 1 638 0
 3319 0bba 7D78     		ldrb	r5, [r7, #1]	@ zero_extendqisi2
 3320              	.LVL362:
 3321              		.loc 1 639 0
 3322 0bbc FFF7FEFF 		bl	buffer_get_uint16
 3323              	.LVL363:
 3324              		.loc 1 640 0
 3325 0bc0 029B     		ldr	r3, [sp, #8]
 3326              		.loc 1 639 0
 3327 0bc2 0146     		mov	r1, r0
 3328              	.LVL364:
 3329              		.loc 1 641 0
 3330 0bc4 E25C     		ldrb	r2, [r4, r3]	@ zero_extendqisi2
 3331 0bc6 2846     		mov	r0, r5
 3332              	.LVL365:
 3333              		.loc 1 640 0
 3334 0bc8 0133     		adds	r3, r3, #1
 3335 0bca 0293     		str	r3, [sp, #8]
 3336              	.LVL366:
 3337              		.loc 1 641 0
 3338 0bcc FFF7FEFF 		bl	mc_interface_sample_print_data
 3339              	.LVL367:
 3340              	.LBE159:
 3341              		.loc 1 642 0
 3342 0bd0 FFF79EBA 		b	.L82
 3343              	.LVL368:
 3344              	.L96:
 3345              		.loc 1 231 0
 3346 0bd4 2046     		mov	r0, r4
 3347              	.LVL369:
 3348 0bd6 02A9     		add	r1, sp, #8
 3349 0bd8 9FED060A 		flds	s0, .L222+8
 3350 0bdc FFF7FEFF 		bl	buffer_get_float32
 3351              	.LVL370:
 3352 0be0 FFF7FEFF 		bl	mc_interface_set_handbrake
 3353              	.LVL371:
 3354              		.loc 1 232 0
 3355 0be4 FFF7FEFF 		bl	timeout_reset
 3356              	.LVL372:
 3357              		.loc 1 233 0
ARM GAS  /tmp/ccTQOGyd.s 			page 60


 3358 0be8 FFF792BA 		b	.L82
 3359              	.L223:
 3360              		.align	2
 3361              	.L222:
 3362 0bec 00000000 		.word	.LANCHOR10
 3363 0bf0 00000000 		.word	.LANCHOR8
 3364 0bf4 00007A44 		.word	1148846080
 3365              	.LVL373:
 3366              	.L99:
 3367              		.loc 1 420 0
 3368 0bf8 B8F10E0F 		cmp	r8, #14
 3369 0bfc 00F03085 		beq	.L215
 3370              		.loc 1 423 0
 3371 0c00 BE48     		ldr	r0, .L224
 3372              	.LVL374:
 3373 0c02 FFF7FEFF 		bl	conf_general_get_default_mc_configuration
 3374              	.LVL375:
 3375              	.L124:
 3376              		.loc 1 432 0
 3377 0c06 36AE     		add	r6, sp, #216
 3378              		.loc 1 429 0
 3379 0c08 BC4D     		ldr	r5, .L224
 3380              	.LVL376:
 3381              		.loc 1 427 0
 3382 0c0a BD4C     		ldr	r4, .L224+4
 3383              	.LVL377:
 3384              		.loc 1 429 0
 3385 0c0c 2978     		ldrb	r1, [r5]	@ zero_extendqisi2
 3386              		.loc 1 431 0
 3387 0c0e AA78     		ldrb	r2, [r5, #2]	@ zero_extendqisi2
 3388              		.loc 1 430 0
 3389 0c10 6F78     		ldrb	r7, [r5, #1]	@ zero_extendqisi2
 3390              	.LVL378:
 3391              		.loc 1 434 0
 3392 0c12 95ED010A 		flds	s0, [r5, #4]
 3393              		.loc 1 429 0
 3394 0c16 6170     		strb	r1, [r4, #1]
 3395              		.loc 1 432 0
 3396 0c18 0523     		movs	r3, #5
 3397 0c1a 46F8D03D 		str	r3, [r6, #-208]!
 3398              		.loc 1 434 0
 3399 0c1e 2046     		mov	r0, r4
 3400              		.loc 1 432 0
 3401 0c20 EB78     		ldrb	r3, [r5, #3]	@ zero_extendqisi2
 3402              		.loc 1 431 0
 3403 0c22 E270     		strb	r2, [r4, #3]
 3404              		.loc 1 434 0
 3405 0c24 3146     		mov	r1, r6
 3406              		.loc 1 432 0
 3407 0c26 2371     		strb	r3, [r4, #4]
 3408              		.loc 1 430 0
 3409 0c28 A770     		strb	r7, [r4, #2]
 3410              		.loc 1 427 0
 3411 0c2a 84F80080 		strb	r8, [r4]
 3412              		.loc 1 434 0
 3413 0c2e FFF7FEFF 		bl	buffer_append_float32_auto
 3414              	.LVL379:
ARM GAS  /tmp/ccTQOGyd.s 			page 61


 3415              		.loc 1 435 0
 3416 0c32 2046     		mov	r0, r4
 3417 0c34 3146     		mov	r1, r6
 3418 0c36 95ED020A 		flds	s0, [r5, #8]
 3419 0c3a FFF7FEFF 		bl	buffer_append_float32_auto
 3420              	.LVL380:
 3421              		.loc 1 436 0
 3422 0c3e 2046     		mov	r0, r4
 3423 0c40 3146     		mov	r1, r6
 3424 0c42 95ED030A 		flds	s0, [r5, #12]
 3425 0c46 FFF7FEFF 		bl	buffer_append_float32_auto
 3426              	.LVL381:
 3427              		.loc 1 437 0
 3428 0c4a 2046     		mov	r0, r4
 3429 0c4c 3146     		mov	r1, r6
 3430 0c4e 95ED040A 		flds	s0, [r5, #16]
 3431 0c52 FFF7FEFF 		bl	buffer_append_float32_auto
 3432              	.LVL382:
 3433              		.loc 1 438 0
 3434 0c56 2046     		mov	r0, r4
 3435 0c58 3146     		mov	r1, r6
 3436 0c5a 95ED050A 		flds	s0, [r5, #20]
 3437 0c5e FFF7FEFF 		bl	buffer_append_float32_auto
 3438              	.LVL383:
 3439              		.loc 1 439 0
 3440 0c62 2046     		mov	r0, r4
 3441 0c64 3146     		mov	r1, r6
 3442 0c66 95ED060A 		flds	s0, [r5, #24]
 3443 0c6a FFF7FEFF 		bl	buffer_append_float32_auto
 3444              	.LVL384:
 3445              		.loc 1 440 0
 3446 0c6e 2046     		mov	r0, r4
 3447 0c70 3146     		mov	r1, r6
 3448 0c72 95ED070A 		flds	s0, [r5, #28]
 3449 0c76 FFF7FEFF 		bl	buffer_append_float32_auto
 3450              	.LVL385:
 3451              		.loc 1 441 0
 3452 0c7a 2046     		mov	r0, r4
 3453 0c7c 3146     		mov	r1, r6
 3454 0c7e 95ED080A 		flds	s0, [r5, #32]
 3455 0c82 FFF7FEFF 		bl	buffer_append_float32_auto
 3456              	.LVL386:
 3457              		.loc 1 442 0
 3458 0c86 2046     		mov	r0, r4
 3459 0c88 3146     		mov	r1, r6
 3460 0c8a 95ED090A 		flds	s0, [r5, #36]
 3461 0c8e FFF7FEFF 		bl	buffer_append_float32_auto
 3462              	.LVL387:
 3463              		.loc 1 443 0
 3464 0c92 2046     		mov	r0, r4
 3465 0c94 3146     		mov	r1, r6
 3466 0c96 95ED0A0A 		flds	s0, [r5, #40]
 3467 0c9a FFF7FEFF 		bl	buffer_append_float32_auto
 3468              	.LVL388:
 3469              		.loc 1 444 0
 3470 0c9e 2046     		mov	r0, r4
 3471 0ca0 3146     		mov	r1, r6
ARM GAS  /tmp/ccTQOGyd.s 			page 62


 3472 0ca2 95ED0B0A 		flds	s0, [r5, #44]
 3473 0ca6 FFF7FEFF 		bl	buffer_append_float32_auto
 3474              	.LVL389:
 3475              		.loc 1 445 0
 3476 0caa 2046     		mov	r0, r4
 3477 0cac 3146     		mov	r1, r6
 3478 0cae 95ED0C0A 		flds	s0, [r5, #48]
 3479 0cb2 FFF7FEFF 		bl	buffer_append_float32_auto
 3480              	.LVL390:
 3481              		.loc 1 446 0
 3482 0cb6 2046     		mov	r0, r4
 3483 0cb8 3146     		mov	r1, r6
 3484 0cba 95ED0D0A 		flds	s0, [r5, #52]
 3485 0cbe FFF7FEFF 		bl	buffer_append_float32_auto
 3486              	.LVL391:
 3487              		.loc 1 447 0
 3488 0cc2 2046     		mov	r0, r4
 3489 0cc4 3146     		mov	r1, r6
 3490 0cc6 95ED0E0A 		flds	s0, [r5, #56]
 3491 0cca FFF7FEFF 		bl	buffer_append_float32_auto
 3492              	.LVL392:
 3493              		.loc 1 448 0
 3494 0cce 029B     		ldr	r3, [sp, #8]
 3495 0cd0 95F83C20 		ldrb	r2, [r5, #60]	@ zero_extendqisi2
 3496 0cd4 E254     		strb	r2, [r4, r3]
 3497              		.loc 1 449 0
 3498 0cd6 95ED100A 		flds	s0, [r5, #64]
 3499              		.loc 1 448 0
 3500 0cda 0133     		adds	r3, r3, #1
 3501              		.loc 1 449 0
 3502 0cdc 3146     		mov	r1, r6
 3503 0cde 2046     		mov	r0, r4
 3504              		.loc 1 448 0
 3505 0ce0 0293     		str	r3, [sp, #8]
 3506              		.loc 1 449 0
 3507 0ce2 FFF7FEFF 		bl	buffer_append_float32_auto
 3508              	.LVL393:
 3509              		.loc 1 450 0
 3510 0ce6 2046     		mov	r0, r4
 3511 0ce8 3146     		mov	r1, r6
 3512 0cea 95ED110A 		flds	s0, [r5, #68]
 3513 0cee FFF7FEFF 		bl	buffer_append_float32_auto
 3514              	.LVL394:
 3515              		.loc 1 451 0
 3516 0cf2 2046     		mov	r0, r4
 3517 0cf4 3146     		mov	r1, r6
 3518 0cf6 95ED120A 		flds	s0, [r5, #72]
 3519 0cfa FFF7FEFF 		bl	buffer_append_float32_auto
 3520              	.LVL395:
 3521              		.loc 1 452 0
 3522 0cfe 2046     		mov	r0, r4
 3523 0d00 3146     		mov	r1, r6
 3524 0d02 95ED130A 		flds	s0, [r5, #76]
 3525 0d06 FFF7FEFF 		bl	buffer_append_float32_auto
 3526              	.LVL396:
 3527              		.loc 1 453 0
 3528 0d0a 2046     		mov	r0, r4
ARM GAS  /tmp/ccTQOGyd.s 			page 63


 3529 0d0c 3146     		mov	r1, r6
 3530 0d0e 95ED140A 		flds	s0, [r5, #80]
 3531 0d12 FFF7FEFF 		bl	buffer_append_float32_auto
 3532              	.LVL397:
 3533              		.loc 1 454 0
 3534 0d16 2046     		mov	r0, r4
 3535 0d18 3146     		mov	r1, r6
 3536 0d1a 95ED150A 		flds	s0, [r5, #84]
 3537 0d1e FFF7FEFF 		bl	buffer_append_float32_auto
 3538              	.LVL398:
 3539              		.loc 1 455 0
 3540 0d22 2046     		mov	r0, r4
 3541 0d24 3146     		mov	r1, r6
 3542 0d26 95ED160A 		flds	s0, [r5, #88]
 3543 0d2a FFF7FEFF 		bl	buffer_append_float32_auto
 3544              	.LVL399:
 3545              		.loc 1 456 0
 3546 0d2e 2046     		mov	r0, r4
 3547 0d30 3146     		mov	r1, r6
 3548 0d32 95ED170A 		flds	s0, [r5, #92]
 3549 0d36 FFF7FEFF 		bl	buffer_append_float32_auto
 3550              	.LVL400:
 3551              		.loc 1 457 0
 3552 0d3a 2046     		mov	r0, r4
 3553 0d3c 3146     		mov	r1, r6
 3554 0d3e 95ED180A 		flds	s0, [r5, #96]
 3555 0d42 FFF7FEFF 		bl	buffer_append_float32_auto
 3556              	.LVL401:
 3557              		.loc 1 459 0
 3558 0d46 2046     		mov	r0, r4
 3559 0d48 3146     		mov	r1, r6
 3560 0d4a 95ED1F0A 		flds	s0, [r5, #124]
 3561 0d4e FFF7FEFF 		bl	buffer_append_float32_auto
 3562              	.LVL402:
 3563              		.loc 1 460 0
 3564 0d52 2046     		mov	r0, r4
 3565 0d54 3146     		mov	r1, r6
 3566 0d56 95ED200A 		flds	s0, [r5, #128]
 3567 0d5a FFF7FEFF 		bl	buffer_append_float32_auto
 3568              	.LVL403:
 3569              		.loc 1 461 0
 3570 0d5e 2046     		mov	r0, r4
 3571 0d60 3146     		mov	r1, r6
 3572 0d62 95ED210A 		flds	s0, [r5, #132]
 3573 0d66 FFF7FEFF 		bl	buffer_append_float32_auto
 3574              	.LVL404:
 3575              		.loc 1 462 0
 3576 0d6a 2046     		mov	r0, r4
 3577 0d6c 3146     		mov	r1, r6
 3578 0d6e 95ED220A 		flds	s0, [r5, #136]
 3579 0d72 FFF7FEFF 		bl	buffer_append_float32_auto
 3580              	.LVL405:
 3581              		.loc 1 463 0
 3582 0d76 2046     		mov	r0, r4
 3583 0d78 3146     		mov	r1, r6
 3584 0d7a 95ED230A 		flds	s0, [r5, #140]
 3585 0d7e FFF7FEFF 		bl	buffer_append_float32_auto
ARM GAS  /tmp/ccTQOGyd.s 			page 64


 3586              	.LVL406:
 3587              		.loc 1 464 0
 3588 0d82 2046     		mov	r0, r4
 3589 0d84 3146     		mov	r1, r6
 3590 0d86 95ED240A 		flds	s0, [r5, #144]
 3591 0d8a FFF7FEFF 		bl	buffer_append_float32_auto
 3592              	.LVL407:
 3593              		.loc 1 465 0
 3594 0d8e 2046     		mov	r0, r4
 3595 0d90 3146     		mov	r1, r6
 3596 0d92 95ED250A 		flds	s0, [r5, #148]
 3597 0d96 FFF7FEFF 		bl	buffer_append_float32_auto
 3598              	.LVL408:
 3599              		.loc 1 467 0
 3600 0d9a 029A     		ldr	r2, [sp, #8]
 3601              		.loc 1 469 0
 3602 0d9c 95ED280A 		flds	s0, [r5, #160]
 3603              		.loc 1 467 0
 3604 0da0 05F19803 		add	r3, r5, #152
 3605 0da4 03CB     		ldmia	r3!, {r0, r1}
 3606 0da6 A318     		adds	r3, r4, r2
 3607 0da8 A050     		str	r0, [r4, r2]	@ unaligned
 3608              		.loc 1 468 0
 3609 0daa 0832     		adds	r2, r2, #8
 3610              		.loc 1 467 0
 3611 0dac 5960     		str	r1, [r3, #4]	@ unaligned
 3612              		.loc 1 469 0
 3613 0dae 2046     		mov	r0, r4
 3614 0db0 3146     		mov	r1, r6
 3615              		.loc 1 468 0
 3616 0db2 0292     		str	r2, [sp, #8]
 3617              		.loc 1 469 0
 3618 0db4 FFF7FEFF 		bl	buffer_append_float32_auto
 3619              	.LVL409:
 3620              		.loc 1 471 0
 3621 0db8 2046     		mov	r0, r4
 3622 0dba 3146     		mov	r1, r6
 3623 0dbc 95ED290A 		flds	s0, [r5, #164]
 3624 0dc0 FFF7FEFF 		bl	buffer_append_float32_auto
 3625              	.LVL410:
 3626              		.loc 1 472 0
 3627 0dc4 2046     		mov	r0, r4
 3628 0dc6 3146     		mov	r1, r6
 3629 0dc8 95ED2A0A 		flds	s0, [r5, #168]
 3630 0dcc FFF7FEFF 		bl	buffer_append_float32_auto
 3631              	.LVL411:
 3632              		.loc 1 473 0
 3633 0dd0 2046     		mov	r0, r4
 3634 0dd2 3146     		mov	r1, r6
 3635 0dd4 95ED2B0A 		flds	s0, [r5, #172]
 3636 0dd8 FFF7FEFF 		bl	buffer_append_float32_auto
 3637              	.LVL412:
 3638              		.loc 1 474 0
 3639 0ddc 2046     		mov	r0, r4
 3640 0dde 3146     		mov	r1, r6
 3641 0de0 95ED2C0A 		flds	s0, [r5, #176]
 3642 0de4 FFF7FEFF 		bl	buffer_append_float32_auto
ARM GAS  /tmp/ccTQOGyd.s 			page 65


 3643              	.LVL413:
 3644              		.loc 1 475 0
 3645 0de8 029B     		ldr	r3, [sp, #8]
 3646 0dea 95F8B820 		ldrb	r2, [r5, #184]	@ zero_extendqisi2
 3647 0dee E254     		strb	r2, [r4, r3]
 3648              		.loc 1 476 0
 3649 0df0 95ED2D0A 		flds	s0, [r5, #180]
 3650              		.loc 1 475 0
 3651 0df4 0133     		adds	r3, r3, #1
 3652              		.loc 1 476 0
 3653 0df6 3146     		mov	r1, r6
 3654 0df8 2046     		mov	r0, r4
 3655              		.loc 1 475 0
 3656 0dfa 0293     		str	r3, [sp, #8]
 3657              		.loc 1 476 0
 3658 0dfc FFF7FEFF 		bl	buffer_append_float32_auto
 3659              	.LVL414:
 3660              		.loc 1 477 0
 3661 0e00 2046     		mov	r0, r4
 3662 0e02 3146     		mov	r1, r6
 3663 0e04 95ED2F0A 		flds	s0, [r5, #188]
 3664 0e08 FFF7FEFF 		bl	buffer_append_float32_auto
 3665              	.LVL415:
 3666              		.loc 1 478 0
 3667 0e0c 029B     		ldr	r3, [sp, #8]
 3668 0e0e 95F8F820 		ldrb	r2, [r5, #248]	@ zero_extendqisi2
 3669 0e12 E254     		strb	r2, [r4, r3]
 3670              		.loc 1 479 0
 3671 0e14 95ED350A 		flds	s0, [r5, #212]
 3672              		.loc 1 478 0
 3673 0e18 0133     		adds	r3, r3, #1
 3674              		.loc 1 479 0
 3675 0e1a 3146     		mov	r1, r6
 3676 0e1c 2046     		mov	r0, r4
 3677              		.loc 1 478 0
 3678 0e1e 0293     		str	r3, [sp, #8]
 3679              		.loc 1 479 0
 3680 0e20 FFF7FEFF 		bl	buffer_append_float32_auto
 3681              	.LVL416:
 3682              		.loc 1 480 0
 3683 0e24 2046     		mov	r0, r4
 3684 0e26 3146     		mov	r1, r6
 3685 0e28 95ED360A 		flds	s0, [r5, #216]
 3686 0e2c FFF7FEFF 		bl	buffer_append_float32_auto
 3687              	.LVL417:
 3688              		.loc 1 481 0
 3689 0e30 2046     		mov	r0, r4
 3690 0e32 3146     		mov	r1, r6
 3691 0e34 95ED300A 		flds	s0, [r5, #192]
 3692 0e38 FFF7FEFF 		bl	buffer_append_float32_auto
 3693              	.LVL418:
 3694              		.loc 1 482 0
 3695 0e3c 2046     		mov	r0, r4
 3696 0e3e 3146     		mov	r1, r6
 3697 0e40 95ED310A 		flds	s0, [r5, #196]
 3698 0e44 FFF7FEFF 		bl	buffer_append_float32_auto
 3699              	.LVL419:
ARM GAS  /tmp/ccTQOGyd.s 			page 66


 3700              		.loc 1 483 0
 3701 0e48 2046     		mov	r0, r4
 3702 0e4a 3146     		mov	r1, r6
 3703 0e4c 95ED320A 		flds	s0, [r5, #200]
 3704 0e50 FFF7FEFF 		bl	buffer_append_float32_auto
 3705              	.LVL420:
 3706              		.loc 1 484 0
 3707 0e54 2046     		mov	r0, r4
 3708 0e56 3146     		mov	r1, r6
 3709 0e58 95ED330A 		flds	s0, [r5, #204]
 3710 0e5c FFF7FEFF 		bl	buffer_append_float32_auto
 3711              	.LVL421:
 3712              		.loc 1 485 0
 3713 0e60 2046     		mov	r0, r4
 3714 0e62 3146     		mov	r1, r6
 3715 0e64 95ED340A 		flds	s0, [r5, #208]
 3716 0e68 FFF7FEFF 		bl	buffer_append_float32_auto
 3717              	.LVL422:
 3718              		.loc 1 486 0
 3719 0e6c 2046     		mov	r0, r4
 3720 0e6e 3146     		mov	r1, r6
 3721 0e70 95ED370A 		flds	s0, [r5, #220]
 3722 0e74 FFF7FEFF 		bl	buffer_append_float32_auto
 3723              	.LVL423:
 3724              		.loc 1 487 0
 3725 0e78 2046     		mov	r0, r4
 3726 0e7a 3146     		mov	r1, r6
 3727 0e7c 95ED380A 		flds	s0, [r5, #224]
 3728 0e80 FFF7FEFF 		bl	buffer_append_float32_auto
 3729              	.LVL424:
 3730              		.loc 1 488 0
 3731 0e84 2046     		mov	r0, r4
 3732 0e86 3146     		mov	r1, r6
 3733 0e88 95ED390A 		flds	s0, [r5, #228]
 3734 0e8c FFF7FEFF 		bl	buffer_append_float32_auto
 3735              	.LVL425:
 3736              		.loc 1 489 0
 3737 0e90 2046     		mov	r0, r4
 3738 0e92 3146     		mov	r1, r6
 3739 0e94 95ED3A0A 		flds	s0, [r5, #232]
 3740 0e98 FFF7FEFF 		bl	buffer_append_float32_auto
 3741              	.LVL426:
 3742              		.loc 1 490 0
 3743 0e9c 2046     		mov	r0, r4
 3744 0e9e 3146     		mov	r1, r6
 3745 0ea0 95ED3B0A 		flds	s0, [r5, #236]
 3746 0ea4 FFF7FEFF 		bl	buffer_append_float32_auto
 3747              	.LVL427:
 3748              		.loc 1 491 0
 3749 0ea8 2046     		mov	r0, r4
 3750 0eaa 3146     		mov	r1, r6
 3751 0eac 95ED3C0A 		flds	s0, [r5, #240]
 3752 0eb0 FFF7FEFF 		bl	buffer_append_float32_auto
 3753              	.LVL428:
 3754              		.loc 1 492 0
 3755 0eb4 2046     		mov	r0, r4
 3756 0eb6 3146     		mov	r1, r6
ARM GAS  /tmp/ccTQOGyd.s 			page 67


 3757 0eb8 95ED3D0A 		flds	s0, [r5, #244]
 3758 0ebc FFF7FEFF 		bl	buffer_append_float32_auto
 3759              	.LVL429:
 3760              		.loc 1 493 0
 3761 0ec0 2A46     		mov	r2, r5
 3762 0ec2 029B     		ldr	r3, [sp, #8]
 3763 0ec4 52F8F91F 		ldr	r1, [r2, #249]!	@ unaligned
 3764 0ec8 E150     		str	r1, [r4, r3]	@ unaligned
 3765 0eca 5768     		ldr	r7, [r2, #4]	@ unaligned
 3766              		.loc 1 495 0
 3767 0ecc 95ED410A 		flds	s0, [r5, #260]
 3768              		.loc 1 493 0
 3769 0ed0 E218     		adds	r2, r4, r3
 3770              		.loc 1 495 0
 3771 0ed2 3146     		mov	r1, r6
 3772              		.loc 1 494 0
 3773 0ed4 0833     		adds	r3, r3, #8
 3774              		.loc 1 493 0
 3775 0ed6 5760     		str	r7, [r2, #4]	@ unaligned
 3776              		.loc 1 495 0
 3777 0ed8 2046     		mov	r0, r4
 3778              		.loc 1 494 0
 3779 0eda 0293     		str	r3, [sp, #8]
 3780              		.loc 1 495 0
 3781 0edc FFF7FEFF 		bl	buffer_append_float32_auto
 3782              	.LVL430:
 3783              		.loc 1 496 0
 3784 0ee0 029B     		ldr	r3, [sp, #8]
 3785 0ee2 95F80821 		ldrb	r2, [r5, #264]	@ zero_extendqisi2
 3786 0ee6 E254     		strb	r2, [r4, r3]
 3787              		.loc 1 497 0
 3788 0ee8 E218     		adds	r2, r4, r3
 3789 0eea 95F80971 		ldrb	r7, [r5, #265]	@ zero_extendqisi2
 3790              		.loc 1 498 0
 3791 0eee 95ED430A 		flds	s0, [r5, #268]
 3792              		.loc 1 497 0
 3793 0ef2 5770     		strb	r7, [r2, #1]
 3794 0ef4 0233     		adds	r3, r3, #2
 3795              		.loc 1 498 0
 3796 0ef6 3146     		mov	r1, r6
 3797 0ef8 2046     		mov	r0, r4
 3798 0efa 03E0     		b	.L225
 3799              	.L226:
 3800              		.align	2
 3801              	.L224:
 3802 0efc 00000000 		.word	.LANCHOR15
 3803 0f00 00000000 		.word	.LANCHOR8
 3804              	.L225:
 3805              		.loc 1 497 0
 3806 0f04 0293     		str	r3, [sp, #8]
 3807              		.loc 1 498 0
 3808 0f06 FFF7FEFF 		bl	buffer_append_float32_auto
 3809              	.LVL431:
 3810              		.loc 1 499 0
 3811 0f0a 029B     		ldr	r3, [sp, #8]
 3812 0f0c 95F81021 		ldrb	r2, [r5, #272]	@ zero_extendqisi2
 3813 0f10 E254     		strb	r2, [r4, r3]
ARM GAS  /tmp/ccTQOGyd.s 			page 68


 3814              		.loc 1 500 0
 3815 0f12 95ED450A 		flds	s0, [r5, #276]
 3816              		.loc 1 499 0
 3817 0f16 0133     		adds	r3, r3, #1
 3818              		.loc 1 500 0
 3819 0f18 3146     		mov	r1, r6
 3820 0f1a 2046     		mov	r0, r4
 3821              		.loc 1 499 0
 3822 0f1c 0293     		str	r3, [sp, #8]
 3823              		.loc 1 500 0
 3824 0f1e FFF7FEFF 		bl	buffer_append_float32_auto
 3825              	.LVL432:
 3826              		.loc 1 502 0
 3827 0f22 2046     		mov	r0, r4
 3828 0f24 3146     		mov	r1, r6
 3829 0f26 95ED460A 		flds	s0, [r5, #280]
 3830 0f2a FFF7FEFF 		bl	buffer_append_float32_auto
 3831              	.LVL433:
 3832              		.loc 1 503 0
 3833 0f2e 2046     		mov	r0, r4
 3834 0f30 3146     		mov	r1, r6
 3835 0f32 95ED470A 		flds	s0, [r5, #284]
 3836 0f36 FFF7FEFF 		bl	buffer_append_float32_auto
 3837              	.LVL434:
 3838              		.loc 1 504 0
 3839 0f3a 2046     		mov	r0, r4
 3840 0f3c 3146     		mov	r1, r6
 3841 0f3e 95ED480A 		flds	s0, [r5, #288]
 3842 0f42 FFF7FEFF 		bl	buffer_append_float32_auto
 3843              	.LVL435:
 3844              		.loc 1 505 0
 3845 0f46 2046     		mov	r0, r4
 3846 0f48 3146     		mov	r1, r6
 3847 0f4a 95ED490A 		flds	s0, [r5, #292]
 3848 0f4e FFF7FEFF 		bl	buffer_append_float32_auto
 3849              	.LVL436:
 3850              		.loc 1 506 0
 3851 0f52 029B     		ldr	r3, [sp, #8]
 3852 0f54 95F82821 		ldrb	r2, [r5, #296]	@ zero_extendqisi2
 3853 0f58 E254     		strb	r2, [r4, r3]
 3854              		.loc 1 508 0
 3855 0f5a 95ED4B0A 		flds	s0, [r5, #300]
 3856              		.loc 1 506 0
 3857 0f5e 0133     		adds	r3, r3, #1
 3858              		.loc 1 508 0
 3859 0f60 3146     		mov	r1, r6
 3860 0f62 2046     		mov	r0, r4
 3861              		.loc 1 506 0
 3862 0f64 0293     		str	r3, [sp, #8]
 3863              		.loc 1 508 0
 3864 0f66 FFF7FEFF 		bl	buffer_append_float32_auto
 3865              	.LVL437:
 3866              		.loc 1 509 0
 3867 0f6a 2046     		mov	r0, r4
 3868 0f6c 3146     		mov	r1, r6
 3869 0f6e 95ED4C0A 		flds	s0, [r5, #304]
 3870 0f72 FFF7FEFF 		bl	buffer_append_float32_auto
ARM GAS  /tmp/ccTQOGyd.s 			page 69


 3871              	.LVL438:
 3872              		.loc 1 510 0
 3873 0f76 2046     		mov	r0, r4
 3874 0f78 3146     		mov	r1, r6
 3875 0f7a 95ED4D0A 		flds	s0, [r5, #308]
 3876 0f7e FFF7FEFF 		bl	buffer_append_float32_auto
 3877              	.LVL439:
 3878              		.loc 1 511 0
 3879 0f82 2046     		mov	r0, r4
 3880 0f84 3146     		mov	r1, r6
 3881 0f86 95ED4E0A 		flds	s0, [r5, #312]
 3882 0f8a FFF7FEFF 		bl	buffer_append_float32_auto
 3883              	.LVL440:
 3884              		.loc 1 513 0
 3885 0f8e 2046     		mov	r0, r4
 3886 0f90 3146     		mov	r1, r6
 3887 0f92 95ED4F0A 		flds	s0, [r5, #316]
 3888 0f96 FFF7FEFF 		bl	buffer_append_float32_auto
 3889              	.LVL441:
 3890              		.loc 1 514 0
 3891 0f9a 2046     		mov	r0, r4
 3892 0f9c 3146     		mov	r1, r6
 3893 0f9e 95ED500A 		flds	s0, [r5, #320]
 3894 0fa2 FFF7FEFF 		bl	buffer_append_float32_auto
 3895              	.LVL442:
 3896              		.loc 1 515 0
 3897 0fa6 2046     		mov	r0, r4
 3898 0fa8 3146     		mov	r1, r6
 3899 0faa 95ED510A 		flds	s0, [r5, #324]
 3900 0fae FFF7FEFF 		bl	buffer_append_float32_auto
 3901              	.LVL443:
 3902              		.loc 1 516 0
 3903 0fb2 95ED520A 		flds	s0, [r5, #328]
 3904 0fb6 2046     		mov	r0, r4
 3905 0fb8 3146     		mov	r1, r6
 3906 0fba FFF7FEFF 		bl	buffer_append_float32_auto
 3907              	.LVL444:
 3908              		.loc 1 518 0
 3909 0fbe 3246     		mov	r2, r6
 3910 0fc0 2046     		mov	r0, r4
 3911 0fc2 D5F84C11 		ldr	r1, [r5, #332]
 3912 0fc6 FFF7FEFF 		bl	buffer_append_int32
 3913              	.LVL445:
 3914              		.loc 1 519 0
 3915 0fca 2046     		mov	r0, r4
 3916 0fcc 3146     		mov	r1, r6
 3917 0fce 95ED540A 		flds	s0, [r5, #336]
 3918 0fd2 FFF7FEFF 		bl	buffer_append_float32_auto
 3919              	.LVL446:
 3920              		.loc 1 520 0
 3921 0fd6 95ED550A 		flds	s0, [r5, #340]
 3922 0fda 2046     		mov	r0, r4
 3923 0fdc 3146     		mov	r1, r6
 3924 0fde FFF7FEFF 		bl	buffer_append_float32_auto
 3925              	.LVL447:
 3926              		.loc 1 521 0
 3927 0fe2 2046     		mov	r0, r4
ARM GAS  /tmp/ccTQOGyd.s 			page 70


 3928 0fe4 3246     		mov	r2, r6
 3929 0fe6 D5F85811 		ldr	r1, [r5, #344]
 3930 0fea FFF7FEFF 		bl	buffer_append_uint32
 3931              	.LVL448:
 3932              		.loc 1 522 0
 3933 0fee 029A     		ldr	r2, [sp, #8]
 3934 0ff0 95F85C31 		ldrb	r3, [r5, #348]	@ zero_extendqisi2
 3935 0ff4 A354     		strb	r3, [r4, r2]
 3936              		.loc 1 523 0
 3937 0ff6 A318     		adds	r3, r4, r2
 3938 0ff8 95F85DC1 		ldrb	ip, [r5, #349]	@ zero_extendqisi2
 3939              		.loc 1 524 0
 3940 0ffc 95F85EE1 		ldrb	lr, [r5, #350]	@ zero_extendqisi2
 3941              		.loc 1 525 0
 3942 1000 D5F86071 		ldr	r7, [r5, #352]
 3943              		.loc 1 526 0
 3944 1004 95ED590A 		flds	s0, [r5, #356]
 3945              		.loc 1 523 0
 3946 1008 83F801C0 		strb	ip, [r3, #1]
 3947              		.loc 1 525 0
 3948 100c 0432     		adds	r2, r2, #4
 3949              		.loc 1 526 0
 3950 100e 3146     		mov	r1, r6
 3951 1010 2046     		mov	r0, r4
 3952              		.loc 1 524 0
 3953 1012 83F802E0 		strb	lr, [r3, #2]
 3954              		.loc 1 525 0
 3955 1016 DF70     		strb	r7, [r3, #3]
 3956 1018 0292     		str	r2, [sp, #8]
 3957              		.loc 1 526 0
 3958 101a FFF7FEFF 		bl	buffer_append_float32_auto
 3959              	.LVL449:
 3960              		.loc 1 527 0
 3961 101e 2046     		mov	r0, r4
 3962 1020 3146     		mov	r1, r6
 3963 1022 95ED5A0A 		flds	s0, [r5, #360]
 3964 1026 FFF7FEFF 		bl	buffer_append_float32_auto
 3965              	.LVL450:
 3966              		.loc 1 528 0
 3967 102a 2046     		mov	r0, r4
 3968 102c 3146     		mov	r1, r6
 3969 102e 95ED5B0A 		flds	s0, [r5, #364]
 3970 1032 FFF7FEFF 		bl	buffer_append_float32_auto
 3971              	.LVL451:
 3972              		.loc 1 529 0
 3973 1036 3146     		mov	r1, r6
 3974 1038 2046     		mov	r0, r4
 3975 103a 95ED5C0A 		flds	s0, [r5, #368]
 3976 103e FFF7FEFF 		bl	buffer_append_float32_auto
 3977              	.LVL452:
 3978              	.LBB160:
 3979              	.LBB161:
 3980              		.loc 1 91 0
 3981 1042 044B     		ldr	r3, .L227
 3982              	.LBE161:
 3983              	.LBE160:
 3984              		.loc 1 531 0
ARM GAS  /tmp/ccTQOGyd.s 			page 71


 3985 1044 0299     		ldr	r1, [sp, #8]
 3986              	.LVL453:
 3987              	.LBB163:
 3988              	.LBB162:
 3989              		.loc 1 91 0
 3990 1046 1B68     		ldr	r3, [r3]
 3991 1048 002B     		cmp	r3, #0
 3992 104a 7FF45FA8 		bne	.L201
 3993 104e FFF75FB8 		b	.L82
 3994              	.L228:
 3995 1052 00BF     		.align	2
 3996              	.L227:
 3997 1054 00000000 		.word	.LANCHOR10
 3998              	.LVL454:
 3999              	.L98:
 4000              	.LBE162:
 4001              	.LBE163:
 4002              		.loc 1 264 0
 4003 1058 FFF7FEFF 		bl	mc_interface_get_configuration
 4004              	.LVL455:
 4005 105c BB4D     		ldr	r5, .L229
 4006              	.LVL456:
 4007              		.loc 1 270 0
 4008 105e 36AE     		add	r6, sp, #216
 4009              		.loc 1 264 0
 4010 1060 0146     		mov	r1, r0
 4011 1062 4FF4BA72 		mov	r2, #372
 4012 1066 2846     		mov	r0, r5
 4013 1068 FFF7FEFF 		bl	memcpy
 4014              	.LVL457:
 4015              		.loc 1 270 0
 4016 106c 0423     		movs	r3, #4
 4017 106e 46F8D03D 		str	r3, [r6, #-208]!
 4018              		.loc 1 267 0
 4019 1072 7978     		ldrb	r1, [r7, #1]	@ zero_extendqisi2
 4020              		.loc 1 268 0
 4021 1074 97F802E0 		ldrb	lr, [r7, #2]	@ zero_extendqisi2
 4022              		.loc 1 269 0
 4023 1078 FA78     		ldrb	r2, [r7, #3]	@ zero_extendqisi2
 4024              		.loc 1 270 0
 4025 107a 3B79     		ldrb	r3, [r7, #4]	@ zero_extendqisi2
 4026              		.loc 1 267 0
 4027 107c 2970     		strb	r1, [r5]
 4028              		.loc 1 272 0
 4029 107e 2046     		mov	r0, r4
 4030 1080 3146     		mov	r1, r6
 4031              		.loc 1 268 0
 4032 1082 85F801E0 		strb	lr, [r5, #1]
 4033              		.loc 1 269 0
 4034 1086 AA70     		strb	r2, [r5, #2]
 4035              		.loc 1 270 0
 4036 1088 EB70     		strb	r3, [r5, #3]
 4037              		.loc 1 272 0
 4038 108a FFF7FEFF 		bl	buffer_get_float32_auto
 4039              	.LVL458:
 4040              		.loc 1 273 0
 4041 108e 3146     		mov	r1, r6
ARM GAS  /tmp/ccTQOGyd.s 			page 72


 4042 1090 2046     		mov	r0, r4
 4043              		.loc 1 272 0
 4044 1092 85ED010A 		fsts	s0, [r5, #4]
 4045              		.loc 1 273 0
 4046 1096 FFF7FEFF 		bl	buffer_get_float32_auto
 4047              	.LVL459:
 4048              		.loc 1 274 0
 4049 109a 3146     		mov	r1, r6
 4050 109c 2046     		mov	r0, r4
 4051              		.loc 1 273 0
 4052 109e 85ED020A 		fsts	s0, [r5, #8]
 4053              		.loc 1 274 0
 4054 10a2 FFF7FEFF 		bl	buffer_get_float32_auto
 4055              	.LVL460:
 4056              		.loc 1 275 0
 4057 10a6 3146     		mov	r1, r6
 4058 10a8 2046     		mov	r0, r4
 4059              		.loc 1 274 0
 4060 10aa 85ED030A 		fsts	s0, [r5, #12]
 4061              		.loc 1 275 0
 4062 10ae FFF7FEFF 		bl	buffer_get_float32_auto
 4063              	.LVL461:
 4064              		.loc 1 276 0
 4065 10b2 3146     		mov	r1, r6
 4066 10b4 2046     		mov	r0, r4
 4067              		.loc 1 275 0
 4068 10b6 85ED040A 		fsts	s0, [r5, #16]
 4069              		.loc 1 276 0
 4070 10ba FFF7FEFF 		bl	buffer_get_float32_auto
 4071              	.LVL462:
 4072              		.loc 1 277 0
 4073 10be 3146     		mov	r1, r6
 4074 10c0 2046     		mov	r0, r4
 4075              		.loc 1 276 0
 4076 10c2 85ED050A 		fsts	s0, [r5, #20]
 4077              		.loc 1 277 0
 4078 10c6 FFF7FEFF 		bl	buffer_get_float32_auto
 4079              	.LVL463:
 4080              		.loc 1 278 0
 4081 10ca 3146     		mov	r1, r6
 4082 10cc 2046     		mov	r0, r4
 4083              		.loc 1 277 0
 4084 10ce 85ED060A 		fsts	s0, [r5, #24]
 4085              		.loc 1 278 0
 4086 10d2 FFF7FEFF 		bl	buffer_get_float32_auto
 4087              	.LVL464:
 4088              		.loc 1 279 0
 4089 10d6 3146     		mov	r1, r6
 4090 10d8 2046     		mov	r0, r4
 4091              		.loc 1 278 0
 4092 10da 85ED070A 		fsts	s0, [r5, #28]
 4093              		.loc 1 279 0
 4094 10de FFF7FEFF 		bl	buffer_get_float32_auto
 4095              	.LVL465:
 4096              		.loc 1 280 0
 4097 10e2 3146     		mov	r1, r6
 4098 10e4 2046     		mov	r0, r4
ARM GAS  /tmp/ccTQOGyd.s 			page 73


 4099              		.loc 1 279 0
 4100 10e6 85ED080A 		fsts	s0, [r5, #32]
 4101              		.loc 1 280 0
 4102 10ea FFF7FEFF 		bl	buffer_get_float32_auto
 4103              	.LVL466:
 4104              		.loc 1 281 0
 4105 10ee 3146     		mov	r1, r6
 4106 10f0 2046     		mov	r0, r4
 4107              		.loc 1 280 0
 4108 10f2 85ED090A 		fsts	s0, [r5, #36]
 4109              		.loc 1 281 0
 4110 10f6 FFF7FEFF 		bl	buffer_get_float32_auto
 4111              	.LVL467:
 4112              		.loc 1 282 0
 4113 10fa 3146     		mov	r1, r6
 4114 10fc 2046     		mov	r0, r4
 4115              		.loc 1 281 0
 4116 10fe 85ED0A0A 		fsts	s0, [r5, #40]
 4117              		.loc 1 282 0
 4118 1102 FFF7FEFF 		bl	buffer_get_float32_auto
 4119              	.LVL468:
 4120              		.loc 1 283 0
 4121 1106 3146     		mov	r1, r6
 4122 1108 2046     		mov	r0, r4
 4123              		.loc 1 282 0
 4124 110a 85ED0B0A 		fsts	s0, [r5, #44]
 4125              		.loc 1 283 0
 4126 110e FFF7FEFF 		bl	buffer_get_float32_auto
 4127              	.LVL469:
 4128              		.loc 1 284 0
 4129 1112 3146     		mov	r1, r6
 4130 1114 2046     		mov	r0, r4
 4131              		.loc 1 283 0
 4132 1116 85ED0C0A 		fsts	s0, [r5, #48]
 4133              		.loc 1 284 0
 4134 111a FFF7FEFF 		bl	buffer_get_float32_auto
 4135              	.LVL470:
 4136              		.loc 1 285 0
 4137 111e 3146     		mov	r1, r6
 4138 1120 2046     		mov	r0, r4
 4139              		.loc 1 284 0
 4140 1122 85ED0D0A 		fsts	s0, [r5, #52]
 4141              		.loc 1 285 0
 4142 1126 FFF7FEFF 		bl	buffer_get_float32_auto
 4143              	.LVL471:
 4144              		.loc 1 286 0
 4145 112a 029B     		ldr	r3, [sp, #8]
 4146              		.loc 1 285 0
 4147 112c 85ED0E0A 		fsts	s0, [r5, #56]
 4148              		.loc 1 286 0
 4149 1130 E25C     		ldrb	r2, [r4, r3]	@ zero_extendqisi2
 4150 1132 0032     		adds	r2, r2, #0
 4151 1134 18BF     		it	ne
 4152 1136 0122     		movne	r2, #1
 4153 1138 0133     		adds	r3, r3, #1
 4154              		.loc 1 287 0
 4155 113a 3146     		mov	r1, r6
ARM GAS  /tmp/ccTQOGyd.s 			page 74


 4156 113c 2046     		mov	r0, r4
 4157              		.loc 1 286 0
 4158 113e 85F83C20 		strb	r2, [r5, #60]
 4159 1142 0293     		str	r3, [sp, #8]
 4160              		.loc 1 287 0
 4161 1144 FFF7FEFF 		bl	buffer_get_float32_auto
 4162              	.LVL472:
 4163              		.loc 1 288 0
 4164 1148 3146     		mov	r1, r6
 4165 114a 2046     		mov	r0, r4
 4166              		.loc 1 287 0
 4167 114c 85ED100A 		fsts	s0, [r5, #64]
 4168              		.loc 1 288 0
 4169 1150 FFF7FEFF 		bl	buffer_get_float32_auto
 4170              	.LVL473:
 4171              		.loc 1 289 0
 4172 1154 3146     		mov	r1, r6
 4173 1156 2046     		mov	r0, r4
 4174              		.loc 1 288 0
 4175 1158 85ED110A 		fsts	s0, [r5, #68]
 4176              		.loc 1 289 0
 4177 115c FFF7FEFF 		bl	buffer_get_float32_auto
 4178              	.LVL474:
 4179              		.loc 1 290 0
 4180 1160 3146     		mov	r1, r6
 4181 1162 2046     		mov	r0, r4
 4182              		.loc 1 289 0
 4183 1164 85ED120A 		fsts	s0, [r5, #72]
 4184              		.loc 1 290 0
 4185 1168 FFF7FEFF 		bl	buffer_get_float32_auto
 4186              	.LVL475:
 4187              		.loc 1 291 0
 4188 116c 3146     		mov	r1, r6
 4189 116e 2046     		mov	r0, r4
 4190              		.loc 1 290 0
 4191 1170 85ED130A 		fsts	s0, [r5, #76]
 4192              		.loc 1 291 0
 4193 1174 FFF7FEFF 		bl	buffer_get_float32_auto
 4194              	.LVL476:
 4195              		.loc 1 292 0
 4196 1178 3146     		mov	r1, r6
 4197 117a 2046     		mov	r0, r4
 4198              		.loc 1 291 0
 4199 117c 85ED140A 		fsts	s0, [r5, #80]
 4200              		.loc 1 292 0
 4201 1180 FFF7FEFF 		bl	buffer_get_float32_auto
 4202              	.LVL477:
 4203              		.loc 1 293 0
 4204 1184 3146     		mov	r1, r6
 4205 1186 2046     		mov	r0, r4
 4206              		.loc 1 292 0
 4207 1188 85ED150A 		fsts	s0, [r5, #84]
 4208              		.loc 1 293 0
 4209 118c FFF7FEFF 		bl	buffer_get_float32_auto
 4210              	.LVL478:
 4211              		.loc 1 294 0
 4212 1190 3146     		mov	r1, r6
ARM GAS  /tmp/ccTQOGyd.s 			page 75


 4213 1192 2046     		mov	r0, r4
 4214              		.loc 1 293 0
 4215 1194 85ED160A 		fsts	s0, [r5, #88]
 4216              		.loc 1 294 0
 4217 1198 FFF7FEFF 		bl	buffer_get_float32_auto
 4218              	.LVL479:
 4219              		.loc 1 295 0
 4220 119c 3146     		mov	r1, r6
 4221 119e 2046     		mov	r0, r4
 4222              		.loc 1 294 0
 4223 11a0 85ED170A 		fsts	s0, [r5, #92]
 4224              		.loc 1 295 0
 4225 11a4 FFF7FEFF 		bl	buffer_get_float32_auto
 4226              	.LVL480:
 4227              		.loc 1 299 0
 4228 11a8 D5F80CE0 		ldr	lr, [r5, #12]	@ float
 4229              		.loc 1 297 0
 4230 11ac 6A68     		ldr	r2, [r5, #4]	@ float
 4231              		.loc 1 298 0
 4232 11ae AB68     		ldr	r3, [r5, #8]	@ float
 4233              		.loc 1 300 0
 4234 11b0 2F69     		ldr	r7, [r5, #16]	@ float
 4235              		.loc 1 299 0
 4236 11b2 C5F86CE0 		str	lr, [r5, #108]	@ float
 4237              		.loc 1 304 0
 4238 11b6 3146     		mov	r1, r6
 4239 11b8 2046     		mov	r0, r4
 4240              		.loc 1 297 0
 4241 11ba 6A66     		str	r2, [r5, #100]	@ float
 4242              		.loc 1 301 0
 4243 11bc 6A67     		str	r2, [r5, #116]	@ float
 4244              		.loc 1 298 0
 4245 11be AB66     		str	r3, [r5, #104]	@ float
 4246              		.loc 1 302 0
 4247 11c0 AB67     		str	r3, [r5, #120]	@ float
 4248              		.loc 1 300 0
 4249 11c2 2F67     		str	r7, [r5, #112]	@ float
 4250              		.loc 1 295 0
 4251 11c4 85ED180A 		fsts	s0, [r5, #96]
 4252              		.loc 1 304 0
 4253 11c8 FFF7FEFF 		bl	buffer_get_float32_auto
 4254              	.LVL481:
 4255              		.loc 1 305 0
 4256 11cc 3146     		mov	r1, r6
 4257 11ce 2046     		mov	r0, r4
 4258              		.loc 1 304 0
 4259 11d0 85ED1F0A 		fsts	s0, [r5, #124]
 4260              		.loc 1 305 0
 4261 11d4 FFF7FEFF 		bl	buffer_get_float32_auto
 4262              	.LVL482:
 4263              		.loc 1 306 0
 4264 11d8 3146     		mov	r1, r6
 4265 11da 2046     		mov	r0, r4
 4266              		.loc 1 305 0
 4267 11dc 85ED200A 		fsts	s0, [r5, #128]
 4268              		.loc 1 306 0
 4269 11e0 FFF7FEFF 		bl	buffer_get_float32_auto
ARM GAS  /tmp/ccTQOGyd.s 			page 76


 4270              	.LVL483:
 4271              		.loc 1 307 0
 4272 11e4 3146     		mov	r1, r6
 4273 11e6 2046     		mov	r0, r4
 4274              		.loc 1 306 0
 4275 11e8 85ED210A 		fsts	s0, [r5, #132]
 4276              		.loc 1 307 0
 4277 11ec FFF7FEFF 		bl	buffer_get_float32_auto
 4278              	.LVL484:
 4279              		.loc 1 308 0
 4280 11f0 3146     		mov	r1, r6
 4281 11f2 2046     		mov	r0, r4
 4282              		.loc 1 307 0
 4283 11f4 85ED220A 		fsts	s0, [r5, #136]
 4284              		.loc 1 308 0
 4285 11f8 FFF7FEFF 		bl	buffer_get_float32_auto
 4286              	.LVL485:
 4287              		.loc 1 309 0
 4288 11fc 3146     		mov	r1, r6
 4289 11fe 2046     		mov	r0, r4
 4290              		.loc 1 308 0
 4291 1200 85ED230A 		fsts	s0, [r5, #140]
 4292              		.loc 1 309 0
 4293 1204 FFF7FEFF 		bl	buffer_get_float32_auto
 4294              	.LVL486:
 4295              		.loc 1 310 0
 4296 1208 3146     		mov	r1, r6
 4297 120a 2046     		mov	r0, r4
 4298              		.loc 1 309 0
 4299 120c 85ED240A 		fsts	s0, [r5, #144]
 4300              		.loc 1 310 0
 4301 1210 FFF7FEFF 		bl	buffer_get_float32_auto
 4302              	.LVL487:
 4303              		.loc 1 312 0
 4304 1214 029A     		ldr	r2, [sp, #8]
 4305              		.loc 1 310 0
 4306 1216 85ED250A 		fsts	s0, [r5, #148]
 4307              		.loc 1 312 0
 4308 121a A118     		adds	r1, r4, r2
 4309 121c 05F19803 		add	r3, r5, #152
 4310 1220 0868     		ldr	r0, [r1]	@ unaligned
 4311 1222 4968     		ldr	r1, [r1, #4]	@ unaligned
 4312              		.loc 1 313 0
 4313 1224 0832     		adds	r2, r2, #8
 4314              		.loc 1 312 0
 4315 1226 03C3     		stmia	r3!, {r0, r1}
 4316              		.loc 1 314 0
 4317 1228 3146     		mov	r1, r6
 4318 122a 2046     		mov	r0, r4
 4319              		.loc 1 313 0
 4320 122c 0292     		str	r2, [sp, #8]
 4321              		.loc 1 314 0
 4322 122e FFF7FEFF 		bl	buffer_get_float32_auto
 4323              	.LVL488:
 4324              		.loc 1 316 0
 4325 1232 3146     		mov	r1, r6
 4326 1234 2046     		mov	r0, r4
ARM GAS  /tmp/ccTQOGyd.s 			page 77


 4327              		.loc 1 314 0
 4328 1236 85ED280A 		fsts	s0, [r5, #160]
 4329              		.loc 1 316 0
 4330 123a FFF7FEFF 		bl	buffer_get_float32_auto
 4331              	.LVL489:
 4332              		.loc 1 317 0
 4333 123e 3146     		mov	r1, r6
 4334 1240 2046     		mov	r0, r4
 4335              		.loc 1 316 0
 4336 1242 85ED290A 		fsts	s0, [r5, #164]
 4337              		.loc 1 317 0
 4338 1246 FFF7FEFF 		bl	buffer_get_float32_auto
 4339              	.LVL490:
 4340              		.loc 1 318 0
 4341 124a 3146     		mov	r1, r6
 4342 124c 2046     		mov	r0, r4
 4343              		.loc 1 317 0
 4344 124e 85ED2A0A 		fsts	s0, [r5, #168]
 4345              		.loc 1 318 0
 4346 1252 FFF7FEFF 		bl	buffer_get_float32_auto
 4347              	.LVL491:
 4348              		.loc 1 319 0
 4349 1256 3146     		mov	r1, r6
 4350 1258 2046     		mov	r0, r4
 4351              		.loc 1 318 0
 4352 125a 85ED2B0A 		fsts	s0, [r5, #172]
 4353              		.loc 1 319 0
 4354 125e FFF7FEFF 		bl	buffer_get_float32_auto
 4355              	.LVL492:
 4356              		.loc 1 320 0
 4357 1262 029B     		ldr	r3, [sp, #8]
 4358              		.loc 1 319 0
 4359 1264 85ED2C0A 		fsts	s0, [r5, #176]
 4360              		.loc 1 320 0
 4361 1268 E25C     		ldrb	r2, [r4, r3]	@ zero_extendqisi2
 4362 126a 0032     		adds	r2, r2, #0
 4363 126c 18BF     		it	ne
 4364 126e 0122     		movne	r2, #1
 4365 1270 0133     		adds	r3, r3, #1
 4366              		.loc 1 321 0
 4367 1272 3146     		mov	r1, r6
 4368 1274 2046     		mov	r0, r4
 4369              		.loc 1 320 0
 4370 1276 85F8B820 		strb	r2, [r5, #184]
 4371 127a 0293     		str	r3, [sp, #8]
 4372              		.loc 1 321 0
 4373 127c FFF7FEFF 		bl	buffer_get_float32_auto
 4374              	.LVL493:
 4375              		.loc 1 322 0
 4376 1280 3146     		mov	r1, r6
 4377 1282 2046     		mov	r0, r4
 4378              		.loc 1 321 0
 4379 1284 85ED2D0A 		fsts	s0, [r5, #180]
 4380              		.loc 1 322 0
 4381 1288 FFF7FEFF 		bl	buffer_get_float32_auto
 4382              	.LVL494:
 4383              		.loc 1 323 0
ARM GAS  /tmp/ccTQOGyd.s 			page 78


 4384 128c 029B     		ldr	r3, [sp, #8]
 4385              		.loc 1 322 0
 4386 128e 85ED2F0A 		fsts	s0, [r5, #188]
 4387              		.loc 1 323 0
 4388 1292 E25C     		ldrb	r2, [r4, r3]	@ zero_extendqisi2
 4389 1294 85F8F820 		strb	r2, [r5, #248]
 4390 1298 0133     		adds	r3, r3, #1
 4391              		.loc 1 324 0
 4392 129a 3146     		mov	r1, r6
 4393 129c 2046     		mov	r0, r4
 4394              		.loc 1 323 0
 4395 129e 0293     		str	r3, [sp, #8]
 4396              		.loc 1 324 0
 4397 12a0 FFF7FEFF 		bl	buffer_get_float32_auto
 4398              	.LVL495:
 4399              		.loc 1 325 0
 4400 12a4 3146     		mov	r1, r6
 4401 12a6 2046     		mov	r0, r4
 4402              		.loc 1 324 0
 4403 12a8 85ED350A 		fsts	s0, [r5, #212]
 4404              		.loc 1 325 0
 4405 12ac FFF7FEFF 		bl	buffer_get_float32_auto
 4406              	.LVL496:
 4407              		.loc 1 326 0
 4408 12b0 3146     		mov	r1, r6
 4409 12b2 2046     		mov	r0, r4
 4410              		.loc 1 325 0
 4411 12b4 85ED360A 		fsts	s0, [r5, #216]
 4412              		.loc 1 326 0
 4413 12b8 FFF7FEFF 		bl	buffer_get_float32_auto
 4414              	.LVL497:
 4415              		.loc 1 327 0
 4416 12bc 3146     		mov	r1, r6
 4417 12be 2046     		mov	r0, r4
 4418              		.loc 1 326 0
 4419 12c0 85ED300A 		fsts	s0, [r5, #192]
 4420              		.loc 1 327 0
 4421 12c4 FFF7FEFF 		bl	buffer_get_float32_auto
 4422              	.LVL498:
 4423              		.loc 1 328 0
 4424 12c8 3146     		mov	r1, r6
 4425 12ca 2046     		mov	r0, r4
 4426              		.loc 1 327 0
 4427 12cc 85ED310A 		fsts	s0, [r5, #196]
 4428              		.loc 1 328 0
 4429 12d0 FFF7FEFF 		bl	buffer_get_float32_auto
 4430              	.LVL499:
 4431              		.loc 1 329 0
 4432 12d4 3146     		mov	r1, r6
 4433 12d6 2046     		mov	r0, r4
 4434              		.loc 1 328 0
 4435 12d8 85ED320A 		fsts	s0, [r5, #200]
 4436              		.loc 1 329 0
 4437 12dc FFF7FEFF 		bl	buffer_get_float32_auto
 4438              	.LVL500:
 4439              		.loc 1 330 0
 4440 12e0 3146     		mov	r1, r6
ARM GAS  /tmp/ccTQOGyd.s 			page 79


 4441 12e2 2046     		mov	r0, r4
 4442              		.loc 1 329 0
 4443 12e4 85ED330A 		fsts	s0, [r5, #204]
 4444              		.loc 1 330 0
 4445 12e8 FFF7FEFF 		bl	buffer_get_float32_auto
 4446              	.LVL501:
 4447              		.loc 1 331 0
 4448 12ec 3146     		mov	r1, r6
 4449 12ee 2046     		mov	r0, r4
 4450              		.loc 1 330 0
 4451 12f0 85ED340A 		fsts	s0, [r5, #208]
 4452              		.loc 1 331 0
 4453 12f4 FFF7FEFF 		bl	buffer_get_float32_auto
 4454              	.LVL502:
 4455              		.loc 1 332 0
 4456 12f8 3146     		mov	r1, r6
 4457 12fa 2046     		mov	r0, r4
 4458              		.loc 1 331 0
 4459 12fc 85ED370A 		fsts	s0, [r5, #220]
 4460              		.loc 1 332 0
 4461 1300 FFF7FEFF 		bl	buffer_get_float32_auto
 4462              	.LVL503:
 4463              		.loc 1 333 0
 4464 1304 3146     		mov	r1, r6
 4465 1306 2046     		mov	r0, r4
 4466              		.loc 1 332 0
 4467 1308 85ED380A 		fsts	s0, [r5, #224]
 4468              		.loc 1 333 0
 4469 130c FFF7FEFF 		bl	buffer_get_float32_auto
 4470              	.LVL504:
 4471              		.loc 1 334 0
 4472 1310 3146     		mov	r1, r6
 4473 1312 2046     		mov	r0, r4
 4474              		.loc 1 333 0
 4475 1314 85ED390A 		fsts	s0, [r5, #228]
 4476              		.loc 1 334 0
 4477 1318 FFF7FEFF 		bl	buffer_get_float32_auto
 4478              	.LVL505:
 4479              		.loc 1 335 0
 4480 131c 3146     		mov	r1, r6
 4481 131e 2046     		mov	r0, r4
 4482              		.loc 1 334 0
 4483 1320 85ED3A0A 		fsts	s0, [r5, #232]
 4484              		.loc 1 335 0
 4485 1324 FFF7FEFF 		bl	buffer_get_float32_auto
 4486              	.LVL506:
 4487              		.loc 1 336 0
 4488 1328 3146     		mov	r1, r6
 4489 132a 2046     		mov	r0, r4
 4490              		.loc 1 335 0
 4491 132c 85ED3B0A 		fsts	s0, [r5, #236]
 4492              		.loc 1 336 0
 4493 1330 FFF7FEFF 		bl	buffer_get_float32_auto
 4494              	.LVL507:
 4495              		.loc 1 337 0
 4496 1334 3146     		mov	r1, r6
 4497 1336 2046     		mov	r0, r4
ARM GAS  /tmp/ccTQOGyd.s 			page 80


 4498              		.loc 1 336 0
 4499 1338 85ED3C0A 		fsts	s0, [r5, #240]
 4500              		.loc 1 337 0
 4501 133c FFF7FEFF 		bl	buffer_get_float32_auto
 4502              	.LVL508:
 4503              		.loc 1 338 0
 4504 1340 029A     		ldr	r2, [sp, #8]
 4505              		.loc 1 337 0
 4506 1342 85ED3D0A 		fsts	s0, [r5, #244]
 4507              		.loc 1 338 0
 4508 1346 A318     		adds	r3, r4, r2
 4509 1348 18E0     		b	.L230
 4510              	.L231:
 4511 134a 00BF     		.align	2
 4512              	.L229:
 4513 134c 00000000 		.word	.LANCHOR15
 4514 1350 0000C8C2 		.word	3267887104
 4515 1354 0000C842 		.word	1120403456
 4516 1358 00001643 		.word	1125515264
 4517 135c 00006442 		.word	1113849856
 4518 1360 005043C8 		.word	3359854592
 4519 1364 00504348 		.word	1212370944
 4520 1368 CDCCCC3D 		.word	1036831949
 4521 136c 00000000 		.word	0
 4522 1370 3333733F 		.word	1064514355
 4523 1374 000020C2 		.word	3256877056
 4524 1378 0000DC42 		.word	1121714176
 4525              	.L230:
 4526              		.loc 1 340 0
 4527 137c 3146     		mov	r1, r6
 4528              		.loc 1 338 0
 4529 137e 1F68     		ldr	r7, [r3]	@ unaligned
 4530 1380 5B68     		ldr	r3, [r3, #4]	@ unaligned
 4531 1382 C5F8FD30 		str	r3, [r5, #253]	@ unaligned
 4532              		.loc 1 339 0
 4533 1386 0832     		adds	r2, r2, #8
 4534              		.loc 1 340 0
 4535 1388 2046     		mov	r0, r4
 4536              		.loc 1 338 0
 4537 138a C5F8F970 		str	r7, [r5, #249]	@ unaligned
 4538              		.loc 1 339 0
 4539 138e 0292     		str	r2, [sp, #8]
 4540              		.loc 1 340 0
 4541 1390 FFF7FEFF 		bl	buffer_get_float32_auto
 4542              	.LVL509:
 4543              		.loc 1 341 0
 4544 1394 029B     		ldr	r3, [sp, #8]
 4545              		.loc 1 340 0
 4546 1396 85ED410A 		fsts	s0, [r5, #260]
 4547              		.loc 1 341 0
 4548 139a E15C     		ldrb	r1, [r4, r3]	@ zero_extendqisi2
 4549 139c 0031     		adds	r1, r1, #0
 4550 139e 18BF     		it	ne
 4551 13a0 0121     		movne	r1, #1
 4552 13a2 5A1C     		adds	r2, r3, #1
 4553 13a4 85F80811 		strb	r1, [r5, #264]
 4554              		.loc 1 342 0
ARM GAS  /tmp/ccTQOGyd.s 			page 81


 4555 13a8 A25C     		ldrb	r2, [r4, r2]	@ zero_extendqisi2
 4556 13aa 0032     		adds	r2, r2, #0
 4557 13ac 18BF     		it	ne
 4558 13ae 0122     		movne	r2, #1
 4559 13b0 0233     		adds	r3, r3, #2
 4560              		.loc 1 343 0
 4561 13b2 3146     		mov	r1, r6
 4562 13b4 2046     		mov	r0, r4
 4563              		.loc 1 342 0
 4564 13b6 85F80921 		strb	r2, [r5, #265]
 4565 13ba 0293     		str	r3, [sp, #8]
 4566              		.loc 1 343 0
 4567 13bc FFF7FEFF 		bl	buffer_get_float32_auto
 4568              	.LVL510:
 4569              		.loc 1 344 0
 4570 13c0 029B     		ldr	r3, [sp, #8]
 4571              		.loc 1 343 0
 4572 13c2 85ED430A 		fsts	s0, [r5, #268]
 4573              		.loc 1 344 0
 4574 13c6 E25C     		ldrb	r2, [r4, r3]	@ zero_extendqisi2
 4575 13c8 0032     		adds	r2, r2, #0
 4576 13ca 18BF     		it	ne
 4577 13cc 0122     		movne	r2, #1
 4578 13ce 0133     		adds	r3, r3, #1
 4579              		.loc 1 345 0
 4580 13d0 3146     		mov	r1, r6
 4581 13d2 2046     		mov	r0, r4
 4582              		.loc 1 344 0
 4583 13d4 85F81021 		strb	r2, [r5, #272]
 4584 13d8 0293     		str	r3, [sp, #8]
 4585              		.loc 1 345 0
 4586 13da FFF7FEFF 		bl	buffer_get_float32_auto
 4587              	.LVL511:
 4588              		.loc 1 347 0
 4589 13de 3146     		mov	r1, r6
 4590 13e0 2046     		mov	r0, r4
 4591              		.loc 1 345 0
 4592 13e2 85ED450A 		fsts	s0, [r5, #276]
 4593              		.loc 1 347 0
 4594 13e6 FFF7FEFF 		bl	buffer_get_float32_auto
 4595              	.LVL512:
 4596              		.loc 1 348 0
 4597 13ea 3146     		mov	r1, r6
 4598 13ec 2046     		mov	r0, r4
 4599              		.loc 1 347 0
 4600 13ee 85ED460A 		fsts	s0, [r5, #280]
 4601              		.loc 1 348 0
 4602 13f2 FFF7FEFF 		bl	buffer_get_float32_auto
 4603              	.LVL513:
 4604              		.loc 1 349 0
 4605 13f6 3146     		mov	r1, r6
 4606 13f8 2046     		mov	r0, r4
 4607              		.loc 1 348 0
 4608 13fa 85ED470A 		fsts	s0, [r5, #284]
 4609              		.loc 1 349 0
 4610 13fe FFF7FEFF 		bl	buffer_get_float32_auto
 4611              	.LVL514:
ARM GAS  /tmp/ccTQOGyd.s 			page 82


 4612              		.loc 1 350 0
 4613 1402 3146     		mov	r1, r6
 4614 1404 2046     		mov	r0, r4
 4615              		.loc 1 349 0
 4616 1406 85ED480A 		fsts	s0, [r5, #288]
 4617              		.loc 1 350 0
 4618 140a FFF7FEFF 		bl	buffer_get_float32_auto
 4619              	.LVL515:
 4620              		.loc 1 351 0
 4621 140e 029B     		ldr	r3, [sp, #8]
 4622              		.loc 1 350 0
 4623 1410 85ED490A 		fsts	s0, [r5, #292]
 4624              		.loc 1 351 0
 4625 1414 E25C     		ldrb	r2, [r4, r3]	@ zero_extendqisi2
 4626 1416 0032     		adds	r2, r2, #0
 4627 1418 18BF     		it	ne
 4628 141a 0122     		movne	r2, #1
 4629 141c 0133     		adds	r3, r3, #1
 4630              		.loc 1 353 0
 4631 141e 3146     		mov	r1, r6
 4632 1420 2046     		mov	r0, r4
 4633              		.loc 1 351 0
 4634 1422 85F82821 		strb	r2, [r5, #296]
 4635 1426 0293     		str	r3, [sp, #8]
 4636              		.loc 1 353 0
 4637 1428 FFF7FEFF 		bl	buffer_get_float32_auto
 4638              	.LVL516:
 4639              		.loc 1 354 0
 4640 142c 3146     		mov	r1, r6
 4641 142e 2046     		mov	r0, r4
 4642              		.loc 1 353 0
 4643 1430 85ED4B0A 		fsts	s0, [r5, #300]
 4644              		.loc 1 354 0
 4645 1434 FFF7FEFF 		bl	buffer_get_float32_auto
 4646              	.LVL517:
 4647              		.loc 1 355 0
 4648 1438 3146     		mov	r1, r6
 4649 143a 2046     		mov	r0, r4
 4650              		.loc 1 354 0
 4651 143c 85ED4C0A 		fsts	s0, [r5, #304]
 4652              		.loc 1 355 0
 4653 1440 FFF7FEFF 		bl	buffer_get_float32_auto
 4654              	.LVL518:
 4655              		.loc 1 356 0
 4656 1444 3146     		mov	r1, r6
 4657 1446 2046     		mov	r0, r4
 4658              		.loc 1 355 0
 4659 1448 85ED4D0A 		fsts	s0, [r5, #308]
 4660              		.loc 1 356 0
 4661 144c FFF7FEFF 		bl	buffer_get_float32_auto
 4662              	.LVL519:
 4663              		.loc 1 358 0
 4664 1450 3146     		mov	r1, r6
 4665 1452 2046     		mov	r0, r4
 4666              		.loc 1 356 0
 4667 1454 85ED4E0A 		fsts	s0, [r5, #312]
 4668              		.loc 1 358 0
ARM GAS  /tmp/ccTQOGyd.s 			page 83


 4669 1458 FFF7FEFF 		bl	buffer_get_float32_auto
 4670              	.LVL520:
 4671              		.loc 1 359 0
 4672 145c 3146     		mov	r1, r6
 4673 145e 2046     		mov	r0, r4
 4674              		.loc 1 358 0
 4675 1460 85ED4F0A 		fsts	s0, [r5, #316]
 4676              		.loc 1 359 0
 4677 1464 FFF7FEFF 		bl	buffer_get_float32_auto
 4678              	.LVL521:
 4679              		.loc 1 360 0
 4680 1468 3146     		mov	r1, r6
 4681 146a 2046     		mov	r0, r4
 4682              		.loc 1 359 0
 4683 146c 85ED500A 		fsts	s0, [r5, #320]
 4684              		.loc 1 360 0
 4685 1470 FFF7FEFF 		bl	buffer_get_float32_auto
 4686              	.LVL522:
 4687              		.loc 1 361 0
 4688 1474 3146     		mov	r1, r6
 4689 1476 2046     		mov	r0, r4
 4690              		.loc 1 360 0
 4691 1478 85ED510A 		fsts	s0, [r5, #324]
 4692              		.loc 1 361 0
 4693 147c FFF7FEFF 		bl	buffer_get_float32_auto
 4694              	.LVL523:
 4695              		.loc 1 363 0
 4696 1480 3146     		mov	r1, r6
 4697 1482 2046     		mov	r0, r4
 4698              		.loc 1 361 0
 4699 1484 85ED520A 		fsts	s0, [r5, #328]
 4700              		.loc 1 363 0
 4701 1488 FFF7FEFF 		bl	buffer_get_int32
 4702              	.LVL524:
 4703              		.loc 1 364 0
 4704 148c 3146     		mov	r1, r6
 4705              		.loc 1 363 0
 4706 148e C5F84C01 		str	r0, [r5, #332]
 4707              		.loc 1 364 0
 4708 1492 2046     		mov	r0, r4
 4709 1494 FFF7FEFF 		bl	buffer_get_float32_auto
 4710              	.LVL525:
 4711              		.loc 1 365 0
 4712 1498 3146     		mov	r1, r6
 4713 149a 2046     		mov	r0, r4
 4714              		.loc 1 364 0
 4715 149c 85ED540A 		fsts	s0, [r5, #336]
 4716              		.loc 1 365 0
 4717 14a0 FFF7FEFF 		bl	buffer_get_float32_auto
 4718              	.LVL526:
 4719              		.loc 1 366 0
 4720 14a4 3146     		mov	r1, r6
 4721 14a6 2046     		mov	r0, r4
 4722              		.loc 1 365 0
 4723 14a8 85ED550A 		fsts	s0, [r5, #340]
 4724              		.loc 1 366 0
 4725 14ac FFF7FEFF 		bl	buffer_get_uint32
ARM GAS  /tmp/ccTQOGyd.s 			page 84


 4726              	.LVL527:
 4727              		.loc 1 367 0
 4728 14b0 029B     		ldr	r3, [sp, #8]
 4729              		.loc 1 366 0
 4730 14b2 C5F85801 		str	r0, [r5, #344]
 4731              		.loc 1 367 0
 4732 14b6 E25C     		ldrb	r2, [r4, r3]	@ zero_extendqisi2
 4733 14b8 85F85C21 		strb	r2, [r5, #348]
 4734 14bc 591C     		adds	r1, r3, #1
 4735              		.loc 1 368 0
 4736 14be 9A1C     		adds	r2, r3, #2
 4737 14c0 615C     		ldrb	r1, [r4, r1]	@ zero_extendqisi2
 4738 14c2 0031     		adds	r1, r1, #0
 4739 14c4 18BF     		it	ne
 4740 14c6 0121     		movne	r1, #1
 4741 14c8 85F85D11 		strb	r1, [r5, #349]
 4742              		.loc 1 369 0
 4743 14cc A25C     		ldrb	r2, [r4, r2]	@ zero_extendqisi2
 4744 14ce 85F85E21 		strb	r2, [r5, #350]
 4745 14d2 DA1C     		adds	r2, r3, #3
 4746              		.loc 1 371 0
 4747 14d4 3146     		mov	r1, r6
 4748              		.loc 1 370 0
 4749 14d6 A25C     		ldrb	r2, [r4, r2]	@ zero_extendqisi2
 4750 14d8 C5F86021 		str	r2, [r5, #352]
 4751 14dc 0433     		adds	r3, r3, #4
 4752              		.loc 1 371 0
 4753 14de 2046     		mov	r0, r4
 4754              		.loc 1 370 0
 4755 14e0 0293     		str	r3, [sp, #8]
 4756              		.loc 1 371 0
 4757 14e2 FFF7FEFF 		bl	buffer_get_float32_auto
 4758              	.LVL528:
 4759              		.loc 1 372 0
 4760 14e6 3146     		mov	r1, r6
 4761 14e8 2046     		mov	r0, r4
 4762              		.loc 1 371 0
 4763 14ea 85ED590A 		fsts	s0, [r5, #356]
 4764              		.loc 1 372 0
 4765 14ee FFF7FEFF 		bl	buffer_get_float32_auto
 4766              	.LVL529:
 4767              		.loc 1 373 0
 4768 14f2 3146     		mov	r1, r6
 4769 14f4 2046     		mov	r0, r4
 4770              		.loc 1 372 0
 4771 14f6 85ED5A0A 		fsts	s0, [r5, #360]
 4772              		.loc 1 373 0
 4773 14fa FFF7FEFF 		bl	buffer_get_float32_auto
 4774              	.LVL530:
 4775              		.loc 1 374 0
 4776 14fe 3146     		mov	r1, r6
 4777 1500 2046     		mov	r0, r4
 4778              		.loc 1 373 0
 4779 1502 85ED5B0A 		fsts	s0, [r5, #364]
 4780              		.loc 1 374 0
 4781 1506 FFF7FEFF 		bl	buffer_get_float32_auto
 4782              	.LVL531:
ARM GAS  /tmp/ccTQOGyd.s 			page 85


 4783              		.loc 1 379 0
 4784 150a 5FED6E0A 		flds	s1, .L229+8
 4785              		.loc 1 374 0
 4786 150e 85ED5C0A 		fsts	s0, [r5, #368]
 4787              		.loc 1 379 0
 4788 1512 281D     		adds	r0, r5, #4
 4789 1514 1FED720A 		flds	s0, .L229+4
 4790 1518 FFF7FEFF 		bl	utils_truncate_number
 4791              	.LVL532:
 4792              		.loc 1 380 0
 4793 151c 1FED740A 		flds	s0, .L229+4
 4794 1520 5FED740A 		flds	s1, .L229+8
 4795 1524 05F10800 		add	r0, r5, #8
 4796 1528 FFF7FEFF 		bl	utils_truncate_number
 4797              	.LVL533:
 4798              		.loc 1 383 0
 4799 152c 1FED780A 		flds	s0, .L229+4
 4800 1530 5FED780A 		flds	s1, .L229+8
 4801 1534 05F10C00 		add	r0, r5, #12
 4802 1538 FFF7FEFF 		bl	utils_truncate_number
 4803              	.LVL534:
 4804              		.loc 1 384 0
 4805 153c 1FED7C0A 		flds	s0, .L229+4
 4806 1540 5FED7C0A 		flds	s1, .L229+8
 4807 1544 05F11000 		add	r0, r5, #16
 4808 1548 FFF7FEFF 		bl	utils_truncate_number
 4809              	.LVL535:
 4810              		.loc 1 387 0
 4811 154c 1FED790A 		flds	s0, .L229+32
 4812 1550 5FED7F0A 		flds	s1, .L229+12
 4813 1554 05F11400 		add	r0, r5, #20
 4814 1558 FFF7FEFF 		bl	utils_truncate_number
 4815              	.LVL536:
 4816              		.loc 1 390 0
 4817 155c B1EE080A 		fconsts	s0, #24
 4818 1560 5FED820A 		flds	s1, .L229+16
 4819 1564 05F13000 		add	r0, r5, #48
 4820 1568 FFF7FEFF 		bl	utils_truncate_number
 4821              	.LVL537:
 4822              		.loc 1 391 0
 4823 156c B1EE080A 		fconsts	s0, #24
 4824 1570 5FED860A 		flds	s1, .L229+16
 4825 1574 05F12C00 		add	r0, r5, #44
 4826 1578 FFF7FEFF 		bl	utils_truncate_number
 4827              	.LVL538:
 4828              		.loc 1 394 0
 4829 157c 1FED880A 		flds	s0, .L229+20
 4830 1580 5FED880A 		flds	s1, .L229+24
 4831 1584 05F11C00 		add	r0, r5, #28
 4832 1588 FFF7FEFF 		bl	utils_truncate_number
 4833              	.LVL539:
 4834              		.loc 1 395 0
 4835 158c 1FED8C0A 		flds	s0, .L229+20
 4836 1590 5FED8C0A 		flds	s1, .L229+24
 4837 1594 05F11800 		add	r0, r5, #24
 4838 1598 FFF7FEFF 		bl	utils_truncate_number
 4839              	.LVL540:
ARM GAS  /tmp/ccTQOGyd.s 			page 86


 4840              		.loc 1 398 0
 4841 159c 1FED8D0A 		flds	s0, .L229+32
 4842 15a0 5FED8F0A 		flds	s1, .L229+28
 4843 15a4 05F15400 		add	r0, r5, #84
 4844 15a8 FFF7FEFF 		bl	utils_truncate_number
 4845              	.LVL541:
 4846              		.loc 1 401 0
 4847 15ac 1FED910A 		flds	s0, .L229+32
 4848 15b0 5FED910A 		flds	s1, .L229+36
 4849 15b4 05F15800 		add	r0, r5, #88
 4850 15b8 FFF7FEFF 		bl	utils_truncate_number
 4851              	.LVL542:
 4852              		.loc 1 404 0
 4853 15bc 1FED930A 		flds	s0, .L229+40
 4854 15c0 5FED930A 		flds	s1, .L229+44
 4855 15c4 05F14000 		add	r0, r5, #64
 4856 15c8 FFF7FEFF 		bl	utils_truncate_number
 4857              	.LVL543:
 4858              		.loc 1 405 0
 4859 15cc 1FED970A 		flds	s0, .L229+40
 4860 15d0 5FED970A 		flds	s1, .L229+44
 4861 15d4 05F14400 		add	r0, r5, #68
 4862 15d8 FFF7FEFF 		bl	utils_truncate_number
 4863              	.LVL544:
 4864              		.loc 1 409 0
 4865 15dc 2846     		mov	r0, r5
 4866 15de FFF7FEFF 		bl	conf_general_store_mc_configuration
 4867              	.LVL545:
 4868              		.loc 1 410 0
 4869 15e2 2846     		mov	r0, r5
 4870 15e4 FFF7FEFF 		bl	mc_interface_set_configuration
 4871              	.LVL546:
 4872              		.loc 1 411 0
 4873 15e8 4FF4FA60 		mov	r0, #2000
 4874 15ec FFF7FEFF 		bl	chThdSleep
 4875              	.LVL547:
 4876              	.LBB164:
 4877              	.LBB165:
 4878              		.loc 1 91 0
 4879 15f0 434B     		ldr	r3, .L232
 4880              	.LBE165:
 4881              	.LBE164:
 4882              		.loc 1 414 0
 4883 15f2 4448     		ldr	r0, .L232+4
 4884              	.LBB168:
 4885              	.LBB166:
 4886              		.loc 1 91 0
 4887 15f4 1B68     		ldr	r3, [r3]
 4888              	.LBE166:
 4889              	.LBE168:
 4890              		.loc 1 414 0
 4891 15f6 0D22     		movs	r2, #13
 4892 15f8 0121     		movs	r1, #1
 4893 15fa 0270     		strb	r2, [r0]
 4894              	.LVL548:
 4895 15fc 0291     		str	r1, [sp, #8]
 4896              	.LBB169:
ARM GAS  /tmp/ccTQOGyd.s 			page 87


 4897              	.LBB167:
 4898              		.loc 1 91 0
 4899 15fe 002B     		cmp	r3, #0
 4900 1600 7FF442A8 		bne	.L200
 4901 1604 FEF784BD 		b	.L82
 4902              	.LVL549:
 4903              	.L95:
 4904              	.LBE167:
 4905              	.LBE169:
 4906              		.loc 1 225 0
 4907 1608 02A9     		add	r1, sp, #8
 4908 160a 2046     		mov	r0, r4
 4909              	.LVL550:
 4910 160c FFF7FEFF 		bl	buffer_get_int32
 4911              	.LVL551:
 4912 1610 06EE900A 		fmsr	s13, r0	@ int
 4913 1614 DFED3C7A 		flds	s15, .L232+8
 4914 1618 B8EEE60A 		fsitos	s0, s13
 4915 161c 80EE270A 		fdivs	s0, s0, s15
 4916 1620 FFF7FEFF 		bl	mc_interface_set_pid_pos
 4917              	.LVL552:
 4918              		.loc 1 226 0
 4919 1624 FFF7FEFF 		bl	timeout_reset
 4920              	.LVL553:
 4921              		.loc 1 227 0
 4922 1628 FEF772BD 		b	.L82
 4923              	.LVL554:
 4924              	.L94:
 4925              		.loc 1 219 0
 4926 162c 02A9     		add	r1, sp, #8
 4927 162e 2046     		mov	r0, r4
 4928              	.LVL555:
 4929 1630 FFF7FEFF 		bl	buffer_get_int32
 4930              	.LVL556:
 4931 1634 07EE100A 		fmsr	s14, r0	@ int
 4932 1638 B8EEC70A 		fsitos	s0, s14
 4933 163c FFF7FEFF 		bl	mc_interface_set_pid_speed
 4934              	.LVL557:
 4935              		.loc 1 220 0
 4936 1640 FFF7FEFF 		bl	timeout_reset
 4937              	.LVL558:
 4938              		.loc 1 221 0
 4939 1644 FEF764BD 		b	.L82
 4940              	.LVL559:
 4941              	.L211:
 4942 1648 9DED030A 		flds	s0, [sp, #12]
 4943 164c FEF742BD 		b	.L128
 4944              	.LVL560:
 4945              	.L213:
 4946 1650 9DED040A 		flds	s0, [sp, #16]
 4947 1654 FEF770BE 		b	.L132
 4948              	.LVL561:
 4949              	.L212:
 4950              		.loc 1 243 0
 4951 1658 FFF7FEFF 		bl	mc_interface_release_motor
 4952              	.LVL562:
 4953 165c FEF774BD 		b	.L110
ARM GAS  /tmp/ccTQOGyd.s 			page 88


 4954              	.LVL563:
 4955              	.L215:
 4956              		.loc 1 421 0
 4957 1660 FFF7FEFF 		bl	mc_interface_get_configuration
 4958              	.LVL564:
 4959 1664 4FF4BA72 		mov	r2, #372
 4960 1668 0146     		mov	r1, r0
 4961 166a 2848     		ldr	r0, .L232+12
 4962 166c FFF7FEFF 		bl	memcpy
 4963              	.LVL565:
 4964 1670 FFF7C9BA 		b	.L124
 4965              	.LVL566:
 4966              	.L214:
 4967              		.loc 1 624 0
 4968 1674 FFF7FEFF 		bl	app_get_configuration
 4969              	.LVL567:
 4970 1678 04AC     		add	r4, sp, #16
 4971              	.LVL568:
 4972 167a 0146     		mov	r1, r0
 4973 167c C822     		movs	r2, #200
 4974 167e 2046     		mov	r0, r4
 4975 1680 FFF7FEFF 		bl	memcpy
 4976              	.LVL569:
 4977 1684 FFF7C0B8 		b	.L126
 4978              	.LVL570:
 4979              	.L136:
 4980              	.LBB170:
 4981              	.LBB119:
 4982              	.LBB118:
 4983              		.loc 1 91 0
 4984 1688 D9F80030 		ldr	r3, [r9]
 4985 168c 002B     		cmp	r3, #0
 4986 168e 7EF41AAE 		bne	.L204
 4987 1692 FEF73DBD 		b	.L82
 4988              	.LVL571:
 4989              	.L135:
 4990              	.LBE118:
 4991              	.LBE119:
 4992              	.LBE170:
 4993              		.loc 1 752 0
 4994 1696 36AD     		add	r5, sp, #216
 4995              	.LVL572:
 4996 1698 0123     		movs	r3, #1
 4997 169a 45F8D03D 		str	r3, [r5, #-208]!
 4998 169e 194C     		ldr	r4, .L232+4
 4999              	.LVL573:
 5000              		.loc 1 753 0
 5001 16a0 9FED1B0A 		flds	s0, .L232+16
 5002 16a4 DFED180A 		flds	s1, .L232+8
 5003              		.loc 1 752 0
 5004 16a8 1B23     		movs	r3, #27
 5005              		.loc 1 753 0
 5006 16aa 2946     		mov	r1, r5
 5007 16ac 2046     		mov	r0, r4
 5008              		.loc 1 752 0
 5009 16ae 2370     		strb	r3, [r4]
 5010              		.loc 1 753 0
ARM GAS  /tmp/ccTQOGyd.s 			page 89


 5011 16b0 FFF7FEFF 		bl	buffer_append_float32
 5012              	.LVL574:
 5013              		.loc 1 754 0
 5014 16b4 2946     		mov	r1, r5
 5015 16b6 2046     		mov	r0, r4
 5016 16b8 9FED160A 		flds	s0, .L232+20
 5017 16bc DFED120A 		flds	s1, .L232+8
 5018 16c0 FFF7FEFF 		bl	buffer_append_float32
 5019              	.LVL575:
 5020              	.LBB171:
 5021              	.LBB172:
 5022              		.loc 1 91 0
 5023 16c4 0E4B     		ldr	r3, .L232
 5024              	.LBE172:
 5025              	.LBE171:
 5026              		.loc 1 755 0
 5027 16c6 0299     		ldr	r1, [sp, #8]
 5028              	.LBB175:
 5029              	.LBB173:
 5030              		.loc 1 91 0
 5031 16c8 1B68     		ldr	r3, [r3]
 5032              	.LBE173:
 5033              	.LBE175:
 5034              		.loc 1 755 0
 5035 16ca 6654     		strb	r6, [r4, r1]
 5036              	.LVL576:
 5037 16cc 0131     		adds	r1, r1, #1
 5038              	.LVL577:
 5039 16ce 0291     		str	r1, [sp, #8]
 5040              	.LBB176:
 5041              	.LBB174:
 5042              		.loc 1 91 0
 5043 16d0 002B     		cmp	r3, #0
 5044 16d2 7EF41BAD 		bne	.L201
 5045 16d6 FEF71BBD 		b	.L82
 5046              	.LVL578:
 5047              	.L139:
 5048              	.LBE174:
 5049              	.LBE176:
 5050              	.LBB177:
 5051              	.LBB113:
 5052              	.LBB114:
 5053 16da 3C68     		ldr	r4, [r7]
 5054 16dc 002C     		cmp	r4, #0
 5055 16de 3EF417AD 		beq	.L82
 5056              		.loc 1 92 0
 5057 16e2 1846     		mov	r0, r3
 5058 16e4 1146     		mov	r1, r2
 5059 16e6 A047     		blx	r4
 5060              	.LVL579:
 5061 16e8 FEF712BD 		b	.L82
 5062              	.LVL580:
 5063              	.L138:
 5064              	.LBE114:
 5065              	.LBE113:
 5066              	.LBE177:
 5067              		.loc 1 795 0
ARM GAS  /tmp/ccTQOGyd.s 			page 90


 5068 16ec 054B     		ldr	r3, .L232+4
 5069 16ee 0822     		movs	r2, #8
 5070 16f0 FF21     		movs	r1, #255
 5071 16f2 1846     		mov	r0, r3
 5072 16f4 FFF7FEFF 		bl	memset
 5073              	.LVL581:
 5074              		.loc 1 797 0
 5075 16f8 0022     		movs	r2, #0
 5076 16fa 4272     		strb	r2, [r0, #9]
 5077 16fc FEF708BD 		b	.L82
 5078              	.L233:
 5079              		.align	2
 5080              	.L232:
 5081 1700 00000000 		.word	.LANCHOR10
 5082 1704 00000000 		.word	.LANCHOR8
 5083 1708 00247449 		.word	1232348160
 5084 170c 00000000 		.word	.LANCHOR15
 5085 1710 00407A44 		.word	1148862464
 5086 1714 00000000 		.word	0
 5087              		.cfi_endproc
 5088              	.LFE259:
 5089              		.size	commands_process_packet, .-commands_process_packet
 5090 1718 AFF30080 		.section	.bss.send_func,"aw",%nobits
 5090      AFF30080 
 5091              		.align	2
 5092              		.set	.LANCHOR10,. + 0
 5093              		.type	send_func, %object
 5094              		.size	send_func, 4
 5095              	send_func:
 5096 0000 00000000 		.space	4
 5097              		.section	.bss.detect_min_rpm,"aw",%nobits
 5098              		.align	2
 5099              		.set	.LANCHOR2,. + 0
 5100              		.type	detect_min_rpm, %object
 5101              		.size	detect_min_rpm, 4
 5102              	detect_min_rpm:
 5103 0000 00000000 		.space	4
 5104              		.section	.bss.appdata_func,"aw",%nobits
 5105              		.align	2
 5106              		.set	.LANCHOR14,. + 0
 5107              		.type	appdata_func, %object
 5108              		.size	appdata_func, 4
 5109              	appdata_func:
 5110 0000 00000000 		.space	4
 5111              		.section	.bss.detect_hall_table,"aw",%nobits
 5112              		.align	2
 5113              		.set	.LANCHOR6,. + 0
 5114              		.type	detect_hall_table, %object
 5115              		.size	detect_hall_table, 8
 5116              	detect_hall_table:
 5117 0000 00000000 		.space	8
 5117      00000000 
 5118              		.section	.bss.print_buffer.11487,"aw",%nobits
 5119              		.align	2
 5120              		.set	.LANCHOR12,. + 0
 5121              		.type	print_buffer.11487, %object
 5122              		.size	print_buffer.11487, 255
ARM GAS  /tmp/ccTQOGyd.s 			page 91


 5123              	print_buffer.11487:
 5124 0000 00000000 		.space	255
 5124      00000000 
 5124      00000000 
 5124      00000000 
 5124      00000000 
 5125 00ff 00       		.section	.bss.mcconf_old.11419,"aw",%nobits
 5126              		.align	2
 5127              		.set	.LANCHOR16,. + 0
 5128              		.type	mcconf_old.11419, %object
 5129              		.size	mcconf_old.11419, 372
 5130              	mcconf_old.11419:
 5131 0000 00000000 		.space	372
 5131      00000000 
 5131      00000000 
 5131      00000000 
 5131      00000000 
 5132              		.section	.bss.detect_hall_res,"aw",%nobits
 5133              		.align	2
 5134              		.set	.LANCHOR7,. + 0
 5135              		.type	detect_hall_res, %object
 5136              		.size	detect_hall_res, 4
 5137              	detect_hall_res:
 5138 0000 00000000 		.space	4
 5139              		.section	.bss.detect_thread_wa,"aw",%nobits
 5140              		.align	3
 5141              		.set	.LANCHOR11,. + 0
 5142              		.type	detect_thread_wa, %object
 5143              		.size	detect_thread_wa, 2456
 5144              	detect_thread_wa:
 5145 0000 00000000 		.space	2456
 5145      00000000 
 5145      00000000 
 5145      00000000 
 5145      00000000 
 5146              		.section	.bss.send_buffer,"aw",%nobits
 5147              		.align	2
 5148              		.set	.LANCHOR8,. + 0
 5149              		.type	send_buffer, %object
 5150              		.size	send_buffer, 1024
 5151              	send_buffer:
 5152 0000 00000000 		.space	1024
 5152      00000000 
 5152      00000000 
 5152      00000000 
 5152      00000000 
 5153              		.section	.rodata.str1.4,"aMS",%progbits,1
 5154              		.align	2
 5155              	.LC0:
 5156 0000 44657465 		.ascii	"Detect\000"
 5156      637400
 5157 0007 00       		.space	1
 5158              	.LC1:
 5159 0008 34313000 		.ascii	"410\000"
 5160              		.section	.bss.detect_tp,"aw",%nobits
 5161              		.align	2
 5162              		.set	.LANCHOR0,. + 0
ARM GAS  /tmp/ccTQOGyd.s 			page 92


 5163              		.type	detect_tp, %object
 5164              		.size	detect_tp, 4
 5165              	detect_tp:
 5166 0000 00000000 		.space	4
 5167              		.section	.bss.detect_low_duty,"aw",%nobits
 5168              		.align	2
 5169              		.set	.LANCHOR3,. + 0
 5170              		.type	detect_low_duty, %object
 5171              		.size	detect_low_duty, 4
 5172              	detect_low_duty:
 5173 0000 00000000 		.space	4
 5174              		.section	.bss.mcconf.11418,"aw",%nobits
 5175              		.align	2
 5176              		.set	.LANCHOR15,. + 0
 5177              		.type	mcconf.11418, %object
 5178              		.size	mcconf.11418, 372
 5179              	mcconf.11418:
 5180 0000 00000000 		.space	372
 5180      00000000 
 5180      00000000 
 5180      00000000 
 5180      00000000 
 5181              		.section	.bss.detect_current,"aw",%nobits
 5182              		.align	2
 5183              		.set	.LANCHOR1,. + 0
 5184              		.type	detect_current, %object
 5185              		.size	detect_current, 4
 5186              	detect_current:
 5187 0000 00000000 		.space	4
 5188              		.section	.bss.detect_coupling_k,"aw",%nobits
 5189              		.align	2
 5190              		.set	.LANCHOR5,. + 0
 5191              		.type	detect_coupling_k, %object
 5192              		.size	detect_coupling_k, 4
 5193              	detect_coupling_k:
 5194 0000 00000000 		.space	4
 5195              		.section	.bss.send_func_last,"aw",%nobits
 5196              		.align	2
 5197              		.set	.LANCHOR9,. + 0
 5198              		.type	send_func_last, %object
 5199              		.size	send_func_last, 4
 5200              	send_func_last:
 5201 0000 00000000 		.space	4
 5202              		.section	.bss.detect_cycle_int_limit,"aw",%nobits
 5203              		.align	2
 5204              		.set	.LANCHOR4,. + 0
 5205              		.type	detect_cycle_int_limit, %object
 5206              		.size	detect_cycle_int_limit, 4
 5207              	detect_cycle_int_limit:
 5208 0000 00000000 		.space	4
 5209              		.section	.bss.display_position_mode,"aw",%nobits
 5210              		.set	.LANCHOR13,. + 0
 5211              		.type	display_position_mode, %object
 5212              		.size	display_position_mode, 1
 5213              	display_position_mode:
 5214 0000 00       		.space	1
 5215              		.text
ARM GAS  /tmp/ccTQOGyd.s 			page 93


 5216              	.Letext0:
 5217              		.file 4 "/usr/include/newlib/machine/_default_types.h"
 5218              		.file 5 "/usr/include/newlib/stdint.h"
 5219              		.file 6 "/usr/lib/gcc/arm-none-eabi/4.8/include/stddef.h"
 5220              		.file 7 "ChibiOS_3.0.2/os/rt/ports/ARMCMx/compilers/GCC/chtypes.h"
 5221              		.file 8 "ChibiOS_3.0.2/os/rt/include/chsystypes.h"
 5222              		.file 9 "ChibiOS_3.0.2/os/rt/include/chschd.h"
 5223              		.file 10 "ChibiOS_3.0.2/os/rt/ports/ARMCMx/chcore.h"
 5224              		.file 11 "ChibiOS_3.0.2/os/rt/ports/ARMCMx/chcore_v7m.h"
 5225              		.file 12 "ChibiOS_3.0.2/os/rt/include/chtm.h"
 5226              		.file 13 "ChibiOS_3.0.2/os/rt/include/chsem.h"
 5227              		.file 14 "ChibiOS_3.0.2/os/rt/include/chmtx.h"
 5228              		.file 15 "ChibiOS_3.0.2/os/rt/include/chthreads.h"
 5229              		.file 16 "datatypes.h"
 5230              		.file 17 "ChibiOS_3.0.2/ext/stdperiph_stm32f4/inc/stm32f4xx_flash.h"
 5231              		.file 18 "/usr/lib/gcc/arm-none-eabi/4.8/include/stdarg.h"
 5232              		.file 19 "<built-in>"
 5233              		.file 20 "ChibiOS_3.0.2/os/ext/CMSIS/include/core_cm4.h"
 5234              		.file 21 "mc_interface.h"
 5235              		.file 22 "ChibiOS_3.0.2/os/rt/include/chevents.h"
 5236              		.file 23 "./conf_general.h"
 5237              		.file 24 "buffer.h"
 5238              		.file 25 "/usr/include/newlib/stdio.h"
 5239              		.file 26 "mcpwm_foc.h"
 5240              		.file 27 "mcpwm.h"
 5241              		.file 28 "timeout.h"
 5242              		.file 29 "encoder.h"
 5243              		.file 30 "flash_helper.h"
 5244              		.file 31 "nrf/nrf_driver.h"
 5245              		.file 32 "applications/app.h"
 5246              		.file 33 "comm_can.h"
 5247              		.file 34 "servo_dec.h"
 5248              		.file 35 "terminal.h"
 5249              		.file 36 "utils.h"
 5250              		.file 37 "/usr/include/newlib/string.h"
 5251              		.section	.debug_info,"",%progbits
 5252              	.Ldebug_info0:
 5253 0000 A44D0000 		.4byte	0x4da4
 5254 0004 0400     		.2byte	0x4
 5255 0006 00000000 		.4byte	.Ldebug_abbrev0
 5256 000a 04       		.byte	0x4
 5257 000b 01       		.uleb128 0x1
 5258 000c 9D0E0000 		.4byte	.LASF590
 5259 0010 01       		.byte	0x1
 5260 0011 26110000 		.4byte	.LASF591
 5261 0015 421B0000 		.4byte	.LASF592
 5262 0019 88020000 		.4byte	.Ldebug_ranges0+0x288
 5263 001d 00000000 		.4byte	0
 5264 0021 00000000 		.4byte	.Ldebug_line0
 5265 0025 02       		.uleb128 0x2
 5266 0026 04       		.byte	0x4
 5267 0027 04       		.byte	0x4
 5268 0028 CD070000 		.4byte	.LASF0
 5269 002c 03       		.uleb128 0x3
 5270 002d 04       		.byte	0x4
 5271 002e 05       		.byte	0x5
 5272 002f 696E7400 		.ascii	"int\000"
ARM GAS  /tmp/ccTQOGyd.s 			page 94


 5273 0033 04       		.uleb128 0x4
 5274 0034 47260000 		.4byte	.LASF2
 5275 0038 04       		.byte	0x4
 5276 0039 1B       		.byte	0x1b
 5277 003a 3E000000 		.4byte	0x3e
 5278 003e 02       		.uleb128 0x2
 5279 003f 01       		.byte	0x1
 5280 0040 06       		.byte	0x6
 5281 0041 E4130000 		.4byte	.LASF1
 5282 0045 04       		.uleb128 0x4
 5283 0046 47010000 		.4byte	.LASF3
 5284 004a 04       		.byte	0x4
 5285 004b 1D       		.byte	0x1d
 5286 004c 50000000 		.4byte	0x50
 5287 0050 02       		.uleb128 0x2
 5288 0051 01       		.byte	0x1
 5289 0052 08       		.byte	0x8
 5290 0053 93070000 		.4byte	.LASF4
 5291 0057 04       		.uleb128 0x4
 5292 0058 81060000 		.4byte	.LASF5
 5293 005c 04       		.byte	0x4
 5294 005d 29       		.byte	0x29
 5295 005e 62000000 		.4byte	0x62
 5296 0062 02       		.uleb128 0x2
 5297 0063 02       		.byte	0x2
 5298 0064 05       		.byte	0x5
 5299 0065 31270000 		.4byte	.LASF6
 5300 0069 04       		.uleb128 0x4
 5301 006a 8B060000 		.4byte	.LASF7
 5302 006e 04       		.byte	0x4
 5303 006f 2B       		.byte	0x2b
 5304 0070 74000000 		.4byte	0x74
 5305 0074 02       		.uleb128 0x2
 5306 0075 02       		.byte	0x2
 5307 0076 07       		.byte	0x7
 5308 0077 D1130000 		.4byte	.LASF8
 5309 007b 04       		.uleb128 0x4
 5310 007c 061F0000 		.4byte	.LASF9
 5311 0080 04       		.byte	0x4
 5312 0081 3F       		.byte	0x3f
 5313 0082 86000000 		.4byte	0x86
 5314 0086 02       		.uleb128 0x2
 5315 0087 04       		.byte	0x4
 5316 0088 05       		.byte	0x5
 5317 0089 9E160000 		.4byte	.LASF10
 5318 008d 04       		.uleb128 0x4
 5319 008e 1E1F0000 		.4byte	.LASF11
 5320 0092 04       		.byte	0x4
 5321 0093 41       		.byte	0x41
 5322 0094 98000000 		.4byte	0x98
 5323 0098 02       		.uleb128 0x2
 5324 0099 04       		.byte	0x4
 5325 009a 07       		.byte	0x7
 5326 009b 66180000 		.4byte	.LASF12
 5327 009f 02       		.uleb128 0x2
 5328 00a0 08       		.byte	0x8
 5329 00a1 05       		.byte	0x5
ARM GAS  /tmp/ccTQOGyd.s 			page 95


 5330 00a2 7A240000 		.4byte	.LASF13
 5331 00a6 04       		.uleb128 0x4
 5332 00a7 37100000 		.4byte	.LASF14
 5333 00ab 04       		.byte	0x4
 5334 00ac 5B       		.byte	0x5b
 5335 00ad B1000000 		.4byte	0xb1
 5336 00b1 02       		.uleb128 0x2
 5337 00b2 08       		.byte	0x8
 5338 00b3 07       		.byte	0x7
 5339 00b4 43210000 		.4byte	.LASF15
 5340 00b8 02       		.uleb128 0x2
 5341 00b9 04       		.byte	0x4
 5342 00ba 07       		.byte	0x7
 5343 00bb F1260000 		.4byte	.LASF16
 5344 00bf 04       		.uleb128 0x4
 5345 00c0 E4120000 		.4byte	.LASF17
 5346 00c4 05       		.byte	0x5
 5347 00c5 29       		.byte	0x29
 5348 00c6 33000000 		.4byte	0x33
 5349 00ca 04       		.uleb128 0x4
 5350 00cb 250C0000 		.4byte	.LASF18
 5351 00cf 05       		.byte	0x5
 5352 00d0 2A       		.byte	0x2a
 5353 00d1 45000000 		.4byte	0x45
 5354 00d5 04       		.uleb128 0x4
 5355 00d6 C9130000 		.4byte	.LASF19
 5356 00da 05       		.byte	0x5
 5357 00db 35       		.byte	0x35
 5358 00dc 57000000 		.4byte	0x57
 5359 00e0 04       		.uleb128 0x4
 5360 00e1 EE010000 		.4byte	.LASF20
 5361 00e5 05       		.byte	0x5
 5362 00e6 36       		.byte	0x36
 5363 00e7 69000000 		.4byte	0x69
 5364 00eb 04       		.uleb128 0x4
 5365 00ec 8E030000 		.4byte	.LASF21
 5366 00f0 05       		.byte	0x5
 5367 00f1 41       		.byte	0x41
 5368 00f2 7B000000 		.4byte	0x7b
 5369 00f6 04       		.uleb128 0x4
 5370 00f7 94170000 		.4byte	.LASF22
 5371 00fb 05       		.byte	0x5
 5372 00fc 42       		.byte	0x42
 5373 00fd 8D000000 		.4byte	0x8d
 5374 0101 04       		.uleb128 0x4
 5375 0102 2F090000 		.4byte	.LASF23
 5376 0106 05       		.byte	0x5
 5377 0107 4E       		.byte	0x4e
 5378 0108 A6000000 		.4byte	0xa6
 5379 010c 04       		.uleb128 0x4
 5380 010d D80B0000 		.4byte	.LASF24
 5381 0111 06       		.byte	0x6
 5382 0112 D4       		.byte	0xd4
 5383 0113 B8000000 		.4byte	0xb8
 5384 0117 05       		.uleb128 0x5
 5385 0118 EB000000 		.4byte	0xeb
 5386 011c 04       		.uleb128 0x4
ARM GAS  /tmp/ccTQOGyd.s 			page 96


 5387 011d EC0A0000 		.4byte	.LASF25
 5388 0121 07       		.byte	0x7
 5389 0122 45       		.byte	0x45
 5390 0123 F6000000 		.4byte	0xf6
 5391 0127 04       		.uleb128 0x4
 5392 0128 D4110000 		.4byte	.LASF26
 5393 012c 07       		.byte	0x7
 5394 012d 48       		.byte	0x48
 5395 012e CA000000 		.4byte	0xca
 5396 0132 04       		.uleb128 0x4
 5397 0133 73220000 		.4byte	.LASF27
 5398 0137 07       		.byte	0x7
 5399 0138 49       		.byte	0x49
 5400 0139 CA000000 		.4byte	0xca
 5401 013d 04       		.uleb128 0x4
 5402 013e 1E110000 		.4byte	.LASF28
 5403 0142 07       		.byte	0x7
 5404 0143 4A       		.byte	0x4a
 5405 0144 CA000000 		.4byte	0xca
 5406 0148 04       		.uleb128 0x4
 5407 0149 72130000 		.4byte	.LASF29
 5408 014d 07       		.byte	0x7
 5409 014e 4B       		.byte	0x4b
 5410 014f CA000000 		.4byte	0xca
 5411 0153 04       		.uleb128 0x4
 5412 0154 CD050000 		.4byte	.LASF30
 5413 0158 07       		.byte	0x7
 5414 0159 4C       		.byte	0x4c
 5415 015a F6000000 		.4byte	0xf6
 5416 015e 04       		.uleb128 0x4
 5417 015f 92000000 		.4byte	.LASF31
 5418 0163 07       		.byte	0x7
 5419 0164 4D       		.byte	0x4d
 5420 0165 EB000000 		.4byte	0xeb
 5421 0169 04       		.uleb128 0x4
 5422 016a 0F180000 		.4byte	.LASF32
 5423 016e 07       		.byte	0x7
 5424 016f 4F       		.byte	0x4f
 5425 0170 F6000000 		.4byte	0xf6
 5426 0174 04       		.uleb128 0x4
 5427 0175 3C1B0000 		.4byte	.LASF33
 5428 0179 07       		.byte	0x7
 5429 017a 51       		.byte	0x51
 5430 017b EB000000 		.4byte	0xeb
 5431 017f 04       		.uleb128 0x4
 5432 0180 96030000 		.4byte	.LASF34
 5433 0184 08       		.byte	0x8
 5434 0185 33       		.byte	0x33
 5435 0186 F6000000 		.4byte	0xf6
 5436 018a 04       		.uleb128 0x4
 5437 018b 6E030000 		.4byte	.LASF35
 5438 018f 08       		.byte	0x8
 5439 0190 3F       		.byte	0x3f
 5440 0191 95010000 		.4byte	0x195
 5441 0195 06       		.uleb128 0x6
 5442 0196 C3070000 		.4byte	.LASF57
 5443 019a 48       		.byte	0x48
ARM GAS  /tmp/ccTQOGyd.s 			page 97


 5444 019b 09       		.byte	0x9
 5445 019c C2       		.byte	0xc2
 5446 019d 9A020000 		.4byte	0x29a
 5447 01a1 07       		.uleb128 0x7
 5448 01a2 BA100000 		.4byte	.LASF36
 5449 01a6 09       		.byte	0x9
 5450 01a7 C3       		.byte	0xc3
 5451 01a8 A5020000 		.4byte	0x2a5
 5452 01ac 00       		.byte	0
 5453 01ad 07       		.uleb128 0x7
 5454 01ae 450C0000 		.4byte	.LASF37
 5455 01b2 09       		.byte	0x9
 5456 01b3 C5       		.byte	0xc5
 5457 01b4 A5020000 		.4byte	0x2a5
 5458 01b8 04       		.byte	0x4
 5459 01b9 07       		.uleb128 0x7
 5460 01ba 19100000 		.4byte	.LASF38
 5461 01be 09       		.byte	0x9
 5462 01bf C7       		.byte	0xc7
 5463 01c0 53010000 		.4byte	0x153
 5464 01c4 08       		.byte	0x8
 5465 01c5 07       		.uleb128 0x7
 5466 01c6 94080000 		.4byte	.LASF39
 5467 01ca 09       		.byte	0x9
 5468 01cb C8       		.byte	0xc8
 5469 01cc D5040000 		.4byte	0x4d5
 5470 01d0 0C       		.byte	0xc
 5471 01d1 07       		.uleb128 0x7
 5472 01d2 AC020000 		.4byte	.LASF40
 5473 01d6 09       		.byte	0x9
 5474 01d7 CA       		.byte	0xca
 5475 01d8 A5020000 		.4byte	0x2a5
 5476 01dc 10       		.byte	0x10
 5477 01dd 07       		.uleb128 0x7
 5478 01de BF250000 		.4byte	.LASF41
 5479 01e2 09       		.byte	0x9
 5480 01e3 CB       		.byte	0xcb
 5481 01e4 A5020000 		.4byte	0x2a5
 5482 01e8 14       		.byte	0x14
 5483 01e9 07       		.uleb128 0x7
 5484 01ea CA220000 		.4byte	.LASF42
 5485 01ee 09       		.byte	0x9
 5486 01ef D2       		.byte	0xd2
 5487 01f0 1A070000 		.4byte	0x71a
 5488 01f4 18       		.byte	0x18
 5489 01f5 07       		.uleb128 0x7
 5490 01f6 A0270000 		.4byte	.LASF43
 5491 01fa 09       		.byte	0x9
 5492 01fb DD       		.byte	0xdd
 5493 01fc 32010000 		.4byte	0x132
 5494 0200 1C       		.byte	0x1c
 5495 0201 07       		.uleb128 0x7
 5496 0202 E9210000 		.4byte	.LASF44
 5497 0206 09       		.byte	0x9
 5498 0207 E1       		.byte	0xe1
 5499 0208 27010000 		.4byte	0x127
 5500 020c 1D       		.byte	0x1d
ARM GAS  /tmp/ccTQOGyd.s 			page 98


 5501 020d 07       		.uleb128 0x7
 5502 020e 5D160000 		.4byte	.LASF45
 5503 0212 09       		.byte	0x9
 5504 0213 E6       		.byte	0xe6
 5505 0214 3D010000 		.4byte	0x13d
 5506 0218 1E       		.byte	0x1e
 5507 0219 07       		.uleb128 0x7
 5508 021a 1C140000 		.4byte	.LASF46
 5509 021e 09       		.byte	0x9
 5510 021f EC       		.byte	0xec
 5511 0220 48010000 		.4byte	0x148
 5512 0224 1F       		.byte	0x1f
 5513 0225 07       		.uleb128 0x7
 5514 0226 31140000 		.4byte	.LASF47
 5515 022a 09       		.byte	0x9
 5516 022b F3       		.byte	0xf3
 5517 022c 2C070000 		.4byte	0x72c
 5518 0230 20       		.byte	0x20
 5519 0231 08       		.uleb128 0x8
 5520 0232 705F7500 		.ascii	"p_u\000"
 5521 0236 09       		.byte	0x9
 5522 0237 3101     		.2byte	0x131
 5523 0239 55060000 		.4byte	0x655
 5524 023d 24       		.byte	0x24
 5525 023e 09       		.uleb128 0x9
 5526 023f A5040000 		.4byte	.LASF48
 5527 0243 09       		.byte	0x9
 5528 0244 3601     		.2byte	0x136
 5529 0246 AB020000 		.4byte	0x2ab
 5530 024a 28       		.byte	0x28
 5531 024b 09       		.uleb128 0x9
 5532 024c EB140000 		.4byte	.LASF49
 5533 0250 09       		.byte	0x9
 5534 0251 3C01     		.2byte	0x13c
 5535 0253 CF020000 		.4byte	0x2cf
 5536 0257 2C       		.byte	0x2c
 5537 0258 09       		.uleb128 0x9
 5538 0259 B3060000 		.4byte	.LASF50
 5539 025d 09       		.byte	0x9
 5540 025e 4001     		.2byte	0x140
 5541 0260 5E010000 		.4byte	0x15e
 5542 0264 34       		.byte	0x34
 5543 0265 09       		.uleb128 0x9
 5544 0266 11200000 		.4byte	.LASF51
 5545 026a 09       		.byte	0x9
 5546 026b 4601     		.2byte	0x146
 5547 026d 69010000 		.4byte	0x169
 5548 0271 38       		.byte	0x38
 5549 0272 09       		.uleb128 0x9
 5550 0273 55220000 		.4byte	.LASF52
 5551 0277 09       		.byte	0x9
 5552 0278 4D01     		.2byte	0x14d
 5553 027a 14070000 		.4byte	0x714
 5554 027e 3C       		.byte	0x3c
 5555 027f 09       		.uleb128 0x9
 5556 0280 E01D0000 		.4byte	.LASF53
 5557 0284 09       		.byte	0x9
ARM GAS  /tmp/ccTQOGyd.s 			page 99


 5558 0285 5101     		.2byte	0x151
 5559 0287 53010000 		.4byte	0x153
 5560 028b 40       		.byte	0x40
 5561 028c 09       		.uleb128 0x9
 5562 028d 31110000 		.4byte	.LASF54
 5563 0291 09       		.byte	0x9
 5564 0292 5801     		.2byte	0x158
 5565 0294 82030000 		.4byte	0x382
 5566 0298 44       		.byte	0x44
 5567 0299 00       		.byte	0
 5568 029a 04       		.uleb128 0x4
 5569 029b F2250000 		.4byte	.LASF55
 5570 029f 08       		.byte	0x8
 5571 02a0 44       		.byte	0x44
 5572 02a1 A5020000 		.4byte	0x2a5
 5573 02a5 0A       		.uleb128 0xa
 5574 02a6 04       		.byte	0x4
 5575 02a7 8A010000 		.4byte	0x18a
 5576 02ab 04       		.uleb128 0x4
 5577 02ac D2040000 		.4byte	.LASF56
 5578 02b0 08       		.byte	0x8
 5579 02b1 49       		.byte	0x49
 5580 02b2 B6020000 		.4byte	0x2b6
 5581 02b6 06       		.uleb128 0x6
 5582 02b7 A8270000 		.4byte	.LASF58
 5583 02bb 04       		.byte	0x4
 5584 02bc 09       		.byte	0x9
 5585 02bd B0       		.byte	0xb0
 5586 02be CF020000 		.4byte	0x2cf
 5587 02c2 07       		.uleb128 0x7
 5588 02c3 BA100000 		.4byte	.LASF36
 5589 02c7 09       		.byte	0x9
 5590 02c8 B1       		.byte	0xb1
 5591 02c9 A5020000 		.4byte	0x2a5
 5592 02cd 00       		.byte	0
 5593 02ce 00       		.byte	0
 5594 02cf 04       		.uleb128 0x4
 5595 02d0 09160000 		.4byte	.LASF59
 5596 02d4 08       		.byte	0x8
 5597 02d5 50       		.byte	0x50
 5598 02d6 DA020000 		.4byte	0x2da
 5599 02da 06       		.uleb128 0x6
 5600 02db 6F020000 		.4byte	.LASF60
 5601 02df 08       		.byte	0x8
 5602 02e0 09       		.byte	0x9
 5603 02e1 B7       		.byte	0xb7
 5604 02e2 FF020000 		.4byte	0x2ff
 5605 02e6 07       		.uleb128 0x7
 5606 02e7 BA100000 		.4byte	.LASF36
 5607 02eb 09       		.byte	0x9
 5608 02ec B8       		.byte	0xb8
 5609 02ed A5020000 		.4byte	0x2a5
 5610 02f1 00       		.byte	0
 5611 02f2 07       		.uleb128 0x7
 5612 02f3 450C0000 		.4byte	.LASF37
 5613 02f7 09       		.byte	0x9
 5614 02f8 B9       		.byte	0xb9
ARM GAS  /tmp/ccTQOGyd.s 			page 100


 5615 02f9 A5020000 		.4byte	0x2a5
 5616 02fd 04       		.byte	0x4
 5617 02fe 00       		.byte	0
 5618 02ff 04       		.uleb128 0x4
 5619 0300 B6070000 		.4byte	.LASF61
 5620 0304 08       		.byte	0x8
 5621 0305 57       		.byte	0x57
 5622 0306 0A030000 		.4byte	0x30a
 5623 030a 0B       		.uleb128 0xb
 5624 030b F81E0000 		.4byte	.LASF62
 5625 030f 1C       		.byte	0x1c
 5626 0310 09       		.byte	0x9
 5627 0311 9001     		.2byte	0x190
 5628 0313 66030000 		.4byte	0x366
 5629 0317 09       		.uleb128 0x9
 5630 0318 91190000 		.4byte	.LASF63
 5631 031c 09       		.byte	0x9
 5632 031d 9101     		.2byte	0x191
 5633 031f CF020000 		.4byte	0x2cf
 5634 0323 00       		.byte	0
 5635 0324 09       		.uleb128 0x9
 5636 0325 0A210000 		.4byte	.LASF64
 5637 0329 09       		.byte	0x9
 5638 032a 9201     		.2byte	0x192
 5639 032c 53010000 		.4byte	0x153
 5640 0330 08       		.byte	0x8
 5641 0331 09       		.uleb128 0x9
 5642 0332 B30A0000 		.4byte	.LASF65
 5643 0336 09       		.byte	0x9
 5644 0337 9401     		.2byte	0x194
 5645 0339 D5040000 		.4byte	0x4d5
 5646 033d 0C       		.byte	0xc
 5647 033e 09       		.uleb128 0x9
 5648 033f 1E130000 		.4byte	.LASF66
 5649 0343 09       		.byte	0x9
 5650 0344 9701     		.2byte	0x197
 5651 0346 A5020000 		.4byte	0x2a5
 5652 034a 10       		.byte	0x10
 5653 034b 09       		.uleb128 0x9
 5654 034c 3D0C0000 		.4byte	.LASF67
 5655 0350 09       		.byte	0x9
 5656 0351 9801     		.2byte	0x198
 5657 0353 A5020000 		.4byte	0x2a5
 5658 0357 14       		.byte	0x14
 5659 0358 09       		.uleb128 0x9
 5660 0359 B0080000 		.4byte	.LASF68
 5661 035d 09       		.byte	0x9
 5662 035e 9B01     		.2byte	0x19b
 5663 0360 A5020000 		.4byte	0x2a5
 5664 0364 18       		.byte	0x18
 5665 0365 00       		.byte	0
 5666 0366 04       		.uleb128 0x4
 5667 0367 781D0000 		.4byte	.LASF69
 5668 036b 08       		.byte	0x8
 5669 036c 5C       		.byte	0x5c
 5670 036d 71030000 		.4byte	0x371
 5671 0371 0A       		.uleb128 0xa
ARM GAS  /tmp/ccTQOGyd.s 			page 101


 5672 0372 04       		.byte	0x4
 5673 0373 77030000 		.4byte	0x377
 5674 0377 0C       		.uleb128 0xc
 5675 0378 82030000 		.4byte	0x382
 5676 037c 0D       		.uleb128 0xd
 5677 037d 82030000 		.4byte	0x382
 5678 0381 00       		.byte	0
 5679 0382 0E       		.uleb128 0xe
 5680 0383 04       		.byte	0x4
 5681 0384 04       		.uleb128 0x4
 5682 0385 A30A0000 		.4byte	.LASF70
 5683 0389 08       		.byte	0x8
 5684 038a 61       		.byte	0x61
 5685 038b 8F030000 		.4byte	0x38f
 5686 038f 0B       		.uleb128 0xb
 5687 0390 D8210000 		.4byte	.LASF71
 5688 0394 14       		.byte	0x14
 5689 0395 09       		.byte	0x9
 5690 0396 6B01     		.2byte	0x16b
 5691 0398 DE030000 		.4byte	0x3de
 5692 039c 09       		.uleb128 0x9
 5693 039d B90A0000 		.4byte	.LASF72
 5694 03a1 09       		.byte	0x9
 5695 03a2 6C01     		.2byte	0x16c
 5696 03a4 31070000 		.4byte	0x731
 5697 03a8 00       		.byte	0
 5698 03a9 09       		.uleb128 0x9
 5699 03aa 79070000 		.4byte	.LASF73
 5700 03ae 09       		.byte	0x9
 5701 03af 6D01     		.2byte	0x16d
 5702 03b1 31070000 		.4byte	0x731
 5703 03b5 04       		.byte	0x4
 5704 03b6 09       		.uleb128 0x9
 5705 03b7 B7130000 		.4byte	.LASF74
 5706 03bb 09       		.byte	0x9
 5707 03bc 6E01     		.2byte	0x16e
 5708 03be 7F010000 		.4byte	0x17f
 5709 03c2 08       		.byte	0x8
 5710 03c3 09       		.uleb128 0x9
 5711 03c4 9A210000 		.4byte	.LASF75
 5712 03c8 09       		.byte	0x9
 5713 03c9 6F01     		.2byte	0x16f
 5714 03cb 66030000 		.4byte	0x366
 5715 03cf 0C       		.byte	0xc
 5716 03d0 09       		.uleb128 0x9
 5717 03d1 9A080000 		.4byte	.LASF76
 5718 03d5 09       		.byte	0x9
 5719 03d6 7101     		.2byte	0x171
 5720 03d8 82030000 		.4byte	0x382
 5721 03dc 10       		.byte	0x10
 5722 03dd 00       		.byte	0
 5723 03de 04       		.uleb128 0x4
 5724 03df 4F230000 		.4byte	.LASF77
 5725 03e3 08       		.byte	0x8
 5726 03e4 66       		.byte	0x66
 5727 03e5 E9030000 		.4byte	0x3e9
 5728 03e9 0B       		.uleb128 0xb
ARM GAS  /tmp/ccTQOGyd.s 			page 102


 5729 03ea 77030000 		.4byte	.LASF78
 5730 03ee 10       		.byte	0x10
 5731 03ef 09       		.byte	0x9
 5732 03f0 7B01     		.2byte	0x17b
 5733 03f2 2B040000 		.4byte	0x42b
 5734 03f6 09       		.uleb128 0x9
 5735 03f7 B90A0000 		.4byte	.LASF72
 5736 03fb 09       		.byte	0x9
 5737 03fc 7C01     		.2byte	0x17c
 5738 03fe 31070000 		.4byte	0x731
 5739 0402 00       		.byte	0
 5740 0403 09       		.uleb128 0x9
 5741 0404 79070000 		.4byte	.LASF73
 5742 0408 09       		.byte	0x9
 5743 0409 7E01     		.2byte	0x17e
 5744 040b 31070000 		.4byte	0x731
 5745 040f 04       		.byte	0x4
 5746 0410 09       		.uleb128 0x9
 5747 0411 B7130000 		.4byte	.LASF74
 5748 0415 09       		.byte	0x9
 5749 0416 8001     		.2byte	0x180
 5750 0418 7F010000 		.4byte	0x17f
 5751 041c 08       		.byte	0x8
 5752 041d 09       		.uleb128 0x9
 5753 041e 84010000 		.4byte	.LASF79
 5754 0422 09       		.byte	0x9
 5755 0423 8201     		.2byte	0x182
 5756 0425 2C070000 		.4byte	0x72c
 5757 0429 0C       		.byte	0xc
 5758 042a 00       		.byte	0
 5759 042b 04       		.uleb128 0x4
 5760 042c 2A080000 		.4byte	.LASF80
 5761 0430 08       		.byte	0x8
 5762 0431 6B       		.byte	0x6b
 5763 0432 36040000 		.4byte	0x436
 5764 0436 0B       		.uleb128 0xb
 5765 0437 291F0000 		.4byte	.LASF81
 5766 043b 04       		.byte	0x4
 5767 043c 09       		.byte	0x9
 5768 043d A201     		.2byte	0x1a2
 5769 043f 51040000 		.4byte	0x451
 5770 0443 09       		.uleb128 0x9
 5771 0444 FE120000 		.4byte	.LASF82
 5772 0448 09       		.byte	0x9
 5773 0449 AA01     		.2byte	0x1aa
 5774 044b 37070000 		.4byte	0x737
 5775 044f 00       		.byte	0
 5776 0450 00       		.byte	0
 5777 0451 04       		.uleb128 0x4
 5778 0452 3B010000 		.4byte	.LASF83
 5779 0456 08       		.byte	0x8
 5780 0457 70       		.byte	0x70
 5781 0458 5C040000 		.4byte	0x45c
 5782 045c 0F       		.uleb128 0xf
 5783 045d 7D150000 		.4byte	.LASF84
 5784 0461 5802     		.2byte	0x258
 5785 0463 09       		.byte	0x9
ARM GAS  /tmp/ccTQOGyd.s 			page 103


 5786 0464 C201     		.2byte	0x1c2
 5787 0466 B8040000 		.4byte	0x4b8
 5788 046a 09       		.uleb128 0x9
 5789 046b CC040000 		.4byte	.LASF85
 5790 046f 09       		.byte	0x9
 5791 0470 C601     		.2byte	0x1c6
 5792 0472 FF020000 		.4byte	0x2ff
 5793 0476 00       		.byte	0
 5794 0477 09       		.uleb128 0x9
 5795 0478 96040000 		.4byte	.LASF86
 5796 047c 09       		.byte	0x9
 5797 047d CA01     		.2byte	0x1ca
 5798 047f DE030000 		.4byte	0x3de
 5799 0483 1C       		.byte	0x1c
 5800 0484 08       		.uleb128 0x8
 5801 0485 64626700 		.ascii	"dbg\000"
 5802 0489 09       		.byte	0x9
 5803 048a CE01     		.2byte	0x1ce
 5804 048c 2B040000 		.4byte	0x42b
 5805 0490 2C       		.byte	0x2c
 5806 0491 09       		.uleb128 0x9
 5807 0492 A7160000 		.4byte	.LASF87
 5808 0496 09       		.byte	0x9
 5809 0497 D201     		.2byte	0x1d2
 5810 0499 8A010000 		.4byte	0x18a
 5811 049d 30       		.byte	0x30
 5812 049e 08       		.uleb128 0x8
 5813 049f 746D00   		.ascii	"tm\000"
 5814 04a2 09       		.byte	0x9
 5815 04a3 D701     		.2byte	0x1d7
 5816 04a5 4A060000 		.4byte	0x64a
 5817 04a9 78       		.byte	0x78
 5818 04aa 09       		.uleb128 0x9
 5819 04ab 8B210000 		.4byte	.LASF88
 5820 04af 09       		.byte	0x9
 5821 04b0 E301     		.2byte	0x1e3
 5822 04b2 3C070000 		.4byte	0x73c
 5823 04b6 80       		.byte	0x80
 5824 04b7 00       		.byte	0
 5825 04b8 02       		.uleb128 0x2
 5826 04b9 04       		.byte	0x4
 5827 04ba 07       		.byte	0x7
 5828 04bb C0130000 		.4byte	.LASF89
 5829 04bf 04       		.uleb128 0x4
 5830 04c0 06180000 		.4byte	.LASF90
 5831 04c4 0A       		.byte	0xa
 5832 04c5 65       		.byte	0x65
 5833 04c6 82030000 		.4byte	0x382
 5834 04ca 04       		.uleb128 0x4
 5835 04cb 6E070000 		.4byte	.LASF91
 5836 04cf 0A       		.byte	0xa
 5837 04d0 6D       		.byte	0x6d
 5838 04d1 01010000 		.4byte	0x101
 5839 04d5 06       		.uleb128 0x6
 5840 04d6 22170000 		.4byte	.LASF92
 5841 04da 04       		.byte	0x4
 5842 04db 0A       		.byte	0xa
ARM GAS  /tmp/ccTQOGyd.s 			page 104


 5843 04dc 89       		.byte	0x89
 5844 04dd EE040000 		.4byte	0x4ee
 5845 04e1 10       		.uleb128 0x10
 5846 04e2 72313300 		.ascii	"r13\000"
 5847 04e6 0A       		.byte	0xa
 5848 04e7 8A       		.byte	0x8a
 5849 04e8 2F060000 		.4byte	0x62f
 5850 04ec 00       		.byte	0
 5851 04ed 00       		.byte	0
 5852 04ee 06       		.uleb128 0x6
 5853 04ef 17000000 		.4byte	.LASF93
 5854 04f3 64       		.byte	0x64
 5855 04f4 0B       		.byte	0xb
 5856 04f5 F4       		.byte	0xf4
 5857 04f6 2F060000 		.4byte	0x62f
 5858 04fa 10       		.uleb128 0x10
 5859 04fb 73313600 		.ascii	"s16\000"
 5860 04ff 0B       		.byte	0xb
 5861 0500 F6       		.byte	0xf6
 5862 0501 BF040000 		.4byte	0x4bf
 5863 0505 00       		.byte	0
 5864 0506 10       		.uleb128 0x10
 5865 0507 73313700 		.ascii	"s17\000"
 5866 050b 0B       		.byte	0xb
 5867 050c F7       		.byte	0xf7
 5868 050d BF040000 		.4byte	0x4bf
 5869 0511 04       		.byte	0x4
 5870 0512 10       		.uleb128 0x10
 5871 0513 73313800 		.ascii	"s18\000"
 5872 0517 0B       		.byte	0xb
 5873 0518 F8       		.byte	0xf8
 5874 0519 BF040000 		.4byte	0x4bf
 5875 051d 08       		.byte	0x8
 5876 051e 10       		.uleb128 0x10
 5877 051f 73313900 		.ascii	"s19\000"
 5878 0523 0B       		.byte	0xb
 5879 0524 F9       		.byte	0xf9
 5880 0525 BF040000 		.4byte	0x4bf
 5881 0529 0C       		.byte	0xc
 5882 052a 10       		.uleb128 0x10
 5883 052b 73323000 		.ascii	"s20\000"
 5884 052f 0B       		.byte	0xb
 5885 0530 FA       		.byte	0xfa
 5886 0531 BF040000 		.4byte	0x4bf
 5887 0535 10       		.byte	0x10
 5888 0536 10       		.uleb128 0x10
 5889 0537 73323100 		.ascii	"s21\000"
 5890 053b 0B       		.byte	0xb
 5891 053c FB       		.byte	0xfb
 5892 053d BF040000 		.4byte	0x4bf
 5893 0541 14       		.byte	0x14
 5894 0542 10       		.uleb128 0x10
 5895 0543 73323200 		.ascii	"s22\000"
 5896 0547 0B       		.byte	0xb
 5897 0548 FC       		.byte	0xfc
 5898 0549 BF040000 		.4byte	0x4bf
 5899 054d 18       		.byte	0x18
ARM GAS  /tmp/ccTQOGyd.s 			page 105


 5900 054e 10       		.uleb128 0x10
 5901 054f 73323300 		.ascii	"s23\000"
 5902 0553 0B       		.byte	0xb
 5903 0554 FD       		.byte	0xfd
 5904 0555 BF040000 		.4byte	0x4bf
 5905 0559 1C       		.byte	0x1c
 5906 055a 10       		.uleb128 0x10
 5907 055b 73323400 		.ascii	"s24\000"
 5908 055f 0B       		.byte	0xb
 5909 0560 FE       		.byte	0xfe
 5910 0561 BF040000 		.4byte	0x4bf
 5911 0565 20       		.byte	0x20
 5912 0566 10       		.uleb128 0x10
 5913 0567 73323500 		.ascii	"s25\000"
 5914 056b 0B       		.byte	0xb
 5915 056c FF       		.byte	0xff
 5916 056d BF040000 		.4byte	0x4bf
 5917 0571 24       		.byte	0x24
 5918 0572 08       		.uleb128 0x8
 5919 0573 73323600 		.ascii	"s26\000"
 5920 0577 0B       		.byte	0xb
 5921 0578 0001     		.2byte	0x100
 5922 057a BF040000 		.4byte	0x4bf
 5923 057e 28       		.byte	0x28
 5924 057f 08       		.uleb128 0x8
 5925 0580 73323700 		.ascii	"s27\000"
 5926 0584 0B       		.byte	0xb
 5927 0585 0101     		.2byte	0x101
 5928 0587 BF040000 		.4byte	0x4bf
 5929 058b 2C       		.byte	0x2c
 5930 058c 08       		.uleb128 0x8
 5931 058d 73323800 		.ascii	"s28\000"
 5932 0591 0B       		.byte	0xb
 5933 0592 0201     		.2byte	0x102
 5934 0594 BF040000 		.4byte	0x4bf
 5935 0598 30       		.byte	0x30
 5936 0599 08       		.uleb128 0x8
 5937 059a 73323900 		.ascii	"s29\000"
 5938 059e 0B       		.byte	0xb
 5939 059f 0301     		.2byte	0x103
 5940 05a1 BF040000 		.4byte	0x4bf
 5941 05a5 34       		.byte	0x34
 5942 05a6 08       		.uleb128 0x8
 5943 05a7 73333000 		.ascii	"s30\000"
 5944 05ab 0B       		.byte	0xb
 5945 05ac 0401     		.2byte	0x104
 5946 05ae BF040000 		.4byte	0x4bf
 5947 05b2 38       		.byte	0x38
 5948 05b3 08       		.uleb128 0x8
 5949 05b4 73333100 		.ascii	"s31\000"
 5950 05b8 0B       		.byte	0xb
 5951 05b9 0501     		.2byte	0x105
 5952 05bb BF040000 		.4byte	0x4bf
 5953 05bf 3C       		.byte	0x3c
 5954 05c0 08       		.uleb128 0x8
 5955 05c1 723400   		.ascii	"r4\000"
 5956 05c4 0B       		.byte	0xb
ARM GAS  /tmp/ccTQOGyd.s 			page 106


 5957 05c5 0701     		.2byte	0x107
 5958 05c7 BF040000 		.4byte	0x4bf
 5959 05cb 40       		.byte	0x40
 5960 05cc 08       		.uleb128 0x8
 5961 05cd 723500   		.ascii	"r5\000"
 5962 05d0 0B       		.byte	0xb
 5963 05d1 0801     		.2byte	0x108
 5964 05d3 BF040000 		.4byte	0x4bf
 5965 05d7 44       		.byte	0x44
 5966 05d8 08       		.uleb128 0x8
 5967 05d9 723600   		.ascii	"r6\000"
 5968 05dc 0B       		.byte	0xb
 5969 05dd 0901     		.2byte	0x109
 5970 05df BF040000 		.4byte	0x4bf
 5971 05e3 48       		.byte	0x48
 5972 05e4 08       		.uleb128 0x8
 5973 05e5 723700   		.ascii	"r7\000"
 5974 05e8 0B       		.byte	0xb
 5975 05e9 0A01     		.2byte	0x10a
 5976 05eb BF040000 		.4byte	0x4bf
 5977 05ef 4C       		.byte	0x4c
 5978 05f0 08       		.uleb128 0x8
 5979 05f1 723800   		.ascii	"r8\000"
 5980 05f4 0B       		.byte	0xb
 5981 05f5 0B01     		.2byte	0x10b
 5982 05f7 BF040000 		.4byte	0x4bf
 5983 05fb 50       		.byte	0x50
 5984 05fc 08       		.uleb128 0x8
 5985 05fd 723900   		.ascii	"r9\000"
 5986 0600 0B       		.byte	0xb
 5987 0601 0C01     		.2byte	0x10c
 5988 0603 BF040000 		.4byte	0x4bf
 5989 0607 54       		.byte	0x54
 5990 0608 08       		.uleb128 0x8
 5991 0609 72313000 		.ascii	"r10\000"
 5992 060d 0B       		.byte	0xb
 5993 060e 0D01     		.2byte	0x10d
 5994 0610 BF040000 		.4byte	0x4bf
 5995 0614 58       		.byte	0x58
 5996 0615 08       		.uleb128 0x8
 5997 0616 72313100 		.ascii	"r11\000"
 5998 061a 0B       		.byte	0xb
 5999 061b 0E01     		.2byte	0x10e
 6000 061d BF040000 		.4byte	0x4bf
 6001 0621 5C       		.byte	0x5c
 6002 0622 08       		.uleb128 0x8
 6003 0623 6C7200   		.ascii	"lr\000"
 6004 0626 0B       		.byte	0xb
 6005 0627 0F01     		.2byte	0x10f
 6006 0629 BF040000 		.4byte	0x4bf
 6007 062d 60       		.byte	0x60
 6008 062e 00       		.byte	0
 6009 062f 0A       		.uleb128 0xa
 6010 0630 04       		.byte	0x4
 6011 0631 EE040000 		.4byte	0x4ee
 6012 0635 11       		.uleb128 0x11
 6013 0636 04       		.byte	0x4
ARM GAS  /tmp/ccTQOGyd.s 			page 107


 6014 0637 0C       		.byte	0xc
 6015 0638 38       		.byte	0x38
 6016 0639 4A060000 		.4byte	0x64a
 6017 063d 07       		.uleb128 0x7
 6018 063e 5A210000 		.4byte	.LASF94
 6019 0642 0C       		.byte	0xc
 6020 0643 3C       		.byte	0x3c
 6021 0644 1C010000 		.4byte	0x11c
 6022 0648 00       		.byte	0
 6023 0649 00       		.byte	0
 6024 064a 04       		.uleb128 0x4
 6025 064b 36260000 		.4byte	.LASF95
 6026 064f 0C       		.byte	0xc
 6027 0650 3D       		.byte	0x3d
 6028 0651 35060000 		.4byte	0x635
 6029 0655 12       		.uleb128 0x12
 6030 0656 04       		.byte	0x4
 6031 0657 09       		.byte	0x9
 6032 0658 FA       		.byte	0xfa
 6033 0659 B2060000 		.4byte	0x6b2
 6034 065d 13       		.uleb128 0x13
 6035 065e BD0F0000 		.4byte	.LASF96
 6036 0662 09       		.byte	0x9
 6037 0663 0101     		.2byte	0x101
 6038 0665 5E010000 		.4byte	0x15e
 6039 0669 13       		.uleb128 0x13
 6040 066a AC0C0000 		.4byte	.LASF97
 6041 066e 09       		.byte	0x9
 6042 066f 0801     		.2byte	0x108
 6043 0671 5E010000 		.4byte	0x15e
 6044 0675 13       		.uleb128 0x13
 6045 0676 B61D0000 		.4byte	.LASF98
 6046 067a 09       		.byte	0x9
 6047 067b 0F01     		.2byte	0x10f
 6048 067d 82030000 		.4byte	0x382
 6049 0681 13       		.uleb128 0x13
 6050 0682 1C170000 		.4byte	.LASF99
 6051 0686 09       		.byte	0x9
 6052 0687 1601     		.2byte	0x116
 6053 0689 B2060000 		.4byte	0x6b2
 6054 068d 13       		.uleb128 0x13
 6055 068e 51010000 		.4byte	.LASF100
 6056 0692 09       		.byte	0x9
 6057 0693 1E01     		.2byte	0x11e
 6058 0695 DD060000 		.4byte	0x6dd
 6059 0699 13       		.uleb128 0x13
 6060 069a 0C1E0000 		.4byte	.LASF101
 6061 069e 09       		.byte	0x9
 6062 069f 2701     		.2byte	0x127
 6063 06a1 14070000 		.4byte	0x714
 6064 06a5 13       		.uleb128 0x13
 6065 06a6 F1210000 		.4byte	.LASF102
 6066 06aa 09       		.byte	0x9
 6067 06ab 2F01     		.2byte	0x12f
 6068 06ad 69010000 		.4byte	0x169
 6069 06b1 00       		.byte	0
 6070 06b2 0A       		.uleb128 0xa
ARM GAS  /tmp/ccTQOGyd.s 			page 108


 6071 06b3 04       		.byte	0x4
 6072 06b4 9A020000 		.4byte	0x29a
 6073 06b8 06       		.uleb128 0x6
 6074 06b9 A9150000 		.4byte	.LASF103
 6075 06bd 0C       		.byte	0xc
 6076 06be 0D       		.byte	0xd
 6077 06bf 34       		.byte	0x34
 6078 06c0 DD060000 		.4byte	0x6dd
 6079 06c4 07       		.uleb128 0x7
 6080 06c5 0D240000 		.4byte	.LASF104
 6081 06c9 0D       		.byte	0xd
 6082 06ca 35       		.byte	0x35
 6083 06cb CF020000 		.4byte	0x2cf
 6084 06cf 00       		.byte	0
 6085 06d0 07       		.uleb128 0x7
 6086 06d1 B0070000 		.4byte	.LASF105
 6087 06d5 0D       		.byte	0xd
 6088 06d6 37       		.byte	0x37
 6089 06d7 74010000 		.4byte	0x174
 6090 06db 08       		.byte	0x8
 6091 06dc 00       		.byte	0
 6092 06dd 0A       		.uleb128 0xa
 6093 06de 04       		.byte	0x4
 6094 06df B8060000 		.4byte	0x6b8
 6095 06e3 06       		.uleb128 0x6
 6096 06e4 D5090000 		.4byte	.LASF106
 6097 06e8 10       		.byte	0x10
 6098 06e9 0E       		.byte	0xe
 6099 06ea 39       		.byte	0x39
 6100 06eb 14070000 		.4byte	0x714
 6101 06ef 07       		.uleb128 0x7
 6102 06f0 B2160000 		.4byte	.LASF107
 6103 06f4 0E       		.byte	0xe
 6104 06f5 3A       		.byte	0x3a
 6105 06f6 CF020000 		.4byte	0x2cf
 6106 06fa 00       		.byte	0
 6107 06fb 07       		.uleb128 0x7
 6108 06fc 30150000 		.4byte	.LASF108
 6109 0700 0E       		.byte	0xe
 6110 0701 3C       		.byte	0x3c
 6111 0702 A5020000 		.4byte	0x2a5
 6112 0706 08       		.byte	0x8
 6113 0707 07       		.uleb128 0x7
 6114 0708 BB010000 		.4byte	.LASF109
 6115 070c 0E       		.byte	0xe
 6116 070d 3E       		.byte	0x3e
 6117 070e 62070000 		.4byte	0x762
 6118 0712 0C       		.byte	0xc
 6119 0713 00       		.byte	0
 6120 0714 0A       		.uleb128 0xa
 6121 0715 04       		.byte	0x4
 6122 0716 E3060000 		.4byte	0x6e3
 6123 071a 0A       		.uleb128 0xa
 6124 071b 04       		.byte	0x4
 6125 071c 20070000 		.4byte	0x720
 6126 0720 14       		.uleb128 0x14
 6127 0721 25070000 		.4byte	0x725
ARM GAS  /tmp/ccTQOGyd.s 			page 109


 6128 0725 02       		.uleb128 0x2
 6129 0726 01       		.byte	0x1
 6130 0727 08       		.byte	0x8
 6131 0728 76190000 		.4byte	.LASF110
 6132 072c 05       		.uleb128 0x5
 6133 072d 7F010000 		.4byte	0x17f
 6134 0731 0A       		.uleb128 0xa
 6135 0732 04       		.byte	0x4
 6136 0733 84030000 		.4byte	0x384
 6137 0737 05       		.uleb128 0x5
 6138 0738 1A070000 		.4byte	0x71a
 6139 073c 15       		.uleb128 0x15
 6140 073d CA040000 		.4byte	0x4ca
 6141 0741 4C070000 		.4byte	0x74c
 6142 0745 16       		.uleb128 0x16
 6143 0746 B8040000 		.4byte	0x4b8
 6144 074a 3A       		.byte	0x3a
 6145 074b 00       		.byte	0
 6146 074c 04       		.uleb128 0x4
 6147 074d 58060000 		.4byte	.LASF111
 6148 0751 0F       		.byte	0xf
 6149 0752 34       		.byte	0x34
 6150 0753 71030000 		.4byte	0x371
 6151 0757 04       		.uleb128 0x4
 6152 0758 C11F0000 		.4byte	.LASF112
 6153 075c 0E       		.byte	0xe
 6154 075d 34       		.byte	0x34
 6155 075e E3060000 		.4byte	0x6e3
 6156 0762 0A       		.uleb128 0xa
 6157 0763 04       		.byte	0x4
 6158 0764 57070000 		.4byte	0x757
 6159 0768 0A       		.uleb128 0xa
 6160 0769 04       		.byte	0x4
 6161 076a CA000000 		.4byte	0xca
 6162 076e 0A       		.uleb128 0xa
 6163 076f 04       		.byte	0x4
 6164 0770 74070000 		.4byte	0x774
 6165 0774 14       		.uleb128 0x14
 6166 0775 CA000000 		.4byte	0xca
 6167 0779 17       		.uleb128 0x17
 6168 077a 01       		.byte	0x1
 6169 077b 10       		.byte	0x10
 6170 077c 23       		.byte	0x23
 6171 077d 94070000 		.4byte	0x794
 6172 0781 18       		.uleb128 0x18
 6173 0782 82230000 		.4byte	.LASF113
 6174 0786 00       		.sleb128 0
 6175 0787 18       		.uleb128 0x18
 6176 0788 02190000 		.4byte	.LASF114
 6177 078c 01       		.sleb128 1
 6178 078d 18       		.uleb128 0x18
 6179 078e E9030000 		.4byte	.LASF115
 6180 0792 02       		.sleb128 2
 6181 0793 00       		.byte	0
 6182 0794 04       		.uleb128 0x4
 6183 0795 FA030000 		.4byte	.LASF116
 6184 0799 10       		.byte	0x10
ARM GAS  /tmp/ccTQOGyd.s 			page 110


 6185 079a 27       		.byte	0x27
 6186 079b 79070000 		.4byte	0x779
 6187 079f 17       		.uleb128 0x17
 6188 07a0 01       		.byte	0x1
 6189 07a1 10       		.byte	0x10
 6190 07a2 29       		.byte	0x29
 6191 07a3 B4070000 		.4byte	0x7b4
 6192 07a7 18       		.uleb128 0x18
 6193 07a8 E9160000 		.4byte	.LASF117
 6194 07ac 00       		.sleb128 0
 6195 07ad 18       		.uleb128 0x18
 6196 07ae B8270000 		.4byte	.LASF118
 6197 07b2 01       		.sleb128 1
 6198 07b3 00       		.byte	0
 6199 07b4 04       		.uleb128 0x4
 6200 07b5 BD220000 		.4byte	.LASF119
 6201 07b9 10       		.byte	0x10
 6202 07ba 2C       		.byte	0x2c
 6203 07bb 9F070000 		.4byte	0x79f
 6204 07bf 17       		.uleb128 0x17
 6205 07c0 01       		.byte	0x1
 6206 07c1 10       		.byte	0x10
 6207 07c2 2E       		.byte	0x2e
 6208 07c3 DA070000 		.4byte	0x7da
 6209 07c7 18       		.uleb128 0x18
 6210 07c8 DB1E0000 		.4byte	.LASF120
 6211 07cc 00       		.sleb128 0
 6212 07cd 18       		.uleb128 0x18
 6213 07ce 330A0000 		.4byte	.LASF121
 6214 07d2 01       		.sleb128 1
 6215 07d3 18       		.uleb128 0x18
 6216 07d4 F40A0000 		.4byte	.LASF122
 6217 07d8 02       		.sleb128 2
 6218 07d9 00       		.byte	0
 6219 07da 04       		.uleb128 0x4
 6220 07db 8F160000 		.4byte	.LASF123
 6221 07df 10       		.byte	0x10
 6222 07e0 32       		.byte	0x32
 6223 07e1 BF070000 		.4byte	0x7bf
 6224 07e5 17       		.uleb128 0x17
 6225 07e6 01       		.byte	0x1
 6226 07e7 10       		.byte	0x10
 6227 07e8 34       		.byte	0x34
 6228 07e9 00080000 		.4byte	0x800
 6229 07ed 18       		.uleb128 0x18
 6230 07ee 42160000 		.4byte	.LASF124
 6231 07f2 00       		.sleb128 0
 6232 07f3 18       		.uleb128 0x18
 6233 07f4 01060000 		.4byte	.LASF125
 6234 07f8 01       		.sleb128 1
 6235 07f9 18       		.uleb128 0x18
 6236 07fa 2E210000 		.4byte	.LASF126
 6237 07fe 02       		.sleb128 2
 6238 07ff 00       		.byte	0
 6239 0800 04       		.uleb128 0x4
 6240 0801 DE260000 		.4byte	.LASF127
 6241 0805 10       		.byte	0x10
ARM GAS  /tmp/ccTQOGyd.s 			page 111


 6242 0806 38       		.byte	0x38
 6243 0807 E5070000 		.4byte	0x7e5
 6244 080b 17       		.uleb128 0x17
 6245 080c 01       		.byte	0x1
 6246 080d 10       		.byte	0x10
 6247 080e 3A       		.byte	0x3a
 6248 080f 26080000 		.4byte	0x826
 6249 0813 18       		.uleb128 0x18
 6250 0814 6C270000 		.4byte	.LASF128
 6251 0818 00       		.sleb128 0
 6252 0819 18       		.uleb128 0x18
 6253 081a 44120000 		.4byte	.LASF129
 6254 081e 01       		.sleb128 1
 6255 081f 18       		.uleb128 0x18
 6256 0820 350E0000 		.4byte	.LASF130
 6257 0824 02       		.sleb128 2
 6258 0825 00       		.byte	0
 6259 0826 04       		.uleb128 0x4
 6260 0827 131E0000 		.4byte	.LASF131
 6261 082b 10       		.byte	0x10
 6262 082c 3E       		.byte	0x3e
 6263 082d 0B080000 		.4byte	0x80b
 6264 0831 17       		.uleb128 0x17
 6265 0832 01       		.byte	0x1
 6266 0833 10       		.byte	0x10
 6267 0834 40       		.byte	0x40
 6268 0835 64080000 		.4byte	0x864
 6269 0839 18       		.uleb128 0x18
 6270 083a 961B0000 		.4byte	.LASF132
 6271 083e 00       		.sleb128 0
 6272 083f 18       		.uleb128 0x18
 6273 0840 500E0000 		.4byte	.LASF133
 6274 0844 01       		.sleb128 1
 6275 0845 18       		.uleb128 0x18
 6276 0846 DA1A0000 		.4byte	.LASF134
 6277 084a 02       		.sleb128 2
 6278 084b 18       		.uleb128 0x18
 6279 084c 5F070000 		.4byte	.LASF135
 6280 0850 03       		.sleb128 3
 6281 0851 18       		.uleb128 0x18
 6282 0852 CF080000 		.4byte	.LASF136
 6283 0856 04       		.sleb128 4
 6284 0857 18       		.uleb128 0x18
 6285 0858 C1030000 		.4byte	.LASF137
 6286 085c 05       		.sleb128 5
 6287 085d 18       		.uleb128 0x18
 6288 085e D0140000 		.4byte	.LASF138
 6289 0862 06       		.sleb128 6
 6290 0863 00       		.byte	0
 6291 0864 04       		.uleb128 0x4
 6292 0865 20240000 		.4byte	.LASF139
 6293 0869 10       		.byte	0x10
 6294 086a 48       		.byte	0x48
 6295 086b 31080000 		.4byte	0x831
 6296 086f 17       		.uleb128 0x17
 6297 0870 01       		.byte	0x1
 6298 0871 10       		.byte	0x10
ARM GAS  /tmp/ccTQOGyd.s 			page 112


 6299 0872 55       		.byte	0x55
 6300 0873 A2080000 		.4byte	0x8a2
 6301 0877 18       		.uleb128 0x18
 6302 0878 DE090000 		.4byte	.LASF140
 6303 087c 00       		.sleb128 0
 6304 087d 18       		.uleb128 0x18
 6305 087e 56020000 		.4byte	.LASF141
 6306 0882 01       		.sleb128 1
 6307 0883 18       		.uleb128 0x18
 6308 0884 94090000 		.4byte	.LASF142
 6309 0888 02       		.sleb128 2
 6310 0889 18       		.uleb128 0x18
 6311 088a 08020000 		.4byte	.LASF143
 6312 088e 03       		.sleb128 3
 6313 088f 18       		.uleb128 0x18
 6314 0890 1F0E0000 		.4byte	.LASF144
 6315 0894 04       		.sleb128 4
 6316 0895 18       		.uleb128 0x18
 6317 0896 830D0000 		.4byte	.LASF145
 6318 089a 05       		.sleb128 5
 6319 089b 18       		.uleb128 0x18
 6320 089c 51190000 		.4byte	.LASF146
 6321 08a0 06       		.sleb128 6
 6322 08a1 00       		.byte	0
 6323 08a2 04       		.uleb128 0x4
 6324 08a3 3C230000 		.4byte	.LASF147
 6325 08a7 10       		.byte	0x10
 6326 08a8 5D       		.byte	0x5d
 6327 08a9 6F080000 		.4byte	0x86f
 6328 08ad 17       		.uleb128 0x17
 6329 08ae 01       		.byte	0x1
 6330 08af 10       		.byte	0x10
 6331 08b0 5F       		.byte	0x5f
 6332 08b1 C8080000 		.4byte	0x8c8
 6333 08b5 18       		.uleb128 0x18
 6334 08b6 19160000 		.4byte	.LASF148
 6335 08ba 00       		.sleb128 0
 6336 08bb 18       		.uleb128 0x18
 6337 08bc 610B0000 		.4byte	.LASF149
 6338 08c0 01       		.sleb128 1
 6339 08c1 18       		.uleb128 0x18
 6340 08c2 DF0B0000 		.4byte	.LASF150
 6341 08c6 02       		.sleb128 2
 6342 08c7 00       		.byte	0
 6343 08c8 04       		.uleb128 0x4
 6344 08c9 B9260000 		.4byte	.LASF151
 6345 08cd 10       		.byte	0x10
 6346 08ce 63       		.byte	0x63
 6347 08cf AD080000 		.4byte	0x8ad
 6348 08d3 17       		.uleb128 0x17
 6349 08d4 01       		.byte	0x1
 6350 08d5 10       		.byte	0x10
 6351 08d6 6F       		.byte	0x6f
 6352 08d7 F4080000 		.4byte	0x8f4
 6353 08db 18       		.uleb128 0x18
 6354 08dc B0030000 		.4byte	.LASF152
 6355 08e0 00       		.sleb128 0
ARM GAS  /tmp/ccTQOGyd.s 			page 113


 6356 08e1 18       		.uleb128 0x18
 6357 08e2 C61D0000 		.4byte	.LASF153
 6358 08e6 01       		.sleb128 1
 6359 08e7 18       		.uleb128 0x18
 6360 08e8 6A060000 		.4byte	.LASF154
 6361 08ec 02       		.sleb128 2
 6362 08ed 18       		.uleb128 0x18
 6363 08ee 9F230000 		.4byte	.LASF155
 6364 08f2 03       		.sleb128 3
 6365 08f3 00       		.byte	0
 6366 08f4 04       		.uleb128 0x4
 6367 08f5 27190000 		.4byte	.LASF156
 6368 08f9 10       		.byte	0x10
 6369 08fa 74       		.byte	0x74
 6370 08fb D3080000 		.4byte	0x8d3
 6371 08ff 17       		.uleb128 0x17
 6372 0900 01       		.byte	0x1
 6373 0901 10       		.byte	0x10
 6374 0902 76       		.byte	0x76
 6375 0903 38090000 		.4byte	0x938
 6376 0907 18       		.uleb128 0x18
 6377 0908 A21A0000 		.4byte	.LASF157
 6378 090c 00       		.sleb128 0
 6379 090d 18       		.uleb128 0x18
 6380 090e 351E0000 		.4byte	.LASF158
 6381 0912 01       		.sleb128 1
 6382 0913 18       		.uleb128 0x18
 6383 0914 EE0F0000 		.4byte	.LASF159
 6384 0918 02       		.sleb128 2
 6385 0919 18       		.uleb128 0x18
 6386 091a 3A1D0000 		.4byte	.LASF160
 6387 091e 03       		.sleb128 3
 6388 091f 18       		.uleb128 0x18
 6389 0920 080C0000 		.4byte	.LASF161
 6390 0924 04       		.sleb128 4
 6391 0925 18       		.uleb128 0x18
 6392 0926 861F0000 		.4byte	.LASF162
 6393 092a 05       		.sleb128 5
 6394 092b 18       		.uleb128 0x18
 6395 092c AF1B0000 		.4byte	.LASF163
 6396 0930 06       		.sleb128 6
 6397 0931 18       		.uleb128 0x18
 6398 0932 23120000 		.4byte	.LASF164
 6399 0936 07       		.sleb128 7
 6400 0937 00       		.byte	0
 6401 0938 04       		.uleb128 0x4
 6402 0939 2E240000 		.4byte	.LASF165
 6403 093d 10       		.byte	0x10
 6404 093e 7F       		.byte	0x7f
 6405 093f FF080000 		.4byte	0x8ff
 6406 0943 17       		.uleb128 0x17
 6407 0944 01       		.byte	0x1
 6408 0945 10       		.byte	0x10
 6409 0946 81       		.byte	0x81
 6410 0947 64090000 		.4byte	0x964
 6411 094b 18       		.uleb128 0x18
 6412 094c 15040000 		.4byte	.LASF166
ARM GAS  /tmp/ccTQOGyd.s 			page 114


 6413 0950 00       		.sleb128 0
 6414 0951 18       		.uleb128 0x18
 6415 0952 A2200000 		.4byte	.LASF167
 6416 0956 01       		.sleb128 1
 6417 0957 18       		.uleb128 0x18
 6418 0958 101F0000 		.4byte	.LASF168
 6419 095c 02       		.sleb128 2
 6420 095d 18       		.uleb128 0x18
 6421 095e DE0D0000 		.4byte	.LASF169
 6422 0962 03       		.sleb128 3
 6423 0963 00       		.byte	0
 6424 0964 04       		.uleb128 0x4
 6425 0965 B4020000 		.4byte	.LASF170
 6426 0969 10       		.byte	0x10
 6427 096a 86       		.byte	0x86
 6428 096b 43090000 		.4byte	0x943
 6429 096f 19       		.uleb128 0x19
 6430 0970 7401     		.2byte	0x174
 6431 0972 10       		.byte	0x10
 6432 0973 88       		.byte	0x88
 6433 0974 240E0000 		.4byte	0xe24
 6434 0978 07       		.uleb128 0x7
 6435 0979 39110000 		.4byte	.LASF171
 6436 097d 10       		.byte	0x10
 6437 097e 8A       		.byte	0x8a
 6438 097f 94070000 		.4byte	0x794
 6439 0983 00       		.byte	0
 6440 0984 07       		.uleb128 0x7
 6441 0985 C5080000 		.4byte	.LASF172
 6442 0989 10       		.byte	0x10
 6443 098a 8B       		.byte	0x8b
 6444 098b B4070000 		.4byte	0x7b4
 6445 098f 01       		.byte	0x1
 6446 0990 07       		.uleb128 0x7
 6447 0991 60110000 		.4byte	.LASF173
 6448 0995 10       		.byte	0x10
 6449 0996 8C       		.byte	0x8c
 6450 0997 26080000 		.4byte	0x826
 6451 099b 02       		.byte	0x2
 6452 099c 07       		.uleb128 0x7
 6453 099d B91E0000 		.4byte	.LASF174
 6454 09a1 10       		.byte	0x10
 6455 09a2 8D       		.byte	0x8d
 6456 09a3 DA070000 		.4byte	0x7da
 6457 09a7 03       		.byte	0x3
 6458 09a8 07       		.uleb128 0x7
 6459 09a9 87150000 		.4byte	.LASF175
 6460 09ad 10       		.byte	0x10
 6461 09ae 8F       		.byte	0x8f
 6462 09af 25000000 		.4byte	0x25
 6463 09b3 04       		.byte	0x4
 6464 09b4 07       		.uleb128 0x7
 6465 09b5 B51A0000 		.4byte	.LASF176
 6466 09b9 10       		.byte	0x10
 6467 09ba 90       		.byte	0x90
 6468 09bb 25000000 		.4byte	0x25
 6469 09bf 08       		.byte	0x8
ARM GAS  /tmp/ccTQOGyd.s 			page 115


 6470 09c0 07       		.uleb128 0x7
 6471 09c1 AE250000 		.4byte	.LASF177
 6472 09c5 10       		.byte	0x10
 6473 09c6 91       		.byte	0x91
 6474 09c7 25000000 		.4byte	0x25
 6475 09cb 0C       		.byte	0xc
 6476 09cc 07       		.uleb128 0x7
 6477 09cd DD010000 		.4byte	.LASF178
 6478 09d1 10       		.byte	0x10
 6479 09d2 92       		.byte	0x92
 6480 09d3 25000000 		.4byte	0x25
 6481 09d7 10       		.byte	0x10
 6482 09d8 07       		.uleb128 0x7
 6483 09d9 3F000000 		.4byte	.LASF179
 6484 09dd 10       		.byte	0x10
 6485 09de 93       		.byte	0x93
 6486 09df 25000000 		.4byte	0x25
 6487 09e3 14       		.byte	0x14
 6488 09e4 07       		.uleb128 0x7
 6489 09e5 92020000 		.4byte	.LASF180
 6490 09e9 10       		.byte	0x10
 6491 09ea 94       		.byte	0x94
 6492 09eb 25000000 		.4byte	0x25
 6493 09ef 18       		.byte	0x18
 6494 09f0 07       		.uleb128 0x7
 6495 09f1 26140000 		.4byte	.LASF181
 6496 09f5 10       		.byte	0x10
 6497 09f6 95       		.byte	0x95
 6498 09f7 25000000 		.4byte	0x25
 6499 09fb 1C       		.byte	0x1c
 6500 09fc 07       		.uleb128 0x7
 6501 09fd 5B150000 		.4byte	.LASF182
 6502 0a01 10       		.byte	0x10
 6503 0a02 96       		.byte	0x96
 6504 0a03 25000000 		.4byte	0x25
 6505 0a07 20       		.byte	0x20
 6506 0a08 07       		.uleb128 0x7
 6507 0a09 2D000000 		.4byte	.LASF183
 6508 0a0d 10       		.byte	0x10
 6509 0a0e 97       		.byte	0x97
 6510 0a0f 25000000 		.4byte	0x25
 6511 0a13 24       		.byte	0x24
 6512 0a14 07       		.uleb128 0x7
 6513 0a15 C6240000 		.4byte	.LASF184
 6514 0a19 10       		.byte	0x10
 6515 0a1a 98       		.byte	0x98
 6516 0a1b 25000000 		.4byte	0x25
 6517 0a1f 28       		.byte	0x28
 6518 0a20 07       		.uleb128 0x7
 6519 0a21 9F0D0000 		.4byte	.LASF185
 6520 0a25 10       		.byte	0x10
 6521 0a26 99       		.byte	0x99
 6522 0a27 25000000 		.4byte	0x25
 6523 0a2b 2C       		.byte	0x2c
 6524 0a2c 07       		.uleb128 0x7
 6525 0a2d 900C0000 		.4byte	.LASF186
 6526 0a31 10       		.byte	0x10
ARM GAS  /tmp/ccTQOGyd.s 			page 116


 6527 0a32 9A       		.byte	0x9a
 6528 0a33 25000000 		.4byte	0x25
 6529 0a37 30       		.byte	0x30
 6530 0a38 07       		.uleb128 0x7
 6531 0a39 6F0D0000 		.4byte	.LASF187
 6532 0a3d 10       		.byte	0x10
 6533 0a3e 9B       		.byte	0x9b
 6534 0a3f 25000000 		.4byte	0x25
 6535 0a43 34       		.byte	0x34
 6536 0a44 07       		.uleb128 0x7
 6537 0a45 D1170000 		.4byte	.LASF188
 6538 0a49 10       		.byte	0x10
 6539 0a4a 9C       		.byte	0x9c
 6540 0a4b 25000000 		.4byte	0x25
 6541 0a4f 38       		.byte	0x38
 6542 0a50 07       		.uleb128 0x7
 6543 0a51 C2010000 		.4byte	.LASF189
 6544 0a55 10       		.byte	0x10
 6545 0a56 9D       		.byte	0x9d
 6546 0a57 240E0000 		.4byte	0xe24
 6547 0a5b 3C       		.byte	0x3c
 6548 0a5c 07       		.uleb128 0x7
 6549 0a5d 39080000 		.4byte	.LASF190
 6550 0a61 10       		.byte	0x10
 6551 0a62 9E       		.byte	0x9e
 6552 0a63 25000000 		.4byte	0x25
 6553 0a67 40       		.byte	0x40
 6554 0a68 07       		.uleb128 0x7
 6555 0a69 5F030000 		.4byte	.LASF191
 6556 0a6d 10       		.byte	0x10
 6557 0a6e 9F       		.byte	0x9f
 6558 0a6f 25000000 		.4byte	0x25
 6559 0a73 44       		.byte	0x44
 6560 0a74 07       		.uleb128 0x7
 6561 0a75 2B1A0000 		.4byte	.LASF192
 6562 0a79 10       		.byte	0x10
 6563 0a7a A0       		.byte	0xa0
 6564 0a7b 25000000 		.4byte	0x25
 6565 0a7f 48       		.byte	0x48
 6566 0a80 07       		.uleb128 0x7
 6567 0a81 791E0000 		.4byte	.LASF193
 6568 0a85 10       		.byte	0x10
 6569 0a86 A1       		.byte	0xa1
 6570 0a87 25000000 		.4byte	0x25
 6571 0a8b 4C       		.byte	0x4c
 6572 0a8c 07       		.uleb128 0x7
 6573 0a8d CB190000 		.4byte	.LASF194
 6574 0a91 10       		.byte	0x10
 6575 0a92 A2       		.byte	0xa2
 6576 0a93 25000000 		.4byte	0x25
 6577 0a97 50       		.byte	0x50
 6578 0a98 07       		.uleb128 0x7
 6579 0a99 92260000 		.4byte	.LASF195
 6580 0a9d 10       		.byte	0x10
 6581 0a9e A3       		.byte	0xa3
 6582 0a9f 25000000 		.4byte	0x25
 6583 0aa3 54       		.byte	0x54
ARM GAS  /tmp/ccTQOGyd.s 			page 117


 6584 0aa4 07       		.uleb128 0x7
 6585 0aa5 C40F0000 		.4byte	.LASF196
 6586 0aa9 10       		.byte	0x10
 6587 0aaa A4       		.byte	0xa4
 6588 0aab 25000000 		.4byte	0x25
 6589 0aaf 58       		.byte	0x58
 6590 0ab0 07       		.uleb128 0x7
 6591 0ab1 EE070000 		.4byte	.LASF197
 6592 0ab5 10       		.byte	0x10
 6593 0ab6 A5       		.byte	0xa5
 6594 0ab7 25000000 		.4byte	0x25
 6595 0abb 5C       		.byte	0x5c
 6596 0abc 07       		.uleb128 0x7
 6597 0abd B0240000 		.4byte	.LASF198
 6598 0ac1 10       		.byte	0x10
 6599 0ac2 A6       		.byte	0xa6
 6600 0ac3 25000000 		.4byte	0x25
 6601 0ac7 60       		.byte	0x60
 6602 0ac8 07       		.uleb128 0x7
 6603 0ac9 240B0000 		.4byte	.LASF199
 6604 0acd 10       		.byte	0x10
 6605 0ace A8       		.byte	0xa8
 6606 0acf 25000000 		.4byte	0x25
 6607 0ad3 64       		.byte	0x64
 6608 0ad4 07       		.uleb128 0x7
 6609 0ad5 6B110000 		.4byte	.LASF200
 6610 0ad9 10       		.byte	0x10
 6611 0ada A9       		.byte	0xa9
 6612 0adb 25000000 		.4byte	0x25
 6613 0adf 68       		.byte	0x68
 6614 0ae0 07       		.uleb128 0x7
 6615 0ae1 B0200000 		.4byte	.LASF201
 6616 0ae5 10       		.byte	0x10
 6617 0ae6 AA       		.byte	0xaa
 6618 0ae7 25000000 		.4byte	0x25
 6619 0aeb 6C       		.byte	0x6c
 6620 0aec 07       		.uleb128 0x7
 6621 0aed 50260000 		.4byte	.LASF202
 6622 0af1 10       		.byte	0x10
 6623 0af2 AB       		.byte	0xab
 6624 0af3 25000000 		.4byte	0x25
 6625 0af7 70       		.byte	0x70
 6626 0af8 07       		.uleb128 0x7
 6627 0af9 191C0000 		.4byte	.LASF203
 6628 0afd 10       		.byte	0x10
 6629 0afe AC       		.byte	0xac
 6630 0aff 25000000 		.4byte	0x25
 6631 0b03 74       		.byte	0x74
 6632 0b04 07       		.uleb128 0x7
 6633 0b05 770C0000 		.4byte	.LASF204
 6634 0b09 10       		.byte	0x10
 6635 0b0a AD       		.byte	0xad
 6636 0b0b 25000000 		.4byte	0x25
 6637 0b0f 78       		.byte	0x78
 6638 0b10 07       		.uleb128 0x7
 6639 0b11 440E0000 		.4byte	.LASF205
 6640 0b15 10       		.byte	0x10
ARM GAS  /tmp/ccTQOGyd.s 			page 118


 6641 0b16 AF       		.byte	0xaf
 6642 0b17 25000000 		.4byte	0x25
 6643 0b1b 7C       		.byte	0x7c
 6644 0b1c 07       		.uleb128 0x7
 6645 0b1d E1040000 		.4byte	.LASF206
 6646 0b21 10       		.byte	0x10
 6647 0b22 B0       		.byte	0xb0
 6648 0b23 25000000 		.4byte	0x25
 6649 0b27 80       		.byte	0x80
 6650 0b28 07       		.uleb128 0x7
 6651 0b29 99110000 		.4byte	.LASF207
 6652 0b2d 10       		.byte	0x10
 6653 0b2e B1       		.byte	0xb1
 6654 0b2f 25000000 		.4byte	0x25
 6655 0b33 84       		.byte	0x84
 6656 0b34 07       		.uleb128 0x7
 6657 0b35 D1120000 		.4byte	.LASF208
 6658 0b39 10       		.byte	0x10
 6659 0b3a B2       		.byte	0xb2
 6660 0b3b 25000000 		.4byte	0x25
 6661 0b3f 88       		.byte	0x88
 6662 0b40 07       		.uleb128 0x7
 6663 0b41 7A100000 		.4byte	.LASF209
 6664 0b45 10       		.byte	0x10
 6665 0b46 B3       		.byte	0xb3
 6666 0b47 25000000 		.4byte	0x25
 6667 0b4b 8C       		.byte	0x8c
 6668 0b4c 07       		.uleb128 0x7
 6669 0b4d 5F220000 		.4byte	.LASF210
 6670 0b51 10       		.byte	0x10
 6671 0b52 B4       		.byte	0xb4
 6672 0b53 25000000 		.4byte	0x25
 6673 0b57 90       		.byte	0x90
 6674 0b58 07       		.uleb128 0x7
 6675 0b59 99190000 		.4byte	.LASF211
 6676 0b5d 10       		.byte	0x10
 6677 0b5e B5       		.byte	0xb5
 6678 0b5f 25000000 		.4byte	0x25
 6679 0b63 94       		.byte	0x94
 6680 0b64 07       		.uleb128 0x7
 6681 0b65 08120000 		.4byte	.LASF212
 6682 0b69 10       		.byte	0x10
 6683 0b6a B7       		.byte	0xb7
 6684 0b6b 2B0E0000 		.4byte	0xe2b
 6685 0b6f 98       		.byte	0x98
 6686 0b70 07       		.uleb128 0x7
 6687 0b71 2F1B0000 		.4byte	.LASF213
 6688 0b75 10       		.byte	0x10
 6689 0b76 B8       		.byte	0xb8
 6690 0b77 25000000 		.4byte	0x25
 6691 0b7b A0       		.byte	0xa0
 6692 0b7c 07       		.uleb128 0x7
 6693 0b7d 25050000 		.4byte	.LASF214
 6694 0b81 10       		.byte	0x10
 6695 0b82 BA       		.byte	0xba
 6696 0b83 25000000 		.4byte	0x25
 6697 0b87 A4       		.byte	0xa4
ARM GAS  /tmp/ccTQOGyd.s 			page 119


 6698 0b88 07       		.uleb128 0x7
 6699 0b89 FD040000 		.4byte	.LASF215
 6700 0b8d 10       		.byte	0x10
 6701 0b8e BB       		.byte	0xbb
 6702 0b8f 25000000 		.4byte	0x25
 6703 0b93 A8       		.byte	0xa8
 6704 0b94 07       		.uleb128 0x7
 6705 0b95 03080000 		.4byte	.LASF216
 6706 0b99 10       		.byte	0x10
 6707 0b9a BC       		.byte	0xbc
 6708 0b9b 25000000 		.4byte	0x25
 6709 0b9f AC       		.byte	0xac
 6710 0ba0 07       		.uleb128 0x7
 6711 0ba1 61210000 		.4byte	.LASF217
 6712 0ba5 10       		.byte	0x10
 6713 0ba6 BD       		.byte	0xbd
 6714 0ba7 25000000 		.4byte	0x25
 6715 0bab B0       		.byte	0xb0
 6716 0bac 07       		.uleb128 0x7
 6717 0bad E31F0000 		.4byte	.LASF218
 6718 0bb1 10       		.byte	0x10
 6719 0bb2 BE       		.byte	0xbe
 6720 0bb3 25000000 		.4byte	0x25
 6721 0bb7 B4       		.byte	0xb4
 6722 0bb8 07       		.uleb128 0x7
 6723 0bb9 330B0000 		.4byte	.LASF219
 6724 0bbd 10       		.byte	0x10
 6725 0bbe BF       		.byte	0xbf
 6726 0bbf 240E0000 		.4byte	0xe24
 6727 0bc3 B8       		.byte	0xb8
 6728 0bc4 07       		.uleb128 0x7
 6729 0bc5 82170000 		.4byte	.LASF220
 6730 0bc9 10       		.byte	0x10
 6731 0bca C0       		.byte	0xc0
 6732 0bcb 25000000 		.4byte	0x25
 6733 0bcf BC       		.byte	0xbc
 6734 0bd0 07       		.uleb128 0x7
 6735 0bd1 47070000 		.4byte	.LASF221
 6736 0bd5 10       		.byte	0x10
 6737 0bd6 C1       		.byte	0xc1
 6738 0bd7 25000000 		.4byte	0x25
 6739 0bdb C0       		.byte	0xc0
 6740 0bdc 07       		.uleb128 0x7
 6741 0bdd 53070000 		.4byte	.LASF222
 6742 0be1 10       		.byte	0x10
 6743 0be2 C2       		.byte	0xc2
 6744 0be3 25000000 		.4byte	0x25
 6745 0be7 C4       		.byte	0xc4
 6746 0be8 07       		.uleb128 0x7
 6747 0be9 AC120000 		.4byte	.LASF223
 6748 0bed 10       		.byte	0x10
 6749 0bee C3       		.byte	0xc3
 6750 0bef 25000000 		.4byte	0x25
 6751 0bf3 C8       		.byte	0xc8
 6752 0bf4 07       		.uleb128 0x7
 6753 0bf5 EB080000 		.4byte	.LASF224
 6754 0bf9 10       		.byte	0x10
ARM GAS  /tmp/ccTQOGyd.s 			page 120


 6755 0bfa C4       		.byte	0xc4
 6756 0bfb 25000000 		.4byte	0x25
 6757 0bff CC       		.byte	0xcc
 6758 0c00 07       		.uleb128 0x7
 6759 0c01 0F010000 		.4byte	.LASF225
 6760 0c05 10       		.byte	0x10
 6761 0c06 C5       		.byte	0xc5
 6762 0c07 25000000 		.4byte	0x25
 6763 0c0b D0       		.byte	0xd0
 6764 0c0c 07       		.uleb128 0x7
 6765 0c0d D91C0000 		.4byte	.LASF226
 6766 0c11 10       		.byte	0x10
 6767 0c12 C6       		.byte	0xc6
 6768 0c13 25000000 		.4byte	0x25
 6769 0c17 D4       		.byte	0xd4
 6770 0c18 07       		.uleb128 0x7
 6771 0c19 CE1C0000 		.4byte	.LASF227
 6772 0c1d 10       		.byte	0x10
 6773 0c1e C7       		.byte	0xc7
 6774 0c1f 25000000 		.4byte	0x25
 6775 0c23 D8       		.byte	0xd8
 6776 0c24 07       		.uleb128 0x7
 6777 0c25 38150000 		.4byte	.LASF228
 6778 0c29 10       		.byte	0x10
 6779 0c2a C8       		.byte	0xc8
 6780 0c2b 25000000 		.4byte	0x25
 6781 0c2f DC       		.byte	0xdc
 6782 0c30 07       		.uleb128 0x7
 6783 0c31 06150000 		.4byte	.LASF229
 6784 0c35 10       		.byte	0x10
 6785 0c36 C9       		.byte	0xc9
 6786 0c37 25000000 		.4byte	0x25
 6787 0c3b E0       		.byte	0xe0
 6788 0c3c 07       		.uleb128 0x7
 6789 0c3d A51C0000 		.4byte	.LASF230
 6790 0c41 10       		.byte	0x10
 6791 0c42 CA       		.byte	0xca
 6792 0c43 25000000 		.4byte	0x25
 6793 0c47 E4       		.byte	0xe4
 6794 0c48 07       		.uleb128 0x7
 6795 0c49 1C200000 		.4byte	.LASF231
 6796 0c4d 10       		.byte	0x10
 6797 0c4e CB       		.byte	0xcb
 6798 0c4f 25000000 		.4byte	0x25
 6799 0c53 E8       		.byte	0xe8
 6800 0c54 07       		.uleb128 0x7
 6801 0c55 21260000 		.4byte	.LASF232
 6802 0c59 10       		.byte	0x10
 6803 0c5a CC       		.byte	0xcc
 6804 0c5b 25000000 		.4byte	0x25
 6805 0c5f EC       		.byte	0xec
 6806 0c60 07       		.uleb128 0x7
 6807 0c61 DC110000 		.4byte	.LASF233
 6808 0c65 10       		.byte	0x10
 6809 0c66 CD       		.byte	0xcd
 6810 0c67 25000000 		.4byte	0x25
 6811 0c6b F0       		.byte	0xf0
ARM GAS  /tmp/ccTQOGyd.s 			page 121


 6812 0c6c 07       		.uleb128 0x7
 6813 0c6d B61C0000 		.4byte	.LASF234
 6814 0c71 10       		.byte	0x10
 6815 0c72 CE       		.byte	0xce
 6816 0c73 25000000 		.4byte	0x25
 6817 0c77 F4       		.byte	0xf4
 6818 0c78 07       		.uleb128 0x7
 6819 0c79 11210000 		.4byte	.LASF235
 6820 0c7d 10       		.byte	0x10
 6821 0c7e CF       		.byte	0xcf
 6822 0c7f 00080000 		.4byte	0x800
 6823 0c83 F8       		.byte	0xf8
 6824 0c84 07       		.uleb128 0x7
 6825 0c85 CF0D0000 		.4byte	.LASF236
 6826 0c89 10       		.byte	0x10
 6827 0c8a D0       		.byte	0xd0
 6828 0c8b 3B0E0000 		.4byte	0xe3b
 6829 0c8f F9       		.byte	0xf9
 6830 0c90 1A       		.uleb128 0x1a
 6831 0c91 58100000 		.4byte	.LASF237
 6832 0c95 10       		.byte	0x10
 6833 0c96 D1       		.byte	0xd1
 6834 0c97 25000000 		.4byte	0x25
 6835 0c9b 0401     		.2byte	0x104
 6836 0c9d 1A       		.uleb128 0x1a
 6837 0c9e 3B270000 		.4byte	.LASF238
 6838 0ca2 10       		.byte	0x10
 6839 0ca3 D2       		.byte	0xd2
 6840 0ca4 240E0000 		.4byte	0xe24
 6841 0ca8 0801     		.2byte	0x108
 6842 0caa 1A       		.uleb128 0x1a
 6843 0cab A5220000 		.4byte	.LASF239
 6844 0caf 10       		.byte	0x10
 6845 0cb0 D3       		.byte	0xd3
 6846 0cb1 240E0000 		.4byte	0xe24
 6847 0cb5 0901     		.2byte	0x109
 6848 0cb7 1A       		.uleb128 0x1a
 6849 0cb8 7E210000 		.4byte	.LASF240
 6850 0cbc 10       		.byte	0x10
 6851 0cbd D4       		.byte	0xd4
 6852 0cbe 25000000 		.4byte	0x25
 6853 0cc2 0C01     		.2byte	0x10c
 6854 0cc4 1A       		.uleb128 0x1a
 6855 0cc5 37190000 		.4byte	.LASF241
 6856 0cc9 10       		.byte	0x10
 6857 0cca D5       		.byte	0xd5
 6858 0ccb 240E0000 		.4byte	0xe24
 6859 0ccf 1001     		.2byte	0x110
 6860 0cd1 1A       		.uleb128 0x1a
 6861 0cd2 A11E0000 		.4byte	.LASF242
 6862 0cd6 10       		.byte	0x10
 6863 0cd7 D6       		.byte	0xd6
 6864 0cd8 25000000 		.4byte	0x25
 6865 0cdc 1401     		.2byte	0x114
 6866 0cde 1A       		.uleb128 0x1a
 6867 0cdf D31B0000 		.4byte	.LASF243
 6868 0ce3 10       		.byte	0x10
ARM GAS  /tmp/ccTQOGyd.s 			page 122


 6869 0ce4 D8       		.byte	0xd8
 6870 0ce5 25000000 		.4byte	0x25
 6871 0ce9 1801     		.2byte	0x118
 6872 0ceb 1A       		.uleb128 0x1a
 6873 0cec A61B0000 		.4byte	.LASF244
 6874 0cf0 10       		.byte	0x10
 6875 0cf1 D9       		.byte	0xd9
 6876 0cf2 25000000 		.4byte	0x25
 6877 0cf6 1C01     		.2byte	0x11c
 6878 0cf8 1A       		.uleb128 0x1a
 6879 0cf9 0B070000 		.4byte	.LASF245
 6880 0cfd 10       		.byte	0x10
 6881 0cfe DA       		.byte	0xda
 6882 0cff 25000000 		.4byte	0x25
 6883 0d03 2001     		.2byte	0x120
 6884 0d05 1A       		.uleb128 0x1a
 6885 0d06 A1070000 		.4byte	.LASF246
 6886 0d0a 10       		.byte	0x10
 6887 0d0b DB       		.byte	0xdb
 6888 0d0c 25000000 		.4byte	0x25
 6889 0d10 2401     		.2byte	0x124
 6890 0d12 1A       		.uleb128 0x1a
 6891 0d13 F1090000 		.4byte	.LASF247
 6892 0d17 10       		.byte	0x10
 6893 0d18 DC       		.byte	0xdc
 6894 0d19 240E0000 		.4byte	0xe24
 6895 0d1d 2801     		.2byte	0x128
 6896 0d1f 1A       		.uleb128 0x1a
 6897 0d20 C8180000 		.4byte	.LASF248
 6898 0d24 10       		.byte	0x10
 6899 0d25 DE       		.byte	0xde
 6900 0d26 25000000 		.4byte	0x25
 6901 0d2a 2C01     		.2byte	0x12c
 6902 0d2c 1A       		.uleb128 0x1a
 6903 0d2d AE180000 		.4byte	.LASF249
 6904 0d31 10       		.byte	0x10
 6905 0d32 DF       		.byte	0xdf
 6906 0d33 25000000 		.4byte	0x25
 6907 0d37 3001     		.2byte	0x130
 6908 0d39 1A       		.uleb128 0x1a
 6909 0d3a A5180000 		.4byte	.LASF250
 6910 0d3e 10       		.byte	0x10
 6911 0d3f E0       		.byte	0xe0
 6912 0d40 25000000 		.4byte	0x25
 6913 0d44 3401     		.2byte	0x134
 6914 0d46 1A       		.uleb128 0x1a
 6915 0d47 05260000 		.4byte	.LASF251
 6916 0d4b 10       		.byte	0x10
 6917 0d4c E1       		.byte	0xe1
 6918 0d4d 25000000 		.4byte	0x25
 6919 0d51 3801     		.2byte	0x138
 6920 0d53 1A       		.uleb128 0x1a
 6921 0d54 40020000 		.4byte	.LASF252
 6922 0d58 10       		.byte	0x10
 6923 0d59 E3       		.byte	0xe3
 6924 0d5a 25000000 		.4byte	0x25
 6925 0d5e 3C01     		.2byte	0x13c
ARM GAS  /tmp/ccTQOGyd.s 			page 123


 6926 0d60 1A       		.uleb128 0x1a
 6927 0d61 480B0000 		.4byte	.LASF253
 6928 0d65 10       		.byte	0x10
 6929 0d66 E4       		.byte	0xe4
 6930 0d67 25000000 		.4byte	0x25
 6931 0d6b 4001     		.2byte	0x140
 6932 0d6d 1A       		.uleb128 0x1a
 6933 0d6e 00110000 		.4byte	.LASF254
 6934 0d72 10       		.byte	0x10
 6935 0d73 E5       		.byte	0xe5
 6936 0d74 25000000 		.4byte	0x25
 6937 0d78 4401     		.2byte	0x144
 6938 0d7a 1A       		.uleb128 0x1a
 6939 0d7b 78180000 		.4byte	.LASF255
 6940 0d7f 10       		.byte	0x10
 6941 0d80 E6       		.byte	0xe6
 6942 0d81 25000000 		.4byte	0x25
 6943 0d85 4801     		.2byte	0x148
 6944 0d87 1A       		.uleb128 0x1a
 6945 0d88 B9060000 		.4byte	.LASF256
 6946 0d8c 10       		.byte	0x10
 6947 0d8d E8       		.byte	0xe8
 6948 0d8e EB000000 		.4byte	0xeb
 6949 0d92 4C01     		.2byte	0x14c
 6950 0d94 1A       		.uleb128 0x1a
 6951 0d95 42240000 		.4byte	.LASF257
 6952 0d99 10       		.byte	0x10
 6953 0d9a E9       		.byte	0xe9
 6954 0d9b 25000000 		.4byte	0x25
 6955 0d9f 5001     		.2byte	0x150
 6956 0da1 1A       		.uleb128 0x1a
 6957 0da2 680E0000 		.4byte	.LASF258
 6958 0da6 10       		.byte	0x10
 6959 0da7 EA       		.byte	0xea
 6960 0da8 25000000 		.4byte	0x25
 6961 0dac 5401     		.2byte	0x154
 6962 0dae 1A       		.uleb128 0x1a
 6963 0daf C8270000 		.4byte	.LASF259
 6964 0db3 10       		.byte	0x10
 6965 0db4 EB       		.byte	0xeb
 6966 0db5 F6000000 		.4byte	0xf6
 6967 0db9 5801     		.2byte	0x158
 6968 0dbb 1A       		.uleb128 0x1a
 6969 0dbc 4A080000 		.4byte	.LASF260
 6970 0dc0 10       		.byte	0x10
 6971 0dc1 EC       		.byte	0xec
 6972 0dc2 C8080000 		.4byte	0x8c8
 6973 0dc6 5C01     		.2byte	0x15c
 6974 0dc8 1A       		.uleb128 0x1a
 6975 0dc9 8A0E0000 		.4byte	.LASF261
 6976 0dcd 10       		.byte	0x10
 6977 0dce ED       		.byte	0xed
 6978 0dcf 240E0000 		.4byte	0xe24
 6979 0dd3 5D01     		.2byte	0x15d
 6980 0dd5 1A       		.uleb128 0x1a
 6981 0dd6 120B0000 		.4byte	.LASF262
 6982 0dda 10       		.byte	0x10
ARM GAS  /tmp/ccTQOGyd.s 			page 124


 6983 0ddb EE       		.byte	0xee
 6984 0ddc F4080000 		.4byte	0x8f4
 6985 0de0 5E01     		.2byte	0x15e
 6986 0de2 1A       		.uleb128 0x1a
 6987 0de3 8F010000 		.4byte	.LASF263
 6988 0de7 10       		.byte	0x10
 6989 0de8 EF       		.byte	0xef
 6990 0de9 2C000000 		.4byte	0x2c
 6991 0ded 6001     		.2byte	0x160
 6992 0def 1A       		.uleb128 0x1a
 6993 0df0 AA1F0000 		.4byte	.LASF264
 6994 0df4 10       		.byte	0x10
 6995 0df5 F0       		.byte	0xf0
 6996 0df6 25000000 		.4byte	0x25
 6997 0dfa 6401     		.2byte	0x164
 6998 0dfc 1A       		.uleb128 0x1a
 6999 0dfd 17190000 		.4byte	.LASF265
 7000 0e01 10       		.byte	0x10
 7001 0e02 F1       		.byte	0xf1
 7002 0e03 25000000 		.4byte	0x25
 7003 0e07 6801     		.2byte	0x168
 7004 0e09 1A       		.uleb128 0x1a
 7005 0e0a 9B220000 		.4byte	.LASF266
 7006 0e0e 10       		.byte	0x10
 7007 0e0f F2       		.byte	0xf2
 7008 0e10 25000000 		.4byte	0x25
 7009 0e14 6C01     		.2byte	0x16c
 7010 0e16 1A       		.uleb128 0x1a
 7011 0e17 63050000 		.4byte	.LASF267
 7012 0e1b 10       		.byte	0x10
 7013 0e1c F3       		.byte	0xf3
 7014 0e1d 25000000 		.4byte	0x25
 7015 0e21 7001     		.2byte	0x170
 7016 0e23 00       		.byte	0
 7017 0e24 02       		.uleb128 0x2
 7018 0e25 01       		.byte	0x1
 7019 0e26 02       		.byte	0x2
 7020 0e27 5D010000 		.4byte	.LASF268
 7021 0e2b 15       		.uleb128 0x15
 7022 0e2c BF000000 		.4byte	0xbf
 7023 0e30 3B0E0000 		.4byte	0xe3b
 7024 0e34 16       		.uleb128 0x16
 7025 0e35 B8040000 		.4byte	0x4b8
 7026 0e39 07       		.byte	0x7
 7027 0e3a 00       		.byte	0
 7028 0e3b 15       		.uleb128 0x15
 7029 0e3c CA000000 		.4byte	0xca
 7030 0e40 4B0E0000 		.4byte	0xe4b
 7031 0e44 16       		.uleb128 0x16
 7032 0e45 B8040000 		.4byte	0x4b8
 7033 0e49 07       		.byte	0x7
 7034 0e4a 00       		.byte	0
 7035 0e4b 04       		.uleb128 0x4
 7036 0e4c 53240000 		.4byte	.LASF269
 7037 0e50 10       		.byte	0x10
 7038 0e51 F4       		.byte	0xf4
 7039 0e52 6F090000 		.4byte	0x96f
ARM GAS  /tmp/ccTQOGyd.s 			page 125


 7040 0e56 17       		.uleb128 0x17
 7041 0e57 01       		.byte	0x1
 7042 0e58 10       		.byte	0x10
 7043 0e59 F7       		.byte	0xf7
 7044 0e5a 950E0000 		.4byte	0xe95
 7045 0e5e 18       		.uleb128 0x18
 7046 0e5f F9180000 		.4byte	.LASF270
 7047 0e63 00       		.sleb128 0
 7048 0e64 18       		.uleb128 0x18
 7049 0e65 CC0C0000 		.4byte	.LASF271
 7050 0e69 01       		.sleb128 1
 7051 0e6a 18       		.uleb128 0x18
 7052 0e6b D21A0000 		.4byte	.LASF272
 7053 0e6f 02       		.sleb128 2
 7054 0e70 18       		.uleb128 0x18
 7055 0e71 BD1D0000 		.4byte	.LASF273
 7056 0e75 03       		.sleb128 3
 7057 0e76 18       		.uleb128 0x18
 7058 0e77 1E1A0000 		.4byte	.LASF274
 7059 0e7b 04       		.sleb128 4
 7060 0e7c 18       		.uleb128 0x18
 7061 0e7d EB1D0000 		.4byte	.LASF275
 7062 0e81 05       		.sleb128 5
 7063 0e82 18       		.uleb128 0x18
 7064 0e83 6B0C0000 		.4byte	.LASF276
 7065 0e87 06       		.sleb128 6
 7066 0e88 18       		.uleb128 0x18
 7067 0e89 CA1A0000 		.4byte	.LASF277
 7068 0e8d 07       		.sleb128 7
 7069 0e8e 18       		.uleb128 0x18
 7070 0e8f E41C0000 		.4byte	.LASF278
 7071 0e93 08       		.sleb128 8
 7072 0e94 00       		.byte	0
 7073 0e95 1B       		.uleb128 0x1b
 7074 0e96 9D040000 		.4byte	.LASF279
 7075 0e9a 10       		.byte	0x10
 7076 0e9b 0101     		.2byte	0x101
 7077 0e9d 560E0000 		.4byte	0xe56
 7078 0ea1 1C       		.uleb128 0x1c
 7079 0ea2 01       		.byte	0x1
 7080 0ea3 10       		.byte	0x10
 7081 0ea4 0401     		.2byte	0x104
 7082 0ea6 BD0E0000 		.4byte	0xebd
 7083 0eaa 18       		.uleb128 0x18
 7084 0eab 65130000 		.4byte	.LASF280
 7085 0eaf 00       		.sleb128 0
 7086 0eb0 18       		.uleb128 0x18
 7087 0eb1 0C080000 		.4byte	.LASF281
 7088 0eb5 01       		.sleb128 1
 7089 0eb6 18       		.uleb128 0x18
 7090 0eb7 2F230000 		.4byte	.LASF282
 7091 0ebb 02       		.sleb128 2
 7092 0ebc 00       		.byte	0
 7093 0ebd 1B       		.uleb128 0x1b
 7094 0ebe 58140000 		.4byte	.LASF283
 7095 0ec2 10       		.byte	0x10
 7096 0ec3 0801     		.2byte	0x108
ARM GAS  /tmp/ccTQOGyd.s 			page 126


 7097 0ec5 A10E0000 		.4byte	0xea1
 7098 0ec9 1C       		.uleb128 0x1c
 7099 0eca 01       		.byte	0x1
 7100 0ecb 10       		.byte	0x10
 7101 0ecc 0B01     		.2byte	0x10b
 7102 0ece 030F0000 		.4byte	0xf03
 7103 0ed2 18       		.uleb128 0x18
 7104 0ed3 6F000000 		.4byte	.LASF284
 7105 0ed7 00       		.sleb128 0
 7106 0ed8 18       		.uleb128 0x18
 7107 0ed9 88120000 		.4byte	.LASF285
 7108 0edd 01       		.sleb128 1
 7109 0ede 18       		.uleb128 0x18
 7110 0edf 9D260000 		.4byte	.LASF286
 7111 0ee3 02       		.sleb128 2
 7112 0ee4 18       		.uleb128 0x18
 7113 0ee5 B6150000 		.4byte	.LASF287
 7114 0ee9 03       		.sleb128 3
 7115 0eea 18       		.uleb128 0x18
 7116 0eeb 88220000 		.4byte	.LASF288
 7117 0eef 04       		.sleb128 4
 7118 0ef0 18       		.uleb128 0x18
 7119 0ef1 89200000 		.4byte	.LASF289
 7120 0ef5 05       		.sleb128 5
 7121 0ef6 18       		.uleb128 0x18
 7122 0ef7 0A170000 		.4byte	.LASF290
 7123 0efb 06       		.sleb128 6
 7124 0efc 18       		.uleb128 0x18
 7125 0efd 32060000 		.4byte	.LASF291
 7126 0f01 07       		.sleb128 7
 7127 0f02 00       		.byte	0
 7128 0f03 1B       		.uleb128 0x1b
 7129 0f04 460D0000 		.4byte	.LASF292
 7130 0f08 10       		.byte	0x10
 7131 0f09 1401     		.2byte	0x114
 7132 0f0b C90E0000 		.4byte	0xec9
 7133 0f0f 1D       		.uleb128 0x1d
 7134 0f10 38       		.byte	0x38
 7135 0f11 10       		.byte	0x10
 7136 0f12 1601     		.2byte	0x116
 7137 0f14 E80F0000 		.4byte	0xfe8
 7138 0f18 09       		.uleb128 0x9
 7139 0f19 23000000 		.4byte	.LASF293
 7140 0f1d 10       		.byte	0x10
 7141 0f1e 1701     		.2byte	0x117
 7142 0f20 030F0000 		.4byte	0xf03
 7143 0f24 00       		.byte	0
 7144 0f25 09       		.uleb128 0x9
 7145 0f26 0A250000 		.4byte	.LASF294
 7146 0f2a 10       		.byte	0x10
 7147 0f2b 1801     		.2byte	0x118
 7148 0f2d 25000000 		.4byte	0x25
 7149 0f31 04       		.byte	0x4
 7150 0f32 09       		.uleb128 0x9
 7151 0f33 58010000 		.4byte	.LASF295
 7152 0f37 10       		.byte	0x10
 7153 0f38 1901     		.2byte	0x119
ARM GAS  /tmp/ccTQOGyd.s 			page 127


 7154 0f3a 25000000 		.4byte	0x25
 7155 0f3e 08       		.byte	0x8
 7156 0f3f 09       		.uleb128 0x9
 7157 0f40 62260000 		.4byte	.LASF296
 7158 0f44 10       		.byte	0x10
 7159 0f45 1A01     		.2byte	0x11a
 7160 0f47 25000000 		.4byte	0x25
 7161 0f4b 0C       		.byte	0xc
 7162 0f4c 09       		.uleb128 0x9
 7163 0f4d 570B0000 		.4byte	.LASF297
 7164 0f51 10       		.byte	0x10
 7165 0f52 1B01     		.2byte	0x11b
 7166 0f54 25000000 		.4byte	0x25
 7167 0f58 10       		.byte	0x10
 7168 0f59 09       		.uleb128 0x9
 7169 0f5a 7C130000 		.4byte	.LASF298
 7170 0f5e 10       		.byte	0x10
 7171 0f5f 1C01     		.2byte	0x11c
 7172 0f61 25000000 		.4byte	0x25
 7173 0f65 14       		.byte	0x14
 7174 0f66 09       		.uleb128 0x9
 7175 0f67 1C080000 		.4byte	.LASF299
 7176 0f6b 10       		.byte	0x10
 7177 0f6c 1D01     		.2byte	0x11d
 7178 0f6e 240E0000 		.4byte	0xe24
 7179 0f72 18       		.byte	0x18
 7180 0f73 09       		.uleb128 0x9
 7181 0f74 31200000 		.4byte	.LASF300
 7182 0f78 10       		.byte	0x10
 7183 0f79 1E01     		.2byte	0x11e
 7184 0f7b 240E0000 		.4byte	0xe24
 7185 0f7f 19       		.byte	0x19
 7186 0f80 09       		.uleb128 0x9
 7187 0f81 FD160000 		.4byte	.LASF301
 7188 0f85 10       		.byte	0x10
 7189 0f86 1F01     		.2byte	0x11f
 7190 0f88 25000000 		.4byte	0x25
 7191 0f8c 1C       		.byte	0x1c
 7192 0f8d 09       		.uleb128 0x9
 7193 0f8e 321C0000 		.4byte	.LASF302
 7194 0f92 10       		.byte	0x10
 7195 0f93 2001     		.2byte	0x120
 7196 0f95 25000000 		.4byte	0x25
 7197 0f99 20       		.byte	0x20
 7198 0f9a 09       		.uleb128 0x9
 7199 0f9b BB050000 		.4byte	.LASF303
 7200 0f9f 10       		.byte	0x10
 7201 0fa0 2101     		.2byte	0x121
 7202 0fa2 BD0E0000 		.4byte	0xebd
 7203 0fa6 24       		.byte	0x24
 7204 0fa7 09       		.uleb128 0x9
 7205 0fa8 DC190000 		.4byte	.LASF304
 7206 0fac 10       		.byte	0x10
 7207 0fad 2201     		.2byte	0x122
 7208 0faf 25000000 		.4byte	0x25
 7209 0fb3 28       		.byte	0x28
 7210 0fb4 09       		.uleb128 0x9
ARM GAS  /tmp/ccTQOGyd.s 			page 128


 7211 0fb5 900A0000 		.4byte	.LASF305
 7212 0fb9 10       		.byte	0x10
 7213 0fba 2301     		.2byte	0x123
 7214 0fbc 25000000 		.4byte	0x25
 7215 0fc0 2C       		.byte	0x2c
 7216 0fc1 09       		.uleb128 0x9
 7217 0fc2 E7020000 		.4byte	.LASF306
 7218 0fc6 10       		.byte	0x10
 7219 0fc7 2401     		.2byte	0x124
 7220 0fc9 240E0000 		.4byte	0xe24
 7221 0fcd 30       		.byte	0x30
 7222 0fce 08       		.uleb128 0x8
 7223 0fcf 746300   		.ascii	"tc\000"
 7224 0fd2 10       		.byte	0x10
 7225 0fd3 2501     		.2byte	0x125
 7226 0fd5 240E0000 		.4byte	0xe24
 7227 0fd9 31       		.byte	0x31
 7228 0fda 09       		.uleb128 0x9
 7229 0fdb 19050000 		.4byte	.LASF307
 7230 0fdf 10       		.byte	0x10
 7231 0fe0 2601     		.2byte	0x126
 7232 0fe2 25000000 		.4byte	0x25
 7233 0fe6 34       		.byte	0x34
 7234 0fe7 00       		.byte	0
 7235 0fe8 1B       		.uleb128 0x1b
 7236 0fe9 19060000 		.4byte	.LASF308
 7237 0fed 10       		.byte	0x10
 7238 0fee 2701     		.2byte	0x127
 7239 0ff0 0F0F0000 		.4byte	0xf0f
 7240 0ff4 1C       		.uleb128 0x1c
 7241 0ff5 01       		.byte	0x1
 7242 0ff6 10       		.byte	0x10
 7243 0ff7 2A01     		.2byte	0x12a
 7244 0ff9 52100000 		.4byte	0x1052
 7245 0ffd 18       		.uleb128 0x18
 7246 0ffe 731F0000 		.4byte	.LASF309
 7247 1002 00       		.sleb128 0
 7248 1003 18       		.uleb128 0x18
 7249 1004 9A240000 		.4byte	.LASF310
 7250 1008 01       		.sleb128 1
 7251 1009 18       		.uleb128 0x18
 7252 100a A10B0000 		.4byte	.LASF311
 7253 100e 02       		.sleb128 2
 7254 100f 18       		.uleb128 0x18
 7255 1010 480A0000 		.4byte	.LASF312
 7256 1014 03       		.sleb128 3
 7257 1015 18       		.uleb128 0x18
 7258 1016 760B0000 		.4byte	.LASF313
 7259 101a 04       		.sleb128 4
 7260 101b 18       		.uleb128 0x18
 7261 101c 91100000 		.4byte	.LASF314
 7262 1020 05       		.sleb128 5
 7263 1021 18       		.uleb128 0x18
 7264 1022 F9020000 		.4byte	.LASF315
 7265 1026 06       		.sleb128 6
 7266 1027 18       		.uleb128 0x18
 7267 1028 0B270000 		.4byte	.LASF316
ARM GAS  /tmp/ccTQOGyd.s 			page 129


 7268 102c 07       		.sleb128 7
 7269 102d 18       		.uleb128 0x18
 7270 102e 53180000 		.4byte	.LASF317
 7271 1032 08       		.sleb128 8
 7272 1033 18       		.uleb128 0x18
 7273 1034 280D0000 		.4byte	.LASF318
 7274 1038 09       		.sleb128 9
 7275 1039 18       		.uleb128 0x18
 7276 103a 42110000 		.4byte	.LASF319
 7277 103e 0A       		.sleb128 10
 7278 103f 18       		.uleb128 0x18
 7279 1040 30250000 		.4byte	.LASF320
 7280 1044 0B       		.sleb128 11
 7281 1045 18       		.uleb128 0x18
 7282 1046 FC220000 		.4byte	.LASF321
 7283 104a 0C       		.sleb128 12
 7284 104b 18       		.uleb128 0x18
 7285 104c 9A130000 		.4byte	.LASF322
 7286 1050 0D       		.sleb128 13
 7287 1051 00       		.byte	0
 7288 1052 1B       		.uleb128 0x1b
 7289 1053 851B0000 		.4byte	.LASF323
 7290 1057 10       		.byte	0x10
 7291 1058 3901     		.2byte	0x139
 7292 105a F40F0000 		.4byte	0xff4
 7293 105e 1D       		.uleb128 0x1d
 7294 105f 44       		.byte	0x44
 7295 1060 10       		.byte	0x10
 7296 1061 3B01     		.2byte	0x13b
 7297 1063 85110000 		.4byte	0x1185
 7298 1067 09       		.uleb128 0x9
 7299 1068 23000000 		.4byte	.LASF293
 7300 106c 10       		.byte	0x10
 7301 106d 3C01     		.2byte	0x13c
 7302 106f 52100000 		.4byte	0x1052
 7303 1073 00       		.byte	0
 7304 1074 09       		.uleb128 0x9
 7305 1075 58010000 		.4byte	.LASF295
 7306 1079 10       		.byte	0x10
 7307 107a 3D01     		.2byte	0x13d
 7308 107c 25000000 		.4byte	0x25
 7309 1080 04       		.byte	0x4
 7310 1081 09       		.uleb128 0x9
 7311 1082 4A060000 		.4byte	.LASF324
 7312 1086 10       		.byte	0x10
 7313 1087 3E01     		.2byte	0x13e
 7314 1089 25000000 		.4byte	0x25
 7315 108d 08       		.byte	0x8
 7316 108e 09       		.uleb128 0x9
 7317 108f 45190000 		.4byte	.LASF325
 7318 1093 10       		.byte	0x10
 7319 1094 3F01     		.2byte	0x13f
 7320 1096 25000000 		.4byte	0x25
 7321 109a 0C       		.byte	0xc
 7322 109b 09       		.uleb128 0x9
 7323 109c 51200000 		.4byte	.LASF326
 7324 10a0 10       		.byte	0x10
ARM GAS  /tmp/ccTQOGyd.s 			page 130


 7325 10a1 4001     		.2byte	0x140
 7326 10a3 25000000 		.4byte	0x25
 7327 10a7 10       		.byte	0x10
 7328 10a8 09       		.uleb128 0x9
 7329 10a9 F2050000 		.4byte	.LASF327
 7330 10ad 10       		.byte	0x10
 7331 10ae 4101     		.2byte	0x141
 7332 10b0 25000000 		.4byte	0x25
 7333 10b4 14       		.byte	0x14
 7334 10b5 09       		.uleb128 0x9
 7335 10b6 46180000 		.4byte	.LASF328
 7336 10ba 10       		.byte	0x10
 7337 10bb 4201     		.2byte	0x142
 7338 10bd 25000000 		.4byte	0x25
 7339 10c1 18       		.byte	0x18
 7340 10c2 09       		.uleb128 0x9
 7341 10c3 15240000 		.4byte	.LASF329
 7342 10c7 10       		.byte	0x10
 7343 10c8 4301     		.2byte	0x143
 7344 10ca 240E0000 		.4byte	0xe24
 7345 10ce 1C       		.byte	0x1c
 7346 10cf 09       		.uleb128 0x9
 7347 10d0 31200000 		.4byte	.LASF300
 7348 10d4 10       		.byte	0x10
 7349 10d5 4401     		.2byte	0x144
 7350 10d7 240E0000 		.4byte	0xe24
 7351 10db 1D       		.byte	0x1d
 7352 10dc 09       		.uleb128 0x9
 7353 10dd 63010000 		.4byte	.LASF330
 7354 10e1 10       		.byte	0x10
 7355 10e2 4501     		.2byte	0x145
 7356 10e4 240E0000 		.4byte	0xe24
 7357 10e8 1E       		.byte	0x1e
 7358 10e9 09       		.uleb128 0x9
 7359 10ea 211E0000 		.4byte	.LASF331
 7360 10ee 10       		.byte	0x10
 7361 10ef 4601     		.2byte	0x146
 7362 10f1 240E0000 		.4byte	0xe24
 7363 10f5 1F       		.byte	0x1f
 7364 10f6 09       		.uleb128 0x9
 7365 10f7 A0010000 		.4byte	.LASF332
 7366 10fb 10       		.byte	0x10
 7367 10fc 4701     		.2byte	0x147
 7368 10fe 240E0000 		.4byte	0xe24
 7369 1102 20       		.byte	0x20
 7370 1103 09       		.uleb128 0x9
 7371 1104 6C080000 		.4byte	.LASF333
 7372 1108 10       		.byte	0x10
 7373 1109 4801     		.2byte	0x148
 7374 110b 240E0000 		.4byte	0xe24
 7375 110f 21       		.byte	0x21
 7376 1110 09       		.uleb128 0x9
 7377 1111 FD160000 		.4byte	.LASF301
 7378 1115 10       		.byte	0x10
 7379 1116 4901     		.2byte	0x149
 7380 1118 25000000 		.4byte	0x25
 7381 111c 24       		.byte	0x24
ARM GAS  /tmp/ccTQOGyd.s 			page 131


 7382 111d 09       		.uleb128 0x9
 7383 111e 321C0000 		.4byte	.LASF302
 7384 1122 10       		.byte	0x10
 7385 1123 4A01     		.2byte	0x14a
 7386 1125 25000000 		.4byte	0x25
 7387 1129 28       		.byte	0x28
 7388 112a 09       		.uleb128 0x9
 7389 112b BB050000 		.4byte	.LASF303
 7390 112f 10       		.byte	0x10
 7391 1130 4B01     		.2byte	0x14b
 7392 1132 BD0E0000 		.4byte	0xebd
 7393 1136 2C       		.byte	0x2c
 7394 1137 09       		.uleb128 0x9
 7395 1138 DC190000 		.4byte	.LASF304
 7396 113c 10       		.byte	0x10
 7397 113d 4C01     		.2byte	0x14c
 7398 113f 25000000 		.4byte	0x25
 7399 1143 30       		.byte	0x30
 7400 1144 09       		.uleb128 0x9
 7401 1145 900A0000 		.4byte	.LASF305
 7402 1149 10       		.byte	0x10
 7403 114a 4D01     		.2byte	0x14d
 7404 114c 25000000 		.4byte	0x25
 7405 1150 34       		.byte	0x34
 7406 1151 09       		.uleb128 0x9
 7407 1152 E7020000 		.4byte	.LASF306
 7408 1156 10       		.byte	0x10
 7409 1157 4E01     		.2byte	0x14e
 7410 1159 240E0000 		.4byte	0xe24
 7411 115d 38       		.byte	0x38
 7412 115e 08       		.uleb128 0x8
 7413 115f 746300   		.ascii	"tc\000"
 7414 1162 10       		.byte	0x10
 7415 1163 4F01     		.2byte	0x14f
 7416 1165 240E0000 		.4byte	0xe24
 7417 1169 39       		.byte	0x39
 7418 116a 09       		.uleb128 0x9
 7419 116b 19050000 		.4byte	.LASF307
 7420 116f 10       		.byte	0x10
 7421 1170 5001     		.2byte	0x150
 7422 1172 25000000 		.4byte	0x25
 7423 1176 3C       		.byte	0x3c
 7424 1177 09       		.uleb128 0x9
 7425 1178 A1080000 		.4byte	.LASF334
 7426 117c 10       		.byte	0x10
 7427 117d 5101     		.2byte	0x151
 7428 117f F6000000 		.4byte	0xf6
 7429 1183 40       		.byte	0x40
 7430 1184 00       		.byte	0
 7431 1185 1B       		.uleb128 0x1b
 7432 1186 A8060000 		.4byte	.LASF335
 7433 118a 10       		.byte	0x10
 7434 118b 5201     		.2byte	0x152
 7435 118d 5E100000 		.4byte	0x105e
 7436 1191 1C       		.uleb128 0x1c
 7437 1192 01       		.byte	0x1
 7438 1193 10       		.byte	0x10
ARM GAS  /tmp/ccTQOGyd.s 			page 132


 7439 1194 5501     		.2byte	0x155
 7440 1196 AD110000 		.4byte	0x11ad
 7441 119a 18       		.uleb128 0x18
 7442 119b F5150000 		.4byte	.LASF336
 7443 119f 00       		.sleb128 0
 7444 11a0 18       		.uleb128 0x18
 7445 11a1 00000000 		.4byte	.LASF337
 7446 11a5 01       		.sleb128 1
 7447 11a6 18       		.uleb128 0x18
 7448 11a7 D8150000 		.4byte	.LASF338
 7449 11ab 02       		.sleb128 2
 7450 11ac 00       		.byte	0
 7451 11ad 1B       		.uleb128 0x1b
 7452 11ae 64160000 		.4byte	.LASF339
 7453 11b2 10       		.byte	0x10
 7454 11b3 5901     		.2byte	0x159
 7455 11b5 91110000 		.4byte	0x1191
 7456 11b9 1D       		.uleb128 0x1d
 7457 11ba 24       		.byte	0x24
 7458 11bb 10       		.byte	0x10
 7459 11bc 5B01     		.2byte	0x15b
 7460 11be 51120000 		.4byte	0x1251
 7461 11c2 09       		.uleb128 0x9
 7462 11c3 23000000 		.4byte	.LASF293
 7463 11c7 10       		.byte	0x10
 7464 11c8 5C01     		.2byte	0x15c
 7465 11ca AD110000 		.4byte	0x11ad
 7466 11ce 00       		.byte	0
 7467 11cf 09       		.uleb128 0x9
 7468 11d0 58010000 		.4byte	.LASF295
 7469 11d4 10       		.byte	0x10
 7470 11d5 5D01     		.2byte	0x15d
 7471 11d7 25000000 		.4byte	0x25
 7472 11db 04       		.byte	0x4
 7473 11dc 09       		.uleb128 0x9
 7474 11dd DC190000 		.4byte	.LASF304
 7475 11e1 10       		.byte	0x10
 7476 11e2 5E01     		.2byte	0x15e
 7477 11e4 25000000 		.4byte	0x25
 7478 11e8 08       		.byte	0x8
 7479 11e9 09       		.uleb128 0x9
 7480 11ea 900A0000 		.4byte	.LASF305
 7481 11ee 10       		.byte	0x10
 7482 11ef 5F01     		.2byte	0x15f
 7483 11f1 25000000 		.4byte	0x25
 7484 11f5 0C       		.byte	0xc
 7485 11f6 09       		.uleb128 0x9
 7486 11f7 FD080000 		.4byte	.LASF340
 7487 11fb 10       		.byte	0x10
 7488 11fc 6001     		.2byte	0x160
 7489 11fe 25000000 		.4byte	0x25
 7490 1202 10       		.byte	0x10
 7491 1203 09       		.uleb128 0x9
 7492 1204 FD160000 		.4byte	.LASF301
 7493 1208 10       		.byte	0x10
 7494 1209 6101     		.2byte	0x161
 7495 120b 25000000 		.4byte	0x25
ARM GAS  /tmp/ccTQOGyd.s 			page 133


 7496 120f 14       		.byte	0x14
 7497 1210 09       		.uleb128 0x9
 7498 1211 321C0000 		.4byte	.LASF302
 7499 1215 10       		.byte	0x10
 7500 1216 6201     		.2byte	0x162
 7501 1218 25000000 		.4byte	0x25
 7502 121c 18       		.byte	0x18
 7503 121d 09       		.uleb128 0x9
 7504 121e BB050000 		.4byte	.LASF303
 7505 1222 10       		.byte	0x10
 7506 1223 6301     		.2byte	0x163
 7507 1225 BD0E0000 		.4byte	0xebd
 7508 1229 1C       		.byte	0x1c
 7509 122a 09       		.uleb128 0x9
 7510 122b E7020000 		.4byte	.LASF306
 7511 122f 10       		.byte	0x10
 7512 1230 6401     		.2byte	0x164
 7513 1232 240E0000 		.4byte	0xe24
 7514 1236 1D       		.byte	0x1d
 7515 1237 08       		.uleb128 0x8
 7516 1238 746300   		.ascii	"tc\000"
 7517 123b 10       		.byte	0x10
 7518 123c 6501     		.2byte	0x165
 7519 123e 240E0000 		.4byte	0xe24
 7520 1242 1E       		.byte	0x1e
 7521 1243 09       		.uleb128 0x9
 7522 1244 19050000 		.4byte	.LASF307
 7523 1248 10       		.byte	0x10
 7524 1249 6601     		.2byte	0x166
 7525 124b 25000000 		.4byte	0x25
 7526 124f 20       		.byte	0x20
 7527 1250 00       		.byte	0
 7528 1251 1B       		.uleb128 0x1b
 7529 1252 671F0000 		.4byte	.LASF341
 7530 1256 10       		.byte	0x10
 7531 1257 6701     		.2byte	0x167
 7532 1259 B9110000 		.4byte	0x11b9
 7533 125d 1C       		.uleb128 0x1c
 7534 125e 01       		.byte	0x1
 7535 125f 10       		.byte	0x10
 7536 1260 6A01     		.2byte	0x16a
 7537 1262 79120000 		.4byte	0x1279
 7538 1266 18       		.uleb128 0x18
 7539 1267 9A150000 		.4byte	.LASF342
 7540 126b 00       		.sleb128 0
 7541 126c 18       		.uleb128 0x18
 7542 126d 5A1C0000 		.4byte	.LASF343
 7543 1271 01       		.sleb128 1
 7544 1272 18       		.uleb128 0x18
 7545 1273 971D0000 		.4byte	.LASF344
 7546 1277 02       		.sleb128 2
 7547 1278 00       		.byte	0
 7548 1279 1B       		.uleb128 0x1b
 7549 127a 860A0000 		.4byte	.LASF345
 7550 127e 10       		.byte	0x10
 7551 127f 6E01     		.2byte	0x16e
 7552 1281 5D120000 		.4byte	0x125d
ARM GAS  /tmp/ccTQOGyd.s 			page 134


 7553 1285 1C       		.uleb128 0x1c
 7554 1286 01       		.byte	0x1
 7555 1287 10       		.byte	0x10
 7556 1288 7001     		.2byte	0x170
 7557 128a A7120000 		.4byte	0x12a7
 7558 128e 18       		.uleb128 0x18
 7559 128f F7010000 		.4byte	.LASF346
 7560 1293 00       		.sleb128 0
 7561 1294 18       		.uleb128 0x18
 7562 1295 41050000 		.4byte	.LASF347
 7563 1299 01       		.sleb128 1
 7564 129a 18       		.uleb128 0x18
 7565 129b DE070000 		.4byte	.LASF348
 7566 129f 02       		.sleb128 2
 7567 12a0 18       		.uleb128 0x18
 7568 12a1 37030000 		.4byte	.LASF349
 7569 12a5 03       		.sleb128 3
 7570 12a6 00       		.byte	0
 7571 12a7 1B       		.uleb128 0x1b
 7572 12a8 E3170000 		.4byte	.LASF350
 7573 12ac 10       		.byte	0x10
 7574 12ad 7501     		.2byte	0x175
 7575 12af 85120000 		.4byte	0x1285
 7576 12b3 1C       		.uleb128 0x1c
 7577 12b4 01       		.byte	0x1
 7578 12b5 10       		.byte	0x10
 7579 12b6 7D01     		.2byte	0x17d
 7580 12b8 CF120000 		.4byte	0x12cf
 7581 12bc 18       		.uleb128 0x18
 7582 12bd B7180000 		.4byte	.LASF351
 7583 12c1 00       		.sleb128 0
 7584 12c2 18       		.uleb128 0x18
 7585 12c3 BB240000 		.4byte	.LASF352
 7586 12c7 01       		.sleb128 1
 7587 12c8 18       		.uleb128 0x18
 7588 12c9 7B250000 		.4byte	.LASF353
 7589 12cd 02       		.sleb128 2
 7590 12ce 00       		.byte	0
 7591 12cf 1B       		.uleb128 0x1b
 7592 12d0 E2050000 		.4byte	.LASF354
 7593 12d4 10       		.byte	0x10
 7594 12d5 8101     		.2byte	0x181
 7595 12d7 B3120000 		.4byte	0x12b3
 7596 12db 1C       		.uleb128 0x1c
 7597 12dc 01       		.byte	0x1
 7598 12dd 10       		.byte	0x10
 7599 12de 8301     		.2byte	0x183
 7600 12e0 45130000 		.4byte	0x1345
 7601 12e4 18       		.uleb128 0x18
 7602 12e5 1B150000 		.4byte	.LASF355
 7603 12e9 00       		.sleb128 0
 7604 12ea 18       		.uleb128 0x18
 7605 12eb 22030000 		.4byte	.LASF356
 7606 12ef 01       		.sleb128 1
 7607 12f0 18       		.uleb128 0x18
 7608 12f1 26010000 		.4byte	.LASF357
 7609 12f5 02       		.sleb128 2
ARM GAS  /tmp/ccTQOGyd.s 			page 135


 7610 12f6 18       		.uleb128 0x18
 7611 12f7 E3230000 		.4byte	.LASF358
 7612 12fb 03       		.sleb128 3
 7613 12fc 18       		.uleb128 0x18
 7614 12fd 98250000 		.4byte	.LASF359
 7615 1301 04       		.sleb128 4
 7616 1302 18       		.uleb128 0x18
 7617 1303 08110000 		.4byte	.LASF360
 7618 1307 05       		.sleb128 5
 7619 1308 18       		.uleb128 0x18
 7620 1309 52120000 		.4byte	.LASF361
 7621 130d 06       		.sleb128 6
 7622 130e 18       		.uleb128 0x18
 7623 130f E1220000 		.4byte	.LASF362
 7624 1313 07       		.sleb128 7
 7625 1314 18       		.uleb128 0x18
 7626 1315 DB240000 		.4byte	.LASF363
 7627 1319 08       		.sleb128 8
 7628 131a 18       		.uleb128 0x18
 7629 131b A90D0000 		.4byte	.LASF364
 7630 131f 09       		.sleb128 9
 7631 1320 18       		.uleb128 0x18
 7632 1321 F2110000 		.4byte	.LASF365
 7633 1325 0A       		.sleb128 10
 7634 1326 18       		.uleb128 0x18
 7635 1327 3F220000 		.4byte	.LASF366
 7636 132b 0B       		.sleb128 11
 7637 132c 18       		.uleb128 0x18
 7638 132d 64240000 		.4byte	.LASF367
 7639 1331 0C       		.sleb128 12
 7640 1332 18       		.uleb128 0x18
 7641 1333 42100000 		.4byte	.LASF368
 7642 1337 0D       		.sleb128 13
 7643 1338 18       		.uleb128 0x18
 7644 1339 F4190000 		.4byte	.LASF369
 7645 133d 0E       		.sleb128 14
 7646 133e 18       		.uleb128 0x18
 7647 133f 4E090000 		.4byte	.LASF370
 7648 1343 0F       		.sleb128 15
 7649 1344 00       		.byte	0
 7650 1345 1B       		.uleb128 0x1b
 7651 1346 DA030000 		.4byte	.LASF371
 7652 134a 10       		.byte	0x10
 7653 134b 9401     		.2byte	0x194
 7654 134d DB120000 		.4byte	0x12db
 7655 1351 1D       		.uleb128 0x1d
 7656 1352 0A       		.byte	0xa
 7657 1353 10       		.byte	0x10
 7658 1354 9601     		.2byte	0x196
 7659 1356 C3130000 		.4byte	0x13c3
 7660 135a 09       		.uleb128 0x9
 7661 135b F21E0000 		.4byte	.LASF372
 7662 135f 10       		.byte	0x10
 7663 1360 9701     		.2byte	0x197
 7664 1362 79120000 		.4byte	0x1279
 7665 1366 00       		.byte	0
 7666 1367 09       		.uleb128 0x9
ARM GAS  /tmp/ccTQOGyd.s 			page 136


 7667 1368 F3180000 		.4byte	.LASF373
 7668 136c 10       		.byte	0x10
 7669 136d 9801     		.2byte	0x198
 7670 136f A7120000 		.4byte	0x12a7
 7671 1373 01       		.byte	0x1
 7672 1374 09       		.uleb128 0x9
 7673 1375 2F160000 		.4byte	.LASF374
 7674 1379 10       		.byte	0x10
 7675 137a 9901     		.2byte	0x199
 7676 137c CF120000 		.4byte	0x12cf
 7677 1380 02       		.byte	0x2
 7678 1381 09       		.uleb128 0x9
 7679 1382 4B250000 		.4byte	.LASF375
 7680 1386 10       		.byte	0x10
 7681 1387 9A01     		.2byte	0x19a
 7682 1389 45130000 		.4byte	0x1345
 7683 138d 03       		.byte	0x3
 7684 138e 09       		.uleb128 0x9
 7685 138f F1020000 		.4byte	.LASF376
 7686 1393 10       		.byte	0x10
 7687 1394 9B01     		.2byte	0x19b
 7688 1396 50000000 		.4byte	0x50
 7689 139a 04       		.byte	0x4
 7690 139b 09       		.uleb128 0x9
 7691 139c D9100000 		.4byte	.LASF377
 7692 13a0 10       		.byte	0x10
 7693 13a1 9C01     		.2byte	0x19c
 7694 13a3 50000000 		.4byte	0x50
 7695 13a7 05       		.byte	0x5
 7696 13a8 09       		.uleb128 0x9
 7697 13a9 72100000 		.4byte	.LASF378
 7698 13ad 10       		.byte	0x10
 7699 13ae 9D01     		.2byte	0x19d
 7700 13b0 C3130000 		.4byte	0x13c3
 7701 13b4 06       		.byte	0x6
 7702 13b5 09       		.uleb128 0x9
 7703 13b6 B50C0000 		.4byte	.LASF379
 7704 13ba 10       		.byte	0x10
 7705 13bb 9E01     		.2byte	0x19e
 7706 13bd 240E0000 		.4byte	0xe24
 7707 13c1 09       		.byte	0x9
 7708 13c2 00       		.byte	0
 7709 13c3 15       		.uleb128 0x15
 7710 13c4 50000000 		.4byte	0x50
 7711 13c8 D3130000 		.4byte	0x13d3
 7712 13cc 16       		.uleb128 0x16
 7713 13cd B8040000 		.4byte	0x4b8
 7714 13d1 02       		.byte	0x2
 7715 13d2 00       		.byte	0
 7716 13d3 1B       		.uleb128 0x1b
 7717 13d4 D3070000 		.4byte	.LASF380
 7718 13d8 10       		.byte	0x10
 7719 13d9 9F01     		.2byte	0x19f
 7720 13db 51130000 		.4byte	0x1351
 7721 13df 1D       		.uleb128 0x1d
 7722 13e0 C8       		.byte	0xc8
 7723 13e1 10       		.byte	0x10
ARM GAS  /tmp/ccTQOGyd.s 			page 137


 7724 13e2 A101     		.2byte	0x1a1
 7725 13e4 85140000 		.4byte	0x1485
 7726 13e8 09       		.uleb128 0x9
 7727 13e9 13260000 		.4byte	.LASF381
 7728 13ed 10       		.byte	0x10
 7729 13ee A301     		.2byte	0x1a3
 7730 13f0 CA000000 		.4byte	0xca
 7731 13f4 00       		.byte	0
 7732 13f5 09       		.uleb128 0x9
 7733 13f6 FB0B0000 		.4byte	.LASF382
 7734 13fa 10       		.byte	0x10
 7735 13fb A401     		.2byte	0x1a4
 7736 13fd F6000000 		.4byte	0xf6
 7737 1401 04       		.byte	0x4
 7738 1402 09       		.uleb128 0x9
 7739 1403 08130000 		.4byte	.LASF383
 7740 1407 10       		.byte	0x10
 7741 1408 A501     		.2byte	0x1a5
 7742 140a 25000000 		.4byte	0x25
 7743 140e 08       		.byte	0x8
 7744 140f 09       		.uleb128 0x9
 7745 1410 2D0C0000 		.4byte	.LASF384
 7746 1414 10       		.byte	0x10
 7747 1415 A601     		.2byte	0x1a6
 7748 1417 240E0000 		.4byte	0xe24
 7749 141b 0C       		.byte	0xc
 7750 141c 09       		.uleb128 0x9
 7751 141d C7250000 		.4byte	.LASF385
 7752 1421 10       		.byte	0x10
 7753 1422 A701     		.2byte	0x1a7
 7754 1424 F6000000 		.4byte	0xf6
 7755 1428 10       		.byte	0x10
 7756 1429 09       		.uleb128 0x9
 7757 142a 6D250000 		.4byte	.LASF386
 7758 142e 10       		.byte	0x10
 7759 142f A801     		.2byte	0x1a8
 7760 1431 64090000 		.4byte	0x964
 7761 1435 14       		.byte	0x14
 7762 1436 09       		.uleb128 0x9
 7763 1437 F0130000 		.4byte	.LASF387
 7764 143b 10       		.byte	0x10
 7765 143c AB01     		.2byte	0x1ab
 7766 143e 950E0000 		.4byte	0xe95
 7767 1442 15       		.byte	0x15
 7768 1443 09       		.uleb128 0x9
 7769 1444 A5140000 		.4byte	.LASF388
 7770 1448 10       		.byte	0x10
 7771 1449 AE01     		.2byte	0x1ae
 7772 144b E80F0000 		.4byte	0xfe8
 7773 144f 18       		.byte	0x18
 7774 1450 09       		.uleb128 0x9
 7775 1451 D5050000 		.4byte	.LASF389
 7776 1455 10       		.byte	0x10
 7777 1456 B101     		.2byte	0x1b1
 7778 1458 85110000 		.4byte	0x1185
 7779 145c 50       		.byte	0x50
 7780 145d 09       		.uleb128 0x9
ARM GAS  /tmp/ccTQOGyd.s 			page 138


 7781 145e 23040000 		.4byte	.LASF390
 7782 1462 10       		.byte	0x10
 7783 1463 B401     		.2byte	0x1b4
 7784 1465 F6000000 		.4byte	0xf6
 7785 1469 94       		.byte	0x94
 7786 146a 09       		.uleb128 0x9
 7787 146b 9E120000 		.4byte	.LASF391
 7788 146f 10       		.byte	0x10
 7789 1470 B701     		.2byte	0x1b7
 7790 1472 51120000 		.4byte	0x1251
 7791 1476 98       		.byte	0x98
 7792 1477 09       		.uleb128 0x9
 7793 1478 0C050000 		.4byte	.LASF392
 7794 147c 10       		.byte	0x10
 7795 147d BA01     		.2byte	0x1ba
 7796 147f D3130000 		.4byte	0x13d3
 7797 1483 BC       		.byte	0xbc
 7798 1484 00       		.byte	0
 7799 1485 1B       		.uleb128 0x1b
 7800 1486 F81B0000 		.4byte	.LASF393
 7801 148a 10       		.byte	0x10
 7802 148b BB01     		.2byte	0x1bb
 7803 148d DF130000 		.4byte	0x13df
 7804 1491 1C       		.uleb128 0x1c
 7805 1492 01       		.byte	0x1
 7806 1493 10       		.byte	0x10
 7807 1494 BE01     		.2byte	0x1be
 7808 1496 8B150000 		.4byte	0x158b
 7809 149a 18       		.uleb128 0x18
 7810 149b 98000000 		.4byte	.LASF394
 7811 149f 00       		.sleb128 0
 7812 14a0 18       		.uleb128 0x18
 7813 14a1 D1160000 		.4byte	.LASF395
 7814 14a5 01       		.sleb128 1
 7815 14a6 18       		.uleb128 0x18
 7816 14a7 D90A0000 		.4byte	.LASF396
 7817 14ab 02       		.sleb128 2
 7818 14ac 18       		.uleb128 0x18
 7819 14ad C10A0000 		.4byte	.LASF397
 7820 14b1 03       		.sleb128 3
 7821 14b2 18       		.uleb128 0x18
 7822 14b3 1F1B0000 		.4byte	.LASF398
 7823 14b7 04       		.sleb128 4
 7824 14b8 18       		.uleb128 0x18
 7825 14b9 610D0000 		.4byte	.LASF399
 7826 14bd 05       		.sleb128 5
 7827 14be 18       		.uleb128 0x18
 7828 14bf 26130000 		.4byte	.LASF400
 7829 14c3 06       		.sleb128 6
 7830 14c4 18       		.uleb128 0x18
 7831 14c5 C1210000 		.4byte	.LASF401
 7832 14c9 07       		.sleb128 7
 7833 14ca 18       		.uleb128 0x18
 7834 14cb 17220000 		.4byte	.LASF402
 7835 14cf 08       		.sleb128 8
 7836 14d0 18       		.uleb128 0x18
 7837 14d1 F9170000 		.4byte	.LASF403
ARM GAS  /tmp/ccTQOGyd.s 			page 139


 7838 14d5 09       		.sleb128 9
 7839 14d6 18       		.uleb128 0x18
 7840 14d7 B3170000 		.4byte	.LASF404
 7841 14db 0A       		.sleb128 10
 7842 14dc 18       		.uleb128 0x18
 7843 14dd BA160000 		.4byte	.LASF405
 7844 14e1 0B       		.sleb128 11
 7845 14e2 18       		.uleb128 0x18
 7846 14e3 EB120000 		.4byte	.LASF406
 7847 14e7 0C       		.sleb128 12
 7848 14e8 18       		.uleb128 0x18
 7849 14e9 A0030000 		.4byte	.LASF407
 7850 14ed 0D       		.sleb128 13
 7851 14ee 18       		.uleb128 0x18
 7852 14ef BF0D0000 		.4byte	.LASF408
 7853 14f3 0E       		.sleb128 14
 7854 14f4 18       		.uleb128 0x18
 7855 14f5 071B0000 		.4byte	.LASF409
 7856 14f9 0F       		.sleb128 15
 7857 14fa 18       		.uleb128 0x18
 7858 14fb 60200000 		.4byte	.LASF410
 7859 14ff 10       		.sleb128 16
 7860 1500 18       		.uleb128 0x18
 7861 1501 4F1E0000 		.4byte	.LASF411
 7862 1505 11       		.sleb128 17
 7863 1506 18       		.uleb128 0x18
 7864 1507 F1240000 		.4byte	.LASF412
 7865 150b 12       		.sleb128 18
 7866 150c 18       		.uleb128 0x18
 7867 150d 96060000 		.4byte	.LASF413
 7868 1511 13       		.sleb128 19
 7869 1512 18       		.uleb128 0x18
 7870 1513 88240000 		.4byte	.LASF414
 7871 1517 14       		.sleb128 20
 7872 1518 18       		.uleb128 0x18
 7873 1519 ED1B0000 		.4byte	.LASF415
 7874 151d 15       		.sleb128 21
 7875 151e 18       		.uleb128 0x18
 7876 151f F9230000 		.4byte	.LASF416
 7877 1523 16       		.sleb128 22
 7878 1524 18       		.uleb128 0x18
 7879 1525 CF0F0000 		.4byte	.LASF417
 7880 1529 17       		.sleb128 23
 7881 152a 18       		.uleb128 0x18
 7882 152b C2200000 		.4byte	.LASF418
 7883 152f 18       		.sleb128 24
 7884 1530 18       		.uleb128 0x18
 7885 1531 811D0000 		.4byte	.LASF419
 7886 1535 19       		.sleb128 25
 7887 1536 18       		.uleb128 0x18
 7888 1537 4C0C0000 		.4byte	.LASF420
 7889 153b 1A       		.sleb128 26
 7890 153c 18       		.uleb128 0x18
 7891 153d F31A0000 		.4byte	.LASF421
 7892 1541 1B       		.sleb128 27
 7893 1542 18       		.uleb128 0x18
 7894 1543 DA000000 		.4byte	.LASF422
ARM GAS  /tmp/ccTQOGyd.s 			page 140


 7895 1547 1C       		.sleb128 28
 7896 1548 18       		.uleb128 0x18
 7897 1549 C0040000 		.4byte	.LASF423
 7898 154d 1D       		.sleb128 29
 7899 154e 18       		.uleb128 0x18
 7900 154f BA080000 		.4byte	.LASF424
 7901 1553 1E       		.sleb128 30
 7902 1554 18       		.uleb128 0x18
 7903 1555 0A0E0000 		.4byte	.LASF425
 7904 1559 1F       		.sleb128 31
 7905 155a 18       		.uleb128 0x18
 7906 155b 3C200000 		.4byte	.LASF426
 7907 155f 20       		.sleb128 32
 7908 1560 18       		.uleb128 0x18
 7909 1561 9D170000 		.4byte	.LASF427
 7910 1565 21       		.sleb128 33
 7911 1566 18       		.uleb128 0x18
 7912 1567 AC0F0000 		.4byte	.LASF428
 7913 156b 22       		.sleb128 34
 7914 156c 18       		.uleb128 0x18
 7915 156d F81D0000 		.4byte	.LASF429
 7916 1571 23       		.sleb128 35
 7917 1572 18       		.uleb128 0x18
 7918 1573 CE230000 		.4byte	.LASF430
 7919 1577 24       		.sleb128 36
 7920 1578 18       		.uleb128 0x18
 7921 1579 8A1E0000 		.4byte	.LASF431
 7922 157d 25       		.sleb128 37
 7923 157e 18       		.uleb128 0x18
 7924 157f 19070000 		.4byte	.LASF432
 7925 1583 26       		.sleb128 38
 7926 1584 18       		.uleb128 0x18
 7927 1585 51000000 		.4byte	.LASF433
 7928 1589 27       		.sleb128 39
 7929 158a 00       		.byte	0
 7930 158b 1B       		.uleb128 0x1b
 7931 158c 56130000 		.4byte	.LASF434
 7932 1590 10       		.byte	0x10
 7933 1591 E701     		.2byte	0x1e7
 7934 1593 91140000 		.4byte	0x1491
 7935 1597 1D       		.uleb128 0x1d
 7936 1598 18       		.byte	0x18
 7937 1599 10       		.byte	0x10
 7938 159a 1802     		.2byte	0x218
 7939 159c FC150000 		.4byte	0x15fc
 7940 15a0 09       		.uleb128 0x9
 7941 15a1 DD020000 		.4byte	.LASF435
 7942 15a5 10       		.byte	0x10
 7943 15a6 1902     		.2byte	0x219
 7944 15a8 2C000000 		.4byte	0x2c
 7945 15ac 00       		.byte	0
 7946 15ad 09       		.uleb128 0x9
 7947 15ae E2020000 		.4byte	.LASF436
 7948 15b2 10       		.byte	0x10
 7949 15b3 1A02     		.2byte	0x21a
 7950 15b5 2C000000 		.4byte	0x2c
 7951 15b9 04       		.byte	0x4
ARM GAS  /tmp/ccTQOGyd.s 			page 141


 7952 15ba 09       		.uleb128 0x9
 7953 15bb 84040000 		.4byte	.LASF437
 7954 15bf 10       		.byte	0x10
 7955 15c0 1B02     		.2byte	0x21b
 7956 15c2 2C000000 		.4byte	0x2c
 7957 15c6 08       		.byte	0x8
 7958 15c7 09       		.uleb128 0x9
 7959 15c8 8A040000 		.4byte	.LASF438
 7960 15cc 10       		.byte	0x10
 7961 15cd 1C02     		.2byte	0x21c
 7962 15cf 2C000000 		.4byte	0x2c
 7963 15d3 0C       		.byte	0xc
 7964 15d4 09       		.uleb128 0x9
 7965 15d5 90040000 		.4byte	.LASF439
 7966 15d9 10       		.byte	0x10
 7967 15da 1D02     		.2byte	0x21d
 7968 15dc 2C000000 		.4byte	0x2c
 7969 15e0 10       		.byte	0x10
 7970 15e1 09       		.uleb128 0x9
 7971 15e2 710A0000 		.4byte	.LASF440
 7972 15e6 10       		.byte	0x10
 7973 15e7 1E02     		.2byte	0x21e
 7974 15e9 240E0000 		.4byte	0xe24
 7975 15ed 14       		.byte	0x14
 7976 15ee 09       		.uleb128 0x9
 7977 15ef 9E0A0000 		.4byte	.LASF441
 7978 15f3 10       		.byte	0x10
 7979 15f4 1F02     		.2byte	0x21f
 7980 15f6 240E0000 		.4byte	0xe24
 7981 15fa 15       		.byte	0x15
 7982 15fb 00       		.byte	0
 7983 15fc 1B       		.uleb128 0x1b
 7984 15fd C6170000 		.4byte	.LASF442
 7985 1601 10       		.byte	0x10
 7986 1602 2002     		.2byte	0x220
 7987 1604 97150000 		.4byte	0x1597
 7988 1608 1C       		.uleb128 0x1c
 7989 1609 01       		.byte	0x1
 7990 160a 10       		.byte	0x10
 7991 160b 5402     		.2byte	0x254
 7992 160d 24160000 		.4byte	0x1624
 7993 1611 18       		.uleb128 0x18
 7994 1612 52050000 		.4byte	.LASF443
 7995 1616 00       		.sleb128 0
 7996 1617 18       		.uleb128 0x18
 7997 1618 34020000 		.4byte	.LASF444
 7998 161c 01       		.sleb128 1
 7999 161d 18       		.uleb128 0x18
 8000 161e C3120000 		.4byte	.LASF445
 8001 1622 02       		.sleb128 2
 8002 1623 00       		.byte	0
 8003 1624 17       		.uleb128 0x17
 8004 1625 01       		.byte	0x1
 8005 1626 11       		.byte	0x11
 8006 1627 35       		.byte	0x35
 8007 1628 63160000 		.4byte	0x1663
 8008 162c 18       		.uleb128 0x18
ARM GAS  /tmp/ccTQOGyd.s 			page 142


 8009 162d 070B0000 		.4byte	.LASF446
 8010 1631 01       		.sleb128 1
 8011 1632 18       		.uleb128 0x18
 8012 1633 64090000 		.4byte	.LASF447
 8013 1637 02       		.sleb128 2
 8014 1638 18       		.uleb128 0x18
 8015 1639 FF000000 		.4byte	.LASF448
 8016 163d 03       		.sleb128 3
 8017 163e 18       		.uleb128 0x18
 8018 163f EF000000 		.4byte	.LASF449
 8019 1643 04       		.sleb128 4
 8020 1644 18       		.uleb128 0x18
 8021 1645 A8000000 		.4byte	.LASF450
 8022 1649 05       		.sleb128 5
 8023 164a 18       		.uleb128 0x18
 8024 164b D1220000 		.4byte	.LASF451
 8025 164f 06       		.sleb128 6
 8026 1650 18       		.uleb128 0x18
 8027 1651 050A0000 		.4byte	.LASF452
 8028 1655 07       		.sleb128 7
 8029 1656 18       		.uleb128 0x18
 8030 1657 1E020000 		.4byte	.LASF453
 8031 165b 08       		.sleb128 8
 8032 165c 18       		.uleb128 0x18
 8033 165d 0A1C0000 		.4byte	.LASF454
 8034 1661 09       		.sleb128 9
 8035 1662 00       		.byte	0
 8036 1663 0A       		.uleb128 0xa
 8037 1664 04       		.byte	0x4
 8038 1665 50000000 		.4byte	0x50
 8039 1669 0A       		.uleb128 0xa
 8040 166a 04       		.byte	0x4
 8041 166b 25070000 		.4byte	0x725
 8042 166f 02       		.uleb128 0x2
 8043 1670 08       		.byte	0x8
 8044 1671 04       		.byte	0x4
 8045 1672 481E0000 		.4byte	.LASF455
 8046 1676 02       		.uleb128 0x2
 8047 1677 08       		.byte	0x8
 8048 1678 04       		.byte	0x4
 8049 1679 ED170000 		.4byte	.LASF456
 8050 167d 04       		.uleb128 0x4
 8051 167e 38070000 		.4byte	.LASF457
 8052 1682 12       		.byte	0x12
 8053 1683 28       		.byte	0x28
 8054 1684 88160000 		.4byte	0x1688
 8055 1688 06       		.uleb128 0x6
 8056 1689 96270000 		.4byte	.LASF458
 8057 168d 04       		.byte	0x4
 8058 168e 13       		.byte	0x13
 8059 168f 00       		.byte	0
 8060 1690 9F160000 		.4byte	0x169f
 8061 1694 1E       		.uleb128 0x1e
 8062 1695 F7220000 		.4byte	.LASF459
 8063 1699 82030000 		.4byte	0x382
 8064 169d 00       		.byte	0
 8065 169e 00       		.byte	0
ARM GAS  /tmp/ccTQOGyd.s 			page 143


 8066 169f 04       		.uleb128 0x4
 8067 16a0 690A0000 		.4byte	.LASF460
 8068 16a4 12       		.byte	0x12
 8069 16a5 62       		.byte	0x62
 8070 16a6 7D160000 		.4byte	0x167d
 8071 16aa 1F       		.uleb128 0x1f
 8072 16ab 6B210000 		.4byte	.LASF593
 8073 16af 02       		.byte	0x2
 8074 16b0 84       		.byte	0x84
 8075 16b1 03       		.byte	0x3
 8076 16b2 C2160000 		.4byte	0x16c2
 8077 16b6 20       		.uleb128 0x20
 8078 16b7 4A230000 		.4byte	.LASF461
 8079 16bb 02       		.byte	0x2
 8080 16bc 84       		.byte	0x84
 8081 16bd 1A070000 		.4byte	0x71a
 8082 16c1 00       		.byte	0
 8083 16c2 21       		.uleb128 0x21
 8084 16c3 3E1A0000 		.4byte	.LASF594
 8085 16c7 0F       		.byte	0xf
 8086 16c8 AE       		.byte	0xae
 8087 16c9 A5020000 		.4byte	0x2a5
 8088 16cd 03       		.byte	0x3
 8089 16ce 22       		.uleb128 0x22
 8090 16cf 57270000 		.4byte	.LASF516
 8091 16d3 01       		.byte	0x1
 8092 16d4 5A       		.byte	0x5a
 8093 16d5 01       		.byte	0x1
 8094 16d6 F1160000 		.4byte	0x16f1
 8095 16da 20       		.uleb128 0x20
 8096 16db 391F0000 		.4byte	.LASF462
 8097 16df 01       		.byte	0x1
 8098 16e0 5A       		.byte	0x5a
 8099 16e1 63160000 		.4byte	0x1663
 8100 16e5 23       		.uleb128 0x23
 8101 16e6 6C656E00 		.ascii	"len\000"
 8102 16ea 01       		.byte	0x1
 8103 16eb 5A       		.byte	0x5a
 8104 16ec B8000000 		.4byte	0xb8
 8105 16f0 00       		.byte	0
 8106 16f1 24       		.uleb128 0x24
 8107 16f2 24060000 		.4byte	.LASF595
 8108 16f6 03       		.byte	0x3
 8109 16f7 5401     		.2byte	0x154
 8110 16f9 03       		.byte	0x3
 8111 16fa 25       		.uleb128 0x25
 8112 16fb 4D150000 		.4byte	.LASF596
 8113 16ff 01       		.byte	0x1
 8114 1700 FF03     		.2byte	0x3ff
 8115 1702 00000000 		.4byte	.LFB268
 8116 1706 10010000 		.4byte	.LFE268-.LFB268
 8117 170a 01       		.uleb128 0x1
 8118 170b 9C       		.byte	0x9c
 8119 170c 0C180000 		.4byte	0x180c
 8120 1710 26       		.uleb128 0x26
 8121 1711 61726700 		.ascii	"arg\000"
 8122 1715 01       		.byte	0x1
ARM GAS  /tmp/ccTQOGyd.s 			page 144


 8123 1716 FF03     		.2byte	0x3ff
 8124 1718 82030000 		.4byte	0x382
 8125 171c 00000000 		.4byte	.LLST0
 8126 1720 27       		.uleb128 0x27
 8127 1721 AA160000 		.4byte	0x16aa
 8128 1725 04000000 		.4byte	.LBB63
 8129 1729 00000000 		.4byte	.Ldebug_ranges0+0
 8130 172d 01       		.byte	0x1
 8131 172e 0204     		.2byte	0x402
 8132 1730 41170000 		.4byte	0x1741
 8133 1734 28       		.uleb128 0x28
 8134 1735 B6160000 		.4byte	0x16b6
 8135 1739 06       		.uleb128 0x6
 8136 173a 03       		.byte	0x3
 8137 173b 00000000 		.4byte	.LC0
 8138 173f 9F       		.byte	0x9f
 8139 1740 00       		.byte	0
 8140 1741 29       		.uleb128 0x29
 8141 1742 20000000 		.4byte	.Ldebug_ranges0+0x20
 8142 1746 2A       		.uleb128 0x2a
 8143 1747 696E6400 		.ascii	"ind\000"
 8144 174b 01       		.byte	0x1
 8145 174c 1004     		.2byte	0x410
 8146 174e EB000000 		.4byte	0xeb
 8147 1752 02       		.uleb128 0x2
 8148 1753 91       		.byte	0x91
 8149 1754 4C       		.sleb128 -52
 8150 1755 2B       		.uleb128 0x2b
 8151 1756 CE160000 		.4byte	0x16ce
 8152 175a C2000000 		.4byte	.LBB69
 8153 175e 0E000000 		.4byte	.LBE69-.LBB69
 8154 1762 01       		.byte	0x1
 8155 1763 1B04     		.2byte	0x41b
 8156 1765 8B170000 		.4byte	0x178b
 8157 1769 2C       		.uleb128 0x2c
 8158 176a E5160000 		.4byte	0x16e5
 8159 176e 21000000 		.4byte	.LLST1
 8160 1772 28       		.uleb128 0x28
 8161 1773 DA160000 		.4byte	0x16da
 8162 1777 06       		.uleb128 0x6
 8163 1778 03       		.byte	0x3
 8164 1779 00000000 		.4byte	send_buffer
 8165 177d 9F       		.byte	0x9f
 8166 177e 2D       		.uleb128 0x2d
 8167 177f D0000000 		.4byte	.LVL10
 8168 1783 2E       		.uleb128 0x2e
 8169 1784 01       		.uleb128 0x1
 8170 1785 50       		.byte	0x50
 8171 1786 02       		.uleb128 0x2
 8172 1787 74       		.byte	0x74
 8173 1788 00       		.sleb128 0
 8174 1789 00       		.byte	0
 8175 178a 00       		.byte	0
 8176 178b 2F       		.uleb128 0x2f
 8177 178c 3C000000 		.4byte	.LVL2
 8178 1790 72470000 		.4byte	0x4772
 8179 1794 9E170000 		.4byte	0x179e
ARM GAS  /tmp/ccTQOGyd.s 			page 145


 8180 1798 2E       		.uleb128 0x2e
 8181 1799 01       		.uleb128 0x1
 8182 179a 50       		.byte	0x50
 8183 179b 01       		.uleb128 0x1
 8184 179c 31       		.byte	0x31
 8185 179d 00       		.byte	0
 8186 179e 2F       		.uleb128 0x2f
 8187 179f 54000000 		.4byte	.LVL3
 8188 17a3 87470000 		.4byte	0x4787
 8189 17a7 C7170000 		.4byte	0x17c7
 8190 17ab 2E       		.uleb128 0x2e
 8191 17ac 01       		.uleb128 0x1
 8192 17ad 53       		.byte	0x53
 8193 17ae 02       		.uleb128 0x2
 8194 17af 77       		.byte	0x77
 8195 17b0 00       		.sleb128 0
 8196 17b1 2E       		.uleb128 0x2e
 8197 17b2 01       		.uleb128 0x1
 8198 17b3 52       		.byte	0x52
 8199 17b4 05       		.uleb128 0x5
 8200 17b5 03       		.byte	0x3
 8201 17b6 00000000 		.4byte	.LANCHOR6
 8202 17ba 2E       		.uleb128 0x2e
 8203 17bb 01       		.uleb128 0x1
 8204 17bc 51       		.byte	0x51
 8205 17bd 02       		.uleb128 0x2
 8206 17be 75       		.byte	0x75
 8207 17bf 00       		.sleb128 0
 8208 17c0 2E       		.uleb128 0x2e
 8209 17c1 01       		.uleb128 0x1
 8210 17c2 50       		.byte	0x50
 8211 17c3 02       		.uleb128 0x2
 8212 17c4 76       		.byte	0x76
 8213 17c5 00       		.sleb128 0
 8214 17c6 00       		.byte	0
 8215 17c7 2F       		.uleb128 0x2f
 8216 17c8 76000000 		.4byte	.LVL4
 8217 17cc C6470000 		.4byte	0x47c6
 8218 17d0 E1170000 		.4byte	0x17e1
 8219 17d4 2E       		.uleb128 0x2e
 8220 17d5 01       		.uleb128 0x1
 8221 17d6 52       		.byte	0x52
 8222 17d7 02       		.uleb128 0x2
 8223 17d8 91       		.byte	0x91
 8224 17d9 4C       		.sleb128 -52
 8225 17da 2E       		.uleb128 0x2e
 8226 17db 01       		.uleb128 0x1
 8227 17dc 50       		.byte	0x50
 8228 17dd 02       		.uleb128 0x2
 8229 17de 74       		.byte	0x74
 8230 17df 00       		.sleb128 0
 8231 17e0 00       		.byte	0
 8232 17e1 2F       		.uleb128 0x2f
 8233 17e2 8E000000 		.4byte	.LVL5
 8234 17e6 C6470000 		.4byte	0x47c6
 8235 17ea FB170000 		.4byte	0x17fb
 8236 17ee 2E       		.uleb128 0x2e
ARM GAS  /tmp/ccTQOGyd.s 			page 146


 8237 17ef 01       		.uleb128 0x1
 8238 17f0 52       		.byte	0x52
 8239 17f1 02       		.uleb128 0x2
 8240 17f2 91       		.byte	0x91
 8241 17f3 4C       		.sleb128 -52
 8242 17f4 2E       		.uleb128 0x2e
 8243 17f5 01       		.uleb128 0x1
 8244 17f6 50       		.byte	0x50
 8245 17f7 02       		.uleb128 0x2
 8246 17f8 74       		.byte	0x74
 8247 17f9 00       		.sleb128 0
 8248 17fa 00       		.byte	0
 8249 17fb 30       		.uleb128 0x30
 8250 17fc B4000000 		.4byte	.LVL6
 8251 1800 02       		.uleb128 0x2
 8252 1801 75       		.byte	0x75
 8253 1802 00       		.sleb128 0
 8254 1803 2E       		.uleb128 0x2e
 8255 1804 01       		.uleb128 0x1
 8256 1805 50       		.byte	0x50
 8257 1806 02       		.uleb128 0x2
 8258 1807 74       		.byte	0x74
 8259 1808 00       		.sleb128 0
 8260 1809 00       		.byte	0
 8261 180a 00       		.byte	0
 8262 180b 00       		.byte	0
 8263 180c 31       		.uleb128 0x31
 8264 180d 76010000 		.4byte	.LASF463
 8265 1811 01       		.byte	0x1
 8266 1812 43       		.byte	0x43
 8267 1813 00000000 		.4byte	.LFB256
 8268 1817 24000000 		.4byte	.LFE256-.LFB256
 8269 181b 01       		.uleb128 0x1
 8270 181c 9C       		.byte	0x9c
 8271 181d 51180000 		.4byte	0x1851
 8272 1821 32       		.uleb128 0x32
 8273 1822 16000000 		.4byte	.LVL11
 8274 1826 E7470000 		.4byte	0x47e7
 8275 182a 2E       		.uleb128 0x2e
 8276 182b 01       		.uleb128 0x1
 8277 182c 53       		.byte	0x53
 8278 182d 05       		.uleb128 0x5
 8279 182e 03       		.byte	0x3
 8280 182f 00000000 		.4byte	detect_thread
 8281 1833 2E       		.uleb128 0x2e
 8282 1834 01       		.uleb128 0x1
 8283 1835 52       		.byte	0x52
 8284 1836 02       		.uleb128 0x2
 8285 1837 08       		.byte	0x8
 8286 1838 40       		.byte	0x40
 8287 1839 2E       		.uleb128 0x2e
 8288 183a 01       		.uleb128 0x1
 8289 183b 51       		.byte	0x51
 8290 183c 03       		.uleb128 0x3
 8291 183d 0A       		.byte	0xa
 8292 183e 9809     		.2byte	0x998
 8293 1840 2E       		.uleb128 0x2e
ARM GAS  /tmp/ccTQOGyd.s 			page 147


 8294 1841 01       		.uleb128 0x1
 8295 1842 50       		.byte	0x50
 8296 1843 05       		.uleb128 0x5
 8297 1844 03       		.byte	0x3
 8298 1845 00000000 		.4byte	.LANCHOR11
 8299 1849 2E       		.uleb128 0x2e
 8300 184a 02       		.uleb128 0x2
 8301 184b 7D       		.byte	0x7d
 8302 184c 00       		.sleb128 0
 8303 184d 01       		.uleb128 0x1
 8304 184e 30       		.byte	0x30
 8305 184f 00       		.byte	0
 8306 1850 00       		.byte	0
 8307 1851 31       		.uleb128 0x31
 8308 1852 691B0000 		.4byte	.LASF464
 8309 1856 01       		.byte	0x1
 8310 1857 4D       		.byte	0x4d
 8311 1858 00000000 		.4byte	.LFB257
 8312 185c 0C000000 		.4byte	.LFE257-.LFB257
 8313 1860 01       		.uleb128 0x1
 8314 1861 9C       		.byte	0x9c
 8315 1862 74180000 		.4byte	0x1874
 8316 1866 33       		.uleb128 0x33
 8317 1867 95150000 		.4byte	.LASF465
 8318 186b 01       		.byte	0x1
 8319 186c 4D       		.byte	0x4d
 8320 186d 84180000 		.4byte	0x1884
 8321 1871 01       		.uleb128 0x1
 8322 1872 50       		.byte	0x50
 8323 1873 00       		.byte	0
 8324 1874 0C       		.uleb128 0xc
 8325 1875 84180000 		.4byte	0x1884
 8326 1879 0D       		.uleb128 0xd
 8327 187a 63160000 		.4byte	0x1663
 8328 187e 0D       		.uleb128 0xd
 8329 187f B8000000 		.4byte	0xb8
 8330 1883 00       		.byte	0
 8331 1884 0A       		.uleb128 0xa
 8332 1885 04       		.byte	0x4
 8333 1886 74180000 		.4byte	0x1874
 8334 188a 34       		.uleb128 0x34
 8335 188b CE160000 		.4byte	0x16ce
 8336 188f 00000000 		.4byte	.LFB258
 8337 1893 10000000 		.4byte	.LFE258-.LFB258
 8338 1897 01       		.uleb128 0x1
 8339 1898 9C       		.byte	0x9c
 8340 1899 C4180000 		.4byte	0x18c4
 8341 189d 2C       		.uleb128 0x2c
 8342 189e DA160000 		.4byte	0x16da
 8343 18a2 4A000000 		.4byte	.LLST2
 8344 18a6 2C       		.uleb128 0x2c
 8345 18a7 E5160000 		.4byte	0x16e5
 8346 18ab 6B000000 		.4byte	.LLST3
 8347 18af 2D       		.uleb128 0x2d
 8348 18b0 0A000000 		.4byte	.LVL14
 8349 18b4 2E       		.uleb128 0x2e
 8350 18b5 01       		.uleb128 0x1
ARM GAS  /tmp/ccTQOGyd.s 			page 148


 8351 18b6 51       		.byte	0x51
 8352 18b7 03       		.uleb128 0x3
 8353 18b8 F3       		.byte	0xf3
 8354 18b9 01       		.uleb128 0x1
 8355 18ba 51       		.byte	0x51
 8356 18bb 2E       		.uleb128 0x2e
 8357 18bc 01       		.uleb128 0x1
 8358 18bd 50       		.byte	0x50
 8359 18be 03       		.uleb128 0x3
 8360 18bf F3       		.byte	0xf3
 8361 18c0 01       		.uleb128 0x1
 8362 18c1 50       		.byte	0x50
 8363 18c2 00       		.byte	0
 8364 18c3 00       		.byte	0
 8365 18c4 35       		.uleb128 0x35
 8366 18c5 82000000 		.4byte	.LASF466
 8367 18c9 01       		.byte	0x1
 8368 18ca 6A03     		.2byte	0x36a
 8369 18cc 00000000 		.4byte	.LFB260
 8370 18d0 44000000 		.4byte	.LFE260-.LFB260
 8371 18d4 01       		.uleb128 0x1
 8372 18d5 9C       		.byte	0x9c
 8373 18d6 78190000 		.4byte	0x1978
 8374 18da 36       		.uleb128 0x36
 8375 18db CA160000 		.4byte	.LASF467
 8376 18df 01       		.byte	0x1
 8377 18e0 6A03     		.2byte	0x36a
 8378 18e2 1A070000 		.4byte	0x71a
 8379 18e6 02       		.uleb128 0x2
 8380 18e7 91       		.byte	0x91
 8381 18e8 70       		.sleb128 -16
 8382 18e9 37       		.uleb128 0x37
 8383 18ea 2A       		.uleb128 0x2a
 8384 18eb 61726700 		.ascii	"arg\000"
 8385 18ef 01       		.byte	0x1
 8386 18f0 6B03     		.2byte	0x36b
 8387 18f2 9F160000 		.4byte	0x169f
 8388 18f6 02       		.uleb128 0x2
 8389 18f7 91       		.byte	0x91
 8390 18f8 64       		.sleb128 -28
 8391 18f9 38       		.uleb128 0x38
 8392 18fa 6C656E00 		.ascii	"len\000"
 8393 18fe 01       		.byte	0x1
 8394 18ff 6D03     		.2byte	0x36d
 8395 1901 2C000000 		.4byte	0x2c
 8396 1905 8C000000 		.4byte	.LLST4
 8397 1909 39       		.uleb128 0x39
 8398 190a 34050000 		.4byte	.LASF468
 8399 190e 01       		.byte	0x1
 8400 190f 6E03     		.2byte	0x36e
 8401 1911 78190000 		.4byte	0x1978
 8402 1915 05       		.uleb128 0x5
 8403 1916 03       		.byte	0x3
 8404 1917 00000000 		.4byte	print_buffer.11487
 8405 191b 27       		.uleb128 0x27
 8406 191c CE160000 		.4byte	0x16ce
 8407 1920 20000000 		.4byte	.LBB74
ARM GAS  /tmp/ccTQOGyd.s 			page 149


 8408 1924 40000000 		.4byte	.Ldebug_ranges0+0x40
 8409 1928 01       		.byte	0x1
 8410 1929 7503     		.2byte	0x375
 8411 192b 51190000 		.4byte	0x1951
 8412 192f 2C       		.uleb128 0x2c
 8413 1930 E5160000 		.4byte	0x16e5
 8414 1934 9F000000 		.4byte	.LLST5
 8415 1938 2C       		.uleb128 0x2c
 8416 1939 DA160000 		.4byte	0x16da
 8417 193d B2000000 		.4byte	.LLST6
 8418 1941 2D       		.uleb128 0x2d
 8419 1942 32000000 		.4byte	.LVL20
 8420 1946 2E       		.uleb128 0x2e
 8421 1947 01       		.uleb128 0x1
 8422 1948 50       		.byte	0x50
 8423 1949 05       		.uleb128 0x5
 8424 194a 03       		.byte	0x3
 8425 194b 00000000 		.4byte	.LANCHOR12
 8426 194f 00       		.byte	0
 8427 1950 00       		.byte	0
 8428 1951 32       		.uleb128 0x32
 8429 1952 1C000000 		.4byte	.LVL16
 8430 1956 10480000 		.4byte	0x4810
 8431 195a 2E       		.uleb128 0x2e
 8432 195b 01       		.uleb128 0x1
 8433 195c 53       		.byte	0x53
 8434 195d 02       		.uleb128 0x2
 8435 195e 91       		.byte	0x91
 8436 195f 54       		.sleb128 -44
 8437 1960 2E       		.uleb128 0x2e
 8438 1961 01       		.uleb128 0x1
 8439 1962 52       		.byte	0x52
 8440 1963 03       		.uleb128 0x3
 8441 1964 91       		.byte	0x91
 8442 1965 50       		.sleb128 -48
 8443 1966 06       		.byte	0x6
 8444 1967 2E       		.uleb128 0x2e
 8445 1968 01       		.uleb128 0x1
 8446 1969 51       		.byte	0x51
 8447 196a 02       		.uleb128 0x2
 8448 196b 08       		.byte	0x8
 8449 196c FE       		.byte	0xfe
 8450 196d 2E       		.uleb128 0x2e
 8451 196e 01       		.uleb128 0x1
 8452 196f 50       		.byte	0x50
 8453 1970 05       		.uleb128 0x5
 8454 1971 03       		.byte	0x3
 8455 1972 01000000 		.4byte	.LANCHOR12+1
 8456 1976 00       		.byte	0
 8457 1977 00       		.byte	0
 8458 1978 15       		.uleb128 0x15
 8459 1979 25070000 		.4byte	0x725
 8460 197d 88190000 		.4byte	0x1988
 8461 1981 16       		.uleb128 0x16
 8462 1982 B8040000 		.4byte	0x4b8
 8463 1986 FE       		.byte	0xfe
 8464 1987 00       		.byte	0
ARM GAS  /tmp/ccTQOGyd.s 			page 150


 8465 1988 35       		.uleb128 0x35
 8466 1989 8D1C0000 		.4byte	.LASF469
 8467 198d 01       		.byte	0x1
 8468 198e 7903     		.2byte	0x379
 8469 1990 00000000 		.4byte	.LFB261
 8470 1994 40000000 		.4byte	.LFE261-.LFB261
 8471 1998 01       		.uleb128 0x1
 8472 1999 9C       		.byte	0x9c
 8473 199a 2D1A0000 		.4byte	0x1a2d
 8474 199e 3A       		.uleb128 0x3a
 8475 199f EA190000 		.4byte	.LASF470
 8476 19a3 01       		.byte	0x1
 8477 19a4 7903     		.2byte	0x379
 8478 19a6 25000000 		.4byte	0x25
 8479 19aa CA000000 		.4byte	.LLST7
 8480 19ae 39       		.uleb128 0x39
 8481 19af C31A0000 		.4byte	.LASF471
 8482 19b3 01       		.byte	0x1
 8483 19b4 7A03     		.2byte	0x37a
 8484 19b6 2D1A0000 		.4byte	0x1a2d
 8485 19ba 02       		.uleb128 0x2
 8486 19bb 91       		.byte	0x91
 8487 19bc 70       		.sleb128 -16
 8488 19bd 39       		.uleb128 0x39
 8489 19be AF040000 		.4byte	.LASF472
 8490 19c2 01       		.byte	0x1
 8491 19c3 7B03     		.2byte	0x37b
 8492 19c5 EB000000 		.4byte	0xeb
 8493 19c9 02       		.uleb128 0x2
 8494 19ca 91       		.byte	0x91
 8495 19cb 6C       		.sleb128 -20
 8496 19cc 27       		.uleb128 0x27
 8497 19cd CE160000 		.4byte	0x16ce
 8498 19d1 28000000 		.4byte	.LBB78
 8499 19d5 58000000 		.4byte	.Ldebug_ranges0+0x58
 8500 19d9 01       		.byte	0x1
 8501 19da 8003     		.2byte	0x380
 8502 19dc FF190000 		.4byte	0x19ff
 8503 19e0 2C       		.uleb128 0x2c
 8504 19e1 E5160000 		.4byte	0x16e5
 8505 19e5 EE000000 		.4byte	.LLST8
 8506 19e9 2C       		.uleb128 0x2c
 8507 19ea DA160000 		.4byte	0x16da
 8508 19ee 01010000 		.4byte	.LLST9
 8509 19f2 2D       		.uleb128 0x2d
 8510 19f3 34000000 		.4byte	.LVL25
 8511 19f7 2E       		.uleb128 0x2e
 8512 19f8 01       		.uleb128 0x1
 8513 19f9 50       		.byte	0x50
 8514 19fa 02       		.uleb128 0x2
 8515 19fb 74       		.byte	0x74
 8516 19fc 00       		.sleb128 0
 8517 19fd 00       		.byte	0
 8518 19fe 00       		.byte	0
 8519 19ff 32       		.uleb128 0x32
 8520 1a00 28000000 		.4byte	.LVL23
 8521 1a04 C6470000 		.4byte	0x47c6
ARM GAS  /tmp/ccTQOGyd.s 			page 151


 8522 1a08 2E       		.uleb128 0x2e
 8523 1a09 01       		.uleb128 0x1
 8524 1a0a 52       		.byte	0x52
 8525 1a0b 02       		.uleb128 0x2
 8526 1a0c 91       		.byte	0x91
 8527 1a0d 6C       		.sleb128 -20
 8528 1a0e 2E       		.uleb128 0x2e
 8529 1a0f 01       		.uleb128 0x1
 8530 1a10 51       		.byte	0x51
 8531 1a11 13       		.uleb128 0x13
 8532 1a12 F3       		.byte	0xf3
 8533 1a13 03       		.uleb128 0x3
 8534 1a14 F5       		.byte	0xf5
 8535 1a15 40       		.uleb128 0x40
 8536 1a16 25       		.uleb128 0x25
 8537 1a17 F4       		.byte	0xf4
 8538 1a18 25       		.uleb128 0x25
 8539 1a19 04       		.byte	0x4
 8540 1a1a 0050C347 		.4byte	0x47c35000
 8541 1a1e 1E       		.byte	0x1e
 8542 1a1f F7       		.byte	0xf7
 8543 1a20 25       		.uleb128 0x25
 8544 1a21 F7       		.byte	0xf7
 8545 1a22 2C       		.uleb128 0x2c
 8546 1a23 F7       		.byte	0xf7
 8547 1a24 00       		.uleb128 0
 8548 1a25 2E       		.uleb128 0x2e
 8549 1a26 01       		.uleb128 0x1
 8550 1a27 50       		.byte	0x50
 8551 1a28 02       		.uleb128 0x2
 8552 1a29 74       		.byte	0x74
 8553 1a2a 00       		.sleb128 0
 8554 1a2b 00       		.byte	0
 8555 1a2c 00       		.byte	0
 8556 1a2d 15       		.uleb128 0x15
 8557 1a2e CA000000 		.4byte	0xca
 8558 1a32 3D1A0000 		.4byte	0x1a3d
 8559 1a36 16       		.uleb128 0x16
 8560 1a37 B8040000 		.4byte	0x4b8
 8561 1a3b 04       		.byte	0x4
 8562 1a3c 00       		.byte	0
 8563 1a3d 35       		.uleb128 0x35
 8564 1a3e 7A110000 		.4byte	.LASF473
 8565 1a42 01       		.byte	0x1
 8566 1a43 8303     		.2byte	0x383
 8567 1a45 00000000 		.4byte	.LFB262
 8568 1a49 30000000 		.4byte	.LFE262-.LFB262
 8569 1a4d 01       		.uleb128 0x1
 8570 1a4e 9C       		.byte	0x9c
 8571 1a4f D21A0000 		.4byte	0x1ad2
 8572 1a53 3A       		.uleb128 0x3a
 8573 1a54 EA190000 		.4byte	.LASF470
 8574 1a58 01       		.byte	0x1
 8575 1a59 8303     		.2byte	0x383
 8576 1a5b EB000000 		.4byte	0xeb
 8577 1a5f 23010000 		.4byte	.LLST10
 8578 1a63 39       		.uleb128 0x39
ARM GAS  /tmp/ccTQOGyd.s 			page 152


 8579 1a64 C31A0000 		.4byte	.LASF471
 8580 1a68 01       		.byte	0x1
 8581 1a69 8403     		.2byte	0x384
 8582 1a6b 2D1A0000 		.4byte	0x1a2d
 8583 1a6f 02       		.uleb128 0x2
 8584 1a70 91       		.byte	0x91
 8585 1a71 70       		.sleb128 -16
 8586 1a72 39       		.uleb128 0x39
 8587 1a73 AF040000 		.4byte	.LASF472
 8588 1a77 01       		.byte	0x1
 8589 1a78 8503     		.2byte	0x385
 8590 1a7a EB000000 		.4byte	0xeb
 8591 1a7e 02       		.uleb128 0x2
 8592 1a7f 91       		.byte	0x91
 8593 1a80 6C       		.sleb128 -20
 8594 1a81 27       		.uleb128 0x27
 8595 1a82 CE160000 		.4byte	0x16ce
 8596 1a86 1A000000 		.4byte	.LBB82
 8597 1a8a 70000000 		.4byte	.Ldebug_ranges0+0x70
 8598 1a8e 01       		.byte	0x1
 8599 1a8f 8A03     		.2byte	0x38a
 8600 1a91 B41A0000 		.4byte	0x1ab4
 8601 1a95 2C       		.uleb128 0x2c
 8602 1a96 E5160000 		.4byte	0x16e5
 8603 1a9a 4F010000 		.4byte	.LLST11
 8604 1a9e 2C       		.uleb128 0x2c
 8605 1a9f DA160000 		.4byte	0x16da
 8606 1aa3 62010000 		.4byte	.LLST12
 8607 1aa7 2D       		.uleb128 0x2d
 8608 1aa8 26000000 		.4byte	.LVL31
 8609 1aac 2E       		.uleb128 0x2e
 8610 1aad 01       		.uleb128 0x1
 8611 1aae 50       		.byte	0x50
 8612 1aaf 02       		.uleb128 0x2
 8613 1ab0 74       		.byte	0x74
 8614 1ab1 00       		.sleb128 0
 8615 1ab2 00       		.byte	0
 8616 1ab3 00       		.byte	0
 8617 1ab4 32       		.uleb128 0x32
 8618 1ab5 1A000000 		.4byte	.LVL29
 8619 1ab9 C6470000 		.4byte	0x47c6
 8620 1abd 2E       		.uleb128 0x2e
 8621 1abe 01       		.uleb128 0x1
 8622 1abf 52       		.byte	0x52
 8623 1ac0 02       		.uleb128 0x2
 8624 1ac1 91       		.byte	0x91
 8625 1ac2 6C       		.sleb128 -20
 8626 1ac3 2E       		.uleb128 0x2e
 8627 1ac4 01       		.uleb128 0x1
 8628 1ac5 51       		.byte	0x51
 8629 1ac6 03       		.uleb128 0x3
 8630 1ac7 F3       		.byte	0xf3
 8631 1ac8 01       		.uleb128 0x1
 8632 1ac9 50       		.byte	0x50
 8633 1aca 2E       		.uleb128 0x2e
 8634 1acb 01       		.uleb128 0x1
 8635 1acc 50       		.byte	0x50
ARM GAS  /tmp/ccTQOGyd.s 			page 153


 8636 1acd 02       		.uleb128 0x2
 8637 1ace 74       		.byte	0x74
 8638 1acf 00       		.sleb128 0
 8639 1ad0 00       		.byte	0
 8640 1ad1 00       		.byte	0
 8641 1ad2 35       		.uleb128 0x35
 8642 1ad3 73090000 		.4byte	.LASF474
 8643 1ad7 01       		.byte	0x1
 8644 1ad8 8D03     		.2byte	0x38d
 8645 1ada 00000000 		.4byte	.LFB263
 8646 1ade 78000000 		.4byte	.LFE263-.LFB263
 8647 1ae2 01       		.uleb128 0x1
 8648 1ae3 9C       		.byte	0x9c
 8649 1ae4 8E1B0000 		.4byte	0x1b8e
 8650 1ae8 3A       		.uleb128 0x3a
 8651 1ae9 D5010000 		.4byte	.LASF475
 8652 1aed 01       		.byte	0x1
 8653 1aee 8D03     		.2byte	0x38d
 8654 1af0 8E1B0000 		.4byte	0x1b8e
 8655 1af4 84010000 		.4byte	.LLST13
 8656 1af8 26       		.uleb128 0x26
 8657 1af9 6C656E00 		.ascii	"len\000"
 8658 1afd 01       		.byte	0x1
 8659 1afe 8D03     		.2byte	0x38d
 8660 1b00 2C000000 		.4byte	0x2c
 8661 1b04 A5010000 		.4byte	.LLST14
 8662 1b08 3B       		.uleb128 0x3b
 8663 1b09 A71B0000 		.4byte	0x1ba7
 8664 1b0d D1010000 		.4byte	.LLST15
 8665 1b11 3C       		.uleb128 0x3c
 8666 1b12 C31A0000 		.4byte	.LASF471
 8667 1b16 01       		.byte	0x1
 8668 1b17 9203     		.2byte	0x392
 8669 1b19 941B0000 		.4byte	0x1b94
 8670 1b1d 0F020000 		.4byte	.LLST16
 8671 1b21 39       		.uleb128 0x39
 8672 1b22 AF040000 		.4byte	.LASF472
 8673 1b26 01       		.byte	0x1
 8674 1b27 9303     		.2byte	0x393
 8675 1b29 EB000000 		.4byte	0xeb
 8676 1b2d 02       		.uleb128 0x2
 8677 1b2e 91       		.byte	0x91
 8678 1b2f 54       		.sleb128 -44
 8679 1b30 3D       		.uleb128 0x3d
 8680 1b31 88000000 		.4byte	.Ldebug_ranges0+0x88
 8681 1b35 5E1B0000 		.4byte	0x1b5e
 8682 1b39 38       		.uleb128 0x38
 8683 1b3a 6900     		.ascii	"i\000"
 8684 1b3c 01       		.byte	0x1
 8685 1b3d 9703     		.2byte	0x397
 8686 1b3f 2C000000 		.4byte	0x2c
 8687 1b43 23020000 		.4byte	.LLST17
 8688 1b47 32       		.uleb128 0x32
 8689 1b48 52000000 		.4byte	.LVL41
 8690 1b4c C6470000 		.4byte	0x47c6
 8691 1b50 2E       		.uleb128 0x2e
 8692 1b51 01       		.uleb128 0x1
ARM GAS  /tmp/ccTQOGyd.s 			page 154


 8693 1b52 52       		.byte	0x52
 8694 1b53 02       		.uleb128 0x2
 8695 1b54 77       		.byte	0x77
 8696 1b55 04       		.sleb128 4
 8697 1b56 2E       		.uleb128 0x2e
 8698 1b57 01       		.uleb128 0x1
 8699 1b58 50       		.byte	0x50
 8700 1b59 02       		.uleb128 0x2
 8701 1b5a 78       		.byte	0x78
 8702 1b5b 00       		.sleb128 0
 8703 1b5c 00       		.byte	0
 8704 1b5d 00       		.byte	0
 8705 1b5e 3E       		.uleb128 0x3e
 8706 1b5f CE160000 		.4byte	0x16ce
 8707 1b63 58000000 		.4byte	.LBB88
 8708 1b67 0A000000 		.4byte	.LBE88-.LBB88
 8709 1b6b 01       		.byte	0x1
 8710 1b6c 9B03     		.2byte	0x39b
 8711 1b6e 2C       		.uleb128 0x2c
 8712 1b6f E5160000 		.4byte	0x16e5
 8713 1b73 5A020000 		.4byte	.LLST18
 8714 1b77 2C       		.uleb128 0x2c
 8715 1b78 DA160000 		.4byte	0x16da
 8716 1b7c 6D020000 		.4byte	.LLST19
 8717 1b80 2D       		.uleb128 0x2d
 8718 1b81 62000000 		.4byte	.LVL43
 8719 1b85 2E       		.uleb128 0x2e
 8720 1b86 01       		.uleb128 0x1
 8721 1b87 50       		.byte	0x50
 8722 1b88 02       		.uleb128 0x2
 8723 1b89 78       		.byte	0x78
 8724 1b8a 00       		.sleb128 0
 8725 1b8b 00       		.byte	0
 8726 1b8c 00       		.byte	0
 8727 1b8d 00       		.byte	0
 8728 1b8e 0A       		.uleb128 0xa
 8729 1b8f 04       		.byte	0x4
 8730 1b90 25000000 		.4byte	0x25
 8731 1b94 15       		.uleb128 0x15
 8732 1b95 CA000000 		.4byte	0xca
 8733 1b99 A71B0000 		.4byte	0x1ba7
 8734 1b9d 3F       		.uleb128 0x3f
 8735 1b9e B8040000 		.4byte	0x4b8
 8736 1ba2 081B0000 		.4byte	0x1b08
 8737 1ba6 00       		.byte	0
 8738 1ba7 14       		.uleb128 0x14
 8739 1ba8 B8040000 		.4byte	0x4b8
 8740 1bac 40       		.uleb128 0x40
 8741 1bad 14090000 		.4byte	.LASF597
 8742 1bb1 01       		.byte	0x1
 8743 1bb2 9E03     		.2byte	0x39e
 8744 1bb4 A2080000 		.4byte	0x8a2
 8745 1bb8 00000000 		.4byte	.LFB264
 8746 1bbc 0C000000 		.4byte	.LFE264-.LFB264
 8747 1bc0 01       		.uleb128 0x1
 8748 1bc1 9C       		.byte	0x9c
 8749 1bc2 35       		.uleb128 0x35
ARM GAS  /tmp/ccTQOGyd.s 			page 155


 8750 1bc3 B2140000 		.4byte	.LASF476
 8751 1bc7 01       		.byte	0x1
 8752 1bc8 A203     		.2byte	0x3a2
 8753 1bca 00000000 		.4byte	.LFB265
 8754 1bce 0C000000 		.4byte	.LFE265-.LFB265
 8755 1bd2 01       		.uleb128 0x1
 8756 1bd3 9C       		.byte	0x9c
 8757 1bd4 E71B0000 		.4byte	0x1be7
 8758 1bd8 36       		.uleb128 0x36
 8759 1bd9 95150000 		.4byte	.LASF465
 8760 1bdd 01       		.byte	0x1
 8761 1bde A203     		.2byte	0x3a2
 8762 1be0 84180000 		.4byte	0x1884
 8763 1be4 01       		.uleb128 0x1
 8764 1be5 50       		.byte	0x50
 8765 1be6 00       		.byte	0
 8766 1be7 35       		.uleb128 0x35
 8767 1be8 501F0000 		.4byte	.LASF477
 8768 1bec 01       		.byte	0x1
 8769 1bed A603     		.2byte	0x3a6
 8770 1bef 00000000 		.4byte	.LFB266
 8771 1bf3 30000000 		.4byte	.LFE266-.LFB266
 8772 1bf7 01       		.uleb128 0x1
 8773 1bf8 9C       		.byte	0x9c
 8774 1bf9 871C0000 		.4byte	0x1c87
 8775 1bfd 3A       		.uleb128 0x3a
 8776 1bfe 391F0000 		.4byte	.LASF462
 8777 1c02 01       		.byte	0x1
 8778 1c03 A603     		.2byte	0x3a6
 8779 1c05 63160000 		.4byte	0x1663
 8780 1c09 80020000 		.4byte	.LLST20
 8781 1c0d 26       		.uleb128 0x26
 8782 1c0e 6C656E00 		.ascii	"len\000"
 8783 1c12 01       		.byte	0x1
 8784 1c13 A603     		.2byte	0x3a6
 8785 1c15 B8000000 		.4byte	0xb8
 8786 1c19 B7020000 		.4byte	.LLST21
 8787 1c1d 3C       		.uleb128 0x3c
 8788 1c1e AF040000 		.4byte	.LASF472
 8789 1c22 01       		.byte	0x1
 8790 1c23 A703     		.2byte	0x3a7
 8791 1c25 EB000000 		.4byte	0xeb
 8792 1c29 E3020000 		.4byte	.LLST22
 8793 1c2d 27       		.uleb128 0x27
 8794 1c2e CE160000 		.4byte	0x16ce
 8795 1c32 18000000 		.4byte	.LBB90
 8796 1c36 A0000000 		.4byte	.Ldebug_ranges0+0xa0
 8797 1c3a 01       		.byte	0x1
 8798 1c3b AD03     		.2byte	0x3ad
 8799 1c3d 691C0000 		.4byte	0x1c69
 8800 1c41 2C       		.uleb128 0x2c
 8801 1c42 E5160000 		.4byte	0x16e5
 8802 1c46 1F030000 		.4byte	.LLST23
 8803 1c4a 28       		.uleb128 0x28
 8804 1c4b DA160000 		.4byte	0x16da
 8805 1c4f 06       		.uleb128 0x6
 8806 1c50 03       		.byte	0x3
ARM GAS  /tmp/ccTQOGyd.s 			page 156


 8807 1c51 00000000 		.4byte	send_buffer
 8808 1c55 9F       		.byte	0x9f
 8809 1c56 2D       		.uleb128 0x2d
 8810 1c57 24000000 		.4byte	.LVL53
 8811 1c5b 2E       		.uleb128 0x2e
 8812 1c5c 01       		.uleb128 0x1
 8813 1c5d 51       		.byte	0x51
 8814 1c5e 02       		.uleb128 0x2
 8815 1c5f 74       		.byte	0x74
 8816 1c60 01       		.sleb128 1
 8817 1c61 2E       		.uleb128 0x2e
 8818 1c62 01       		.uleb128 0x1
 8819 1c63 50       		.byte	0x50
 8820 1c64 02       		.uleb128 0x2
 8821 1c65 75       		.byte	0x75
 8822 1c66 00       		.sleb128 0
 8823 1c67 00       		.byte	0
 8824 1c68 00       		.byte	0
 8825 1c69 32       		.uleb128 0x32
 8826 1c6a 18000000 		.4byte	.LVL51
 8827 1c6e 35480000 		.4byte	0x4835
 8828 1c72 2E       		.uleb128 0x2e
 8829 1c73 01       		.uleb128 0x1
 8830 1c74 52       		.byte	0x52
 8831 1c75 02       		.uleb128 0x2
 8832 1c76 74       		.byte	0x74
 8833 1c77 00       		.sleb128 0
 8834 1c78 2E       		.uleb128 0x2e
 8835 1c79 01       		.uleb128 0x1
 8836 1c7a 51       		.byte	0x51
 8837 1c7b 03       		.uleb128 0x3
 8838 1c7c F3       		.byte	0xf3
 8839 1c7d 01       		.uleb128 0x1
 8840 1c7e 50       		.byte	0x50
 8841 1c7f 2E       		.uleb128 0x2e
 8842 1c80 01       		.uleb128 0x1
 8843 1c81 50       		.byte	0x50
 8844 1c82 02       		.uleb128 0x2
 8845 1c83 75       		.byte	0x75
 8846 1c84 01       		.sleb128 1
 8847 1c85 00       		.byte	0
 8848 1c86 00       		.byte	0
 8849 1c87 35       		.uleb128 0x35
 8850 1c88 7B190000 		.4byte	.LASF478
 8851 1c8c 01       		.byte	0x1
 8852 1c8d B003     		.2byte	0x3b0
 8853 1c8f 00000000 		.4byte	.LFB267
 8854 1c93 C8020000 		.4byte	.LFE267-.LFB267
 8855 1c97 01       		.uleb128 0x1
 8856 1c98 9C       		.byte	0x9c
 8857 1c99 59200000 		.4byte	0x2059
 8858 1c9d 3A       		.uleb128 0x3a
 8859 1c9e C20C0000 		.4byte	.LASF479
 8860 1ca2 01       		.byte	0x1
 8861 1ca3 B003     		.2byte	0x3b0
 8862 1ca5 8B150000 		.4byte	0x158b
 8863 1ca9 4F030000 		.4byte	.LLST24
ARM GAS  /tmp/ccTQOGyd.s 			page 157


 8864 1cad 3A       		.uleb128 0x3a
 8865 1cae E60F0000 		.4byte	.LASF480
 8866 1cb2 01       		.byte	0x1
 8867 1cb3 B003     		.2byte	0x3b0
 8868 1cb5 59200000 		.4byte	0x2059
 8869 1cb9 7F030000 		.4byte	.LLST25
 8870 1cbd 2A       		.uleb128 0x2a
 8871 1cbe 696E6400 		.ascii	"ind\000"
 8872 1cc2 01       		.byte	0x1
 8873 1cc3 B103     		.2byte	0x3b1
 8874 1cc5 EB000000 		.4byte	0xeb
 8875 1cc9 02       		.uleb128 0x2
 8876 1cca 91       		.byte	0x91
 8877 1ccb 64       		.sleb128 -28
 8878 1ccc 27       		.uleb128 0x27
 8879 1ccd CE160000 		.4byte	0x16ce
 8880 1cd1 04000000 		.4byte	.LBB94
 8881 1cd5 B8000000 		.4byte	.Ldebug_ranges0+0xb8
 8882 1cd9 01       		.byte	0x1
 8883 1cda FC03     		.2byte	0x3fc
 8884 1cdc 021D0000 		.4byte	0x1d02
 8885 1ce0 2C       		.uleb128 0x2c
 8886 1ce1 E5160000 		.4byte	0x16e5
 8887 1ce5 AB030000 		.4byte	.LLST26
 8888 1ce9 28       		.uleb128 0x28
 8889 1cea DA160000 		.4byte	0x16da
 8890 1cee 06       		.uleb128 0x6
 8891 1cef 03       		.byte	0x3
 8892 1cf0 00000000 		.4byte	send_buffer
 8893 1cf4 9F       		.byte	0x9f
 8894 1cf5 2D       		.uleb128 0x2d
 8895 1cf6 BC020000 		.4byte	.LVL93
 8896 1cfa 2E       		.uleb128 0x2e
 8897 1cfb 01       		.uleb128 0x1
 8898 1cfc 50       		.byte	0x50
 8899 1cfd 02       		.uleb128 0x2
 8900 1cfe 75       		.byte	0x75
 8901 1cff 00       		.sleb128 0
 8902 1d00 00       		.byte	0
 8903 1d01 00       		.byte	0
 8904 1d02 2F       		.uleb128 0x2f
 8905 1d03 22000000 		.4byte	.LVL58
 8906 1d07 59480000 		.4byte	0x4859
 8907 1d0b 1C1D0000 		.4byte	0x1d1c
 8908 1d0f 2E       		.uleb128 0x2e
 8909 1d10 01       		.uleb128 0x1
 8910 1d11 52       		.byte	0x52
 8911 1d12 02       		.uleb128 0x2
 8912 1d13 76       		.byte	0x76
 8913 1d14 00       		.sleb128 0
 8914 1d15 2E       		.uleb128 0x2e
 8915 1d16 01       		.uleb128 0x1
 8916 1d17 50       		.byte	0x50
 8917 1d18 02       		.uleb128 0x2
 8918 1d19 75       		.byte	0x75
 8919 1d1a 00       		.sleb128 0
 8920 1d1b 00       		.byte	0
ARM GAS  /tmp/ccTQOGyd.s 			page 158


 8921 1d1c 2F       		.uleb128 0x2f
 8922 1d1d 2E000000 		.4byte	.LVL59
 8923 1d21 74480000 		.4byte	0x4874
 8924 1d25 361D0000 		.4byte	0x1d36
 8925 1d29 2E       		.uleb128 0x2e
 8926 1d2a 01       		.uleb128 0x1
 8927 1d2b 51       		.byte	0x51
 8928 1d2c 02       		.uleb128 0x2
 8929 1d2d 76       		.byte	0x76
 8930 1d2e 00       		.sleb128 0
 8931 1d2f 2E       		.uleb128 0x2e
 8932 1d30 01       		.uleb128 0x1
 8933 1d31 50       		.byte	0x50
 8934 1d32 02       		.uleb128 0x2
 8935 1d33 75       		.byte	0x75
 8936 1d34 00       		.sleb128 0
 8937 1d35 00       		.byte	0
 8938 1d36 2F       		.uleb128 0x2f
 8939 1d37 42000000 		.4byte	.LVL60
 8940 1d3b 8F480000 		.4byte	0x488f
 8941 1d3f 501D0000 		.4byte	0x1d50
 8942 1d43 2E       		.uleb128 0x2e
 8943 1d44 01       		.uleb128 0x1
 8944 1d45 52       		.byte	0x52
 8945 1d46 02       		.uleb128 0x2
 8946 1d47 76       		.byte	0x76
 8947 1d48 00       		.sleb128 0
 8948 1d49 2E       		.uleb128 0x2e
 8949 1d4a 01       		.uleb128 0x1
 8950 1d4b 50       		.byte	0x50
 8951 1d4c 02       		.uleb128 0x2
 8952 1d4d 75       		.byte	0x75
 8953 1d4e 00       		.sleb128 0
 8954 1d4f 00       		.byte	0
 8955 1d50 2F       		.uleb128 0x2f
 8956 1d51 62000000 		.4byte	.LVL61
 8957 1d55 74480000 		.4byte	0x4874
 8958 1d59 6A1D0000 		.4byte	0x1d6a
 8959 1d5d 2E       		.uleb128 0x2e
 8960 1d5e 01       		.uleb128 0x1
 8961 1d5f 51       		.byte	0x51
 8962 1d60 02       		.uleb128 0x2
 8963 1d61 76       		.byte	0x76
 8964 1d62 00       		.sleb128 0
 8965 1d63 2E       		.uleb128 0x2e
 8966 1d64 01       		.uleb128 0x1
 8967 1d65 50       		.byte	0x50
 8968 1d66 02       		.uleb128 0x2
 8969 1d67 75       		.byte	0x75
 8970 1d68 00       		.sleb128 0
 8971 1d69 00       		.byte	0
 8972 1d6a 2F       		.uleb128 0x2f
 8973 1d6b 6E000000 		.4byte	.LVL62
 8974 1d6f 74480000 		.4byte	0x4874
 8975 1d73 841D0000 		.4byte	0x1d84
 8976 1d77 2E       		.uleb128 0x2e
 8977 1d78 01       		.uleb128 0x1
ARM GAS  /tmp/ccTQOGyd.s 			page 159


 8978 1d79 51       		.byte	0x51
 8979 1d7a 02       		.uleb128 0x2
 8980 1d7b 76       		.byte	0x76
 8981 1d7c 00       		.sleb128 0
 8982 1d7d 2E       		.uleb128 0x2e
 8983 1d7e 01       		.uleb128 0x1
 8984 1d7f 50       		.byte	0x50
 8985 1d80 02       		.uleb128 0x2
 8986 1d81 75       		.byte	0x75
 8987 1d82 00       		.sleb128 0
 8988 1d83 00       		.byte	0
 8989 1d84 2F       		.uleb128 0x2f
 8990 1d85 7A000000 		.4byte	.LVL63
 8991 1d89 74480000 		.4byte	0x4874
 8992 1d8d 9E1D0000 		.4byte	0x1d9e
 8993 1d91 2E       		.uleb128 0x2e
 8994 1d92 01       		.uleb128 0x1
 8995 1d93 51       		.byte	0x51
 8996 1d94 02       		.uleb128 0x2
 8997 1d95 76       		.byte	0x76
 8998 1d96 00       		.sleb128 0
 8999 1d97 2E       		.uleb128 0x2e
 9000 1d98 01       		.uleb128 0x1
 9001 1d99 50       		.byte	0x50
 9002 1d9a 02       		.uleb128 0x2
 9003 1d9b 75       		.byte	0x75
 9004 1d9c 00       		.sleb128 0
 9005 1d9d 00       		.byte	0
 9006 1d9e 2F       		.uleb128 0x2f
 9007 1d9f 86000000 		.4byte	.LVL64
 9008 1da3 74480000 		.4byte	0x4874
 9009 1da7 B81D0000 		.4byte	0x1db8
 9010 1dab 2E       		.uleb128 0x2e
 9011 1dac 01       		.uleb128 0x1
 9012 1dad 51       		.byte	0x51
 9013 1dae 02       		.uleb128 0x2
 9014 1daf 76       		.byte	0x76
 9015 1db0 00       		.sleb128 0
 9016 1db1 2E       		.uleb128 0x2e
 9017 1db2 01       		.uleb128 0x1
 9018 1db3 50       		.byte	0x50
 9019 1db4 02       		.uleb128 0x2
 9020 1db5 75       		.byte	0x75
 9021 1db6 00       		.sleb128 0
 9022 1db7 00       		.byte	0
 9023 1db8 2F       		.uleb128 0x2f
 9024 1db9 92000000 		.4byte	.LVL65
 9025 1dbd 74480000 		.4byte	0x4874
 9026 1dc1 D21D0000 		.4byte	0x1dd2
 9027 1dc5 2E       		.uleb128 0x2e
 9028 1dc6 01       		.uleb128 0x1
 9029 1dc7 51       		.byte	0x51
 9030 1dc8 02       		.uleb128 0x2
 9031 1dc9 76       		.byte	0x76
 9032 1dca 00       		.sleb128 0
 9033 1dcb 2E       		.uleb128 0x2e
 9034 1dcc 01       		.uleb128 0x1
ARM GAS  /tmp/ccTQOGyd.s 			page 160


 9035 1dcd 50       		.byte	0x50
 9036 1dce 02       		.uleb128 0x2
 9037 1dcf 75       		.byte	0x75
 9038 1dd0 00       		.sleb128 0
 9039 1dd1 00       		.byte	0
 9040 1dd2 2F       		.uleb128 0x2f
 9041 1dd3 B2000000 		.4byte	.LVL66
 9042 1dd7 74480000 		.4byte	0x4874
 9043 1ddb EC1D0000 		.4byte	0x1dec
 9044 1ddf 2E       		.uleb128 0x2e
 9045 1de0 01       		.uleb128 0x1
 9046 1de1 51       		.byte	0x51
 9047 1de2 02       		.uleb128 0x2
 9048 1de3 76       		.byte	0x76
 9049 1de4 00       		.sleb128 0
 9050 1de5 2E       		.uleb128 0x2e
 9051 1de6 01       		.uleb128 0x1
 9052 1de7 50       		.byte	0x50
 9053 1de8 02       		.uleb128 0x2
 9054 1de9 75       		.byte	0x75
 9055 1dea 00       		.sleb128 0
 9056 1deb 00       		.byte	0
 9057 1dec 2F       		.uleb128 0x2f
 9058 1ded BE000000 		.4byte	.LVL67
 9059 1df1 74480000 		.4byte	0x4874
 9060 1df5 061E0000 		.4byte	0x1e06
 9061 1df9 2E       		.uleb128 0x2e
 9062 1dfa 01       		.uleb128 0x1
 9063 1dfb 51       		.byte	0x51
 9064 1dfc 02       		.uleb128 0x2
 9065 1dfd 76       		.byte	0x76
 9066 1dfe 00       		.sleb128 0
 9067 1dff 2E       		.uleb128 0x2e
 9068 1e00 01       		.uleb128 0x1
 9069 1e01 50       		.byte	0x50
 9070 1e02 02       		.uleb128 0x2
 9071 1e03 75       		.byte	0x75
 9072 1e04 00       		.sleb128 0
 9073 1e05 00       		.byte	0
 9074 1e06 2F       		.uleb128 0x2f
 9075 1e07 D6000000 		.4byte	.LVL68
 9076 1e0b 74480000 		.4byte	0x4874
 9077 1e0f 201E0000 		.4byte	0x1e20
 9078 1e13 2E       		.uleb128 0x2e
 9079 1e14 01       		.uleb128 0x1
 9080 1e15 51       		.byte	0x51
 9081 1e16 02       		.uleb128 0x2
 9082 1e17 76       		.byte	0x76
 9083 1e18 00       		.sleb128 0
 9084 1e19 2E       		.uleb128 0x2e
 9085 1e1a 01       		.uleb128 0x1
 9086 1e1b 50       		.byte	0x50
 9087 1e1c 02       		.uleb128 0x2
 9088 1e1d 75       		.byte	0x75
 9089 1e1e 00       		.sleb128 0
 9090 1e1f 00       		.byte	0
 9091 1e20 2F       		.uleb128 0x2f
ARM GAS  /tmp/ccTQOGyd.s 			page 161


 9092 1e21 E2000000 		.4byte	.LVL69
 9093 1e25 74480000 		.4byte	0x4874
 9094 1e29 3A1E0000 		.4byte	0x1e3a
 9095 1e2d 2E       		.uleb128 0x2e
 9096 1e2e 01       		.uleb128 0x1
 9097 1e2f 51       		.byte	0x51
 9098 1e30 02       		.uleb128 0x2
 9099 1e31 76       		.byte	0x76
 9100 1e32 00       		.sleb128 0
 9101 1e33 2E       		.uleb128 0x2e
 9102 1e34 01       		.uleb128 0x1
 9103 1e35 50       		.byte	0x50
 9104 1e36 02       		.uleb128 0x2
 9105 1e37 75       		.byte	0x75
 9106 1e38 00       		.sleb128 0
 9107 1e39 00       		.byte	0
 9108 1e3a 2F       		.uleb128 0x2f
 9109 1e3b 02010000 		.4byte	.LVL70
 9110 1e3f 74480000 		.4byte	0x4874
 9111 1e43 541E0000 		.4byte	0x1e54
 9112 1e47 2E       		.uleb128 0x2e
 9113 1e48 01       		.uleb128 0x1
 9114 1e49 51       		.byte	0x51
 9115 1e4a 02       		.uleb128 0x2
 9116 1e4b 76       		.byte	0x76
 9117 1e4c 00       		.sleb128 0
 9118 1e4d 2E       		.uleb128 0x2e
 9119 1e4e 01       		.uleb128 0x1
 9120 1e4f 50       		.byte	0x50
 9121 1e50 02       		.uleb128 0x2
 9122 1e51 75       		.byte	0x75
 9123 1e52 00       		.sleb128 0
 9124 1e53 00       		.byte	0
 9125 1e54 2F       		.uleb128 0x2f
 9126 1e55 1A010000 		.4byte	.LVL71
 9127 1e59 74480000 		.4byte	0x4874
 9128 1e5d 6E1E0000 		.4byte	0x1e6e
 9129 1e61 2E       		.uleb128 0x2e
 9130 1e62 01       		.uleb128 0x1
 9131 1e63 51       		.byte	0x51
 9132 1e64 02       		.uleb128 0x2
 9133 1e65 76       		.byte	0x76
 9134 1e66 00       		.sleb128 0
 9135 1e67 2E       		.uleb128 0x2e
 9136 1e68 01       		.uleb128 0x1
 9137 1e69 50       		.byte	0x50
 9138 1e6a 02       		.uleb128 0x2
 9139 1e6b 75       		.byte	0x75
 9140 1e6c 00       		.sleb128 0
 9141 1e6d 00       		.byte	0
 9142 1e6e 2F       		.uleb128 0x2f
 9143 1e6f 26010000 		.4byte	.LVL72
 9144 1e73 74480000 		.4byte	0x4874
 9145 1e77 881E0000 		.4byte	0x1e88
 9146 1e7b 2E       		.uleb128 0x2e
 9147 1e7c 01       		.uleb128 0x1
 9148 1e7d 51       		.byte	0x51
ARM GAS  /tmp/ccTQOGyd.s 			page 162


 9149 1e7e 02       		.uleb128 0x2
 9150 1e7f 76       		.byte	0x76
 9151 1e80 00       		.sleb128 0
 9152 1e81 2E       		.uleb128 0x2e
 9153 1e82 01       		.uleb128 0x1
 9154 1e83 50       		.byte	0x50
 9155 1e84 02       		.uleb128 0x2
 9156 1e85 75       		.byte	0x75
 9157 1e86 00       		.sleb128 0
 9158 1e87 00       		.byte	0
 9159 1e88 2F       		.uleb128 0x2f
 9160 1e89 32010000 		.4byte	.LVL73
 9161 1e8d 74480000 		.4byte	0x4874
 9162 1e91 A21E0000 		.4byte	0x1ea2
 9163 1e95 2E       		.uleb128 0x2e
 9164 1e96 01       		.uleb128 0x1
 9165 1e97 51       		.byte	0x51
 9166 1e98 02       		.uleb128 0x2
 9167 1e99 76       		.byte	0x76
 9168 1e9a 00       		.sleb128 0
 9169 1e9b 2E       		.uleb128 0x2e
 9170 1e9c 01       		.uleb128 0x1
 9171 1e9d 50       		.byte	0x50
 9172 1e9e 02       		.uleb128 0x2
 9173 1e9f 75       		.byte	0x75
 9174 1ea0 00       		.sleb128 0
 9175 1ea1 00       		.byte	0
 9176 1ea2 2F       		.uleb128 0x2f
 9177 1ea3 3E010000 		.4byte	.LVL74
 9178 1ea7 74480000 		.4byte	0x4874
 9179 1eab BC1E0000 		.4byte	0x1ebc
 9180 1eaf 2E       		.uleb128 0x2e
 9181 1eb0 01       		.uleb128 0x1
 9182 1eb1 51       		.byte	0x51
 9183 1eb2 02       		.uleb128 0x2
 9184 1eb3 76       		.byte	0x76
 9185 1eb4 00       		.sleb128 0
 9186 1eb5 2E       		.uleb128 0x2e
 9187 1eb6 01       		.uleb128 0x1
 9188 1eb7 50       		.byte	0x50
 9189 1eb8 02       		.uleb128 0x2
 9190 1eb9 75       		.byte	0x75
 9191 1eba 00       		.sleb128 0
 9192 1ebb 00       		.byte	0
 9193 1ebc 2F       		.uleb128 0x2f
 9194 1ebd 4A010000 		.4byte	.LVL75
 9195 1ec1 74480000 		.4byte	0x4874
 9196 1ec5 D61E0000 		.4byte	0x1ed6
 9197 1ec9 2E       		.uleb128 0x2e
 9198 1eca 01       		.uleb128 0x1
 9199 1ecb 51       		.byte	0x51
 9200 1ecc 02       		.uleb128 0x2
 9201 1ecd 76       		.byte	0x76
 9202 1ece 00       		.sleb128 0
 9203 1ecf 2E       		.uleb128 0x2e
 9204 1ed0 01       		.uleb128 0x1
 9205 1ed1 50       		.byte	0x50
ARM GAS  /tmp/ccTQOGyd.s 			page 163


 9206 1ed2 02       		.uleb128 0x2
 9207 1ed3 75       		.byte	0x75
 9208 1ed4 00       		.sleb128 0
 9209 1ed5 00       		.byte	0
 9210 1ed6 2F       		.uleb128 0x2f
 9211 1ed7 56010000 		.4byte	.LVL76
 9212 1edb 74480000 		.4byte	0x4874
 9213 1edf F01E0000 		.4byte	0x1ef0
 9214 1ee3 2E       		.uleb128 0x2e
 9215 1ee4 01       		.uleb128 0x1
 9216 1ee5 51       		.byte	0x51
 9217 1ee6 02       		.uleb128 0x2
 9218 1ee7 76       		.byte	0x76
 9219 1ee8 00       		.sleb128 0
 9220 1ee9 2E       		.uleb128 0x2e
 9221 1eea 01       		.uleb128 0x1
 9222 1eeb 50       		.byte	0x50
 9223 1eec 02       		.uleb128 0x2
 9224 1eed 75       		.byte	0x75
 9225 1eee 00       		.sleb128 0
 9226 1eef 00       		.byte	0
 9227 1ef0 2F       		.uleb128 0x2f
 9228 1ef1 8E010000 		.4byte	.LVL77
 9229 1ef5 74480000 		.4byte	0x4874
 9230 1ef9 0A1F0000 		.4byte	0x1f0a
 9231 1efd 2E       		.uleb128 0x2e
 9232 1efe 01       		.uleb128 0x1
 9233 1eff 51       		.byte	0x51
 9234 1f00 02       		.uleb128 0x2
 9235 1f01 76       		.byte	0x76
 9236 1f02 00       		.sleb128 0
 9237 1f03 2E       		.uleb128 0x2e
 9238 1f04 01       		.uleb128 0x1
 9239 1f05 50       		.byte	0x50
 9240 1f06 02       		.uleb128 0x2
 9241 1f07 75       		.byte	0x75
 9242 1f08 00       		.sleb128 0
 9243 1f09 00       		.byte	0
 9244 1f0a 2F       		.uleb128 0x2f
 9245 1f0b 9A010000 		.4byte	.LVL78
 9246 1f0f 74480000 		.4byte	0x4874
 9247 1f13 241F0000 		.4byte	0x1f24
 9248 1f17 2E       		.uleb128 0x2e
 9249 1f18 01       		.uleb128 0x1
 9250 1f19 51       		.byte	0x51
 9251 1f1a 02       		.uleb128 0x2
 9252 1f1b 76       		.byte	0x76
 9253 1f1c 00       		.sleb128 0
 9254 1f1d 2E       		.uleb128 0x2e
 9255 1f1e 01       		.uleb128 0x1
 9256 1f1f 50       		.byte	0x50
 9257 1f20 02       		.uleb128 0x2
 9258 1f21 75       		.byte	0x75
 9259 1f22 00       		.sleb128 0
 9260 1f23 00       		.byte	0
 9261 1f24 2F       		.uleb128 0x2f
 9262 1f25 B2010000 		.4byte	.LVL79
ARM GAS  /tmp/ccTQOGyd.s 			page 164


 9263 1f29 74480000 		.4byte	0x4874
 9264 1f2d 3E1F0000 		.4byte	0x1f3e
 9265 1f31 2E       		.uleb128 0x2e
 9266 1f32 01       		.uleb128 0x1
 9267 1f33 51       		.byte	0x51
 9268 1f34 02       		.uleb128 0x2
 9269 1f35 76       		.byte	0x76
 9270 1f36 00       		.sleb128 0
 9271 1f37 2E       		.uleb128 0x2e
 9272 1f38 01       		.uleb128 0x1
 9273 1f39 50       		.byte	0x50
 9274 1f3a 02       		.uleb128 0x2
 9275 1f3b 75       		.byte	0x75
 9276 1f3c 00       		.sleb128 0
 9277 1f3d 00       		.byte	0
 9278 1f3e 2F       		.uleb128 0x2f
 9279 1f3f BE010000 		.4byte	.LVL80
 9280 1f43 74480000 		.4byte	0x4874
 9281 1f47 581F0000 		.4byte	0x1f58
 9282 1f4b 2E       		.uleb128 0x2e
 9283 1f4c 01       		.uleb128 0x1
 9284 1f4d 51       		.byte	0x51
 9285 1f4e 02       		.uleb128 0x2
 9286 1f4f 76       		.byte	0x76
 9287 1f50 00       		.sleb128 0
 9288 1f51 2E       		.uleb128 0x2e
 9289 1f52 01       		.uleb128 0x1
 9290 1f53 50       		.byte	0x50
 9291 1f54 02       		.uleb128 0x2
 9292 1f55 75       		.byte	0x75
 9293 1f56 00       		.sleb128 0
 9294 1f57 00       		.byte	0
 9295 1f58 2F       		.uleb128 0x2f
 9296 1f59 DE010000 		.4byte	.LVL81
 9297 1f5d 74480000 		.4byte	0x4874
 9298 1f61 721F0000 		.4byte	0x1f72
 9299 1f65 2E       		.uleb128 0x2e
 9300 1f66 01       		.uleb128 0x1
 9301 1f67 51       		.byte	0x51
 9302 1f68 02       		.uleb128 0x2
 9303 1f69 76       		.byte	0x76
 9304 1f6a 00       		.sleb128 0
 9305 1f6b 2E       		.uleb128 0x2e
 9306 1f6c 01       		.uleb128 0x1
 9307 1f6d 50       		.byte	0x50
 9308 1f6e 02       		.uleb128 0x2
 9309 1f6f 75       		.byte	0x75
 9310 1f70 00       		.sleb128 0
 9311 1f71 00       		.byte	0
 9312 1f72 2F       		.uleb128 0x2f
 9313 1f73 EA010000 		.4byte	.LVL82
 9314 1f77 8F480000 		.4byte	0x488f
 9315 1f7b 8C1F0000 		.4byte	0x1f8c
 9316 1f7f 2E       		.uleb128 0x2e
 9317 1f80 01       		.uleb128 0x1
 9318 1f81 52       		.byte	0x52
 9319 1f82 02       		.uleb128 0x2
ARM GAS  /tmp/ccTQOGyd.s 			page 165


 9320 1f83 76       		.byte	0x76
 9321 1f84 00       		.sleb128 0
 9322 1f85 2E       		.uleb128 0x2e
 9323 1f86 01       		.uleb128 0x1
 9324 1f87 50       		.byte	0x50
 9325 1f88 02       		.uleb128 0x2
 9326 1f89 75       		.byte	0x75
 9327 1f8a 00       		.sleb128 0
 9328 1f8b 00       		.byte	0
 9329 1f8c 2F       		.uleb128 0x2f
 9330 1f8d F6010000 		.4byte	.LVL83
 9331 1f91 59480000 		.4byte	0x4859
 9332 1f95 A61F0000 		.4byte	0x1fa6
 9333 1f99 2E       		.uleb128 0x2e
 9334 1f9a 01       		.uleb128 0x1
 9335 1f9b 52       		.byte	0x52
 9336 1f9c 02       		.uleb128 0x2
 9337 1f9d 76       		.byte	0x76
 9338 1f9e 00       		.sleb128 0
 9339 1f9f 2E       		.uleb128 0x2e
 9340 1fa0 01       		.uleb128 0x1
 9341 1fa1 50       		.byte	0x50
 9342 1fa2 02       		.uleb128 0x2
 9343 1fa3 75       		.byte	0x75
 9344 1fa4 00       		.sleb128 0
 9345 1fa5 00       		.byte	0
 9346 1fa6 2F       		.uleb128 0x2f
 9347 1fa7 0E020000 		.4byte	.LVL84
 9348 1fab 74480000 		.4byte	0x4874
 9349 1faf C01F0000 		.4byte	0x1fc0
 9350 1fb3 2E       		.uleb128 0x2e
 9351 1fb4 01       		.uleb128 0x1
 9352 1fb5 51       		.byte	0x51
 9353 1fb6 02       		.uleb128 0x2
 9354 1fb7 76       		.byte	0x76
 9355 1fb8 00       		.sleb128 0
 9356 1fb9 2E       		.uleb128 0x2e
 9357 1fba 01       		.uleb128 0x1
 9358 1fbb 50       		.byte	0x50
 9359 1fbc 02       		.uleb128 0x2
 9360 1fbd 75       		.byte	0x75
 9361 1fbe 00       		.sleb128 0
 9362 1fbf 00       		.byte	0
 9363 1fc0 2F       		.uleb128 0x2f
 9364 1fc1 1A020000 		.4byte	.LVL85
 9365 1fc5 74480000 		.4byte	0x4874
 9366 1fc9 DA1F0000 		.4byte	0x1fda
 9367 1fcd 2E       		.uleb128 0x2e
 9368 1fce 01       		.uleb128 0x1
 9369 1fcf 51       		.byte	0x51
 9370 1fd0 02       		.uleb128 0x2
 9371 1fd1 76       		.byte	0x76
 9372 1fd2 00       		.sleb128 0
 9373 1fd3 2E       		.uleb128 0x2e
 9374 1fd4 01       		.uleb128 0x1
 9375 1fd5 50       		.byte	0x50
 9376 1fd6 02       		.uleb128 0x2
ARM GAS  /tmp/ccTQOGyd.s 			page 166


 9377 1fd7 75       		.byte	0x75
 9378 1fd8 00       		.sleb128 0
 9379 1fd9 00       		.byte	0
 9380 1fda 2F       		.uleb128 0x2f
 9381 1fdb 26020000 		.4byte	.LVL86
 9382 1fdf 74480000 		.4byte	0x4874
 9383 1fe3 F41F0000 		.4byte	0x1ff4
 9384 1fe7 2E       		.uleb128 0x2e
 9385 1fe8 01       		.uleb128 0x1
 9386 1fe9 51       		.byte	0x51
 9387 1fea 02       		.uleb128 0x2
 9388 1feb 76       		.byte	0x76
 9389 1fec 00       		.sleb128 0
 9390 1fed 2E       		.uleb128 0x2e
 9391 1fee 01       		.uleb128 0x1
 9392 1fef 50       		.byte	0x50
 9393 1ff0 02       		.uleb128 0x2
 9394 1ff1 75       		.byte	0x75
 9395 1ff2 00       		.sleb128 0
 9396 1ff3 00       		.byte	0
 9397 1ff4 2F       		.uleb128 0x2f
 9398 1ff5 32020000 		.4byte	.LVL87
 9399 1ff9 74480000 		.4byte	0x4874
 9400 1ffd 0E200000 		.4byte	0x200e
 9401 2001 2E       		.uleb128 0x2e
 9402 2002 01       		.uleb128 0x1
 9403 2003 51       		.byte	0x51
 9404 2004 02       		.uleb128 0x2
 9405 2005 76       		.byte	0x76
 9406 2006 00       		.sleb128 0
 9407 2007 2E       		.uleb128 0x2e
 9408 2008 01       		.uleb128 0x1
 9409 2009 50       		.byte	0x50
 9410 200a 02       		.uleb128 0x2
 9411 200b 75       		.byte	0x75
 9412 200c 00       		.sleb128 0
 9413 200d 00       		.byte	0
 9414 200e 2F       		.uleb128 0x2f
 9415 200f 3E020000 		.4byte	.LVL88
 9416 2013 74480000 		.4byte	0x4874
 9417 2017 28200000 		.4byte	0x2028
 9418 201b 2E       		.uleb128 0x2e
 9419 201c 01       		.uleb128 0x1
 9420 201d 51       		.byte	0x51
 9421 201e 02       		.uleb128 0x2
 9422 201f 76       		.byte	0x76
 9423 2020 00       		.sleb128 0
 9424 2021 2E       		.uleb128 0x2e
 9425 2022 01       		.uleb128 0x1
 9426 2023 50       		.byte	0x50
 9427 2024 02       		.uleb128 0x2
 9428 2025 75       		.byte	0x75
 9429 2026 00       		.sleb128 0
 9430 2027 00       		.byte	0
 9431 2028 2F       		.uleb128 0x2f
 9432 2029 4A020000 		.4byte	.LVL89
 9433 202d 74480000 		.4byte	0x4874
ARM GAS  /tmp/ccTQOGyd.s 			page 167


 9434 2031 42200000 		.4byte	0x2042
 9435 2035 2E       		.uleb128 0x2e
 9436 2036 01       		.uleb128 0x1
 9437 2037 51       		.byte	0x51
 9438 2038 02       		.uleb128 0x2
 9439 2039 76       		.byte	0x76
 9440 203a 00       		.sleb128 0
 9441 203b 2E       		.uleb128 0x2e
 9442 203c 01       		.uleb128 0x1
 9443 203d 50       		.byte	0x50
 9444 203e 02       		.uleb128 0x2
 9445 203f 75       		.byte	0x75
 9446 2040 00       		.sleb128 0
 9447 2041 00       		.byte	0
 9448 2042 32       		.uleb128 0x32
 9449 2043 70020000 		.4byte	.LVL90
 9450 2047 74480000 		.4byte	0x4874
 9451 204b 2E       		.uleb128 0x2e
 9452 204c 01       		.uleb128 0x1
 9453 204d 51       		.byte	0x51
 9454 204e 02       		.uleb128 0x2
 9455 204f 76       		.byte	0x76
 9456 2050 00       		.sleb128 0
 9457 2051 2E       		.uleb128 0x2e
 9458 2052 01       		.uleb128 0x1
 9459 2053 50       		.byte	0x50
 9460 2054 02       		.uleb128 0x2
 9461 2055 75       		.byte	0x75
 9462 2056 00       		.sleb128 0
 9463 2057 00       		.byte	0
 9464 2058 00       		.byte	0
 9465 2059 0A       		.uleb128 0xa
 9466 205a 04       		.byte	0x4
 9467 205b 85140000 		.4byte	0x1485
 9468 205f 41       		.uleb128 0x41
 9469 2060 71200000 		.4byte	.LASF481
 9470 2064 01       		.byte	0x1
 9471 2065 69       		.byte	0x69
 9472 2066 00000000 		.4byte	.LFB259
 9473 206a 18170000 		.4byte	.LFE259-.LFB259
 9474 206e 01       		.uleb128 0x1
 9475 206f 9C       		.byte	0x9c
 9476 2070 30460000 		.4byte	0x4630
 9477 2074 42       		.uleb128 0x42
 9478 2075 391F0000 		.4byte	.LASF462
 9479 2079 01       		.byte	0x1
 9480 207a 69       		.byte	0x69
 9481 207b 63160000 		.4byte	0x1663
 9482 207f BE030000 		.4byte	.LLST27
 9483 2083 43       		.uleb128 0x43
 9484 2084 6C656E00 		.ascii	"len\000"
 9485 2088 01       		.byte	0x1
 9486 2089 69       		.byte	0x69
 9487 208a B8000000 		.4byte	0xb8
 9488 208e A4060000 		.4byte	.LLST28
 9489 2092 44       		.uleb128 0x44
 9490 2093 C20C0000 		.4byte	.LASF479
ARM GAS  /tmp/ccTQOGyd.s 			page 168


 9491 2097 01       		.byte	0x1
 9492 2098 6E       		.byte	0x6e
 9493 2099 8B150000 		.4byte	0x158b
 9494 209d F9080000 		.4byte	.LLST29
 9495 20a1 45       		.uleb128 0x45
 9496 20a2 696E6400 		.ascii	"ind\000"
 9497 20a6 01       		.byte	0x1
 9498 20a7 6F       		.byte	0x6f
 9499 20a8 EB000000 		.4byte	0xeb
 9500 20ac D00C0000 		.4byte	.LLST30
 9501 20b0 46       		.uleb128 0x46
 9502 20b1 BA1F0000 		.4byte	.LASF482
 9503 20b5 01       		.byte	0x1
 9504 20b6 70       		.byte	0x70
 9505 20b7 4B0E0000 		.4byte	0xe4b
 9506 20bb 05       		.uleb128 0x5
 9507 20bc 03       		.byte	0x3
 9508 20bd 00000000 		.4byte	mcconf.11418
 9509 20c1 46       		.uleb128 0x46
 9510 20c2 FF200000 		.4byte	.LASF483
 9511 20c6 01       		.byte	0x1
 9512 20c7 70       		.byte	0x70
 9513 20c8 4B0E0000 		.4byte	0xe4b
 9514 20cc 05       		.uleb128 0x5
 9515 20cd 03       		.byte	0x3
 9516 20ce 00000000 		.4byte	mcconf_old.11419
 9517 20d2 46       		.uleb128 0x46
 9518 20d3 E60F0000 		.4byte	.LASF480
 9519 20d7 01       		.byte	0x1
 9520 20d8 71       		.byte	0x71
 9521 20d9 85140000 		.4byte	0x1485
 9522 20dd 03       		.uleb128 0x3
 9523 20de 91       		.byte	0x91
 9524 20df 887E     		.sleb128 -248
 9525 20e1 44       		.uleb128 0x44
 9526 20e2 570D0000 		.4byte	.LASF484
 9527 20e6 01       		.byte	0x1
 9528 20e7 72       		.byte	0x72
 9529 20e8 E0000000 		.4byte	0xe0
 9530 20ec F00C0000 		.4byte	.LLST31
 9531 20f0 44       		.uleb128 0x44
 9532 20f1 49170000 		.4byte	.LASF485
 9533 20f5 01       		.byte	0x1
 9534 20f6 73       		.byte	0x73
 9535 20f7 F6000000 		.4byte	0xf6
 9536 20fb 0E0D0000 		.4byte	.LLST32
 9537 20ff 46       		.uleb128 0x46
 9538 2100 46030000 		.4byte	.LASF486
 9539 2104 01       		.byte	0x1
 9540 2105 74       		.byte	0x74
 9541 2106 FC150000 		.4byte	0x15fc
 9542 210a 03       		.uleb128 0x3
 9543 210b 91       		.byte	0x91
 9544 210c 887E     		.sleb128 -248
 9545 210e 47       		.uleb128 0x47
 9546 210f 76000000 		.4byte	.LBB100
 9547 2113 90000000 		.4byte	.LBE100-.LBB100
ARM GAS  /tmp/ccTQOGyd.s 			page 169


 9548 2117 1F220000 		.4byte	0x221f
 9549 211b 2A       		.uleb128 0x2a
 9550 211c 7200     		.ascii	"r\000"
 9551 211e 01       		.byte	0x1
 9552 211f 9D02     		.2byte	0x29d
 9553 2121 25000000 		.4byte	0x25
 9554 2125 03       		.uleb128 0x3
 9555 2126 91       		.byte	0x91
 9556 2127 847E     		.sleb128 -252
 9557 2129 2A       		.uleb128 0x2a
 9558 212a 6C00     		.ascii	"l\000"
 9559 212c 01       		.byte	0x1
 9560 212d 9E02     		.2byte	0x29e
 9561 212f 25000000 		.4byte	0x25
 9562 2133 03       		.uleb128 0x3
 9563 2134 91       		.byte	0x91
 9564 2135 887E     		.sleb128 -248
 9565 2137 38       		.uleb128 0x38
 9566 2138 72657300 		.ascii	"res\000"
 9567 213c 01       		.byte	0x1
 9568 213d 9F02     		.2byte	0x29f
 9569 213f 240E0000 		.4byte	0xe24
 9570 2143 210D0000 		.4byte	.LLST33
 9571 2147 48       		.uleb128 0x48
 9572 2148 7A000000 		.4byte	.LVL98
 9573 214c AA480000 		.4byte	0x48aa
 9574 2150 2F       		.uleb128 0x2f
 9575 2151 90000000 		.4byte	.LVL101
 9576 2155 35480000 		.4byte	0x4835
 9577 2159 6B210000 		.4byte	0x216b
 9578 215d 2E       		.uleb128 0x2e
 9579 215e 01       		.uleb128 0x1
 9580 215f 52       		.byte	0x52
 9581 2160 03       		.uleb128 0x3
 9582 2161 0A       		.byte	0xa
 9583 2162 7401     		.2byte	0x174
 9584 2164 2E       		.uleb128 0x2e
 9585 2165 01       		.uleb128 0x1
 9586 2166 50       		.byte	0x50
 9587 2167 02       		.uleb128 0x2
 9588 2168 74       		.byte	0x74
 9589 2169 00       		.sleb128 0
 9590 216a 00       		.byte	0
 9591 216b 2F       		.uleb128 0x2f
 9592 216c 9C000000 		.4byte	.LVL102
 9593 2170 35480000 		.4byte	0x4835
 9594 2174 8F210000 		.4byte	0x218f
 9595 2178 2E       		.uleb128 0x2e
 9596 2179 01       		.uleb128 0x1
 9597 217a 52       		.byte	0x52
 9598 217b 03       		.uleb128 0x3
 9599 217c 0A       		.byte	0xa
 9600 217d 7401     		.2byte	0x174
 9601 217f 2E       		.uleb128 0x2e
 9602 2180 01       		.uleb128 0x1
 9603 2181 51       		.byte	0x51
 9604 2182 02       		.uleb128 0x2
ARM GAS  /tmp/ccTQOGyd.s 			page 170


 9605 2183 74       		.byte	0x74
 9606 2184 00       		.sleb128 0
 9607 2185 2E       		.uleb128 0x2e
 9608 2186 01       		.uleb128 0x1
 9609 2187 50       		.byte	0x50
 9610 2188 05       		.uleb128 0x5
 9611 2189 03       		.byte	0x3
 9612 218a 00000000 		.4byte	.LANCHOR16
 9613 218e 00       		.byte	0
 9614 218f 2F       		.uleb128 0x2f
 9615 2190 AA000000 		.4byte	.LVL103
 9616 2194 C5480000 		.4byte	0x48c5
 9617 2198 A3210000 		.4byte	0x21a3
 9618 219c 2E       		.uleb128 0x2e
 9619 219d 01       		.uleb128 0x1
 9620 219e 50       		.byte	0x50
 9621 219f 02       		.uleb128 0x2
 9622 21a0 74       		.byte	0x74
 9623 21a1 00       		.sleb128 0
 9624 21a2 00       		.byte	0
 9625 21a3 2F       		.uleb128 0x2f
 9626 21a4 BA000000 		.4byte	.LVL104
 9627 21a8 DC480000 		.4byte	0x48dc
 9628 21ac BF210000 		.4byte	0x21bf
 9629 21b0 2E       		.uleb128 0x2e
 9630 21b1 01       		.uleb128 0x1
 9631 21b2 51       		.byte	0x51
 9632 21b3 03       		.uleb128 0x3
 9633 21b4 91       		.byte	0x91
 9634 21b5 887E     		.sleb128 -248
 9635 21b7 2E       		.uleb128 0x2e
 9636 21b8 01       		.uleb128 0x1
 9637 21b9 50       		.byte	0x50
 9638 21ba 03       		.uleb128 0x3
 9639 21bb 91       		.byte	0x91
 9640 21bc 847E     		.sleb128 -252
 9641 21be 00       		.byte	0
 9642 21bf 2F       		.uleb128 0x2f
 9643 21c0 C2000000 		.4byte	.LVL107
 9644 21c4 C5480000 		.4byte	0x48c5
 9645 21c8 D6210000 		.4byte	0x21d6
 9646 21cc 2E       		.uleb128 0x2e
 9647 21cd 01       		.uleb128 0x1
 9648 21ce 50       		.byte	0x50
 9649 21cf 05       		.uleb128 0x5
 9650 21d0 03       		.byte	0x3
 9651 21d1 00000000 		.4byte	.LANCHOR16
 9652 21d5 00       		.byte	0
 9653 21d6 2F       		.uleb128 0x2f
 9654 21d7 EE000000 		.4byte	.LVL110
 9655 21db F6480000 		.4byte	0x48f6
 9656 21df FC210000 		.4byte	0x21fc
 9657 21e3 2E       		.uleb128 0x2e
 9658 21e4 01       		.uleb128 0x1
 9659 21e5 51       		.byte	0x51
 9660 21e6 02       		.uleb128 0x2
 9661 21e7 77       		.byte	0x77
ARM GAS  /tmp/ccTQOGyd.s 			page 171


 9662 21e8 00       		.sleb128 0
 9663 21e9 2E       		.uleb128 0x2e
 9664 21ea 02       		.uleb128 0x2
 9665 21eb 90       		.byte	0x90
 9666 21ec 41       		.uleb128 0x41
 9667 21ed 07       		.uleb128 0x7
 9668 21ee F4       		.byte	0xf4
 9669 21ef 25       		.uleb128 0x25
 9670 21f0 04       		.byte	0x4
 9671 21f1 00247449 		.4byte	0x49742400
 9672 21f5 2E       		.uleb128 0x2e
 9673 21f6 01       		.uleb128 0x1
 9674 21f7 50       		.byte	0x50
 9675 21f8 02       		.uleb128 0x2
 9676 21f9 74       		.byte	0x74
 9677 21fa 00       		.sleb128 0
 9678 21fb 00       		.byte	0
 9679 21fc 32       		.uleb128 0x32
 9680 21fd FE000000 		.4byte	.LVL111
 9681 2201 F6480000 		.4byte	0x48f6
 9682 2205 2E       		.uleb128 0x2e
 9683 2206 01       		.uleb128 0x1
 9684 2207 51       		.byte	0x51
 9685 2208 02       		.uleb128 0x2
 9686 2209 77       		.byte	0x77
 9687 220a 00       		.sleb128 0
 9688 220b 2E       		.uleb128 0x2e
 9689 220c 02       		.uleb128 0x2
 9690 220d 90       		.byte	0x90
 9691 220e 41       		.uleb128 0x41
 9692 220f 07       		.uleb128 0x7
 9693 2210 F4       		.byte	0xf4
 9694 2211 25       		.uleb128 0x25
 9695 2212 04       		.byte	0x4
 9696 2213 00007A44 		.4byte	0x447a0000
 9697 2217 2E       		.uleb128 0x2e
 9698 2218 01       		.uleb128 0x1
 9699 2219 50       		.byte	0x50
 9700 221a 02       		.uleb128 0x2
 9701 221b 74       		.byte	0x74
 9702 221c 00       		.sleb128 0
 9703 221d 00       		.byte	0
 9704 221e 00       		.byte	0
 9705 221f 3D       		.uleb128 0x3d
 9706 2220 D8000000 		.4byte	.Ldebug_ranges0+0xd8
 9707 2224 AC230000 		.4byte	0x23ac
 9708 2228 3C       		.uleb128 0x3c
 9709 2229 38140000 		.4byte	.LASF487
 9710 222d 01       		.byte	0x1
 9711 222e B502     		.2byte	0x2b5
 9712 2230 25000000 		.4byte	0x25
 9713 2234 4A0D0000 		.4byte	.LLST34
 9714 2238 3C       		.uleb128 0x3c
 9715 2239 0A1A0000 		.4byte	.LASF488
 9716 223d 01       		.byte	0x1
 9717 223e B602     		.2byte	0x2b6
 9718 2240 25000000 		.4byte	0x25
ARM GAS  /tmp/ccTQOGyd.s 			page 172


 9719 2244 760D0000 		.4byte	.LLST35
 9720 2248 3C       		.uleb128 0x3c
 9721 2249 801B0000 		.4byte	.LASF489
 9722 224d 01       		.byte	0x1
 9723 224e B702     		.2byte	0x2b7
 9724 2250 25000000 		.4byte	0x25
 9725 2254 A20D0000 		.4byte	.LLST36
 9726 2258 3C       		.uleb128 0x3c
 9727 2259 B5040000 		.4byte	.LASF490
 9728 225d 01       		.byte	0x1
 9729 225e B802     		.2byte	0x2b8
 9730 2260 25000000 		.4byte	0x25
 9731 2264 CE0D0000 		.4byte	.LLST37
 9732 2268 39       		.uleb128 0x39
 9733 2269 EA050000 		.4byte	.LASF491
 9734 226d 01       		.byte	0x1
 9735 226e BC02     		.2byte	0x2bc
 9736 2270 25000000 		.4byte	0x25
 9737 2274 03       		.uleb128 0x3
 9738 2275 91       		.byte	0x91
 9739 2276 887E     		.sleb128 -248
 9740 2278 38       		.uleb128 0x38
 9741 2279 72657300 		.ascii	"res\000"
 9742 227d 01       		.byte	0x1
 9743 227e BD02     		.2byte	0x2bd
 9744 2280 240E0000 		.4byte	0xe24
 9745 2284 EE0D0000 		.4byte	.LLST38
 9746 2288 27       		.uleb128 0x27
 9747 2289 CE160000 		.4byte	0x16ce
 9748 228d 06010000 		.4byte	.LBB102
 9749 2291 F0000000 		.4byte	.Ldebug_ranges0+0xf0
 9750 2295 01       		.byte	0x1
 9751 2296 C902     		.2byte	0x2c9
 9752 2298 AF220000 		.4byte	0x22af
 9753 229c 2C       		.uleb128 0x2c
 9754 229d E5160000 		.4byte	0x16e5
 9755 22a1 0C0E0000 		.4byte	.LLST39
 9756 22a5 2C       		.uleb128 0x2c
 9757 22a6 DA160000 		.4byte	0x16da
 9758 22aa 1F0E0000 		.4byte	.LLST40
 9759 22ae 00       		.byte	0
 9760 22af 2F       		.uleb128 0x2f
 9761 22b0 DC020000 		.4byte	.LVL155
 9762 22b4 16490000 		.4byte	0x4916
 9763 22b8 D6220000 		.4byte	0x22d6
 9764 22bc 2E       		.uleb128 0x2e
 9765 22bd 01       		.uleb128 0x1
 9766 22be 51       		.byte	0x51
 9767 22bf 03       		.uleb128 0x3
 9768 22c0 91       		.byte	0x91
 9769 22c1 807E     		.sleb128 -256
 9770 22c3 2E       		.uleb128 0x2e
 9771 22c4 02       		.uleb128 0x2
 9772 22c5 90       		.byte	0x90
 9773 22c6 40       		.uleb128 0x40
 9774 22c7 07       		.uleb128 0x7
 9775 22c8 F4       		.byte	0xf4
ARM GAS  /tmp/ccTQOGyd.s 			page 173


 9776 22c9 25       		.uleb128 0x25
 9777 22ca 04       		.byte	0x4
 9778 22cb 00007A44 		.4byte	0x447a0000
 9779 22cf 2E       		.uleb128 0x2e
 9780 22d0 01       		.uleb128 0x1
 9781 22d1 50       		.byte	0x50
 9782 22d2 02       		.uleb128 0x2
 9783 22d3 74       		.byte	0x74
 9784 22d4 00       		.sleb128 0
 9785 22d5 00       		.byte	0
 9786 22d6 2F       		.uleb128 0x2f
 9787 22d7 EC020000 		.4byte	.LVL158
 9788 22db 16490000 		.4byte	0x4916
 9789 22df FD220000 		.4byte	0x22fd
 9790 22e3 2E       		.uleb128 0x2e
 9791 22e4 01       		.uleb128 0x1
 9792 22e5 51       		.byte	0x51
 9793 22e6 03       		.uleb128 0x3
 9794 22e7 91       		.byte	0x91
 9795 22e8 807E     		.sleb128 -256
 9796 22ea 2E       		.uleb128 0x2e
 9797 22eb 02       		.uleb128 0x2
 9798 22ec 90       		.byte	0x90
 9799 22ed 40       		.uleb128 0x40
 9800 22ee 07       		.uleb128 0x7
 9801 22ef F4       		.byte	0xf4
 9802 22f0 25       		.uleb128 0x25
 9803 22f1 04       		.byte	0x4
 9804 22f2 00007A44 		.4byte	0x447a0000
 9805 22f6 2E       		.uleb128 0x2e
 9806 22f7 01       		.uleb128 0x1
 9807 22f8 50       		.byte	0x50
 9808 22f9 02       		.uleb128 0x2
 9809 22fa 74       		.byte	0x74
 9810 22fb 00       		.sleb128 0
 9811 22fc 00       		.byte	0
 9812 22fd 2F       		.uleb128 0x2f
 9813 22fe FC020000 		.4byte	.LVL161
 9814 2302 16490000 		.4byte	0x4916
 9815 2306 24230000 		.4byte	0x2324
 9816 230a 2E       		.uleb128 0x2e
 9817 230b 01       		.uleb128 0x1
 9818 230c 51       		.byte	0x51
 9819 230d 03       		.uleb128 0x3
 9820 230e 91       		.byte	0x91
 9821 230f 807E     		.sleb128 -256
 9822 2311 2E       		.uleb128 0x2e
 9823 2312 02       		.uleb128 0x2
 9824 2313 90       		.byte	0x90
 9825 2314 40       		.uleb128 0x40
 9826 2315 07       		.uleb128 0x7
 9827 2316 F4       		.byte	0xf4
 9828 2317 25       		.uleb128 0x25
 9829 2318 04       		.byte	0x4
 9830 2319 00007A44 		.4byte	0x447a0000
 9831 231d 2E       		.uleb128 0x2e
 9832 231e 01       		.uleb128 0x1
ARM GAS  /tmp/ccTQOGyd.s 			page 174


 9833 231f 50       		.byte	0x50
 9834 2320 02       		.uleb128 0x2
 9835 2321 74       		.byte	0x74
 9836 2322 00       		.sleb128 0
 9837 2323 00       		.byte	0
 9838 2324 2F       		.uleb128 0x2f
 9839 2325 0C030000 		.4byte	.LVL164
 9840 2329 16490000 		.4byte	0x4916
 9841 232d 4B230000 		.4byte	0x234b
 9842 2331 2E       		.uleb128 0x2e
 9843 2332 01       		.uleb128 0x1
 9844 2333 51       		.byte	0x51
 9845 2334 03       		.uleb128 0x3
 9846 2335 91       		.byte	0x91
 9847 2336 807E     		.sleb128 -256
 9848 2338 2E       		.uleb128 0x2e
 9849 2339 02       		.uleb128 0x2
 9850 233a 90       		.byte	0x90
 9851 233b 40       		.uleb128 0x40
 9852 233c 07       		.uleb128 0x7
 9853 233d F4       		.byte	0xf4
 9854 233e 25       		.uleb128 0x25
 9855 233f 04       		.byte	0x4
 9856 2340 00247449 		.4byte	0x49742400
 9857 2344 2E       		.uleb128 0x2e
 9858 2345 01       		.uleb128 0x1
 9859 2346 50       		.byte	0x50
 9860 2347 02       		.uleb128 0x2
 9861 2348 74       		.byte	0x74
 9862 2349 00       		.sleb128 0
 9863 234a 00       		.byte	0
 9864 234b 2F       		.uleb128 0x2f
 9865 234c 26030000 		.4byte	.LVL167
 9866 2350 35490000 		.4byte	0x4935
 9867 2354 78230000 		.4byte	0x2378
 9868 2358 2E       		.uleb128 0x2e
 9869 2359 01       		.uleb128 0x1
 9870 235a 50       		.byte	0x50
 9871 235b 03       		.uleb128 0x3
 9872 235c 91       		.byte	0x91
 9873 235d 887E     		.sleb128 -248
 9874 235f 2E       		.uleb128 0x2e
 9875 2360 02       		.uleb128 0x2
 9876 2361 90       		.byte	0x90
 9877 2362 42       		.uleb128 0x42
 9878 2363 03       		.uleb128 0x3
 9879 2364 F5       		.byte	0xf5
 9880 2365 51       		.uleb128 0x51
 9881 2366 25       		.uleb128 0x25
 9882 2367 2E       		.uleb128 0x2e
 9883 2368 02       		.uleb128 0x2
 9884 2369 90       		.byte	0x90
 9885 236a 41       		.uleb128 0x41
 9886 236b 03       		.uleb128 0x3
 9887 236c F5       		.byte	0xf5
 9888 236d 52       		.uleb128 0x52
 9889 236e 25       		.uleb128 0x25
ARM GAS  /tmp/ccTQOGyd.s 			page 175


 9890 236f 2E       		.uleb128 0x2e
 9891 2370 02       		.uleb128 0x2
 9892 2371 90       		.byte	0x90
 9893 2372 40       		.uleb128 0x40
 9894 2373 03       		.uleb128 0x3
 9895 2374 F5       		.byte	0xf5
 9896 2375 50       		.uleb128 0x50
 9897 2376 25       		.uleb128 0x25
 9898 2377 00       		.byte	0
 9899 2378 2F       		.uleb128 0x2f
 9900 2379 4E030000 		.4byte	.LVL170
 9901 237d F6480000 		.4byte	0x48f6
 9902 2381 9F230000 		.4byte	0x239f
 9903 2385 2E       		.uleb128 0x2e
 9904 2386 01       		.uleb128 0x1
 9905 2387 51       		.byte	0x51
 9906 2388 03       		.uleb128 0x3
 9907 2389 91       		.byte	0x91
 9908 238a 807E     		.sleb128 -256
 9909 238c 2E       		.uleb128 0x2e
 9910 238d 02       		.uleb128 0x2
 9911 238e 90       		.byte	0x90
 9912 238f 41       		.uleb128 0x41
 9913 2390 07       		.uleb128 0x7
 9914 2391 F4       		.byte	0xf4
 9915 2392 25       		.uleb128 0x25
 9916 2393 04       		.byte	0x4
 9917 2394 8096184B 		.4byte	0x4b189680
 9918 2398 2E       		.uleb128 0x2e
 9919 2399 01       		.uleb128 0x1
 9920 239a 50       		.byte	0x50
 9921 239b 02       		.uleb128 0x2
 9922 239c 74       		.byte	0x74
 9923 239d 00       		.sleb128 0
 9924 239e 00       		.byte	0
 9925 239f 2D       		.uleb128 0x2d
 9926 23a0 5C030000 		.4byte	.LVL172
 9927 23a4 2E       		.uleb128 0x2e
 9928 23a5 01       		.uleb128 0x1
 9929 23a6 50       		.byte	0x50
 9930 23a7 02       		.uleb128 0x2
 9931 23a8 74       		.byte	0x74
 9932 23a9 00       		.sleb128 0
 9933 23aa 00       		.byte	0
 9934 23ab 00       		.byte	0
 9935 23ac 27       		.uleb128 0x27
 9936 23ad CE160000 		.4byte	0x16ce
 9937 23b1 0C010000 		.4byte	.LBB106
 9938 23b5 08010000 		.4byte	.Ldebug_ranges0+0x108
 9939 23b9 01       		.byte	0x1
 9940 23ba 4203     		.2byte	0x342
 9941 23bc DF230000 		.4byte	0x23df
 9942 23c0 2C       		.uleb128 0x2c
 9943 23c1 E5160000 		.4byte	0x16e5
 9944 23c5 370E0000 		.4byte	.LLST41
 9945 23c9 2C       		.uleb128 0x2c
 9946 23ca DA160000 		.4byte	0x16da
ARM GAS  /tmp/ccTQOGyd.s 			page 176


 9947 23ce 4A0E0000 		.4byte	.LLST42
 9948 23d2 2D       		.uleb128 0x2d
 9949 23d3 10010000 		.4byte	.LVL114
 9950 23d7 2E       		.uleb128 0x2e
 9951 23d8 01       		.uleb128 0x1
 9952 23d9 50       		.byte	0x50
 9953 23da 02       		.uleb128 0x2
 9954 23db 74       		.byte	0x74
 9955 23dc 00       		.sleb128 0
 9956 23dd 00       		.byte	0
 9957 23de 00       		.byte	0
 9958 23df 49       		.uleb128 0x49
 9959 23e0 F1160000 		.4byte	0x16f1
 9960 23e4 4E010000 		.4byte	.LBB110
 9961 23e8 04000000 		.4byte	.LBE110-.LBB110
 9962 23ec 01       		.byte	0x1
 9963 23ed 2403     		.2byte	0x324
 9964 23ef 3D       		.uleb128 0x3d
 9965 23f0 28010000 		.4byte	.Ldebug_ranges0+0x128
 9966 23f4 14250000 		.4byte	0x2514
 9967 23f8 3C       		.uleb128 0x3c
 9968 23f9 38140000 		.4byte	.LASF487
 9969 23fd 01       		.byte	0x1
 9970 23fe FF02     		.2byte	0x2ff
 9971 2400 25000000 		.4byte	0x25
 9972 2404 620E0000 		.4byte	.LLST43
 9973 2408 39       		.uleb128 0x39
 9974 2409 13120000 		.4byte	.LASF492
 9975 240d 01       		.byte	0x1
 9976 240e 0903     		.2byte	0x309
 9977 2410 3B0E0000 		.4byte	0xe3b
 9978 2414 03       		.uleb128 0x3
 9979 2415 91       		.byte	0x91
 9980 2416 887E     		.sleb128 -248
 9981 2418 38       		.uleb128 0x38
 9982 2419 72657300 		.ascii	"res\000"
 9983 241d 01       		.byte	0x1
 9984 241e 0A03     		.2byte	0x30a
 9985 2420 240E0000 		.4byte	0xe24
 9986 2424 8E0E0000 		.4byte	.LLST44
 9987 2428 2B       		.uleb128 0x2b
 9988 2429 CE160000 		.4byte	0x16ce
 9989 242d DA160000 		.4byte	.LBB113
 9990 2431 12000000 		.4byte	.LBE113-.LBB113
 9991 2435 01       		.byte	0x1
 9992 2436 1603     		.2byte	0x316
 9993 2438 66240000 		.4byte	0x2466
 9994 243c 2C       		.uleb128 0x2c
 9995 243d E5160000 		.4byte	0x16e5
 9996 2441 B70E0000 		.4byte	.LLST45
 9997 2445 2C       		.uleb128 0x2c
 9998 2446 DA160000 		.4byte	0x16da
 9999 244a CB0E0000 		.4byte	.LLST46
 10000 244e 30       		.uleb128 0x30
 10001 244f E8160000 		.4byte	.LVL579
 10002 2453 02       		.uleb128 0x2
 10003 2454 74       		.byte	0x74
ARM GAS  /tmp/ccTQOGyd.s 			page 177


 10004 2455 00       		.sleb128 0
 10005 2456 2E       		.uleb128 0x2e
 10006 2457 01       		.uleb128 0x1
 10007 2458 51       		.byte	0x51
 10008 2459 01       		.uleb128 0x1
 10009 245a 3A       		.byte	0x3a
 10010 245b 2E       		.uleb128 0x2e
 10011 245c 01       		.uleb128 0x1
 10012 245d 50       		.byte	0x50
 10013 245e 05       		.uleb128 0x5
 10014 245f 03       		.byte	0x3
 10015 2460 00000000 		.4byte	.LANCHOR8
 10016 2464 00       		.byte	0
 10017 2465 00       		.byte	0
 10018 2466 2F       		.uleb128 0x2f
 10019 2467 80010000 		.4byte	.LVL126
 10020 246b 35480000 		.4byte	0x4835
 10021 246f 8A240000 		.4byte	0x248a
 10022 2473 2E       		.uleb128 0x2e
 10023 2474 01       		.uleb128 0x1
 10024 2475 52       		.byte	0x52
 10025 2476 03       		.uleb128 0x3
 10026 2477 0A       		.byte	0xa
 10027 2478 7401     		.2byte	0x174
 10028 247a 2E       		.uleb128 0x2e
 10029 247b 01       		.uleb128 0x1
 10030 247c 51       		.byte	0x51
 10031 247d 02       		.uleb128 0x2
 10032 247e 75       		.byte	0x75
 10033 247f 00       		.sleb128 0
 10034 2480 2E       		.uleb128 0x2e
 10035 2481 01       		.uleb128 0x1
 10036 2482 50       		.byte	0x50
 10037 2483 05       		.uleb128 0x5
 10038 2484 03       		.byte	0x3
 10039 2485 00000000 		.4byte	.LANCHOR16
 10040 2489 00       		.byte	0
 10041 248a 2F       		.uleb128 0x2f
 10042 248b 92010000 		.4byte	.LVL128
 10043 248f 16490000 		.4byte	0x4916
 10044 2493 B4240000 		.4byte	0x24b4
 10045 2497 2E       		.uleb128 0x2e
 10046 2498 01       		.uleb128 0x1
 10047 2499 51       		.byte	0x51
 10048 249a 03       		.uleb128 0x3
 10049 249b 91       		.byte	0x91
 10050 249c 807E     		.sleb128 -256
 10051 249e 2E       		.uleb128 0x2e
 10052 249f 02       		.uleb128 0x2
 10053 24a0 90       		.byte	0x90
 10054 24a1 40       		.uleb128 0x40
 10055 24a2 07       		.uleb128 0x7
 10056 24a3 F4       		.byte	0xf4
 10057 24a4 25       		.uleb128 0x25
 10058 24a5 04       		.byte	0x4
 10059 24a6 00007A44 		.4byte	0x447a0000
 10060 24aa 2E       		.uleb128 0x2e
ARM GAS  /tmp/ccTQOGyd.s 			page 178


 10061 24ab 01       		.uleb128 0x1
 10062 24ac 50       		.byte	0x50
 10063 24ad 05       		.uleb128 0x5
 10064 24ae F3       		.byte	0xf3
 10065 24af 01       		.uleb128 0x1
 10066 24b0 50       		.byte	0x50
 10067 24b1 23       		.byte	0x23
 10068 24b2 01       		.uleb128 0x1
 10069 24b3 00       		.byte	0
 10070 24b4 2F       		.uleb128 0x2f
 10071 24b5 B4010000 		.4byte	.LVL130
 10072 24b9 C5480000 		.4byte	0x48c5
 10073 24bd C8240000 		.4byte	0x24c8
 10074 24c1 2E       		.uleb128 0x2e
 10075 24c2 01       		.uleb128 0x1
 10076 24c3 50       		.byte	0x50
 10077 24c4 02       		.uleb128 0x2
 10078 24c5 75       		.byte	0x75
 10079 24c6 00       		.sleb128 0
 10080 24c7 00       		.byte	0
 10081 24c8 2F       		.uleb128 0x2f
 10082 24c9 BE010000 		.4byte	.LVL131
 10083 24cd 5E490000 		.4byte	0x495e
 10084 24d1 E5240000 		.4byte	0x24e5
 10085 24d5 2E       		.uleb128 0x2e
 10086 24d6 01       		.uleb128 0x1
 10087 24d7 50       		.byte	0x50
 10088 24d8 03       		.uleb128 0x3
 10089 24d9 91       		.byte	0x91
 10090 24da 887E     		.sleb128 -248
 10091 24dc 2E       		.uleb128 0x2e
 10092 24dd 02       		.uleb128 0x2
 10093 24de 90       		.byte	0x90
 10094 24df 40       		.uleb128 0x40
 10095 24e0 03       		.uleb128 0x3
 10096 24e1 F5       		.byte	0xf5
 10097 24e2 50       		.uleb128 0x50
 10098 24e3 25       		.uleb128 0x25
 10099 24e4 00       		.byte	0
 10100 24e5 2F       		.uleb128 0x2f
 10101 24e6 C6010000 		.4byte	.LVL134
 10102 24ea C5480000 		.4byte	0x48c5
 10103 24ee FC240000 		.4byte	0x24fc
 10104 24f2 2E       		.uleb128 0x2e
 10105 24f3 01       		.uleb128 0x1
 10106 24f4 50       		.byte	0x50
 10107 24f5 05       		.uleb128 0x5
 10108 24f6 03       		.byte	0x3
 10109 24f7 00000000 		.4byte	.LANCHOR16
 10110 24fb 00       		.byte	0
 10111 24fc 30       		.uleb128 0x30
 10112 24fd F2010000 		.4byte	.LVL135
 10113 2501 02       		.uleb128 0x2
 10114 2502 75       		.byte	0x75
 10115 2503 00       		.sleb128 0
 10116 2504 2E       		.uleb128 0x2e
 10117 2505 01       		.uleb128 0x1
ARM GAS  /tmp/ccTQOGyd.s 			page 179


 10118 2506 51       		.byte	0x51
 10119 2507 01       		.uleb128 0x1
 10120 2508 3A       		.byte	0x3a
 10121 2509 2E       		.uleb128 0x2e
 10122 250a 01       		.uleb128 0x1
 10123 250b 50       		.byte	0x50
 10124 250c 05       		.uleb128 0x5
 10125 250d 03       		.byte	0x3
 10126 250e 00000000 		.4byte	.LANCHOR8
 10127 2512 00       		.byte	0
 10128 2513 00       		.byte	0
 10129 2514 3D       		.uleb128 0x3d
 10130 2515 40010000 		.4byte	.Ldebug_ranges0+0x140
 10131 2519 A3260000 		.4byte	0x26a3
 10132 251d 3C       		.uleb128 0x3c
 10133 251e 38140000 		.4byte	.LASF487
 10134 2522 01       		.byte	0x1
 10135 2523 D602     		.2byte	0x2d6
 10136 2525 25000000 		.4byte	0x25
 10137 2529 E30E0000 		.4byte	.LLST47
 10138 252d 39       		.uleb128 0x39
 10139 252e 5A210000 		.4byte	.LASF94
 10140 2532 01       		.byte	0x1
 10141 2533 DE02     		.2byte	0x2de
 10142 2535 25000000 		.4byte	0x25
 10143 2539 03       		.uleb128 0x3
 10144 253a 91       		.byte	0x91
 10145 253b 847E     		.sleb128 -252
 10146 253d 39       		.uleb128 0x39
 10147 253e 571D0000 		.4byte	.LASF493
 10148 2542 01       		.byte	0x1
 10149 2543 DF02     		.2byte	0x2df
 10150 2545 25000000 		.4byte	0x25
 10151 2549 03       		.uleb128 0x3
 10152 254a 91       		.byte	0x91
 10153 254b 887E     		.sleb128 -248
 10154 254d 39       		.uleb128 0x39
 10155 254e 42250000 		.4byte	.LASF494
 10156 2552 01       		.byte	0x1
 10157 2553 E002     		.2byte	0x2e0
 10158 2555 240E0000 		.4byte	0xe24
 10159 2559 03       		.uleb128 0x3
 10160 255a 91       		.byte	0x91
 10161 255b FF7D     		.sleb128 -257
 10162 255d 27       		.uleb128 0x27
 10163 255e CE160000 		.4byte	0x16ce
 10164 2562 C6020000 		.4byte	.LBB116
 10165 2566 58010000 		.4byte	.Ldebug_ranges0+0x158
 10166 256a 01       		.byte	0x1
 10167 256b EC02     		.2byte	0x2ec
 10168 256d 90250000 		.4byte	0x2590
 10169 2571 2C       		.uleb128 0x2c
 10170 2572 E5160000 		.4byte	0x16e5
 10171 2576 0F0F0000 		.4byte	.LLST48
 10172 257a 2C       		.uleb128 0x2c
 10173 257b DA160000 		.4byte	0x16da
 10174 257f 220F0000 		.4byte	.LLST49
ARM GAS  /tmp/ccTQOGyd.s 			page 180


 10175 2583 2D       		.uleb128 0x2d
 10176 2584 CA020000 		.4byte	.LVL151
 10177 2588 2E       		.uleb128 0x2e
 10178 2589 01       		.uleb128 0x1
 10179 258a 50       		.byte	0x50
 10180 258b 02       		.uleb128 0x2
 10181 258c 76       		.byte	0x76
 10182 258d 00       		.sleb128 0
 10183 258e 00       		.byte	0
 10184 258f 00       		.byte	0
 10185 2590 48       		.uleb128 0x48
 10186 2591 04020000 		.4byte	.LVL138
 10187 2595 AA480000 		.4byte	0x48aa
 10188 2599 2F       		.uleb128 0x2f
 10189 259a 1E020000 		.4byte	.LVL140
 10190 259e 35480000 		.4byte	0x4835
 10191 25a2 B4250000 		.4byte	0x25b4
 10192 25a6 2E       		.uleb128 0x2e
 10193 25a7 01       		.uleb128 0x1
 10194 25a8 52       		.byte	0x52
 10195 25a9 03       		.uleb128 0x3
 10196 25aa 0A       		.byte	0xa
 10197 25ab 7401     		.2byte	0x174
 10198 25ad 2E       		.uleb128 0x2e
 10199 25ae 01       		.uleb128 0x1
 10200 25af 50       		.byte	0x50
 10201 25b0 02       		.uleb128 0x2
 10202 25b1 75       		.byte	0x75
 10203 25b2 00       		.sleb128 0
 10204 25b3 00       		.byte	0
 10205 25b4 2F       		.uleb128 0x2f
 10206 25b5 2E020000 		.4byte	.LVL142
 10207 25b9 35480000 		.4byte	0x4835
 10208 25bd D8250000 		.4byte	0x25d8
 10209 25c1 2E       		.uleb128 0x2e
 10210 25c2 01       		.uleb128 0x1
 10211 25c3 52       		.byte	0x52
 10212 25c4 03       		.uleb128 0x3
 10213 25c5 0A       		.byte	0xa
 10214 25c6 7401     		.2byte	0x174
 10215 25c8 2E       		.uleb128 0x2e
 10216 25c9 01       		.uleb128 0x1
 10217 25ca 51       		.byte	0x51
 10218 25cb 02       		.uleb128 0x2
 10219 25cc 75       		.byte	0x75
 10220 25cd 00       		.sleb128 0
 10221 25ce 2E       		.uleb128 0x2e
 10222 25cf 01       		.uleb128 0x1
 10223 25d0 50       		.byte	0x50
 10224 25d1 05       		.uleb128 0x5
 10225 25d2 03       		.byte	0x3
 10226 25d3 00000000 		.4byte	.LANCHOR16
 10227 25d7 00       		.byte	0
 10228 25d8 2F       		.uleb128 0x2f
 10229 25d9 46020000 		.4byte	.LVL143
 10230 25dd 16490000 		.4byte	0x4916
 10231 25e1 FE250000 		.4byte	0x25fe
ARM GAS  /tmp/ccTQOGyd.s 			page 181


 10232 25e5 2E       		.uleb128 0x2e
 10233 25e6 01       		.uleb128 0x1
 10234 25e7 51       		.byte	0x51
 10235 25e8 02       		.uleb128 0x2
 10236 25e9 77       		.byte	0x77
 10237 25ea 00       		.sleb128 0
 10238 25eb 2E       		.uleb128 0x2e
 10239 25ec 02       		.uleb128 0x2
 10240 25ed 90       		.byte	0x90
 10241 25ee 40       		.uleb128 0x40
 10242 25ef 07       		.uleb128 0x7
 10243 25f0 F4       		.byte	0xf4
 10244 25f1 25       		.uleb128 0x25
 10245 25f2 04       		.byte	0x4
 10246 25f3 00007A44 		.4byte	0x447a0000
 10247 25f7 2E       		.uleb128 0x2e
 10248 25f8 01       		.uleb128 0x1
 10249 25f9 50       		.byte	0x50
 10250 25fa 02       		.uleb128 0x2
 10251 25fb 74       		.byte	0x74
 10252 25fc 00       		.sleb128 0
 10253 25fd 00       		.byte	0
 10254 25fe 2F       		.uleb128 0x2f
 10255 25ff 68020000 		.4byte	.LVL146
 10256 2603 C5480000 		.4byte	0x48c5
 10257 2607 12260000 		.4byte	0x2612
 10258 260b 2E       		.uleb128 0x2e
 10259 260c 01       		.uleb128 0x1
 10260 260d 50       		.byte	0x50
 10261 260e 02       		.uleb128 0x2
 10262 260f 75       		.byte	0x75
 10263 2610 00       		.sleb128 0
 10264 2611 00       		.byte	0
 10265 2612 2F       		.uleb128 0x2f
 10266 2613 82020000 		.4byte	.LVL147
 10267 2617 78490000 		.4byte	0x4978
 10268 261b 43260000 		.4byte	0x2643
 10269 261f 2E       		.uleb128 0x2e
 10270 2620 01       		.uleb128 0x1
 10271 2621 53       		.byte	0x53
 10272 2622 03       		.uleb128 0x3
 10273 2623 91       		.byte	0x91
 10274 2624 FF7D     		.sleb128 -257
 10275 2626 2E       		.uleb128 0x2e
 10276 2627 01       		.uleb128 0x1
 10277 2628 52       		.byte	0x52
 10278 2629 03       		.uleb128 0x3
 10279 262a 91       		.byte	0x91
 10280 262b 887E     		.sleb128 -248
 10281 262d 2E       		.uleb128 0x2e
 10282 262e 01       		.uleb128 0x1
 10283 262f 51       		.byte	0x51
 10284 2630 03       		.uleb128 0x3
 10285 2631 91       		.byte	0x91
 10286 2632 847E     		.sleb128 -252
 10287 2634 2E       		.uleb128 0x2e
 10288 2635 01       		.uleb128 0x1
ARM GAS  /tmp/ccTQOGyd.s 			page 182


 10289 2636 50       		.byte	0x50
 10290 2637 02       		.uleb128 0x2
 10291 2638 74       		.byte	0x74
 10292 2639 00       		.sleb128 0
 10293 263a 2E       		.uleb128 0x2e
 10294 263b 02       		.uleb128 0x2
 10295 263c 90       		.byte	0x90
 10296 263d 40       		.uleb128 0x40
 10297 263e 03       		.uleb128 0x3
 10298 263f F5       		.byte	0xf5
 10299 2640 50       		.uleb128 0x50
 10300 2641 25       		.uleb128 0x25
 10301 2642 00       		.byte	0
 10302 2643 2F       		.uleb128 0x2f
 10303 2644 88020000 		.4byte	.LVL148
 10304 2648 C5480000 		.4byte	0x48c5
 10305 264c 5A260000 		.4byte	0x265a
 10306 2650 2E       		.uleb128 0x2e
 10307 2651 01       		.uleb128 0x1
 10308 2652 50       		.byte	0x50
 10309 2653 05       		.uleb128 0x5
 10310 2654 03       		.byte	0x3
 10311 2655 00000000 		.4byte	.LANCHOR16
 10312 2659 00       		.byte	0
 10313 265a 2F       		.uleb128 0x2f
 10314 265b A0020000 		.4byte	.LVL149
 10315 265f F6480000 		.4byte	0x48f6
 10316 2663 80260000 		.4byte	0x2680
 10317 2667 2E       		.uleb128 0x2e
 10318 2668 01       		.uleb128 0x1
 10319 2669 51       		.byte	0x51
 10320 266a 02       		.uleb128 0x2
 10321 266b 77       		.byte	0x77
 10322 266c 00       		.sleb128 0
 10323 266d 2E       		.uleb128 0x2e
 10324 266e 02       		.uleb128 0x2
 10325 266f 90       		.byte	0x90
 10326 2670 41       		.uleb128 0x41
 10327 2671 07       		.uleb128 0x7
 10328 2672 F4       		.byte	0xf4
 10329 2673 25       		.uleb128 0x25
 10330 2674 04       		.byte	0x4
 10331 2675 00247449 		.4byte	0x49742400
 10332 2679 2E       		.uleb128 0x2e
 10333 267a 01       		.uleb128 0x1
 10334 267b 50       		.byte	0x50
 10335 267c 02       		.uleb128 0x2
 10336 267d 76       		.byte	0x76
 10337 267e 00       		.sleb128 0
 10338 267f 00       		.byte	0
 10339 2680 32       		.uleb128 0x32
 10340 2681 B0020000 		.4byte	.LVL150
 10341 2685 F6480000 		.4byte	0x48f6
 10342 2689 2E       		.uleb128 0x2e
 10343 268a 01       		.uleb128 0x1
 10344 268b 51       		.byte	0x51
 10345 268c 02       		.uleb128 0x2
ARM GAS  /tmp/ccTQOGyd.s 			page 183


 10346 268d 77       		.byte	0x77
 10347 268e 00       		.sleb128 0
 10348 268f 2E       		.uleb128 0x2e
 10349 2690 02       		.uleb128 0x2
 10350 2691 90       		.byte	0x90
 10351 2692 41       		.uleb128 0x41
 10352 2693 07       		.uleb128 0x7
 10353 2694 F4       		.byte	0xf4
 10354 2695 25       		.uleb128 0x25
 10355 2696 04       		.byte	0x4
 10356 2697 00247449 		.4byte	0x49742400
 10357 269b 2E       		.uleb128 0x2e
 10358 269c 01       		.uleb128 0x1
 10359 269d 50       		.byte	0x50
 10360 269e 02       		.uleb128 0x2
 10361 269f 76       		.byte	0x76
 10362 26a0 00       		.sleb128 0
 10363 26a1 00       		.byte	0
 10364 26a2 00       		.byte	0
 10365 26a3 4A       		.uleb128 0x4a
 10366 26a4 CE160000 		.4byte	0x16ce
 10367 26a8 6E050000 		.4byte	.LBB121
 10368 26ac 70010000 		.4byte	.Ldebug_ranges0+0x170
 10369 26b0 01       		.byte	0x1
 10370 26b1 B8       		.byte	0xb8
 10371 26b2 C9260000 		.4byte	0x26c9
 10372 26b6 2C       		.uleb128 0x2c
 10373 26b7 E5160000 		.4byte	0x16e5
 10374 26bb 3A0F0000 		.4byte	.LLST50
 10375 26bf 2C       		.uleb128 0x2c
 10376 26c0 DA160000 		.4byte	0x16da
 10377 26c4 4D0F0000 		.4byte	.LLST51
 10378 26c8 00       		.byte	0
 10379 26c9 4A       		.uleb128 0x4a
 10380 26ca CE160000 		.4byte	0x16ce
 10381 26ce 90050000 		.4byte	.LBB127
 10382 26d2 90010000 		.4byte	.Ldebug_ranges0+0x190
 10383 26d6 01       		.byte	0x1
 10384 26d7 A2       		.byte	0xa2
 10385 26d8 FE260000 		.4byte	0x26fe
 10386 26dc 2C       		.uleb128 0x2c
 10387 26dd E5160000 		.4byte	0x16e5
 10388 26e1 650F0000 		.4byte	.LLST52
 10389 26e5 2C       		.uleb128 0x2c
 10390 26e6 DA160000 		.4byte	0x16da
 10391 26ea 790F0000 		.4byte	.LLST53
 10392 26ee 2D       		.uleb128 0x2d
 10393 26ef B2050000 		.4byte	.LVL237
 10394 26f3 2E       		.uleb128 0x2e
 10395 26f4 01       		.uleb128 0x1
 10396 26f5 50       		.byte	0x50
 10397 26f6 05       		.uleb128 0x5
 10398 26f7 03       		.byte	0x3
 10399 26f8 00000000 		.4byte	.LANCHOR8
 10400 26fc 00       		.byte	0
 10401 26fd 00       		.byte	0
 10402 26fe 4A       		.uleb128 0x4a
ARM GAS  /tmp/ccTQOGyd.s 			page 184


 10403 26ff CE160000 		.4byte	0x16ce
 10404 2703 C0050000 		.4byte	.LBB133
 10405 2707 B0010000 		.4byte	.Ldebug_ranges0+0x1b0
 10406 270b 01       		.byte	0x1
 10407 270c 97       		.byte	0x97
 10408 270d 24270000 		.4byte	0x2724
 10409 2711 2C       		.uleb128 0x2c
 10410 2712 E5160000 		.4byte	0x16e5
 10411 2716 910F0000 		.4byte	.LLST54
 10412 271a 2C       		.uleb128 0x2c
 10413 271b DA160000 		.4byte	0x16da
 10414 271f A50F0000 		.4byte	.LLST55
 10415 2723 00       		.byte	0
 10416 2724 4A       		.uleb128 0x4a
 10417 2725 CE160000 		.4byte	0x16ce
 10418 2729 FE050000 		.4byte	.LBB139
 10419 272d D0010000 		.4byte	.Ldebug_ranges0+0x1d0
 10420 2731 01       		.byte	0x1
 10421 2732 89       		.byte	0x89
 10422 2733 61270000 		.4byte	0x2761
 10423 2737 2C       		.uleb128 0x2c
 10424 2738 E5160000 		.4byte	0x16e5
 10425 273c BD0F0000 		.4byte	.LLST56
 10426 2740 2C       		.uleb128 0x2c
 10427 2741 DA160000 		.4byte	0x16da
 10428 2745 D10F0000 		.4byte	.LLST57
 10429 2749 30       		.uleb128 0x30
 10430 274a 1C060000 		.4byte	.LVL252
 10431 274e 02       		.uleb128 0x2
 10432 274f 74       		.byte	0x74
 10433 2750 00       		.sleb128 0
 10434 2751 2E       		.uleb128 0x2e
 10435 2752 01       		.uleb128 0x1
 10436 2753 51       		.byte	0x51
 10437 2754 01       		.uleb128 0x1
 10438 2755 43       		.byte	0x43
 10439 2756 2E       		.uleb128 0x2e
 10440 2757 01       		.uleb128 0x1
 10441 2758 50       		.byte	0x50
 10442 2759 05       		.uleb128 0x5
 10443 275a 03       		.byte	0x3
 10444 275b 00000000 		.4byte	.LANCHOR8
 10445 275f 00       		.byte	0
 10446 2760 00       		.byte	0
 10447 2761 27       		.uleb128 0x27
 10448 2762 CE160000 		.4byte	0x16ce
 10449 2766 70060000 		.4byte	.LBB147
 10450 276a F0010000 		.4byte	.Ldebug_ranges0+0x1f0
 10451 276e 01       		.byte	0x1
 10452 276f 6203     		.2byte	0x362
 10453 2771 88270000 		.4byte	0x2788
 10454 2775 2C       		.uleb128 0x2c
 10455 2776 E5160000 		.4byte	0x16e5
 10456 277a E90F0000 		.4byte	.LLST58
 10457 277e 2C       		.uleb128 0x2c
 10458 277f DA160000 		.4byte	0x16da
 10459 2783 FD0F0000 		.4byte	.LLST59
ARM GAS  /tmp/ccTQOGyd.s 			page 185


 10460 2787 00       		.byte	0
 10461 2788 27       		.uleb128 0x27
 10462 2789 CE160000 		.4byte	0x16ce
 10463 278d 8C0B0000 		.4byte	.LBB153
 10464 2791 10020000 		.4byte	.Ldebug_ranges0+0x210
 10465 2795 01       		.byte	0x1
 10466 2796 6A02     		.2byte	0x26a
 10467 2798 AF270000 		.4byte	0x27af
 10468 279c 2C       		.uleb128 0x2c
 10469 279d E5160000 		.4byte	0x16e5
 10470 27a1 15100000 		.4byte	.LLST60
 10471 27a5 2C       		.uleb128 0x2c
 10472 27a6 DA160000 		.4byte	0x16da
 10473 27aa 29100000 		.4byte	.LLST61
 10474 27ae 00       		.byte	0
 10475 27af 47       		.uleb128 0x47
 10476 27b0 B00B0000 		.4byte	.LBB159
 10477 27b4 20000000 		.4byte	.LBE159-.LBB159
 10478 27b8 18280000 		.4byte	0x2818
 10479 27bc 3C       		.uleb128 0x3c
 10480 27bd 1B180000 		.4byte	.LASF495
 10481 27c1 01       		.byte	0x1
 10482 27c2 7902     		.2byte	0x279
 10483 27c4 E0000000 		.4byte	0xe0
 10484 27c8 41100000 		.4byte	.LLST62
 10485 27cc 3C       		.uleb128 0x3c
 10486 27cd 4C270000 		.4byte	.LASF496
 10487 27d1 01       		.byte	0x1
 10488 27d2 7A02     		.2byte	0x27a
 10489 27d4 CA000000 		.4byte	0xca
 10490 27d8 5F100000 		.4byte	.LLST63
 10491 27dc 3C       		.uleb128 0x3c
 10492 27dd 14070000 		.4byte	.LASF497
 10493 27e1 01       		.byte	0x1
 10494 27e2 7B02     		.2byte	0x27b
 10495 27e4 38090000 		.4byte	0x938
 10496 27e8 78100000 		.4byte	.LLST64
 10497 27ec 2F       		.uleb128 0x2f
 10498 27ed C00B0000 		.4byte	.LVL363
 10499 27f1 A3490000 		.4byte	0x49a3
 10500 27f5 07280000 		.4byte	0x2807
 10501 27f9 2E       		.uleb128 0x2e
 10502 27fa 01       		.uleb128 0x1
 10503 27fb 51       		.byte	0x51
 10504 27fc 03       		.uleb128 0x3
 10505 27fd 91       		.byte	0x91
 10506 27fe 807E     		.sleb128 -256
 10507 2800 2E       		.uleb128 0x2e
 10508 2801 01       		.uleb128 0x1
 10509 2802 50       		.byte	0x50
 10510 2803 02       		.uleb128 0x2
 10511 2804 74       		.byte	0x74
 10512 2805 00       		.sleb128 0
 10513 2806 00       		.byte	0
 10514 2807 32       		.uleb128 0x32
 10515 2808 D00B0000 		.4byte	.LVL367
 10516 280c BD490000 		.4byte	0x49bd
ARM GAS  /tmp/ccTQOGyd.s 			page 186


 10517 2810 2E       		.uleb128 0x2e
 10518 2811 01       		.uleb128 0x1
 10519 2812 50       		.byte	0x50
 10520 2813 02       		.uleb128 0x2
 10521 2814 75       		.byte	0x75
 10522 2815 00       		.sleb128 0
 10523 2816 00       		.byte	0
 10524 2817 00       		.byte	0
 10525 2818 27       		.uleb128 0x27
 10526 2819 CE160000 		.4byte	0x16ce
 10527 281d 42100000 		.4byte	.LBB160
 10528 2821 30020000 		.4byte	.Ldebug_ranges0+0x230
 10529 2825 01       		.byte	0x1
 10530 2826 1302     		.2byte	0x213
 10531 2828 3F280000 		.4byte	0x283f
 10532 282c 2C       		.uleb128 0x2c
 10533 282d E5160000 		.4byte	0x16e5
 10534 2831 97100000 		.4byte	.LLST65
 10535 2835 2C       		.uleb128 0x2c
 10536 2836 DA160000 		.4byte	0x16da
 10537 283a AA100000 		.4byte	.LLST66
 10538 283e 00       		.byte	0
 10539 283f 27       		.uleb128 0x27
 10540 2840 CE160000 		.4byte	0x16ce
 10541 2844 F0150000 		.4byte	.LBB164
 10542 2848 48020000 		.4byte	.Ldebug_ranges0+0x248
 10543 284c 01       		.byte	0x1
 10544 284d 9F01     		.2byte	0x19f
 10545 284f 66280000 		.4byte	0x2866
 10546 2853 2C       		.uleb128 0x2c
 10547 2854 E5160000 		.4byte	0x16e5
 10548 2858 C2100000 		.4byte	.LLST67
 10549 285c 2C       		.uleb128 0x2c
 10550 285d DA160000 		.4byte	0x16da
 10551 2861 D6100000 		.4byte	.LLST68
 10552 2865 00       		.byte	0
 10553 2866 27       		.uleb128 0x27
 10554 2867 CE160000 		.4byte	0x16ce
 10555 286b C4160000 		.4byte	.LBB171
 10556 286f 68020000 		.4byte	.Ldebug_ranges0+0x268
 10557 2873 01       		.byte	0x1
 10558 2874 F402     		.2byte	0x2f4
 10559 2876 8D280000 		.4byte	0x288d
 10560 287a 2C       		.uleb128 0x2c
 10561 287b E5160000 		.4byte	0x16e5
 10562 287f EE100000 		.4byte	.LLST69
 10563 2883 2C       		.uleb128 0x2c
 10564 2884 DA160000 		.4byte	0x16da
 10565 2888 01110000 		.4byte	.LLST70
 10566 288c 00       		.byte	0
 10567 288d 48       		.uleb128 0x48
 10568 288e 1E010000 		.4byte	.LVL116
 10569 2892 AA480000 		.4byte	0x48aa
 10570 2896 2F       		.uleb128 0x2f
 10571 2897 2C010000 		.4byte	.LVL118
 10572 289b 35480000 		.4byte	0x4835
 10573 289f B1280000 		.4byte	0x28b1
ARM GAS  /tmp/ccTQOGyd.s 			page 187


 10574 28a3 2E       		.uleb128 0x2e
 10575 28a4 01       		.uleb128 0x1
 10576 28a5 52       		.byte	0x52
 10577 28a6 03       		.uleb128 0x3
 10578 28a7 0A       		.byte	0xa
 10579 28a8 7401     		.2byte	0x174
 10580 28aa 2E       		.uleb128 0x2e
 10581 28ab 01       		.uleb128 0x1
 10582 28ac 50       		.byte	0x50
 10583 28ad 02       		.uleb128 0x2
 10584 28ae 74       		.byte	0x74
 10585 28af 00       		.sleb128 0
 10586 28b0 00       		.byte	0
 10587 28b1 48       		.uleb128 0x48
 10588 28b2 48010000 		.4byte	.LVL119
 10589 28b6 D8490000 		.4byte	0x49d8
 10590 28ba 48       		.uleb128 0x48
 10591 28bb 4C010000 		.4byte	.LVL120
 10592 28bf DF490000 		.4byte	0x49df
 10593 28c3 48       		.uleb128 0x48
 10594 28c4 56010000 		.4byte	.LVL122
 10595 28c8 AA480000 		.4byte	0x48aa
 10596 28cc 2F       		.uleb128 0x2f
 10597 28cd 64010000 		.4byte	.LVL124
 10598 28d1 35480000 		.4byte	0x4835
 10599 28d5 E7280000 		.4byte	0x28e7
 10600 28d9 2E       		.uleb128 0x2e
 10601 28da 01       		.uleb128 0x1
 10602 28db 52       		.byte	0x52
 10603 28dc 03       		.uleb128 0x3
 10604 28dd 0A       		.byte	0xa
 10605 28de 7401     		.2byte	0x174
 10606 28e0 2E       		.uleb128 0x2e
 10607 28e1 01       		.uleb128 0x1
 10608 28e2 50       		.byte	0x50
 10609 28e3 02       		.uleb128 0x2
 10610 28e4 75       		.byte	0x75
 10611 28e5 00       		.sleb128 0
 10612 28e6 00       		.byte	0
 10613 28e7 48       		.uleb128 0x48
 10614 28e8 F8010000 		.4byte	.LVL137
 10615 28ec E6490000 		.4byte	0x49e6
 10616 28f0 2F       		.uleb128 0x2f
 10617 28f1 A0030000 		.4byte	.LVL175
 10618 28f5 16490000 		.4byte	0x4916
 10619 28f9 17290000 		.4byte	0x2917
 10620 28fd 2E       		.uleb128 0x2e
 10621 28fe 01       		.uleb128 0x1
 10622 28ff 51       		.byte	0x51
 10623 2900 03       		.uleb128 0x3
 10624 2901 91       		.byte	0x91
 10625 2902 807E     		.sleb128 -256
 10626 2904 2E       		.uleb128 0x2e
 10627 2905 02       		.uleb128 0x2
 10628 2906 90       		.byte	0x90
 10629 2907 40       		.uleb128 0x40
 10630 2908 07       		.uleb128 0x7
ARM GAS  /tmp/ccTQOGyd.s 			page 188


 10631 2909 F4       		.byte	0xf4
 10632 290a 25       		.uleb128 0x25
 10633 290b 04       		.byte	0x4
 10634 290c 00007A44 		.4byte	0x447a0000
 10635 2910 2E       		.uleb128 0x2e
 10636 2911 01       		.uleb128 0x1
 10637 2912 50       		.byte	0x50
 10638 2913 02       		.uleb128 0x2
 10639 2914 74       		.byte	0x74
 10640 2915 00       		.sleb128 0
 10641 2916 00       		.byte	0
 10642 2917 2F       		.uleb128 0x2f
 10643 2918 B2030000 		.4byte	.LVL176
 10644 291c 16490000 		.4byte	0x4916
 10645 2920 3E290000 		.4byte	0x293e
 10646 2924 2E       		.uleb128 0x2e
 10647 2925 01       		.uleb128 0x1
 10648 2926 51       		.byte	0x51
 10649 2927 03       		.uleb128 0x3
 10650 2928 91       		.byte	0x91
 10651 2929 807E     		.sleb128 -256
 10652 292b 2E       		.uleb128 0x2e
 10653 292c 02       		.uleb128 0x2
 10654 292d 90       		.byte	0x90
 10655 292e 40       		.uleb128 0x40
 10656 292f 07       		.uleb128 0x7
 10657 2930 F4       		.byte	0xf4
 10658 2931 25       		.uleb128 0x25
 10659 2932 04       		.byte	0x4
 10660 2933 00007A44 		.4byte	0x447a0000
 10661 2937 2E       		.uleb128 0x2e
 10662 2938 01       		.uleb128 0x1
 10663 2939 50       		.byte	0x50
 10664 293a 02       		.uleb128 0x2
 10665 293b 74       		.byte	0x74
 10666 293c 00       		.sleb128 0
 10667 293d 00       		.byte	0
 10668 293e 2F       		.uleb128 0x2f
 10669 293f C4030000 		.4byte	.LVL177
 10670 2943 16490000 		.4byte	0x4916
 10671 2947 65290000 		.4byte	0x2965
 10672 294b 2E       		.uleb128 0x2e
 10673 294c 01       		.uleb128 0x1
 10674 294d 51       		.byte	0x51
 10675 294e 03       		.uleb128 0x3
 10676 294f 91       		.byte	0x91
 10677 2950 807E     		.sleb128 -256
 10678 2952 2E       		.uleb128 0x2e
 10679 2953 02       		.uleb128 0x2
 10680 2954 90       		.byte	0x90
 10681 2955 40       		.uleb128 0x40
 10682 2956 07       		.uleb128 0x7
 10683 2957 F4       		.byte	0xf4
 10684 2958 25       		.uleb128 0x25
 10685 2959 04       		.byte	0x4
 10686 295a 00007A44 		.4byte	0x447a0000
 10687 295e 2E       		.uleb128 0x2e
ARM GAS  /tmp/ccTQOGyd.s 			page 189


 10688 295f 01       		.uleb128 0x1
 10689 2960 50       		.byte	0x50
 10690 2961 02       		.uleb128 0x2
 10691 2962 74       		.byte	0x74
 10692 2963 00       		.sleb128 0
 10693 2964 00       		.byte	0
 10694 2965 2F       		.uleb128 0x2f
 10695 2966 DC030000 		.4byte	.LVL178
 10696 296a F1490000 		.4byte	0x49f1
 10697 296e 78290000 		.4byte	0x2978
 10698 2972 2E       		.uleb128 0x2e
 10699 2973 01       		.uleb128 0x1
 10700 2974 51       		.byte	0x51
 10701 2975 01       		.uleb128 0x1
 10702 2976 31       		.byte	0x31
 10703 2977 00       		.byte	0
 10704 2978 2F       		.uleb128 0x2f
 10705 2979 E6030000 		.4byte	.LVL181
 10706 297d 074A0000 		.4byte	0x4a07
 10707 2981 93290000 		.4byte	0x2993
 10708 2985 2E       		.uleb128 0x2e
 10709 2986 01       		.uleb128 0x1
 10710 2987 51       		.byte	0x51
 10711 2988 03       		.uleb128 0x3
 10712 2989 91       		.byte	0x91
 10713 298a 807E     		.sleb128 -256
 10714 298c 2E       		.uleb128 0x2e
 10715 298d 01       		.uleb128 0x1
 10716 298e 50       		.byte	0x50
 10717 298f 02       		.uleb128 0x2
 10718 2990 74       		.byte	0x74
 10719 2991 00       		.sleb128 0
 10720 2992 00       		.byte	0
 10721 2993 48       		.uleb128 0x48
 10722 2994 FA030000 		.4byte	.LVL182
 10723 2998 214A0000 		.4byte	0x4a21
 10724 299c 48       		.uleb128 0x48
 10725 299d FE030000 		.4byte	.LVL183
 10726 29a1 DF490000 		.4byte	0x49df
 10727 29a5 2F       		.uleb128 0x2f
 10728 29a6 08040000 		.4byte	.LVL186
 10729 29aa 074A0000 		.4byte	0x4a07
 10730 29ae C0290000 		.4byte	0x29c0
 10731 29b2 2E       		.uleb128 0x2e
 10732 29b3 01       		.uleb128 0x1
 10733 29b4 51       		.byte	0x51
 10734 29b5 03       		.uleb128 0x3
 10735 29b6 91       		.byte	0x91
 10736 29b7 807E     		.sleb128 -256
 10737 29b9 2E       		.uleb128 0x2e
 10738 29ba 01       		.uleb128 0x1
 10739 29bb 50       		.byte	0x50
 10740 29bc 02       		.uleb128 0x2
 10741 29bd 74       		.byte	0x74
 10742 29be 00       		.sleb128 0
 10743 29bf 00       		.byte	0
 10744 29c0 48       		.uleb128 0x48
ARM GAS  /tmp/ccTQOGyd.s 			page 190


 10745 29c1 1C040000 		.4byte	.LVL187
 10746 29c5 324A0000 		.4byte	0x4a32
 10747 29c9 48       		.uleb128 0x48
 10748 29ca 20040000 		.4byte	.LVL188
 10749 29ce DF490000 		.4byte	0x49df
 10750 29d2 2F       		.uleb128 0x2f
 10751 29d3 2A040000 		.4byte	.LVL191
 10752 29d7 074A0000 		.4byte	0x4a07
 10753 29db ED290000 		.4byte	0x29ed
 10754 29df 2E       		.uleb128 0x2e
 10755 29e0 01       		.uleb128 0x1
 10756 29e1 51       		.byte	0x51
 10757 29e2 03       		.uleb128 0x3
 10758 29e3 91       		.byte	0x91
 10759 29e4 807E     		.sleb128 -256
 10760 29e6 2E       		.uleb128 0x2e
 10761 29e7 01       		.uleb128 0x1
 10762 29e8 50       		.byte	0x50
 10763 29e9 02       		.uleb128 0x2
 10764 29ea 74       		.byte	0x74
 10765 29eb 00       		.sleb128 0
 10766 29ec 00       		.byte	0
 10767 29ed 48       		.uleb128 0x48
 10768 29ee 3E040000 		.4byte	.LVL192
 10769 29f2 434A0000 		.4byte	0x4a43
 10770 29f6 48       		.uleb128 0x48
 10771 29f7 42040000 		.4byte	.LVL193
 10772 29fb DF490000 		.4byte	0x49df
 10773 29ff 48       		.uleb128 0x48
 10774 2a00 56040000 		.4byte	.LVL198
 10775 2a04 544A0000 		.4byte	0x4a54
 10776 2a08 2F       		.uleb128 0x2f
 10777 2a09 62040000 		.4byte	.LVL199
 10778 2a0d 5F4A0000 		.4byte	0x4a5f
 10779 2a11 2E2A0000 		.4byte	0x2a2e
 10780 2a15 2E       		.uleb128 0x2e
 10781 2a16 01       		.uleb128 0x1
 10782 2a17 51       		.byte	0x51
 10783 2a18 02       		.uleb128 0x2
 10784 2a19 75       		.byte	0x75
 10785 2a1a 00       		.sleb128 0
 10786 2a1b 2E       		.uleb128 0x2e
 10787 2a1c 02       		.uleb128 0x2
 10788 2a1d 90       		.byte	0x90
 10789 2a1e 41       		.uleb128 0x41
 10790 2a1f 07       		.uleb128 0x7
 10791 2a20 F4       		.byte	0xf4
 10792 2a21 25       		.uleb128 0x25
 10793 2a22 04       		.byte	0x4
 10794 2a23 00002041 		.4byte	0x41200000
 10795 2a27 2E       		.uleb128 0x2e
 10796 2a28 01       		.uleb128 0x1
 10797 2a29 50       		.byte	0x50
 10798 2a2a 02       		.uleb128 0x2
 10799 2a2b 74       		.byte	0x74
 10800 2a2c 00       		.sleb128 0
 10801 2a2d 00       		.byte	0
ARM GAS  /tmp/ccTQOGyd.s 			page 191


 10802 2a2e 48       		.uleb128 0x48
 10803 2a2f 66040000 		.4byte	.LVL200
 10804 2a33 7F4A0000 		.4byte	0x4a7f
 10805 2a37 2F       		.uleb128 0x2f
 10806 2a38 72040000 		.4byte	.LVL201
 10807 2a3c 5F4A0000 		.4byte	0x4a5f
 10808 2a40 5D2A0000 		.4byte	0x2a5d
 10809 2a44 2E       		.uleb128 0x2e
 10810 2a45 01       		.uleb128 0x1
 10811 2a46 51       		.byte	0x51
 10812 2a47 02       		.uleb128 0x2
 10813 2a48 75       		.byte	0x75
 10814 2a49 00       		.sleb128 0
 10815 2a4a 2E       		.uleb128 0x2e
 10816 2a4b 02       		.uleb128 0x2
 10817 2a4c 90       		.byte	0x90
 10818 2a4d 41       		.uleb128 0x41
 10819 2a4e 07       		.uleb128 0x7
 10820 2a4f F4       		.byte	0xf4
 10821 2a50 25       		.uleb128 0x25
 10822 2a51 04       		.byte	0x4
 10823 2a52 00002041 		.4byte	0x41200000
 10824 2a56 2E       		.uleb128 0x2e
 10825 2a57 01       		.uleb128 0x1
 10826 2a58 50       		.byte	0x50
 10827 2a59 02       		.uleb128 0x2
 10828 2a5a 74       		.byte	0x74
 10829 2a5b 00       		.sleb128 0
 10830 2a5c 00       		.byte	0
 10831 2a5d 48       		.uleb128 0x48
 10832 2a5e 76040000 		.4byte	.LVL202
 10833 2a62 8A4A0000 		.4byte	0x4a8a
 10834 2a66 2F       		.uleb128 0x2f
 10835 2a67 82040000 		.4byte	.LVL203
 10836 2a6b F6480000 		.4byte	0x48f6
 10837 2a6f 8C2A0000 		.4byte	0x2a8c
 10838 2a73 2E       		.uleb128 0x2e
 10839 2a74 01       		.uleb128 0x1
 10840 2a75 51       		.byte	0x51
 10841 2a76 02       		.uleb128 0x2
 10842 2a77 75       		.byte	0x75
 10843 2a78 00       		.sleb128 0
 10844 2a79 2E       		.uleb128 0x2e
 10845 2a7a 02       		.uleb128 0x2
 10846 2a7b 90       		.byte	0x90
 10847 2a7c 41       		.uleb128 0x41
 10848 2a7d 07       		.uleb128 0x7
 10849 2a7e F4       		.byte	0xf4
 10850 2a7f 25       		.uleb128 0x25
 10851 2a80 04       		.byte	0x4
 10852 2a81 0000C842 		.4byte	0x42c80000
 10853 2a85 2E       		.uleb128 0x2e
 10854 2a86 01       		.uleb128 0x1
 10855 2a87 50       		.byte	0x50
 10856 2a88 02       		.uleb128 0x2
 10857 2a89 74       		.byte	0x74
 10858 2a8a 00       		.sleb128 0
ARM GAS  /tmp/ccTQOGyd.s 			page 192


 10859 2a8b 00       		.byte	0
 10860 2a8c 48       		.uleb128 0x48
 10861 2a8d 86040000 		.4byte	.LVL204
 10862 2a91 954A0000 		.4byte	0x4a95
 10863 2a95 2F       		.uleb128 0x2f
 10864 2a96 92040000 		.4byte	.LVL205
 10865 2a9a F6480000 		.4byte	0x48f6
 10866 2a9e BB2A0000 		.4byte	0x2abb
 10867 2aa2 2E       		.uleb128 0x2e
 10868 2aa3 01       		.uleb128 0x1
 10869 2aa4 51       		.byte	0x51
 10870 2aa5 02       		.uleb128 0x2
 10871 2aa6 75       		.byte	0x75
 10872 2aa7 00       		.sleb128 0
 10873 2aa8 2E       		.uleb128 0x2e
 10874 2aa9 02       		.uleb128 0x2
 10875 2aaa 90       		.byte	0x90
 10876 2aab 41       		.uleb128 0x41
 10877 2aac 07       		.uleb128 0x7
 10878 2aad F4       		.byte	0xf4
 10879 2aae 25       		.uleb128 0x25
 10880 2aaf 04       		.byte	0x4
 10881 2ab0 0000C842 		.4byte	0x42c80000
 10882 2ab4 2E       		.uleb128 0x2e
 10883 2ab5 01       		.uleb128 0x1
 10884 2ab6 50       		.byte	0x50
 10885 2ab7 02       		.uleb128 0x2
 10886 2ab8 74       		.byte	0x74
 10887 2ab9 00       		.sleb128 0
 10888 2aba 00       		.byte	0
 10889 2abb 48       		.uleb128 0x48
 10890 2abc 96040000 		.4byte	.LVL206
 10891 2ac0 A04A0000 		.4byte	0x4aa0
 10892 2ac4 2F       		.uleb128 0x2f
 10893 2ac5 A2040000 		.4byte	.LVL207
 10894 2ac9 F6480000 		.4byte	0x48f6
 10895 2acd EA2A0000 		.4byte	0x2aea
 10896 2ad1 2E       		.uleb128 0x2e
 10897 2ad2 01       		.uleb128 0x1
 10898 2ad3 51       		.byte	0x51
 10899 2ad4 02       		.uleb128 0x2
 10900 2ad5 75       		.byte	0x75
 10901 2ad6 00       		.sleb128 0
 10902 2ad7 2E       		.uleb128 0x2e
 10903 2ad8 02       		.uleb128 0x2
 10904 2ad9 90       		.byte	0x90
 10905 2ada 41       		.uleb128 0x41
 10906 2adb 07       		.uleb128 0x7
 10907 2adc F4       		.byte	0xf4
 10908 2add 25       		.uleb128 0x25
 10909 2ade 04       		.byte	0x4
 10910 2adf 0000C842 		.4byte	0x42c80000
 10911 2ae3 2E       		.uleb128 0x2e
 10912 2ae4 01       		.uleb128 0x1
 10913 2ae5 50       		.byte	0x50
 10914 2ae6 02       		.uleb128 0x2
 10915 2ae7 74       		.byte	0x74
ARM GAS  /tmp/ccTQOGyd.s 			page 193


 10916 2ae8 00       		.sleb128 0
 10917 2ae9 00       		.byte	0
 10918 2aea 48       		.uleb128 0x48
 10919 2aeb A6040000 		.4byte	.LVL208
 10920 2aef AB4A0000 		.4byte	0x4aab
 10921 2af3 2F       		.uleb128 0x2f
 10922 2af4 B2040000 		.4byte	.LVL209
 10923 2af8 F6480000 		.4byte	0x48f6
 10924 2afc 192B0000 		.4byte	0x2b19
 10925 2b00 2E       		.uleb128 0x2e
 10926 2b01 01       		.uleb128 0x1
 10927 2b02 51       		.byte	0x51
 10928 2b03 02       		.uleb128 0x2
 10929 2b04 75       		.byte	0x75
 10930 2b05 00       		.sleb128 0
 10931 2b06 2E       		.uleb128 0x2e
 10932 2b07 02       		.uleb128 0x2
 10933 2b08 90       		.byte	0x90
 10934 2b09 41       		.uleb128 0x41
 10935 2b0a 07       		.uleb128 0x7
 10936 2b0b F4       		.byte	0xf4
 10937 2b0c 25       		.uleb128 0x25
 10938 2b0d 04       		.byte	0x4
 10939 2b0e 0000C842 		.4byte	0x42c80000
 10940 2b12 2E       		.uleb128 0x2e
 10941 2b13 01       		.uleb128 0x1
 10942 2b14 50       		.byte	0x50
 10943 2b15 02       		.uleb128 0x2
 10944 2b16 74       		.byte	0x74
 10945 2b17 00       		.sleb128 0
 10946 2b18 00       		.byte	0
 10947 2b19 48       		.uleb128 0x48
 10948 2b1a B6040000 		.4byte	.LVL210
 10949 2b1e B64A0000 		.4byte	0x4ab6
 10950 2b22 2F       		.uleb128 0x2f
 10951 2b23 C2040000 		.4byte	.LVL211
 10952 2b27 5F4A0000 		.4byte	0x4a5f
 10953 2b2b 482B0000 		.4byte	0x2b48
 10954 2b2f 2E       		.uleb128 0x2e
 10955 2b30 01       		.uleb128 0x1
 10956 2b31 51       		.byte	0x51
 10957 2b32 02       		.uleb128 0x2
 10958 2b33 75       		.byte	0x75
 10959 2b34 00       		.sleb128 0
 10960 2b35 2E       		.uleb128 0x2e
 10961 2b36 02       		.uleb128 0x2
 10962 2b37 90       		.byte	0x90
 10963 2b38 41       		.uleb128 0x41
 10964 2b39 07       		.uleb128 0x7
 10965 2b3a F4       		.byte	0xf4
 10966 2b3b 25       		.uleb128 0x25
 10967 2b3c 04       		.byte	0x4
 10968 2b3d 00007A44 		.4byte	0x447a0000
 10969 2b41 2E       		.uleb128 0x2e
 10970 2b42 01       		.uleb128 0x1
 10971 2b43 50       		.byte	0x50
 10972 2b44 02       		.uleb128 0x2
ARM GAS  /tmp/ccTQOGyd.s 			page 194


 10973 2b45 74       		.byte	0x74
 10974 2b46 00       		.sleb128 0
 10975 2b47 00       		.byte	0
 10976 2b48 48       		.uleb128 0x48
 10977 2b49 C6040000 		.4byte	.LVL212
 10978 2b4d C14A0000 		.4byte	0x4ac1
 10979 2b51 2F       		.uleb128 0x2f
 10980 2b52 D2040000 		.4byte	.LVL213
 10981 2b56 F6480000 		.4byte	0x48f6
 10982 2b5a 772B0000 		.4byte	0x2b77
 10983 2b5e 2E       		.uleb128 0x2e
 10984 2b5f 01       		.uleb128 0x1
 10985 2b60 51       		.byte	0x51
 10986 2b61 02       		.uleb128 0x2
 10987 2b62 75       		.byte	0x75
 10988 2b63 00       		.sleb128 0
 10989 2b64 2E       		.uleb128 0x2e
 10990 2b65 02       		.uleb128 0x2
 10991 2b66 90       		.byte	0x90
 10992 2b67 41       		.uleb128 0x41
 10993 2b68 07       		.uleb128 0x7
 10994 2b69 F4       		.byte	0xf4
 10995 2b6a 25       		.uleb128 0x25
 10996 2b6b 04       		.byte	0x4
 10997 2b6c 0000803F 		.4byte	0x3f800000
 10998 2b70 2E       		.uleb128 0x2e
 10999 2b71 01       		.uleb128 0x1
 11000 2b72 50       		.byte	0x50
 11001 2b73 02       		.uleb128 0x2
 11002 2b74 74       		.byte	0x74
 11003 2b75 00       		.sleb128 0
 11004 2b76 00       		.byte	0
 11005 2b77 2F       		.uleb128 0x2f
 11006 2b78 FC040000 		.4byte	.LVL214
 11007 2b7c 5F4A0000 		.4byte	0x4a5f
 11008 2b80 9D2B0000 		.4byte	0x2b9d
 11009 2b84 2E       		.uleb128 0x2e
 11010 2b85 01       		.uleb128 0x1
 11011 2b86 51       		.byte	0x51
 11012 2b87 02       		.uleb128 0x2
 11013 2b88 75       		.byte	0x75
 11014 2b89 00       		.sleb128 0
 11015 2b8a 2E       		.uleb128 0x2e
 11016 2b8b 02       		.uleb128 0x2
 11017 2b8c 90       		.byte	0x90
 11018 2b8d 41       		.uleb128 0x41
 11019 2b8e 07       		.uleb128 0x7
 11020 2b8f F4       		.byte	0xf4
 11021 2b90 25       		.uleb128 0x25
 11022 2b91 04       		.byte	0x4
 11023 2b92 00002041 		.4byte	0x41200000
 11024 2b96 2E       		.uleb128 0x2e
 11025 2b97 01       		.uleb128 0x1
 11026 2b98 50       		.byte	0x50
 11027 2b99 02       		.uleb128 0x2
 11028 2b9a 74       		.byte	0x74
 11029 2b9b 00       		.sleb128 0
ARM GAS  /tmp/ccTQOGyd.s 			page 195


 11030 2b9c 00       		.byte	0
 11031 2b9d 2F       		.uleb128 0x2f
 11032 2b9e 02050000 		.4byte	.LVL215
 11033 2ba2 CC4A0000 		.4byte	0x4acc
 11034 2ba6 B02B0000 		.4byte	0x2bb0
 11035 2baa 2E       		.uleb128 0x2e
 11036 2bab 01       		.uleb128 0x1
 11037 2bac 50       		.byte	0x50
 11038 2bad 01       		.uleb128 0x1
 11039 2bae 30       		.byte	0x30
 11040 2baf 00       		.byte	0
 11041 2bb0 2F       		.uleb128 0x2f
 11042 2bb1 0E050000 		.4byte	.LVL216
 11043 2bb5 F6480000 		.4byte	0x48f6
 11044 2bb9 D62B0000 		.4byte	0x2bd6
 11045 2bbd 2E       		.uleb128 0x2e
 11046 2bbe 01       		.uleb128 0x1
 11047 2bbf 51       		.byte	0x51
 11048 2bc0 02       		.uleb128 0x2
 11049 2bc1 75       		.byte	0x75
 11050 2bc2 00       		.sleb128 0
 11051 2bc3 2E       		.uleb128 0x2e
 11052 2bc4 02       		.uleb128 0x2
 11053 2bc5 90       		.byte	0x90
 11054 2bc6 41       		.uleb128 0x41
 11055 2bc7 07       		.uleb128 0x7
 11056 2bc8 F4       		.byte	0xf4
 11057 2bc9 25       		.uleb128 0x25
 11058 2bca 04       		.byte	0x4
 11059 2bcb 00401C46 		.4byte	0x461c4000
 11060 2bcf 2E       		.uleb128 0x2e
 11061 2bd0 01       		.uleb128 0x1
 11062 2bd1 50       		.byte	0x50
 11063 2bd2 02       		.uleb128 0x2
 11064 2bd3 74       		.byte	0x74
 11065 2bd4 00       		.sleb128 0
 11066 2bd5 00       		.byte	0
 11067 2bd6 2F       		.uleb128 0x2f
 11068 2bd7 14050000 		.4byte	.LVL217
 11069 2bdb E14A0000 		.4byte	0x4ae1
 11070 2bdf E92B0000 		.4byte	0x2be9
 11071 2be3 2E       		.uleb128 0x2e
 11072 2be4 01       		.uleb128 0x1
 11073 2be5 50       		.byte	0x50
 11074 2be6 01       		.uleb128 0x1
 11075 2be7 30       		.byte	0x30
 11076 2be8 00       		.byte	0
 11077 2be9 2F       		.uleb128 0x2f
 11078 2bea 20050000 		.4byte	.LVL218
 11079 2bee F6480000 		.4byte	0x48f6
 11080 2bf2 0F2C0000 		.4byte	0x2c0f
 11081 2bf6 2E       		.uleb128 0x2e
 11082 2bf7 01       		.uleb128 0x1
 11083 2bf8 51       		.byte	0x51
 11084 2bf9 02       		.uleb128 0x2
 11085 2bfa 75       		.byte	0x75
 11086 2bfb 00       		.sleb128 0
ARM GAS  /tmp/ccTQOGyd.s 			page 196


 11087 2bfc 2E       		.uleb128 0x2e
 11088 2bfd 02       		.uleb128 0x2
 11089 2bfe 90       		.byte	0x90
 11090 2bff 41       		.uleb128 0x41
 11091 2c00 07       		.uleb128 0x7
 11092 2c01 F4       		.byte	0xf4
 11093 2c02 25       		.uleb128 0x25
 11094 2c03 04       		.byte	0x4
 11095 2c04 00401C46 		.4byte	0x461c4000
 11096 2c08 2E       		.uleb128 0x2e
 11097 2c09 01       		.uleb128 0x1
 11098 2c0a 50       		.byte	0x50
 11099 2c0b 02       		.uleb128 0x2
 11100 2c0c 74       		.byte	0x74
 11101 2c0d 00       		.sleb128 0
 11102 2c0e 00       		.byte	0
 11103 2c0f 2F       		.uleb128 0x2f
 11104 2c10 26050000 		.4byte	.LVL219
 11105 2c14 F64A0000 		.4byte	0x4af6
 11106 2c18 222C0000 		.4byte	0x2c22
 11107 2c1c 2E       		.uleb128 0x2e
 11108 2c1d 01       		.uleb128 0x1
 11109 2c1e 50       		.byte	0x50
 11110 2c1f 01       		.uleb128 0x1
 11111 2c20 30       		.byte	0x30
 11112 2c21 00       		.byte	0
 11113 2c22 2F       		.uleb128 0x2f
 11114 2c23 32050000 		.4byte	.LVL220
 11115 2c27 F6480000 		.4byte	0x48f6
 11116 2c2b 482C0000 		.4byte	0x2c48
 11117 2c2f 2E       		.uleb128 0x2e
 11118 2c30 01       		.uleb128 0x1
 11119 2c31 51       		.byte	0x51
 11120 2c32 02       		.uleb128 0x2
 11121 2c33 75       		.byte	0x75
 11122 2c34 00       		.sleb128 0
 11123 2c35 2E       		.uleb128 0x2e
 11124 2c36 02       		.uleb128 0x2
 11125 2c37 90       		.byte	0x90
 11126 2c38 41       		.uleb128 0x41
 11127 2c39 07       		.uleb128 0x7
 11128 2c3a F4       		.byte	0xf4
 11129 2c3b 25       		.uleb128 0x25
 11130 2c3c 04       		.byte	0x4
 11131 2c3d 00401C46 		.4byte	0x461c4000
 11132 2c41 2E       		.uleb128 0x2e
 11133 2c42 01       		.uleb128 0x1
 11134 2c43 50       		.byte	0x50
 11135 2c44 02       		.uleb128 0x2
 11136 2c45 74       		.byte	0x74
 11137 2c46 00       		.sleb128 0
 11138 2c47 00       		.byte	0
 11139 2c48 2F       		.uleb128 0x2f
 11140 2c49 38050000 		.4byte	.LVL221
 11141 2c4d 0B4B0000 		.4byte	0x4b0b
 11142 2c51 5B2C0000 		.4byte	0x2c5b
 11143 2c55 2E       		.uleb128 0x2e
ARM GAS  /tmp/ccTQOGyd.s 			page 197


 11144 2c56 01       		.uleb128 0x1
 11145 2c57 50       		.byte	0x50
 11146 2c58 01       		.uleb128 0x1
 11147 2c59 30       		.byte	0x30
 11148 2c5a 00       		.byte	0
 11149 2c5b 2F       		.uleb128 0x2f
 11150 2c5c 44050000 		.4byte	.LVL222
 11151 2c60 F6480000 		.4byte	0x48f6
 11152 2c64 812C0000 		.4byte	0x2c81
 11153 2c68 2E       		.uleb128 0x2e
 11154 2c69 01       		.uleb128 0x1
 11155 2c6a 51       		.byte	0x51
 11156 2c6b 02       		.uleb128 0x2
 11157 2c6c 75       		.byte	0x75
 11158 2c6d 00       		.sleb128 0
 11159 2c6e 2E       		.uleb128 0x2e
 11160 2c6f 02       		.uleb128 0x2
 11161 2c70 90       		.byte	0x90
 11162 2c71 41       		.uleb128 0x41
 11163 2c72 07       		.uleb128 0x7
 11164 2c73 F4       		.byte	0xf4
 11165 2c74 25       		.uleb128 0x25
 11166 2c75 04       		.byte	0x4
 11167 2c76 00401C46 		.4byte	0x461c4000
 11168 2c7a 2E       		.uleb128 0x2e
 11169 2c7b 01       		.uleb128 0x1
 11170 2c7c 50       		.byte	0x50
 11171 2c7d 02       		.uleb128 0x2
 11172 2c7e 74       		.byte	0x74
 11173 2c7f 00       		.sleb128 0
 11174 2c80 00       		.byte	0
 11175 2c81 2F       		.uleb128 0x2f
 11176 2c82 4A050000 		.4byte	.LVL223
 11177 2c86 204B0000 		.4byte	0x4b20
 11178 2c8a 942C0000 		.4byte	0x2c94
 11179 2c8e 2E       		.uleb128 0x2e
 11180 2c8f 01       		.uleb128 0x1
 11181 2c90 50       		.byte	0x50
 11182 2c91 01       		.uleb128 0x1
 11183 2c92 30       		.byte	0x30
 11184 2c93 00       		.byte	0
 11185 2c94 2F       		.uleb128 0x2f
 11186 2c95 54050000 		.4byte	.LVL224
 11187 2c99 C6470000 		.4byte	0x47c6
 11188 2c9d AE2C0000 		.4byte	0x2cae
 11189 2ca1 2E       		.uleb128 0x2e
 11190 2ca2 01       		.uleb128 0x1
 11191 2ca3 52       		.byte	0x52
 11192 2ca4 02       		.uleb128 0x2
 11193 2ca5 75       		.byte	0x75
 11194 2ca6 00       		.sleb128 0
 11195 2ca7 2E       		.uleb128 0x2e
 11196 2ca8 01       		.uleb128 0x1
 11197 2ca9 50       		.byte	0x50
 11198 2caa 02       		.uleb128 0x2
 11199 2cab 74       		.byte	0x74
 11200 2cac 00       		.sleb128 0
ARM GAS  /tmp/ccTQOGyd.s 			page 198


 11201 2cad 00       		.byte	0
 11202 2cae 2F       		.uleb128 0x2f
 11203 2caf 5A050000 		.4byte	.LVL225
 11204 2cb3 354B0000 		.4byte	0x4b35
 11205 2cb7 C12C0000 		.4byte	0x2cc1
 11206 2cbb 2E       		.uleb128 0x2e
 11207 2cbc 01       		.uleb128 0x1
 11208 2cbd 50       		.byte	0x50
 11209 2cbe 01       		.uleb128 0x1
 11210 2cbf 30       		.byte	0x30
 11211 2cc0 00       		.byte	0
 11212 2cc1 2F       		.uleb128 0x2f
 11213 2cc2 64050000 		.4byte	.LVL226
 11214 2cc6 C6470000 		.4byte	0x47c6
 11215 2cca DB2C0000 		.4byte	0x2cdb
 11216 2cce 2E       		.uleb128 0x2e
 11217 2ccf 01       		.uleb128 0x1
 11218 2cd0 52       		.byte	0x52
 11219 2cd1 02       		.uleb128 0x2
 11220 2cd2 75       		.byte	0x75
 11221 2cd3 00       		.sleb128 0
 11222 2cd4 2E       		.uleb128 0x2e
 11223 2cd5 01       		.uleb128 0x1
 11224 2cd6 50       		.byte	0x50
 11225 2cd7 02       		.uleb128 0x2
 11226 2cd8 74       		.byte	0x74
 11227 2cd9 00       		.sleb128 0
 11228 2cda 00       		.byte	0
 11229 2cdb 48       		.uleb128 0x48
 11230 2cdc 6E050000 		.4byte	.LVL227
 11231 2ce0 4A4B0000 		.4byte	0x4b4a
 11232 2ce4 2F       		.uleb128 0x2f
 11233 2ce5 86050000 		.4byte	.LVL231
 11234 2ce9 554B0000 		.4byte	0x4b55
 11235 2ced FF2C0000 		.4byte	0x2cff
 11236 2cf1 2E       		.uleb128 0x2e
 11237 2cf2 01       		.uleb128 0x1
 11238 2cf3 51       		.byte	0x51
 11239 2cf4 03       		.uleb128 0x3
 11240 2cf5 91       		.byte	0x91
 11241 2cf6 807E     		.sleb128 -256
 11242 2cf8 2E       		.uleb128 0x2e
 11243 2cf9 01       		.uleb128 0x1
 11244 2cfa 50       		.byte	0x50
 11245 2cfb 02       		.uleb128 0x2
 11246 2cfc 74       		.byte	0x74
 11247 2cfd 00       		.sleb128 0
 11248 2cfe 00       		.byte	0
 11249 2cff 48       		.uleb128 0x48
 11250 2d00 90050000 		.4byte	.LVL232
 11251 2d04 6F4B0000 		.4byte	0x4b6f
 11252 2d08 2F       		.uleb128 0x2f
 11253 2d09 BC050000 		.4byte	.LVL240
 11254 2d0d 554B0000 		.4byte	0x4b55
 11255 2d11 232D0000 		.4byte	0x2d23
 11256 2d15 2E       		.uleb128 0x2e
 11257 2d16 01       		.uleb128 0x1
ARM GAS  /tmp/ccTQOGyd.s 			page 199


 11258 2d17 51       		.byte	0x51
 11259 2d18 03       		.uleb128 0x3
 11260 2d19 91       		.byte	0x91
 11261 2d1a 807E     		.sleb128 -256
 11262 2d1c 2E       		.uleb128 0x2e
 11263 2d1d 01       		.uleb128 0x1
 11264 2d1e 50       		.byte	0x50
 11265 2d1f 02       		.uleb128 0x2
 11266 2d20 74       		.byte	0x74
 11267 2d21 00       		.sleb128 0
 11268 2d22 00       		.byte	0
 11269 2d23 48       		.uleb128 0x48
 11270 2d24 C0050000 		.4byte	.LVL241
 11271 2d28 8E4B0000 		.4byte	0x4b8e
 11272 2d2c 48       		.uleb128 0x48
 11273 2d2d E2050000 		.4byte	.LVL246
 11274 2d31 A34B0000 		.4byte	0x4ba3
 11275 2d35 2F       		.uleb128 0x2f
 11276 2d36 26060000 		.4byte	.LVL255
 11277 2d3a 074A0000 		.4byte	0x4a07
 11278 2d3e 502D0000 		.4byte	0x2d50
 11279 2d42 2E       		.uleb128 0x2e
 11280 2d43 01       		.uleb128 0x1
 11281 2d44 51       		.byte	0x51
 11282 2d45 03       		.uleb128 0x3
 11283 2d46 91       		.byte	0x91
 11284 2d47 807E     		.sleb128 -256
 11285 2d49 2E       		.uleb128 0x2e
 11286 2d4a 01       		.uleb128 0x1
 11287 2d4b 50       		.byte	0x50
 11288 2d4c 02       		.uleb128 0x2
 11289 2d4d 74       		.byte	0x74
 11290 2d4e 00       		.sleb128 0
 11291 2d4f 00       		.byte	0
 11292 2d50 48       		.uleb128 0x48
 11293 2d51 3C060000 		.4byte	.LVL257
 11294 2d55 324A0000 		.4byte	0x4a32
 11295 2d59 48       		.uleb128 0x48
 11296 2d5a 40060000 		.4byte	.LVL258
 11297 2d5e DF490000 		.4byte	0x49df
 11298 2d62 48       		.uleb128 0x48
 11299 2d63 4C060000 		.4byte	.LVL259
 11300 2d67 AA4B0000 		.4byte	0x4baa
 11301 2d6b 48       		.uleb128 0x48
 11302 2d6c 56060000 		.4byte	.LVL261
 11303 2d70 C6470000 		.4byte	0x47c6
 11304 2d74 2F       		.uleb128 0x2f
 11305 2d75 6C060000 		.4byte	.LVL265
 11306 2d79 074A0000 		.4byte	0x4a07
 11307 2d7d 8F2D0000 		.4byte	0x2d8f
 11308 2d81 2E       		.uleb128 0x2e
 11309 2d82 01       		.uleb128 0x1
 11310 2d83 51       		.byte	0x51
 11311 2d84 03       		.uleb128 0x3
 11312 2d85 91       		.byte	0x91
 11313 2d86 807E     		.sleb128 -256
 11314 2d88 2E       		.uleb128 0x2e
ARM GAS  /tmp/ccTQOGyd.s 			page 200


 11315 2d89 01       		.uleb128 0x1
 11316 2d8a 50       		.byte	0x50
 11317 2d8b 02       		.uleb128 0x2
 11318 2d8c 74       		.byte	0x74
 11319 2d8d 00       		.sleb128 0
 11320 2d8e 00       		.byte	0
 11321 2d8f 48       		.uleb128 0x48
 11322 2d90 70060000 		.4byte	.LVL266
 11323 2d94 B54B0000 		.4byte	0x4bb5
 11324 2d98 4B       		.uleb128 0x4b
 11325 2d99 DC060000 		.4byte	.LVL273
 11326 2d9d A82D0000 		.4byte	0x2da8
 11327 2da1 2E       		.uleb128 0x2e
 11328 2da2 01       		.uleb128 0x1
 11329 2da3 51       		.byte	0x51
 11330 2da4 02       		.uleb128 0x2
 11331 2da5 75       		.byte	0x75
 11332 2da6 00       		.sleb128 0
 11333 2da7 00       		.byte	0
 11334 2da8 2F       		.uleb128 0x2f
 11335 2da9 0A070000 		.4byte	.LVL278
 11336 2dad C64B0000 		.4byte	0x4bc6
 11337 2db1 C32D0000 		.4byte	0x2dc3
 11338 2db5 2E       		.uleb128 0x2e
 11339 2db6 01       		.uleb128 0x1
 11340 2db7 51       		.byte	0x51
 11341 2db8 03       		.uleb128 0x3
 11342 2db9 91       		.byte	0x91
 11343 2dba 807E     		.sleb128 -256
 11344 2dbc 2E       		.uleb128 0x2e
 11345 2dbd 01       		.uleb128 0x1
 11346 2dbe 50       		.byte	0x50
 11347 2dbf 02       		.uleb128 0x2
 11348 2dc0 74       		.byte	0x74
 11349 2dc1 00       		.sleb128 0
 11350 2dc2 00       		.byte	0
 11351 2dc3 2F       		.uleb128 0x2f
 11352 2dc4 14070000 		.4byte	.LVL279
 11353 2dc8 C64B0000 		.4byte	0x4bc6
 11354 2dcc DE2D0000 		.4byte	0x2dde
 11355 2dd0 2E       		.uleb128 0x2e
 11356 2dd1 01       		.uleb128 0x1
 11357 2dd2 51       		.byte	0x51
 11358 2dd3 03       		.uleb128 0x3
 11359 2dd4 91       		.byte	0x91
 11360 2dd5 807E     		.sleb128 -256
 11361 2dd7 2E       		.uleb128 0x2e
 11362 2dd8 01       		.uleb128 0x1
 11363 2dd9 50       		.byte	0x50
 11364 2dda 02       		.uleb128 0x2
 11365 2ddb 74       		.byte	0x74
 11366 2ddc 00       		.sleb128 0
 11367 2ddd 00       		.byte	0
 11368 2dde 2F       		.uleb128 0x2f
 11369 2ddf 1E070000 		.4byte	.LVL280
 11370 2de3 C64B0000 		.4byte	0x4bc6
 11371 2de7 F92D0000 		.4byte	0x2df9
ARM GAS  /tmp/ccTQOGyd.s 			page 201


 11372 2deb 2E       		.uleb128 0x2e
 11373 2dec 01       		.uleb128 0x1
 11374 2ded 51       		.byte	0x51
 11375 2dee 03       		.uleb128 0x3
 11376 2def 91       		.byte	0x91
 11377 2df0 807E     		.sleb128 -256
 11378 2df2 2E       		.uleb128 0x2e
 11379 2df3 01       		.uleb128 0x1
 11380 2df4 50       		.byte	0x50
 11381 2df5 02       		.uleb128 0x2
 11382 2df6 74       		.byte	0x74
 11383 2df7 00       		.sleb128 0
 11384 2df8 00       		.byte	0
 11385 2df9 2F       		.uleb128 0x2f
 11386 2dfa 26070000 		.4byte	.LVL281
 11387 2dfe E04B0000 		.4byte	0x4be0
 11388 2e02 0E2E0000 		.4byte	0x2e0e
 11389 2e06 2E       		.uleb128 0x2e
 11390 2e07 01       		.uleb128 0x1
 11391 2e08 50       		.byte	0x50
 11392 2e09 03       		.uleb128 0x3
 11393 2e0a 91       		.byte	0x91
 11394 2e0b 887E     		.sleb128 -248
 11395 2e0d 00       		.byte	0
 11396 2e0e 2F       		.uleb128 0x2f
 11397 2e0f 34070000 		.4byte	.LVL284
 11398 2e13 F74B0000 		.4byte	0x4bf7
 11399 2e17 2D2E0000 		.4byte	0x2e2d
 11400 2e1b 2E       		.uleb128 0x2e
 11401 2e1c 01       		.uleb128 0x1
 11402 2e1d 53       		.byte	0x53
 11403 2e1e 01       		.uleb128 0x1
 11404 2e1f 30       		.byte	0x30
 11405 2e20 2E       		.uleb128 0x2e
 11406 2e21 01       		.uleb128 0x1
 11407 2e22 52       		.byte	0x52
 11408 2e23 02       		.uleb128 0x2
 11409 2e24 75       		.byte	0x75
 11410 2e25 7F       		.sleb128 -1
 11411 2e26 2E       		.uleb128 0x2e
 11412 2e27 01       		.uleb128 0x1
 11413 2e28 51       		.byte	0x51
 11414 2e29 02       		.uleb128 0x2
 11415 2e2a 77       		.byte	0x77
 11416 2e2b 02       		.sleb128 2
 11417 2e2c 00       		.byte	0
 11418 2e2d 48       		.uleb128 0x48
 11419 2e2e 48070000 		.4byte	.LVL289
 11420 2e32 174C0000 		.4byte	0x4c17
 11421 2e36 48       		.uleb128 0x48
 11422 2e37 74070000 		.4byte	.LVL294
 11423 2e3b 224C0000 		.4byte	0x4c22
 11424 2e3f 2F       		.uleb128 0x2f
 11425 2e40 88070000 		.4byte	.LVL295
 11426 2e44 C6470000 		.4byte	0x47c6
 11427 2e48 592E0000 		.4byte	0x2e59
 11428 2e4c 2E       		.uleb128 0x2e
ARM GAS  /tmp/ccTQOGyd.s 			page 202


 11429 2e4d 01       		.uleb128 0x1
 11430 2e4e 52       		.byte	0x52
 11431 2e4f 02       		.uleb128 0x2
 11432 2e50 75       		.byte	0x75
 11433 2e51 00       		.sleb128 0
 11434 2e52 2E       		.uleb128 0x2e
 11435 2e53 01       		.uleb128 0x1
 11436 2e54 50       		.byte	0x50
 11437 2e55 02       		.uleb128 0x2
 11438 2e56 74       		.byte	0x74
 11439 2e57 00       		.sleb128 0
 11440 2e58 00       		.byte	0
 11441 2e59 48       		.uleb128 0x48
 11442 2e5a 8C070000 		.4byte	.LVL296
 11443 2e5e 2D4C0000 		.4byte	0x4c2d
 11444 2e62 2F       		.uleb128 0x2f
 11445 2e63 A0070000 		.4byte	.LVL297
 11446 2e67 C6470000 		.4byte	0x47c6
 11447 2e6b 7C2E0000 		.4byte	0x2e7c
 11448 2e6f 2E       		.uleb128 0x2e
 11449 2e70 01       		.uleb128 0x1
 11450 2e71 52       		.byte	0x52
 11451 2e72 02       		.uleb128 0x2
 11452 2e73 75       		.byte	0x75
 11453 2e74 00       		.sleb128 0
 11454 2e75 2E       		.uleb128 0x2e
 11455 2e76 01       		.uleb128 0x1
 11456 2e77 50       		.byte	0x50
 11457 2e78 02       		.uleb128 0x2
 11458 2e79 74       		.byte	0x74
 11459 2e7a 00       		.sleb128 0
 11460 2e7b 00       		.byte	0
 11461 2e7c 48       		.uleb128 0x48
 11462 2e7d A4070000 		.4byte	.LVL298
 11463 2e81 384C0000 		.4byte	0x4c38
 11464 2e85 2F       		.uleb128 0x2f
 11465 2e86 B8070000 		.4byte	.LVL299
 11466 2e8a C6470000 		.4byte	0x47c6
 11467 2e8e 9F2E0000 		.4byte	0x2e9f
 11468 2e92 2E       		.uleb128 0x2e
 11469 2e93 01       		.uleb128 0x1
 11470 2e94 52       		.byte	0x52
 11471 2e95 02       		.uleb128 0x2
 11472 2e96 75       		.byte	0x75
 11473 2e97 00       		.sleb128 0
 11474 2e98 2E       		.uleb128 0x2e
 11475 2e99 01       		.uleb128 0x1
 11476 2e9a 50       		.byte	0x50
 11477 2e9b 02       		.uleb128 0x2
 11478 2e9c 74       		.byte	0x74
 11479 2e9d 00       		.sleb128 0
 11480 2e9e 00       		.byte	0
 11481 2e9f 48       		.uleb128 0x48
 11482 2ea0 BC070000 		.4byte	.LVL300
 11483 2ea4 434C0000 		.4byte	0x4c43
 11484 2ea8 48       		.uleb128 0x48
 11485 2ea9 D8070000 		.4byte	.LVL305
ARM GAS  /tmp/ccTQOGyd.s 			page 203


 11486 2ead 4E4C0000 		.4byte	0x4c4e
 11487 2eb1 2F       		.uleb128 0x2f
 11488 2eb2 EC070000 		.4byte	.LVL306
 11489 2eb6 C6470000 		.4byte	0x47c6
 11490 2eba CB2E0000 		.4byte	0x2ecb
 11491 2ebe 2E       		.uleb128 0x2e
 11492 2ebf 01       		.uleb128 0x1
 11493 2ec0 52       		.byte	0x52
 11494 2ec1 02       		.uleb128 0x2
 11495 2ec2 75       		.byte	0x75
 11496 2ec3 00       		.sleb128 0
 11497 2ec4 2E       		.uleb128 0x2e
 11498 2ec5 01       		.uleb128 0x1
 11499 2ec6 50       		.byte	0x50
 11500 2ec7 02       		.uleb128 0x2
 11501 2ec8 74       		.byte	0x74
 11502 2ec9 00       		.sleb128 0
 11503 2eca 00       		.byte	0
 11504 2ecb 2F       		.uleb128 0x2f
 11505 2ecc F2070000 		.4byte	.LVL307
 11506 2ed0 594C0000 		.4byte	0x4c59
 11507 2ed4 DE2E0000 		.4byte	0x2ede
 11508 2ed8 2E       		.uleb128 0x2e
 11509 2ed9 01       		.uleb128 0x1
 11510 2eda 50       		.byte	0x50
 11511 2edb 01       		.uleb128 0x1
 11512 2edc 30       		.byte	0x30
 11513 2edd 00       		.byte	0
 11514 2ede 2F       		.uleb128 0x2f
 11515 2edf 08080000 		.4byte	.LVL311
 11516 2ee3 6E4C0000 		.4byte	0x4c6e
 11517 2ee7 F22E0000 		.4byte	0x2ef2
 11518 2eeb 2E       		.uleb128 0x2e
 11519 2eec 01       		.uleb128 0x1
 11520 2eed 50       		.byte	0x50
 11521 2eee 02       		.uleb128 0x2
 11522 2eef 74       		.byte	0x74
 11523 2ef0 00       		.sleb128 0
 11524 2ef1 00       		.byte	0
 11525 2ef2 2F       		.uleb128 0x2f
 11526 2ef3 10080000 		.4byte	.LVL312
 11527 2ef7 871C0000 		.4byte	0x1c87
 11528 2efb 0C2F0000 		.4byte	0x2f0c
 11529 2eff 2E       		.uleb128 0x2e
 11530 2f00 01       		.uleb128 0x1
 11531 2f01 51       		.byte	0x51
 11532 2f02 02       		.uleb128 0x2
 11533 2f03 74       		.byte	0x74
 11534 2f04 00       		.sleb128 0
 11535 2f05 2E       		.uleb128 0x2e
 11536 2f06 01       		.uleb128 0x1
 11537 2f07 50       		.byte	0x50
 11538 2f08 02       		.uleb128 0x2
 11539 2f09 78       		.byte	0x78
 11540 2f0a 00       		.sleb128 0
 11541 2f0b 00       		.byte	0
 11542 2f0c 48       		.uleb128 0x48
ARM GAS  /tmp/ccTQOGyd.s 			page 204


 11543 2f0d 24080000 		.4byte	.LVL314
 11544 2f11 7F4C0000 		.4byte	0x4c7f
 11545 2f15 2F       		.uleb128 0x2f
 11546 2f16 30080000 		.4byte	.LVL316
 11547 2f1a 35480000 		.4byte	0x4835
 11548 2f1e 302F0000 		.4byte	0x2f30
 11549 2f22 2E       		.uleb128 0x2e
 11550 2f23 01       		.uleb128 0x1
 11551 2f24 52       		.byte	0x52
 11552 2f25 02       		.uleb128 0x2
 11553 2f26 08       		.byte	0x8
 11554 2f27 C8       		.byte	0xc8
 11555 2f28 2E       		.uleb128 0x2e
 11556 2f29 01       		.uleb128 0x1
 11557 2f2a 50       		.byte	0x50
 11558 2f2b 03       		.uleb128 0x3
 11559 2f2c 91       		.byte	0x91
 11560 2f2d 887E     		.sleb128 -248
 11561 2f2f 00       		.byte	0
 11562 2f30 2F       		.uleb128 0x2f
 11563 2f31 40080000 		.4byte	.LVL317
 11564 2f35 554B0000 		.4byte	0x4b55
 11565 2f39 4B2F0000 		.4byte	0x2f4b
 11566 2f3d 2E       		.uleb128 0x2e
 11567 2f3e 01       		.uleb128 0x1
 11568 2f3f 51       		.byte	0x51
 11569 2f40 03       		.uleb128 0x3
 11570 2f41 91       		.byte	0x91
 11571 2f42 807E     		.sleb128 -256
 11572 2f44 2E       		.uleb128 0x2e
 11573 2f45 01       		.uleb128 0x1
 11574 2f46 50       		.byte	0x50
 11575 2f47 02       		.uleb128 0x2
 11576 2f48 74       		.byte	0x74
 11577 2f49 00       		.sleb128 0
 11578 2f4a 00       		.byte	0
 11579 2f4b 2F       		.uleb128 0x2f
 11580 2f4c 4A080000 		.4byte	.LVL318
 11581 2f50 954C0000 		.4byte	0x4c95
 11582 2f54 662F0000 		.4byte	0x2f66
 11583 2f58 2E       		.uleb128 0x2e
 11584 2f59 01       		.uleb128 0x1
 11585 2f5a 51       		.byte	0x51
 11586 2f5b 03       		.uleb128 0x3
 11587 2f5c 91       		.byte	0x91
 11588 2f5d 807E     		.sleb128 -256
 11589 2f5f 2E       		.uleb128 0x2e
 11590 2f60 01       		.uleb128 0x1
 11591 2f61 50       		.byte	0x50
 11592 2f62 02       		.uleb128 0x2
 11593 2f63 74       		.byte	0x74
 11594 2f64 00       		.sleb128 0
 11595 2f65 00       		.byte	0
 11596 2f66 2F       		.uleb128 0x2f
 11597 2f67 68080000 		.4byte	.LVL319
 11598 2f6b A3490000 		.4byte	0x49a3
 11599 2f6f 812F0000 		.4byte	0x2f81
ARM GAS  /tmp/ccTQOGyd.s 			page 205


 11600 2f73 2E       		.uleb128 0x2e
 11601 2f74 01       		.uleb128 0x1
 11602 2f75 51       		.byte	0x51
 11603 2f76 03       		.uleb128 0x3
 11604 2f77 91       		.byte	0x91
 11605 2f78 807E     		.sleb128 -256
 11606 2f7a 2E       		.uleb128 0x2e
 11607 2f7b 01       		.uleb128 0x1
 11608 2f7c 50       		.byte	0x50
 11609 2f7d 02       		.uleb128 0x2
 11610 2f7e 74       		.byte	0x74
 11611 2f7f 00       		.sleb128 0
 11612 2f80 00       		.byte	0
 11613 2f81 2F       		.uleb128 0x2f
 11614 2f82 8E080000 		.4byte	.LVL320
 11615 2f86 954C0000 		.4byte	0x4c95
 11616 2f8a 9C2F0000 		.4byte	0x2f9c
 11617 2f8e 2E       		.uleb128 0x2e
 11618 2f8f 01       		.uleb128 0x1
 11619 2f90 51       		.byte	0x51
 11620 2f91 03       		.uleb128 0x3
 11621 2f92 91       		.byte	0x91
 11622 2f93 807E     		.sleb128 -256
 11623 2f95 2E       		.uleb128 0x2e
 11624 2f96 01       		.uleb128 0x1
 11625 2f97 50       		.byte	0x50
 11626 2f98 02       		.uleb128 0x2
 11627 2f99 74       		.byte	0x74
 11628 2f9a 00       		.sleb128 0
 11629 2f9b 00       		.byte	0
 11630 2f9c 2F       		.uleb128 0x2f
 11631 2f9d 9A080000 		.4byte	.LVL321
 11632 2fa1 954C0000 		.4byte	0x4c95
 11633 2fa5 B72F0000 		.4byte	0x2fb7
 11634 2fa9 2E       		.uleb128 0x2e
 11635 2faa 01       		.uleb128 0x1
 11636 2fab 51       		.byte	0x51
 11637 2fac 03       		.uleb128 0x3
 11638 2fad 91       		.byte	0x91
 11639 2fae 807E     		.sleb128 -256
 11640 2fb0 2E       		.uleb128 0x2e
 11641 2fb1 01       		.uleb128 0x1
 11642 2fb2 50       		.byte	0x50
 11643 2fb3 02       		.uleb128 0x2
 11644 2fb4 74       		.byte	0x74
 11645 2fb5 00       		.sleb128 0
 11646 2fb6 00       		.byte	0
 11647 2fb7 2F       		.uleb128 0x2f
 11648 2fb8 A6080000 		.4byte	.LVL322
 11649 2fbc 954C0000 		.4byte	0x4c95
 11650 2fc0 D22F0000 		.4byte	0x2fd2
 11651 2fc4 2E       		.uleb128 0x2e
 11652 2fc5 01       		.uleb128 0x1
 11653 2fc6 51       		.byte	0x51
 11654 2fc7 03       		.uleb128 0x3
 11655 2fc8 91       		.byte	0x91
 11656 2fc9 807E     		.sleb128 -256
ARM GAS  /tmp/ccTQOGyd.s 			page 206


 11657 2fcb 2E       		.uleb128 0x2e
 11658 2fcc 01       		.uleb128 0x1
 11659 2fcd 50       		.byte	0x50
 11660 2fce 02       		.uleb128 0x2
 11661 2fcf 74       		.byte	0x74
 11662 2fd0 00       		.sleb128 0
 11663 2fd1 00       		.byte	0
 11664 2fd2 2F       		.uleb128 0x2f
 11665 2fd3 B2080000 		.4byte	.LVL323
 11666 2fd7 954C0000 		.4byte	0x4c95
 11667 2fdb ED2F0000 		.4byte	0x2fed
 11668 2fdf 2E       		.uleb128 0x2e
 11669 2fe0 01       		.uleb128 0x1
 11670 2fe1 51       		.byte	0x51
 11671 2fe2 03       		.uleb128 0x3
 11672 2fe3 91       		.byte	0x91
 11673 2fe4 807E     		.sleb128 -256
 11674 2fe6 2E       		.uleb128 0x2e
 11675 2fe7 01       		.uleb128 0x1
 11676 2fe8 50       		.byte	0x50
 11677 2fe9 02       		.uleb128 0x2
 11678 2fea 74       		.byte	0x74
 11679 2feb 00       		.sleb128 0
 11680 2fec 00       		.byte	0
 11681 2fed 2F       		.uleb128 0x2f
 11682 2fee BE080000 		.4byte	.LVL324
 11683 2ff2 954C0000 		.4byte	0x4c95
 11684 2ff6 08300000 		.4byte	0x3008
 11685 2ffa 2E       		.uleb128 0x2e
 11686 2ffb 01       		.uleb128 0x1
 11687 2ffc 51       		.byte	0x51
 11688 2ffd 03       		.uleb128 0x3
 11689 2ffe 91       		.byte	0x91
 11690 2fff 807E     		.sleb128 -256
 11691 3001 2E       		.uleb128 0x2e
 11692 3002 01       		.uleb128 0x1
 11693 3003 50       		.byte	0x50
 11694 3004 02       		.uleb128 0x2
 11695 3005 74       		.byte	0x74
 11696 3006 00       		.sleb128 0
 11697 3007 00       		.byte	0
 11698 3008 2F       		.uleb128 0x2f
 11699 3009 EA080000 		.4byte	.LVL325
 11700 300d 954C0000 		.4byte	0x4c95
 11701 3011 23300000 		.4byte	0x3023
 11702 3015 2E       		.uleb128 0x2e
 11703 3016 01       		.uleb128 0x1
 11704 3017 51       		.byte	0x51
 11705 3018 03       		.uleb128 0x3
 11706 3019 91       		.byte	0x91
 11707 301a 807E     		.sleb128 -256
 11708 301c 2E       		.uleb128 0x2e
 11709 301d 01       		.uleb128 0x1
 11710 301e 50       		.byte	0x50
 11711 301f 02       		.uleb128 0x2
 11712 3020 74       		.byte	0x74
 11713 3021 00       		.sleb128 0
ARM GAS  /tmp/ccTQOGyd.s 			page 207


 11714 3022 00       		.byte	0
 11715 3023 2F       		.uleb128 0x2f
 11716 3024 F6080000 		.4byte	.LVL326
 11717 3028 954C0000 		.4byte	0x4c95
 11718 302c 3E300000 		.4byte	0x303e
 11719 3030 2E       		.uleb128 0x2e
 11720 3031 01       		.uleb128 0x1
 11721 3032 51       		.byte	0x51
 11722 3033 03       		.uleb128 0x3
 11723 3034 91       		.byte	0x91
 11724 3035 807E     		.sleb128 -256
 11725 3037 2E       		.uleb128 0x2e
 11726 3038 01       		.uleb128 0x1
 11727 3039 50       		.byte	0x50
 11728 303a 02       		.uleb128 0x2
 11729 303b 74       		.byte	0x74
 11730 303c 00       		.sleb128 0
 11731 303d 00       		.byte	0
 11732 303e 2F       		.uleb128 0x2f
 11733 303f 0E090000 		.4byte	.LVL327
 11734 3043 954C0000 		.4byte	0x4c95
 11735 3047 59300000 		.4byte	0x3059
 11736 304b 2E       		.uleb128 0x2e
 11737 304c 01       		.uleb128 0x1
 11738 304d 51       		.byte	0x51
 11739 304e 03       		.uleb128 0x3
 11740 304f 91       		.byte	0x91
 11741 3050 807E     		.sleb128 -256
 11742 3052 2E       		.uleb128 0x2e
 11743 3053 01       		.uleb128 0x1
 11744 3054 50       		.byte	0x50
 11745 3055 02       		.uleb128 0x2
 11746 3056 74       		.byte	0x74
 11747 3057 00       		.sleb128 0
 11748 3058 00       		.byte	0
 11749 3059 2F       		.uleb128 0x2f
 11750 305a 1A090000 		.4byte	.LVL328
 11751 305e 954C0000 		.4byte	0x4c95
 11752 3062 74300000 		.4byte	0x3074
 11753 3066 2E       		.uleb128 0x2e
 11754 3067 01       		.uleb128 0x1
 11755 3068 51       		.byte	0x51
 11756 3069 03       		.uleb128 0x3
 11757 306a 91       		.byte	0x91
 11758 306b 807E     		.sleb128 -256
 11759 306d 2E       		.uleb128 0x2e
 11760 306e 01       		.uleb128 0x1
 11761 306f 50       		.byte	0x50
 11762 3070 02       		.uleb128 0x2
 11763 3071 74       		.byte	0x74
 11764 3072 00       		.sleb128 0
 11765 3073 00       		.byte	0
 11766 3074 2F       		.uleb128 0x2f
 11767 3075 46090000 		.4byte	.LVL329
 11768 3079 954C0000 		.4byte	0x4c95
 11769 307d 8F300000 		.4byte	0x308f
 11770 3081 2E       		.uleb128 0x2e
ARM GAS  /tmp/ccTQOGyd.s 			page 208


 11771 3082 01       		.uleb128 0x1
 11772 3083 51       		.byte	0x51
 11773 3084 03       		.uleb128 0x3
 11774 3085 91       		.byte	0x91
 11775 3086 807E     		.sleb128 -256
 11776 3088 2E       		.uleb128 0x2e
 11777 3089 01       		.uleb128 0x1
 11778 308a 50       		.byte	0x50
 11779 308b 02       		.uleb128 0x2
 11780 308c 74       		.byte	0x74
 11781 308d 00       		.sleb128 0
 11782 308e 00       		.byte	0
 11783 308f 2F       		.uleb128 0x2f
 11784 3090 5E090000 		.4byte	.LVL330
 11785 3094 954C0000 		.4byte	0x4c95
 11786 3098 AA300000 		.4byte	0x30aa
 11787 309c 2E       		.uleb128 0x2e
 11788 309d 01       		.uleb128 0x1
 11789 309e 51       		.byte	0x51
 11790 309f 03       		.uleb128 0x3
 11791 30a0 91       		.byte	0x91
 11792 30a1 807E     		.sleb128 -256
 11793 30a3 2E       		.uleb128 0x2e
 11794 30a4 01       		.uleb128 0x1
 11795 30a5 50       		.byte	0x50
 11796 30a6 02       		.uleb128 0x2
 11797 30a7 74       		.byte	0x74
 11798 30a8 00       		.sleb128 0
 11799 30a9 00       		.byte	0
 11800 30aa 2F       		.uleb128 0x2f
 11801 30ab 6A090000 		.4byte	.LVL331
 11802 30af 954C0000 		.4byte	0x4c95
 11803 30b3 C5300000 		.4byte	0x30c5
 11804 30b7 2E       		.uleb128 0x2e
 11805 30b8 01       		.uleb128 0x1
 11806 30b9 51       		.byte	0x51
 11807 30ba 03       		.uleb128 0x3
 11808 30bb 91       		.byte	0x91
 11809 30bc 807E     		.sleb128 -256
 11810 30be 2E       		.uleb128 0x2e
 11811 30bf 01       		.uleb128 0x1
 11812 30c0 50       		.byte	0x50
 11813 30c1 02       		.uleb128 0x2
 11814 30c2 74       		.byte	0x74
 11815 30c3 00       		.sleb128 0
 11816 30c4 00       		.byte	0
 11817 30c5 2F       		.uleb128 0x2f
 11818 30c6 76090000 		.4byte	.LVL332
 11819 30ca 954C0000 		.4byte	0x4c95
 11820 30ce E0300000 		.4byte	0x30e0
 11821 30d2 2E       		.uleb128 0x2e
 11822 30d3 01       		.uleb128 0x1
 11823 30d4 51       		.byte	0x51
 11824 30d5 03       		.uleb128 0x3
 11825 30d6 91       		.byte	0x91
 11826 30d7 807E     		.sleb128 -256
 11827 30d9 2E       		.uleb128 0x2e
ARM GAS  /tmp/ccTQOGyd.s 			page 209


 11828 30da 01       		.uleb128 0x1
 11829 30db 50       		.byte	0x50
 11830 30dc 02       		.uleb128 0x2
 11831 30dd 74       		.byte	0x74
 11832 30de 00       		.sleb128 0
 11833 30df 00       		.byte	0
 11834 30e0 2F       		.uleb128 0x2f
 11835 30e1 82090000 		.4byte	.LVL333
 11836 30e5 954C0000 		.4byte	0x4c95
 11837 30e9 FB300000 		.4byte	0x30fb
 11838 30ed 2E       		.uleb128 0x2e
 11839 30ee 01       		.uleb128 0x1
 11840 30ef 51       		.byte	0x51
 11841 30f0 03       		.uleb128 0x3
 11842 30f1 91       		.byte	0x91
 11843 30f2 807E     		.sleb128 -256
 11844 30f4 2E       		.uleb128 0x2e
 11845 30f5 01       		.uleb128 0x1
 11846 30f6 50       		.byte	0x50
 11847 30f7 02       		.uleb128 0x2
 11848 30f8 74       		.byte	0x74
 11849 30f9 00       		.sleb128 0
 11850 30fa 00       		.byte	0
 11851 30fb 2F       		.uleb128 0x2f
 11852 30fc 8E090000 		.4byte	.LVL334
 11853 3100 954C0000 		.4byte	0x4c95
 11854 3104 16310000 		.4byte	0x3116
 11855 3108 2E       		.uleb128 0x2e
 11856 3109 01       		.uleb128 0x1
 11857 310a 51       		.byte	0x51
 11858 310b 03       		.uleb128 0x3
 11859 310c 91       		.byte	0x91
 11860 310d 807E     		.sleb128 -256
 11861 310f 2E       		.uleb128 0x2e
 11862 3110 01       		.uleb128 0x1
 11863 3111 50       		.byte	0x50
 11864 3112 02       		.uleb128 0x2
 11865 3113 74       		.byte	0x74
 11866 3114 00       		.sleb128 0
 11867 3115 00       		.byte	0
 11868 3116 2F       		.uleb128 0x2f
 11869 3117 9A090000 		.4byte	.LVL335
 11870 311b 954C0000 		.4byte	0x4c95
 11871 311f 31310000 		.4byte	0x3131
 11872 3123 2E       		.uleb128 0x2e
 11873 3124 01       		.uleb128 0x1
 11874 3125 51       		.byte	0x51
 11875 3126 03       		.uleb128 0x3
 11876 3127 91       		.byte	0x91
 11877 3128 807E     		.sleb128 -256
 11878 312a 2E       		.uleb128 0x2e
 11879 312b 01       		.uleb128 0x1
 11880 312c 50       		.byte	0x50
 11881 312d 02       		.uleb128 0x2
 11882 312e 74       		.byte	0x74
 11883 312f 00       		.sleb128 0
 11884 3130 00       		.byte	0
ARM GAS  /tmp/ccTQOGyd.s 			page 210


 11885 3131 2F       		.uleb128 0x2f
 11886 3132 120A0000 		.4byte	.LVL337
 11887 3136 954C0000 		.4byte	0x4c95
 11888 313a 4C310000 		.4byte	0x314c
 11889 313e 2E       		.uleb128 0x2e
 11890 313f 01       		.uleb128 0x1
 11891 3140 51       		.byte	0x51
 11892 3141 03       		.uleb128 0x3
 11893 3142 91       		.byte	0x91
 11894 3143 807E     		.sleb128 -256
 11895 3145 2E       		.uleb128 0x2e
 11896 3146 01       		.uleb128 0x1
 11897 3147 50       		.byte	0x50
 11898 3148 02       		.uleb128 0x2
 11899 3149 74       		.byte	0x74
 11900 314a 00       		.sleb128 0
 11901 314b 00       		.byte	0
 11902 314c 2F       		.uleb128 0x2f
 11903 314d 1E0A0000 		.4byte	.LVL338
 11904 3151 954C0000 		.4byte	0x4c95
 11905 3155 67310000 		.4byte	0x3167
 11906 3159 2E       		.uleb128 0x2e
 11907 315a 01       		.uleb128 0x1
 11908 315b 51       		.byte	0x51
 11909 315c 03       		.uleb128 0x3
 11910 315d 91       		.byte	0x91
 11911 315e 807E     		.sleb128 -256
 11912 3160 2E       		.uleb128 0x2e
 11913 3161 01       		.uleb128 0x1
 11914 3162 50       		.byte	0x50
 11915 3163 02       		.uleb128 0x2
 11916 3164 74       		.byte	0x74
 11917 3165 00       		.sleb128 0
 11918 3166 00       		.byte	0
 11919 3167 2F       		.uleb128 0x2f
 11920 3168 360A0000 		.4byte	.LVL339
 11921 316c 954C0000 		.4byte	0x4c95
 11922 3170 82310000 		.4byte	0x3182
 11923 3174 2E       		.uleb128 0x2e
 11924 3175 01       		.uleb128 0x1
 11925 3176 51       		.byte	0x51
 11926 3177 03       		.uleb128 0x3
 11927 3178 91       		.byte	0x91
 11928 3179 807E     		.sleb128 -256
 11929 317b 2E       		.uleb128 0x2e
 11930 317c 01       		.uleb128 0x1
 11931 317d 50       		.byte	0x50
 11932 317e 02       		.uleb128 0x2
 11933 317f 74       		.byte	0x74
 11934 3180 00       		.sleb128 0
 11935 3181 00       		.byte	0
 11936 3182 2F       		.uleb128 0x2f
 11937 3183 420A0000 		.4byte	.LVL340
 11938 3187 954C0000 		.4byte	0x4c95
 11939 318b 9D310000 		.4byte	0x319d
 11940 318f 2E       		.uleb128 0x2e
 11941 3190 01       		.uleb128 0x1
ARM GAS  /tmp/ccTQOGyd.s 			page 211


 11942 3191 51       		.byte	0x51
 11943 3192 03       		.uleb128 0x3
 11944 3193 91       		.byte	0x91
 11945 3194 807E     		.sleb128 -256
 11946 3196 2E       		.uleb128 0x2e
 11947 3197 01       		.uleb128 0x1
 11948 3198 50       		.byte	0x50
 11949 3199 02       		.uleb128 0x2
 11950 319a 74       		.byte	0x74
 11951 319b 00       		.sleb128 0
 11952 319c 00       		.byte	0
 11953 319d 2F       		.uleb128 0x2f
 11954 319e 6E0A0000 		.4byte	.LVL341
 11955 31a2 954C0000 		.4byte	0x4c95
 11956 31a6 B8310000 		.4byte	0x31b8
 11957 31aa 2E       		.uleb128 0x2e
 11958 31ab 01       		.uleb128 0x1
 11959 31ac 51       		.byte	0x51
 11960 31ad 03       		.uleb128 0x3
 11961 31ae 91       		.byte	0x91
 11962 31af 807E     		.sleb128 -256
 11963 31b1 2E       		.uleb128 0x2e
 11964 31b2 01       		.uleb128 0x1
 11965 31b3 50       		.byte	0x50
 11966 31b4 02       		.uleb128 0x2
 11967 31b5 74       		.byte	0x74
 11968 31b6 00       		.sleb128 0
 11969 31b7 00       		.byte	0
 11970 31b8 2F       		.uleb128 0x2f
 11971 31b9 7A0A0000 		.4byte	.LVL342
 11972 31bd A3490000 		.4byte	0x49a3
 11973 31c1 D3310000 		.4byte	0x31d3
 11974 31c5 2E       		.uleb128 0x2e
 11975 31c6 01       		.uleb128 0x1
 11976 31c7 51       		.byte	0x51
 11977 31c8 03       		.uleb128 0x3
 11978 31c9 91       		.byte	0x91
 11979 31ca 807E     		.sleb128 -256
 11980 31cc 2E       		.uleb128 0x2e
 11981 31cd 01       		.uleb128 0x1
 11982 31ce 50       		.byte	0x50
 11983 31cf 02       		.uleb128 0x2
 11984 31d0 74       		.byte	0x74
 11985 31d1 00       		.sleb128 0
 11986 31d2 00       		.byte	0
 11987 31d3 2F       		.uleb128 0x2f
 11988 31d4 840A0000 		.4byte	.LVL343
 11989 31d8 554B0000 		.4byte	0x4b55
 11990 31dc EE310000 		.4byte	0x31ee
 11991 31e0 2E       		.uleb128 0x2e
 11992 31e1 01       		.uleb128 0x1
 11993 31e2 51       		.byte	0x51
 11994 31e3 03       		.uleb128 0x3
 11995 31e4 91       		.byte	0x91
 11996 31e5 807E     		.sleb128 -256
 11997 31e7 2E       		.uleb128 0x2e
 11998 31e8 01       		.uleb128 0x1
ARM GAS  /tmp/ccTQOGyd.s 			page 212


 11999 31e9 50       		.byte	0x50
 12000 31ea 02       		.uleb128 0x2
 12001 31eb 74       		.byte	0x74
 12002 31ec 00       		.sleb128 0
 12003 31ed 00       		.byte	0
 12004 31ee 2F       		.uleb128 0x2f
 12005 31ef 9A0A0000 		.4byte	.LVL344
 12006 31f3 954C0000 		.4byte	0x4c95
 12007 31f7 09320000 		.4byte	0x3209
 12008 31fb 2E       		.uleb128 0x2e
 12009 31fc 01       		.uleb128 0x1
 12010 31fd 51       		.byte	0x51
 12011 31fe 03       		.uleb128 0x3
 12012 31ff 91       		.byte	0x91
 12013 3200 807E     		.sleb128 -256
 12014 3202 2E       		.uleb128 0x2e
 12015 3203 01       		.uleb128 0x1
 12016 3204 50       		.byte	0x50
 12017 3205 02       		.uleb128 0x2
 12018 3206 74       		.byte	0x74
 12019 3207 00       		.sleb128 0
 12020 3208 00       		.byte	0
 12021 3209 2F       		.uleb128 0x2f
 12022 320a A60A0000 		.4byte	.LVL345
 12023 320e 954C0000 		.4byte	0x4c95
 12024 3212 24320000 		.4byte	0x3224
 12025 3216 2E       		.uleb128 0x2e
 12026 3217 01       		.uleb128 0x1
 12027 3218 51       		.byte	0x51
 12028 3219 03       		.uleb128 0x3
 12029 321a 91       		.byte	0x91
 12030 321b 807E     		.sleb128 -256
 12031 321d 2E       		.uleb128 0x2e
 12032 321e 01       		.uleb128 0x1
 12033 321f 50       		.byte	0x50
 12034 3220 02       		.uleb128 0x2
 12035 3221 74       		.byte	0x74
 12036 3222 00       		.sleb128 0
 12037 3223 00       		.byte	0
 12038 3224 2F       		.uleb128 0x2f
 12039 3225 B20A0000 		.4byte	.LVL346
 12040 3229 954C0000 		.4byte	0x4c95
 12041 322d 3F320000 		.4byte	0x323f
 12042 3231 2E       		.uleb128 0x2e
 12043 3232 01       		.uleb128 0x1
 12044 3233 51       		.byte	0x51
 12045 3234 03       		.uleb128 0x3
 12046 3235 91       		.byte	0x91
 12047 3236 807E     		.sleb128 -256
 12048 3238 2E       		.uleb128 0x2e
 12049 3239 01       		.uleb128 0x1
 12050 323a 50       		.byte	0x50
 12051 323b 02       		.uleb128 0x2
 12052 323c 74       		.byte	0x74
 12053 323d 00       		.sleb128 0
 12054 323e 00       		.byte	0
 12055 323f 2F       		.uleb128 0x2f
ARM GAS  /tmp/ccTQOGyd.s 			page 213


 12056 3240 BE0A0000 		.4byte	.LVL347
 12057 3244 954C0000 		.4byte	0x4c95
 12058 3248 5A320000 		.4byte	0x325a
 12059 324c 2E       		.uleb128 0x2e
 12060 324d 01       		.uleb128 0x1
 12061 324e 51       		.byte	0x51
 12062 324f 03       		.uleb128 0x3
 12063 3250 91       		.byte	0x91
 12064 3251 807E     		.sleb128 -256
 12065 3253 2E       		.uleb128 0x2e
 12066 3254 01       		.uleb128 0x1
 12067 3255 50       		.byte	0x50
 12068 3256 02       		.uleb128 0x2
 12069 3257 74       		.byte	0x74
 12070 3258 00       		.sleb128 0
 12071 3259 00       		.byte	0
 12072 325a 2F       		.uleb128 0x2f
 12073 325b CA0A0000 		.4byte	.LVL348
 12074 325f 954C0000 		.4byte	0x4c95
 12075 3263 75320000 		.4byte	0x3275
 12076 3267 2E       		.uleb128 0x2e
 12077 3268 01       		.uleb128 0x1
 12078 3269 51       		.byte	0x51
 12079 326a 03       		.uleb128 0x3
 12080 326b 91       		.byte	0x91
 12081 326c 807E     		.sleb128 -256
 12082 326e 2E       		.uleb128 0x2e
 12083 326f 01       		.uleb128 0x1
 12084 3270 50       		.byte	0x50
 12085 3271 02       		.uleb128 0x2
 12086 3272 74       		.byte	0x74
 12087 3273 00       		.sleb128 0
 12088 3274 00       		.byte	0
 12089 3275 2F       		.uleb128 0x2f
 12090 3276 D60A0000 		.4byte	.LVL349
 12091 327a 954C0000 		.4byte	0x4c95
 12092 327e 90320000 		.4byte	0x3290
 12093 3282 2E       		.uleb128 0x2e
 12094 3283 01       		.uleb128 0x1
 12095 3284 51       		.byte	0x51
 12096 3285 03       		.uleb128 0x3
 12097 3286 91       		.byte	0x91
 12098 3287 807E     		.sleb128 -256
 12099 3289 2E       		.uleb128 0x2e
 12100 328a 01       		.uleb128 0x1
 12101 328b 50       		.byte	0x50
 12102 328c 02       		.uleb128 0x2
 12103 328d 74       		.byte	0x74
 12104 328e 00       		.sleb128 0
 12105 328f 00       		.byte	0
 12106 3290 2F       		.uleb128 0x2f
 12107 3291 0A0B0000 		.4byte	.LVL350
 12108 3295 954C0000 		.4byte	0x4c95
 12109 3299 AB320000 		.4byte	0x32ab
 12110 329d 2E       		.uleb128 0x2e
 12111 329e 01       		.uleb128 0x1
 12112 329f 51       		.byte	0x51
ARM GAS  /tmp/ccTQOGyd.s 			page 214


 12113 32a0 03       		.uleb128 0x3
 12114 32a1 91       		.byte	0x91
 12115 32a2 807E     		.sleb128 -256
 12116 32a4 2E       		.uleb128 0x2e
 12117 32a5 01       		.uleb128 0x1
 12118 32a6 50       		.byte	0x50
 12119 32a7 02       		.uleb128 0x2
 12120 32a8 74       		.byte	0x74
 12121 32a9 00       		.sleb128 0
 12122 32aa 00       		.byte	0
 12123 32ab 2F       		.uleb128 0x2f
 12124 32ac 740B0000 		.4byte	.LVL352
 12125 32b0 AF4C0000 		.4byte	0x4caf
 12126 32b4 C0320000 		.4byte	0x32c0
 12127 32b8 2E       		.uleb128 0x2e
 12128 32b9 01       		.uleb128 0x1
 12129 32ba 50       		.byte	0x50
 12130 32bb 03       		.uleb128 0x3
 12131 32bc 91       		.byte	0x91
 12132 32bd 887E     		.sleb128 -248
 12133 32bf 00       		.byte	0
 12134 32c0 2F       		.uleb128 0x2f
 12135 32c1 7A0B0000 		.4byte	.LVL353
 12136 32c5 C44C0000 		.4byte	0x4cc4
 12137 32c9 D5320000 		.4byte	0x32d5
 12138 32cd 2E       		.uleb128 0x2e
 12139 32ce 01       		.uleb128 0x1
 12140 32cf 50       		.byte	0x50
 12141 32d0 03       		.uleb128 0x3
 12142 32d1 91       		.byte	0x91
 12143 32d2 887E     		.sleb128 -248
 12144 32d4 00       		.byte	0
 12145 32d5 48       		.uleb128 0x48
 12146 32d6 840B0000 		.4byte	.LVL354
 12147 32da D54C0000 		.4byte	0x4cd5
 12148 32de 2F       		.uleb128 0x2f
 12149 32df 8C0B0000 		.4byte	.LVL355
 12150 32e3 EB4C0000 		.4byte	0x4ceb
 12151 32e7 F3320000 		.4byte	0x32f3
 12152 32eb 2E       		.uleb128 0x2e
 12153 32ec 01       		.uleb128 0x1
 12154 32ed 50       		.byte	0x50
 12155 32ee 03       		.uleb128 0x3
 12156 32ef 0A       		.byte	0xa
 12157 32f0 D007     		.2byte	0x7d0
 12158 32f2 00       		.byte	0
 12159 32f3 2F       		.uleb128 0x2f
 12160 32f4 AC0B0000 		.4byte	.LVL359
 12161 32f8 FC4C0000 		.4byte	0x4cfc
 12162 32fc 07330000 		.4byte	0x3307
 12163 3300 2E       		.uleb128 0x2e
 12164 3301 01       		.uleb128 0x1
 12165 3302 50       		.byte	0x50
 12166 3303 02       		.uleb128 0x2
 12167 3304 74       		.byte	0x74
 12168 3305 00       		.sleb128 0
 12169 3306 00       		.byte	0
ARM GAS  /tmp/ccTQOGyd.s 			page 215


 12170 3307 2F       		.uleb128 0x2f
 12171 3308 E00B0000 		.4byte	.LVL370
 12172 330c 16490000 		.4byte	0x4916
 12173 3310 2E330000 		.4byte	0x332e
 12174 3314 2E       		.uleb128 0x2e
 12175 3315 01       		.uleb128 0x1
 12176 3316 51       		.byte	0x51
 12177 3317 03       		.uleb128 0x3
 12178 3318 91       		.byte	0x91
 12179 3319 807E     		.sleb128 -256
 12180 331b 2E       		.uleb128 0x2e
 12181 331c 02       		.uleb128 0x2
 12182 331d 90       		.byte	0x90
 12183 331e 40       		.uleb128 0x40
 12184 331f 07       		.uleb128 0x7
 12185 3320 F4       		.byte	0xf4
 12186 3321 25       		.uleb128 0x25
 12187 3322 04       		.byte	0x4
 12188 3323 00007A44 		.4byte	0x447a0000
 12189 3327 2E       		.uleb128 0x2e
 12190 3328 01       		.uleb128 0x1
 12191 3329 50       		.byte	0x50
 12192 332a 02       		.uleb128 0x2
 12193 332b 74       		.byte	0x74
 12194 332c 00       		.sleb128 0
 12195 332d 00       		.byte	0
 12196 332e 48       		.uleb128 0x48
 12197 332f E40B0000 		.4byte	.LVL371
 12198 3333 0D4D0000 		.4byte	0x4d0d
 12199 3337 48       		.uleb128 0x48
 12200 3338 E80B0000 		.4byte	.LVL372
 12201 333c DF490000 		.4byte	0x49df
 12202 3340 2F       		.uleb128 0x2f
 12203 3341 060C0000 		.4byte	.LVL375
 12204 3345 1E4D0000 		.4byte	0x4d1e
 12205 3349 57330000 		.4byte	0x3357
 12206 334d 2E       		.uleb128 0x2e
 12207 334e 01       		.uleb128 0x1
 12208 334f 50       		.byte	0x50
 12209 3350 05       		.uleb128 0x5
 12210 3351 03       		.byte	0x3
 12211 3352 00000000 		.4byte	.LANCHOR15
 12212 3356 00       		.byte	0
 12213 3357 2F       		.uleb128 0x2f
 12214 3358 320C0000 		.4byte	.LVL379
 12215 335c 74480000 		.4byte	0x4874
 12216 3360 71330000 		.4byte	0x3371
 12217 3364 2E       		.uleb128 0x2e
 12218 3365 01       		.uleb128 0x1
 12219 3366 51       		.byte	0x51
 12220 3367 02       		.uleb128 0x2
 12221 3368 76       		.byte	0x76
 12222 3369 00       		.sleb128 0
 12223 336a 2E       		.uleb128 0x2e
 12224 336b 01       		.uleb128 0x1
 12225 336c 50       		.byte	0x50
 12226 336d 02       		.uleb128 0x2
ARM GAS  /tmp/ccTQOGyd.s 			page 216


 12227 336e 74       		.byte	0x74
 12228 336f 00       		.sleb128 0
 12229 3370 00       		.byte	0
 12230 3371 2F       		.uleb128 0x2f
 12231 3372 3E0C0000 		.4byte	.LVL380
 12232 3376 74480000 		.4byte	0x4874
 12233 337a 8B330000 		.4byte	0x338b
 12234 337e 2E       		.uleb128 0x2e
 12235 337f 01       		.uleb128 0x1
 12236 3380 51       		.byte	0x51
 12237 3381 02       		.uleb128 0x2
 12238 3382 76       		.byte	0x76
 12239 3383 00       		.sleb128 0
 12240 3384 2E       		.uleb128 0x2e
 12241 3385 01       		.uleb128 0x1
 12242 3386 50       		.byte	0x50
 12243 3387 02       		.uleb128 0x2
 12244 3388 74       		.byte	0x74
 12245 3389 00       		.sleb128 0
 12246 338a 00       		.byte	0
 12247 338b 2F       		.uleb128 0x2f
 12248 338c 4A0C0000 		.4byte	.LVL381
 12249 3390 74480000 		.4byte	0x4874
 12250 3394 A5330000 		.4byte	0x33a5
 12251 3398 2E       		.uleb128 0x2e
 12252 3399 01       		.uleb128 0x1
 12253 339a 51       		.byte	0x51
 12254 339b 02       		.uleb128 0x2
 12255 339c 76       		.byte	0x76
 12256 339d 00       		.sleb128 0
 12257 339e 2E       		.uleb128 0x2e
 12258 339f 01       		.uleb128 0x1
 12259 33a0 50       		.byte	0x50
 12260 33a1 02       		.uleb128 0x2
 12261 33a2 74       		.byte	0x74
 12262 33a3 00       		.sleb128 0
 12263 33a4 00       		.byte	0
 12264 33a5 2F       		.uleb128 0x2f
 12265 33a6 560C0000 		.4byte	.LVL382
 12266 33aa 74480000 		.4byte	0x4874
 12267 33ae BF330000 		.4byte	0x33bf
 12268 33b2 2E       		.uleb128 0x2e
 12269 33b3 01       		.uleb128 0x1
 12270 33b4 51       		.byte	0x51
 12271 33b5 02       		.uleb128 0x2
 12272 33b6 76       		.byte	0x76
 12273 33b7 00       		.sleb128 0
 12274 33b8 2E       		.uleb128 0x2e
 12275 33b9 01       		.uleb128 0x1
 12276 33ba 50       		.byte	0x50
 12277 33bb 02       		.uleb128 0x2
 12278 33bc 74       		.byte	0x74
 12279 33bd 00       		.sleb128 0
 12280 33be 00       		.byte	0
 12281 33bf 2F       		.uleb128 0x2f
 12282 33c0 620C0000 		.4byte	.LVL383
 12283 33c4 74480000 		.4byte	0x4874
ARM GAS  /tmp/ccTQOGyd.s 			page 217


 12284 33c8 D9330000 		.4byte	0x33d9
 12285 33cc 2E       		.uleb128 0x2e
 12286 33cd 01       		.uleb128 0x1
 12287 33ce 51       		.byte	0x51
 12288 33cf 02       		.uleb128 0x2
 12289 33d0 76       		.byte	0x76
 12290 33d1 00       		.sleb128 0
 12291 33d2 2E       		.uleb128 0x2e
 12292 33d3 01       		.uleb128 0x1
 12293 33d4 50       		.byte	0x50
 12294 33d5 02       		.uleb128 0x2
 12295 33d6 74       		.byte	0x74
 12296 33d7 00       		.sleb128 0
 12297 33d8 00       		.byte	0
 12298 33d9 2F       		.uleb128 0x2f
 12299 33da 6E0C0000 		.4byte	.LVL384
 12300 33de 74480000 		.4byte	0x4874
 12301 33e2 F3330000 		.4byte	0x33f3
 12302 33e6 2E       		.uleb128 0x2e
 12303 33e7 01       		.uleb128 0x1
 12304 33e8 51       		.byte	0x51
 12305 33e9 02       		.uleb128 0x2
 12306 33ea 76       		.byte	0x76
 12307 33eb 00       		.sleb128 0
 12308 33ec 2E       		.uleb128 0x2e
 12309 33ed 01       		.uleb128 0x1
 12310 33ee 50       		.byte	0x50
 12311 33ef 02       		.uleb128 0x2
 12312 33f0 74       		.byte	0x74
 12313 33f1 00       		.sleb128 0
 12314 33f2 00       		.byte	0
 12315 33f3 2F       		.uleb128 0x2f
 12316 33f4 7A0C0000 		.4byte	.LVL385
 12317 33f8 74480000 		.4byte	0x4874
 12318 33fc 0D340000 		.4byte	0x340d
 12319 3400 2E       		.uleb128 0x2e
 12320 3401 01       		.uleb128 0x1
 12321 3402 51       		.byte	0x51
 12322 3403 02       		.uleb128 0x2
 12323 3404 76       		.byte	0x76
 12324 3405 00       		.sleb128 0
 12325 3406 2E       		.uleb128 0x2e
 12326 3407 01       		.uleb128 0x1
 12327 3408 50       		.byte	0x50
 12328 3409 02       		.uleb128 0x2
 12329 340a 74       		.byte	0x74
 12330 340b 00       		.sleb128 0
 12331 340c 00       		.byte	0
 12332 340d 2F       		.uleb128 0x2f
 12333 340e 860C0000 		.4byte	.LVL386
 12334 3412 74480000 		.4byte	0x4874
 12335 3416 27340000 		.4byte	0x3427
 12336 341a 2E       		.uleb128 0x2e
 12337 341b 01       		.uleb128 0x1
 12338 341c 51       		.byte	0x51
 12339 341d 02       		.uleb128 0x2
 12340 341e 76       		.byte	0x76
ARM GAS  /tmp/ccTQOGyd.s 			page 218


 12341 341f 00       		.sleb128 0
 12342 3420 2E       		.uleb128 0x2e
 12343 3421 01       		.uleb128 0x1
 12344 3422 50       		.byte	0x50
 12345 3423 02       		.uleb128 0x2
 12346 3424 74       		.byte	0x74
 12347 3425 00       		.sleb128 0
 12348 3426 00       		.byte	0
 12349 3427 2F       		.uleb128 0x2f
 12350 3428 920C0000 		.4byte	.LVL387
 12351 342c 74480000 		.4byte	0x4874
 12352 3430 41340000 		.4byte	0x3441
 12353 3434 2E       		.uleb128 0x2e
 12354 3435 01       		.uleb128 0x1
 12355 3436 51       		.byte	0x51
 12356 3437 02       		.uleb128 0x2
 12357 3438 76       		.byte	0x76
 12358 3439 00       		.sleb128 0
 12359 343a 2E       		.uleb128 0x2e
 12360 343b 01       		.uleb128 0x1
 12361 343c 50       		.byte	0x50
 12362 343d 02       		.uleb128 0x2
 12363 343e 74       		.byte	0x74
 12364 343f 00       		.sleb128 0
 12365 3440 00       		.byte	0
 12366 3441 2F       		.uleb128 0x2f
 12367 3442 9E0C0000 		.4byte	.LVL388
 12368 3446 74480000 		.4byte	0x4874
 12369 344a 5B340000 		.4byte	0x345b
 12370 344e 2E       		.uleb128 0x2e
 12371 344f 01       		.uleb128 0x1
 12372 3450 51       		.byte	0x51
 12373 3451 02       		.uleb128 0x2
 12374 3452 76       		.byte	0x76
 12375 3453 00       		.sleb128 0
 12376 3454 2E       		.uleb128 0x2e
 12377 3455 01       		.uleb128 0x1
 12378 3456 50       		.byte	0x50
 12379 3457 02       		.uleb128 0x2
 12380 3458 74       		.byte	0x74
 12381 3459 00       		.sleb128 0
 12382 345a 00       		.byte	0
 12383 345b 2F       		.uleb128 0x2f
 12384 345c AA0C0000 		.4byte	.LVL389
 12385 3460 74480000 		.4byte	0x4874
 12386 3464 75340000 		.4byte	0x3475
 12387 3468 2E       		.uleb128 0x2e
 12388 3469 01       		.uleb128 0x1
 12389 346a 51       		.byte	0x51
 12390 346b 02       		.uleb128 0x2
 12391 346c 76       		.byte	0x76
 12392 346d 00       		.sleb128 0
 12393 346e 2E       		.uleb128 0x2e
 12394 346f 01       		.uleb128 0x1
 12395 3470 50       		.byte	0x50
 12396 3471 02       		.uleb128 0x2
 12397 3472 74       		.byte	0x74
ARM GAS  /tmp/ccTQOGyd.s 			page 219


 12398 3473 00       		.sleb128 0
 12399 3474 00       		.byte	0
 12400 3475 2F       		.uleb128 0x2f
 12401 3476 B60C0000 		.4byte	.LVL390
 12402 347a 74480000 		.4byte	0x4874
 12403 347e 8F340000 		.4byte	0x348f
 12404 3482 2E       		.uleb128 0x2e
 12405 3483 01       		.uleb128 0x1
 12406 3484 51       		.byte	0x51
 12407 3485 02       		.uleb128 0x2
 12408 3486 76       		.byte	0x76
 12409 3487 00       		.sleb128 0
 12410 3488 2E       		.uleb128 0x2e
 12411 3489 01       		.uleb128 0x1
 12412 348a 50       		.byte	0x50
 12413 348b 02       		.uleb128 0x2
 12414 348c 74       		.byte	0x74
 12415 348d 00       		.sleb128 0
 12416 348e 00       		.byte	0
 12417 348f 2F       		.uleb128 0x2f
 12418 3490 C20C0000 		.4byte	.LVL391
 12419 3494 74480000 		.4byte	0x4874
 12420 3498 A9340000 		.4byte	0x34a9
 12421 349c 2E       		.uleb128 0x2e
 12422 349d 01       		.uleb128 0x1
 12423 349e 51       		.byte	0x51
 12424 349f 02       		.uleb128 0x2
 12425 34a0 76       		.byte	0x76
 12426 34a1 00       		.sleb128 0
 12427 34a2 2E       		.uleb128 0x2e
 12428 34a3 01       		.uleb128 0x1
 12429 34a4 50       		.byte	0x50
 12430 34a5 02       		.uleb128 0x2
 12431 34a6 74       		.byte	0x74
 12432 34a7 00       		.sleb128 0
 12433 34a8 00       		.byte	0
 12434 34a9 2F       		.uleb128 0x2f
 12435 34aa CE0C0000 		.4byte	.LVL392
 12436 34ae 74480000 		.4byte	0x4874
 12437 34b2 C3340000 		.4byte	0x34c3
 12438 34b6 2E       		.uleb128 0x2e
 12439 34b7 01       		.uleb128 0x1
 12440 34b8 51       		.byte	0x51
 12441 34b9 02       		.uleb128 0x2
 12442 34ba 76       		.byte	0x76
 12443 34bb 00       		.sleb128 0
 12444 34bc 2E       		.uleb128 0x2e
 12445 34bd 01       		.uleb128 0x1
 12446 34be 50       		.byte	0x50
 12447 34bf 02       		.uleb128 0x2
 12448 34c0 74       		.byte	0x74
 12449 34c1 00       		.sleb128 0
 12450 34c2 00       		.byte	0
 12451 34c3 2F       		.uleb128 0x2f
 12452 34c4 E60C0000 		.4byte	.LVL393
 12453 34c8 74480000 		.4byte	0x4874
 12454 34cc DD340000 		.4byte	0x34dd
ARM GAS  /tmp/ccTQOGyd.s 			page 220


 12455 34d0 2E       		.uleb128 0x2e
 12456 34d1 01       		.uleb128 0x1
 12457 34d2 51       		.byte	0x51
 12458 34d3 02       		.uleb128 0x2
 12459 34d4 76       		.byte	0x76
 12460 34d5 00       		.sleb128 0
 12461 34d6 2E       		.uleb128 0x2e
 12462 34d7 01       		.uleb128 0x1
 12463 34d8 50       		.byte	0x50
 12464 34d9 02       		.uleb128 0x2
 12465 34da 74       		.byte	0x74
 12466 34db 00       		.sleb128 0
 12467 34dc 00       		.byte	0
 12468 34dd 2F       		.uleb128 0x2f
 12469 34de F20C0000 		.4byte	.LVL394
 12470 34e2 74480000 		.4byte	0x4874
 12471 34e6 F7340000 		.4byte	0x34f7
 12472 34ea 2E       		.uleb128 0x2e
 12473 34eb 01       		.uleb128 0x1
 12474 34ec 51       		.byte	0x51
 12475 34ed 02       		.uleb128 0x2
 12476 34ee 76       		.byte	0x76
 12477 34ef 00       		.sleb128 0
 12478 34f0 2E       		.uleb128 0x2e
 12479 34f1 01       		.uleb128 0x1
 12480 34f2 50       		.byte	0x50
 12481 34f3 02       		.uleb128 0x2
 12482 34f4 74       		.byte	0x74
 12483 34f5 00       		.sleb128 0
 12484 34f6 00       		.byte	0
 12485 34f7 2F       		.uleb128 0x2f
 12486 34f8 FE0C0000 		.4byte	.LVL395
 12487 34fc 74480000 		.4byte	0x4874
 12488 3500 11350000 		.4byte	0x3511
 12489 3504 2E       		.uleb128 0x2e
 12490 3505 01       		.uleb128 0x1
 12491 3506 51       		.byte	0x51
 12492 3507 02       		.uleb128 0x2
 12493 3508 76       		.byte	0x76
 12494 3509 00       		.sleb128 0
 12495 350a 2E       		.uleb128 0x2e
 12496 350b 01       		.uleb128 0x1
 12497 350c 50       		.byte	0x50
 12498 350d 02       		.uleb128 0x2
 12499 350e 74       		.byte	0x74
 12500 350f 00       		.sleb128 0
 12501 3510 00       		.byte	0
 12502 3511 2F       		.uleb128 0x2f
 12503 3512 0A0D0000 		.4byte	.LVL396
 12504 3516 74480000 		.4byte	0x4874
 12505 351a 2B350000 		.4byte	0x352b
 12506 351e 2E       		.uleb128 0x2e
 12507 351f 01       		.uleb128 0x1
 12508 3520 51       		.byte	0x51
 12509 3521 02       		.uleb128 0x2
 12510 3522 76       		.byte	0x76
 12511 3523 00       		.sleb128 0
ARM GAS  /tmp/ccTQOGyd.s 			page 221


 12512 3524 2E       		.uleb128 0x2e
 12513 3525 01       		.uleb128 0x1
 12514 3526 50       		.byte	0x50
 12515 3527 02       		.uleb128 0x2
 12516 3528 74       		.byte	0x74
 12517 3529 00       		.sleb128 0
 12518 352a 00       		.byte	0
 12519 352b 2F       		.uleb128 0x2f
 12520 352c 160D0000 		.4byte	.LVL397
 12521 3530 74480000 		.4byte	0x4874
 12522 3534 45350000 		.4byte	0x3545
 12523 3538 2E       		.uleb128 0x2e
 12524 3539 01       		.uleb128 0x1
 12525 353a 51       		.byte	0x51
 12526 353b 02       		.uleb128 0x2
 12527 353c 76       		.byte	0x76
 12528 353d 00       		.sleb128 0
 12529 353e 2E       		.uleb128 0x2e
 12530 353f 01       		.uleb128 0x1
 12531 3540 50       		.byte	0x50
 12532 3541 02       		.uleb128 0x2
 12533 3542 74       		.byte	0x74
 12534 3543 00       		.sleb128 0
 12535 3544 00       		.byte	0
 12536 3545 2F       		.uleb128 0x2f
 12537 3546 220D0000 		.4byte	.LVL398
 12538 354a 74480000 		.4byte	0x4874
 12539 354e 5F350000 		.4byte	0x355f
 12540 3552 2E       		.uleb128 0x2e
 12541 3553 01       		.uleb128 0x1
 12542 3554 51       		.byte	0x51
 12543 3555 02       		.uleb128 0x2
 12544 3556 76       		.byte	0x76
 12545 3557 00       		.sleb128 0
 12546 3558 2E       		.uleb128 0x2e
 12547 3559 01       		.uleb128 0x1
 12548 355a 50       		.byte	0x50
 12549 355b 02       		.uleb128 0x2
 12550 355c 74       		.byte	0x74
 12551 355d 00       		.sleb128 0
 12552 355e 00       		.byte	0
 12553 355f 2F       		.uleb128 0x2f
 12554 3560 2E0D0000 		.4byte	.LVL399
 12555 3564 74480000 		.4byte	0x4874
 12556 3568 79350000 		.4byte	0x3579
 12557 356c 2E       		.uleb128 0x2e
 12558 356d 01       		.uleb128 0x1
 12559 356e 51       		.byte	0x51
 12560 356f 02       		.uleb128 0x2
 12561 3570 76       		.byte	0x76
 12562 3571 00       		.sleb128 0
 12563 3572 2E       		.uleb128 0x2e
 12564 3573 01       		.uleb128 0x1
 12565 3574 50       		.byte	0x50
 12566 3575 02       		.uleb128 0x2
 12567 3576 74       		.byte	0x74
 12568 3577 00       		.sleb128 0
ARM GAS  /tmp/ccTQOGyd.s 			page 222


 12569 3578 00       		.byte	0
 12570 3579 2F       		.uleb128 0x2f
 12571 357a 3A0D0000 		.4byte	.LVL400
 12572 357e 74480000 		.4byte	0x4874
 12573 3582 93350000 		.4byte	0x3593
 12574 3586 2E       		.uleb128 0x2e
 12575 3587 01       		.uleb128 0x1
 12576 3588 51       		.byte	0x51
 12577 3589 02       		.uleb128 0x2
 12578 358a 76       		.byte	0x76
 12579 358b 00       		.sleb128 0
 12580 358c 2E       		.uleb128 0x2e
 12581 358d 01       		.uleb128 0x1
 12582 358e 50       		.byte	0x50
 12583 358f 02       		.uleb128 0x2
 12584 3590 74       		.byte	0x74
 12585 3591 00       		.sleb128 0
 12586 3592 00       		.byte	0
 12587 3593 2F       		.uleb128 0x2f
 12588 3594 460D0000 		.4byte	.LVL401
 12589 3598 74480000 		.4byte	0x4874
 12590 359c AD350000 		.4byte	0x35ad
 12591 35a0 2E       		.uleb128 0x2e
 12592 35a1 01       		.uleb128 0x1
 12593 35a2 51       		.byte	0x51
 12594 35a3 02       		.uleb128 0x2
 12595 35a4 76       		.byte	0x76
 12596 35a5 00       		.sleb128 0
 12597 35a6 2E       		.uleb128 0x2e
 12598 35a7 01       		.uleb128 0x1
 12599 35a8 50       		.byte	0x50
 12600 35a9 02       		.uleb128 0x2
 12601 35aa 74       		.byte	0x74
 12602 35ab 00       		.sleb128 0
 12603 35ac 00       		.byte	0
 12604 35ad 2F       		.uleb128 0x2f
 12605 35ae 520D0000 		.4byte	.LVL402
 12606 35b2 74480000 		.4byte	0x4874
 12607 35b6 C7350000 		.4byte	0x35c7
 12608 35ba 2E       		.uleb128 0x2e
 12609 35bb 01       		.uleb128 0x1
 12610 35bc 51       		.byte	0x51
 12611 35bd 02       		.uleb128 0x2
 12612 35be 76       		.byte	0x76
 12613 35bf 00       		.sleb128 0
 12614 35c0 2E       		.uleb128 0x2e
 12615 35c1 01       		.uleb128 0x1
 12616 35c2 50       		.byte	0x50
 12617 35c3 02       		.uleb128 0x2
 12618 35c4 74       		.byte	0x74
 12619 35c5 00       		.sleb128 0
 12620 35c6 00       		.byte	0
 12621 35c7 2F       		.uleb128 0x2f
 12622 35c8 5E0D0000 		.4byte	.LVL403
 12623 35cc 74480000 		.4byte	0x4874
 12624 35d0 E1350000 		.4byte	0x35e1
 12625 35d4 2E       		.uleb128 0x2e
ARM GAS  /tmp/ccTQOGyd.s 			page 223


 12626 35d5 01       		.uleb128 0x1
 12627 35d6 51       		.byte	0x51
 12628 35d7 02       		.uleb128 0x2
 12629 35d8 76       		.byte	0x76
 12630 35d9 00       		.sleb128 0
 12631 35da 2E       		.uleb128 0x2e
 12632 35db 01       		.uleb128 0x1
 12633 35dc 50       		.byte	0x50
 12634 35dd 02       		.uleb128 0x2
 12635 35de 74       		.byte	0x74
 12636 35df 00       		.sleb128 0
 12637 35e0 00       		.byte	0
 12638 35e1 2F       		.uleb128 0x2f
 12639 35e2 6A0D0000 		.4byte	.LVL404
 12640 35e6 74480000 		.4byte	0x4874
 12641 35ea FB350000 		.4byte	0x35fb
 12642 35ee 2E       		.uleb128 0x2e
 12643 35ef 01       		.uleb128 0x1
 12644 35f0 51       		.byte	0x51
 12645 35f1 02       		.uleb128 0x2
 12646 35f2 76       		.byte	0x76
 12647 35f3 00       		.sleb128 0
 12648 35f4 2E       		.uleb128 0x2e
 12649 35f5 01       		.uleb128 0x1
 12650 35f6 50       		.byte	0x50
 12651 35f7 02       		.uleb128 0x2
 12652 35f8 74       		.byte	0x74
 12653 35f9 00       		.sleb128 0
 12654 35fa 00       		.byte	0
 12655 35fb 2F       		.uleb128 0x2f
 12656 35fc 760D0000 		.4byte	.LVL405
 12657 3600 74480000 		.4byte	0x4874
 12658 3604 15360000 		.4byte	0x3615
 12659 3608 2E       		.uleb128 0x2e
 12660 3609 01       		.uleb128 0x1
 12661 360a 51       		.byte	0x51
 12662 360b 02       		.uleb128 0x2
 12663 360c 76       		.byte	0x76
 12664 360d 00       		.sleb128 0
 12665 360e 2E       		.uleb128 0x2e
 12666 360f 01       		.uleb128 0x1
 12667 3610 50       		.byte	0x50
 12668 3611 02       		.uleb128 0x2
 12669 3612 74       		.byte	0x74
 12670 3613 00       		.sleb128 0
 12671 3614 00       		.byte	0
 12672 3615 2F       		.uleb128 0x2f
 12673 3616 820D0000 		.4byte	.LVL406
 12674 361a 74480000 		.4byte	0x4874
 12675 361e 2F360000 		.4byte	0x362f
 12676 3622 2E       		.uleb128 0x2e
 12677 3623 01       		.uleb128 0x1
 12678 3624 51       		.byte	0x51
 12679 3625 02       		.uleb128 0x2
 12680 3626 76       		.byte	0x76
 12681 3627 00       		.sleb128 0
 12682 3628 2E       		.uleb128 0x2e
ARM GAS  /tmp/ccTQOGyd.s 			page 224


 12683 3629 01       		.uleb128 0x1
 12684 362a 50       		.byte	0x50
 12685 362b 02       		.uleb128 0x2
 12686 362c 74       		.byte	0x74
 12687 362d 00       		.sleb128 0
 12688 362e 00       		.byte	0
 12689 362f 2F       		.uleb128 0x2f
 12690 3630 8E0D0000 		.4byte	.LVL407
 12691 3634 74480000 		.4byte	0x4874
 12692 3638 49360000 		.4byte	0x3649
 12693 363c 2E       		.uleb128 0x2e
 12694 363d 01       		.uleb128 0x1
 12695 363e 51       		.byte	0x51
 12696 363f 02       		.uleb128 0x2
 12697 3640 76       		.byte	0x76
 12698 3641 00       		.sleb128 0
 12699 3642 2E       		.uleb128 0x2e
 12700 3643 01       		.uleb128 0x1
 12701 3644 50       		.byte	0x50
 12702 3645 02       		.uleb128 0x2
 12703 3646 74       		.byte	0x74
 12704 3647 00       		.sleb128 0
 12705 3648 00       		.byte	0
 12706 3649 2F       		.uleb128 0x2f
 12707 364a 9A0D0000 		.4byte	.LVL408
 12708 364e 74480000 		.4byte	0x4874
 12709 3652 63360000 		.4byte	0x3663
 12710 3656 2E       		.uleb128 0x2e
 12711 3657 01       		.uleb128 0x1
 12712 3658 51       		.byte	0x51
 12713 3659 02       		.uleb128 0x2
 12714 365a 76       		.byte	0x76
 12715 365b 00       		.sleb128 0
 12716 365c 2E       		.uleb128 0x2e
 12717 365d 01       		.uleb128 0x1
 12718 365e 50       		.byte	0x50
 12719 365f 02       		.uleb128 0x2
 12720 3660 74       		.byte	0x74
 12721 3661 00       		.sleb128 0
 12722 3662 00       		.byte	0
 12723 3663 2F       		.uleb128 0x2f
 12724 3664 B80D0000 		.4byte	.LVL409
 12725 3668 74480000 		.4byte	0x4874
 12726 366c 7D360000 		.4byte	0x367d
 12727 3670 2E       		.uleb128 0x2e
 12728 3671 01       		.uleb128 0x1
 12729 3672 51       		.byte	0x51
 12730 3673 02       		.uleb128 0x2
 12731 3674 76       		.byte	0x76
 12732 3675 00       		.sleb128 0
 12733 3676 2E       		.uleb128 0x2e
 12734 3677 01       		.uleb128 0x1
 12735 3678 50       		.byte	0x50
 12736 3679 02       		.uleb128 0x2
 12737 367a 74       		.byte	0x74
 12738 367b 00       		.sleb128 0
 12739 367c 00       		.byte	0
ARM GAS  /tmp/ccTQOGyd.s 			page 225


 12740 367d 2F       		.uleb128 0x2f
 12741 367e C40D0000 		.4byte	.LVL410
 12742 3682 74480000 		.4byte	0x4874
 12743 3686 97360000 		.4byte	0x3697
 12744 368a 2E       		.uleb128 0x2e
 12745 368b 01       		.uleb128 0x1
 12746 368c 51       		.byte	0x51
 12747 368d 02       		.uleb128 0x2
 12748 368e 76       		.byte	0x76
 12749 368f 00       		.sleb128 0
 12750 3690 2E       		.uleb128 0x2e
 12751 3691 01       		.uleb128 0x1
 12752 3692 50       		.byte	0x50
 12753 3693 02       		.uleb128 0x2
 12754 3694 74       		.byte	0x74
 12755 3695 00       		.sleb128 0
 12756 3696 00       		.byte	0
 12757 3697 2F       		.uleb128 0x2f
 12758 3698 D00D0000 		.4byte	.LVL411
 12759 369c 74480000 		.4byte	0x4874
 12760 36a0 B1360000 		.4byte	0x36b1
 12761 36a4 2E       		.uleb128 0x2e
 12762 36a5 01       		.uleb128 0x1
 12763 36a6 51       		.byte	0x51
 12764 36a7 02       		.uleb128 0x2
 12765 36a8 76       		.byte	0x76
 12766 36a9 00       		.sleb128 0
 12767 36aa 2E       		.uleb128 0x2e
 12768 36ab 01       		.uleb128 0x1
 12769 36ac 50       		.byte	0x50
 12770 36ad 02       		.uleb128 0x2
 12771 36ae 74       		.byte	0x74
 12772 36af 00       		.sleb128 0
 12773 36b0 00       		.byte	0
 12774 36b1 2F       		.uleb128 0x2f
 12775 36b2 DC0D0000 		.4byte	.LVL412
 12776 36b6 74480000 		.4byte	0x4874
 12777 36ba CB360000 		.4byte	0x36cb
 12778 36be 2E       		.uleb128 0x2e
 12779 36bf 01       		.uleb128 0x1
 12780 36c0 51       		.byte	0x51
 12781 36c1 02       		.uleb128 0x2
 12782 36c2 76       		.byte	0x76
 12783 36c3 00       		.sleb128 0
 12784 36c4 2E       		.uleb128 0x2e
 12785 36c5 01       		.uleb128 0x1
 12786 36c6 50       		.byte	0x50
 12787 36c7 02       		.uleb128 0x2
 12788 36c8 74       		.byte	0x74
 12789 36c9 00       		.sleb128 0
 12790 36ca 00       		.byte	0
 12791 36cb 2F       		.uleb128 0x2f
 12792 36cc E80D0000 		.4byte	.LVL413
 12793 36d0 74480000 		.4byte	0x4874
 12794 36d4 E5360000 		.4byte	0x36e5
 12795 36d8 2E       		.uleb128 0x2e
 12796 36d9 01       		.uleb128 0x1
ARM GAS  /tmp/ccTQOGyd.s 			page 226


 12797 36da 51       		.byte	0x51
 12798 36db 02       		.uleb128 0x2
 12799 36dc 76       		.byte	0x76
 12800 36dd 00       		.sleb128 0
 12801 36de 2E       		.uleb128 0x2e
 12802 36df 01       		.uleb128 0x1
 12803 36e0 50       		.byte	0x50
 12804 36e1 02       		.uleb128 0x2
 12805 36e2 74       		.byte	0x74
 12806 36e3 00       		.sleb128 0
 12807 36e4 00       		.byte	0
 12808 36e5 2F       		.uleb128 0x2f
 12809 36e6 000E0000 		.4byte	.LVL414
 12810 36ea 74480000 		.4byte	0x4874
 12811 36ee FF360000 		.4byte	0x36ff
 12812 36f2 2E       		.uleb128 0x2e
 12813 36f3 01       		.uleb128 0x1
 12814 36f4 51       		.byte	0x51
 12815 36f5 02       		.uleb128 0x2
 12816 36f6 76       		.byte	0x76
 12817 36f7 00       		.sleb128 0
 12818 36f8 2E       		.uleb128 0x2e
 12819 36f9 01       		.uleb128 0x1
 12820 36fa 50       		.byte	0x50
 12821 36fb 02       		.uleb128 0x2
 12822 36fc 74       		.byte	0x74
 12823 36fd 00       		.sleb128 0
 12824 36fe 00       		.byte	0
 12825 36ff 2F       		.uleb128 0x2f
 12826 3700 0C0E0000 		.4byte	.LVL415
 12827 3704 74480000 		.4byte	0x4874
 12828 3708 19370000 		.4byte	0x3719
 12829 370c 2E       		.uleb128 0x2e
 12830 370d 01       		.uleb128 0x1
 12831 370e 51       		.byte	0x51
 12832 370f 02       		.uleb128 0x2
 12833 3710 76       		.byte	0x76
 12834 3711 00       		.sleb128 0
 12835 3712 2E       		.uleb128 0x2e
 12836 3713 01       		.uleb128 0x1
 12837 3714 50       		.byte	0x50
 12838 3715 02       		.uleb128 0x2
 12839 3716 74       		.byte	0x74
 12840 3717 00       		.sleb128 0
 12841 3718 00       		.byte	0
 12842 3719 2F       		.uleb128 0x2f
 12843 371a 240E0000 		.4byte	.LVL416
 12844 371e 74480000 		.4byte	0x4874
 12845 3722 33370000 		.4byte	0x3733
 12846 3726 2E       		.uleb128 0x2e
 12847 3727 01       		.uleb128 0x1
 12848 3728 51       		.byte	0x51
 12849 3729 02       		.uleb128 0x2
 12850 372a 76       		.byte	0x76
 12851 372b 00       		.sleb128 0
 12852 372c 2E       		.uleb128 0x2e
 12853 372d 01       		.uleb128 0x1
ARM GAS  /tmp/ccTQOGyd.s 			page 227


 12854 372e 50       		.byte	0x50
 12855 372f 02       		.uleb128 0x2
 12856 3730 74       		.byte	0x74
 12857 3731 00       		.sleb128 0
 12858 3732 00       		.byte	0
 12859 3733 2F       		.uleb128 0x2f
 12860 3734 300E0000 		.4byte	.LVL417
 12861 3738 74480000 		.4byte	0x4874
 12862 373c 4D370000 		.4byte	0x374d
 12863 3740 2E       		.uleb128 0x2e
 12864 3741 01       		.uleb128 0x1
 12865 3742 51       		.byte	0x51
 12866 3743 02       		.uleb128 0x2
 12867 3744 76       		.byte	0x76
 12868 3745 00       		.sleb128 0
 12869 3746 2E       		.uleb128 0x2e
 12870 3747 01       		.uleb128 0x1
 12871 3748 50       		.byte	0x50
 12872 3749 02       		.uleb128 0x2
 12873 374a 74       		.byte	0x74
 12874 374b 00       		.sleb128 0
 12875 374c 00       		.byte	0
 12876 374d 2F       		.uleb128 0x2f
 12877 374e 3C0E0000 		.4byte	.LVL418
 12878 3752 74480000 		.4byte	0x4874
 12879 3756 67370000 		.4byte	0x3767
 12880 375a 2E       		.uleb128 0x2e
 12881 375b 01       		.uleb128 0x1
 12882 375c 51       		.byte	0x51
 12883 375d 02       		.uleb128 0x2
 12884 375e 76       		.byte	0x76
 12885 375f 00       		.sleb128 0
 12886 3760 2E       		.uleb128 0x2e
 12887 3761 01       		.uleb128 0x1
 12888 3762 50       		.byte	0x50
 12889 3763 02       		.uleb128 0x2
 12890 3764 74       		.byte	0x74
 12891 3765 00       		.sleb128 0
 12892 3766 00       		.byte	0
 12893 3767 2F       		.uleb128 0x2f
 12894 3768 480E0000 		.4byte	.LVL419
 12895 376c 74480000 		.4byte	0x4874
 12896 3770 81370000 		.4byte	0x3781
 12897 3774 2E       		.uleb128 0x2e
 12898 3775 01       		.uleb128 0x1
 12899 3776 51       		.byte	0x51
 12900 3777 02       		.uleb128 0x2
 12901 3778 76       		.byte	0x76
 12902 3779 00       		.sleb128 0
 12903 377a 2E       		.uleb128 0x2e
 12904 377b 01       		.uleb128 0x1
 12905 377c 50       		.byte	0x50
 12906 377d 02       		.uleb128 0x2
 12907 377e 74       		.byte	0x74
 12908 377f 00       		.sleb128 0
 12909 3780 00       		.byte	0
 12910 3781 2F       		.uleb128 0x2f
ARM GAS  /tmp/ccTQOGyd.s 			page 228


 12911 3782 540E0000 		.4byte	.LVL420
 12912 3786 74480000 		.4byte	0x4874
 12913 378a 9B370000 		.4byte	0x379b
 12914 378e 2E       		.uleb128 0x2e
 12915 378f 01       		.uleb128 0x1
 12916 3790 51       		.byte	0x51
 12917 3791 02       		.uleb128 0x2
 12918 3792 76       		.byte	0x76
 12919 3793 00       		.sleb128 0
 12920 3794 2E       		.uleb128 0x2e
 12921 3795 01       		.uleb128 0x1
 12922 3796 50       		.byte	0x50
 12923 3797 02       		.uleb128 0x2
 12924 3798 74       		.byte	0x74
 12925 3799 00       		.sleb128 0
 12926 379a 00       		.byte	0
 12927 379b 2F       		.uleb128 0x2f
 12928 379c 600E0000 		.4byte	.LVL421
 12929 37a0 74480000 		.4byte	0x4874
 12930 37a4 B5370000 		.4byte	0x37b5
 12931 37a8 2E       		.uleb128 0x2e
 12932 37a9 01       		.uleb128 0x1
 12933 37aa 51       		.byte	0x51
 12934 37ab 02       		.uleb128 0x2
 12935 37ac 76       		.byte	0x76
 12936 37ad 00       		.sleb128 0
 12937 37ae 2E       		.uleb128 0x2e
 12938 37af 01       		.uleb128 0x1
 12939 37b0 50       		.byte	0x50
 12940 37b1 02       		.uleb128 0x2
 12941 37b2 74       		.byte	0x74
 12942 37b3 00       		.sleb128 0
 12943 37b4 00       		.byte	0
 12944 37b5 2F       		.uleb128 0x2f
 12945 37b6 6C0E0000 		.4byte	.LVL422
 12946 37ba 74480000 		.4byte	0x4874
 12947 37be CF370000 		.4byte	0x37cf
 12948 37c2 2E       		.uleb128 0x2e
 12949 37c3 01       		.uleb128 0x1
 12950 37c4 51       		.byte	0x51
 12951 37c5 02       		.uleb128 0x2
 12952 37c6 76       		.byte	0x76
 12953 37c7 00       		.sleb128 0
 12954 37c8 2E       		.uleb128 0x2e
 12955 37c9 01       		.uleb128 0x1
 12956 37ca 50       		.byte	0x50
 12957 37cb 02       		.uleb128 0x2
 12958 37cc 74       		.byte	0x74
 12959 37cd 00       		.sleb128 0
 12960 37ce 00       		.byte	0
 12961 37cf 2F       		.uleb128 0x2f
 12962 37d0 780E0000 		.4byte	.LVL423
 12963 37d4 74480000 		.4byte	0x4874
 12964 37d8 E9370000 		.4byte	0x37e9
 12965 37dc 2E       		.uleb128 0x2e
 12966 37dd 01       		.uleb128 0x1
 12967 37de 51       		.byte	0x51
ARM GAS  /tmp/ccTQOGyd.s 			page 229


 12968 37df 02       		.uleb128 0x2
 12969 37e0 76       		.byte	0x76
 12970 37e1 00       		.sleb128 0
 12971 37e2 2E       		.uleb128 0x2e
 12972 37e3 01       		.uleb128 0x1
 12973 37e4 50       		.byte	0x50
 12974 37e5 02       		.uleb128 0x2
 12975 37e6 74       		.byte	0x74
 12976 37e7 00       		.sleb128 0
 12977 37e8 00       		.byte	0
 12978 37e9 2F       		.uleb128 0x2f
 12979 37ea 840E0000 		.4byte	.LVL424
 12980 37ee 74480000 		.4byte	0x4874
 12981 37f2 03380000 		.4byte	0x3803
 12982 37f6 2E       		.uleb128 0x2e
 12983 37f7 01       		.uleb128 0x1
 12984 37f8 51       		.byte	0x51
 12985 37f9 02       		.uleb128 0x2
 12986 37fa 76       		.byte	0x76
 12987 37fb 00       		.sleb128 0
 12988 37fc 2E       		.uleb128 0x2e
 12989 37fd 01       		.uleb128 0x1
 12990 37fe 50       		.byte	0x50
 12991 37ff 02       		.uleb128 0x2
 12992 3800 74       		.byte	0x74
 12993 3801 00       		.sleb128 0
 12994 3802 00       		.byte	0
 12995 3803 2F       		.uleb128 0x2f
 12996 3804 900E0000 		.4byte	.LVL425
 12997 3808 74480000 		.4byte	0x4874
 12998 380c 1D380000 		.4byte	0x381d
 12999 3810 2E       		.uleb128 0x2e
 13000 3811 01       		.uleb128 0x1
 13001 3812 51       		.byte	0x51
 13002 3813 02       		.uleb128 0x2
 13003 3814 76       		.byte	0x76
 13004 3815 00       		.sleb128 0
 13005 3816 2E       		.uleb128 0x2e
 13006 3817 01       		.uleb128 0x1
 13007 3818 50       		.byte	0x50
 13008 3819 02       		.uleb128 0x2
 13009 381a 74       		.byte	0x74
 13010 381b 00       		.sleb128 0
 13011 381c 00       		.byte	0
 13012 381d 2F       		.uleb128 0x2f
 13013 381e 9C0E0000 		.4byte	.LVL426
 13014 3822 74480000 		.4byte	0x4874
 13015 3826 37380000 		.4byte	0x3837
 13016 382a 2E       		.uleb128 0x2e
 13017 382b 01       		.uleb128 0x1
 13018 382c 51       		.byte	0x51
 13019 382d 02       		.uleb128 0x2
 13020 382e 76       		.byte	0x76
 13021 382f 00       		.sleb128 0
 13022 3830 2E       		.uleb128 0x2e
 13023 3831 01       		.uleb128 0x1
 13024 3832 50       		.byte	0x50
ARM GAS  /tmp/ccTQOGyd.s 			page 230


 13025 3833 02       		.uleb128 0x2
 13026 3834 74       		.byte	0x74
 13027 3835 00       		.sleb128 0
 13028 3836 00       		.byte	0
 13029 3837 2F       		.uleb128 0x2f
 13030 3838 A80E0000 		.4byte	.LVL427
 13031 383c 74480000 		.4byte	0x4874
 13032 3840 51380000 		.4byte	0x3851
 13033 3844 2E       		.uleb128 0x2e
 13034 3845 01       		.uleb128 0x1
 13035 3846 51       		.byte	0x51
 13036 3847 02       		.uleb128 0x2
 13037 3848 76       		.byte	0x76
 13038 3849 00       		.sleb128 0
 13039 384a 2E       		.uleb128 0x2e
 13040 384b 01       		.uleb128 0x1
 13041 384c 50       		.byte	0x50
 13042 384d 02       		.uleb128 0x2
 13043 384e 74       		.byte	0x74
 13044 384f 00       		.sleb128 0
 13045 3850 00       		.byte	0
 13046 3851 2F       		.uleb128 0x2f
 13047 3852 B40E0000 		.4byte	.LVL428
 13048 3856 74480000 		.4byte	0x4874
 13049 385a 6B380000 		.4byte	0x386b
 13050 385e 2E       		.uleb128 0x2e
 13051 385f 01       		.uleb128 0x1
 13052 3860 51       		.byte	0x51
 13053 3861 02       		.uleb128 0x2
 13054 3862 76       		.byte	0x76
 13055 3863 00       		.sleb128 0
 13056 3864 2E       		.uleb128 0x2e
 13057 3865 01       		.uleb128 0x1
 13058 3866 50       		.byte	0x50
 13059 3867 02       		.uleb128 0x2
 13060 3868 74       		.byte	0x74
 13061 3869 00       		.sleb128 0
 13062 386a 00       		.byte	0
 13063 386b 2F       		.uleb128 0x2f
 13064 386c C00E0000 		.4byte	.LVL429
 13065 3870 74480000 		.4byte	0x4874
 13066 3874 85380000 		.4byte	0x3885
 13067 3878 2E       		.uleb128 0x2e
 13068 3879 01       		.uleb128 0x1
 13069 387a 51       		.byte	0x51
 13070 387b 02       		.uleb128 0x2
 13071 387c 76       		.byte	0x76
 13072 387d 00       		.sleb128 0
 13073 387e 2E       		.uleb128 0x2e
 13074 387f 01       		.uleb128 0x1
 13075 3880 50       		.byte	0x50
 13076 3881 02       		.uleb128 0x2
 13077 3882 74       		.byte	0x74
 13078 3883 00       		.sleb128 0
 13079 3884 00       		.byte	0
 13080 3885 2F       		.uleb128 0x2f
 13081 3886 E00E0000 		.4byte	.LVL430
ARM GAS  /tmp/ccTQOGyd.s 			page 231


 13082 388a 74480000 		.4byte	0x4874
 13083 388e 9F380000 		.4byte	0x389f
 13084 3892 2E       		.uleb128 0x2e
 13085 3893 01       		.uleb128 0x1
 13086 3894 51       		.byte	0x51
 13087 3895 02       		.uleb128 0x2
 13088 3896 76       		.byte	0x76
 13089 3897 00       		.sleb128 0
 13090 3898 2E       		.uleb128 0x2e
 13091 3899 01       		.uleb128 0x1
 13092 389a 50       		.byte	0x50
 13093 389b 02       		.uleb128 0x2
 13094 389c 74       		.byte	0x74
 13095 389d 00       		.sleb128 0
 13096 389e 00       		.byte	0
 13097 389f 2F       		.uleb128 0x2f
 13098 38a0 0A0F0000 		.4byte	.LVL431
 13099 38a4 74480000 		.4byte	0x4874
 13100 38a8 B9380000 		.4byte	0x38b9
 13101 38ac 2E       		.uleb128 0x2e
 13102 38ad 01       		.uleb128 0x1
 13103 38ae 51       		.byte	0x51
 13104 38af 02       		.uleb128 0x2
 13105 38b0 76       		.byte	0x76
 13106 38b1 00       		.sleb128 0
 13107 38b2 2E       		.uleb128 0x2e
 13108 38b3 01       		.uleb128 0x1
 13109 38b4 50       		.byte	0x50
 13110 38b5 02       		.uleb128 0x2
 13111 38b6 74       		.byte	0x74
 13112 38b7 00       		.sleb128 0
 13113 38b8 00       		.byte	0
 13114 38b9 2F       		.uleb128 0x2f
 13115 38ba 220F0000 		.4byte	.LVL432
 13116 38be 74480000 		.4byte	0x4874
 13117 38c2 D3380000 		.4byte	0x38d3
 13118 38c6 2E       		.uleb128 0x2e
 13119 38c7 01       		.uleb128 0x1
 13120 38c8 51       		.byte	0x51
 13121 38c9 02       		.uleb128 0x2
 13122 38ca 76       		.byte	0x76
 13123 38cb 00       		.sleb128 0
 13124 38cc 2E       		.uleb128 0x2e
 13125 38cd 01       		.uleb128 0x1
 13126 38ce 50       		.byte	0x50
 13127 38cf 02       		.uleb128 0x2
 13128 38d0 74       		.byte	0x74
 13129 38d1 00       		.sleb128 0
 13130 38d2 00       		.byte	0
 13131 38d3 2F       		.uleb128 0x2f
 13132 38d4 2E0F0000 		.4byte	.LVL433
 13133 38d8 74480000 		.4byte	0x4874
 13134 38dc ED380000 		.4byte	0x38ed
 13135 38e0 2E       		.uleb128 0x2e
 13136 38e1 01       		.uleb128 0x1
 13137 38e2 51       		.byte	0x51
 13138 38e3 02       		.uleb128 0x2
ARM GAS  /tmp/ccTQOGyd.s 			page 232


 13139 38e4 76       		.byte	0x76
 13140 38e5 00       		.sleb128 0
 13141 38e6 2E       		.uleb128 0x2e
 13142 38e7 01       		.uleb128 0x1
 13143 38e8 50       		.byte	0x50
 13144 38e9 02       		.uleb128 0x2
 13145 38ea 74       		.byte	0x74
 13146 38eb 00       		.sleb128 0
 13147 38ec 00       		.byte	0
 13148 38ed 2F       		.uleb128 0x2f
 13149 38ee 3A0F0000 		.4byte	.LVL434
 13150 38f2 74480000 		.4byte	0x4874
 13151 38f6 07390000 		.4byte	0x3907
 13152 38fa 2E       		.uleb128 0x2e
 13153 38fb 01       		.uleb128 0x1
 13154 38fc 51       		.byte	0x51
 13155 38fd 02       		.uleb128 0x2
 13156 38fe 76       		.byte	0x76
 13157 38ff 00       		.sleb128 0
 13158 3900 2E       		.uleb128 0x2e
 13159 3901 01       		.uleb128 0x1
 13160 3902 50       		.byte	0x50
 13161 3903 02       		.uleb128 0x2
 13162 3904 74       		.byte	0x74
 13163 3905 00       		.sleb128 0
 13164 3906 00       		.byte	0
 13165 3907 2F       		.uleb128 0x2f
 13166 3908 460F0000 		.4byte	.LVL435
 13167 390c 74480000 		.4byte	0x4874
 13168 3910 21390000 		.4byte	0x3921
 13169 3914 2E       		.uleb128 0x2e
 13170 3915 01       		.uleb128 0x1
 13171 3916 51       		.byte	0x51
 13172 3917 02       		.uleb128 0x2
 13173 3918 76       		.byte	0x76
 13174 3919 00       		.sleb128 0
 13175 391a 2E       		.uleb128 0x2e
 13176 391b 01       		.uleb128 0x1
 13177 391c 50       		.byte	0x50
 13178 391d 02       		.uleb128 0x2
 13179 391e 74       		.byte	0x74
 13180 391f 00       		.sleb128 0
 13181 3920 00       		.byte	0
 13182 3921 2F       		.uleb128 0x2f
 13183 3922 520F0000 		.4byte	.LVL436
 13184 3926 74480000 		.4byte	0x4874
 13185 392a 3B390000 		.4byte	0x393b
 13186 392e 2E       		.uleb128 0x2e
 13187 392f 01       		.uleb128 0x1
 13188 3930 51       		.byte	0x51
 13189 3931 02       		.uleb128 0x2
 13190 3932 76       		.byte	0x76
 13191 3933 00       		.sleb128 0
 13192 3934 2E       		.uleb128 0x2e
 13193 3935 01       		.uleb128 0x1
 13194 3936 50       		.byte	0x50
 13195 3937 02       		.uleb128 0x2
ARM GAS  /tmp/ccTQOGyd.s 			page 233


 13196 3938 74       		.byte	0x74
 13197 3939 00       		.sleb128 0
 13198 393a 00       		.byte	0
 13199 393b 2F       		.uleb128 0x2f
 13200 393c 6A0F0000 		.4byte	.LVL437
 13201 3940 74480000 		.4byte	0x4874
 13202 3944 55390000 		.4byte	0x3955
 13203 3948 2E       		.uleb128 0x2e
 13204 3949 01       		.uleb128 0x1
 13205 394a 51       		.byte	0x51
 13206 394b 02       		.uleb128 0x2
 13207 394c 76       		.byte	0x76
 13208 394d 00       		.sleb128 0
 13209 394e 2E       		.uleb128 0x2e
 13210 394f 01       		.uleb128 0x1
 13211 3950 50       		.byte	0x50
 13212 3951 02       		.uleb128 0x2
 13213 3952 74       		.byte	0x74
 13214 3953 00       		.sleb128 0
 13215 3954 00       		.byte	0
 13216 3955 2F       		.uleb128 0x2f
 13217 3956 760F0000 		.4byte	.LVL438
 13218 395a 74480000 		.4byte	0x4874
 13219 395e 6F390000 		.4byte	0x396f
 13220 3962 2E       		.uleb128 0x2e
 13221 3963 01       		.uleb128 0x1
 13222 3964 51       		.byte	0x51
 13223 3965 02       		.uleb128 0x2
 13224 3966 76       		.byte	0x76
 13225 3967 00       		.sleb128 0
 13226 3968 2E       		.uleb128 0x2e
 13227 3969 01       		.uleb128 0x1
 13228 396a 50       		.byte	0x50
 13229 396b 02       		.uleb128 0x2
 13230 396c 74       		.byte	0x74
 13231 396d 00       		.sleb128 0
 13232 396e 00       		.byte	0
 13233 396f 2F       		.uleb128 0x2f
 13234 3970 820F0000 		.4byte	.LVL439
 13235 3974 74480000 		.4byte	0x4874
 13236 3978 89390000 		.4byte	0x3989
 13237 397c 2E       		.uleb128 0x2e
 13238 397d 01       		.uleb128 0x1
 13239 397e 51       		.byte	0x51
 13240 397f 02       		.uleb128 0x2
 13241 3980 76       		.byte	0x76
 13242 3981 00       		.sleb128 0
 13243 3982 2E       		.uleb128 0x2e
 13244 3983 01       		.uleb128 0x1
 13245 3984 50       		.byte	0x50
 13246 3985 02       		.uleb128 0x2
 13247 3986 74       		.byte	0x74
 13248 3987 00       		.sleb128 0
 13249 3988 00       		.byte	0
 13250 3989 2F       		.uleb128 0x2f
 13251 398a 8E0F0000 		.4byte	.LVL440
 13252 398e 74480000 		.4byte	0x4874
ARM GAS  /tmp/ccTQOGyd.s 			page 234


 13253 3992 A3390000 		.4byte	0x39a3
 13254 3996 2E       		.uleb128 0x2e
 13255 3997 01       		.uleb128 0x1
 13256 3998 51       		.byte	0x51
 13257 3999 02       		.uleb128 0x2
 13258 399a 76       		.byte	0x76
 13259 399b 00       		.sleb128 0
 13260 399c 2E       		.uleb128 0x2e
 13261 399d 01       		.uleb128 0x1
 13262 399e 50       		.byte	0x50
 13263 399f 02       		.uleb128 0x2
 13264 39a0 74       		.byte	0x74
 13265 39a1 00       		.sleb128 0
 13266 39a2 00       		.byte	0
 13267 39a3 2F       		.uleb128 0x2f
 13268 39a4 9A0F0000 		.4byte	.LVL441
 13269 39a8 74480000 		.4byte	0x4874
 13270 39ac BD390000 		.4byte	0x39bd
 13271 39b0 2E       		.uleb128 0x2e
 13272 39b1 01       		.uleb128 0x1
 13273 39b2 51       		.byte	0x51
 13274 39b3 02       		.uleb128 0x2
 13275 39b4 76       		.byte	0x76
 13276 39b5 00       		.sleb128 0
 13277 39b6 2E       		.uleb128 0x2e
 13278 39b7 01       		.uleb128 0x1
 13279 39b8 50       		.byte	0x50
 13280 39b9 02       		.uleb128 0x2
 13281 39ba 74       		.byte	0x74
 13282 39bb 00       		.sleb128 0
 13283 39bc 00       		.byte	0
 13284 39bd 2F       		.uleb128 0x2f
 13285 39be A60F0000 		.4byte	.LVL442
 13286 39c2 74480000 		.4byte	0x4874
 13287 39c6 D7390000 		.4byte	0x39d7
 13288 39ca 2E       		.uleb128 0x2e
 13289 39cb 01       		.uleb128 0x1
 13290 39cc 51       		.byte	0x51
 13291 39cd 02       		.uleb128 0x2
 13292 39ce 76       		.byte	0x76
 13293 39cf 00       		.sleb128 0
 13294 39d0 2E       		.uleb128 0x2e
 13295 39d1 01       		.uleb128 0x1
 13296 39d2 50       		.byte	0x50
 13297 39d3 02       		.uleb128 0x2
 13298 39d4 74       		.byte	0x74
 13299 39d5 00       		.sleb128 0
 13300 39d6 00       		.byte	0
 13301 39d7 2F       		.uleb128 0x2f
 13302 39d8 B20F0000 		.4byte	.LVL443
 13303 39dc 74480000 		.4byte	0x4874
 13304 39e0 F1390000 		.4byte	0x39f1
 13305 39e4 2E       		.uleb128 0x2e
 13306 39e5 01       		.uleb128 0x1
 13307 39e6 51       		.byte	0x51
 13308 39e7 02       		.uleb128 0x2
 13309 39e8 76       		.byte	0x76
ARM GAS  /tmp/ccTQOGyd.s 			page 235


 13310 39e9 00       		.sleb128 0
 13311 39ea 2E       		.uleb128 0x2e
 13312 39eb 01       		.uleb128 0x1
 13313 39ec 50       		.byte	0x50
 13314 39ed 02       		.uleb128 0x2
 13315 39ee 74       		.byte	0x74
 13316 39ef 00       		.sleb128 0
 13317 39f0 00       		.byte	0
 13318 39f1 2F       		.uleb128 0x2f
 13319 39f2 BE0F0000 		.4byte	.LVL444
 13320 39f6 74480000 		.4byte	0x4874
 13321 39fa 0B3A0000 		.4byte	0x3a0b
 13322 39fe 2E       		.uleb128 0x2e
 13323 39ff 01       		.uleb128 0x1
 13324 3a00 51       		.byte	0x51
 13325 3a01 02       		.uleb128 0x2
 13326 3a02 76       		.byte	0x76
 13327 3a03 00       		.sleb128 0
 13328 3a04 2E       		.uleb128 0x2e
 13329 3a05 01       		.uleb128 0x1
 13330 3a06 50       		.byte	0x50
 13331 3a07 02       		.uleb128 0x2
 13332 3a08 74       		.byte	0x74
 13333 3a09 00       		.sleb128 0
 13334 3a0a 00       		.byte	0
 13335 3a0b 2F       		.uleb128 0x2f
 13336 3a0c CA0F0000 		.4byte	.LVL445
 13337 3a10 C6470000 		.4byte	0x47c6
 13338 3a14 253A0000 		.4byte	0x3a25
 13339 3a18 2E       		.uleb128 0x2e
 13340 3a19 01       		.uleb128 0x1
 13341 3a1a 52       		.byte	0x52
 13342 3a1b 02       		.uleb128 0x2
 13343 3a1c 76       		.byte	0x76
 13344 3a1d 00       		.sleb128 0
 13345 3a1e 2E       		.uleb128 0x2e
 13346 3a1f 01       		.uleb128 0x1
 13347 3a20 50       		.byte	0x50
 13348 3a21 02       		.uleb128 0x2
 13349 3a22 74       		.byte	0x74
 13350 3a23 00       		.sleb128 0
 13351 3a24 00       		.byte	0
 13352 3a25 2F       		.uleb128 0x2f
 13353 3a26 D60F0000 		.4byte	.LVL446
 13354 3a2a 74480000 		.4byte	0x4874
 13355 3a2e 3F3A0000 		.4byte	0x3a3f
 13356 3a32 2E       		.uleb128 0x2e
 13357 3a33 01       		.uleb128 0x1
 13358 3a34 51       		.byte	0x51
 13359 3a35 02       		.uleb128 0x2
 13360 3a36 76       		.byte	0x76
 13361 3a37 00       		.sleb128 0
 13362 3a38 2E       		.uleb128 0x2e
 13363 3a39 01       		.uleb128 0x1
 13364 3a3a 50       		.byte	0x50
 13365 3a3b 02       		.uleb128 0x2
 13366 3a3c 74       		.byte	0x74
ARM GAS  /tmp/ccTQOGyd.s 			page 236


 13367 3a3d 00       		.sleb128 0
 13368 3a3e 00       		.byte	0
 13369 3a3f 2F       		.uleb128 0x2f
 13370 3a40 E20F0000 		.4byte	.LVL447
 13371 3a44 74480000 		.4byte	0x4874
 13372 3a48 593A0000 		.4byte	0x3a59
 13373 3a4c 2E       		.uleb128 0x2e
 13374 3a4d 01       		.uleb128 0x1
 13375 3a4e 51       		.byte	0x51
 13376 3a4f 02       		.uleb128 0x2
 13377 3a50 76       		.byte	0x76
 13378 3a51 00       		.sleb128 0
 13379 3a52 2E       		.uleb128 0x2e
 13380 3a53 01       		.uleb128 0x1
 13381 3a54 50       		.byte	0x50
 13382 3a55 02       		.uleb128 0x2
 13383 3a56 74       		.byte	0x74
 13384 3a57 00       		.sleb128 0
 13385 3a58 00       		.byte	0
 13386 3a59 2F       		.uleb128 0x2f
 13387 3a5a EE0F0000 		.4byte	.LVL448
 13388 3a5e 59480000 		.4byte	0x4859
 13389 3a62 733A0000 		.4byte	0x3a73
 13390 3a66 2E       		.uleb128 0x2e
 13391 3a67 01       		.uleb128 0x1
 13392 3a68 52       		.byte	0x52
 13393 3a69 02       		.uleb128 0x2
 13394 3a6a 76       		.byte	0x76
 13395 3a6b 00       		.sleb128 0
 13396 3a6c 2E       		.uleb128 0x2e
 13397 3a6d 01       		.uleb128 0x1
 13398 3a6e 50       		.byte	0x50
 13399 3a6f 02       		.uleb128 0x2
 13400 3a70 74       		.byte	0x74
 13401 3a71 00       		.sleb128 0
 13402 3a72 00       		.byte	0
 13403 3a73 2F       		.uleb128 0x2f
 13404 3a74 1E100000 		.4byte	.LVL449
 13405 3a78 74480000 		.4byte	0x4874
 13406 3a7c 8D3A0000 		.4byte	0x3a8d
 13407 3a80 2E       		.uleb128 0x2e
 13408 3a81 01       		.uleb128 0x1
 13409 3a82 51       		.byte	0x51
 13410 3a83 02       		.uleb128 0x2
 13411 3a84 76       		.byte	0x76
 13412 3a85 00       		.sleb128 0
 13413 3a86 2E       		.uleb128 0x2e
 13414 3a87 01       		.uleb128 0x1
 13415 3a88 50       		.byte	0x50
 13416 3a89 02       		.uleb128 0x2
 13417 3a8a 74       		.byte	0x74
 13418 3a8b 00       		.sleb128 0
 13419 3a8c 00       		.byte	0
 13420 3a8d 2F       		.uleb128 0x2f
 13421 3a8e 2A100000 		.4byte	.LVL450
 13422 3a92 74480000 		.4byte	0x4874
 13423 3a96 A73A0000 		.4byte	0x3aa7
ARM GAS  /tmp/ccTQOGyd.s 			page 237


 13424 3a9a 2E       		.uleb128 0x2e
 13425 3a9b 01       		.uleb128 0x1
 13426 3a9c 51       		.byte	0x51
 13427 3a9d 02       		.uleb128 0x2
 13428 3a9e 76       		.byte	0x76
 13429 3a9f 00       		.sleb128 0
 13430 3aa0 2E       		.uleb128 0x2e
 13431 3aa1 01       		.uleb128 0x1
 13432 3aa2 50       		.byte	0x50
 13433 3aa3 02       		.uleb128 0x2
 13434 3aa4 74       		.byte	0x74
 13435 3aa5 00       		.sleb128 0
 13436 3aa6 00       		.byte	0
 13437 3aa7 2F       		.uleb128 0x2f
 13438 3aa8 36100000 		.4byte	.LVL451
 13439 3aac 74480000 		.4byte	0x4874
 13440 3ab0 C13A0000 		.4byte	0x3ac1
 13441 3ab4 2E       		.uleb128 0x2e
 13442 3ab5 01       		.uleb128 0x1
 13443 3ab6 51       		.byte	0x51
 13444 3ab7 02       		.uleb128 0x2
 13445 3ab8 76       		.byte	0x76
 13446 3ab9 00       		.sleb128 0
 13447 3aba 2E       		.uleb128 0x2e
 13448 3abb 01       		.uleb128 0x1
 13449 3abc 50       		.byte	0x50
 13450 3abd 02       		.uleb128 0x2
 13451 3abe 74       		.byte	0x74
 13452 3abf 00       		.sleb128 0
 13453 3ac0 00       		.byte	0
 13454 3ac1 2F       		.uleb128 0x2f
 13455 3ac2 42100000 		.4byte	.LVL452
 13456 3ac6 74480000 		.4byte	0x4874
 13457 3aca DB3A0000 		.4byte	0x3adb
 13458 3ace 2E       		.uleb128 0x2e
 13459 3acf 01       		.uleb128 0x1
 13460 3ad0 51       		.byte	0x51
 13461 3ad1 02       		.uleb128 0x2
 13462 3ad2 76       		.byte	0x76
 13463 3ad3 00       		.sleb128 0
 13464 3ad4 2E       		.uleb128 0x2e
 13465 3ad5 01       		.uleb128 0x1
 13466 3ad6 50       		.byte	0x50
 13467 3ad7 02       		.uleb128 0x2
 13468 3ad8 74       		.byte	0x74
 13469 3ad9 00       		.sleb128 0
 13470 3ada 00       		.byte	0
 13471 3adb 48       		.uleb128 0x48
 13472 3adc 5C100000 		.4byte	.LVL455
 13473 3ae0 AA480000 		.4byte	0x48aa
 13474 3ae4 2F       		.uleb128 0x2f
 13475 3ae5 6C100000 		.4byte	.LVL457
 13476 3ae9 35480000 		.4byte	0x4835
 13477 3aed FF3A0000 		.4byte	0x3aff
 13478 3af1 2E       		.uleb128 0x2e
 13479 3af2 01       		.uleb128 0x1
 13480 3af3 52       		.byte	0x52
ARM GAS  /tmp/ccTQOGyd.s 			page 238


 13481 3af4 03       		.uleb128 0x3
 13482 3af5 0A       		.byte	0xa
 13483 3af6 7401     		.2byte	0x174
 13484 3af8 2E       		.uleb128 0x2e
 13485 3af9 01       		.uleb128 0x1
 13486 3afa 50       		.byte	0x50
 13487 3afb 02       		.uleb128 0x2
 13488 3afc 75       		.byte	0x75
 13489 3afd 00       		.sleb128 0
 13490 3afe 00       		.byte	0
 13491 3aff 2F       		.uleb128 0x2f
 13492 3b00 8E100000 		.4byte	.LVL458
 13493 3b04 954C0000 		.4byte	0x4c95
 13494 3b08 193B0000 		.4byte	0x3b19
 13495 3b0c 2E       		.uleb128 0x2e
 13496 3b0d 01       		.uleb128 0x1
 13497 3b0e 51       		.byte	0x51
 13498 3b0f 02       		.uleb128 0x2
 13499 3b10 76       		.byte	0x76
 13500 3b11 00       		.sleb128 0
 13501 3b12 2E       		.uleb128 0x2e
 13502 3b13 01       		.uleb128 0x1
 13503 3b14 50       		.byte	0x50
 13504 3b15 02       		.uleb128 0x2
 13505 3b16 74       		.byte	0x74
 13506 3b17 00       		.sleb128 0
 13507 3b18 00       		.byte	0
 13508 3b19 2F       		.uleb128 0x2f
 13509 3b1a 9A100000 		.4byte	.LVL459
 13510 3b1e 954C0000 		.4byte	0x4c95
 13511 3b22 333B0000 		.4byte	0x3b33
 13512 3b26 2E       		.uleb128 0x2e
 13513 3b27 01       		.uleb128 0x1
 13514 3b28 51       		.byte	0x51
 13515 3b29 02       		.uleb128 0x2
 13516 3b2a 76       		.byte	0x76
 13517 3b2b 00       		.sleb128 0
 13518 3b2c 2E       		.uleb128 0x2e
 13519 3b2d 01       		.uleb128 0x1
 13520 3b2e 50       		.byte	0x50
 13521 3b2f 02       		.uleb128 0x2
 13522 3b30 74       		.byte	0x74
 13523 3b31 00       		.sleb128 0
 13524 3b32 00       		.byte	0
 13525 3b33 2F       		.uleb128 0x2f
 13526 3b34 A6100000 		.4byte	.LVL460
 13527 3b38 954C0000 		.4byte	0x4c95
 13528 3b3c 4D3B0000 		.4byte	0x3b4d
 13529 3b40 2E       		.uleb128 0x2e
 13530 3b41 01       		.uleb128 0x1
 13531 3b42 51       		.byte	0x51
 13532 3b43 02       		.uleb128 0x2
 13533 3b44 76       		.byte	0x76
 13534 3b45 00       		.sleb128 0
 13535 3b46 2E       		.uleb128 0x2e
 13536 3b47 01       		.uleb128 0x1
 13537 3b48 50       		.byte	0x50
ARM GAS  /tmp/ccTQOGyd.s 			page 239


 13538 3b49 02       		.uleb128 0x2
 13539 3b4a 74       		.byte	0x74
 13540 3b4b 00       		.sleb128 0
 13541 3b4c 00       		.byte	0
 13542 3b4d 2F       		.uleb128 0x2f
 13543 3b4e B2100000 		.4byte	.LVL461
 13544 3b52 954C0000 		.4byte	0x4c95
 13545 3b56 673B0000 		.4byte	0x3b67
 13546 3b5a 2E       		.uleb128 0x2e
 13547 3b5b 01       		.uleb128 0x1
 13548 3b5c 51       		.byte	0x51
 13549 3b5d 02       		.uleb128 0x2
 13550 3b5e 76       		.byte	0x76
 13551 3b5f 00       		.sleb128 0
 13552 3b60 2E       		.uleb128 0x2e
 13553 3b61 01       		.uleb128 0x1
 13554 3b62 50       		.byte	0x50
 13555 3b63 02       		.uleb128 0x2
 13556 3b64 74       		.byte	0x74
 13557 3b65 00       		.sleb128 0
 13558 3b66 00       		.byte	0
 13559 3b67 2F       		.uleb128 0x2f
 13560 3b68 BE100000 		.4byte	.LVL462
 13561 3b6c 954C0000 		.4byte	0x4c95
 13562 3b70 813B0000 		.4byte	0x3b81
 13563 3b74 2E       		.uleb128 0x2e
 13564 3b75 01       		.uleb128 0x1
 13565 3b76 51       		.byte	0x51
 13566 3b77 02       		.uleb128 0x2
 13567 3b78 76       		.byte	0x76
 13568 3b79 00       		.sleb128 0
 13569 3b7a 2E       		.uleb128 0x2e
 13570 3b7b 01       		.uleb128 0x1
 13571 3b7c 50       		.byte	0x50
 13572 3b7d 02       		.uleb128 0x2
 13573 3b7e 74       		.byte	0x74
 13574 3b7f 00       		.sleb128 0
 13575 3b80 00       		.byte	0
 13576 3b81 2F       		.uleb128 0x2f
 13577 3b82 CA100000 		.4byte	.LVL463
 13578 3b86 954C0000 		.4byte	0x4c95
 13579 3b8a 9B3B0000 		.4byte	0x3b9b
 13580 3b8e 2E       		.uleb128 0x2e
 13581 3b8f 01       		.uleb128 0x1
 13582 3b90 51       		.byte	0x51
 13583 3b91 02       		.uleb128 0x2
 13584 3b92 76       		.byte	0x76
 13585 3b93 00       		.sleb128 0
 13586 3b94 2E       		.uleb128 0x2e
 13587 3b95 01       		.uleb128 0x1
 13588 3b96 50       		.byte	0x50
 13589 3b97 02       		.uleb128 0x2
 13590 3b98 74       		.byte	0x74
 13591 3b99 00       		.sleb128 0
 13592 3b9a 00       		.byte	0
 13593 3b9b 2F       		.uleb128 0x2f
 13594 3b9c D6100000 		.4byte	.LVL464
ARM GAS  /tmp/ccTQOGyd.s 			page 240


 13595 3ba0 954C0000 		.4byte	0x4c95
 13596 3ba4 B53B0000 		.4byte	0x3bb5
 13597 3ba8 2E       		.uleb128 0x2e
 13598 3ba9 01       		.uleb128 0x1
 13599 3baa 51       		.byte	0x51
 13600 3bab 02       		.uleb128 0x2
 13601 3bac 76       		.byte	0x76
 13602 3bad 00       		.sleb128 0
 13603 3bae 2E       		.uleb128 0x2e
 13604 3baf 01       		.uleb128 0x1
 13605 3bb0 50       		.byte	0x50
 13606 3bb1 02       		.uleb128 0x2
 13607 3bb2 74       		.byte	0x74
 13608 3bb3 00       		.sleb128 0
 13609 3bb4 00       		.byte	0
 13610 3bb5 2F       		.uleb128 0x2f
 13611 3bb6 E2100000 		.4byte	.LVL465
 13612 3bba 954C0000 		.4byte	0x4c95
 13613 3bbe CF3B0000 		.4byte	0x3bcf
 13614 3bc2 2E       		.uleb128 0x2e
 13615 3bc3 01       		.uleb128 0x1
 13616 3bc4 51       		.byte	0x51
 13617 3bc5 02       		.uleb128 0x2
 13618 3bc6 76       		.byte	0x76
 13619 3bc7 00       		.sleb128 0
 13620 3bc8 2E       		.uleb128 0x2e
 13621 3bc9 01       		.uleb128 0x1
 13622 3bca 50       		.byte	0x50
 13623 3bcb 02       		.uleb128 0x2
 13624 3bcc 74       		.byte	0x74
 13625 3bcd 00       		.sleb128 0
 13626 3bce 00       		.byte	0
 13627 3bcf 2F       		.uleb128 0x2f
 13628 3bd0 EE100000 		.4byte	.LVL466
 13629 3bd4 954C0000 		.4byte	0x4c95
 13630 3bd8 E93B0000 		.4byte	0x3be9
 13631 3bdc 2E       		.uleb128 0x2e
 13632 3bdd 01       		.uleb128 0x1
 13633 3bde 51       		.byte	0x51
 13634 3bdf 02       		.uleb128 0x2
 13635 3be0 76       		.byte	0x76
 13636 3be1 00       		.sleb128 0
 13637 3be2 2E       		.uleb128 0x2e
 13638 3be3 01       		.uleb128 0x1
 13639 3be4 50       		.byte	0x50
 13640 3be5 02       		.uleb128 0x2
 13641 3be6 74       		.byte	0x74
 13642 3be7 00       		.sleb128 0
 13643 3be8 00       		.byte	0
 13644 3be9 2F       		.uleb128 0x2f
 13645 3bea FA100000 		.4byte	.LVL467
 13646 3bee 954C0000 		.4byte	0x4c95
 13647 3bf2 033C0000 		.4byte	0x3c03
 13648 3bf6 2E       		.uleb128 0x2e
 13649 3bf7 01       		.uleb128 0x1
 13650 3bf8 51       		.byte	0x51
 13651 3bf9 02       		.uleb128 0x2
ARM GAS  /tmp/ccTQOGyd.s 			page 241


 13652 3bfa 76       		.byte	0x76
 13653 3bfb 00       		.sleb128 0
 13654 3bfc 2E       		.uleb128 0x2e
 13655 3bfd 01       		.uleb128 0x1
 13656 3bfe 50       		.byte	0x50
 13657 3bff 02       		.uleb128 0x2
 13658 3c00 74       		.byte	0x74
 13659 3c01 00       		.sleb128 0
 13660 3c02 00       		.byte	0
 13661 3c03 2F       		.uleb128 0x2f
 13662 3c04 06110000 		.4byte	.LVL468
 13663 3c08 954C0000 		.4byte	0x4c95
 13664 3c0c 1D3C0000 		.4byte	0x3c1d
 13665 3c10 2E       		.uleb128 0x2e
 13666 3c11 01       		.uleb128 0x1
 13667 3c12 51       		.byte	0x51
 13668 3c13 02       		.uleb128 0x2
 13669 3c14 76       		.byte	0x76
 13670 3c15 00       		.sleb128 0
 13671 3c16 2E       		.uleb128 0x2e
 13672 3c17 01       		.uleb128 0x1
 13673 3c18 50       		.byte	0x50
 13674 3c19 02       		.uleb128 0x2
 13675 3c1a 74       		.byte	0x74
 13676 3c1b 00       		.sleb128 0
 13677 3c1c 00       		.byte	0
 13678 3c1d 2F       		.uleb128 0x2f
 13679 3c1e 12110000 		.4byte	.LVL469
 13680 3c22 954C0000 		.4byte	0x4c95
 13681 3c26 373C0000 		.4byte	0x3c37
 13682 3c2a 2E       		.uleb128 0x2e
 13683 3c2b 01       		.uleb128 0x1
 13684 3c2c 51       		.byte	0x51
 13685 3c2d 02       		.uleb128 0x2
 13686 3c2e 76       		.byte	0x76
 13687 3c2f 00       		.sleb128 0
 13688 3c30 2E       		.uleb128 0x2e
 13689 3c31 01       		.uleb128 0x1
 13690 3c32 50       		.byte	0x50
 13691 3c33 02       		.uleb128 0x2
 13692 3c34 74       		.byte	0x74
 13693 3c35 00       		.sleb128 0
 13694 3c36 00       		.byte	0
 13695 3c37 2F       		.uleb128 0x2f
 13696 3c38 1E110000 		.4byte	.LVL470
 13697 3c3c 954C0000 		.4byte	0x4c95
 13698 3c40 513C0000 		.4byte	0x3c51
 13699 3c44 2E       		.uleb128 0x2e
 13700 3c45 01       		.uleb128 0x1
 13701 3c46 51       		.byte	0x51
 13702 3c47 02       		.uleb128 0x2
 13703 3c48 76       		.byte	0x76
 13704 3c49 00       		.sleb128 0
 13705 3c4a 2E       		.uleb128 0x2e
 13706 3c4b 01       		.uleb128 0x1
 13707 3c4c 50       		.byte	0x50
 13708 3c4d 02       		.uleb128 0x2
ARM GAS  /tmp/ccTQOGyd.s 			page 242


 13709 3c4e 74       		.byte	0x74
 13710 3c4f 00       		.sleb128 0
 13711 3c50 00       		.byte	0
 13712 3c51 2F       		.uleb128 0x2f
 13713 3c52 2A110000 		.4byte	.LVL471
 13714 3c56 954C0000 		.4byte	0x4c95
 13715 3c5a 6B3C0000 		.4byte	0x3c6b
 13716 3c5e 2E       		.uleb128 0x2e
 13717 3c5f 01       		.uleb128 0x1
 13718 3c60 51       		.byte	0x51
 13719 3c61 02       		.uleb128 0x2
 13720 3c62 76       		.byte	0x76
 13721 3c63 00       		.sleb128 0
 13722 3c64 2E       		.uleb128 0x2e
 13723 3c65 01       		.uleb128 0x1
 13724 3c66 50       		.byte	0x50
 13725 3c67 02       		.uleb128 0x2
 13726 3c68 74       		.byte	0x74
 13727 3c69 00       		.sleb128 0
 13728 3c6a 00       		.byte	0
 13729 3c6b 2F       		.uleb128 0x2f
 13730 3c6c 48110000 		.4byte	.LVL472
 13731 3c70 954C0000 		.4byte	0x4c95
 13732 3c74 853C0000 		.4byte	0x3c85
 13733 3c78 2E       		.uleb128 0x2e
 13734 3c79 01       		.uleb128 0x1
 13735 3c7a 51       		.byte	0x51
 13736 3c7b 02       		.uleb128 0x2
 13737 3c7c 76       		.byte	0x76
 13738 3c7d 00       		.sleb128 0
 13739 3c7e 2E       		.uleb128 0x2e
 13740 3c7f 01       		.uleb128 0x1
 13741 3c80 50       		.byte	0x50
 13742 3c81 02       		.uleb128 0x2
 13743 3c82 74       		.byte	0x74
 13744 3c83 00       		.sleb128 0
 13745 3c84 00       		.byte	0
 13746 3c85 2F       		.uleb128 0x2f
 13747 3c86 54110000 		.4byte	.LVL473
 13748 3c8a 954C0000 		.4byte	0x4c95
 13749 3c8e 9F3C0000 		.4byte	0x3c9f
 13750 3c92 2E       		.uleb128 0x2e
 13751 3c93 01       		.uleb128 0x1
 13752 3c94 51       		.byte	0x51
 13753 3c95 02       		.uleb128 0x2
 13754 3c96 76       		.byte	0x76
 13755 3c97 00       		.sleb128 0
 13756 3c98 2E       		.uleb128 0x2e
 13757 3c99 01       		.uleb128 0x1
 13758 3c9a 50       		.byte	0x50
 13759 3c9b 02       		.uleb128 0x2
 13760 3c9c 74       		.byte	0x74
 13761 3c9d 00       		.sleb128 0
 13762 3c9e 00       		.byte	0
 13763 3c9f 2F       		.uleb128 0x2f
 13764 3ca0 60110000 		.4byte	.LVL474
 13765 3ca4 954C0000 		.4byte	0x4c95
ARM GAS  /tmp/ccTQOGyd.s 			page 243


 13766 3ca8 B93C0000 		.4byte	0x3cb9
 13767 3cac 2E       		.uleb128 0x2e
 13768 3cad 01       		.uleb128 0x1
 13769 3cae 51       		.byte	0x51
 13770 3caf 02       		.uleb128 0x2
 13771 3cb0 76       		.byte	0x76
 13772 3cb1 00       		.sleb128 0
 13773 3cb2 2E       		.uleb128 0x2e
 13774 3cb3 01       		.uleb128 0x1
 13775 3cb4 50       		.byte	0x50
 13776 3cb5 02       		.uleb128 0x2
 13777 3cb6 74       		.byte	0x74
 13778 3cb7 00       		.sleb128 0
 13779 3cb8 00       		.byte	0
 13780 3cb9 2F       		.uleb128 0x2f
 13781 3cba 6C110000 		.4byte	.LVL475
 13782 3cbe 954C0000 		.4byte	0x4c95
 13783 3cc2 D33C0000 		.4byte	0x3cd3
 13784 3cc6 2E       		.uleb128 0x2e
 13785 3cc7 01       		.uleb128 0x1
 13786 3cc8 51       		.byte	0x51
 13787 3cc9 02       		.uleb128 0x2
 13788 3cca 76       		.byte	0x76
 13789 3ccb 00       		.sleb128 0
 13790 3ccc 2E       		.uleb128 0x2e
 13791 3ccd 01       		.uleb128 0x1
 13792 3cce 50       		.byte	0x50
 13793 3ccf 02       		.uleb128 0x2
 13794 3cd0 74       		.byte	0x74
 13795 3cd1 00       		.sleb128 0
 13796 3cd2 00       		.byte	0
 13797 3cd3 2F       		.uleb128 0x2f
 13798 3cd4 78110000 		.4byte	.LVL476
 13799 3cd8 954C0000 		.4byte	0x4c95
 13800 3cdc ED3C0000 		.4byte	0x3ced
 13801 3ce0 2E       		.uleb128 0x2e
 13802 3ce1 01       		.uleb128 0x1
 13803 3ce2 51       		.byte	0x51
 13804 3ce3 02       		.uleb128 0x2
 13805 3ce4 76       		.byte	0x76
 13806 3ce5 00       		.sleb128 0
 13807 3ce6 2E       		.uleb128 0x2e
 13808 3ce7 01       		.uleb128 0x1
 13809 3ce8 50       		.byte	0x50
 13810 3ce9 02       		.uleb128 0x2
 13811 3cea 74       		.byte	0x74
 13812 3ceb 00       		.sleb128 0
 13813 3cec 00       		.byte	0
 13814 3ced 2F       		.uleb128 0x2f
 13815 3cee 84110000 		.4byte	.LVL477
 13816 3cf2 954C0000 		.4byte	0x4c95
 13817 3cf6 073D0000 		.4byte	0x3d07
 13818 3cfa 2E       		.uleb128 0x2e
 13819 3cfb 01       		.uleb128 0x1
 13820 3cfc 51       		.byte	0x51
 13821 3cfd 02       		.uleb128 0x2
 13822 3cfe 76       		.byte	0x76
ARM GAS  /tmp/ccTQOGyd.s 			page 244


 13823 3cff 00       		.sleb128 0
 13824 3d00 2E       		.uleb128 0x2e
 13825 3d01 01       		.uleb128 0x1
 13826 3d02 50       		.byte	0x50
 13827 3d03 02       		.uleb128 0x2
 13828 3d04 74       		.byte	0x74
 13829 3d05 00       		.sleb128 0
 13830 3d06 00       		.byte	0
 13831 3d07 2F       		.uleb128 0x2f
 13832 3d08 90110000 		.4byte	.LVL478
 13833 3d0c 954C0000 		.4byte	0x4c95
 13834 3d10 213D0000 		.4byte	0x3d21
 13835 3d14 2E       		.uleb128 0x2e
 13836 3d15 01       		.uleb128 0x1
 13837 3d16 51       		.byte	0x51
 13838 3d17 02       		.uleb128 0x2
 13839 3d18 76       		.byte	0x76
 13840 3d19 00       		.sleb128 0
 13841 3d1a 2E       		.uleb128 0x2e
 13842 3d1b 01       		.uleb128 0x1
 13843 3d1c 50       		.byte	0x50
 13844 3d1d 02       		.uleb128 0x2
 13845 3d1e 74       		.byte	0x74
 13846 3d1f 00       		.sleb128 0
 13847 3d20 00       		.byte	0
 13848 3d21 2F       		.uleb128 0x2f
 13849 3d22 9C110000 		.4byte	.LVL479
 13850 3d26 954C0000 		.4byte	0x4c95
 13851 3d2a 3B3D0000 		.4byte	0x3d3b
 13852 3d2e 2E       		.uleb128 0x2e
 13853 3d2f 01       		.uleb128 0x1
 13854 3d30 51       		.byte	0x51
 13855 3d31 02       		.uleb128 0x2
 13856 3d32 76       		.byte	0x76
 13857 3d33 00       		.sleb128 0
 13858 3d34 2E       		.uleb128 0x2e
 13859 3d35 01       		.uleb128 0x1
 13860 3d36 50       		.byte	0x50
 13861 3d37 02       		.uleb128 0x2
 13862 3d38 74       		.byte	0x74
 13863 3d39 00       		.sleb128 0
 13864 3d3a 00       		.byte	0
 13865 3d3b 2F       		.uleb128 0x2f
 13866 3d3c A8110000 		.4byte	.LVL480
 13867 3d40 954C0000 		.4byte	0x4c95
 13868 3d44 553D0000 		.4byte	0x3d55
 13869 3d48 2E       		.uleb128 0x2e
 13870 3d49 01       		.uleb128 0x1
 13871 3d4a 51       		.byte	0x51
 13872 3d4b 02       		.uleb128 0x2
 13873 3d4c 76       		.byte	0x76
 13874 3d4d 00       		.sleb128 0
 13875 3d4e 2E       		.uleb128 0x2e
 13876 3d4f 01       		.uleb128 0x1
 13877 3d50 50       		.byte	0x50
 13878 3d51 02       		.uleb128 0x2
 13879 3d52 74       		.byte	0x74
ARM GAS  /tmp/ccTQOGyd.s 			page 245


 13880 3d53 00       		.sleb128 0
 13881 3d54 00       		.byte	0
 13882 3d55 2F       		.uleb128 0x2f
 13883 3d56 CC110000 		.4byte	.LVL481
 13884 3d5a 954C0000 		.4byte	0x4c95
 13885 3d5e 6F3D0000 		.4byte	0x3d6f
 13886 3d62 2E       		.uleb128 0x2e
 13887 3d63 01       		.uleb128 0x1
 13888 3d64 51       		.byte	0x51
 13889 3d65 02       		.uleb128 0x2
 13890 3d66 76       		.byte	0x76
 13891 3d67 00       		.sleb128 0
 13892 3d68 2E       		.uleb128 0x2e
 13893 3d69 01       		.uleb128 0x1
 13894 3d6a 50       		.byte	0x50
 13895 3d6b 02       		.uleb128 0x2
 13896 3d6c 74       		.byte	0x74
 13897 3d6d 00       		.sleb128 0
 13898 3d6e 00       		.byte	0
 13899 3d6f 2F       		.uleb128 0x2f
 13900 3d70 D8110000 		.4byte	.LVL482
 13901 3d74 954C0000 		.4byte	0x4c95
 13902 3d78 893D0000 		.4byte	0x3d89
 13903 3d7c 2E       		.uleb128 0x2e
 13904 3d7d 01       		.uleb128 0x1
 13905 3d7e 51       		.byte	0x51
 13906 3d7f 02       		.uleb128 0x2
 13907 3d80 76       		.byte	0x76
 13908 3d81 00       		.sleb128 0
 13909 3d82 2E       		.uleb128 0x2e
 13910 3d83 01       		.uleb128 0x1
 13911 3d84 50       		.byte	0x50
 13912 3d85 02       		.uleb128 0x2
 13913 3d86 74       		.byte	0x74
 13914 3d87 00       		.sleb128 0
 13915 3d88 00       		.byte	0
 13916 3d89 2F       		.uleb128 0x2f
 13917 3d8a E4110000 		.4byte	.LVL483
 13918 3d8e 954C0000 		.4byte	0x4c95
 13919 3d92 A33D0000 		.4byte	0x3da3
 13920 3d96 2E       		.uleb128 0x2e
 13921 3d97 01       		.uleb128 0x1
 13922 3d98 51       		.byte	0x51
 13923 3d99 02       		.uleb128 0x2
 13924 3d9a 76       		.byte	0x76
 13925 3d9b 00       		.sleb128 0
 13926 3d9c 2E       		.uleb128 0x2e
 13927 3d9d 01       		.uleb128 0x1
 13928 3d9e 50       		.byte	0x50
 13929 3d9f 02       		.uleb128 0x2
 13930 3da0 74       		.byte	0x74
 13931 3da1 00       		.sleb128 0
 13932 3da2 00       		.byte	0
 13933 3da3 2F       		.uleb128 0x2f
 13934 3da4 F0110000 		.4byte	.LVL484
 13935 3da8 954C0000 		.4byte	0x4c95
 13936 3dac BD3D0000 		.4byte	0x3dbd
ARM GAS  /tmp/ccTQOGyd.s 			page 246


 13937 3db0 2E       		.uleb128 0x2e
 13938 3db1 01       		.uleb128 0x1
 13939 3db2 51       		.byte	0x51
 13940 3db3 02       		.uleb128 0x2
 13941 3db4 76       		.byte	0x76
 13942 3db5 00       		.sleb128 0
 13943 3db6 2E       		.uleb128 0x2e
 13944 3db7 01       		.uleb128 0x1
 13945 3db8 50       		.byte	0x50
 13946 3db9 02       		.uleb128 0x2
 13947 3dba 74       		.byte	0x74
 13948 3dbb 00       		.sleb128 0
 13949 3dbc 00       		.byte	0
 13950 3dbd 2F       		.uleb128 0x2f
 13951 3dbe FC110000 		.4byte	.LVL485
 13952 3dc2 954C0000 		.4byte	0x4c95
 13953 3dc6 D73D0000 		.4byte	0x3dd7
 13954 3dca 2E       		.uleb128 0x2e
 13955 3dcb 01       		.uleb128 0x1
 13956 3dcc 51       		.byte	0x51
 13957 3dcd 02       		.uleb128 0x2
 13958 3dce 76       		.byte	0x76
 13959 3dcf 00       		.sleb128 0
 13960 3dd0 2E       		.uleb128 0x2e
 13961 3dd1 01       		.uleb128 0x1
 13962 3dd2 50       		.byte	0x50
 13963 3dd3 02       		.uleb128 0x2
 13964 3dd4 74       		.byte	0x74
 13965 3dd5 00       		.sleb128 0
 13966 3dd6 00       		.byte	0
 13967 3dd7 2F       		.uleb128 0x2f
 13968 3dd8 08120000 		.4byte	.LVL486
 13969 3ddc 954C0000 		.4byte	0x4c95
 13970 3de0 F13D0000 		.4byte	0x3df1
 13971 3de4 2E       		.uleb128 0x2e
 13972 3de5 01       		.uleb128 0x1
 13973 3de6 51       		.byte	0x51
 13974 3de7 02       		.uleb128 0x2
 13975 3de8 76       		.byte	0x76
 13976 3de9 00       		.sleb128 0
 13977 3dea 2E       		.uleb128 0x2e
 13978 3deb 01       		.uleb128 0x1
 13979 3dec 50       		.byte	0x50
 13980 3ded 02       		.uleb128 0x2
 13981 3dee 74       		.byte	0x74
 13982 3def 00       		.sleb128 0
 13983 3df0 00       		.byte	0
 13984 3df1 2F       		.uleb128 0x2f
 13985 3df2 14120000 		.4byte	.LVL487
 13986 3df6 954C0000 		.4byte	0x4c95
 13987 3dfa 0B3E0000 		.4byte	0x3e0b
 13988 3dfe 2E       		.uleb128 0x2e
 13989 3dff 01       		.uleb128 0x1
 13990 3e00 51       		.byte	0x51
 13991 3e01 02       		.uleb128 0x2
 13992 3e02 76       		.byte	0x76
 13993 3e03 00       		.sleb128 0
ARM GAS  /tmp/ccTQOGyd.s 			page 247


 13994 3e04 2E       		.uleb128 0x2e
 13995 3e05 01       		.uleb128 0x1
 13996 3e06 50       		.byte	0x50
 13997 3e07 02       		.uleb128 0x2
 13998 3e08 74       		.byte	0x74
 13999 3e09 00       		.sleb128 0
 14000 3e0a 00       		.byte	0
 14001 3e0b 2F       		.uleb128 0x2f
 14002 3e0c 32120000 		.4byte	.LVL488
 14003 3e10 954C0000 		.4byte	0x4c95
 14004 3e14 253E0000 		.4byte	0x3e25
 14005 3e18 2E       		.uleb128 0x2e
 14006 3e19 01       		.uleb128 0x1
 14007 3e1a 51       		.byte	0x51
 14008 3e1b 02       		.uleb128 0x2
 14009 3e1c 76       		.byte	0x76
 14010 3e1d 00       		.sleb128 0
 14011 3e1e 2E       		.uleb128 0x2e
 14012 3e1f 01       		.uleb128 0x1
 14013 3e20 50       		.byte	0x50
 14014 3e21 02       		.uleb128 0x2
 14015 3e22 74       		.byte	0x74
 14016 3e23 00       		.sleb128 0
 14017 3e24 00       		.byte	0
 14018 3e25 2F       		.uleb128 0x2f
 14019 3e26 3E120000 		.4byte	.LVL489
 14020 3e2a 954C0000 		.4byte	0x4c95
 14021 3e2e 3F3E0000 		.4byte	0x3e3f
 14022 3e32 2E       		.uleb128 0x2e
 14023 3e33 01       		.uleb128 0x1
 14024 3e34 51       		.byte	0x51
 14025 3e35 02       		.uleb128 0x2
 14026 3e36 76       		.byte	0x76
 14027 3e37 00       		.sleb128 0
 14028 3e38 2E       		.uleb128 0x2e
 14029 3e39 01       		.uleb128 0x1
 14030 3e3a 50       		.byte	0x50
 14031 3e3b 02       		.uleb128 0x2
 14032 3e3c 74       		.byte	0x74
 14033 3e3d 00       		.sleb128 0
 14034 3e3e 00       		.byte	0
 14035 3e3f 2F       		.uleb128 0x2f
 14036 3e40 4A120000 		.4byte	.LVL490
 14037 3e44 954C0000 		.4byte	0x4c95
 14038 3e48 593E0000 		.4byte	0x3e59
 14039 3e4c 2E       		.uleb128 0x2e
 14040 3e4d 01       		.uleb128 0x1
 14041 3e4e 51       		.byte	0x51
 14042 3e4f 02       		.uleb128 0x2
 14043 3e50 76       		.byte	0x76
 14044 3e51 00       		.sleb128 0
 14045 3e52 2E       		.uleb128 0x2e
 14046 3e53 01       		.uleb128 0x1
 14047 3e54 50       		.byte	0x50
 14048 3e55 02       		.uleb128 0x2
 14049 3e56 74       		.byte	0x74
 14050 3e57 00       		.sleb128 0
ARM GAS  /tmp/ccTQOGyd.s 			page 248


 14051 3e58 00       		.byte	0
 14052 3e59 2F       		.uleb128 0x2f
 14053 3e5a 56120000 		.4byte	.LVL491
 14054 3e5e 954C0000 		.4byte	0x4c95
 14055 3e62 733E0000 		.4byte	0x3e73
 14056 3e66 2E       		.uleb128 0x2e
 14057 3e67 01       		.uleb128 0x1
 14058 3e68 51       		.byte	0x51
 14059 3e69 02       		.uleb128 0x2
 14060 3e6a 76       		.byte	0x76
 14061 3e6b 00       		.sleb128 0
 14062 3e6c 2E       		.uleb128 0x2e
 14063 3e6d 01       		.uleb128 0x1
 14064 3e6e 50       		.byte	0x50
 14065 3e6f 02       		.uleb128 0x2
 14066 3e70 74       		.byte	0x74
 14067 3e71 00       		.sleb128 0
 14068 3e72 00       		.byte	0
 14069 3e73 2F       		.uleb128 0x2f
 14070 3e74 62120000 		.4byte	.LVL492
 14071 3e78 954C0000 		.4byte	0x4c95
 14072 3e7c 8D3E0000 		.4byte	0x3e8d
 14073 3e80 2E       		.uleb128 0x2e
 14074 3e81 01       		.uleb128 0x1
 14075 3e82 51       		.byte	0x51
 14076 3e83 02       		.uleb128 0x2
 14077 3e84 76       		.byte	0x76
 14078 3e85 00       		.sleb128 0
 14079 3e86 2E       		.uleb128 0x2e
 14080 3e87 01       		.uleb128 0x1
 14081 3e88 50       		.byte	0x50
 14082 3e89 02       		.uleb128 0x2
 14083 3e8a 74       		.byte	0x74
 14084 3e8b 00       		.sleb128 0
 14085 3e8c 00       		.byte	0
 14086 3e8d 2F       		.uleb128 0x2f
 14087 3e8e 80120000 		.4byte	.LVL493
 14088 3e92 954C0000 		.4byte	0x4c95
 14089 3e96 A73E0000 		.4byte	0x3ea7
 14090 3e9a 2E       		.uleb128 0x2e
 14091 3e9b 01       		.uleb128 0x1
 14092 3e9c 51       		.byte	0x51
 14093 3e9d 02       		.uleb128 0x2
 14094 3e9e 76       		.byte	0x76
 14095 3e9f 00       		.sleb128 0
 14096 3ea0 2E       		.uleb128 0x2e
 14097 3ea1 01       		.uleb128 0x1
 14098 3ea2 50       		.byte	0x50
 14099 3ea3 02       		.uleb128 0x2
 14100 3ea4 74       		.byte	0x74
 14101 3ea5 00       		.sleb128 0
 14102 3ea6 00       		.byte	0
 14103 3ea7 2F       		.uleb128 0x2f
 14104 3ea8 8C120000 		.4byte	.LVL494
 14105 3eac 954C0000 		.4byte	0x4c95
 14106 3eb0 C13E0000 		.4byte	0x3ec1
 14107 3eb4 2E       		.uleb128 0x2e
ARM GAS  /tmp/ccTQOGyd.s 			page 249


 14108 3eb5 01       		.uleb128 0x1
 14109 3eb6 51       		.byte	0x51
 14110 3eb7 02       		.uleb128 0x2
 14111 3eb8 76       		.byte	0x76
 14112 3eb9 00       		.sleb128 0
 14113 3eba 2E       		.uleb128 0x2e
 14114 3ebb 01       		.uleb128 0x1
 14115 3ebc 50       		.byte	0x50
 14116 3ebd 02       		.uleb128 0x2
 14117 3ebe 74       		.byte	0x74
 14118 3ebf 00       		.sleb128 0
 14119 3ec0 00       		.byte	0
 14120 3ec1 2F       		.uleb128 0x2f
 14121 3ec2 A4120000 		.4byte	.LVL495
 14122 3ec6 954C0000 		.4byte	0x4c95
 14123 3eca DB3E0000 		.4byte	0x3edb
 14124 3ece 2E       		.uleb128 0x2e
 14125 3ecf 01       		.uleb128 0x1
 14126 3ed0 51       		.byte	0x51
 14127 3ed1 02       		.uleb128 0x2
 14128 3ed2 76       		.byte	0x76
 14129 3ed3 00       		.sleb128 0
 14130 3ed4 2E       		.uleb128 0x2e
 14131 3ed5 01       		.uleb128 0x1
 14132 3ed6 50       		.byte	0x50
 14133 3ed7 02       		.uleb128 0x2
 14134 3ed8 74       		.byte	0x74
 14135 3ed9 00       		.sleb128 0
 14136 3eda 00       		.byte	0
 14137 3edb 2F       		.uleb128 0x2f
 14138 3edc B0120000 		.4byte	.LVL496
 14139 3ee0 954C0000 		.4byte	0x4c95
 14140 3ee4 F53E0000 		.4byte	0x3ef5
 14141 3ee8 2E       		.uleb128 0x2e
 14142 3ee9 01       		.uleb128 0x1
 14143 3eea 51       		.byte	0x51
 14144 3eeb 02       		.uleb128 0x2
 14145 3eec 76       		.byte	0x76
 14146 3eed 00       		.sleb128 0
 14147 3eee 2E       		.uleb128 0x2e
 14148 3eef 01       		.uleb128 0x1
 14149 3ef0 50       		.byte	0x50
 14150 3ef1 02       		.uleb128 0x2
 14151 3ef2 74       		.byte	0x74
 14152 3ef3 00       		.sleb128 0
 14153 3ef4 00       		.byte	0
 14154 3ef5 2F       		.uleb128 0x2f
 14155 3ef6 BC120000 		.4byte	.LVL497
 14156 3efa 954C0000 		.4byte	0x4c95
 14157 3efe 0F3F0000 		.4byte	0x3f0f
 14158 3f02 2E       		.uleb128 0x2e
 14159 3f03 01       		.uleb128 0x1
 14160 3f04 51       		.byte	0x51
 14161 3f05 02       		.uleb128 0x2
 14162 3f06 76       		.byte	0x76
 14163 3f07 00       		.sleb128 0
 14164 3f08 2E       		.uleb128 0x2e
ARM GAS  /tmp/ccTQOGyd.s 			page 250


 14165 3f09 01       		.uleb128 0x1
 14166 3f0a 50       		.byte	0x50
 14167 3f0b 02       		.uleb128 0x2
 14168 3f0c 74       		.byte	0x74
 14169 3f0d 00       		.sleb128 0
 14170 3f0e 00       		.byte	0
 14171 3f0f 2F       		.uleb128 0x2f
 14172 3f10 C8120000 		.4byte	.LVL498
 14173 3f14 954C0000 		.4byte	0x4c95
 14174 3f18 293F0000 		.4byte	0x3f29
 14175 3f1c 2E       		.uleb128 0x2e
 14176 3f1d 01       		.uleb128 0x1
 14177 3f1e 51       		.byte	0x51
 14178 3f1f 02       		.uleb128 0x2
 14179 3f20 76       		.byte	0x76
 14180 3f21 00       		.sleb128 0
 14181 3f22 2E       		.uleb128 0x2e
 14182 3f23 01       		.uleb128 0x1
 14183 3f24 50       		.byte	0x50
 14184 3f25 02       		.uleb128 0x2
 14185 3f26 74       		.byte	0x74
 14186 3f27 00       		.sleb128 0
 14187 3f28 00       		.byte	0
 14188 3f29 2F       		.uleb128 0x2f
 14189 3f2a D4120000 		.4byte	.LVL499
 14190 3f2e 954C0000 		.4byte	0x4c95
 14191 3f32 433F0000 		.4byte	0x3f43
 14192 3f36 2E       		.uleb128 0x2e
 14193 3f37 01       		.uleb128 0x1
 14194 3f38 51       		.byte	0x51
 14195 3f39 02       		.uleb128 0x2
 14196 3f3a 76       		.byte	0x76
 14197 3f3b 00       		.sleb128 0
 14198 3f3c 2E       		.uleb128 0x2e
 14199 3f3d 01       		.uleb128 0x1
 14200 3f3e 50       		.byte	0x50
 14201 3f3f 02       		.uleb128 0x2
 14202 3f40 74       		.byte	0x74
 14203 3f41 00       		.sleb128 0
 14204 3f42 00       		.byte	0
 14205 3f43 2F       		.uleb128 0x2f
 14206 3f44 E0120000 		.4byte	.LVL500
 14207 3f48 954C0000 		.4byte	0x4c95
 14208 3f4c 5D3F0000 		.4byte	0x3f5d
 14209 3f50 2E       		.uleb128 0x2e
 14210 3f51 01       		.uleb128 0x1
 14211 3f52 51       		.byte	0x51
 14212 3f53 02       		.uleb128 0x2
 14213 3f54 76       		.byte	0x76
 14214 3f55 00       		.sleb128 0
 14215 3f56 2E       		.uleb128 0x2e
 14216 3f57 01       		.uleb128 0x1
 14217 3f58 50       		.byte	0x50
 14218 3f59 02       		.uleb128 0x2
 14219 3f5a 74       		.byte	0x74
 14220 3f5b 00       		.sleb128 0
 14221 3f5c 00       		.byte	0
ARM GAS  /tmp/ccTQOGyd.s 			page 251


 14222 3f5d 2F       		.uleb128 0x2f
 14223 3f5e EC120000 		.4byte	.LVL501
 14224 3f62 954C0000 		.4byte	0x4c95
 14225 3f66 773F0000 		.4byte	0x3f77
 14226 3f6a 2E       		.uleb128 0x2e
 14227 3f6b 01       		.uleb128 0x1
 14228 3f6c 51       		.byte	0x51
 14229 3f6d 02       		.uleb128 0x2
 14230 3f6e 76       		.byte	0x76
 14231 3f6f 00       		.sleb128 0
 14232 3f70 2E       		.uleb128 0x2e
 14233 3f71 01       		.uleb128 0x1
 14234 3f72 50       		.byte	0x50
 14235 3f73 02       		.uleb128 0x2
 14236 3f74 74       		.byte	0x74
 14237 3f75 00       		.sleb128 0
 14238 3f76 00       		.byte	0
 14239 3f77 2F       		.uleb128 0x2f
 14240 3f78 F8120000 		.4byte	.LVL502
 14241 3f7c 954C0000 		.4byte	0x4c95
 14242 3f80 913F0000 		.4byte	0x3f91
 14243 3f84 2E       		.uleb128 0x2e
 14244 3f85 01       		.uleb128 0x1
 14245 3f86 51       		.byte	0x51
 14246 3f87 02       		.uleb128 0x2
 14247 3f88 76       		.byte	0x76
 14248 3f89 00       		.sleb128 0
 14249 3f8a 2E       		.uleb128 0x2e
 14250 3f8b 01       		.uleb128 0x1
 14251 3f8c 50       		.byte	0x50
 14252 3f8d 02       		.uleb128 0x2
 14253 3f8e 74       		.byte	0x74
 14254 3f8f 00       		.sleb128 0
 14255 3f90 00       		.byte	0
 14256 3f91 2F       		.uleb128 0x2f
 14257 3f92 04130000 		.4byte	.LVL503
 14258 3f96 954C0000 		.4byte	0x4c95
 14259 3f9a AB3F0000 		.4byte	0x3fab
 14260 3f9e 2E       		.uleb128 0x2e
 14261 3f9f 01       		.uleb128 0x1
 14262 3fa0 51       		.byte	0x51
 14263 3fa1 02       		.uleb128 0x2
 14264 3fa2 76       		.byte	0x76
 14265 3fa3 00       		.sleb128 0
 14266 3fa4 2E       		.uleb128 0x2e
 14267 3fa5 01       		.uleb128 0x1
 14268 3fa6 50       		.byte	0x50
 14269 3fa7 02       		.uleb128 0x2
 14270 3fa8 74       		.byte	0x74
 14271 3fa9 00       		.sleb128 0
 14272 3faa 00       		.byte	0
 14273 3fab 2F       		.uleb128 0x2f
 14274 3fac 10130000 		.4byte	.LVL504
 14275 3fb0 954C0000 		.4byte	0x4c95
 14276 3fb4 C53F0000 		.4byte	0x3fc5
 14277 3fb8 2E       		.uleb128 0x2e
 14278 3fb9 01       		.uleb128 0x1
ARM GAS  /tmp/ccTQOGyd.s 			page 252


 14279 3fba 51       		.byte	0x51
 14280 3fbb 02       		.uleb128 0x2
 14281 3fbc 76       		.byte	0x76
 14282 3fbd 00       		.sleb128 0
 14283 3fbe 2E       		.uleb128 0x2e
 14284 3fbf 01       		.uleb128 0x1
 14285 3fc0 50       		.byte	0x50
 14286 3fc1 02       		.uleb128 0x2
 14287 3fc2 74       		.byte	0x74
 14288 3fc3 00       		.sleb128 0
 14289 3fc4 00       		.byte	0
 14290 3fc5 2F       		.uleb128 0x2f
 14291 3fc6 1C130000 		.4byte	.LVL505
 14292 3fca 954C0000 		.4byte	0x4c95
 14293 3fce DF3F0000 		.4byte	0x3fdf
 14294 3fd2 2E       		.uleb128 0x2e
 14295 3fd3 01       		.uleb128 0x1
 14296 3fd4 51       		.byte	0x51
 14297 3fd5 02       		.uleb128 0x2
 14298 3fd6 76       		.byte	0x76
 14299 3fd7 00       		.sleb128 0
 14300 3fd8 2E       		.uleb128 0x2e
 14301 3fd9 01       		.uleb128 0x1
 14302 3fda 50       		.byte	0x50
 14303 3fdb 02       		.uleb128 0x2
 14304 3fdc 74       		.byte	0x74
 14305 3fdd 00       		.sleb128 0
 14306 3fde 00       		.byte	0
 14307 3fdf 2F       		.uleb128 0x2f
 14308 3fe0 28130000 		.4byte	.LVL506
 14309 3fe4 954C0000 		.4byte	0x4c95
 14310 3fe8 F93F0000 		.4byte	0x3ff9
 14311 3fec 2E       		.uleb128 0x2e
 14312 3fed 01       		.uleb128 0x1
 14313 3fee 51       		.byte	0x51
 14314 3fef 02       		.uleb128 0x2
 14315 3ff0 76       		.byte	0x76
 14316 3ff1 00       		.sleb128 0
 14317 3ff2 2E       		.uleb128 0x2e
 14318 3ff3 01       		.uleb128 0x1
 14319 3ff4 50       		.byte	0x50
 14320 3ff5 02       		.uleb128 0x2
 14321 3ff6 74       		.byte	0x74
 14322 3ff7 00       		.sleb128 0
 14323 3ff8 00       		.byte	0
 14324 3ff9 2F       		.uleb128 0x2f
 14325 3ffa 34130000 		.4byte	.LVL507
 14326 3ffe 954C0000 		.4byte	0x4c95
 14327 4002 13400000 		.4byte	0x4013
 14328 4006 2E       		.uleb128 0x2e
 14329 4007 01       		.uleb128 0x1
 14330 4008 51       		.byte	0x51
 14331 4009 02       		.uleb128 0x2
 14332 400a 76       		.byte	0x76
 14333 400b 00       		.sleb128 0
 14334 400c 2E       		.uleb128 0x2e
 14335 400d 01       		.uleb128 0x1
ARM GAS  /tmp/ccTQOGyd.s 			page 253


 14336 400e 50       		.byte	0x50
 14337 400f 02       		.uleb128 0x2
 14338 4010 74       		.byte	0x74
 14339 4011 00       		.sleb128 0
 14340 4012 00       		.byte	0
 14341 4013 2F       		.uleb128 0x2f
 14342 4014 40130000 		.4byte	.LVL508
 14343 4018 954C0000 		.4byte	0x4c95
 14344 401c 2D400000 		.4byte	0x402d
 14345 4020 2E       		.uleb128 0x2e
 14346 4021 01       		.uleb128 0x1
 14347 4022 51       		.byte	0x51
 14348 4023 02       		.uleb128 0x2
 14349 4024 76       		.byte	0x76
 14350 4025 00       		.sleb128 0
 14351 4026 2E       		.uleb128 0x2e
 14352 4027 01       		.uleb128 0x1
 14353 4028 50       		.byte	0x50
 14354 4029 02       		.uleb128 0x2
 14355 402a 74       		.byte	0x74
 14356 402b 00       		.sleb128 0
 14357 402c 00       		.byte	0
 14358 402d 2F       		.uleb128 0x2f
 14359 402e 94130000 		.4byte	.LVL509
 14360 4032 954C0000 		.4byte	0x4c95
 14361 4036 47400000 		.4byte	0x4047
 14362 403a 2E       		.uleb128 0x2e
 14363 403b 01       		.uleb128 0x1
 14364 403c 51       		.byte	0x51
 14365 403d 02       		.uleb128 0x2
 14366 403e 76       		.byte	0x76
 14367 403f 00       		.sleb128 0
 14368 4040 2E       		.uleb128 0x2e
 14369 4041 01       		.uleb128 0x1
 14370 4042 50       		.byte	0x50
 14371 4043 02       		.uleb128 0x2
 14372 4044 74       		.byte	0x74
 14373 4045 00       		.sleb128 0
 14374 4046 00       		.byte	0
 14375 4047 2F       		.uleb128 0x2f
 14376 4048 C0130000 		.4byte	.LVL510
 14377 404c 954C0000 		.4byte	0x4c95
 14378 4050 61400000 		.4byte	0x4061
 14379 4054 2E       		.uleb128 0x2e
 14380 4055 01       		.uleb128 0x1
 14381 4056 51       		.byte	0x51
 14382 4057 02       		.uleb128 0x2
 14383 4058 76       		.byte	0x76
 14384 4059 00       		.sleb128 0
 14385 405a 2E       		.uleb128 0x2e
 14386 405b 01       		.uleb128 0x1
 14387 405c 50       		.byte	0x50
 14388 405d 02       		.uleb128 0x2
 14389 405e 74       		.byte	0x74
 14390 405f 00       		.sleb128 0
 14391 4060 00       		.byte	0
 14392 4061 2F       		.uleb128 0x2f
ARM GAS  /tmp/ccTQOGyd.s 			page 254


 14393 4062 DE130000 		.4byte	.LVL511
 14394 4066 954C0000 		.4byte	0x4c95
 14395 406a 7B400000 		.4byte	0x407b
 14396 406e 2E       		.uleb128 0x2e
 14397 406f 01       		.uleb128 0x1
 14398 4070 51       		.byte	0x51
 14399 4071 02       		.uleb128 0x2
 14400 4072 76       		.byte	0x76
 14401 4073 00       		.sleb128 0
 14402 4074 2E       		.uleb128 0x2e
 14403 4075 01       		.uleb128 0x1
 14404 4076 50       		.byte	0x50
 14405 4077 02       		.uleb128 0x2
 14406 4078 74       		.byte	0x74
 14407 4079 00       		.sleb128 0
 14408 407a 00       		.byte	0
 14409 407b 2F       		.uleb128 0x2f
 14410 407c EA130000 		.4byte	.LVL512
 14411 4080 954C0000 		.4byte	0x4c95
 14412 4084 95400000 		.4byte	0x4095
 14413 4088 2E       		.uleb128 0x2e
 14414 4089 01       		.uleb128 0x1
 14415 408a 51       		.byte	0x51
 14416 408b 02       		.uleb128 0x2
 14417 408c 76       		.byte	0x76
 14418 408d 00       		.sleb128 0
 14419 408e 2E       		.uleb128 0x2e
 14420 408f 01       		.uleb128 0x1
 14421 4090 50       		.byte	0x50
 14422 4091 02       		.uleb128 0x2
 14423 4092 74       		.byte	0x74
 14424 4093 00       		.sleb128 0
 14425 4094 00       		.byte	0
 14426 4095 2F       		.uleb128 0x2f
 14427 4096 F6130000 		.4byte	.LVL513
 14428 409a 954C0000 		.4byte	0x4c95
 14429 409e AF400000 		.4byte	0x40af
 14430 40a2 2E       		.uleb128 0x2e
 14431 40a3 01       		.uleb128 0x1
 14432 40a4 51       		.byte	0x51
 14433 40a5 02       		.uleb128 0x2
 14434 40a6 76       		.byte	0x76
 14435 40a7 00       		.sleb128 0
 14436 40a8 2E       		.uleb128 0x2e
 14437 40a9 01       		.uleb128 0x1
 14438 40aa 50       		.byte	0x50
 14439 40ab 02       		.uleb128 0x2
 14440 40ac 74       		.byte	0x74
 14441 40ad 00       		.sleb128 0
 14442 40ae 00       		.byte	0
 14443 40af 2F       		.uleb128 0x2f
 14444 40b0 02140000 		.4byte	.LVL514
 14445 40b4 954C0000 		.4byte	0x4c95
 14446 40b8 C9400000 		.4byte	0x40c9
 14447 40bc 2E       		.uleb128 0x2e
 14448 40bd 01       		.uleb128 0x1
 14449 40be 51       		.byte	0x51
ARM GAS  /tmp/ccTQOGyd.s 			page 255


 14450 40bf 02       		.uleb128 0x2
 14451 40c0 76       		.byte	0x76
 14452 40c1 00       		.sleb128 0
 14453 40c2 2E       		.uleb128 0x2e
 14454 40c3 01       		.uleb128 0x1
 14455 40c4 50       		.byte	0x50
 14456 40c5 02       		.uleb128 0x2
 14457 40c6 74       		.byte	0x74
 14458 40c7 00       		.sleb128 0
 14459 40c8 00       		.byte	0
 14460 40c9 2F       		.uleb128 0x2f
 14461 40ca 0E140000 		.4byte	.LVL515
 14462 40ce 954C0000 		.4byte	0x4c95
 14463 40d2 E3400000 		.4byte	0x40e3
 14464 40d6 2E       		.uleb128 0x2e
 14465 40d7 01       		.uleb128 0x1
 14466 40d8 51       		.byte	0x51
 14467 40d9 02       		.uleb128 0x2
 14468 40da 76       		.byte	0x76
 14469 40db 00       		.sleb128 0
 14470 40dc 2E       		.uleb128 0x2e
 14471 40dd 01       		.uleb128 0x1
 14472 40de 50       		.byte	0x50
 14473 40df 02       		.uleb128 0x2
 14474 40e0 74       		.byte	0x74
 14475 40e1 00       		.sleb128 0
 14476 40e2 00       		.byte	0
 14477 40e3 2F       		.uleb128 0x2f
 14478 40e4 2C140000 		.4byte	.LVL516
 14479 40e8 954C0000 		.4byte	0x4c95
 14480 40ec FD400000 		.4byte	0x40fd
 14481 40f0 2E       		.uleb128 0x2e
 14482 40f1 01       		.uleb128 0x1
 14483 40f2 51       		.byte	0x51
 14484 40f3 02       		.uleb128 0x2
 14485 40f4 76       		.byte	0x76
 14486 40f5 00       		.sleb128 0
 14487 40f6 2E       		.uleb128 0x2e
 14488 40f7 01       		.uleb128 0x1
 14489 40f8 50       		.byte	0x50
 14490 40f9 02       		.uleb128 0x2
 14491 40fa 74       		.byte	0x74
 14492 40fb 00       		.sleb128 0
 14493 40fc 00       		.byte	0
 14494 40fd 2F       		.uleb128 0x2f
 14495 40fe 38140000 		.4byte	.LVL517
 14496 4102 954C0000 		.4byte	0x4c95
 14497 4106 17410000 		.4byte	0x4117
 14498 410a 2E       		.uleb128 0x2e
 14499 410b 01       		.uleb128 0x1
 14500 410c 51       		.byte	0x51
 14501 410d 02       		.uleb128 0x2
 14502 410e 76       		.byte	0x76
 14503 410f 00       		.sleb128 0
 14504 4110 2E       		.uleb128 0x2e
 14505 4111 01       		.uleb128 0x1
 14506 4112 50       		.byte	0x50
ARM GAS  /tmp/ccTQOGyd.s 			page 256


 14507 4113 02       		.uleb128 0x2
 14508 4114 74       		.byte	0x74
 14509 4115 00       		.sleb128 0
 14510 4116 00       		.byte	0
 14511 4117 2F       		.uleb128 0x2f
 14512 4118 44140000 		.4byte	.LVL518
 14513 411c 954C0000 		.4byte	0x4c95
 14514 4120 31410000 		.4byte	0x4131
 14515 4124 2E       		.uleb128 0x2e
 14516 4125 01       		.uleb128 0x1
 14517 4126 51       		.byte	0x51
 14518 4127 02       		.uleb128 0x2
 14519 4128 76       		.byte	0x76
 14520 4129 00       		.sleb128 0
 14521 412a 2E       		.uleb128 0x2e
 14522 412b 01       		.uleb128 0x1
 14523 412c 50       		.byte	0x50
 14524 412d 02       		.uleb128 0x2
 14525 412e 74       		.byte	0x74
 14526 412f 00       		.sleb128 0
 14527 4130 00       		.byte	0
 14528 4131 2F       		.uleb128 0x2f
 14529 4132 50140000 		.4byte	.LVL519
 14530 4136 954C0000 		.4byte	0x4c95
 14531 413a 4B410000 		.4byte	0x414b
 14532 413e 2E       		.uleb128 0x2e
 14533 413f 01       		.uleb128 0x1
 14534 4140 51       		.byte	0x51
 14535 4141 02       		.uleb128 0x2
 14536 4142 76       		.byte	0x76
 14537 4143 00       		.sleb128 0
 14538 4144 2E       		.uleb128 0x2e
 14539 4145 01       		.uleb128 0x1
 14540 4146 50       		.byte	0x50
 14541 4147 02       		.uleb128 0x2
 14542 4148 74       		.byte	0x74
 14543 4149 00       		.sleb128 0
 14544 414a 00       		.byte	0
 14545 414b 2F       		.uleb128 0x2f
 14546 414c 5C140000 		.4byte	.LVL520
 14547 4150 954C0000 		.4byte	0x4c95
 14548 4154 65410000 		.4byte	0x4165
 14549 4158 2E       		.uleb128 0x2e
 14550 4159 01       		.uleb128 0x1
 14551 415a 51       		.byte	0x51
 14552 415b 02       		.uleb128 0x2
 14553 415c 76       		.byte	0x76
 14554 415d 00       		.sleb128 0
 14555 415e 2E       		.uleb128 0x2e
 14556 415f 01       		.uleb128 0x1
 14557 4160 50       		.byte	0x50
 14558 4161 02       		.uleb128 0x2
 14559 4162 74       		.byte	0x74
 14560 4163 00       		.sleb128 0
 14561 4164 00       		.byte	0
 14562 4165 2F       		.uleb128 0x2f
 14563 4166 68140000 		.4byte	.LVL521
ARM GAS  /tmp/ccTQOGyd.s 			page 257


 14564 416a 954C0000 		.4byte	0x4c95
 14565 416e 7F410000 		.4byte	0x417f
 14566 4172 2E       		.uleb128 0x2e
 14567 4173 01       		.uleb128 0x1
 14568 4174 51       		.byte	0x51
 14569 4175 02       		.uleb128 0x2
 14570 4176 76       		.byte	0x76
 14571 4177 00       		.sleb128 0
 14572 4178 2E       		.uleb128 0x2e
 14573 4179 01       		.uleb128 0x1
 14574 417a 50       		.byte	0x50
 14575 417b 02       		.uleb128 0x2
 14576 417c 74       		.byte	0x74
 14577 417d 00       		.sleb128 0
 14578 417e 00       		.byte	0
 14579 417f 2F       		.uleb128 0x2f
 14580 4180 74140000 		.4byte	.LVL522
 14581 4184 954C0000 		.4byte	0x4c95
 14582 4188 99410000 		.4byte	0x4199
 14583 418c 2E       		.uleb128 0x2e
 14584 418d 01       		.uleb128 0x1
 14585 418e 51       		.byte	0x51
 14586 418f 02       		.uleb128 0x2
 14587 4190 76       		.byte	0x76
 14588 4191 00       		.sleb128 0
 14589 4192 2E       		.uleb128 0x2e
 14590 4193 01       		.uleb128 0x1
 14591 4194 50       		.byte	0x50
 14592 4195 02       		.uleb128 0x2
 14593 4196 74       		.byte	0x74
 14594 4197 00       		.sleb128 0
 14595 4198 00       		.byte	0
 14596 4199 2F       		.uleb128 0x2f
 14597 419a 80140000 		.4byte	.LVL523
 14598 419e 954C0000 		.4byte	0x4c95
 14599 41a2 B3410000 		.4byte	0x41b3
 14600 41a6 2E       		.uleb128 0x2e
 14601 41a7 01       		.uleb128 0x1
 14602 41a8 51       		.byte	0x51
 14603 41a9 02       		.uleb128 0x2
 14604 41aa 76       		.byte	0x76
 14605 41ab 00       		.sleb128 0
 14606 41ac 2E       		.uleb128 0x2e
 14607 41ad 01       		.uleb128 0x1
 14608 41ae 50       		.byte	0x50
 14609 41af 02       		.uleb128 0x2
 14610 41b0 74       		.byte	0x74
 14611 41b1 00       		.sleb128 0
 14612 41b2 00       		.byte	0
 14613 41b3 2F       		.uleb128 0x2f
 14614 41b4 8C140000 		.4byte	.LVL524
 14615 41b8 074A0000 		.4byte	0x4a07
 14616 41bc CD410000 		.4byte	0x41cd
 14617 41c0 2E       		.uleb128 0x2e
 14618 41c1 01       		.uleb128 0x1
 14619 41c2 51       		.byte	0x51
 14620 41c3 02       		.uleb128 0x2
ARM GAS  /tmp/ccTQOGyd.s 			page 258


 14621 41c4 76       		.byte	0x76
 14622 41c5 00       		.sleb128 0
 14623 41c6 2E       		.uleb128 0x2e
 14624 41c7 01       		.uleb128 0x1
 14625 41c8 50       		.byte	0x50
 14626 41c9 02       		.uleb128 0x2
 14627 41ca 74       		.byte	0x74
 14628 41cb 00       		.sleb128 0
 14629 41cc 00       		.byte	0
 14630 41cd 2F       		.uleb128 0x2f
 14631 41ce 98140000 		.4byte	.LVL525
 14632 41d2 954C0000 		.4byte	0x4c95
 14633 41d6 E7410000 		.4byte	0x41e7
 14634 41da 2E       		.uleb128 0x2e
 14635 41db 01       		.uleb128 0x1
 14636 41dc 51       		.byte	0x51
 14637 41dd 02       		.uleb128 0x2
 14638 41de 76       		.byte	0x76
 14639 41df 00       		.sleb128 0
 14640 41e0 2E       		.uleb128 0x2e
 14641 41e1 01       		.uleb128 0x1
 14642 41e2 50       		.byte	0x50
 14643 41e3 02       		.uleb128 0x2
 14644 41e4 74       		.byte	0x74
 14645 41e5 00       		.sleb128 0
 14646 41e6 00       		.byte	0
 14647 41e7 2F       		.uleb128 0x2f
 14648 41e8 A4140000 		.4byte	.LVL526
 14649 41ec 954C0000 		.4byte	0x4c95
 14650 41f0 01420000 		.4byte	0x4201
 14651 41f4 2E       		.uleb128 0x2e
 14652 41f5 01       		.uleb128 0x1
 14653 41f6 51       		.byte	0x51
 14654 41f7 02       		.uleb128 0x2
 14655 41f8 76       		.byte	0x76
 14656 41f9 00       		.sleb128 0
 14657 41fa 2E       		.uleb128 0x2e
 14658 41fb 01       		.uleb128 0x1
 14659 41fc 50       		.byte	0x50
 14660 41fd 02       		.uleb128 0x2
 14661 41fe 74       		.byte	0x74
 14662 41ff 00       		.sleb128 0
 14663 4200 00       		.byte	0
 14664 4201 2F       		.uleb128 0x2f
 14665 4202 B0140000 		.4byte	.LVL527
 14666 4206 554B0000 		.4byte	0x4b55
 14667 420a 1B420000 		.4byte	0x421b
 14668 420e 2E       		.uleb128 0x2e
 14669 420f 01       		.uleb128 0x1
 14670 4210 51       		.byte	0x51
 14671 4211 02       		.uleb128 0x2
 14672 4212 76       		.byte	0x76
 14673 4213 00       		.sleb128 0
 14674 4214 2E       		.uleb128 0x2e
 14675 4215 01       		.uleb128 0x1
 14676 4216 50       		.byte	0x50
 14677 4217 02       		.uleb128 0x2
ARM GAS  /tmp/ccTQOGyd.s 			page 259


 14678 4218 74       		.byte	0x74
 14679 4219 00       		.sleb128 0
 14680 421a 00       		.byte	0
 14681 421b 2F       		.uleb128 0x2f
 14682 421c E6140000 		.4byte	.LVL528
 14683 4220 954C0000 		.4byte	0x4c95
 14684 4224 35420000 		.4byte	0x4235
 14685 4228 2E       		.uleb128 0x2e
 14686 4229 01       		.uleb128 0x1
 14687 422a 51       		.byte	0x51
 14688 422b 02       		.uleb128 0x2
 14689 422c 76       		.byte	0x76
 14690 422d 00       		.sleb128 0
 14691 422e 2E       		.uleb128 0x2e
 14692 422f 01       		.uleb128 0x1
 14693 4230 50       		.byte	0x50
 14694 4231 02       		.uleb128 0x2
 14695 4232 74       		.byte	0x74
 14696 4233 00       		.sleb128 0
 14697 4234 00       		.byte	0
 14698 4235 2F       		.uleb128 0x2f
 14699 4236 F2140000 		.4byte	.LVL529
 14700 423a 954C0000 		.4byte	0x4c95
 14701 423e 4F420000 		.4byte	0x424f
 14702 4242 2E       		.uleb128 0x2e
 14703 4243 01       		.uleb128 0x1
 14704 4244 51       		.byte	0x51
 14705 4245 02       		.uleb128 0x2
 14706 4246 76       		.byte	0x76
 14707 4247 00       		.sleb128 0
 14708 4248 2E       		.uleb128 0x2e
 14709 4249 01       		.uleb128 0x1
 14710 424a 50       		.byte	0x50
 14711 424b 02       		.uleb128 0x2
 14712 424c 74       		.byte	0x74
 14713 424d 00       		.sleb128 0
 14714 424e 00       		.byte	0
 14715 424f 2F       		.uleb128 0x2f
 14716 4250 FE140000 		.4byte	.LVL530
 14717 4254 954C0000 		.4byte	0x4c95
 14718 4258 69420000 		.4byte	0x4269
 14719 425c 2E       		.uleb128 0x2e
 14720 425d 01       		.uleb128 0x1
 14721 425e 51       		.byte	0x51
 14722 425f 02       		.uleb128 0x2
 14723 4260 76       		.byte	0x76
 14724 4261 00       		.sleb128 0
 14725 4262 2E       		.uleb128 0x2e
 14726 4263 01       		.uleb128 0x1
 14727 4264 50       		.byte	0x50
 14728 4265 02       		.uleb128 0x2
 14729 4266 74       		.byte	0x74
 14730 4267 00       		.sleb128 0
 14731 4268 00       		.byte	0
 14732 4269 2F       		.uleb128 0x2f
 14733 426a 0A150000 		.4byte	.LVL531
 14734 426e 954C0000 		.4byte	0x4c95
ARM GAS  /tmp/ccTQOGyd.s 			page 260


 14735 4272 83420000 		.4byte	0x4283
 14736 4276 2E       		.uleb128 0x2e
 14737 4277 01       		.uleb128 0x1
 14738 4278 51       		.byte	0x51
 14739 4279 02       		.uleb128 0x2
 14740 427a 76       		.byte	0x76
 14741 427b 00       		.sleb128 0
 14742 427c 2E       		.uleb128 0x2e
 14743 427d 01       		.uleb128 0x1
 14744 427e 50       		.byte	0x50
 14745 427f 02       		.uleb128 0x2
 14746 4280 74       		.byte	0x74
 14747 4281 00       		.sleb128 0
 14748 4282 00       		.byte	0
 14749 4283 2F       		.uleb128 0x2f
 14750 4284 1C150000 		.4byte	.LVL532
 14751 4288 2F4D0000 		.4byte	0x4d2f
 14752 428c AF420000 		.4byte	0x42af
 14753 4290 2E       		.uleb128 0x2e
 14754 4291 02       		.uleb128 0x2
 14755 4292 90       		.byte	0x90
 14756 4293 41       		.uleb128 0x41
 14757 4294 07       		.uleb128 0x7
 14758 4295 F4       		.byte	0xf4
 14759 4296 25       		.uleb128 0x25
 14760 4297 04       		.byte	0x4
 14761 4298 0000C842 		.4byte	0x42c80000
 14762 429c 2E       		.uleb128 0x2e
 14763 429d 02       		.uleb128 0x2
 14764 429e 90       		.byte	0x90
 14765 429f 40       		.uleb128 0x40
 14766 42a0 07       		.uleb128 0x7
 14767 42a1 F4       		.byte	0xf4
 14768 42a2 25       		.uleb128 0x25
 14769 42a3 04       		.byte	0x4
 14770 42a4 0000C8C2 		.4byte	0xc2c80000
 14771 42a8 2E       		.uleb128 0x2e
 14772 42a9 01       		.uleb128 0x1
 14773 42aa 50       		.byte	0x50
 14774 42ab 02       		.uleb128 0x2
 14775 42ac 75       		.byte	0x75
 14776 42ad 04       		.sleb128 4
 14777 42ae 00       		.byte	0
 14778 42af 2F       		.uleb128 0x2f
 14779 42b0 2C150000 		.4byte	.LVL533
 14780 42b4 2F4D0000 		.4byte	0x4d2f
 14781 42b8 DB420000 		.4byte	0x42db
 14782 42bc 2E       		.uleb128 0x2e
 14783 42bd 02       		.uleb128 0x2
 14784 42be 90       		.byte	0x90
 14785 42bf 41       		.uleb128 0x41
 14786 42c0 07       		.uleb128 0x7
 14787 42c1 F4       		.byte	0xf4
 14788 42c2 25       		.uleb128 0x25
 14789 42c3 04       		.byte	0x4
 14790 42c4 0000C842 		.4byte	0x42c80000
 14791 42c8 2E       		.uleb128 0x2e
ARM GAS  /tmp/ccTQOGyd.s 			page 261


 14792 42c9 02       		.uleb128 0x2
 14793 42ca 90       		.byte	0x90
 14794 42cb 40       		.uleb128 0x40
 14795 42cc 07       		.uleb128 0x7
 14796 42cd F4       		.byte	0xf4
 14797 42ce 25       		.uleb128 0x25
 14798 42cf 04       		.byte	0x4
 14799 42d0 0000C8C2 		.4byte	0xc2c80000
 14800 42d4 2E       		.uleb128 0x2e
 14801 42d5 01       		.uleb128 0x1
 14802 42d6 50       		.byte	0x50
 14803 42d7 02       		.uleb128 0x2
 14804 42d8 75       		.byte	0x75
 14805 42d9 08       		.sleb128 8
 14806 42da 00       		.byte	0
 14807 42db 2F       		.uleb128 0x2f
 14808 42dc 3C150000 		.4byte	.LVL534
 14809 42e0 2F4D0000 		.4byte	0x4d2f
 14810 42e4 07430000 		.4byte	0x4307
 14811 42e8 2E       		.uleb128 0x2e
 14812 42e9 02       		.uleb128 0x2
 14813 42ea 90       		.byte	0x90
 14814 42eb 41       		.uleb128 0x41
 14815 42ec 07       		.uleb128 0x7
 14816 42ed F4       		.byte	0xf4
 14817 42ee 25       		.uleb128 0x25
 14818 42ef 04       		.byte	0x4
 14819 42f0 0000C842 		.4byte	0x42c80000
 14820 42f4 2E       		.uleb128 0x2e
 14821 42f5 02       		.uleb128 0x2
 14822 42f6 90       		.byte	0x90
 14823 42f7 40       		.uleb128 0x40
 14824 42f8 07       		.uleb128 0x7
 14825 42f9 F4       		.byte	0xf4
 14826 42fa 25       		.uleb128 0x25
 14827 42fb 04       		.byte	0x4
 14828 42fc 0000C8C2 		.4byte	0xc2c80000
 14829 4300 2E       		.uleb128 0x2e
 14830 4301 01       		.uleb128 0x1
 14831 4302 50       		.byte	0x50
 14832 4303 02       		.uleb128 0x2
 14833 4304 75       		.byte	0x75
 14834 4305 0C       		.sleb128 12
 14835 4306 00       		.byte	0
 14836 4307 2F       		.uleb128 0x2f
 14837 4308 4C150000 		.4byte	.LVL535
 14838 430c 2F4D0000 		.4byte	0x4d2f
 14839 4310 33430000 		.4byte	0x4333
 14840 4314 2E       		.uleb128 0x2e
 14841 4315 02       		.uleb128 0x2
 14842 4316 90       		.byte	0x90
 14843 4317 41       		.uleb128 0x41
 14844 4318 07       		.uleb128 0x7
 14845 4319 F4       		.byte	0xf4
 14846 431a 25       		.uleb128 0x25
 14847 431b 04       		.byte	0x4
 14848 431c 0000C842 		.4byte	0x42c80000
ARM GAS  /tmp/ccTQOGyd.s 			page 262


 14849 4320 2E       		.uleb128 0x2e
 14850 4321 02       		.uleb128 0x2
 14851 4322 90       		.byte	0x90
 14852 4323 40       		.uleb128 0x40
 14853 4324 07       		.uleb128 0x7
 14854 4325 F4       		.byte	0xf4
 14855 4326 25       		.uleb128 0x25
 14856 4327 04       		.byte	0x4
 14857 4328 0000C8C2 		.4byte	0xc2c80000
 14858 432c 2E       		.uleb128 0x2e
 14859 432d 01       		.uleb128 0x1
 14860 432e 50       		.byte	0x50
 14861 432f 02       		.uleb128 0x2
 14862 4330 75       		.byte	0x75
 14863 4331 10       		.sleb128 16
 14864 4332 00       		.byte	0
 14865 4333 2F       		.uleb128 0x2f
 14866 4334 5C150000 		.4byte	.LVL536
 14867 4338 2F4D0000 		.4byte	0x4d2f
 14868 433c 5F430000 		.4byte	0x435f
 14869 4340 2E       		.uleb128 0x2e
 14870 4341 02       		.uleb128 0x2
 14871 4342 90       		.byte	0x90
 14872 4343 41       		.uleb128 0x41
 14873 4344 07       		.uleb128 0x7
 14874 4345 F4       		.byte	0xf4
 14875 4346 25       		.uleb128 0x25
 14876 4347 04       		.byte	0x4
 14877 4348 00001643 		.4byte	0x43160000
 14878 434c 2E       		.uleb128 0x2e
 14879 434d 02       		.uleb128 0x2
 14880 434e 90       		.byte	0x90
 14881 434f 40       		.uleb128 0x40
 14882 4350 07       		.uleb128 0x7
 14883 4351 F4       		.byte	0xf4
 14884 4352 25       		.uleb128 0x25
 14885 4353 04       		.byte	0x4
 14886 4354 00000000 		.4byte	0
 14887 4358 2E       		.uleb128 0x2e
 14888 4359 01       		.uleb128 0x1
 14889 435a 50       		.byte	0x50
 14890 435b 02       		.uleb128 0x2
 14891 435c 75       		.byte	0x75
 14892 435d 14       		.sleb128 20
 14893 435e 00       		.byte	0
 14894 435f 2F       		.uleb128 0x2f
 14895 4360 6C150000 		.4byte	.LVL537
 14896 4364 2F4D0000 		.4byte	0x4d2f
 14897 4368 8B430000 		.4byte	0x438b
 14898 436c 2E       		.uleb128 0x2e
 14899 436d 02       		.uleb128 0x2
 14900 436e 90       		.byte	0x90
 14901 436f 41       		.uleb128 0x41
 14902 4370 07       		.uleb128 0x7
 14903 4371 F4       		.byte	0xf4
 14904 4372 25       		.uleb128 0x25
 14905 4373 04       		.byte	0x4
ARM GAS  /tmp/ccTQOGyd.s 			page 263


 14906 4374 00006442 		.4byte	0x42640000
 14907 4378 2E       		.uleb128 0x2e
 14908 4379 02       		.uleb128 0x2
 14909 437a 90       		.byte	0x90
 14910 437b 40       		.uleb128 0x40
 14911 437c 07       		.uleb128 0x7
 14912 437d F4       		.byte	0xf4
 14913 437e 25       		.uleb128 0x25
 14914 437f 04       		.byte	0x4
 14915 4380 0000C040 		.4byte	0x40c00000
 14916 4384 2E       		.uleb128 0x2e
 14917 4385 01       		.uleb128 0x1
 14918 4386 50       		.byte	0x50
 14919 4387 02       		.uleb128 0x2
 14920 4388 75       		.byte	0x75
 14921 4389 30       		.sleb128 48
 14922 438a 00       		.byte	0
 14923 438b 2F       		.uleb128 0x2f
 14924 438c 7C150000 		.4byte	.LVL538
 14925 4390 2F4D0000 		.4byte	0x4d2f
 14926 4394 B7430000 		.4byte	0x43b7
 14927 4398 2E       		.uleb128 0x2e
 14928 4399 02       		.uleb128 0x2
 14929 439a 90       		.byte	0x90
 14930 439b 41       		.uleb128 0x41
 14931 439c 07       		.uleb128 0x7
 14932 439d F4       		.byte	0xf4
 14933 439e 25       		.uleb128 0x25
 14934 439f 04       		.byte	0x4
 14935 43a0 00006442 		.4byte	0x42640000
 14936 43a4 2E       		.uleb128 0x2e
 14937 43a5 02       		.uleb128 0x2
 14938 43a6 90       		.byte	0x90
 14939 43a7 40       		.uleb128 0x40
 14940 43a8 07       		.uleb128 0x7
 14941 43a9 F4       		.byte	0xf4
 14942 43aa 25       		.uleb128 0x25
 14943 43ab 04       		.byte	0x4
 14944 43ac 0000C040 		.4byte	0x40c00000
 14945 43b0 2E       		.uleb128 0x2e
 14946 43b1 01       		.uleb128 0x1
 14947 43b2 50       		.byte	0x50
 14948 43b3 02       		.uleb128 0x2
 14949 43b4 75       		.byte	0x75
 14950 43b5 2C       		.sleb128 44
 14951 43b6 00       		.byte	0
 14952 43b7 2F       		.uleb128 0x2f
 14953 43b8 8C150000 		.4byte	.LVL539
 14954 43bc 2F4D0000 		.4byte	0x4d2f
 14955 43c0 E3430000 		.4byte	0x43e3
 14956 43c4 2E       		.uleb128 0x2e
 14957 43c5 02       		.uleb128 0x2
 14958 43c6 90       		.byte	0x90
 14959 43c7 41       		.uleb128 0x41
 14960 43c8 07       		.uleb128 0x7
 14961 43c9 F4       		.byte	0xf4
 14962 43ca 25       		.uleb128 0x25
ARM GAS  /tmp/ccTQOGyd.s 			page 264


 14963 43cb 04       		.byte	0x4
 14964 43cc 00504348 		.4byte	0x48435000
 14965 43d0 2E       		.uleb128 0x2e
 14966 43d1 02       		.uleb128 0x2
 14967 43d2 90       		.byte	0x90
 14968 43d3 40       		.uleb128 0x40
 14969 43d4 07       		.uleb128 0x7
 14970 43d5 F4       		.byte	0xf4
 14971 43d6 25       		.uleb128 0x25
 14972 43d7 04       		.byte	0x4
 14973 43d8 005043C8 		.4byte	0xc8435000
 14974 43dc 2E       		.uleb128 0x2e
 14975 43dd 01       		.uleb128 0x1
 14976 43de 50       		.byte	0x50
 14977 43df 02       		.uleb128 0x2
 14978 43e0 75       		.byte	0x75
 14979 43e1 1C       		.sleb128 28
 14980 43e2 00       		.byte	0
 14981 43e3 2F       		.uleb128 0x2f
 14982 43e4 9C150000 		.4byte	.LVL540
 14983 43e8 2F4D0000 		.4byte	0x4d2f
 14984 43ec 0F440000 		.4byte	0x440f
 14985 43f0 2E       		.uleb128 0x2e
 14986 43f1 02       		.uleb128 0x2
 14987 43f2 90       		.byte	0x90
 14988 43f3 41       		.uleb128 0x41
 14989 43f4 07       		.uleb128 0x7
 14990 43f5 F4       		.byte	0xf4
 14991 43f6 25       		.uleb128 0x25
 14992 43f7 04       		.byte	0x4
 14993 43f8 00504348 		.4byte	0x48435000
 14994 43fc 2E       		.uleb128 0x2e
 14995 43fd 02       		.uleb128 0x2
 14996 43fe 90       		.byte	0x90
 14997 43ff 40       		.uleb128 0x40
 14998 4400 07       		.uleb128 0x7
 14999 4401 F4       		.byte	0xf4
 15000 4402 25       		.uleb128 0x25
 15001 4403 04       		.byte	0x4
 15002 4404 005043C8 		.4byte	0xc8435000
 15003 4408 2E       		.uleb128 0x2e
 15004 4409 01       		.uleb128 0x1
 15005 440a 50       		.byte	0x50
 15006 440b 02       		.uleb128 0x2
 15007 440c 75       		.byte	0x75
 15008 440d 18       		.sleb128 24
 15009 440e 00       		.byte	0
 15010 440f 2F       		.uleb128 0x2f
 15011 4410 AC150000 		.4byte	.LVL541
 15012 4414 2F4D0000 		.4byte	0x4d2f
 15013 4418 3C440000 		.4byte	0x443c
 15014 441c 2E       		.uleb128 0x2e
 15015 441d 02       		.uleb128 0x2
 15016 441e 90       		.byte	0x90
 15017 441f 41       		.uleb128 0x41
 15018 4420 07       		.uleb128 0x7
 15019 4421 F4       		.byte	0xf4
ARM GAS  /tmp/ccTQOGyd.s 			page 265


 15020 4422 25       		.uleb128 0x25
 15021 4423 04       		.byte	0x4
 15022 4424 CDCCCC3D 		.4byte	0x3dcccccd
 15023 4428 2E       		.uleb128 0x2e
 15024 4429 02       		.uleb128 0x2
 15025 442a 90       		.byte	0x90
 15026 442b 40       		.uleb128 0x40
 15027 442c 07       		.uleb128 0x7
 15028 442d F4       		.byte	0xf4
 15029 442e 25       		.uleb128 0x25
 15030 442f 04       		.byte	0x4
 15031 4430 00000000 		.4byte	0
 15032 4434 2E       		.uleb128 0x2e
 15033 4435 01       		.uleb128 0x1
 15034 4436 50       		.byte	0x50
 15035 4437 03       		.uleb128 0x3
 15036 4438 75       		.byte	0x75
 15037 4439 D400     		.sleb128 84
 15038 443b 00       		.byte	0
 15039 443c 2F       		.uleb128 0x2f
 15040 443d BC150000 		.4byte	.LVL542
 15041 4441 2F4D0000 		.4byte	0x4d2f
 15042 4445 69440000 		.4byte	0x4469
 15043 4449 2E       		.uleb128 0x2e
 15044 444a 02       		.uleb128 0x2
 15045 444b 90       		.byte	0x90
 15046 444c 41       		.uleb128 0x41
 15047 444d 07       		.uleb128 0x7
 15048 444e F4       		.byte	0xf4
 15049 444f 25       		.uleb128 0x25
 15050 4450 04       		.byte	0x4
 15051 4451 3333733F 		.4byte	0x3f733333
 15052 4455 2E       		.uleb128 0x2e
 15053 4456 02       		.uleb128 0x2
 15054 4457 90       		.byte	0x90
 15055 4458 40       		.uleb128 0x40
 15056 4459 07       		.uleb128 0x7
 15057 445a F4       		.byte	0xf4
 15058 445b 25       		.uleb128 0x25
 15059 445c 04       		.byte	0x4
 15060 445d 00000000 		.4byte	0
 15061 4461 2E       		.uleb128 0x2e
 15062 4462 01       		.uleb128 0x1
 15063 4463 50       		.byte	0x50
 15064 4464 03       		.uleb128 0x3
 15065 4465 75       		.byte	0x75
 15066 4466 D800     		.sleb128 88
 15067 4468 00       		.byte	0
 15068 4469 2F       		.uleb128 0x2f
 15069 446a CC150000 		.4byte	.LVL543
 15070 446e 2F4D0000 		.4byte	0x4d2f
 15071 4472 96440000 		.4byte	0x4496
 15072 4476 2E       		.uleb128 0x2e
 15073 4477 02       		.uleb128 0x2
 15074 4478 90       		.byte	0x90
 15075 4479 41       		.uleb128 0x41
 15076 447a 07       		.uleb128 0x7
ARM GAS  /tmp/ccTQOGyd.s 			page 266


 15077 447b F4       		.byte	0xf4
 15078 447c 25       		.uleb128 0x25
 15079 447d 04       		.byte	0x4
 15080 447e 0000DC42 		.4byte	0x42dc0000
 15081 4482 2E       		.uleb128 0x2e
 15082 4483 02       		.uleb128 0x2
 15083 4484 90       		.byte	0x90
 15084 4485 40       		.uleb128 0x40
 15085 4486 07       		.uleb128 0x7
 15086 4487 F4       		.byte	0xf4
 15087 4488 25       		.uleb128 0x25
 15088 4489 04       		.byte	0x4
 15089 448a 000020C2 		.4byte	0xc2200000
 15090 448e 2E       		.uleb128 0x2e
 15091 448f 01       		.uleb128 0x1
 15092 4490 50       		.byte	0x50
 15093 4491 03       		.uleb128 0x3
 15094 4492 75       		.byte	0x75
 15095 4493 C000     		.sleb128 64
 15096 4495 00       		.byte	0
 15097 4496 2F       		.uleb128 0x2f
 15098 4497 DC150000 		.4byte	.LVL544
 15099 449b 2F4D0000 		.4byte	0x4d2f
 15100 449f C3440000 		.4byte	0x44c3
 15101 44a3 2E       		.uleb128 0x2e
 15102 44a4 02       		.uleb128 0x2
 15103 44a5 90       		.byte	0x90
 15104 44a6 41       		.uleb128 0x41
 15105 44a7 07       		.uleb128 0x7
 15106 44a8 F4       		.byte	0xf4
 15107 44a9 25       		.uleb128 0x25
 15108 44aa 04       		.byte	0x4
 15109 44ab 0000DC42 		.4byte	0x42dc0000
 15110 44af 2E       		.uleb128 0x2e
 15111 44b0 02       		.uleb128 0x2
 15112 44b1 90       		.byte	0x90
 15113 44b2 40       		.uleb128 0x40
 15114 44b3 07       		.uleb128 0x7
 15115 44b4 F4       		.byte	0xf4
 15116 44b5 25       		.uleb128 0x25
 15117 44b6 04       		.byte	0x4
 15118 44b7 000020C2 		.4byte	0xc2200000
 15119 44bb 2E       		.uleb128 0x2e
 15120 44bc 01       		.uleb128 0x1
 15121 44bd 50       		.byte	0x50
 15122 44be 03       		.uleb128 0x3
 15123 44bf 75       		.byte	0x75
 15124 44c0 C400     		.sleb128 68
 15125 44c2 00       		.byte	0
 15126 44c3 2F       		.uleb128 0x2f
 15127 44c4 E2150000 		.4byte	.LVL545
 15128 44c8 4E4D0000 		.4byte	0x4d4e
 15129 44cc D7440000 		.4byte	0x44d7
 15130 44d0 2E       		.uleb128 0x2e
 15131 44d1 01       		.uleb128 0x1
 15132 44d2 50       		.byte	0x50
 15133 44d3 02       		.uleb128 0x2
ARM GAS  /tmp/ccTQOGyd.s 			page 267


 15134 44d4 75       		.byte	0x75
 15135 44d5 00       		.sleb128 0
 15136 44d6 00       		.byte	0
 15137 44d7 2F       		.uleb128 0x2f
 15138 44d8 E8150000 		.4byte	.LVL546
 15139 44dc C5480000 		.4byte	0x48c5
 15140 44e0 EB440000 		.4byte	0x44eb
 15141 44e4 2E       		.uleb128 0x2e
 15142 44e5 01       		.uleb128 0x1
 15143 44e6 50       		.byte	0x50
 15144 44e7 02       		.uleb128 0x2
 15145 44e8 75       		.byte	0x75
 15146 44e9 00       		.sleb128 0
 15147 44ea 00       		.byte	0
 15148 44eb 2F       		.uleb128 0x2f
 15149 44ec F0150000 		.4byte	.LVL547
 15150 44f0 EB4C0000 		.4byte	0x4ceb
 15151 44f4 00450000 		.4byte	0x4500
 15152 44f8 2E       		.uleb128 0x2e
 15153 44f9 01       		.uleb128 0x1
 15154 44fa 50       		.byte	0x50
 15155 44fb 03       		.uleb128 0x3
 15156 44fc 0A       		.byte	0xa
 15157 44fd D007     		.2byte	0x7d0
 15158 44ff 00       		.byte	0
 15159 4500 2F       		.uleb128 0x2f
 15160 4501 10160000 		.4byte	.LVL551
 15161 4505 074A0000 		.4byte	0x4a07
 15162 4509 1B450000 		.4byte	0x451b
 15163 450d 2E       		.uleb128 0x2e
 15164 450e 01       		.uleb128 0x1
 15165 450f 51       		.byte	0x51
 15166 4510 03       		.uleb128 0x3
 15167 4511 91       		.byte	0x91
 15168 4512 807E     		.sleb128 -256
 15169 4514 2E       		.uleb128 0x2e
 15170 4515 01       		.uleb128 0x1
 15171 4516 50       		.byte	0x50
 15172 4517 02       		.uleb128 0x2
 15173 4518 74       		.byte	0x74
 15174 4519 00       		.sleb128 0
 15175 451a 00       		.byte	0
 15176 451b 48       		.uleb128 0x48
 15177 451c 24160000 		.4byte	.LVL552
 15178 4520 634D0000 		.4byte	0x4d63
 15179 4524 48       		.uleb128 0x48
 15180 4525 28160000 		.4byte	.LVL553
 15181 4529 DF490000 		.4byte	0x49df
 15182 452d 2F       		.uleb128 0x2f
 15183 452e 34160000 		.4byte	.LVL556
 15184 4532 074A0000 		.4byte	0x4a07
 15185 4536 48450000 		.4byte	0x4548
 15186 453a 2E       		.uleb128 0x2e
 15187 453b 01       		.uleb128 0x1
 15188 453c 51       		.byte	0x51
 15189 453d 03       		.uleb128 0x3
 15190 453e 91       		.byte	0x91
ARM GAS  /tmp/ccTQOGyd.s 			page 268


 15191 453f 807E     		.sleb128 -256
 15192 4541 2E       		.uleb128 0x2e
 15193 4542 01       		.uleb128 0x1
 15194 4543 50       		.byte	0x50
 15195 4544 02       		.uleb128 0x2
 15196 4545 74       		.byte	0x74
 15197 4546 00       		.sleb128 0
 15198 4547 00       		.byte	0
 15199 4548 48       		.uleb128 0x48
 15200 4549 40160000 		.4byte	.LVL557
 15201 454d 744D0000 		.4byte	0x4d74
 15202 4551 48       		.uleb128 0x48
 15203 4552 44160000 		.4byte	.LVL558
 15204 4556 DF490000 		.4byte	0x49df
 15205 455a 48       		.uleb128 0x48
 15206 455b 5C160000 		.4byte	.LVL562
 15207 455f 854D0000 		.4byte	0x4d85
 15208 4563 48       		.uleb128 0x48
 15209 4564 64160000 		.4byte	.LVL564
 15210 4568 AA480000 		.4byte	0x48aa
 15211 456c 2F       		.uleb128 0x2f
 15212 456d 70160000 		.4byte	.LVL565
 15213 4571 35480000 		.4byte	0x4835
 15214 4575 8A450000 		.4byte	0x458a
 15215 4579 2E       		.uleb128 0x2e
 15216 457a 01       		.uleb128 0x1
 15217 457b 52       		.byte	0x52
 15218 457c 03       		.uleb128 0x3
 15219 457d 0A       		.byte	0xa
 15220 457e 7401     		.2byte	0x174
 15221 4580 2E       		.uleb128 0x2e
 15222 4581 01       		.uleb128 0x1
 15223 4582 50       		.byte	0x50
 15224 4583 05       		.uleb128 0x5
 15225 4584 03       		.byte	0x3
 15226 4585 00000000 		.4byte	.LANCHOR15
 15227 4589 00       		.byte	0
 15228 458a 48       		.uleb128 0x48
 15229 458b 78160000 		.4byte	.LVL567
 15230 458f 7F4C0000 		.4byte	0x4c7f
 15231 4593 2F       		.uleb128 0x2f
 15232 4594 84160000 		.4byte	.LVL569
 15233 4598 35480000 		.4byte	0x4835
 15234 459c AD450000 		.4byte	0x45ad
 15235 45a0 2E       		.uleb128 0x2e
 15236 45a1 01       		.uleb128 0x1
 15237 45a2 52       		.byte	0x52
 15238 45a3 02       		.uleb128 0x2
 15239 45a4 08       		.byte	0x8
 15240 45a5 C8       		.byte	0xc8
 15241 45a6 2E       		.uleb128 0x2e
 15242 45a7 01       		.uleb128 0x1
 15243 45a8 50       		.byte	0x50
 15244 45a9 02       		.uleb128 0x2
 15245 45aa 74       		.byte	0x74
 15246 45ab 00       		.sleb128 0
 15247 45ac 00       		.byte	0
ARM GAS  /tmp/ccTQOGyd.s 			page 269


 15248 45ad 2F       		.uleb128 0x2f
 15249 45ae B4160000 		.4byte	.LVL574
 15250 45b2 F6480000 		.4byte	0x48f6
 15251 45b6 DF450000 		.4byte	0x45df
 15252 45ba 2E       		.uleb128 0x2e
 15253 45bb 01       		.uleb128 0x1
 15254 45bc 51       		.byte	0x51
 15255 45bd 02       		.uleb128 0x2
 15256 45be 75       		.byte	0x75
 15257 45bf 00       		.sleb128 0
 15258 45c0 2E       		.uleb128 0x2e
 15259 45c1 02       		.uleb128 0x2
 15260 45c2 90       		.byte	0x90
 15261 45c3 41       		.uleb128 0x41
 15262 45c4 07       		.uleb128 0x7
 15263 45c5 F4       		.byte	0xf4
 15264 45c6 25       		.uleb128 0x25
 15265 45c7 04       		.byte	0x4
 15266 45c8 00247449 		.4byte	0x49742400
 15267 45cc 2E       		.uleb128 0x2e
 15268 45cd 02       		.uleb128 0x2
 15269 45ce 90       		.byte	0x90
 15270 45cf 40       		.uleb128 0x40
 15271 45d0 07       		.uleb128 0x7
 15272 45d1 F4       		.byte	0xf4
 15273 45d2 25       		.uleb128 0x25
 15274 45d3 04       		.byte	0x4
 15275 45d4 00407A44 		.4byte	0x447a4000
 15276 45d8 2E       		.uleb128 0x2e
 15277 45d9 01       		.uleb128 0x1
 15278 45da 50       		.byte	0x50
 15279 45db 02       		.uleb128 0x2
 15280 45dc 74       		.byte	0x74
 15281 45dd 00       		.sleb128 0
 15282 45de 00       		.byte	0
 15283 45df 2F       		.uleb128 0x2f
 15284 45e0 C4160000 		.4byte	.LVL575
 15285 45e4 F6480000 		.4byte	0x48f6
 15286 45e8 11460000 		.4byte	0x4611
 15287 45ec 2E       		.uleb128 0x2e
 15288 45ed 01       		.uleb128 0x1
 15289 45ee 51       		.byte	0x51
 15290 45ef 02       		.uleb128 0x2
 15291 45f0 75       		.byte	0x75
 15292 45f1 00       		.sleb128 0
 15293 45f2 2E       		.uleb128 0x2e
 15294 45f3 02       		.uleb128 0x2
 15295 45f4 90       		.byte	0x90
 15296 45f5 41       		.uleb128 0x41
 15297 45f6 07       		.uleb128 0x7
 15298 45f7 F4       		.byte	0xf4
 15299 45f8 25       		.uleb128 0x25
 15300 45f9 04       		.byte	0x4
 15301 45fa 00247449 		.4byte	0x49742400
 15302 45fe 2E       		.uleb128 0x2e
 15303 45ff 02       		.uleb128 0x2
 15304 4600 90       		.byte	0x90
ARM GAS  /tmp/ccTQOGyd.s 			page 270


 15305 4601 40       		.uleb128 0x40
 15306 4602 07       		.uleb128 0x7
 15307 4603 F4       		.byte	0xf4
 15308 4604 25       		.uleb128 0x25
 15309 4605 04       		.byte	0x4
 15310 4606 00000000 		.4byte	0
 15311 460a 2E       		.uleb128 0x2e
 15312 460b 01       		.uleb128 0x1
 15313 460c 50       		.byte	0x50
 15314 460d 02       		.uleb128 0x2
 15315 460e 74       		.byte	0x74
 15316 460f 00       		.sleb128 0
 15317 4610 00       		.byte	0
 15318 4611 32       		.uleb128 0x32
 15319 4612 F8160000 		.4byte	.LVL581
 15320 4616 8C4D0000 		.4byte	0x4d8c
 15321 461a 2E       		.uleb128 0x2e
 15322 461b 01       		.uleb128 0x1
 15323 461c 52       		.byte	0x52
 15324 461d 01       		.uleb128 0x1
 15325 461e 38       		.byte	0x38
 15326 461f 2E       		.uleb128 0x2e
 15327 4620 01       		.uleb128 0x1
 15328 4621 51       		.byte	0x51
 15329 4622 02       		.uleb128 0x2
 15330 4623 08       		.byte	0x8
 15331 4624 FF       		.byte	0xff
 15332 4625 2E       		.uleb128 0x2e
 15333 4626 01       		.uleb128 0x1
 15334 4627 50       		.byte	0x50
 15335 4628 05       		.uleb128 0x5
 15336 4629 03       		.byte	0x3
 15337 462a 00000000 		.4byte	.LANCHOR8
 15338 462e 00       		.byte	0
 15339 462f 00       		.byte	0
 15340 4630 15       		.uleb128 0x15
 15341 4631 CA040000 		.4byte	0x4ca
 15342 4635 41460000 		.4byte	0x4641
 15343 4639 4C       		.uleb128 0x4c
 15344 463a B8040000 		.4byte	0x4b8
 15345 463e 3201     		.2byte	0x132
 15346 4640 00       		.byte	0
 15347 4641 46       		.uleb128 0x46
 15348 4642 73040000 		.4byte	.LASF498
 15349 4646 01       		.byte	0x1
 15350 4647 32       		.byte	0x32
 15351 4648 30460000 		.4byte	0x4630
 15352 464c 05       		.uleb128 0x5
 15353 464d 03       		.byte	0x3
 15354 464e 00000000 		.4byte	detect_thread_wa
 15355 4652 46       		.uleb128 0x46
 15356 4653 F9070000 		.4byte	.LASF499
 15357 4657 01       		.byte	0x1
 15358 4658 33       		.byte	0x33
 15359 4659 A5020000 		.4byte	0x2a5
 15360 465d 05       		.uleb128 0x5
 15361 465e 03       		.byte	0x3
ARM GAS  /tmp/ccTQOGyd.s 			page 271


 15362 465f 00000000 		.4byte	detect_tp
 15363 4663 15       		.uleb128 0x15
 15364 4664 CA000000 		.4byte	0xca
 15365 4668 74460000 		.4byte	0x4674
 15366 466c 4C       		.uleb128 0x4c
 15367 466d B8040000 		.4byte	0x4b8
 15368 4671 FF03     		.2byte	0x3ff
 15369 4673 00       		.byte	0
 15370 4674 46       		.uleb128 0x46
 15371 4675 7C220000 		.4byte	.LASF500
 15372 4679 01       		.byte	0x1
 15373 467a 36       		.byte	0x36
 15374 467b 63460000 		.4byte	0x4663
 15375 467f 05       		.uleb128 0x5
 15376 4680 03       		.byte	0x3
 15377 4681 00000000 		.4byte	send_buffer
 15378 4685 46       		.uleb128 0x46
 15379 4686 BD110000 		.4byte	.LASF501
 15380 468a 01       		.byte	0x1
 15381 468b 37       		.byte	0x37
 15382 468c 25000000 		.4byte	0x25
 15383 4690 05       		.uleb128 0x5
 15384 4691 03       		.byte	0x3
 15385 4692 00000000 		.4byte	detect_cycle_int_limit
 15386 4696 46       		.uleb128 0x46
 15387 4697 9A0C0000 		.4byte	.LASF502
 15388 469b 01       		.byte	0x1
 15389 469c 38       		.byte	0x38
 15390 469d 25000000 		.4byte	0x25
 15391 46a1 05       		.uleb128 0x5
 15392 46a2 03       		.byte	0x3
 15393 46a3 00000000 		.4byte	detect_coupling_k
 15394 46a7 46       		.uleb128 0x46
 15395 46a8 5D080000 		.4byte	.LASF503
 15396 46ac 01       		.byte	0x1
 15397 46ad 39       		.byte	0x39
 15398 46ae 25000000 		.4byte	0x25
 15399 46b2 05       		.uleb128 0x5
 15400 46b3 03       		.byte	0x3
 15401 46b4 00000000 		.4byte	detect_current
 15402 46b8 46       		.uleb128 0x46
 15403 46b9 06040000 		.4byte	.LASF504
 15404 46bd 01       		.byte	0x1
 15405 46be 3A       		.byte	0x3a
 15406 46bf 25000000 		.4byte	0x25
 15407 46c3 05       		.uleb128 0x5
 15408 46c4 03       		.byte	0x3
 15409 46c5 00000000 		.4byte	detect_min_rpm
 15410 46c9 46       		.uleb128 0x46
 15411 46ca 760A0000 		.4byte	.LASF505
 15412 46ce 01       		.byte	0x1
 15413 46cf 3B       		.byte	0x3b
 15414 46d0 25000000 		.4byte	0x25
 15415 46d4 05       		.uleb128 0x5
 15416 46d5 03       		.byte	0x3
 15417 46d6 00000000 		.4byte	detect_low_duty
 15418 46da 46       		.uleb128 0x46
ARM GAS  /tmp/ccTQOGyd.s 			page 272


 15419 46db 80020000 		.4byte	.LASF506
 15420 46df 01       		.byte	0x1
 15421 46e0 3C       		.byte	0x3c
 15422 46e1 2B0E0000 		.4byte	0xe2b
 15423 46e5 05       		.uleb128 0x5
 15424 46e6 03       		.byte	0x3
 15425 46e7 00000000 		.4byte	detect_hall_table
 15426 46eb 46       		.uleb128 0x46
 15427 46ec F6140000 		.4byte	.LASF507
 15428 46f0 01       		.byte	0x1
 15429 46f1 3D       		.byte	0x3d
 15430 46f2 2C000000 		.4byte	0x2c
 15431 46f6 05       		.uleb128 0x5
 15432 46f7 03       		.byte	0x3
 15433 46f8 00000000 		.4byte	detect_hall_res
 15434 46fc 46       		.uleb128 0x46
 15435 46fd B1010000 		.4byte	.LASF508
 15436 4701 01       		.byte	0x1
 15437 4702 3E       		.byte	0x3e
 15438 4703 84180000 		.4byte	0x1884
 15439 4707 05       		.uleb128 0x5
 15440 4708 03       		.byte	0x3
 15441 4709 00000000 		.4byte	send_func
 15442 470d 46       		.uleb128 0x46
 15443 470e 9D020000 		.4byte	.LASF509
 15444 4712 01       		.byte	0x1
 15445 4713 3F       		.byte	0x3f
 15446 4714 84180000 		.4byte	0x1884
 15447 4718 05       		.uleb128 0x5
 15448 4719 03       		.byte	0x3
 15449 471a 00000000 		.4byte	send_func_last
 15450 471e 46       		.uleb128 0x46
 15451 471f 52030000 		.4byte	.LASF510
 15452 4723 01       		.byte	0x1
 15453 4724 40       		.byte	0x40
 15454 4725 84180000 		.4byte	0x1884
 15455 4729 05       		.uleb128 0x5
 15456 472a 03       		.byte	0x3
 15457 472b 00000000 		.4byte	appdata_func
 15458 472f 46       		.uleb128 0x46
 15459 4730 0A1D0000 		.4byte	.LASF511
 15460 4734 01       		.byte	0x1
 15461 4735 41       		.byte	0x41
 15462 4736 A2080000 		.4byte	0x8a2
 15463 473a 05       		.uleb128 0x5
 15464 473b 03       		.byte	0x3
 15465 473c 00000000 		.4byte	display_position_mode
 15466 4740 4D       		.uleb128 0x4d
 15467 4741 21210000 		.4byte	.LASF512
 15468 4745 14       		.byte	0x14
 15469 4746 A706     		.2byte	0x6a7
 15470 4748 17010000 		.4byte	0x117
 15471 474c 4E       		.uleb128 0x4e
 15472 474d 636800   		.ascii	"ch\000"
 15473 4750 09       		.byte	0x9
 15474 4751 0902     		.2byte	0x209
 15475 4753 51040000 		.4byte	0x451
ARM GAS  /tmp/ccTQOGyd.s 			page 273


 15476 4757 15       		.uleb128 0x15
 15477 4758 E0000000 		.4byte	0xe0
 15478 475c 62470000 		.4byte	0x4762
 15479 4760 4F       		.uleb128 0x4f
 15480 4761 00       		.byte	0
 15481 4762 50       		.uleb128 0x50
 15482 4763 38160000 		.4byte	.LASF513
 15483 4767 15       		.byte	0x15
 15484 4768 55       		.byte	0x55
 15485 4769 6D470000 		.4byte	0x476d
 15486 476d 05       		.uleb128 0x5
 15487 476e 57470000 		.4byte	0x4757
 15488 4772 51       		.uleb128 0x51
 15489 4773 FE260000 		.4byte	.LASF514
 15490 4777 16       		.byte	0x16
 15491 4778 8B       		.byte	0x8b
 15492 4779 69010000 		.4byte	0x169
 15493 477d 87470000 		.4byte	0x4787
 15494 4781 0D       		.uleb128 0xd
 15495 4782 69010000 		.4byte	0x169
 15496 4786 00       		.byte	0
 15497 4787 51       		.uleb128 0x51
 15498 4788 68120000 		.4byte	.LASF515
 15499 478c 17       		.byte	0x17
 15500 478d AA       		.byte	0xaa
 15501 478e 240E0000 		.4byte	0xe24
 15502 4792 BA470000 		.4byte	0x47ba
 15503 4796 0D       		.uleb128 0xd
 15504 4797 25000000 		.4byte	0x25
 15505 479b 0D       		.uleb128 0xd
 15506 479c 25000000 		.4byte	0x25
 15507 47a0 0D       		.uleb128 0xd
 15508 47a1 25000000 		.4byte	0x25
 15509 47a5 0D       		.uleb128 0xd
 15510 47a6 8E1B0000 		.4byte	0x1b8e
 15511 47aa 0D       		.uleb128 0xd
 15512 47ab 8E1B0000 		.4byte	0x1b8e
 15513 47af 0D       		.uleb128 0xd
 15514 47b0 BA470000 		.4byte	0x47ba
 15515 47b4 0D       		.uleb128 0xd
 15516 47b5 C0470000 		.4byte	0x47c0
 15517 47b9 00       		.byte	0
 15518 47ba 0A       		.uleb128 0xa
 15519 47bb 04       		.byte	0x4
 15520 47bc BF000000 		.4byte	0xbf
 15521 47c0 0A       		.uleb128 0xa
 15522 47c1 04       		.byte	0x4
 15523 47c2 2C000000 		.4byte	0x2c
 15524 47c6 52       		.uleb128 0x52
 15525 47c7 8E1A0000 		.4byte	.LASF517
 15526 47cb 18       		.byte	0x18
 15527 47cc 1B       		.byte	0x1b
 15528 47cd E1470000 		.4byte	0x47e1
 15529 47d1 0D       		.uleb128 0xd
 15530 47d2 68070000 		.4byte	0x768
 15531 47d6 0D       		.uleb128 0xd
 15532 47d7 EB000000 		.4byte	0xeb
ARM GAS  /tmp/ccTQOGyd.s 			page 274


 15533 47db 0D       		.uleb128 0xd
 15534 47dc E1470000 		.4byte	0x47e1
 15535 47e0 00       		.byte	0
 15536 47e1 0A       		.uleb128 0xa
 15537 47e2 04       		.byte	0x4
 15538 47e3 EB000000 		.4byte	0xeb
 15539 47e7 51       		.uleb128 0x51
 15540 47e8 81070000 		.4byte	.LASF518
 15541 47ec 0F       		.byte	0xf
 15542 47ed 89       		.byte	0x89
 15543 47ee A5020000 		.4byte	0x2a5
 15544 47f2 10480000 		.4byte	0x4810
 15545 47f6 0D       		.uleb128 0xd
 15546 47f7 82030000 		.4byte	0x382
 15547 47fb 0D       		.uleb128 0xd
 15548 47fc 0C010000 		.4byte	0x10c
 15549 4800 0D       		.uleb128 0xd
 15550 4801 53010000 		.4byte	0x153
 15551 4805 0D       		.uleb128 0xd
 15552 4806 4C070000 		.4byte	0x74c
 15553 480a 0D       		.uleb128 0xd
 15554 480b 82030000 		.4byte	0x382
 15555 480f 00       		.byte	0
 15556 4810 53       		.uleb128 0x53
 15557 4811 60060000 		.4byte	.LASF519
 15558 4815 19       		.byte	0x19
 15559 4816 2B01     		.2byte	0x12b
 15560 4818 2C000000 		.4byte	0x2c
 15561 481c 35480000 		.4byte	0x4835
 15562 4820 0D       		.uleb128 0xd
 15563 4821 69160000 		.4byte	0x1669
 15564 4825 0D       		.uleb128 0xd
 15565 4826 0C010000 		.4byte	0x10c
 15566 482a 0D       		.uleb128 0xd
 15567 482b 1A070000 		.4byte	0x71a
 15568 482f 0D       		.uleb128 0xd
 15569 4830 7D160000 		.4byte	0x167d
 15570 4834 00       		.byte	0
 15571 4835 54       		.uleb128 0x54
 15572 4836 04070000 		.4byte	.LASF520
 15573 483a 82030000 		.4byte	0x382
 15574 483e 52480000 		.4byte	0x4852
 15575 4842 0D       		.uleb128 0xd
 15576 4843 82030000 		.4byte	0x382
 15577 4847 0D       		.uleb128 0xd
 15578 4848 52480000 		.4byte	0x4852
 15579 484c 0D       		.uleb128 0xd
 15580 484d B8040000 		.4byte	0x4b8
 15581 4851 00       		.byte	0
 15582 4852 0A       		.uleb128 0xa
 15583 4853 04       		.byte	0x4
 15584 4854 58480000 		.4byte	0x4858
 15585 4858 55       		.uleb128 0x55
 15586 4859 52       		.uleb128 0x52
 15587 485a 970F0000 		.4byte	.LASF521
 15588 485e 18       		.byte	0x18
 15589 485f 1C       		.byte	0x1c
ARM GAS  /tmp/ccTQOGyd.s 			page 275


 15590 4860 74480000 		.4byte	0x4874
 15591 4864 0D       		.uleb128 0xd
 15592 4865 68070000 		.4byte	0x768
 15593 4869 0D       		.uleb128 0xd
 15594 486a F6000000 		.4byte	0xf6
 15595 486e 0D       		.uleb128 0xd
 15596 486f E1470000 		.4byte	0x47e1
 15597 4873 00       		.byte	0
 15598 4874 52       		.uleb128 0x52
 15599 4875 F61F0000 		.4byte	.LASF522
 15600 4879 18       		.byte	0x18
 15601 487a 1F       		.byte	0x1f
 15602 487b 8F480000 		.4byte	0x488f
 15603 487f 0D       		.uleb128 0xd
 15604 4880 68070000 		.4byte	0x768
 15605 4884 0D       		.uleb128 0xd
 15606 4885 25000000 		.4byte	0x25
 15607 4889 0D       		.uleb128 0xd
 15608 488a E1470000 		.4byte	0x47e1
 15609 488e 00       		.byte	0
 15610 488f 52       		.uleb128 0x52
 15611 4890 130D0000 		.4byte	.LASF523
 15612 4894 18       		.byte	0x18
 15613 4895 1A       		.byte	0x1a
 15614 4896 AA480000 		.4byte	0x48aa
 15615 489a 0D       		.uleb128 0xd
 15616 489b 68070000 		.4byte	0x768
 15617 489f 0D       		.uleb128 0xd
 15618 48a0 E0000000 		.4byte	0xe0
 15619 48a4 0D       		.uleb128 0xd
 15620 48a5 E1470000 		.4byte	0x47e1
 15621 48a9 00       		.byte	0
 15622 48aa 56       		.uleb128 0x56
 15623 48ab F8210000 		.4byte	.LASF535
 15624 48af 15       		.byte	0x15
 15625 48b0 1C       		.byte	0x1c
 15626 48b1 B5480000 		.4byte	0x48b5
 15627 48b5 0A       		.uleb128 0xa
 15628 48b6 04       		.byte	0x4
 15629 48b7 BB480000 		.4byte	0x48bb
 15630 48bb 14       		.uleb128 0x14
 15631 48bc C0480000 		.4byte	0x48c0
 15632 48c0 05       		.uleb128 0x5
 15633 48c1 4B0E0000 		.4byte	0xe4b
 15634 48c5 52       		.uleb128 0x52
 15635 48c6 E1100000 		.4byte	.LASF524
 15636 48ca 15       		.byte	0x15
 15637 48cb 1D       		.byte	0x1d
 15638 48cc D6480000 		.4byte	0x48d6
 15639 48d0 0D       		.uleb128 0xd
 15640 48d1 D6480000 		.4byte	0x48d6
 15641 48d5 00       		.byte	0
 15642 48d6 0A       		.uleb128 0xa
 15643 48d7 04       		.byte	0x4
 15644 48d8 4B0E0000 		.4byte	0xe4b
 15645 48dc 51       		.uleb128 0x51
 15646 48dd 201D0000 		.4byte	.LASF525
ARM GAS  /tmp/ccTQOGyd.s 			page 276


 15647 48e1 1A       		.byte	0x1a
 15648 48e2 47       		.byte	0x47
 15649 48e3 240E0000 		.4byte	0xe24
 15650 48e7 F6480000 		.4byte	0x48f6
 15651 48eb 0D       		.uleb128 0xd
 15652 48ec 8E1B0000 		.4byte	0x1b8e
 15653 48f0 0D       		.uleb128 0xd
 15654 48f1 8E1B0000 		.4byte	0x1b8e
 15655 48f5 00       		.byte	0
 15656 48f6 52       		.uleb128 0x52
 15657 48f7 03100000 		.4byte	.LASF526
 15658 48fb 18       		.byte	0x18
 15659 48fc 1E       		.byte	0x1e
 15660 48fd 16490000 		.4byte	0x4916
 15661 4901 0D       		.uleb128 0xd
 15662 4902 68070000 		.4byte	0x768
 15663 4906 0D       		.uleb128 0xd
 15664 4907 25000000 		.4byte	0x25
 15665 490b 0D       		.uleb128 0xd
 15666 490c 25000000 		.4byte	0x25
 15667 4910 0D       		.uleb128 0xd
 15668 4911 E1470000 		.4byte	0x47e1
 15669 4915 00       		.byte	0
 15670 4916 51       		.uleb128 0x51
 15671 4917 DF250000 		.4byte	.LASF527
 15672 491b 18       		.byte	0x18
 15673 491c 25       		.byte	0x25
 15674 491d 25000000 		.4byte	0x25
 15675 4921 35490000 		.4byte	0x4935
 15676 4925 0D       		.uleb128 0xd
 15677 4926 6E070000 		.4byte	0x76e
 15678 492a 0D       		.uleb128 0xd
 15679 492b 25000000 		.4byte	0x25
 15680 492f 0D       		.uleb128 0xd
 15681 4930 E1470000 		.4byte	0x47e1
 15682 4934 00       		.byte	0
 15683 4935 51       		.uleb128 0x51
 15684 4936 B8000000 		.4byte	.LASF528
 15685 493a 17       		.byte	0x17
 15686 493b AC       		.byte	0xac
 15687 493c 240E0000 		.4byte	0xe24
 15688 4940 5E490000 		.4byte	0x495e
 15689 4944 0D       		.uleb128 0xd
 15690 4945 25000000 		.4byte	0x25
 15691 4949 0D       		.uleb128 0xd
 15692 494a 25000000 		.4byte	0x25
 15693 494e 0D       		.uleb128 0xd
 15694 494f 25000000 		.4byte	0x25
 15695 4953 0D       		.uleb128 0xd
 15696 4954 25000000 		.4byte	0x25
 15697 4958 0D       		.uleb128 0xd
 15698 4959 8E1B0000 		.4byte	0x1b8e
 15699 495d 00       		.byte	0
 15700 495e 51       		.uleb128 0x51
 15701 495f 38090000 		.4byte	.LASF529
 15702 4963 1A       		.byte	0x1a
 15703 4964 48       		.byte	0x48
ARM GAS  /tmp/ccTQOGyd.s 			page 277


 15704 4965 240E0000 		.4byte	0xe24
 15705 4969 78490000 		.4byte	0x4978
 15706 496d 0D       		.uleb128 0xd
 15707 496e 25000000 		.4byte	0x25
 15708 4972 0D       		.uleb128 0xd
 15709 4973 68070000 		.4byte	0x768
 15710 4977 00       		.byte	0
 15711 4978 52       		.uleb128 0x52
 15712 4979 17250000 		.4byte	.LASF530
 15713 497d 1A       		.byte	0x1a
 15714 497e 44       		.byte	0x44
 15715 497f 9D490000 		.4byte	0x499d
 15716 4983 0D       		.uleb128 0xd
 15717 4984 25000000 		.4byte	0x25
 15718 4988 0D       		.uleb128 0xd
 15719 4989 240E0000 		.4byte	0xe24
 15720 498d 0D       		.uleb128 0xd
 15721 498e 8E1B0000 		.4byte	0x1b8e
 15722 4992 0D       		.uleb128 0xd
 15723 4993 8E1B0000 		.4byte	0x1b8e
 15724 4997 0D       		.uleb128 0xd
 15725 4998 9D490000 		.4byte	0x499d
 15726 499c 00       		.byte	0
 15727 499d 0A       		.uleb128 0xa
 15728 499e 04       		.byte	0x4
 15729 499f 240E0000 		.4byte	0xe24
 15730 49a3 51       		.uleb128 0x51
 15731 49a4 A41D0000 		.4byte	.LASF531
 15732 49a8 18       		.byte	0x18
 15733 49a9 21       		.byte	0x21
 15734 49aa E0000000 		.4byte	0xe0
 15735 49ae BD490000 		.4byte	0x49bd
 15736 49b2 0D       		.uleb128 0xd
 15737 49b3 6E070000 		.4byte	0x76e
 15738 49b7 0D       		.uleb128 0xd
 15739 49b8 E1470000 		.4byte	0x47e1
 15740 49bc 00       		.byte	0
 15741 49bd 52       		.uleb128 0x52
 15742 49be 2A170000 		.4byte	.LASF532
 15743 49c2 15       		.byte	0x15
 15744 49c3 48       		.byte	0x48
 15745 49c4 D8490000 		.4byte	0x49d8
 15746 49c8 0D       		.uleb128 0xd
 15747 49c9 38090000 		.4byte	0x938
 15748 49cd 0D       		.uleb128 0xd
 15749 49ce E0000000 		.4byte	0xe0
 15750 49d2 0D       		.uleb128 0xd
 15751 49d3 CA000000 		.4byte	0xca
 15752 49d7 00       		.byte	0
 15753 49d8 57       		.uleb128 0x57
 15754 49d9 DC1B0000 		.4byte	.LASF533
 15755 49dd 1B       		.byte	0x1b
 15756 49de 38       		.byte	0x38
 15757 49df 57       		.uleb128 0x57
 15758 49e0 64100000 		.4byte	.LASF534
 15759 49e4 1C       		.byte	0x1c
 15760 49e5 1E       		.byte	0x1e
ARM GAS  /tmp/ccTQOGyd.s 			page 278


 15761 49e6 56       		.uleb128 0x56
 15762 49e7 C51E0000 		.4byte	.LASF536
 15763 49eb 1D       		.byte	0x1d
 15764 49ec 1D       		.byte	0x1d
 15765 49ed 240E0000 		.4byte	0xe24
 15766 49f1 52       		.uleb128 0x52
 15767 49f2 121A0000 		.4byte	.LASF537
 15768 49f6 16       		.byte	0x16
 15769 49f7 84       		.byte	0x84
 15770 49f8 074A0000 		.4byte	0x4a07
 15771 49fc 0D       		.uleb128 0xd
 15772 49fd A5020000 		.4byte	0x2a5
 15773 4a01 0D       		.uleb128 0xd
 15774 4a02 69010000 		.4byte	0x169
 15775 4a06 00       		.byte	0
 15776 4a07 51       		.uleb128 0x51
 15777 4a08 7B140000 		.4byte	.LASF538
 15778 4a0c 18       		.byte	0x18
 15779 4a0d 22       		.byte	0x22
 15780 4a0e EB000000 		.4byte	0xeb
 15781 4a12 214A0000 		.4byte	0x4a21
 15782 4a16 0D       		.uleb128 0xd
 15783 4a17 6E070000 		.4byte	0x76e
 15784 4a1b 0D       		.uleb128 0xd
 15785 4a1c E1470000 		.4byte	0x47e1
 15786 4a20 00       		.byte	0
 15787 4a21 52       		.uleb128 0x52
 15788 4a22 A2210000 		.4byte	.LASF539
 15789 4a26 15       		.byte	0x15
 15790 4a27 2A       		.byte	0x2a
 15791 4a28 324A0000 		.4byte	0x4a32
 15792 4a2c 0D       		.uleb128 0xd
 15793 4a2d 25000000 		.4byte	0x25
 15794 4a31 00       		.byte	0
 15795 4a32 52       		.uleb128 0x52
 15796 4a33 76160000 		.4byte	.LASF540
 15797 4a37 15       		.byte	0x15
 15798 4a38 29       		.byte	0x29
 15799 4a39 434A0000 		.4byte	0x4a43
 15800 4a3d 0D       		.uleb128 0xd
 15801 4a3e 25000000 		.4byte	0x25
 15802 4a42 00       		.byte	0
 15803 4a43 52       		.uleb128 0x52
 15804 4a44 57250000 		.4byte	.LASF541
 15805 4a48 15       		.byte	0x15
 15806 4a49 25       		.byte	0x25
 15807 4a4a 544A0000 		.4byte	0x4a54
 15808 4a4e 0D       		.uleb128 0xd
 15809 4a4f 25000000 		.4byte	0x25
 15810 4a53 00       		.byte	0
 15811 4a54 56       		.uleb128 0x56
 15812 4a55 AC190000 		.4byte	.LASF542
 15813 4a59 15       		.byte	0x15
 15814 4a5a 49       		.byte	0x49
 15815 4a5b 25000000 		.4byte	0x25
 15816 4a5f 52       		.uleb128 0x52
 15817 4a60 65140000 		.4byte	.LASF543
ARM GAS  /tmp/ccTQOGyd.s 			page 279


 15818 4a64 18       		.byte	0x18
 15819 4a65 1D       		.byte	0x1d
 15820 4a66 7F4A0000 		.4byte	0x4a7f
 15821 4a6a 0D       		.uleb128 0xd
 15822 4a6b 68070000 		.4byte	0x768
 15823 4a6f 0D       		.uleb128 0xd
 15824 4a70 25000000 		.4byte	0x25
 15825 4a74 0D       		.uleb128 0xd
 15826 4a75 25000000 		.4byte	0x25
 15827 4a79 0D       		.uleb128 0xd
 15828 4a7a E1470000 		.4byte	0x47e1
 15829 4a7e 00       		.byte	0
 15830 4a7f 56       		.uleb128 0x56
 15831 4a80 FB130000 		.4byte	.LASF544
 15832 4a84 15       		.byte	0x15
 15833 4a85 4A       		.byte	0x4a
 15834 4a86 25000000 		.4byte	0x25
 15835 4a8a 56       		.uleb128 0x56
 15836 4a8b AB090000 		.4byte	.LASF545
 15837 4a8f 15       		.byte	0x15
 15838 4a90 41       		.byte	0x41
 15839 4a91 25000000 		.4byte	0x25
 15840 4a95 56       		.uleb128 0x56
 15841 4a96 D40C0000 		.4byte	.LASF546
 15842 4a9a 15       		.byte	0x15
 15843 4a9b 42       		.byte	0x42
 15844 4a9c 25000000 		.4byte	0x25
 15845 4aa0 56       		.uleb128 0x56
 15846 4aa1 37130000 		.4byte	.LASF547
 15847 4aa5 15       		.byte	0x15
 15848 4aa6 43       		.byte	0x43
 15849 4aa7 25000000 		.4byte	0x25
 15850 4aab 56       		.uleb128 0x56
 15851 4aac 4C1A0000 		.4byte	.LASF548
 15852 4ab0 15       		.byte	0x15
 15853 4ab1 44       		.byte	0x44
 15854 4ab2 25000000 		.4byte	0x25
 15855 4ab6 56       		.uleb128 0x56
 15856 4ab7 EA0D0000 		.4byte	.LASF549
 15857 4abb 15       		.byte	0x15
 15858 4abc 31       		.byte	0x31
 15859 4abd 25000000 		.4byte	0x25
 15860 4ac1 56       		.uleb128 0x56
 15861 4ac2 FE0C0000 		.4byte	.LASF550
 15862 4ac6 15       		.byte	0x15
 15863 4ac7 33       		.byte	0x33
 15864 4ac8 25000000 		.4byte	0x25
 15865 4acc 51       		.uleb128 0x51
 15866 4acd B3230000 		.4byte	.LASF551
 15867 4ad1 15       		.byte	0x15
 15868 4ad2 34       		.byte	0x34
 15869 4ad3 25000000 		.4byte	0x25
 15870 4ad7 E14A0000 		.4byte	0x4ae1
 15871 4adb 0D       		.uleb128 0xd
 15872 4adc 240E0000 		.4byte	0xe24
 15873 4ae0 00       		.byte	0
 15874 4ae1 51       		.uleb128 0x51
ARM GAS  /tmp/ccTQOGyd.s 			page 280


 15875 4ae2 6B1A0000 		.4byte	.LASF552
 15876 4ae6 15       		.byte	0x15
 15877 4ae7 35       		.byte	0x35
 15878 4ae8 25000000 		.4byte	0x25
 15879 4aec F64A0000 		.4byte	0x4af6
 15880 4af0 0D       		.uleb128 0xd
 15881 4af1 240E0000 		.4byte	0xe24
 15882 4af5 00       		.byte	0
 15883 4af6 51       		.uleb128 0x51
 15884 4af7 89180000 		.4byte	.LASF553
 15885 4afb 15       		.byte	0x15
 15886 4afc 36       		.byte	0x36
 15887 4afd 25000000 		.4byte	0x25
 15888 4b01 0B4B0000 		.4byte	0x4b0b
 15889 4b05 0D       		.uleb128 0xd
 15890 4b06 240E0000 		.4byte	0xe24
 15891 4b0a 00       		.byte	0
 15892 4b0b 51       		.uleb128 0x51
 15893 4b0c 6E260000 		.4byte	.LASF554
 15894 4b10 15       		.byte	0x15
 15895 4b11 37       		.byte	0x37
 15896 4b12 25000000 		.4byte	0x25
 15897 4b16 204B0000 		.4byte	0x4b20
 15898 4b1a 0D       		.uleb128 0xd
 15899 4b1b 240E0000 		.4byte	0xe24
 15900 4b1f 00       		.byte	0
 15901 4b20 51       		.uleb128 0x51
 15902 4b21 D1180000 		.4byte	.LASF555
 15903 4b25 15       		.byte	0x15
 15904 4b26 3E       		.byte	0x3e
 15905 4b27 2C000000 		.4byte	0x2c
 15906 4b2b 354B0000 		.4byte	0x4b35
 15907 4b2f 0D       		.uleb128 0xd
 15908 4b30 240E0000 		.4byte	0xe24
 15909 4b34 00       		.byte	0
 15910 4b35 51       		.uleb128 0x51
 15911 4b36 671C0000 		.4byte	.LASF556
 15912 4b3a 15       		.byte	0x15
 15913 4b3b 3F       		.byte	0x3f
 15914 4b3c 2C000000 		.4byte	0x2c
 15915 4b40 4A4B0000 		.4byte	0x4b4a
 15916 4b44 0D       		.uleb128 0xd
 15917 4b45 240E0000 		.4byte	0xe24
 15918 4b49 00       		.byte	0
 15919 4b4a 56       		.uleb128 0x56
 15920 4b4b 20100000 		.4byte	.LASF557
 15921 4b4f 15       		.byte	0x15
 15922 4b50 22       		.byte	0x22
 15923 4b51 64080000 		.4byte	0x864
 15924 4b55 51       		.uleb128 0x51
 15925 4b56 3E1F0000 		.4byte	.LASF558
 15926 4b5a 18       		.byte	0x18
 15927 4b5b 23       		.byte	0x23
 15928 4b5c F6000000 		.4byte	0xf6
 15929 4b60 6F4B0000 		.4byte	0x4b6f
 15930 4b64 0D       		.uleb128 0xd
 15931 4b65 6E070000 		.4byte	0x76e
ARM GAS  /tmp/ccTQOGyd.s 			page 281


 15932 4b69 0D       		.uleb128 0xd
 15933 4b6a E1470000 		.4byte	0x47e1
 15934 4b6e 00       		.byte	0
 15935 4b6f 51       		.uleb128 0x51
 15936 4b70 BD020000 		.4byte	.LASF559
 15937 4b74 1E       		.byte	0x1e
 15938 4b75 1B       		.byte	0x1b
 15939 4b76 E0000000 		.4byte	0xe0
 15940 4b7a 8E4B0000 		.4byte	0x4b8e
 15941 4b7e 0D       		.uleb128 0xd
 15942 4b7f F6000000 		.4byte	0xf6
 15943 4b83 0D       		.uleb128 0xd
 15944 4b84 68070000 		.4byte	0x768
 15945 4b88 0D       		.uleb128 0xd
 15946 4b89 F6000000 		.4byte	0xf6
 15947 4b8d 00       		.byte	0
 15948 4b8e 51       		.uleb128 0x51
 15949 4b8f EF1C0000 		.4byte	.LASF560
 15950 4b93 1E       		.byte	0x1e
 15951 4b94 1A       		.byte	0x1a
 15952 4b95 E0000000 		.4byte	0xe0
 15953 4b99 A34B0000 		.4byte	0x4ba3
 15954 4b9d 0D       		.uleb128 0xd
 15955 4b9e F6000000 		.4byte	0xf6
 15956 4ba2 00       		.byte	0
 15957 4ba3 57       		.uleb128 0x57
 15958 4ba4 26180000 		.4byte	.LASF561
 15959 4ba8 1E       		.byte	0x1e
 15960 4ba9 1C       		.byte	0x1c
 15961 4baa 56       		.uleb128 0x56
 15962 4bab C91F0000 		.4byte	.LASF562
 15963 4baf 1D       		.byte	0x1d
 15964 4bb0 1F       		.byte	0x1f
 15965 4bb1 EB000000 		.4byte	0xeb
 15966 4bb5 52       		.uleb128 0x52
 15967 4bb6 8C140000 		.4byte	.LASF563
 15968 4bba 1F       		.byte	0x1f
 15969 4bbb 1C       		.byte	0x1c
 15970 4bbc C64B0000 		.4byte	0x4bc6
 15971 4bc0 0D       		.uleb128 0xd
 15972 4bc1 2C000000 		.4byte	0x2c
 15973 4bc5 00       		.byte	0
 15974 4bc6 51       		.uleb128 0x51
 15975 4bc7 89130000 		.4byte	.LASF564
 15976 4bcb 18       		.byte	0x18
 15977 4bcc 20       		.byte	0x20
 15978 4bcd D5000000 		.4byte	0xd5
 15979 4bd1 E04B0000 		.4byte	0x4be0
 15980 4bd5 0D       		.uleb128 0xd
 15981 4bd6 6E070000 		.4byte	0x76e
 15982 4bda 0D       		.uleb128 0xd
 15983 4bdb E1470000 		.4byte	0x47e1
 15984 4bdf 00       		.byte	0
 15985 4be0 52       		.uleb128 0x52
 15986 4be1 190A0000 		.4byte	.LASF565
 15987 4be5 20       		.byte	0x20
 15988 4be6 33       		.byte	0x33
ARM GAS  /tmp/ccTQOGyd.s 			page 282


 15989 4be7 F14B0000 		.4byte	0x4bf1
 15990 4beb 0D       		.uleb128 0xd
 15991 4bec F14B0000 		.4byte	0x4bf1
 15992 4bf0 00       		.byte	0
 15993 4bf1 0A       		.uleb128 0xa
 15994 4bf2 04       		.byte	0x4
 15995 4bf3 FC150000 		.4byte	0x15fc
 15996 4bf7 52       		.uleb128 0x52
 15997 4bf8 451C0000 		.4byte	.LASF566
 15998 4bfc 21       		.byte	0x21
 15999 4bfd 22       		.byte	0x22
 16000 4bfe 174C0000 		.4byte	0x4c17
 16001 4c02 0D       		.uleb128 0xd
 16002 4c03 CA000000 		.4byte	0xca
 16003 4c07 0D       		.uleb128 0xd
 16004 4c08 68070000 		.4byte	0x768
 16005 4c0c 0D       		.uleb128 0xd
 16006 4c0d B8000000 		.4byte	0xb8
 16007 4c11 0D       		.uleb128 0xd
 16008 4c12 240E0000 		.4byte	0xe24
 16009 4c16 00       		.byte	0
 16010 4c17 56       		.uleb128 0x56
 16011 4c18 65230000 		.4byte	.LASF567
 16012 4c1c 20       		.byte	0x20
 16013 4c1d 32       		.byte	0x32
 16014 4c1e 25000000 		.4byte	0x25
 16015 4c22 56       		.uleb128 0x56
 16016 4c23 59040000 		.4byte	.LASF568
 16017 4c27 20       		.byte	0x20
 16018 4c28 26       		.byte	0x26
 16019 4c29 25000000 		.4byte	0x25
 16020 4c2d 56       		.uleb128 0x56
 16021 4c2e CA260000 		.4byte	.LASF569
 16022 4c32 20       		.byte	0x20
 16023 4c33 27       		.byte	0x27
 16024 4c34 25000000 		.4byte	0x25
 16025 4c38 56       		.uleb128 0x56
 16026 4c39 CE060000 		.4byte	.LASF570
 16027 4c3d 20       		.byte	0x20
 16028 4c3e 28       		.byte	0x28
 16029 4c3f 25000000 		.4byte	0x25
 16030 4c43 56       		.uleb128 0x56
 16031 4c44 68150000 		.4byte	.LASF571
 16032 4c48 20       		.byte	0x20
 16033 4c49 29       		.byte	0x29
 16034 4c4a 25000000 		.4byte	0x25
 16035 4c4e 56       		.uleb128 0x56
 16036 4c4f 7C270000 		.4byte	.LASF572
 16037 4c53 20       		.byte	0x20
 16038 4c54 20       		.byte	0x20
 16039 4c55 25000000 		.4byte	0x25
 16040 4c59 51       		.uleb128 0x51
 16041 4c5a 74050000 		.4byte	.LASF573
 16042 4c5e 22       		.byte	0x22
 16043 4c5f 20       		.byte	0x20
 16044 4c60 25000000 		.4byte	0x25
 16045 4c64 6E4C0000 		.4byte	0x4c6e
ARM GAS  /tmp/ccTQOGyd.s 			page 283


 16046 4c68 0D       		.uleb128 0xd
 16047 4c69 2C000000 		.4byte	0x2c
 16048 4c6d 00       		.byte	0
 16049 4c6e 52       		.uleb128 0x52
 16050 4c6f 90050000 		.4byte	.LASF574
 16051 4c73 17       		.byte	0x17
 16052 4c74 A4       		.byte	0xa4
 16053 4c75 7F4C0000 		.4byte	0x4c7f
 16054 4c79 0D       		.uleb128 0xd
 16055 4c7a 59200000 		.4byte	0x2059
 16056 4c7e 00       		.byte	0
 16057 4c7f 56       		.uleb128 0x56
 16058 4c80 19230000 		.4byte	.LASF575
 16059 4c84 20       		.byte	0x20
 16060 4c85 1A       		.byte	0x1a
 16061 4c86 8A4C0000 		.4byte	0x4c8a
 16062 4c8a 0A       		.uleb128 0xa
 16063 4c8b 04       		.byte	0x4
 16064 4c8c 904C0000 		.4byte	0x4c90
 16065 4c90 14       		.uleb128 0x14
 16066 4c91 85140000 		.4byte	0x1485
 16067 4c95 51       		.uleb128 0x51
 16068 4c96 C1100000 		.4byte	.LASF576
 16069 4c9a 18       		.byte	0x18
 16070 4c9b 26       		.byte	0x26
 16071 4c9c 25000000 		.4byte	0x25
 16072 4ca0 AF4C0000 		.4byte	0x4caf
 16073 4ca4 0D       		.uleb128 0xd
 16074 4ca5 6E070000 		.4byte	0x76e
 16075 4ca9 0D       		.uleb128 0xd
 16076 4caa E1470000 		.4byte	0x47e1
 16077 4cae 00       		.byte	0
 16078 4caf 51       		.uleb128 0x51
 16079 4cb0 DA200000 		.4byte	.LASF577
 16080 4cb4 17       		.byte	0x17
 16081 4cb5 A7       		.byte	0xa7
 16082 4cb6 240E0000 		.4byte	0xe24
 16083 4cba C44C0000 		.4byte	0x4cc4
 16084 4cbe 0D       		.uleb128 0xd
 16085 4cbf 59200000 		.4byte	0x2059
 16086 4cc3 00       		.byte	0
 16087 4cc4 52       		.uleb128 0x52
 16088 4cc5 C20B0000 		.4byte	.LASF578
 16089 4cc9 20       		.byte	0x20
 16090 4cca 1B       		.byte	0x1b
 16091 4ccb D54C0000 		.4byte	0x4cd5
 16092 4ccf 0D       		.uleb128 0xd
 16093 4cd0 59200000 		.4byte	0x2059
 16094 4cd4 00       		.byte	0
 16095 4cd5 52       		.uleb128 0x52
 16096 4cd6 86250000 		.4byte	.LASF579
 16097 4cda 1C       		.byte	0x1c
 16098 4cdb 1D       		.byte	0x1d
 16099 4cdc EB4C0000 		.4byte	0x4ceb
 16100 4ce0 0D       		.uleb128 0xd
 16101 4ce1 7F010000 		.4byte	0x17f
 16102 4ce5 0D       		.uleb128 0xd
ARM GAS  /tmp/ccTQOGyd.s 			page 284


 16103 4ce6 25000000 		.4byte	0x25
 16104 4cea 00       		.byte	0
 16105 4ceb 52       		.uleb128 0x52
 16106 4cec 7F0E0000 		.4byte	.LASF580
 16107 4cf0 0F       		.byte	0xf
 16108 4cf1 96       		.byte	0x96
 16109 4cf2 FC4C0000 		.4byte	0x4cfc
 16110 4cf6 0D       		.uleb128 0xd
 16111 4cf7 7F010000 		.4byte	0x17f
 16112 4cfb 00       		.byte	0
 16113 4cfc 52       		.uleb128 0x52
 16114 4cfd 40140000 		.4byte	.LASF581
 16115 4d01 23       		.byte	0x23
 16116 4d02 1A       		.byte	0x1a
 16117 4d03 0D4D0000 		.4byte	0x4d0d
 16118 4d07 0D       		.uleb128 0xd
 16119 4d08 69160000 		.4byte	0x1669
 16120 4d0c 00       		.byte	0
 16121 4d0d 52       		.uleb128 0x52
 16122 4d0e 24220000 		.4byte	.LASF582
 16123 4d12 15       		.byte	0x15
 16124 4d13 2D       		.byte	0x2d
 16125 4d14 1E4D0000 		.4byte	0x4d1e
 16126 4d18 0D       		.uleb128 0xd
 16127 4d19 25000000 		.4byte	0x25
 16128 4d1d 00       		.byte	0
 16129 4d1e 52       		.uleb128 0x52
 16130 4d1f 58170000 		.4byte	.LASF583
 16131 4d23 17       		.byte	0x17
 16132 4d24 A5       		.byte	0xa5
 16133 4d25 2F4D0000 		.4byte	0x4d2f
 16134 4d29 0D       		.uleb128 0xd
 16135 4d2a D6480000 		.4byte	0x48d6
 16136 4d2e 00       		.byte	0
 16137 4d2f 51       		.uleb128 0x51
 16138 4d30 7E080000 		.4byte	.LASF584
 16139 4d34 24       		.byte	0x24
 16140 4d35 1D       		.byte	0x1d
 16141 4d36 2C000000 		.4byte	0x2c
 16142 4d3a 4E4D0000 		.4byte	0x4d4e
 16143 4d3e 0D       		.uleb128 0xd
 16144 4d3f 8E1B0000 		.4byte	0x1b8e
 16145 4d43 0D       		.uleb128 0xd
 16146 4d44 25000000 		.4byte	0x25
 16147 4d48 0D       		.uleb128 0xd
 16148 4d49 25000000 		.4byte	0x25
 16149 4d4d 00       		.byte	0
 16150 4d4e 51       		.uleb128 0x51
 16151 4d4f 35040000 		.4byte	.LASF585
 16152 4d53 17       		.byte	0x17
 16153 4d54 A9       		.byte	0xa9
 16154 4d55 240E0000 		.4byte	0xe24
 16155 4d59 634D0000 		.4byte	0x4d63
 16156 4d5d 0D       		.uleb128 0xd
 16157 4d5e D6480000 		.4byte	0x48d6
 16158 4d62 00       		.byte	0
 16159 4d63 52       		.uleb128 0x52
ARM GAS  /tmp/ccTQOGyd.s 			page 285


 16160 4d64 601E0000 		.4byte	.LASF586
 16161 4d68 15       		.byte	0x15
 16162 4d69 28       		.byte	0x28
 16163 4d6a 744D0000 		.4byte	0x4d74
 16164 4d6e 0D       		.uleb128 0xd
 16165 4d6f 25000000 		.4byte	0x25
 16166 4d73 00       		.byte	0
 16167 4d74 52       		.uleb128 0x52
 16168 4d75 E9060000 		.4byte	.LASF587
 16169 4d79 15       		.byte	0x15
 16170 4d7a 27       		.byte	0x27
 16171 4d7b 854D0000 		.4byte	0x4d85
 16172 4d7f 0D       		.uleb128 0xd
 16173 4d80 25000000 		.4byte	0x25
 16174 4d84 00       		.byte	0
 16175 4d85 57       		.uleb128 0x57
 16176 4d86 5D1D0000 		.4byte	.LASF588
 16177 4d8a 15       		.byte	0x15
 16178 4d8b 2F       		.byte	0x2f
 16179 4d8c 58       		.uleb128 0x58
 16180 4d8d 1C120000 		.4byte	.LASF589
 16181 4d91 25       		.byte	0x25
 16182 4d92 19       		.byte	0x19
 16183 4d93 82030000 		.4byte	0x382
 16184 4d97 0D       		.uleb128 0xd
 16185 4d98 82030000 		.4byte	0x382
 16186 4d9c 0D       		.uleb128 0xd
 16187 4d9d 2C000000 		.4byte	0x2c
 16188 4da1 0D       		.uleb128 0xd
 16189 4da2 0C010000 		.4byte	0x10c
 16190 4da6 00       		.byte	0
 16191 4da7 00       		.byte	0
 16192              		.section	.debug_abbrev,"",%progbits
 16193              	.Ldebug_abbrev0:
 16194 0000 01       		.uleb128 0x1
 16195 0001 11       		.uleb128 0x11
 16196 0002 01       		.byte	0x1
 16197 0003 25       		.uleb128 0x25
 16198 0004 0E       		.uleb128 0xe
 16199 0005 13       		.uleb128 0x13
 16200 0006 0B       		.uleb128 0xb
 16201 0007 03       		.uleb128 0x3
 16202 0008 0E       		.uleb128 0xe
 16203 0009 1B       		.uleb128 0x1b
 16204 000a 0E       		.uleb128 0xe
 16205 000b 55       		.uleb128 0x55
 16206 000c 17       		.uleb128 0x17
 16207 000d 11       		.uleb128 0x11
 16208 000e 01       		.uleb128 0x1
 16209 000f 10       		.uleb128 0x10
 16210 0010 17       		.uleb128 0x17
 16211 0011 00       		.byte	0
 16212 0012 00       		.byte	0
 16213 0013 02       		.uleb128 0x2
 16214 0014 24       		.uleb128 0x24
 16215 0015 00       		.byte	0
 16216 0016 0B       		.uleb128 0xb
ARM GAS  /tmp/ccTQOGyd.s 			page 286


 16217 0017 0B       		.uleb128 0xb
 16218 0018 3E       		.uleb128 0x3e
 16219 0019 0B       		.uleb128 0xb
 16220 001a 03       		.uleb128 0x3
 16221 001b 0E       		.uleb128 0xe
 16222 001c 00       		.byte	0
 16223 001d 00       		.byte	0
 16224 001e 03       		.uleb128 0x3
 16225 001f 24       		.uleb128 0x24
 16226 0020 00       		.byte	0
 16227 0021 0B       		.uleb128 0xb
 16228 0022 0B       		.uleb128 0xb
 16229 0023 3E       		.uleb128 0x3e
 16230 0024 0B       		.uleb128 0xb
 16231 0025 03       		.uleb128 0x3
 16232 0026 08       		.uleb128 0x8
 16233 0027 00       		.byte	0
 16234 0028 00       		.byte	0
 16235 0029 04       		.uleb128 0x4
 16236 002a 16       		.uleb128 0x16
 16237 002b 00       		.byte	0
 16238 002c 03       		.uleb128 0x3
 16239 002d 0E       		.uleb128 0xe
 16240 002e 3A       		.uleb128 0x3a
 16241 002f 0B       		.uleb128 0xb
 16242 0030 3B       		.uleb128 0x3b
 16243 0031 0B       		.uleb128 0xb
 16244 0032 49       		.uleb128 0x49
 16245 0033 13       		.uleb128 0x13
 16246 0034 00       		.byte	0
 16247 0035 00       		.byte	0
 16248 0036 05       		.uleb128 0x5
 16249 0037 35       		.uleb128 0x35
 16250 0038 00       		.byte	0
 16251 0039 49       		.uleb128 0x49
 16252 003a 13       		.uleb128 0x13
 16253 003b 00       		.byte	0
 16254 003c 00       		.byte	0
 16255 003d 06       		.uleb128 0x6
 16256 003e 13       		.uleb128 0x13
 16257 003f 01       		.byte	0x1
 16258 0040 03       		.uleb128 0x3
 16259 0041 0E       		.uleb128 0xe
 16260 0042 0B       		.uleb128 0xb
 16261 0043 0B       		.uleb128 0xb
 16262 0044 3A       		.uleb128 0x3a
 16263 0045 0B       		.uleb128 0xb
 16264 0046 3B       		.uleb128 0x3b
 16265 0047 0B       		.uleb128 0xb
 16266 0048 01       		.uleb128 0x1
 16267 0049 13       		.uleb128 0x13
 16268 004a 00       		.byte	0
 16269 004b 00       		.byte	0
 16270 004c 07       		.uleb128 0x7
 16271 004d 0D       		.uleb128 0xd
 16272 004e 00       		.byte	0
 16273 004f 03       		.uleb128 0x3
ARM GAS  /tmp/ccTQOGyd.s 			page 287


 16274 0050 0E       		.uleb128 0xe
 16275 0051 3A       		.uleb128 0x3a
 16276 0052 0B       		.uleb128 0xb
 16277 0053 3B       		.uleb128 0x3b
 16278 0054 0B       		.uleb128 0xb
 16279 0055 49       		.uleb128 0x49
 16280 0056 13       		.uleb128 0x13
 16281 0057 38       		.uleb128 0x38
 16282 0058 0B       		.uleb128 0xb
 16283 0059 00       		.byte	0
 16284 005a 00       		.byte	0
 16285 005b 08       		.uleb128 0x8
 16286 005c 0D       		.uleb128 0xd
 16287 005d 00       		.byte	0
 16288 005e 03       		.uleb128 0x3
 16289 005f 08       		.uleb128 0x8
 16290 0060 3A       		.uleb128 0x3a
 16291 0061 0B       		.uleb128 0xb
 16292 0062 3B       		.uleb128 0x3b
 16293 0063 05       		.uleb128 0x5
 16294 0064 49       		.uleb128 0x49
 16295 0065 13       		.uleb128 0x13
 16296 0066 38       		.uleb128 0x38
 16297 0067 0B       		.uleb128 0xb
 16298 0068 00       		.byte	0
 16299 0069 00       		.byte	0
 16300 006a 09       		.uleb128 0x9
 16301 006b 0D       		.uleb128 0xd
 16302 006c 00       		.byte	0
 16303 006d 03       		.uleb128 0x3
 16304 006e 0E       		.uleb128 0xe
 16305 006f 3A       		.uleb128 0x3a
 16306 0070 0B       		.uleb128 0xb
 16307 0071 3B       		.uleb128 0x3b
 16308 0072 05       		.uleb128 0x5
 16309 0073 49       		.uleb128 0x49
 16310 0074 13       		.uleb128 0x13
 16311 0075 38       		.uleb128 0x38
 16312 0076 0B       		.uleb128 0xb
 16313 0077 00       		.byte	0
 16314 0078 00       		.byte	0
 16315 0079 0A       		.uleb128 0xa
 16316 007a 0F       		.uleb128 0xf
 16317 007b 00       		.byte	0
 16318 007c 0B       		.uleb128 0xb
 16319 007d 0B       		.uleb128 0xb
 16320 007e 49       		.uleb128 0x49
 16321 007f 13       		.uleb128 0x13
 16322 0080 00       		.byte	0
 16323 0081 00       		.byte	0
 16324 0082 0B       		.uleb128 0xb
 16325 0083 13       		.uleb128 0x13
 16326 0084 01       		.byte	0x1
 16327 0085 03       		.uleb128 0x3
 16328 0086 0E       		.uleb128 0xe
 16329 0087 0B       		.uleb128 0xb
 16330 0088 0B       		.uleb128 0xb
ARM GAS  /tmp/ccTQOGyd.s 			page 288


 16331 0089 3A       		.uleb128 0x3a
 16332 008a 0B       		.uleb128 0xb
 16333 008b 3B       		.uleb128 0x3b
 16334 008c 05       		.uleb128 0x5
 16335 008d 01       		.uleb128 0x1
 16336 008e 13       		.uleb128 0x13
 16337 008f 00       		.byte	0
 16338 0090 00       		.byte	0
 16339 0091 0C       		.uleb128 0xc
 16340 0092 15       		.uleb128 0x15
 16341 0093 01       		.byte	0x1
 16342 0094 27       		.uleb128 0x27
 16343 0095 19       		.uleb128 0x19
 16344 0096 01       		.uleb128 0x1
 16345 0097 13       		.uleb128 0x13
 16346 0098 00       		.byte	0
 16347 0099 00       		.byte	0
 16348 009a 0D       		.uleb128 0xd
 16349 009b 05       		.uleb128 0x5
 16350 009c 00       		.byte	0
 16351 009d 49       		.uleb128 0x49
 16352 009e 13       		.uleb128 0x13
 16353 009f 00       		.byte	0
 16354 00a0 00       		.byte	0
 16355 00a1 0E       		.uleb128 0xe
 16356 00a2 0F       		.uleb128 0xf
 16357 00a3 00       		.byte	0
 16358 00a4 0B       		.uleb128 0xb
 16359 00a5 0B       		.uleb128 0xb
 16360 00a6 00       		.byte	0
 16361 00a7 00       		.byte	0
 16362 00a8 0F       		.uleb128 0xf
 16363 00a9 13       		.uleb128 0x13
 16364 00aa 01       		.byte	0x1
 16365 00ab 03       		.uleb128 0x3
 16366 00ac 0E       		.uleb128 0xe
 16367 00ad 0B       		.uleb128 0xb
 16368 00ae 05       		.uleb128 0x5
 16369 00af 3A       		.uleb128 0x3a
 16370 00b0 0B       		.uleb128 0xb
 16371 00b1 3B       		.uleb128 0x3b
 16372 00b2 05       		.uleb128 0x5
 16373 00b3 01       		.uleb128 0x1
 16374 00b4 13       		.uleb128 0x13
 16375 00b5 00       		.byte	0
 16376 00b6 00       		.byte	0
 16377 00b7 10       		.uleb128 0x10
 16378 00b8 0D       		.uleb128 0xd
 16379 00b9 00       		.byte	0
 16380 00ba 03       		.uleb128 0x3
 16381 00bb 08       		.uleb128 0x8
 16382 00bc 3A       		.uleb128 0x3a
 16383 00bd 0B       		.uleb128 0xb
 16384 00be 3B       		.uleb128 0x3b
 16385 00bf 0B       		.uleb128 0xb
 16386 00c0 49       		.uleb128 0x49
 16387 00c1 13       		.uleb128 0x13
ARM GAS  /tmp/ccTQOGyd.s 			page 289


 16388 00c2 38       		.uleb128 0x38
 16389 00c3 0B       		.uleb128 0xb
 16390 00c4 00       		.byte	0
 16391 00c5 00       		.byte	0
 16392 00c6 11       		.uleb128 0x11
 16393 00c7 13       		.uleb128 0x13
 16394 00c8 01       		.byte	0x1
 16395 00c9 0B       		.uleb128 0xb
 16396 00ca 0B       		.uleb128 0xb
 16397 00cb 3A       		.uleb128 0x3a
 16398 00cc 0B       		.uleb128 0xb
 16399 00cd 3B       		.uleb128 0x3b
 16400 00ce 0B       		.uleb128 0xb
 16401 00cf 01       		.uleb128 0x1
 16402 00d0 13       		.uleb128 0x13
 16403 00d1 00       		.byte	0
 16404 00d2 00       		.byte	0
 16405 00d3 12       		.uleb128 0x12
 16406 00d4 17       		.uleb128 0x17
 16407 00d5 01       		.byte	0x1
 16408 00d6 0B       		.uleb128 0xb
 16409 00d7 0B       		.uleb128 0xb
 16410 00d8 3A       		.uleb128 0x3a
 16411 00d9 0B       		.uleb128 0xb
 16412 00da 3B       		.uleb128 0x3b
 16413 00db 0B       		.uleb128 0xb
 16414 00dc 01       		.uleb128 0x1
 16415 00dd 13       		.uleb128 0x13
 16416 00de 00       		.byte	0
 16417 00df 00       		.byte	0
 16418 00e0 13       		.uleb128 0x13
 16419 00e1 0D       		.uleb128 0xd
 16420 00e2 00       		.byte	0
 16421 00e3 03       		.uleb128 0x3
 16422 00e4 0E       		.uleb128 0xe
 16423 00e5 3A       		.uleb128 0x3a
 16424 00e6 0B       		.uleb128 0xb
 16425 00e7 3B       		.uleb128 0x3b
 16426 00e8 05       		.uleb128 0x5
 16427 00e9 49       		.uleb128 0x49
 16428 00ea 13       		.uleb128 0x13
 16429 00eb 00       		.byte	0
 16430 00ec 00       		.byte	0
 16431 00ed 14       		.uleb128 0x14
 16432 00ee 26       		.uleb128 0x26
 16433 00ef 00       		.byte	0
 16434 00f0 49       		.uleb128 0x49
 16435 00f1 13       		.uleb128 0x13
 16436 00f2 00       		.byte	0
 16437 00f3 00       		.byte	0
 16438 00f4 15       		.uleb128 0x15
 16439 00f5 01       		.uleb128 0x1
 16440 00f6 01       		.byte	0x1
 16441 00f7 49       		.uleb128 0x49
 16442 00f8 13       		.uleb128 0x13
 16443 00f9 01       		.uleb128 0x1
 16444 00fa 13       		.uleb128 0x13
ARM GAS  /tmp/ccTQOGyd.s 			page 290


 16445 00fb 00       		.byte	0
 16446 00fc 00       		.byte	0
 16447 00fd 16       		.uleb128 0x16
 16448 00fe 21       		.uleb128 0x21
 16449 00ff 00       		.byte	0
 16450 0100 49       		.uleb128 0x49
 16451 0101 13       		.uleb128 0x13
 16452 0102 2F       		.uleb128 0x2f
 16453 0103 0B       		.uleb128 0xb
 16454 0104 00       		.byte	0
 16455 0105 00       		.byte	0
 16456 0106 17       		.uleb128 0x17
 16457 0107 04       		.uleb128 0x4
 16458 0108 01       		.byte	0x1
 16459 0109 0B       		.uleb128 0xb
 16460 010a 0B       		.uleb128 0xb
 16461 010b 3A       		.uleb128 0x3a
 16462 010c 0B       		.uleb128 0xb
 16463 010d 3B       		.uleb128 0x3b
 16464 010e 0B       		.uleb128 0xb
 16465 010f 01       		.uleb128 0x1
 16466 0110 13       		.uleb128 0x13
 16467 0111 00       		.byte	0
 16468 0112 00       		.byte	0
 16469 0113 18       		.uleb128 0x18
 16470 0114 28       		.uleb128 0x28
 16471 0115 00       		.byte	0
 16472 0116 03       		.uleb128 0x3
 16473 0117 0E       		.uleb128 0xe
 16474 0118 1C       		.uleb128 0x1c
 16475 0119 0D       		.uleb128 0xd
 16476 011a 00       		.byte	0
 16477 011b 00       		.byte	0
 16478 011c 19       		.uleb128 0x19
 16479 011d 13       		.uleb128 0x13
 16480 011e 01       		.byte	0x1
 16481 011f 0B       		.uleb128 0xb
 16482 0120 05       		.uleb128 0x5
 16483 0121 3A       		.uleb128 0x3a
 16484 0122 0B       		.uleb128 0xb
 16485 0123 3B       		.uleb128 0x3b
 16486 0124 0B       		.uleb128 0xb
 16487 0125 01       		.uleb128 0x1
 16488 0126 13       		.uleb128 0x13
 16489 0127 00       		.byte	0
 16490 0128 00       		.byte	0
 16491 0129 1A       		.uleb128 0x1a
 16492 012a 0D       		.uleb128 0xd
 16493 012b 00       		.byte	0
 16494 012c 03       		.uleb128 0x3
 16495 012d 0E       		.uleb128 0xe
 16496 012e 3A       		.uleb128 0x3a
 16497 012f 0B       		.uleb128 0xb
 16498 0130 3B       		.uleb128 0x3b
 16499 0131 0B       		.uleb128 0xb
 16500 0132 49       		.uleb128 0x49
 16501 0133 13       		.uleb128 0x13
ARM GAS  /tmp/ccTQOGyd.s 			page 291


 16502 0134 38       		.uleb128 0x38
 16503 0135 05       		.uleb128 0x5
 16504 0136 00       		.byte	0
 16505 0137 00       		.byte	0
 16506 0138 1B       		.uleb128 0x1b
 16507 0139 16       		.uleb128 0x16
 16508 013a 00       		.byte	0
 16509 013b 03       		.uleb128 0x3
 16510 013c 0E       		.uleb128 0xe
 16511 013d 3A       		.uleb128 0x3a
 16512 013e 0B       		.uleb128 0xb
 16513 013f 3B       		.uleb128 0x3b
 16514 0140 05       		.uleb128 0x5
 16515 0141 49       		.uleb128 0x49
 16516 0142 13       		.uleb128 0x13
 16517 0143 00       		.byte	0
 16518 0144 00       		.byte	0
 16519 0145 1C       		.uleb128 0x1c
 16520 0146 04       		.uleb128 0x4
 16521 0147 01       		.byte	0x1
 16522 0148 0B       		.uleb128 0xb
 16523 0149 0B       		.uleb128 0xb
 16524 014a 3A       		.uleb128 0x3a
 16525 014b 0B       		.uleb128 0xb
 16526 014c 3B       		.uleb128 0x3b
 16527 014d 05       		.uleb128 0x5
 16528 014e 01       		.uleb128 0x1
 16529 014f 13       		.uleb128 0x13
 16530 0150 00       		.byte	0
 16531 0151 00       		.byte	0
 16532 0152 1D       		.uleb128 0x1d
 16533 0153 13       		.uleb128 0x13
 16534 0154 01       		.byte	0x1
 16535 0155 0B       		.uleb128 0xb
 16536 0156 0B       		.uleb128 0xb
 16537 0157 3A       		.uleb128 0x3a
 16538 0158 0B       		.uleb128 0xb
 16539 0159 3B       		.uleb128 0x3b
 16540 015a 05       		.uleb128 0x5
 16541 015b 01       		.uleb128 0x1
 16542 015c 13       		.uleb128 0x13
 16543 015d 00       		.byte	0
 16544 015e 00       		.byte	0
 16545 015f 1E       		.uleb128 0x1e
 16546 0160 0D       		.uleb128 0xd
 16547 0161 00       		.byte	0
 16548 0162 03       		.uleb128 0x3
 16549 0163 0E       		.uleb128 0xe
 16550 0164 49       		.uleb128 0x49
 16551 0165 13       		.uleb128 0x13
 16552 0166 38       		.uleb128 0x38
 16553 0167 0B       		.uleb128 0xb
 16554 0168 34       		.uleb128 0x34
 16555 0169 19       		.uleb128 0x19
 16556 016a 00       		.byte	0
 16557 016b 00       		.byte	0
 16558 016c 1F       		.uleb128 0x1f
ARM GAS  /tmp/ccTQOGyd.s 			page 292


 16559 016d 2E       		.uleb128 0x2e
 16560 016e 01       		.byte	0x1
 16561 016f 03       		.uleb128 0x3
 16562 0170 0E       		.uleb128 0xe
 16563 0171 3A       		.uleb128 0x3a
 16564 0172 0B       		.uleb128 0xb
 16565 0173 3B       		.uleb128 0x3b
 16566 0174 0B       		.uleb128 0xb
 16567 0175 27       		.uleb128 0x27
 16568 0176 19       		.uleb128 0x19
 16569 0177 20       		.uleb128 0x20
 16570 0178 0B       		.uleb128 0xb
 16571 0179 01       		.uleb128 0x1
 16572 017a 13       		.uleb128 0x13
 16573 017b 00       		.byte	0
 16574 017c 00       		.byte	0
 16575 017d 20       		.uleb128 0x20
 16576 017e 05       		.uleb128 0x5
 16577 017f 00       		.byte	0
 16578 0180 03       		.uleb128 0x3
 16579 0181 0E       		.uleb128 0xe
 16580 0182 3A       		.uleb128 0x3a
 16581 0183 0B       		.uleb128 0xb
 16582 0184 3B       		.uleb128 0x3b
 16583 0185 0B       		.uleb128 0xb
 16584 0186 49       		.uleb128 0x49
 16585 0187 13       		.uleb128 0x13
 16586 0188 00       		.byte	0
 16587 0189 00       		.byte	0
 16588 018a 21       		.uleb128 0x21
 16589 018b 2E       		.uleb128 0x2e
 16590 018c 00       		.byte	0
 16591 018d 03       		.uleb128 0x3
 16592 018e 0E       		.uleb128 0xe
 16593 018f 3A       		.uleb128 0x3a
 16594 0190 0B       		.uleb128 0xb
 16595 0191 3B       		.uleb128 0x3b
 16596 0192 0B       		.uleb128 0xb
 16597 0193 27       		.uleb128 0x27
 16598 0194 19       		.uleb128 0x19
 16599 0195 49       		.uleb128 0x49
 16600 0196 13       		.uleb128 0x13
 16601 0197 20       		.uleb128 0x20
 16602 0198 0B       		.uleb128 0xb
 16603 0199 00       		.byte	0
 16604 019a 00       		.byte	0
 16605 019b 22       		.uleb128 0x22
 16606 019c 2E       		.uleb128 0x2e
 16607 019d 01       		.byte	0x1
 16608 019e 3F       		.uleb128 0x3f
 16609 019f 19       		.uleb128 0x19
 16610 01a0 03       		.uleb128 0x3
 16611 01a1 0E       		.uleb128 0xe
 16612 01a2 3A       		.uleb128 0x3a
 16613 01a3 0B       		.uleb128 0xb
 16614 01a4 3B       		.uleb128 0x3b
 16615 01a5 0B       		.uleb128 0xb
ARM GAS  /tmp/ccTQOGyd.s 			page 293


 16616 01a6 27       		.uleb128 0x27
 16617 01a7 19       		.uleb128 0x19
 16618 01a8 20       		.uleb128 0x20
 16619 01a9 0B       		.uleb128 0xb
 16620 01aa 01       		.uleb128 0x1
 16621 01ab 13       		.uleb128 0x13
 16622 01ac 00       		.byte	0
 16623 01ad 00       		.byte	0
 16624 01ae 23       		.uleb128 0x23
 16625 01af 05       		.uleb128 0x5
 16626 01b0 00       		.byte	0
 16627 01b1 03       		.uleb128 0x3
 16628 01b2 08       		.uleb128 0x8
 16629 01b3 3A       		.uleb128 0x3a
 16630 01b4 0B       		.uleb128 0xb
 16631 01b5 3B       		.uleb128 0x3b
 16632 01b6 0B       		.uleb128 0xb
 16633 01b7 49       		.uleb128 0x49
 16634 01b8 13       		.uleb128 0x13
 16635 01b9 00       		.byte	0
 16636 01ba 00       		.byte	0
 16637 01bb 24       		.uleb128 0x24
 16638 01bc 2E       		.uleb128 0x2e
 16639 01bd 00       		.byte	0
 16640 01be 03       		.uleb128 0x3
 16641 01bf 0E       		.uleb128 0xe
 16642 01c0 3A       		.uleb128 0x3a
 16643 01c1 0B       		.uleb128 0xb
 16644 01c2 3B       		.uleb128 0x3b
 16645 01c3 05       		.uleb128 0x5
 16646 01c4 27       		.uleb128 0x27
 16647 01c5 19       		.uleb128 0x19
 16648 01c6 20       		.uleb128 0x20
 16649 01c7 0B       		.uleb128 0xb
 16650 01c8 00       		.byte	0
 16651 01c9 00       		.byte	0
 16652 01ca 25       		.uleb128 0x25
 16653 01cb 2E       		.uleb128 0x2e
 16654 01cc 01       		.byte	0x1
 16655 01cd 03       		.uleb128 0x3
 16656 01ce 0E       		.uleb128 0xe
 16657 01cf 3A       		.uleb128 0x3a
 16658 01d0 0B       		.uleb128 0xb
 16659 01d1 3B       		.uleb128 0x3b
 16660 01d2 05       		.uleb128 0x5
 16661 01d3 27       		.uleb128 0x27
 16662 01d4 19       		.uleb128 0x19
 16663 01d5 11       		.uleb128 0x11
 16664 01d6 01       		.uleb128 0x1
 16665 01d7 12       		.uleb128 0x12
 16666 01d8 06       		.uleb128 0x6
 16667 01d9 40       		.uleb128 0x40
 16668 01da 18       		.uleb128 0x18
 16669 01db 9742     		.uleb128 0x2117
 16670 01dd 19       		.uleb128 0x19
 16671 01de 01       		.uleb128 0x1
 16672 01df 13       		.uleb128 0x13
ARM GAS  /tmp/ccTQOGyd.s 			page 294


 16673 01e0 00       		.byte	0
 16674 01e1 00       		.byte	0
 16675 01e2 26       		.uleb128 0x26
 16676 01e3 05       		.uleb128 0x5
 16677 01e4 00       		.byte	0
 16678 01e5 03       		.uleb128 0x3
 16679 01e6 08       		.uleb128 0x8
 16680 01e7 3A       		.uleb128 0x3a
 16681 01e8 0B       		.uleb128 0xb
 16682 01e9 3B       		.uleb128 0x3b
 16683 01ea 05       		.uleb128 0x5
 16684 01eb 49       		.uleb128 0x49
 16685 01ec 13       		.uleb128 0x13
 16686 01ed 02       		.uleb128 0x2
 16687 01ee 17       		.uleb128 0x17
 16688 01ef 00       		.byte	0
 16689 01f0 00       		.byte	0
 16690 01f1 27       		.uleb128 0x27
 16691 01f2 1D       		.uleb128 0x1d
 16692 01f3 01       		.byte	0x1
 16693 01f4 31       		.uleb128 0x31
 16694 01f5 13       		.uleb128 0x13
 16695 01f6 52       		.uleb128 0x52
 16696 01f7 01       		.uleb128 0x1
 16697 01f8 55       		.uleb128 0x55
 16698 01f9 17       		.uleb128 0x17
 16699 01fa 58       		.uleb128 0x58
 16700 01fb 0B       		.uleb128 0xb
 16701 01fc 59       		.uleb128 0x59
 16702 01fd 05       		.uleb128 0x5
 16703 01fe 01       		.uleb128 0x1
 16704 01ff 13       		.uleb128 0x13
 16705 0200 00       		.byte	0
 16706 0201 00       		.byte	0
 16707 0202 28       		.uleb128 0x28
 16708 0203 05       		.uleb128 0x5
 16709 0204 00       		.byte	0
 16710 0205 31       		.uleb128 0x31
 16711 0206 13       		.uleb128 0x13
 16712 0207 02       		.uleb128 0x2
 16713 0208 18       		.uleb128 0x18
 16714 0209 00       		.byte	0
 16715 020a 00       		.byte	0
 16716 020b 29       		.uleb128 0x29
 16717 020c 0B       		.uleb128 0xb
 16718 020d 01       		.byte	0x1
 16719 020e 55       		.uleb128 0x55
 16720 020f 17       		.uleb128 0x17
 16721 0210 00       		.byte	0
 16722 0211 00       		.byte	0
 16723 0212 2A       		.uleb128 0x2a
 16724 0213 34       		.uleb128 0x34
 16725 0214 00       		.byte	0
 16726 0215 03       		.uleb128 0x3
 16727 0216 08       		.uleb128 0x8
 16728 0217 3A       		.uleb128 0x3a
 16729 0218 0B       		.uleb128 0xb
ARM GAS  /tmp/ccTQOGyd.s 			page 295


 16730 0219 3B       		.uleb128 0x3b
 16731 021a 05       		.uleb128 0x5
 16732 021b 49       		.uleb128 0x49
 16733 021c 13       		.uleb128 0x13
 16734 021d 02       		.uleb128 0x2
 16735 021e 18       		.uleb128 0x18
 16736 021f 00       		.byte	0
 16737 0220 00       		.byte	0
 16738 0221 2B       		.uleb128 0x2b
 16739 0222 1D       		.uleb128 0x1d
 16740 0223 01       		.byte	0x1
 16741 0224 31       		.uleb128 0x31
 16742 0225 13       		.uleb128 0x13
 16743 0226 11       		.uleb128 0x11
 16744 0227 01       		.uleb128 0x1
 16745 0228 12       		.uleb128 0x12
 16746 0229 06       		.uleb128 0x6
 16747 022a 58       		.uleb128 0x58
 16748 022b 0B       		.uleb128 0xb
 16749 022c 59       		.uleb128 0x59
 16750 022d 05       		.uleb128 0x5
 16751 022e 01       		.uleb128 0x1
 16752 022f 13       		.uleb128 0x13
 16753 0230 00       		.byte	0
 16754 0231 00       		.byte	0
 16755 0232 2C       		.uleb128 0x2c
 16756 0233 05       		.uleb128 0x5
 16757 0234 00       		.byte	0
 16758 0235 31       		.uleb128 0x31
 16759 0236 13       		.uleb128 0x13
 16760 0237 02       		.uleb128 0x2
 16761 0238 17       		.uleb128 0x17
 16762 0239 00       		.byte	0
 16763 023a 00       		.byte	0
 16764 023b 2D       		.uleb128 0x2d
 16765 023c 898201   		.uleb128 0x4109
 16766 023f 01       		.byte	0x1
 16767 0240 11       		.uleb128 0x11
 16768 0241 01       		.uleb128 0x1
 16769 0242 00       		.byte	0
 16770 0243 00       		.byte	0
 16771 0244 2E       		.uleb128 0x2e
 16772 0245 8A8201   		.uleb128 0x410a
 16773 0248 00       		.byte	0
 16774 0249 02       		.uleb128 0x2
 16775 024a 18       		.uleb128 0x18
 16776 024b 9142     		.uleb128 0x2111
 16777 024d 18       		.uleb128 0x18
 16778 024e 00       		.byte	0
 16779 024f 00       		.byte	0
 16780 0250 2F       		.uleb128 0x2f
 16781 0251 898201   		.uleb128 0x4109
 16782 0254 01       		.byte	0x1
 16783 0255 11       		.uleb128 0x11
 16784 0256 01       		.uleb128 0x1
 16785 0257 31       		.uleb128 0x31
 16786 0258 13       		.uleb128 0x13
ARM GAS  /tmp/ccTQOGyd.s 			page 296


 16787 0259 01       		.uleb128 0x1
 16788 025a 13       		.uleb128 0x13
 16789 025b 00       		.byte	0
 16790 025c 00       		.byte	0
 16791 025d 30       		.uleb128 0x30
 16792 025e 898201   		.uleb128 0x4109
 16793 0261 01       		.byte	0x1
 16794 0262 11       		.uleb128 0x11
 16795 0263 01       		.uleb128 0x1
 16796 0264 9342     		.uleb128 0x2113
 16797 0266 18       		.uleb128 0x18
 16798 0267 00       		.byte	0
 16799 0268 00       		.byte	0
 16800 0269 31       		.uleb128 0x31
 16801 026a 2E       		.uleb128 0x2e
 16802 026b 01       		.byte	0x1
 16803 026c 3F       		.uleb128 0x3f
 16804 026d 19       		.uleb128 0x19
 16805 026e 03       		.uleb128 0x3
 16806 026f 0E       		.uleb128 0xe
 16807 0270 3A       		.uleb128 0x3a
 16808 0271 0B       		.uleb128 0xb
 16809 0272 3B       		.uleb128 0x3b
 16810 0273 0B       		.uleb128 0xb
 16811 0274 27       		.uleb128 0x27
 16812 0275 19       		.uleb128 0x19
 16813 0276 11       		.uleb128 0x11
 16814 0277 01       		.uleb128 0x1
 16815 0278 12       		.uleb128 0x12
 16816 0279 06       		.uleb128 0x6
 16817 027a 40       		.uleb128 0x40
 16818 027b 18       		.uleb128 0x18
 16819 027c 9742     		.uleb128 0x2117
 16820 027e 19       		.uleb128 0x19
 16821 027f 01       		.uleb128 0x1
 16822 0280 13       		.uleb128 0x13
 16823 0281 00       		.byte	0
 16824 0282 00       		.byte	0
 16825 0283 32       		.uleb128 0x32
 16826 0284 898201   		.uleb128 0x4109
 16827 0287 01       		.byte	0x1
 16828 0288 11       		.uleb128 0x11
 16829 0289 01       		.uleb128 0x1
 16830 028a 31       		.uleb128 0x31
 16831 028b 13       		.uleb128 0x13
 16832 028c 00       		.byte	0
 16833 028d 00       		.byte	0
 16834 028e 33       		.uleb128 0x33
 16835 028f 05       		.uleb128 0x5
 16836 0290 00       		.byte	0
 16837 0291 03       		.uleb128 0x3
 16838 0292 0E       		.uleb128 0xe
 16839 0293 3A       		.uleb128 0x3a
 16840 0294 0B       		.uleb128 0xb
 16841 0295 3B       		.uleb128 0x3b
 16842 0296 0B       		.uleb128 0xb
 16843 0297 49       		.uleb128 0x49
ARM GAS  /tmp/ccTQOGyd.s 			page 297


 16844 0298 13       		.uleb128 0x13
 16845 0299 02       		.uleb128 0x2
 16846 029a 18       		.uleb128 0x18
 16847 029b 00       		.byte	0
 16848 029c 00       		.byte	0
 16849 029d 34       		.uleb128 0x34
 16850 029e 2E       		.uleb128 0x2e
 16851 029f 01       		.byte	0x1
 16852 02a0 31       		.uleb128 0x31
 16853 02a1 13       		.uleb128 0x13
 16854 02a2 11       		.uleb128 0x11
 16855 02a3 01       		.uleb128 0x1
 16856 02a4 12       		.uleb128 0x12
 16857 02a5 06       		.uleb128 0x6
 16858 02a6 40       		.uleb128 0x40
 16859 02a7 18       		.uleb128 0x18
 16860 02a8 9742     		.uleb128 0x2117
 16861 02aa 19       		.uleb128 0x19
 16862 02ab 01       		.uleb128 0x1
 16863 02ac 13       		.uleb128 0x13
 16864 02ad 00       		.byte	0
 16865 02ae 00       		.byte	0
 16866 02af 35       		.uleb128 0x35
 16867 02b0 2E       		.uleb128 0x2e
 16868 02b1 01       		.byte	0x1
 16869 02b2 3F       		.uleb128 0x3f
 16870 02b3 19       		.uleb128 0x19
 16871 02b4 03       		.uleb128 0x3
 16872 02b5 0E       		.uleb128 0xe
 16873 02b6 3A       		.uleb128 0x3a
 16874 02b7 0B       		.uleb128 0xb
 16875 02b8 3B       		.uleb128 0x3b
 16876 02b9 05       		.uleb128 0x5
 16877 02ba 27       		.uleb128 0x27
 16878 02bb 19       		.uleb128 0x19
 16879 02bc 11       		.uleb128 0x11
 16880 02bd 01       		.uleb128 0x1
 16881 02be 12       		.uleb128 0x12
 16882 02bf 06       		.uleb128 0x6
 16883 02c0 40       		.uleb128 0x40
 16884 02c1 18       		.uleb128 0x18
 16885 02c2 9742     		.uleb128 0x2117
 16886 02c4 19       		.uleb128 0x19
 16887 02c5 01       		.uleb128 0x1
 16888 02c6 13       		.uleb128 0x13
 16889 02c7 00       		.byte	0
 16890 02c8 00       		.byte	0
 16891 02c9 36       		.uleb128 0x36
 16892 02ca 05       		.uleb128 0x5
 16893 02cb 00       		.byte	0
 16894 02cc 03       		.uleb128 0x3
 16895 02cd 0E       		.uleb128 0xe
 16896 02ce 3A       		.uleb128 0x3a
 16897 02cf 0B       		.uleb128 0xb
 16898 02d0 3B       		.uleb128 0x3b
 16899 02d1 05       		.uleb128 0x5
 16900 02d2 49       		.uleb128 0x49
ARM GAS  /tmp/ccTQOGyd.s 			page 298


 16901 02d3 13       		.uleb128 0x13
 16902 02d4 02       		.uleb128 0x2
 16903 02d5 18       		.uleb128 0x18
 16904 02d6 00       		.byte	0
 16905 02d7 00       		.byte	0
 16906 02d8 37       		.uleb128 0x37
 16907 02d9 18       		.uleb128 0x18
 16908 02da 00       		.byte	0
 16909 02db 00       		.byte	0
 16910 02dc 00       		.byte	0
 16911 02dd 38       		.uleb128 0x38
 16912 02de 34       		.uleb128 0x34
 16913 02df 00       		.byte	0
 16914 02e0 03       		.uleb128 0x3
 16915 02e1 08       		.uleb128 0x8
 16916 02e2 3A       		.uleb128 0x3a
 16917 02e3 0B       		.uleb128 0xb
 16918 02e4 3B       		.uleb128 0x3b
 16919 02e5 05       		.uleb128 0x5
 16920 02e6 49       		.uleb128 0x49
 16921 02e7 13       		.uleb128 0x13
 16922 02e8 02       		.uleb128 0x2
 16923 02e9 17       		.uleb128 0x17
 16924 02ea 00       		.byte	0
 16925 02eb 00       		.byte	0
 16926 02ec 39       		.uleb128 0x39
 16927 02ed 34       		.uleb128 0x34
 16928 02ee 00       		.byte	0
 16929 02ef 03       		.uleb128 0x3
 16930 02f0 0E       		.uleb128 0xe
 16931 02f1 3A       		.uleb128 0x3a
 16932 02f2 0B       		.uleb128 0xb
 16933 02f3 3B       		.uleb128 0x3b
 16934 02f4 05       		.uleb128 0x5
 16935 02f5 49       		.uleb128 0x49
 16936 02f6 13       		.uleb128 0x13
 16937 02f7 02       		.uleb128 0x2
 16938 02f8 18       		.uleb128 0x18
 16939 02f9 00       		.byte	0
 16940 02fa 00       		.byte	0
 16941 02fb 3A       		.uleb128 0x3a
 16942 02fc 05       		.uleb128 0x5
 16943 02fd 00       		.byte	0
 16944 02fe 03       		.uleb128 0x3
 16945 02ff 0E       		.uleb128 0xe
 16946 0300 3A       		.uleb128 0x3a
 16947 0301 0B       		.uleb128 0xb
 16948 0302 3B       		.uleb128 0x3b
 16949 0303 05       		.uleb128 0x5
 16950 0304 49       		.uleb128 0x49
 16951 0305 13       		.uleb128 0x13
 16952 0306 02       		.uleb128 0x2
 16953 0307 17       		.uleb128 0x17
 16954 0308 00       		.byte	0
 16955 0309 00       		.byte	0
 16956 030a 3B       		.uleb128 0x3b
 16957 030b 34       		.uleb128 0x34
ARM GAS  /tmp/ccTQOGyd.s 			page 299


 16958 030c 00       		.byte	0
 16959 030d 34       		.uleb128 0x34
 16960 030e 19       		.uleb128 0x19
 16961 030f 49       		.uleb128 0x49
 16962 0310 13       		.uleb128 0x13
 16963 0311 02       		.uleb128 0x2
 16964 0312 17       		.uleb128 0x17
 16965 0313 00       		.byte	0
 16966 0314 00       		.byte	0
 16967 0315 3C       		.uleb128 0x3c
 16968 0316 34       		.uleb128 0x34
 16969 0317 00       		.byte	0
 16970 0318 03       		.uleb128 0x3
 16971 0319 0E       		.uleb128 0xe
 16972 031a 3A       		.uleb128 0x3a
 16973 031b 0B       		.uleb128 0xb
 16974 031c 3B       		.uleb128 0x3b
 16975 031d 05       		.uleb128 0x5
 16976 031e 49       		.uleb128 0x49
 16977 031f 13       		.uleb128 0x13
 16978 0320 02       		.uleb128 0x2
 16979 0321 17       		.uleb128 0x17
 16980 0322 00       		.byte	0
 16981 0323 00       		.byte	0
 16982 0324 3D       		.uleb128 0x3d
 16983 0325 0B       		.uleb128 0xb
 16984 0326 01       		.byte	0x1
 16985 0327 55       		.uleb128 0x55
 16986 0328 17       		.uleb128 0x17
 16987 0329 01       		.uleb128 0x1
 16988 032a 13       		.uleb128 0x13
 16989 032b 00       		.byte	0
 16990 032c 00       		.byte	0
 16991 032d 3E       		.uleb128 0x3e
 16992 032e 1D       		.uleb128 0x1d
 16993 032f 01       		.byte	0x1
 16994 0330 31       		.uleb128 0x31
 16995 0331 13       		.uleb128 0x13
 16996 0332 11       		.uleb128 0x11
 16997 0333 01       		.uleb128 0x1
 16998 0334 12       		.uleb128 0x12
 16999 0335 06       		.uleb128 0x6
 17000 0336 58       		.uleb128 0x58
 17001 0337 0B       		.uleb128 0xb
 17002 0338 59       		.uleb128 0x59
 17003 0339 05       		.uleb128 0x5
 17004 033a 00       		.byte	0
 17005 033b 00       		.byte	0
 17006 033c 3F       		.uleb128 0x3f
 17007 033d 21       		.uleb128 0x21
 17008 033e 00       		.byte	0
 17009 033f 49       		.uleb128 0x49
 17010 0340 13       		.uleb128 0x13
 17011 0341 2F       		.uleb128 0x2f
 17012 0342 13       		.uleb128 0x13
 17013 0343 00       		.byte	0
 17014 0344 00       		.byte	0
ARM GAS  /tmp/ccTQOGyd.s 			page 300


 17015 0345 40       		.uleb128 0x40
 17016 0346 2E       		.uleb128 0x2e
 17017 0347 00       		.byte	0
 17018 0348 3F       		.uleb128 0x3f
 17019 0349 19       		.uleb128 0x19
 17020 034a 03       		.uleb128 0x3
 17021 034b 0E       		.uleb128 0xe
 17022 034c 3A       		.uleb128 0x3a
 17023 034d 0B       		.uleb128 0xb
 17024 034e 3B       		.uleb128 0x3b
 17025 034f 05       		.uleb128 0x5
 17026 0350 27       		.uleb128 0x27
 17027 0351 19       		.uleb128 0x19
 17028 0352 49       		.uleb128 0x49
 17029 0353 13       		.uleb128 0x13
 17030 0354 11       		.uleb128 0x11
 17031 0355 01       		.uleb128 0x1
 17032 0356 12       		.uleb128 0x12
 17033 0357 06       		.uleb128 0x6
 17034 0358 40       		.uleb128 0x40
 17035 0359 18       		.uleb128 0x18
 17036 035a 9742     		.uleb128 0x2117
 17037 035c 19       		.uleb128 0x19
 17038 035d 00       		.byte	0
 17039 035e 00       		.byte	0
 17040 035f 41       		.uleb128 0x41
 17041 0360 2E       		.uleb128 0x2e
 17042 0361 01       		.byte	0x1
 17043 0362 3F       		.uleb128 0x3f
 17044 0363 19       		.uleb128 0x19
 17045 0364 03       		.uleb128 0x3
 17046 0365 0E       		.uleb128 0xe
 17047 0366 3A       		.uleb128 0x3a
 17048 0367 0B       		.uleb128 0xb
 17049 0368 3B       		.uleb128 0x3b
 17050 0369 0B       		.uleb128 0xb
 17051 036a 27       		.uleb128 0x27
 17052 036b 19       		.uleb128 0x19
 17053 036c 11       		.uleb128 0x11
 17054 036d 01       		.uleb128 0x1
 17055 036e 12       		.uleb128 0x12
 17056 036f 06       		.uleb128 0x6
 17057 0370 40       		.uleb128 0x40
 17058 0371 18       		.uleb128 0x18
 17059 0372 9642     		.uleb128 0x2116
 17060 0374 19       		.uleb128 0x19
 17061 0375 01       		.uleb128 0x1
 17062 0376 13       		.uleb128 0x13
 17063 0377 00       		.byte	0
 17064 0378 00       		.byte	0
 17065 0379 42       		.uleb128 0x42
 17066 037a 05       		.uleb128 0x5
 17067 037b 00       		.byte	0
 17068 037c 03       		.uleb128 0x3
 17069 037d 0E       		.uleb128 0xe
 17070 037e 3A       		.uleb128 0x3a
 17071 037f 0B       		.uleb128 0xb
ARM GAS  /tmp/ccTQOGyd.s 			page 301


 17072 0380 3B       		.uleb128 0x3b
 17073 0381 0B       		.uleb128 0xb
 17074 0382 49       		.uleb128 0x49
 17075 0383 13       		.uleb128 0x13
 17076 0384 02       		.uleb128 0x2
 17077 0385 17       		.uleb128 0x17
 17078 0386 00       		.byte	0
 17079 0387 00       		.byte	0
 17080 0388 43       		.uleb128 0x43
 17081 0389 05       		.uleb128 0x5
 17082 038a 00       		.byte	0
 17083 038b 03       		.uleb128 0x3
 17084 038c 08       		.uleb128 0x8
 17085 038d 3A       		.uleb128 0x3a
 17086 038e 0B       		.uleb128 0xb
 17087 038f 3B       		.uleb128 0x3b
 17088 0390 0B       		.uleb128 0xb
 17089 0391 49       		.uleb128 0x49
 17090 0392 13       		.uleb128 0x13
 17091 0393 02       		.uleb128 0x2
 17092 0394 17       		.uleb128 0x17
 17093 0395 00       		.byte	0
 17094 0396 00       		.byte	0
 17095 0397 44       		.uleb128 0x44
 17096 0398 34       		.uleb128 0x34
 17097 0399 00       		.byte	0
 17098 039a 03       		.uleb128 0x3
 17099 039b 0E       		.uleb128 0xe
 17100 039c 3A       		.uleb128 0x3a
 17101 039d 0B       		.uleb128 0xb
 17102 039e 3B       		.uleb128 0x3b
 17103 039f 0B       		.uleb128 0xb
 17104 03a0 49       		.uleb128 0x49
 17105 03a1 13       		.uleb128 0x13
 17106 03a2 02       		.uleb128 0x2
 17107 03a3 17       		.uleb128 0x17
 17108 03a4 00       		.byte	0
 17109 03a5 00       		.byte	0
 17110 03a6 45       		.uleb128 0x45
 17111 03a7 34       		.uleb128 0x34
 17112 03a8 00       		.byte	0
 17113 03a9 03       		.uleb128 0x3
 17114 03aa 08       		.uleb128 0x8
 17115 03ab 3A       		.uleb128 0x3a
 17116 03ac 0B       		.uleb128 0xb
 17117 03ad 3B       		.uleb128 0x3b
 17118 03ae 0B       		.uleb128 0xb
 17119 03af 49       		.uleb128 0x49
 17120 03b0 13       		.uleb128 0x13
 17121 03b1 02       		.uleb128 0x2
 17122 03b2 17       		.uleb128 0x17
 17123 03b3 00       		.byte	0
 17124 03b4 00       		.byte	0
 17125 03b5 46       		.uleb128 0x46
 17126 03b6 34       		.uleb128 0x34
 17127 03b7 00       		.byte	0
 17128 03b8 03       		.uleb128 0x3
ARM GAS  /tmp/ccTQOGyd.s 			page 302


 17129 03b9 0E       		.uleb128 0xe
 17130 03ba 3A       		.uleb128 0x3a
 17131 03bb 0B       		.uleb128 0xb
 17132 03bc 3B       		.uleb128 0x3b
 17133 03bd 0B       		.uleb128 0xb
 17134 03be 49       		.uleb128 0x49
 17135 03bf 13       		.uleb128 0x13
 17136 03c0 02       		.uleb128 0x2
 17137 03c1 18       		.uleb128 0x18
 17138 03c2 00       		.byte	0
 17139 03c3 00       		.byte	0
 17140 03c4 47       		.uleb128 0x47
 17141 03c5 0B       		.uleb128 0xb
 17142 03c6 01       		.byte	0x1
 17143 03c7 11       		.uleb128 0x11
 17144 03c8 01       		.uleb128 0x1
 17145 03c9 12       		.uleb128 0x12
 17146 03ca 06       		.uleb128 0x6
 17147 03cb 01       		.uleb128 0x1
 17148 03cc 13       		.uleb128 0x13
 17149 03cd 00       		.byte	0
 17150 03ce 00       		.byte	0
 17151 03cf 48       		.uleb128 0x48
 17152 03d0 898201   		.uleb128 0x4109
 17153 03d3 00       		.byte	0
 17154 03d4 11       		.uleb128 0x11
 17155 03d5 01       		.uleb128 0x1
 17156 03d6 31       		.uleb128 0x31
 17157 03d7 13       		.uleb128 0x13
 17158 03d8 00       		.byte	0
 17159 03d9 00       		.byte	0
 17160 03da 49       		.uleb128 0x49
 17161 03db 1D       		.uleb128 0x1d
 17162 03dc 00       		.byte	0
 17163 03dd 31       		.uleb128 0x31
 17164 03de 13       		.uleb128 0x13
 17165 03df 11       		.uleb128 0x11
 17166 03e0 01       		.uleb128 0x1
 17167 03e1 12       		.uleb128 0x12
 17168 03e2 06       		.uleb128 0x6
 17169 03e3 58       		.uleb128 0x58
 17170 03e4 0B       		.uleb128 0xb
 17171 03e5 59       		.uleb128 0x59
 17172 03e6 05       		.uleb128 0x5
 17173 03e7 00       		.byte	0
 17174 03e8 00       		.byte	0
 17175 03e9 4A       		.uleb128 0x4a
 17176 03ea 1D       		.uleb128 0x1d
 17177 03eb 01       		.byte	0x1
 17178 03ec 31       		.uleb128 0x31
 17179 03ed 13       		.uleb128 0x13
 17180 03ee 52       		.uleb128 0x52
 17181 03ef 01       		.uleb128 0x1
 17182 03f0 55       		.uleb128 0x55
 17183 03f1 17       		.uleb128 0x17
 17184 03f2 58       		.uleb128 0x58
 17185 03f3 0B       		.uleb128 0xb
ARM GAS  /tmp/ccTQOGyd.s 			page 303


 17186 03f4 59       		.uleb128 0x59
 17187 03f5 0B       		.uleb128 0xb
 17188 03f6 01       		.uleb128 0x1
 17189 03f7 13       		.uleb128 0x13
 17190 03f8 00       		.byte	0
 17191 03f9 00       		.byte	0
 17192 03fa 4B       		.uleb128 0x4b
 17193 03fb 898201   		.uleb128 0x4109
 17194 03fe 01       		.byte	0x1
 17195 03ff 11       		.uleb128 0x11
 17196 0400 01       		.uleb128 0x1
 17197 0401 01       		.uleb128 0x1
 17198 0402 13       		.uleb128 0x13
 17199 0403 00       		.byte	0
 17200 0404 00       		.byte	0
 17201 0405 4C       		.uleb128 0x4c
 17202 0406 21       		.uleb128 0x21
 17203 0407 00       		.byte	0
 17204 0408 49       		.uleb128 0x49
 17205 0409 13       		.uleb128 0x13
 17206 040a 2F       		.uleb128 0x2f
 17207 040b 05       		.uleb128 0x5
 17208 040c 00       		.byte	0
 17209 040d 00       		.byte	0
 17210 040e 4D       		.uleb128 0x4d
 17211 040f 34       		.uleb128 0x34
 17212 0410 00       		.byte	0
 17213 0411 03       		.uleb128 0x3
 17214 0412 0E       		.uleb128 0xe
 17215 0413 3A       		.uleb128 0x3a
 17216 0414 0B       		.uleb128 0xb
 17217 0415 3B       		.uleb128 0x3b
 17218 0416 05       		.uleb128 0x5
 17219 0417 49       		.uleb128 0x49
 17220 0418 13       		.uleb128 0x13
 17221 0419 3F       		.uleb128 0x3f
 17222 041a 19       		.uleb128 0x19
 17223 041b 3C       		.uleb128 0x3c
 17224 041c 19       		.uleb128 0x19
 17225 041d 00       		.byte	0
 17226 041e 00       		.byte	0
 17227 041f 4E       		.uleb128 0x4e
 17228 0420 34       		.uleb128 0x34
 17229 0421 00       		.byte	0
 17230 0422 03       		.uleb128 0x3
 17231 0423 08       		.uleb128 0x8
 17232 0424 3A       		.uleb128 0x3a
 17233 0425 0B       		.uleb128 0xb
 17234 0426 3B       		.uleb128 0x3b
 17235 0427 05       		.uleb128 0x5
 17236 0428 49       		.uleb128 0x49
 17237 0429 13       		.uleb128 0x13
 17238 042a 3F       		.uleb128 0x3f
 17239 042b 19       		.uleb128 0x19
 17240 042c 3C       		.uleb128 0x3c
 17241 042d 19       		.uleb128 0x19
 17242 042e 00       		.byte	0
ARM GAS  /tmp/ccTQOGyd.s 			page 304


 17243 042f 00       		.byte	0
 17244 0430 4F       		.uleb128 0x4f
 17245 0431 21       		.uleb128 0x21
 17246 0432 00       		.byte	0
 17247 0433 00       		.byte	0
 17248 0434 00       		.byte	0
 17249 0435 50       		.uleb128 0x50
 17250 0436 34       		.uleb128 0x34
 17251 0437 00       		.byte	0
 17252 0438 03       		.uleb128 0x3
 17253 0439 0E       		.uleb128 0xe
 17254 043a 3A       		.uleb128 0x3a
 17255 043b 0B       		.uleb128 0xb
 17256 043c 3B       		.uleb128 0x3b
 17257 043d 0B       		.uleb128 0xb
 17258 043e 49       		.uleb128 0x49
 17259 043f 13       		.uleb128 0x13
 17260 0440 3F       		.uleb128 0x3f
 17261 0441 19       		.uleb128 0x19
 17262 0442 3C       		.uleb128 0x3c
 17263 0443 19       		.uleb128 0x19
 17264 0444 00       		.byte	0
 17265 0445 00       		.byte	0
 17266 0446 51       		.uleb128 0x51
 17267 0447 2E       		.uleb128 0x2e
 17268 0448 01       		.byte	0x1
 17269 0449 3F       		.uleb128 0x3f
 17270 044a 19       		.uleb128 0x19
 17271 044b 03       		.uleb128 0x3
 17272 044c 0E       		.uleb128 0xe
 17273 044d 3A       		.uleb128 0x3a
 17274 044e 0B       		.uleb128 0xb
 17275 044f 3B       		.uleb128 0x3b
 17276 0450 0B       		.uleb128 0xb
 17277 0451 27       		.uleb128 0x27
 17278 0452 19       		.uleb128 0x19
 17279 0453 49       		.uleb128 0x49
 17280 0454 13       		.uleb128 0x13
 17281 0455 3C       		.uleb128 0x3c
 17282 0456 19       		.uleb128 0x19
 17283 0457 01       		.uleb128 0x1
 17284 0458 13       		.uleb128 0x13
 17285 0459 00       		.byte	0
 17286 045a 00       		.byte	0
 17287 045b 52       		.uleb128 0x52
 17288 045c 2E       		.uleb128 0x2e
 17289 045d 01       		.byte	0x1
 17290 045e 3F       		.uleb128 0x3f
 17291 045f 19       		.uleb128 0x19
 17292 0460 03       		.uleb128 0x3
 17293 0461 0E       		.uleb128 0xe
 17294 0462 3A       		.uleb128 0x3a
 17295 0463 0B       		.uleb128 0xb
 17296 0464 3B       		.uleb128 0x3b
 17297 0465 0B       		.uleb128 0xb
 17298 0466 27       		.uleb128 0x27
 17299 0467 19       		.uleb128 0x19
ARM GAS  /tmp/ccTQOGyd.s 			page 305


 17300 0468 3C       		.uleb128 0x3c
 17301 0469 19       		.uleb128 0x19
 17302 046a 01       		.uleb128 0x1
 17303 046b 13       		.uleb128 0x13
 17304 046c 00       		.byte	0
 17305 046d 00       		.byte	0
 17306 046e 53       		.uleb128 0x53
 17307 046f 2E       		.uleb128 0x2e
 17308 0470 01       		.byte	0x1
 17309 0471 3F       		.uleb128 0x3f
 17310 0472 19       		.uleb128 0x19
 17311 0473 03       		.uleb128 0x3
 17312 0474 0E       		.uleb128 0xe
 17313 0475 3A       		.uleb128 0x3a
 17314 0476 0B       		.uleb128 0xb
 17315 0477 3B       		.uleb128 0x3b
 17316 0478 05       		.uleb128 0x5
 17317 0479 27       		.uleb128 0x27
 17318 047a 19       		.uleb128 0x19
 17319 047b 49       		.uleb128 0x49
 17320 047c 13       		.uleb128 0x13
 17321 047d 3C       		.uleb128 0x3c
 17322 047e 19       		.uleb128 0x19
 17323 047f 01       		.uleb128 0x1
 17324 0480 13       		.uleb128 0x13
 17325 0481 00       		.byte	0
 17326 0482 00       		.byte	0
 17327 0483 54       		.uleb128 0x54
 17328 0484 2E       		.uleb128 0x2e
 17329 0485 01       		.byte	0x1
 17330 0486 3F       		.uleb128 0x3f
 17331 0487 19       		.uleb128 0x19
 17332 0488 03       		.uleb128 0x3
 17333 0489 0E       		.uleb128 0xe
 17334 048a 27       		.uleb128 0x27
 17335 048b 19       		.uleb128 0x19
 17336 048c 49       		.uleb128 0x49
 17337 048d 13       		.uleb128 0x13
 17338 048e 34       		.uleb128 0x34
 17339 048f 19       		.uleb128 0x19
 17340 0490 3C       		.uleb128 0x3c
 17341 0491 19       		.uleb128 0x19
 17342 0492 01       		.uleb128 0x1
 17343 0493 13       		.uleb128 0x13
 17344 0494 00       		.byte	0
 17345 0495 00       		.byte	0
 17346 0496 55       		.uleb128 0x55
 17347 0497 26       		.uleb128 0x26
 17348 0498 00       		.byte	0
 17349 0499 00       		.byte	0
 17350 049a 00       		.byte	0
 17351 049b 56       		.uleb128 0x56
 17352 049c 2E       		.uleb128 0x2e
 17353 049d 00       		.byte	0
 17354 049e 3F       		.uleb128 0x3f
 17355 049f 19       		.uleb128 0x19
 17356 04a0 03       		.uleb128 0x3
ARM GAS  /tmp/ccTQOGyd.s 			page 306


 17357 04a1 0E       		.uleb128 0xe
 17358 04a2 3A       		.uleb128 0x3a
 17359 04a3 0B       		.uleb128 0xb
 17360 04a4 3B       		.uleb128 0x3b
 17361 04a5 0B       		.uleb128 0xb
 17362 04a6 27       		.uleb128 0x27
 17363 04a7 19       		.uleb128 0x19
 17364 04a8 49       		.uleb128 0x49
 17365 04a9 13       		.uleb128 0x13
 17366 04aa 3C       		.uleb128 0x3c
 17367 04ab 19       		.uleb128 0x19
 17368 04ac 00       		.byte	0
 17369 04ad 00       		.byte	0
 17370 04ae 57       		.uleb128 0x57
 17371 04af 2E       		.uleb128 0x2e
 17372 04b0 00       		.byte	0
 17373 04b1 3F       		.uleb128 0x3f
 17374 04b2 19       		.uleb128 0x19
 17375 04b3 03       		.uleb128 0x3
 17376 04b4 0E       		.uleb128 0xe
 17377 04b5 3A       		.uleb128 0x3a
 17378 04b6 0B       		.uleb128 0xb
 17379 04b7 3B       		.uleb128 0x3b
 17380 04b8 0B       		.uleb128 0xb
 17381 04b9 27       		.uleb128 0x27
 17382 04ba 19       		.uleb128 0x19
 17383 04bb 3C       		.uleb128 0x3c
 17384 04bc 19       		.uleb128 0x19
 17385 04bd 00       		.byte	0
 17386 04be 00       		.byte	0
 17387 04bf 58       		.uleb128 0x58
 17388 04c0 2E       		.uleb128 0x2e
 17389 04c1 01       		.byte	0x1
 17390 04c2 3F       		.uleb128 0x3f
 17391 04c3 19       		.uleb128 0x19
 17392 04c4 03       		.uleb128 0x3
 17393 04c5 0E       		.uleb128 0xe
 17394 04c6 3A       		.uleb128 0x3a
 17395 04c7 0B       		.uleb128 0xb
 17396 04c8 3B       		.uleb128 0x3b
 17397 04c9 0B       		.uleb128 0xb
 17398 04ca 27       		.uleb128 0x27
 17399 04cb 19       		.uleb128 0x19
 17400 04cc 49       		.uleb128 0x49
 17401 04cd 13       		.uleb128 0x13
 17402 04ce 3C       		.uleb128 0x3c
 17403 04cf 19       		.uleb128 0x19
 17404 04d0 00       		.byte	0
 17405 04d1 00       		.byte	0
 17406 04d2 00       		.byte	0
 17407              		.section	.debug_loc,"",%progbits
 17408              	.Ldebug_loc0:
 17409              	.LLST0:
 17410 0000 00000000 		.4byte	.LVL0
 17411 0004 34000000 		.4byte	.LVL1
 17412 0008 0100     		.2byte	0x1
 17413 000a 50       		.byte	0x50
ARM GAS  /tmp/ccTQOGyd.s 			page 307


 17414 000b 34000000 		.4byte	.LVL1
 17415 000f 10010000 		.4byte	.LFE268
 17416 0013 0400     		.2byte	0x4
 17417 0015 F3       		.byte	0xf3
 17418 0016 01       		.uleb128 0x1
 17419 0017 50       		.byte	0x50
 17420 0018 9F       		.byte	0x9f
 17421 0019 00000000 		.4byte	0
 17422 001d 00000000 		.4byte	0
 17423              	.LLST1:
 17424 0021 C2000000 		.4byte	.LVL7
 17425 0025 C4000000 		.4byte	.LVL8
 17426 0029 0100     		.2byte	0x1
 17427 002b 51       		.byte	0x51
 17428 002c C4000000 		.4byte	.LVL8
 17429 0030 CE000000 		.4byte	.LVL9
 17430 0034 0100     		.2byte	0x1
 17431 0036 52       		.byte	0x52
 17432 0037 CE000000 		.4byte	.LVL9
 17433 003b CF000000 		.4byte	.LVL10-1
 17434 003f 0100     		.2byte	0x1
 17435 0041 51       		.byte	0x51
 17436 0042 00000000 		.4byte	0
 17437 0046 00000000 		.4byte	0
 17438              	.LLST2:
 17439 004a 00000000 		.4byte	.LVL13
 17440 004e 09000000 		.4byte	.LVL14-1
 17441 0052 0100     		.2byte	0x1
 17442 0054 50       		.byte	0x50
 17443 0055 09000000 		.4byte	.LVL14-1
 17444 0059 10000000 		.4byte	.LFE258
 17445 005d 0400     		.2byte	0x4
 17446 005f F3       		.byte	0xf3
 17447 0060 01       		.uleb128 0x1
 17448 0061 50       		.byte	0x50
 17449 0062 9F       		.byte	0x9f
 17450 0063 00000000 		.4byte	0
 17451 0067 00000000 		.4byte	0
 17452              	.LLST3:
 17453 006b 00000000 		.4byte	.LVL13
 17454 006f 09000000 		.4byte	.LVL14-1
 17455 0073 0100     		.2byte	0x1
 17456 0075 51       		.byte	0x51
 17457 0076 09000000 		.4byte	.LVL14-1
 17458 007a 10000000 		.4byte	.LFE258
 17459 007e 0400     		.2byte	0x4
 17460 0080 F3       		.byte	0xf3
 17461 0081 01       		.uleb128 0x1
 17462 0082 51       		.byte	0x51
 17463 0083 9F       		.byte	0x9f
 17464 0084 00000000 		.4byte	0
 17465 0088 00000000 		.4byte	0
 17466              	.LLST4:
 17467 008c 1C000000 		.4byte	.LVL16
 17468 0090 30000000 		.4byte	.LVL19
 17469 0094 0100     		.2byte	0x1
 17470 0096 50       		.byte	0x50
ARM GAS  /tmp/ccTQOGyd.s 			page 308


 17471 0097 00000000 		.4byte	0
 17472 009b 00000000 		.4byte	0
 17473              	.LLST5:
 17474 009f 2C000000 		.4byte	.LVL18
 17475 00a3 31000000 		.4byte	.LVL20-1
 17476 00a7 0100     		.2byte	0x1
 17477 00a9 51       		.byte	0x51
 17478 00aa 00000000 		.4byte	0
 17479 00ae 00000000 		.4byte	0
 17480              	.LLST6:
 17481 00b2 20000000 		.4byte	.LVL17
 17482 00b6 32000000 		.4byte	.LVL20
 17483 00ba 0600     		.2byte	0x6
 17484 00bc 03       		.byte	0x3
 17485 00bd 00000000 		.4byte	print_buffer.11487
 17486 00c1 9F       		.byte	0x9f
 17487 00c2 00000000 		.4byte	0
 17488 00c6 00000000 		.4byte	0
 17489              	.LLST7:
 17490 00ca 00000000 		.4byte	.LVL21
 17491 00ce 0E000000 		.4byte	.LVL22
 17492 00d2 0200     		.2byte	0x2
 17493 00d4 90       		.byte	0x90
 17494 00d5 40       		.uleb128 0x40
 17495 00d6 0E000000 		.4byte	.LVL22
 17496 00da 40000000 		.4byte	.LFE261
 17497 00de 0600     		.2byte	0x6
 17498 00e0 F3       		.byte	0xf3
 17499 00e1 03       		.uleb128 0x3
 17500 00e2 F5       		.byte	0xf5
 17501 00e3 40       		.uleb128 0x40
 17502 00e4 25       		.uleb128 0x25
 17503 00e5 9F       		.byte	0x9f
 17504 00e6 00000000 		.4byte	0
 17505 00ea 00000000 		.4byte	0
 17506              	.LLST8:
 17507 00ee 2C000000 		.4byte	.LVL24
 17508 00f2 33000000 		.4byte	.LVL25-1
 17509 00f6 0100     		.2byte	0x1
 17510 00f8 51       		.byte	0x51
 17511 00f9 00000000 		.4byte	0
 17512 00fd 00000000 		.4byte	0
 17513              	.LLST9:
 17514 0101 2C000000 		.4byte	.LVL24
 17515 0105 38000000 		.4byte	.LVL26
 17516 0109 0300     		.2byte	0x3
 17517 010b 91       		.byte	0x91
 17518 010c 70       		.sleb128 -16
 17519 010d 9F       		.byte	0x9f
 17520 010e 38000000 		.4byte	.LVL26
 17521 0112 40000000 		.4byte	.LFE261
 17522 0116 0300     		.2byte	0x3
 17523 0118 7D       		.byte	0x7d
 17524 0119 70       		.sleb128 -16
 17525 011a 9F       		.byte	0x9f
 17526 011b 00000000 		.4byte	0
 17527 011f 00000000 		.4byte	0
ARM GAS  /tmp/ccTQOGyd.s 			page 309


 17528              	.LLST10:
 17529 0123 00000000 		.4byte	.LVL27
 17530 0127 12000000 		.4byte	.LVL28
 17531 012b 0100     		.2byte	0x1
 17532 012d 50       		.byte	0x50
 17533 012e 12000000 		.4byte	.LVL28
 17534 0132 19000000 		.4byte	.LVL29-1
 17535 0136 0100     		.2byte	0x1
 17536 0138 51       		.byte	0x51
 17537 0139 19000000 		.4byte	.LVL29-1
 17538 013d 30000000 		.4byte	.LFE262
 17539 0141 0400     		.2byte	0x4
 17540 0143 F3       		.byte	0xf3
 17541 0144 01       		.uleb128 0x1
 17542 0145 50       		.byte	0x50
 17543 0146 9F       		.byte	0x9f
 17544 0147 00000000 		.4byte	0
 17545 014b 00000000 		.4byte	0
 17546              	.LLST11:
 17547 014f 1E000000 		.4byte	.LVL30
 17548 0153 25000000 		.4byte	.LVL31-1
 17549 0157 0100     		.2byte	0x1
 17550 0159 51       		.byte	0x51
 17551 015a 00000000 		.4byte	0
 17552 015e 00000000 		.4byte	0
 17553              	.LLST12:
 17554 0162 1E000000 		.4byte	.LVL30
 17555 0166 2A000000 		.4byte	.LVL32
 17556 016a 0300     		.2byte	0x3
 17557 016c 91       		.byte	0x91
 17558 016d 70       		.sleb128 -16
 17559 016e 9F       		.byte	0x9f
 17560 016f 2A000000 		.4byte	.LVL32
 17561 0173 30000000 		.4byte	.LFE262
 17562 0177 0300     		.2byte	0x3
 17563 0179 7D       		.byte	0x7d
 17564 017a 70       		.sleb128 -16
 17565 017b 9F       		.byte	0x9f
 17566 017c 00000000 		.4byte	0
 17567 0180 00000000 		.4byte	0
 17568              	.LLST13:
 17569 0184 00000000 		.4byte	.LVL33
 17570 0188 38000000 		.4byte	.LVL39
 17571 018c 0100     		.2byte	0x1
 17572 018e 50       		.byte	0x50
 17573 018f 38000000 		.4byte	.LVL39
 17574 0193 78000000 		.4byte	.LFE263
 17575 0197 0400     		.2byte	0x4
 17576 0199 F3       		.byte	0xf3
 17577 019a 01       		.uleb128 0x1
 17578 019b 50       		.byte	0x50
 17579 019c 9F       		.byte	0x9f
 17580 019d 00000000 		.4byte	0
 17581 01a1 00000000 		.4byte	0
 17582              	.LLST14:
 17583 01a5 00000000 		.4byte	.LVL33
 17584 01a9 22000000 		.4byte	.LVL37
ARM GAS  /tmp/ccTQOGyd.s 			page 310


 17585 01ad 0100     		.2byte	0x1
 17586 01af 51       		.byte	0x51
 17587 01b0 22000000 		.4byte	.LVL37
 17588 01b4 70000000 		.4byte	.LVL45
 17589 01b8 0100     		.2byte	0x1
 17590 01ba 56       		.byte	0x56
 17591 01bb 70000000 		.4byte	.LVL45
 17592 01bf 78000000 		.4byte	.LFE263
 17593 01c3 0400     		.2byte	0x4
 17594 01c5 F3       		.byte	0xf3
 17595 01c6 01       		.uleb128 0x1
 17596 01c7 51       		.byte	0x51
 17597 01c8 9F       		.byte	0x9f
 17598 01c9 00000000 		.4byte	0
 17599 01cd 00000000 		.4byte	0
 17600              	.LLST15:
 17601 01d1 16000000 		.4byte	.LVL34
 17602 01d5 18000000 		.4byte	.LVL35
 17603 01d9 0100     		.2byte	0x1
 17604 01db 53       		.byte	0x53
 17605 01dc 18000000 		.4byte	.LVL35
 17606 01e0 1C000000 		.4byte	.LVL36
 17607 01e4 0300     		.2byte	0x3
 17608 01e6 73       		.byte	0x73
 17609 01e7 78       		.sleb128 -8
 17610 01e8 9F       		.byte	0x9f
 17611 01e9 1C000000 		.4byte	.LVL36
 17612 01ed 22000000 		.4byte	.LVL37
 17613 01f1 0500     		.2byte	0x5
 17614 01f3 71       		.byte	0x71
 17615 01f4 00       		.sleb128 0
 17616 01f5 32       		.byte	0x32
 17617 01f6 24       		.byte	0x24
 17618 01f7 9F       		.byte	0x9f
 17619 01f8 22000000 		.4byte	.LVL37
 17620 01fc 64000000 		.4byte	.LVL44
 17621 0200 0500     		.2byte	0x5
 17622 0202 76       		.byte	0x76
 17623 0203 00       		.sleb128 0
 17624 0204 32       		.byte	0x32
 17625 0205 24       		.byte	0x24
 17626 0206 9F       		.byte	0x9f
 17627 0207 00000000 		.4byte	0
 17628 020b 00000000 		.4byte	0
 17629              	.LLST16:
 17630 020f 2C000000 		.4byte	.LVL38
 17631 0213 64000000 		.4byte	.LVL44
 17632 0217 0200     		.2byte	0x2
 17633 0219 78       		.byte	0x78
 17634 021a 00       		.sleb128 0
 17635 021b 00000000 		.4byte	0
 17636 021f 00000000 		.4byte	0
 17637              	.LLST17:
 17638 0223 2C000000 		.4byte	.LVL38
 17639 0227 38000000 		.4byte	.LVL39
 17640 022b 0200     		.2byte	0x2
 17641 022d 30       		.byte	0x30
ARM GAS  /tmp/ccTQOGyd.s 			page 311


 17642 022e 9F       		.byte	0x9f
 17643 022f 38000000 		.4byte	.LVL39
 17644 0233 42000000 		.4byte	.LVL40
 17645 0237 0100     		.2byte	0x1
 17646 0239 54       		.byte	0x54
 17647 023a 42000000 		.4byte	.LVL40
 17648 023e 52000000 		.4byte	.LVL41
 17649 0242 0300     		.2byte	0x3
 17650 0244 74       		.byte	0x74
 17651 0245 7F       		.sleb128 -1
 17652 0246 9F       		.byte	0x9f
 17653 0247 52000000 		.4byte	.LVL41
 17654 024b 58000000 		.4byte	.LVL42
 17655 024f 0100     		.2byte	0x1
 17656 0251 54       		.byte	0x54
 17657 0252 00000000 		.4byte	0
 17658 0256 00000000 		.4byte	0
 17659              	.LLST18:
 17660 025a 58000000 		.4byte	.LVL42
 17661 025e 61000000 		.4byte	.LVL43-1
 17662 0262 0100     		.2byte	0x1
 17663 0264 51       		.byte	0x51
 17664 0265 00000000 		.4byte	0
 17665 0269 00000000 		.4byte	0
 17666              	.LLST19:
 17667 026d 58000000 		.4byte	.LVL42
 17668 0271 64000000 		.4byte	.LVL44
 17669 0275 0100     		.2byte	0x1
 17670 0277 58       		.byte	0x58
 17671 0278 00000000 		.4byte	0
 17672 027c 00000000 		.4byte	0
 17673              	.LLST20:
 17674 0280 00000000 		.4byte	.LVL47
 17675 0284 08000000 		.4byte	.LVL48
 17676 0288 0100     		.2byte	0x1
 17677 028a 50       		.byte	0x50
 17678 028b 08000000 		.4byte	.LVL48
 17679 028f 14000000 		.4byte	.LVL50
 17680 0293 0100     		.2byte	0x1
 17681 0295 52       		.byte	0x52
 17682 0296 14000000 		.4byte	.LVL50
 17683 029a 17000000 		.4byte	.LVL51-1
 17684 029e 0100     		.2byte	0x1
 17685 02a0 51       		.byte	0x51
 17686 02a1 17000000 		.4byte	.LVL51-1
 17687 02a5 30000000 		.4byte	.LFE266
 17688 02a9 0400     		.2byte	0x4
 17689 02ab F3       		.byte	0xf3
 17690 02ac 01       		.uleb128 0x1
 17691 02ad 50       		.byte	0x50
 17692 02ae 9F       		.byte	0x9f
 17693 02af 00000000 		.4byte	0
 17694 02b3 00000000 		.4byte	0
 17695              	.LLST21:
 17696 02b7 00000000 		.4byte	.LVL47
 17697 02bb 0E000000 		.4byte	.LVL49
 17698 02bf 0100     		.2byte	0x1
ARM GAS  /tmp/ccTQOGyd.s 			page 312


 17699 02c1 51       		.byte	0x51
 17700 02c2 0E000000 		.4byte	.LVL49
 17701 02c6 26000000 		.4byte	.LVL54
 17702 02ca 0100     		.2byte	0x1
 17703 02cc 54       		.byte	0x54
 17704 02cd 26000000 		.4byte	.LVL54
 17705 02d1 30000000 		.4byte	.LFE266
 17706 02d5 0400     		.2byte	0x4
 17707 02d7 F3       		.byte	0xf3
 17708 02d8 01       		.uleb128 0x1
 17709 02d9 51       		.byte	0x51
 17710 02da 9F       		.byte	0x9f
 17711 02db 00000000 		.4byte	0
 17712 02df 00000000 		.4byte	0
 17713              	.LLST22:
 17714 02e3 00000000 		.4byte	.LVL47
 17715 02e7 1E000000 		.4byte	.LVL52
 17716 02eb 0200     		.2byte	0x2
 17717 02ed 31       		.byte	0x31
 17718 02ee 9F       		.byte	0x9f
 17719 02ef 1E000000 		.4byte	.LVL52
 17720 02f3 23000000 		.4byte	.LVL53-1
 17721 02f7 0100     		.2byte	0x1
 17722 02f9 51       		.byte	0x51
 17723 02fa 23000000 		.4byte	.LVL53-1
 17724 02fe 26000000 		.4byte	.LVL54
 17725 0302 0300     		.2byte	0x3
 17726 0304 74       		.byte	0x74
 17727 0305 01       		.sleb128 1
 17728 0306 9F       		.byte	0x9f
 17729 0307 26000000 		.4byte	.LVL54
 17730 030b 30000000 		.4byte	.LFE266
 17731 030f 0600     		.2byte	0x6
 17732 0311 F3       		.byte	0xf3
 17733 0312 01       		.uleb128 0x1
 17734 0313 51       		.byte	0x51
 17735 0314 23       		.byte	0x23
 17736 0315 01       		.uleb128 0x1
 17737 0316 9F       		.byte	0x9f
 17738 0317 00000000 		.4byte	0
 17739 031b 00000000 		.4byte	0
 17740              	.LLST23:
 17741 031f 1E000000 		.4byte	.LVL52
 17742 0323 23000000 		.4byte	.LVL53-1
 17743 0327 0100     		.2byte	0x1
 17744 0329 51       		.byte	0x51
 17745 032a 23000000 		.4byte	.LVL53-1
 17746 032e 26000000 		.4byte	.LVL54
 17747 0332 0300     		.2byte	0x3
 17748 0334 74       		.byte	0x74
 17749 0335 01       		.sleb128 1
 17750 0336 9F       		.byte	0x9f
 17751 0337 26000000 		.4byte	.LVL54
 17752 033b 30000000 		.4byte	.LFE266
 17753 033f 0600     		.2byte	0x6
 17754 0341 F3       		.byte	0xf3
 17755 0342 01       		.uleb128 0x1
ARM GAS  /tmp/ccTQOGyd.s 			page 313


 17756 0343 51       		.byte	0x51
 17757 0344 23       		.byte	0x23
 17758 0345 01       		.uleb128 0x1
 17759 0346 9F       		.byte	0x9f
 17760 0347 00000000 		.4byte	0
 17761 034b 00000000 		.4byte	0
 17762              	.LLST24:
 17763 034f 00000000 		.4byte	.LVL55
 17764 0353 1E000000 		.4byte	.LVL57
 17765 0357 0100     		.2byte	0x1
 17766 0359 50       		.byte	0x50
 17767 035a 1E000000 		.4byte	.LVL57
 17768 035e 21000000 		.4byte	.LVL58-1
 17769 0362 0500     		.2byte	0x5
 17770 0364 03       		.byte	0x3
 17771 0365 00000000 		.4byte	send_buffer
 17772 0369 21000000 		.4byte	.LVL58-1
 17773 036d C8020000 		.4byte	.LFE267
 17774 0371 0400     		.2byte	0x4
 17775 0373 F3       		.byte	0xf3
 17776 0374 01       		.uleb128 0x1
 17777 0375 50       		.byte	0x50
 17778 0376 9F       		.byte	0x9f
 17779 0377 00000000 		.4byte	0
 17780 037b 00000000 		.4byte	0
 17781              	.LLST25:
 17782 037f 00000000 		.4byte	.LVL55
 17783 0383 1C000000 		.4byte	.LVL56
 17784 0387 0100     		.2byte	0x1
 17785 0389 51       		.byte	0x51
 17786 038a 1C000000 		.4byte	.LVL56
 17787 038e C0020000 		.4byte	.LVL94
 17788 0392 0100     		.2byte	0x1
 17789 0394 54       		.byte	0x54
 17790 0395 C0020000 		.4byte	.LVL94
 17791 0399 C8020000 		.4byte	.LFE267
 17792 039d 0400     		.2byte	0x4
 17793 039f F3       		.byte	0xf3
 17794 03a0 01       		.uleb128 0x1
 17795 03a1 51       		.byte	0x51
 17796 03a2 9F       		.byte	0x9f
 17797 03a3 00000000 		.4byte	0
 17798 03a7 00000000 		.4byte	0
 17799              	.LLST26:
 17800 03ab B4020000 		.4byte	.LVL92
 17801 03af BB020000 		.4byte	.LVL93-1
 17802 03b3 0100     		.2byte	0x1
 17803 03b5 51       		.byte	0x51
 17804 03b6 00000000 		.4byte	0
 17805 03ba 00000000 		.4byte	0
 17806              	.LLST27:
 17807 03be 00000000 		.4byte	.LVL95
 17808 03c2 18000000 		.4byte	.LVL96
 17809 03c6 0100     		.2byte	0x1
 17810 03c8 50       		.byte	0x50
 17811 03c9 18000000 		.4byte	.LVL96
 17812 03cd 7C000000 		.4byte	.LVL99
ARM GAS  /tmp/ccTQOGyd.s 			page 314


 17813 03d1 0100     		.2byte	0x1
 17814 03d3 54       		.byte	0x54
 17815 03d4 7C000000 		.4byte	.LVL99
 17816 03d8 D6000000 		.4byte	.LVL108
 17817 03dc 0300     		.2byte	0x3
 17818 03de 77       		.byte	0x77
 17819 03df 01       		.sleb128 1
 17820 03e0 9F       		.byte	0x9f
 17821 03e1 D6000000 		.4byte	.LVL108
 17822 03e5 10010000 		.4byte	.LVL114
 17823 03e9 0600     		.2byte	0x6
 17824 03eb F3       		.byte	0xf3
 17825 03ec 01       		.uleb128 0x1
 17826 03ed 50       		.byte	0x50
 17827 03ee 23       		.byte	0x23
 17828 03ef 01       		.uleb128 0x1
 17829 03f0 9F       		.byte	0x9f
 17830 03f1 1A010000 		.4byte	.LVL115
 17831 03f5 20010000 		.4byte	.LVL117
 17832 03f9 0100     		.2byte	0x1
 17833 03fb 54       		.byte	0x54
 17834 03fc 20010000 		.4byte	.LVL117
 17835 0400 4E010000 		.4byte	.LVL121
 17836 0404 0300     		.2byte	0x3
 17837 0406 77       		.byte	0x77
 17838 0407 01       		.sleb128 1
 17839 0408 9F       		.byte	0x9f
 17840 0409 4E010000 		.4byte	.LVL121
 17841 040d 8E010000 		.4byte	.LVL127
 17842 0411 0100     		.2byte	0x1
 17843 0413 54       		.byte	0x54
 17844 0414 8E010000 		.4byte	.LVL127
 17845 0418 91010000 		.4byte	.LVL128-1
 17846 041c 0100     		.2byte	0x1
 17847 041e 50       		.byte	0x50
 17848 041f 91010000 		.4byte	.LVL128-1
 17849 0423 F4010000 		.4byte	.LVL136
 17850 0427 0600     		.2byte	0x6
 17851 0429 F3       		.byte	0xf3
 17852 042a 01       		.uleb128 0x1
 17853 042b 50       		.byte	0x50
 17854 042c 23       		.byte	0x23
 17855 042d 01       		.uleb128 0x1
 17856 042e 9F       		.byte	0x9f
 17857 042f F4010000 		.4byte	.LVL136
 17858 0433 64020000 		.4byte	.LVL145
 17859 0437 0100     		.2byte	0x1
 17860 0439 54       		.byte	0x54
 17861 043a 64020000 		.4byte	.LVL145
 17862 043e CC020000 		.4byte	.LVL152
 17863 0442 0600     		.2byte	0x6
 17864 0444 F3       		.byte	0xf3
 17865 0445 01       		.uleb128 0x1
 17866 0446 50       		.byte	0x50
 17867 0447 23       		.byte	0x23
 17868 0448 01       		.uleb128 0x1
 17869 0449 9F       		.byte	0x9f
ARM GAS  /tmp/ccTQOGyd.s 			page 315


 17870 044a CC020000 		.4byte	.LVL152
 17871 044e 3A030000 		.4byte	.LVL168
 17872 0452 0100     		.2byte	0x1
 17873 0454 54       		.byte	0x54
 17874 0455 3A030000 		.4byte	.LVL168
 17875 0459 56030000 		.4byte	.LVL171
 17876 045d 0300     		.2byte	0x3
 17877 045f 77       		.byte	0x77
 17878 0460 01       		.sleb128 1
 17879 0461 9F       		.byte	0x9f
 17880 0462 56030000 		.4byte	.LVL171
 17881 0466 94030000 		.4byte	.LVL173
 17882 046a 0600     		.2byte	0x6
 17883 046c F3       		.byte	0xf3
 17884 046d 01       		.uleb128 0x1
 17885 046e 50       		.byte	0x50
 17886 046f 23       		.byte	0x23
 17887 0470 01       		.uleb128 0x1
 17888 0471 9F       		.byte	0x9f
 17889 0472 94030000 		.4byte	.LVL173
 17890 0476 4E040000 		.4byte	.LVL196
 17891 047a 0100     		.2byte	0x1
 17892 047c 54       		.byte	0x54
 17893 047d 4E040000 		.4byte	.LVL196
 17894 0481 55040000 		.4byte	.LVL198-1
 17895 0485 0300     		.2byte	0x3
 17896 0487 70       		.byte	0x70
 17897 0488 01       		.sleb128 1
 17898 0489 9F       		.byte	0x9f
 17899 048a 55040000 		.4byte	.LVL198-1
 17900 048e 7E050000 		.4byte	.LVL229
 17901 0492 0300     		.2byte	0x3
 17902 0494 77       		.byte	0x77
 17903 0495 01       		.sleb128 1
 17904 0496 9F       		.byte	0x9f
 17905 0497 7E050000 		.4byte	.LVL229
 17906 049b A0050000 		.4byte	.LVL234
 17907 049f 0100     		.2byte	0x1
 17908 04a1 54       		.byte	0x54
 17909 04a2 A0050000 		.4byte	.LVL234
 17910 04a6 B4050000 		.4byte	.LVL238
 17911 04aa 0300     		.2byte	0x3
 17912 04ac 77       		.byte	0x77
 17913 04ad 01       		.sleb128 1
 17914 04ae 9F       		.byte	0x9f
 17915 04af B4050000 		.4byte	.LVL238
 17916 04b3 CA050000 		.4byte	.LVL242
 17917 04b7 0100     		.2byte	0x1
 17918 04b9 54       		.byte	0x54
 17919 04ba CA050000 		.4byte	.LVL242
 17920 04be DE050000 		.4byte	.LVL245
 17921 04c2 0300     		.2byte	0x3
 17922 04c4 77       		.byte	0x77
 17923 04c5 01       		.sleb128 1
 17924 04c6 9F       		.byte	0x9f
 17925 04c7 DE050000 		.4byte	.LVL245
 17926 04cb F6050000 		.4byte	.LVL250
ARM GAS  /tmp/ccTQOGyd.s 			page 316


 17927 04cf 0100     		.2byte	0x1
 17928 04d1 54       		.byte	0x54
 17929 04d2 F6050000 		.4byte	.LVL250
 17930 04d6 1E060000 		.4byte	.LVL253
 17931 04da 0300     		.2byte	0x3
 17932 04dc 77       		.byte	0x77
 17933 04dd 01       		.sleb128 1
 17934 04de 9F       		.byte	0x9f
 17935 04df 1E060000 		.4byte	.LVL253
 17936 04e3 30060000 		.4byte	.LVL256
 17937 04e7 0100     		.2byte	0x1
 17938 04e9 54       		.byte	0x54
 17939 04ea 30060000 		.4byte	.LVL256
 17940 04ee 64060000 		.4byte	.LVL263
 17941 04f2 0300     		.2byte	0x3
 17942 04f4 77       		.byte	0x77
 17943 04f5 01       		.sleb128 1
 17944 04f6 9F       		.byte	0x9f
 17945 04f7 64060000 		.4byte	.LVL263
 17946 04fb 78060000 		.4byte	.LVL267
 17947 04ff 0100     		.2byte	0x1
 17948 0501 54       		.byte	0x54
 17949 0502 78060000 		.4byte	.LVL267
 17950 0506 88060000 		.4byte	.LVL269
 17951 050a 0300     		.2byte	0x3
 17952 050c 77       		.byte	0x77
 17953 050d 01       		.sleb128 1
 17954 050e 9F       		.byte	0x9f
 17955 050f 88060000 		.4byte	.LVL269
 17956 0513 CC060000 		.4byte	.LVL271
 17957 0517 0600     		.2byte	0x6
 17958 0519 F3       		.byte	0xf3
 17959 051a 01       		.uleb128 0x1
 17960 051b 50       		.byte	0x50
 17961 051c 23       		.byte	0x23
 17962 051d 01       		.uleb128 0x1
 17963 051e 9F       		.byte	0x9f
 17964 051f CC060000 		.4byte	.LVL271
 17965 0523 D8060000 		.4byte	.LVL272
 17966 0527 0100     		.2byte	0x1
 17967 0529 54       		.byte	0x54
 17968 052a D8060000 		.4byte	.LVL272
 17969 052e DE060000 		.4byte	.LVL274
 17970 0532 0600     		.2byte	0x6
 17971 0534 F3       		.byte	0xf3
 17972 0535 01       		.uleb128 0x1
 17973 0536 50       		.byte	0x50
 17974 0537 23       		.byte	0x23
 17975 0538 01       		.uleb128 0x1
 17976 0539 9F       		.byte	0x9f
 17977 053a DE060000 		.4byte	.LVL274
 17978 053e 3A070000 		.4byte	.LVL287
 17979 0542 0100     		.2byte	0x1
 17980 0544 54       		.byte	0x54
 17981 0545 3A070000 		.4byte	.LVL287
 17982 0549 47070000 		.4byte	.LVL289-1
 17983 054d 0300     		.2byte	0x3
ARM GAS  /tmp/ccTQOGyd.s 			page 317


 17984 054f 70       		.byte	0x70
 17985 0550 01       		.sleb128 1
 17986 0551 9F       		.byte	0x9f
 17987 0552 47070000 		.4byte	.LVL289-1
 17988 0556 5E070000 		.4byte	.LVL290
 17989 055a 0300     		.2byte	0x3
 17990 055c 77       		.byte	0x77
 17991 055d 01       		.sleb128 1
 17992 055e 9F       		.byte	0x9f
 17993 055f 5E070000 		.4byte	.LVL290
 17994 0563 62070000 		.4byte	.LVL292
 17995 0567 0100     		.2byte	0x1
 17996 0569 54       		.byte	0x54
 17997 056a 62070000 		.4byte	.LVL292
 17998 056e 73070000 		.4byte	.LVL294-1
 17999 0572 0300     		.2byte	0x3
 18000 0574 70       		.byte	0x70
 18001 0575 01       		.sleb128 1
 18002 0576 9F       		.byte	0x9f
 18003 0577 73070000 		.4byte	.LVL294-1
 18004 057b C2070000 		.4byte	.LVL301
 18005 057f 0300     		.2byte	0x3
 18006 0581 77       		.byte	0x77
 18007 0582 01       		.sleb128 1
 18008 0583 9F       		.byte	0x9f
 18009 0584 C2070000 		.4byte	.LVL301
 18010 0588 C6070000 		.4byte	.LVL303
 18011 058c 0100     		.2byte	0x1
 18012 058e 54       		.byte	0x54
 18013 058f C6070000 		.4byte	.LVL303
 18014 0593 D7070000 		.4byte	.LVL305-1
 18015 0597 0300     		.2byte	0x3
 18016 0599 70       		.byte	0x70
 18017 059a 01       		.sleb128 1
 18018 059b 9F       		.byte	0x9f
 18019 059c D7070000 		.4byte	.LVL305-1
 18020 05a0 F8070000 		.4byte	.LVL308
 18021 05a4 0300     		.2byte	0x3
 18022 05a6 77       		.byte	0x77
 18023 05a7 01       		.sleb128 1
 18024 05a8 9F       		.byte	0x9f
 18025 05a9 F8070000 		.4byte	.LVL308
 18026 05ad 02080000 		.4byte	.LVL309
 18027 05b1 0100     		.2byte	0x1
 18028 05b3 54       		.byte	0x54
 18029 05b4 02080000 		.4byte	.LVL309
 18030 05b8 04080000 		.4byte	.LVL310
 18031 05bc 0300     		.2byte	0x3
 18032 05be 70       		.byte	0x70
 18033 05bf 01       		.sleb128 1
 18034 05c0 9F       		.byte	0x9f
 18035 05c1 04080000 		.4byte	.LVL310
 18036 05c5 20080000 		.4byte	.LVL313
 18037 05c9 0300     		.2byte	0x3
 18038 05cb 77       		.byte	0x77
 18039 05cc 01       		.sleb128 1
 18040 05cd 9F       		.byte	0x9f
ARM GAS  /tmp/ccTQOGyd.s 			page 318


 18041 05ce 20080000 		.4byte	.LVL313
 18042 05d2 3C0B0000 		.4byte	.LVL351
 18043 05d6 0100     		.2byte	0x1
 18044 05d8 54       		.byte	0x54
 18045 05d9 3C0B0000 		.4byte	.LVL351
 18046 05dd A20B0000 		.4byte	.LVL357
 18047 05e1 0600     		.2byte	0x6
 18048 05e3 F3       		.byte	0xf3
 18049 05e4 01       		.uleb128 0x1
 18050 05e5 50       		.byte	0x50
 18051 05e6 23       		.byte	0x23
 18052 05e7 01       		.uleb128 0x1
 18053 05e8 9F       		.byte	0x9f
 18054 05e9 A20B0000 		.4byte	.LVL357
 18055 05ed 0C0C0000 		.4byte	.LVL377
 18056 05f1 0100     		.2byte	0x1
 18057 05f3 54       		.byte	0x54
 18058 05f4 0C0C0000 		.4byte	.LVL377
 18059 05f8 120C0000 		.4byte	.LVL378
 18060 05fc 0300     		.2byte	0x3
 18061 05fe 77       		.byte	0x77
 18062 05ff 01       		.sleb128 1
 18063 0600 9F       		.byte	0x9f
 18064 0601 120C0000 		.4byte	.LVL378
 18065 0605 58100000 		.4byte	.LVL454
 18066 0609 0600     		.2byte	0x6
 18067 060b F3       		.byte	0xf3
 18068 060c 01       		.uleb128 0x1
 18069 060d 50       		.byte	0x50
 18070 060e 23       		.byte	0x23
 18071 060f 01       		.uleb128 0x1
 18072 0610 9F       		.byte	0x9f
 18073 0611 58100000 		.4byte	.LVL454
 18074 0615 48160000 		.4byte	.LVL559
 18075 0619 0100     		.2byte	0x1
 18076 061b 54       		.byte	0x54
 18077 061c 48160000 		.4byte	.LVL559
 18078 0620 50160000 		.4byte	.LVL560
 18079 0624 0300     		.2byte	0x3
 18080 0626 77       		.byte	0x77
 18081 0627 01       		.sleb128 1
 18082 0628 9F       		.byte	0x9f
 18083 0629 50160000 		.4byte	.LVL560
 18084 062d 58160000 		.4byte	.LVL561
 18085 0631 0100     		.2byte	0x1
 18086 0633 54       		.byte	0x54
 18087 0634 58160000 		.4byte	.LVL561
 18088 0638 60160000 		.4byte	.LVL563
 18089 063c 0300     		.2byte	0x3
 18090 063e 77       		.byte	0x77
 18091 063f 01       		.sleb128 1
 18092 0640 9F       		.byte	0x9f
 18093 0641 60160000 		.4byte	.LVL563
 18094 0645 7A160000 		.4byte	.LVL568
 18095 0649 0100     		.2byte	0x1
 18096 064b 54       		.byte	0x54
 18097 064c 7A160000 		.4byte	.LVL568
ARM GAS  /tmp/ccTQOGyd.s 			page 319


 18098 0650 88160000 		.4byte	.LVL570
 18099 0654 0300     		.2byte	0x3
 18100 0656 77       		.byte	0x77
 18101 0657 01       		.sleb128 1
 18102 0658 9F       		.byte	0x9f
 18103 0659 88160000 		.4byte	.LVL570
 18104 065d 96160000 		.4byte	.LVL571
 18105 0661 0600     		.2byte	0x6
 18106 0663 F3       		.byte	0xf3
 18107 0664 01       		.uleb128 0x1
 18108 0665 50       		.byte	0x50
 18109 0666 23       		.byte	0x23
 18110 0667 01       		.uleb128 0x1
 18111 0668 9F       		.byte	0x9f
 18112 0669 96160000 		.4byte	.LVL571
 18113 066d A0160000 		.4byte	.LVL573
 18114 0671 0100     		.2byte	0x1
 18115 0673 54       		.byte	0x54
 18116 0674 A0160000 		.4byte	.LVL573
 18117 0678 DA160000 		.4byte	.LVL578
 18118 067c 0300     		.2byte	0x3
 18119 067e 77       		.byte	0x77
 18120 067f 01       		.sleb128 1
 18121 0680 9F       		.byte	0x9f
 18122 0681 DA160000 		.4byte	.LVL578
 18123 0685 EC160000 		.4byte	.LVL580
 18124 0689 0600     		.2byte	0x6
 18125 068b F3       		.byte	0xf3
 18126 068c 01       		.uleb128 0x1
 18127 068d 50       		.byte	0x50
 18128 068e 23       		.byte	0x23
 18129 068f 01       		.uleb128 0x1
 18130 0690 9F       		.byte	0x9f
 18131 0691 EC160000 		.4byte	.LVL580
 18132 0695 18170000 		.4byte	.LFE259
 18133 0699 0100     		.2byte	0x1
 18134 069b 54       		.byte	0x54
 18135 069c 00000000 		.4byte	0
 18136 06a0 00000000 		.4byte	0
 18137              	.LLST28:
 18138 06a4 00000000 		.4byte	.LVL95
 18139 06a8 1C000000 		.4byte	.LVL97
 18140 06ac 0100     		.2byte	0x1
 18141 06ae 51       		.byte	0x51
 18142 06af 1C000000 		.4byte	.LVL97
 18143 06b3 7E000000 		.4byte	.LVL100
 18144 06b7 0100     		.2byte	0x1
 18145 06b9 55       		.byte	0x55
 18146 06ba 7E000000 		.4byte	.LVL100
 18147 06be 10010000 		.4byte	.LVL114
 18148 06c2 0600     		.2byte	0x6
 18149 06c4 F3       		.byte	0xf3
 18150 06c5 01       		.uleb128 0x1
 18151 06c6 51       		.byte	0x51
 18152 06c7 31       		.byte	0x31
 18153 06c8 1C       		.byte	0x1c
 18154 06c9 9F       		.byte	0x9f
ARM GAS  /tmp/ccTQOGyd.s 			page 320


 18155 06ca 1A010000 		.4byte	.LVL115
 18156 06ce 58010000 		.4byte	.LVL123
 18157 06d2 0100     		.2byte	0x1
 18158 06d4 55       		.byte	0x55
 18159 06d5 58010000 		.4byte	.LVL123
 18160 06d9 F4010000 		.4byte	.LVL136
 18161 06dd 0600     		.2byte	0x6
 18162 06df F3       		.byte	0xf3
 18163 06e0 01       		.uleb128 0x1
 18164 06e1 51       		.byte	0x51
 18165 06e2 31       		.byte	0x31
 18166 06e3 1C       		.byte	0x1c
 18167 06e4 9F       		.byte	0x9f
 18168 06e5 F4010000 		.4byte	.LVL136
 18169 06e9 06020000 		.4byte	.LVL139
 18170 06ed 0100     		.2byte	0x1
 18171 06ef 55       		.byte	0x55
 18172 06f0 06020000 		.4byte	.LVL139
 18173 06f4 CC020000 		.4byte	.LVL152
 18174 06f8 0600     		.2byte	0x6
 18175 06fa F3       		.byte	0xf3
 18176 06fb 01       		.uleb128 0x1
 18177 06fc 51       		.byte	0x51
 18178 06fd 31       		.byte	0x31
 18179 06fe 1C       		.byte	0x1c
 18180 06ff 9F       		.byte	0x9f
 18181 0700 CC020000 		.4byte	.LVL152
 18182 0704 D6020000 		.4byte	.LVL154
 18183 0708 0100     		.2byte	0x1
 18184 070a 55       		.byte	0x55
 18185 070b D6020000 		.4byte	.LVL154
 18186 070f 94030000 		.4byte	.LVL173
 18187 0713 0600     		.2byte	0x6
 18188 0715 F3       		.byte	0xf3
 18189 0716 01       		.uleb128 0x1
 18190 0717 51       		.byte	0x51
 18191 0718 31       		.byte	0x31
 18192 0719 1C       		.byte	0x1c
 18193 071a 9F       		.byte	0x9f
 18194 071b 94030000 		.4byte	.LVL173
 18195 071f 46040000 		.4byte	.LVL195
 18196 0723 0100     		.2byte	0x1
 18197 0725 55       		.byte	0x55
 18198 0726 46040000 		.4byte	.LVL195
 18199 072a 55040000 		.4byte	.LVL198-1
 18200 072e 0300     		.2byte	0x3
 18201 0730 71       		.byte	0x71
 18202 0731 7F       		.sleb128 -1
 18203 0732 9F       		.byte	0x9f
 18204 0733 55040000 		.4byte	.LVL198-1
 18205 0737 7E050000 		.4byte	.LVL229
 18206 073b 0600     		.2byte	0x6
 18207 073d F3       		.byte	0xf3
 18208 073e 01       		.uleb128 0x1
 18209 073f 51       		.byte	0x51
 18210 0740 31       		.byte	0x31
 18211 0741 1C       		.byte	0x1c
ARM GAS  /tmp/ccTQOGyd.s 			page 321


 18212 0742 9F       		.byte	0x9f
 18213 0743 7E050000 		.4byte	.LVL229
 18214 0747 52060000 		.4byte	.LVL260
 18215 074b 0100     		.2byte	0x1
 18216 074d 55       		.byte	0x55
 18217 074e 52060000 		.4byte	.LVL260
 18218 0752 64060000 		.4byte	.LVL263
 18219 0756 0600     		.2byte	0x6
 18220 0758 F3       		.byte	0xf3
 18221 0759 01       		.uleb128 0x1
 18222 075a 51       		.byte	0x51
 18223 075b 31       		.byte	0x31
 18224 075c 1C       		.byte	0x1c
 18225 075d 9F       		.byte	0x9f
 18226 075e 64060000 		.4byte	.LVL263
 18227 0762 88060000 		.4byte	.LVL269
 18228 0766 0100     		.2byte	0x1
 18229 0768 55       		.byte	0x55
 18230 0769 88060000 		.4byte	.LVL269
 18231 076d CC060000 		.4byte	.LVL271
 18232 0771 0600     		.2byte	0x6
 18233 0773 F3       		.byte	0xf3
 18234 0774 01       		.uleb128 0x1
 18235 0775 51       		.byte	0x51
 18236 0776 31       		.byte	0x31
 18237 0777 1C       		.byte	0x1c
 18238 0778 9F       		.byte	0x9f
 18239 0779 CC060000 		.4byte	.LVL271
 18240 077d D8060000 		.4byte	.LVL272
 18241 0781 0100     		.2byte	0x1
 18242 0783 55       		.byte	0x55
 18243 0784 D8060000 		.4byte	.LVL272
 18244 0788 DE060000 		.4byte	.LVL274
 18245 078c 0600     		.2byte	0x6
 18246 078e F3       		.byte	0xf3
 18247 078f 01       		.uleb128 0x1
 18248 0790 51       		.byte	0x51
 18249 0791 31       		.byte	0x31
 18250 0792 1C       		.byte	0x1c
 18251 0793 9F       		.byte	0x9f
 18252 0794 DE060000 		.4byte	.LVL274
 18253 0798 E2060000 		.4byte	.LVL275
 18254 079c 0100     		.2byte	0x1
 18255 079e 55       		.byte	0x55
 18256 079f E2060000 		.4byte	.LVL275
 18257 07a3 F8060000 		.4byte	.LVL276
 18258 07a7 0300     		.2byte	0x3
 18259 07a9 71       		.byte	0x71
 18260 07aa 7F       		.sleb128 -1
 18261 07ab 9F       		.byte	0x9f
 18262 07ac F8060000 		.4byte	.LVL276
 18263 07b0 28070000 		.4byte	.LVL282
 18264 07b4 0600     		.2byte	0x6
 18265 07b6 F3       		.byte	0xf3
 18266 07b7 01       		.uleb128 0x1
 18267 07b8 51       		.byte	0x51
 18268 07b9 31       		.byte	0x31
ARM GAS  /tmp/ccTQOGyd.s 			page 322


 18269 07ba 1C       		.byte	0x1c
 18270 07bb 9F       		.byte	0x9f
 18271 07bc 28070000 		.4byte	.LVL282
 18272 07c0 38070000 		.4byte	.LVL286
 18273 07c4 0100     		.2byte	0x1
 18274 07c6 55       		.byte	0x55
 18275 07c7 38070000 		.4byte	.LVL286
 18276 07cb 47070000 		.4byte	.LVL289-1
 18277 07cf 0300     		.2byte	0x3
 18278 07d1 71       		.byte	0x71
 18279 07d2 7F       		.sleb128 -1
 18280 07d3 9F       		.byte	0x9f
 18281 07d4 47070000 		.4byte	.LVL289-1
 18282 07d8 5E070000 		.4byte	.LVL290
 18283 07dc 0600     		.2byte	0x6
 18284 07de F3       		.byte	0xf3
 18285 07df 01       		.uleb128 0x1
 18286 07e0 51       		.byte	0x51
 18287 07e1 31       		.byte	0x31
 18288 07e2 1C       		.byte	0x1c
 18289 07e3 9F       		.byte	0x9f
 18290 07e4 5E070000 		.4byte	.LVL290
 18291 07e8 60070000 		.4byte	.LVL291
 18292 07ec 0100     		.2byte	0x1
 18293 07ee 55       		.byte	0x55
 18294 07ef 60070000 		.4byte	.LVL291
 18295 07f3 73070000 		.4byte	.LVL294-1
 18296 07f7 0300     		.2byte	0x3
 18297 07f9 71       		.byte	0x71
 18298 07fa 7F       		.sleb128 -1
 18299 07fb 9F       		.byte	0x9f
 18300 07fc 73070000 		.4byte	.LVL294-1
 18301 0800 C2070000 		.4byte	.LVL301
 18302 0804 0600     		.2byte	0x6
 18303 0806 F3       		.byte	0xf3
 18304 0807 01       		.uleb128 0x1
 18305 0808 51       		.byte	0x51
 18306 0809 31       		.byte	0x31
 18307 080a 1C       		.byte	0x1c
 18308 080b 9F       		.byte	0x9f
 18309 080c C2070000 		.4byte	.LVL301
 18310 0810 C4070000 		.4byte	.LVL302
 18311 0814 0100     		.2byte	0x1
 18312 0816 55       		.byte	0x55
 18313 0817 C4070000 		.4byte	.LVL302
 18314 081b D7070000 		.4byte	.LVL305-1
 18315 081f 0300     		.2byte	0x3
 18316 0821 71       		.byte	0x71
 18317 0822 7F       		.sleb128 -1
 18318 0823 9F       		.byte	0x9f
 18319 0824 D7070000 		.4byte	.LVL305-1
 18320 0828 F8070000 		.4byte	.LVL308
 18321 082c 0600     		.2byte	0x6
 18322 082e F3       		.byte	0xf3
 18323 082f 01       		.uleb128 0x1
 18324 0830 51       		.byte	0x51
 18325 0831 31       		.byte	0x31
ARM GAS  /tmp/ccTQOGyd.s 			page 323


 18326 0832 1C       		.byte	0x1c
 18327 0833 9F       		.byte	0x9f
 18328 0834 F8070000 		.4byte	.LVL308
 18329 0838 2C080000 		.4byte	.LVL315
 18330 083c 0100     		.2byte	0x1
 18331 083e 55       		.byte	0x55
 18332 083f 2C080000 		.4byte	.LVL315
 18333 0843 A20B0000 		.4byte	.LVL357
 18334 0847 0600     		.2byte	0x6
 18335 0849 F3       		.byte	0xf3
 18336 084a 01       		.uleb128 0x1
 18337 084b 51       		.byte	0x51
 18338 084c 31       		.byte	0x31
 18339 084d 1C       		.byte	0x1c
 18340 084e 9F       		.byte	0x9f
 18341 084f A20B0000 		.4byte	.LVL357
 18342 0853 BC0B0000 		.4byte	.LVL362
 18343 0857 0100     		.2byte	0x1
 18344 0859 55       		.byte	0x55
 18345 085a BC0B0000 		.4byte	.LVL362
 18346 085e D40B0000 		.4byte	.LVL368
 18347 0862 0600     		.2byte	0x6
 18348 0864 F3       		.byte	0xf3
 18349 0865 01       		.uleb128 0x1
 18350 0866 51       		.byte	0x51
 18351 0867 31       		.byte	0x31
 18352 0868 1C       		.byte	0x1c
 18353 0869 9F       		.byte	0x9f
 18354 086a D40B0000 		.4byte	.LVL368
 18355 086e 0A0C0000 		.4byte	.LVL376
 18356 0872 0100     		.2byte	0x1
 18357 0874 55       		.byte	0x55
 18358 0875 0A0C0000 		.4byte	.LVL376
 18359 0879 58100000 		.4byte	.LVL454
 18360 087d 0600     		.2byte	0x6
 18361 087f F3       		.byte	0xf3
 18362 0880 01       		.uleb128 0x1
 18363 0881 51       		.byte	0x51
 18364 0882 31       		.byte	0x31
 18365 0883 1C       		.byte	0x1c
 18366 0884 9F       		.byte	0x9f
 18367 0885 58100000 		.4byte	.LVL454
 18368 0889 5E100000 		.4byte	.LVL456
 18369 088d 0100     		.2byte	0x1
 18370 088f 55       		.byte	0x55
 18371 0890 5E100000 		.4byte	.LVL456
 18372 0894 08160000 		.4byte	.LVL549
 18373 0898 0600     		.2byte	0x6
 18374 089a F3       		.byte	0xf3
 18375 089b 01       		.uleb128 0x1
 18376 089c 51       		.byte	0x51
 18377 089d 31       		.byte	0x31
 18378 089e 1C       		.byte	0x1c
 18379 089f 9F       		.byte	0x9f
 18380 08a0 08160000 		.4byte	.LVL549
 18381 08a4 48160000 		.4byte	.LVL559
 18382 08a8 0100     		.2byte	0x1
ARM GAS  /tmp/ccTQOGyd.s 			page 324


 18383 08aa 55       		.byte	0x55
 18384 08ab 48160000 		.4byte	.LVL559
 18385 08af 58160000 		.4byte	.LVL561
 18386 08b3 0600     		.2byte	0x6
 18387 08b5 F3       		.byte	0xf3
 18388 08b6 01       		.uleb128 0x1
 18389 08b7 51       		.byte	0x51
 18390 08b8 31       		.byte	0x31
 18391 08b9 1C       		.byte	0x1c
 18392 08ba 9F       		.byte	0x9f
 18393 08bb 58160000 		.4byte	.LVL561
 18394 08bf 88160000 		.4byte	.LVL570
 18395 08c3 0100     		.2byte	0x1
 18396 08c5 55       		.byte	0x55
 18397 08c6 88160000 		.4byte	.LVL570
 18398 08ca 96160000 		.4byte	.LVL571
 18399 08ce 0600     		.2byte	0x6
 18400 08d0 F3       		.byte	0xf3
 18401 08d1 01       		.uleb128 0x1
 18402 08d2 51       		.byte	0x51
 18403 08d3 31       		.byte	0x31
 18404 08d4 1C       		.byte	0x1c
 18405 08d5 9F       		.byte	0x9f
 18406 08d6 96160000 		.4byte	.LVL571
 18407 08da 98160000 		.4byte	.LVL572
 18408 08de 0100     		.2byte	0x1
 18409 08e0 55       		.byte	0x55
 18410 08e1 98160000 		.4byte	.LVL572
 18411 08e5 18170000 		.4byte	.LFE259
 18412 08e9 0600     		.2byte	0x6
 18413 08eb F3       		.byte	0xf3
 18414 08ec 01       		.uleb128 0x1
 18415 08ed 51       		.byte	0x51
 18416 08ee 31       		.byte	0x31
 18417 08ef 1C       		.byte	0x1c
 18418 08f0 9F       		.byte	0x9f
 18419 08f1 00000000 		.4byte	0
 18420 08f5 00000000 		.4byte	0
 18421              	.LLST29:
 18422 08f9 18000000 		.4byte	.LVL96
 18423 08fd 79000000 		.4byte	.LVL98-1
 18424 0901 0200     		.2byte	0x2
 18425 0903 70       		.byte	0x70
 18426 0904 00       		.sleb128 0
 18427 0905 79000000 		.4byte	.LVL98-1
 18428 0909 10010000 		.4byte	.LVL114
 18429 090d 0100     		.2byte	0x1
 18430 090f 58       		.byte	0x58
 18431 0910 1A010000 		.4byte	.LVL115
 18432 0914 1D010000 		.4byte	.LVL116-1
 18433 0918 0200     		.2byte	0x2
 18434 091a 70       		.byte	0x70
 18435 091b 00       		.sleb128 0
 18436 091c 1D010000 		.4byte	.LVL116-1
 18437 0920 4E010000 		.4byte	.LVL121
 18438 0924 0100     		.2byte	0x1
 18439 0926 58       		.byte	0x58
ARM GAS  /tmp/ccTQOGyd.s 			page 325


 18440 0927 4E010000 		.4byte	.LVL121
 18441 092b 55010000 		.4byte	.LVL122-1
 18442 092f 0200     		.2byte	0x2
 18443 0931 70       		.byte	0x70
 18444 0932 00       		.sleb128 0
 18445 0933 55010000 		.4byte	.LVL122-1
 18446 0937 68010000 		.4byte	.LVL125
 18447 093b 0100     		.2byte	0x1
 18448 093d 58       		.byte	0x58
 18449 093e F4010000 		.4byte	.LVL136
 18450 0942 F7010000 		.4byte	.LVL137-1
 18451 0946 0200     		.2byte	0x2
 18452 0948 70       		.byte	0x70
 18453 0949 00       		.sleb128 0
 18454 094a F7010000 		.4byte	.LVL137-1
 18455 094e 22020000 		.4byte	.LVL141
 18456 0952 0100     		.2byte	0x1
 18457 0954 58       		.byte	0x58
 18458 0955 CC020000 		.4byte	.LVL152
 18459 0959 D0020000 		.4byte	.LVL153
 18460 095d 0200     		.2byte	0x2
 18461 095f 70       		.byte	0x70
 18462 0960 00       		.sleb128 0
 18463 0961 D0020000 		.4byte	.LVL153
 18464 0965 DB020000 		.4byte	.LVL155-1
 18465 0969 0200     		.2byte	0x2
 18466 096b 77       		.byte	0x77
 18467 096c 00       		.sleb128 0
 18468 096d DB020000 		.4byte	.LVL155-1
 18469 0971 94030000 		.4byte	.LVL173
 18470 0975 0100     		.2byte	0x1
 18471 0977 58       		.byte	0x58
 18472 0978 94030000 		.4byte	.LVL173
 18473 097c 98030000 		.4byte	.LVL174
 18474 0980 0200     		.2byte	0x2
 18475 0982 70       		.byte	0x70
 18476 0983 00       		.sleb128 0
 18477 0984 98030000 		.4byte	.LVL174
 18478 0988 9F030000 		.4byte	.LVL175-1
 18479 098c 0200     		.2byte	0x2
 18480 098e 77       		.byte	0x77
 18481 098f 00       		.sleb128 0
 18482 0990 9F030000 		.4byte	.LVL175-1
 18483 0994 DE030000 		.4byte	.LVL179
 18484 0998 0100     		.2byte	0x1
 18485 099a 58       		.byte	0x58
 18486 099b DE030000 		.4byte	.LVL179
 18487 099f E2030000 		.4byte	.LVL180
 18488 09a3 0200     		.2byte	0x2
 18489 09a5 70       		.byte	0x70
 18490 09a6 00       		.sleb128 0
 18491 09a7 E2030000 		.4byte	.LVL180
 18492 09ab E5030000 		.4byte	.LVL181-1
 18493 09af 0200     		.2byte	0x2
 18494 09b1 77       		.byte	0x77
 18495 09b2 00       		.sleb128 0
 18496 09b3 E5030000 		.4byte	.LVL181-1
ARM GAS  /tmp/ccTQOGyd.s 			page 326


 18497 09b7 00040000 		.4byte	.LVL184
 18498 09bb 0100     		.2byte	0x1
 18499 09bd 58       		.byte	0x58
 18500 09be 00040000 		.4byte	.LVL184
 18501 09c2 04040000 		.4byte	.LVL185
 18502 09c6 0200     		.2byte	0x2
 18503 09c8 70       		.byte	0x70
 18504 09c9 00       		.sleb128 0
 18505 09ca 04040000 		.4byte	.LVL185
 18506 09ce 07040000 		.4byte	.LVL186-1
 18507 09d2 0200     		.2byte	0x2
 18508 09d4 77       		.byte	0x77
 18509 09d5 00       		.sleb128 0
 18510 09d6 07040000 		.4byte	.LVL186-1
 18511 09da 22040000 		.4byte	.LVL189
 18512 09de 0100     		.2byte	0x1
 18513 09e0 58       		.byte	0x58
 18514 09e1 22040000 		.4byte	.LVL189
 18515 09e5 26040000 		.4byte	.LVL190
 18516 09e9 0200     		.2byte	0x2
 18517 09eb 70       		.byte	0x70
 18518 09ec 00       		.sleb128 0
 18519 09ed 26040000 		.4byte	.LVL190
 18520 09f1 29040000 		.4byte	.LVL191-1
 18521 09f5 0200     		.2byte	0x2
 18522 09f7 77       		.byte	0x77
 18523 09f8 00       		.sleb128 0
 18524 09f9 29040000 		.4byte	.LVL191-1
 18525 09fd 44040000 		.4byte	.LVL194
 18526 0a01 0100     		.2byte	0x1
 18527 0a03 58       		.byte	0x58
 18528 0a04 44040000 		.4byte	.LVL194
 18529 0a08 52040000 		.4byte	.LVL197
 18530 0a0c 0200     		.2byte	0x2
 18531 0a0e 70       		.byte	0x70
 18532 0a0f 00       		.sleb128 0
 18533 0a10 52040000 		.4byte	.LVL197
 18534 0a14 7E050000 		.4byte	.LVL229
 18535 0a18 0100     		.2byte	0x1
 18536 0a1a 58       		.byte	0x58
 18537 0a1b 7E050000 		.4byte	.LVL229
 18538 0a1f 80050000 		.4byte	.LVL230
 18539 0a23 0200     		.2byte	0x2
 18540 0a25 70       		.byte	0x70
 18541 0a26 00       		.sleb128 0
 18542 0a27 80050000 		.4byte	.LVL230
 18543 0a2b 85050000 		.4byte	.LVL231-1
 18544 0a2f 0200     		.2byte	0x2
 18545 0a31 77       		.byte	0x77
 18546 0a32 00       		.sleb128 0
 18547 0a33 85050000 		.4byte	.LVL231-1
 18548 0a37 B4050000 		.4byte	.LVL238
 18549 0a3b 0100     		.2byte	0x1
 18550 0a3d 58       		.byte	0x58
 18551 0a3e B4050000 		.4byte	.LVL238
 18552 0a42 B8050000 		.4byte	.LVL239
 18553 0a46 0200     		.2byte	0x2
ARM GAS  /tmp/ccTQOGyd.s 			page 327


 18554 0a48 70       		.byte	0x70
 18555 0a49 00       		.sleb128 0
 18556 0a4a B8050000 		.4byte	.LVL239
 18557 0a4e BB050000 		.4byte	.LVL240-1
 18558 0a52 0200     		.2byte	0x2
 18559 0a54 77       		.byte	0x77
 18560 0a55 00       		.sleb128 0
 18561 0a56 BB050000 		.4byte	.LVL240-1
 18562 0a5a DE050000 		.4byte	.LVL245
 18563 0a5e 0100     		.2byte	0x1
 18564 0a60 58       		.byte	0x58
 18565 0a61 DE050000 		.4byte	.LVL245
 18566 0a65 E1050000 		.4byte	.LVL246-1
 18567 0a69 0200     		.2byte	0x2
 18568 0a6b 70       		.byte	0x70
 18569 0a6c 00       		.sleb128 0
 18570 0a6d E1050000 		.4byte	.LVL246-1
 18571 0a71 E4050000 		.4byte	.LVL247
 18572 0a75 0100     		.2byte	0x1
 18573 0a77 58       		.byte	0x58
 18574 0a78 E4050000 		.4byte	.LVL247
 18575 0a7c EA050000 		.4byte	.LVL248
 18576 0a80 0200     		.2byte	0x2
 18577 0a82 70       		.byte	0x70
 18578 0a83 00       		.sleb128 0
 18579 0a84 EA050000 		.4byte	.LVL248
 18580 0a88 EE050000 		.4byte	.LVL249
 18581 0a8c 0200     		.2byte	0x2
 18582 0a8e 77       		.byte	0x77
 18583 0a8f 00       		.sleb128 0
 18584 0a90 EE050000 		.4byte	.LVL249
 18585 0a94 1E060000 		.4byte	.LVL253
 18586 0a98 0100     		.2byte	0x1
 18587 0a9a 58       		.byte	0x58
 18588 0a9b 1E060000 		.4byte	.LVL253
 18589 0a9f 22060000 		.4byte	.LVL254
 18590 0aa3 0200     		.2byte	0x2
 18591 0aa5 70       		.byte	0x70
 18592 0aa6 00       		.sleb128 0
 18593 0aa7 22060000 		.4byte	.LVL254
 18594 0aab 25060000 		.4byte	.LVL255-1
 18595 0aaf 0200     		.2byte	0x2
 18596 0ab1 77       		.byte	0x77
 18597 0ab2 00       		.sleb128 0
 18598 0ab3 25060000 		.4byte	.LVL255-1
 18599 0ab7 64060000 		.4byte	.LVL263
 18600 0abb 0100     		.2byte	0x1
 18601 0abd 58       		.byte	0x58
 18602 0abe 64060000 		.4byte	.LVL263
 18603 0ac2 68060000 		.4byte	.LVL264
 18604 0ac6 0200     		.2byte	0x2
 18605 0ac8 70       		.byte	0x70
 18606 0ac9 00       		.sleb128 0
 18607 0aca 68060000 		.4byte	.LVL264
 18608 0ace 6B060000 		.4byte	.LVL265-1
 18609 0ad2 0200     		.2byte	0x2
 18610 0ad4 77       		.byte	0x77
ARM GAS  /tmp/ccTQOGyd.s 			page 328


 18611 0ad5 00       		.sleb128 0
 18612 0ad6 6B060000 		.4byte	.LVL265-1
 18613 0ada CC060000 		.4byte	.LVL271
 18614 0ade 0100     		.2byte	0x1
 18615 0ae0 58       		.byte	0x58
 18616 0ae1 CC060000 		.4byte	.LVL271
 18617 0ae5 D8060000 		.4byte	.LVL272
 18618 0ae9 0200     		.2byte	0x2
 18619 0aeb 70       		.byte	0x70
 18620 0aec 00       		.sleb128 0
 18621 0aed DE060000 		.4byte	.LVL274
 18622 0af1 FA060000 		.4byte	.LVL277
 18623 0af5 0200     		.2byte	0x2
 18624 0af7 70       		.byte	0x70
 18625 0af8 00       		.sleb128 0
 18626 0af9 FA060000 		.4byte	.LVL277
 18627 0afd 09070000 		.4byte	.LVL278-1
 18628 0b01 0200     		.2byte	0x2
 18629 0b03 77       		.byte	0x77
 18630 0b04 00       		.sleb128 0
 18631 0b05 09070000 		.4byte	.LVL278-1
 18632 0b09 28070000 		.4byte	.LVL282
 18633 0b0d 0100     		.2byte	0x1
 18634 0b0f 58       		.byte	0x58
 18635 0b10 28070000 		.4byte	.LVL282
 18636 0b14 2C070000 		.4byte	.LVL283
 18637 0b18 0200     		.2byte	0x2
 18638 0b1a 70       		.byte	0x70
 18639 0b1b 00       		.sleb128 0
 18640 0b1c 2C070000 		.4byte	.LVL283
 18641 0b20 33070000 		.4byte	.LVL284-1
 18642 0b24 0200     		.2byte	0x2
 18643 0b26 77       		.byte	0x77
 18644 0b27 00       		.sleb128 0
 18645 0b28 33070000 		.4byte	.LVL284-1
 18646 0b2c 36070000 		.4byte	.LVL285
 18647 0b30 0100     		.2byte	0x1
 18648 0b32 58       		.byte	0x58
 18649 0b33 36070000 		.4byte	.LVL285
 18650 0b37 44070000 		.4byte	.LVL288
 18651 0b3b 0200     		.2byte	0x2
 18652 0b3d 70       		.byte	0x70
 18653 0b3e 00       		.sleb128 0
 18654 0b3f 44070000 		.4byte	.LVL288
 18655 0b43 5E070000 		.4byte	.LVL290
 18656 0b47 0100     		.2byte	0x1
 18657 0b49 58       		.byte	0x58
 18658 0b4a 5E070000 		.4byte	.LVL290
 18659 0b4e 6C070000 		.4byte	.LVL293
 18660 0b52 0200     		.2byte	0x2
 18661 0b54 70       		.byte	0x70
 18662 0b55 00       		.sleb128 0
 18663 0b56 6C070000 		.4byte	.LVL293
 18664 0b5a C2070000 		.4byte	.LVL301
 18665 0b5e 0100     		.2byte	0x1
 18666 0b60 58       		.byte	0x58
 18667 0b61 C2070000 		.4byte	.LVL301
ARM GAS  /tmp/ccTQOGyd.s 			page 329


 18668 0b65 D0070000 		.4byte	.LVL304
 18669 0b69 0200     		.2byte	0x2
 18670 0b6b 70       		.byte	0x70
 18671 0b6c 00       		.sleb128 0
 18672 0b6d D0070000 		.4byte	.LVL304
 18673 0b71 F8070000 		.4byte	.LVL308
 18674 0b75 0100     		.2byte	0x1
 18675 0b77 58       		.byte	0x58
 18676 0b78 F8070000 		.4byte	.LVL308
 18677 0b7c 04080000 		.4byte	.LVL310
 18678 0b80 0200     		.2byte	0x2
 18679 0b82 70       		.byte	0x70
 18680 0b83 00       		.sleb128 0
 18681 0b84 04080000 		.4byte	.LVL310
 18682 0b88 07080000 		.4byte	.LVL311-1
 18683 0b8c 0200     		.2byte	0x2
 18684 0b8e 77       		.byte	0x77
 18685 0b8f 00       		.sleb128 0
 18686 0b90 07080000 		.4byte	.LVL311-1
 18687 0b94 20080000 		.4byte	.LVL313
 18688 0b98 0100     		.2byte	0x1
 18689 0b9a 58       		.byte	0x58
 18690 0b9b 20080000 		.4byte	.LVL313
 18691 0b9f 23080000 		.4byte	.LVL314-1
 18692 0ba3 0200     		.2byte	0x2
 18693 0ba5 70       		.byte	0x70
 18694 0ba6 00       		.sleb128 0
 18695 0ba7 23080000 		.4byte	.LVL314-1
 18696 0bab A4090000 		.4byte	.LVL336
 18697 0baf 0100     		.2byte	0x1
 18698 0bb1 58       		.byte	0x58
 18699 0bb2 A20B0000 		.4byte	.LVL357
 18700 0bb6 A60B0000 		.4byte	.LVL358
 18701 0bba 0200     		.2byte	0x2
 18702 0bbc 70       		.byte	0x70
 18703 0bbd 00       		.sleb128 0
 18704 0bbe A60B0000 		.4byte	.LVL358
 18705 0bc2 B00B0000 		.4byte	.LVL360
 18706 0bc6 0100     		.2byte	0x1
 18707 0bc8 58       		.byte	0x58
 18708 0bc9 B00B0000 		.4byte	.LVL360
 18709 0bcd BA0B0000 		.4byte	.LVL361
 18710 0bd1 0200     		.2byte	0x2
 18711 0bd3 70       		.byte	0x70
 18712 0bd4 00       		.sleb128 0
 18713 0bd5 BA0B0000 		.4byte	.LVL361
 18714 0bd9 BF0B0000 		.4byte	.LVL363-1
 18715 0bdd 0200     		.2byte	0x2
 18716 0bdf 77       		.byte	0x77
 18717 0be0 00       		.sleb128 0
 18718 0be1 BF0B0000 		.4byte	.LVL363-1
 18719 0be5 D40B0000 		.4byte	.LVL368
 18720 0be9 0100     		.2byte	0x1
 18721 0beb 58       		.byte	0x58
 18722 0bec D40B0000 		.4byte	.LVL368
 18723 0bf0 D60B0000 		.4byte	.LVL369
 18724 0bf4 0200     		.2byte	0x2
ARM GAS  /tmp/ccTQOGyd.s 			page 330


 18725 0bf6 70       		.byte	0x70
 18726 0bf7 00       		.sleb128 0
 18727 0bf8 D60B0000 		.4byte	.LVL369
 18728 0bfc DF0B0000 		.4byte	.LVL370-1
 18729 0c00 0200     		.2byte	0x2
 18730 0c02 77       		.byte	0x77
 18731 0c03 00       		.sleb128 0
 18732 0c04 DF0B0000 		.4byte	.LVL370-1
 18733 0c08 F80B0000 		.4byte	.LVL373
 18734 0c0c 0100     		.2byte	0x1
 18735 0c0e 58       		.byte	0x58
 18736 0c0f F80B0000 		.4byte	.LVL373
 18737 0c13 020C0000 		.4byte	.LVL374
 18738 0c17 0200     		.2byte	0x2
 18739 0c19 70       		.byte	0x70
 18740 0c1a 00       		.sleb128 0
 18741 0c1b 020C0000 		.4byte	.LVL374
 18742 0c1f 050C0000 		.4byte	.LVL375-1
 18743 0c23 0200     		.2byte	0x2
 18744 0c25 77       		.byte	0x77
 18745 0c26 00       		.sleb128 0
 18746 0c27 050C0000 		.4byte	.LVL375-1
 18747 0c2b 58100000 		.4byte	.LVL454
 18748 0c2f 0100     		.2byte	0x1
 18749 0c31 58       		.byte	0x58
 18750 0c32 58100000 		.4byte	.LVL454
 18751 0c36 5B100000 		.4byte	.LVL455-1
 18752 0c3a 0200     		.2byte	0x2
 18753 0c3c 70       		.byte	0x70
 18754 0c3d 00       		.sleb128 0
 18755 0c3e 5B100000 		.4byte	.LVL455-1
 18756 0c42 08160000 		.4byte	.LVL549
 18757 0c46 0100     		.2byte	0x1
 18758 0c48 58       		.byte	0x58
 18759 0c49 08160000 		.4byte	.LVL549
 18760 0c4d 0C160000 		.4byte	.LVL550
 18761 0c51 0200     		.2byte	0x2
 18762 0c53 70       		.byte	0x70
 18763 0c54 00       		.sleb128 0
 18764 0c55 0C160000 		.4byte	.LVL550
 18765 0c59 0F160000 		.4byte	.LVL551-1
 18766 0c5d 0200     		.2byte	0x2
 18767 0c5f 77       		.byte	0x77
 18768 0c60 00       		.sleb128 0
 18769 0c61 0F160000 		.4byte	.LVL551-1
 18770 0c65 2C160000 		.4byte	.LVL554
 18771 0c69 0100     		.2byte	0x1
 18772 0c6b 58       		.byte	0x58
 18773 0c6c 2C160000 		.4byte	.LVL554
 18774 0c70 30160000 		.4byte	.LVL555
 18775 0c74 0200     		.2byte	0x2
 18776 0c76 70       		.byte	0x70
 18777 0c77 00       		.sleb128 0
 18778 0c78 30160000 		.4byte	.LVL555
 18779 0c7c 33160000 		.4byte	.LVL556-1
 18780 0c80 0200     		.2byte	0x2
 18781 0c82 77       		.byte	0x77
ARM GAS  /tmp/ccTQOGyd.s 			page 331


 18782 0c83 00       		.sleb128 0
 18783 0c84 33160000 		.4byte	.LVL556-1
 18784 0c88 60160000 		.4byte	.LVL563
 18785 0c8c 0100     		.2byte	0x1
 18786 0c8e 58       		.byte	0x58
 18787 0c8f 60160000 		.4byte	.LVL563
 18788 0c93 63160000 		.4byte	.LVL564-1
 18789 0c97 0200     		.2byte	0x2
 18790 0c99 70       		.byte	0x70
 18791 0c9a 00       		.sleb128 0
 18792 0c9b 63160000 		.4byte	.LVL564-1
 18793 0c9f 74160000 		.4byte	.LVL566
 18794 0ca3 0100     		.2byte	0x1
 18795 0ca5 58       		.byte	0x58
 18796 0ca6 74160000 		.4byte	.LVL566
 18797 0caa 77160000 		.4byte	.LVL567-1
 18798 0cae 0200     		.2byte	0x2
 18799 0cb0 70       		.byte	0x70
 18800 0cb1 00       		.sleb128 0
 18801 0cb2 77160000 		.4byte	.LVL567-1
 18802 0cb6 88160000 		.4byte	.LVL570
 18803 0cba 0100     		.2byte	0x1
 18804 0cbc 58       		.byte	0x58
 18805 0cbd 96160000 		.4byte	.LVL571
 18806 0cc1 DA160000 		.4byte	.LVL578
 18807 0cc5 0100     		.2byte	0x1
 18808 0cc7 58       		.byte	0x58
 18809 0cc8 00000000 		.4byte	0
 18810 0ccc 00000000 		.4byte	0
 18811              	.LLST30:
 18812 0cd0 EC160000 		.4byte	.LVL580
 18813 0cd4 F8160000 		.4byte	.LVL581
 18814 0cd8 0200     		.2byte	0x2
 18815 0cda 31       		.byte	0x31
 18816 0cdb 9F       		.byte	0x9f
 18817 0cdc F8160000 		.4byte	.LVL581
 18818 0ce0 18170000 		.4byte	.LFE259
 18819 0ce4 0200     		.2byte	0x2
 18820 0ce6 3A       		.byte	0x3a
 18821 0ce7 9F       		.byte	0x9f
 18822 0ce8 00000000 		.4byte	0
 18823 0cec 00000000 		.4byte	0
 18824              	.LLST31:
 18825 0cf0 90050000 		.4byte	.LVL232
 18826 0cf4 9C050000 		.4byte	.LVL233
 18827 0cf8 0100     		.2byte	0x1
 18828 0cfa 50       		.byte	0x50
 18829 0cfb C0050000 		.4byte	.LVL241
 18830 0cff CC050000 		.4byte	.LVL243
 18831 0d03 0100     		.2byte	0x1
 18832 0d05 50       		.byte	0x50
 18833 0d06 00000000 		.4byte	0
 18834 0d0a 00000000 		.4byte	0
 18835              	.LLST32:
 18836 0d0e 86050000 		.4byte	.LVL231
 18837 0d12 8F050000 		.4byte	.LVL232-1
 18838 0d16 0100     		.2byte	0x1
ARM GAS  /tmp/ccTQOGyd.s 			page 332


 18839 0d18 50       		.byte	0x50
 18840 0d19 00000000 		.4byte	0
 18841 0d1d 00000000 		.4byte	0
 18842              	.LLST33:
 18843 0d21 BC000000 		.4byte	.LVL105
 18844 0d25 BE000000 		.4byte	.LVL106
 18845 0d29 0100     		.2byte	0x1
 18846 0d2b 50       		.byte	0x50
 18847 0d2c BE000000 		.4byte	.LVL106
 18848 0d30 DE000000 		.4byte	.LVL109
 18849 0d34 0100     		.2byte	0x1
 18850 0d36 54       		.byte	0x54
 18851 0d37 48160000 		.4byte	.LVL559
 18852 0d3b 50160000 		.4byte	.LVL560
 18853 0d3f 0100     		.2byte	0x1
 18854 0d41 54       		.byte	0x54
 18855 0d42 00000000 		.4byte	0
 18856 0d46 00000000 		.4byte	0
 18857              	.LLST34:
 18858 0d4a E2020000 		.4byte	.LVL156
 18859 0d4e E8020000 		.4byte	.LVL157
 18860 0d52 0200     		.2byte	0x2
 18861 0d54 90       		.byte	0x90
 18862 0d55 40       		.uleb128 0x40
 18863 0d56 E8020000 		.4byte	.LVL157
 18864 0d5a 56030000 		.4byte	.LVL171
 18865 0d5e 0200     		.2byte	0x2
 18866 0d60 90       		.byte	0x90
 18867 0d61 50       		.uleb128 0x50
 18868 0d62 50160000 		.4byte	.LVL560
 18869 0d66 58160000 		.4byte	.LVL561
 18870 0d6a 0200     		.2byte	0x2
 18871 0d6c 90       		.byte	0x90
 18872 0d6d 50       		.uleb128 0x50
 18873 0d6e 00000000 		.4byte	0
 18874 0d72 00000000 		.4byte	0
 18875              	.LLST35:
 18876 0d76 F2020000 		.4byte	.LVL159
 18877 0d7a F8020000 		.4byte	.LVL160
 18878 0d7e 0200     		.2byte	0x2
 18879 0d80 90       		.byte	0x90
 18880 0d81 40       		.uleb128 0x40
 18881 0d82 F8020000 		.4byte	.LVL160
 18882 0d86 56030000 		.4byte	.LVL171
 18883 0d8a 0200     		.2byte	0x2
 18884 0d8c 90       		.byte	0x90
 18885 0d8d 51       		.uleb128 0x51
 18886 0d8e 50160000 		.4byte	.LVL560
 18887 0d92 58160000 		.4byte	.LVL561
 18888 0d96 0200     		.2byte	0x2
 18889 0d98 90       		.byte	0x90
 18890 0d99 51       		.uleb128 0x51
 18891 0d9a 00000000 		.4byte	0
 18892 0d9e 00000000 		.4byte	0
 18893              	.LLST36:
 18894 0da2 02030000 		.4byte	.LVL162
 18895 0da6 08030000 		.4byte	.LVL163
ARM GAS  /tmp/ccTQOGyd.s 			page 333


 18896 0daa 0200     		.2byte	0x2
 18897 0dac 90       		.byte	0x90
 18898 0dad 40       		.uleb128 0x40
 18899 0dae 08030000 		.4byte	.LVL163
 18900 0db2 56030000 		.4byte	.LVL171
 18901 0db6 0200     		.2byte	0x2
 18902 0db8 90       		.byte	0x90
 18903 0db9 52       		.uleb128 0x52
 18904 0dba 50160000 		.4byte	.LVL560
 18905 0dbe 58160000 		.4byte	.LVL561
 18906 0dc2 0200     		.2byte	0x2
 18907 0dc4 90       		.byte	0x90
 18908 0dc5 52       		.uleb128 0x52
 18909 0dc6 00000000 		.4byte	0
 18910 0dca 00000000 		.4byte	0
 18911              	.LLST37:
 18912 0dce 14030000 		.4byte	.LVL165
 18913 0dd2 20030000 		.4byte	.LVL166
 18914 0dd6 0200     		.2byte	0x2
 18915 0dd8 90       		.byte	0x90
 18916 0dd9 40       		.uleb128 0x40
 18917 0dda 20030000 		.4byte	.LVL166
 18918 0dde 25030000 		.4byte	.LVL167-1
 18919 0de2 0200     		.2byte	0x2
 18920 0de4 90       		.byte	0x90
 18921 0de5 43       		.uleb128 0x43
 18922 0de6 00000000 		.4byte	0
 18923 0dea 00000000 		.4byte	0
 18924              	.LLST38:
 18925 0dee 26030000 		.4byte	.LVL167
 18926 0df2 46030000 		.4byte	.LVL169
 18927 0df6 0100     		.2byte	0x1
 18928 0df8 50       		.byte	0x50
 18929 0df9 50160000 		.4byte	.LVL560
 18930 0dfd 58160000 		.4byte	.LVL561
 18931 0e01 0100     		.2byte	0x1
 18932 0e03 50       		.byte	0x50
 18933 0e04 00000000 		.4byte	0
 18934 0e08 00000000 		.4byte	0
 18935              	.LLST39:
 18936 0e0c 0A010000 		.4byte	.LVL112
 18937 0e10 0C010000 		.4byte	.LVL113
 18938 0e14 0100     		.2byte	0x1
 18939 0e16 51       		.byte	0x51
 18940 0e17 00000000 		.4byte	0
 18941 0e1b 00000000 		.4byte	0
 18942              	.LLST40:
 18943 0e1f 0A010000 		.4byte	.LVL112
 18944 0e23 0C010000 		.4byte	.LVL113
 18945 0e27 0600     		.2byte	0x6
 18946 0e29 03       		.byte	0x3
 18947 0e2a 00000000 		.4byte	send_buffer
 18948 0e2e 9F       		.byte	0x9f
 18949 0e2f 00000000 		.4byte	0
 18950 0e33 00000000 		.4byte	0
 18951              	.LLST41:
 18952 0e37 5A060000 		.4byte	.LVL262
ARM GAS  /tmp/ccTQOGyd.s 			page 334


 18953 0e3b 64060000 		.4byte	.LVL263
 18954 0e3f 0100     		.2byte	0x1
 18955 0e41 51       		.byte	0x51
 18956 0e42 00000000 		.4byte	0
 18957 0e46 00000000 		.4byte	0
 18958              	.LLST42:
 18959 0e4a 5A060000 		.4byte	.LVL262
 18960 0e4e 64060000 		.4byte	.LVL263
 18961 0e52 0600     		.2byte	0x6
 18962 0e54 03       		.byte	0x3
 18963 0e55 00000000 		.4byte	send_buffer
 18964 0e59 9F       		.byte	0x9f
 18965 0e5a 00000000 		.4byte	0
 18966 0e5e 00000000 		.4byte	0
 18967              	.LLST43:
 18968 0e62 A2010000 		.4byte	.LVL129
 18969 0e66 B3010000 		.4byte	.LVL130-1
 18970 0e6a 0200     		.2byte	0x2
 18971 0e6c 90       		.byte	0x90
 18972 0e6d 40       		.uleb128 0x40
 18973 0e6e B3010000 		.4byte	.LVL130-1
 18974 0e72 F4010000 		.4byte	.LVL136
 18975 0e76 0200     		.2byte	0x2
 18976 0e78 90       		.byte	0x90
 18977 0e79 50       		.uleb128 0x50
 18978 0e7a DA160000 		.4byte	.LVL578
 18979 0e7e EC160000 		.4byte	.LVL580
 18980 0e82 0200     		.2byte	0x2
 18981 0e84 90       		.byte	0x90
 18982 0e85 50       		.uleb128 0x50
 18983 0e86 00000000 		.4byte	0
 18984 0e8a 00000000 		.4byte	0
 18985              	.LLST44:
 18986 0e8e C0010000 		.4byte	.LVL132
 18987 0e92 C2010000 		.4byte	.LVL133
 18988 0e96 0100     		.2byte	0x1
 18989 0e98 50       		.byte	0x50
 18990 0e99 C2010000 		.4byte	.LVL133
 18991 0e9d F4010000 		.4byte	.LVL136
 18992 0ea1 0100     		.2byte	0x1
 18993 0ea3 58       		.byte	0x58
 18994 0ea4 DA160000 		.4byte	.LVL578
 18995 0ea8 EC160000 		.4byte	.LVL580
 18996 0eac 0100     		.2byte	0x1
 18997 0eae 58       		.byte	0x58
 18998 0eaf 00000000 		.4byte	0
 18999 0eb3 00000000 		.4byte	0
 19000              	.LLST45:
 19001 0eb7 DA160000 		.4byte	.LVL578
 19002 0ebb EC160000 		.4byte	.LVL580
 19003 0ebf 0200     		.2byte	0x2
 19004 0ec1 3A       		.byte	0x3a
 19005 0ec2 9F       		.byte	0x9f
 19006 0ec3 00000000 		.4byte	0
 19007 0ec7 00000000 		.4byte	0
 19008              	.LLST46:
 19009 0ecb DA160000 		.4byte	.LVL578
ARM GAS  /tmp/ccTQOGyd.s 			page 335


 19010 0ecf EC160000 		.4byte	.LVL580
 19011 0ed3 0600     		.2byte	0x6
 19012 0ed5 03       		.byte	0x3
 19013 0ed6 00000000 		.4byte	send_buffer
 19014 0eda 9F       		.byte	0x9f
 19015 0edb 00000000 		.4byte	0
 19016 0edf 00000000 		.4byte	0
 19017              	.LLST47:
 19018 0ee3 54020000 		.4byte	.LVL144
 19019 0ee7 67020000 		.4byte	.LVL146-1
 19020 0eeb 0200     		.2byte	0x2
 19021 0eed 90       		.byte	0x90
 19022 0eee 40       		.uleb128 0x40
 19023 0eef 67020000 		.4byte	.LVL146-1
 19024 0ef3 CC020000 		.4byte	.LVL152
 19025 0ef7 0200     		.2byte	0x2
 19026 0ef9 90       		.byte	0x90
 19027 0efa 50       		.uleb128 0x50
 19028 0efb 88160000 		.4byte	.LVL570
 19029 0eff 96160000 		.4byte	.LVL571
 19030 0f03 0200     		.2byte	0x2
 19031 0f05 90       		.byte	0x90
 19032 0f06 50       		.uleb128 0x50
 19033 0f07 00000000 		.4byte	0
 19034 0f0b 00000000 		.4byte	0
 19035              	.LLST48:
 19036 0f0f 88160000 		.4byte	.LVL570
 19037 0f13 96160000 		.4byte	.LVL571
 19038 0f17 0100     		.2byte	0x1
 19039 0f19 51       		.byte	0x51
 19040 0f1a 00000000 		.4byte	0
 19041 0f1e 00000000 		.4byte	0
 19042              	.LLST49:
 19043 0f22 88160000 		.4byte	.LVL570
 19044 0f26 96160000 		.4byte	.LVL571
 19045 0f2a 0600     		.2byte	0x6
 19046 0f2c 03       		.byte	0x3
 19047 0f2d 00000000 		.4byte	send_buffer
 19048 0f31 9F       		.byte	0x9f
 19049 0f32 00000000 		.4byte	0
 19050 0f36 00000000 		.4byte	0
 19051              	.LLST50:
 19052 0f3a 76050000 		.4byte	.LVL228
 19053 0f3e 7E050000 		.4byte	.LVL229
 19054 0f42 0100     		.2byte	0x1
 19055 0f44 51       		.byte	0x51
 19056 0f45 00000000 		.4byte	0
 19057 0f49 00000000 		.4byte	0
 19058              	.LLST51:
 19059 0f4d 76050000 		.4byte	.LVL228
 19060 0f51 7E050000 		.4byte	.LVL229
 19061 0f55 0600     		.2byte	0x6
 19062 0f57 03       		.byte	0x3
 19063 0f58 00000000 		.4byte	send_buffer
 19064 0f5c 9F       		.byte	0x9f
 19065 0f5d 00000000 		.4byte	0
 19066 0f61 00000000 		.4byte	0
ARM GAS  /tmp/ccTQOGyd.s 			page 336


 19067              	.LLST52:
 19068 0f65 A4050000 		.4byte	.LVL235
 19069 0f69 AE050000 		.4byte	.LVL236
 19070 0f6d 0200     		.2byte	0x2
 19071 0f6f 32       		.byte	0x32
 19072 0f70 9F       		.byte	0x9f
 19073 0f71 00000000 		.4byte	0
 19074 0f75 00000000 		.4byte	0
 19075              	.LLST53:
 19076 0f79 A4050000 		.4byte	.LVL235
 19077 0f7d AE050000 		.4byte	.LVL236
 19078 0f81 0600     		.2byte	0x6
 19079 0f83 03       		.byte	0x3
 19080 0f84 00000000 		.4byte	send_buffer
 19081 0f88 9F       		.byte	0x9f
 19082 0f89 00000000 		.4byte	0
 19083 0f8d 00000000 		.4byte	0
 19084              	.LLST54:
 19085 0f91 D4050000 		.4byte	.LVL244
 19086 0f95 DE050000 		.4byte	.LVL245
 19087 0f99 0200     		.2byte	0x2
 19088 0f9b 32       		.byte	0x32
 19089 0f9c 9F       		.byte	0x9f
 19090 0f9d 00000000 		.4byte	0
 19091 0fa1 00000000 		.4byte	0
 19092              	.LLST55:
 19093 0fa5 D4050000 		.4byte	.LVL244
 19094 0fa9 DE050000 		.4byte	.LVL245
 19095 0fad 0600     		.2byte	0x6
 19096 0faf 03       		.byte	0x3
 19097 0fb0 00000000 		.4byte	send_buffer
 19098 0fb4 9F       		.byte	0x9f
 19099 0fb5 00000000 		.4byte	0
 19100 0fb9 00000000 		.4byte	0
 19101              	.LLST56:
 19102 0fbd 12060000 		.4byte	.LVL251
 19103 0fc1 1E060000 		.4byte	.LVL253
 19104 0fc5 0200     		.2byte	0x2
 19105 0fc7 43       		.byte	0x43
 19106 0fc8 9F       		.byte	0x9f
 19107 0fc9 00000000 		.4byte	0
 19108 0fcd 00000000 		.4byte	0
 19109              	.LLST57:
 19110 0fd1 12060000 		.4byte	.LVL251
 19111 0fd5 1E060000 		.4byte	.LVL253
 19112 0fd9 0600     		.2byte	0x6
 19113 0fdb 03       		.byte	0x3
 19114 0fdc 00000000 		.4byte	send_buffer
 19115 0fe0 9F       		.byte	0x9f
 19116 0fe1 00000000 		.4byte	0
 19117 0fe5 00000000 		.4byte	0
 19118              	.LLST58:
 19119 0fe9 80060000 		.4byte	.LVL268
 19120 0fed 88060000 		.4byte	.LVL269
 19121 0ff1 0200     		.2byte	0x2
 19122 0ff3 32       		.byte	0x32
 19123 0ff4 9F       		.byte	0x9f
ARM GAS  /tmp/ccTQOGyd.s 			page 337


 19124 0ff5 00000000 		.4byte	0
 19125 0ff9 00000000 		.4byte	0
 19126              	.LLST59:
 19127 0ffd 80060000 		.4byte	.LVL268
 19128 1001 88060000 		.4byte	.LVL269
 19129 1005 0600     		.2byte	0x6
 19130 1007 03       		.byte	0x3
 19131 1008 00000000 		.4byte	send_buffer
 19132 100c 9F       		.byte	0x9f
 19133 100d 00000000 		.4byte	0
 19134 1011 00000000 		.4byte	0
 19135              	.LLST60:
 19136 1015 980B0000 		.4byte	.LVL356
 19137 1019 A20B0000 		.4byte	.LVL357
 19138 101d 0200     		.2byte	0x2
 19139 101f 31       		.byte	0x31
 19140 1020 9F       		.byte	0x9f
 19141 1021 00000000 		.4byte	0
 19142 1025 00000000 		.4byte	0
 19143              	.LLST61:
 19144 1029 980B0000 		.4byte	.LVL356
 19145 102d A20B0000 		.4byte	.LVL357
 19146 1031 0600     		.2byte	0x6
 19147 1033 03       		.byte	0x3
 19148 1034 00000000 		.4byte	send_buffer
 19149 1038 9F       		.byte	0x9f
 19150 1039 00000000 		.4byte	0
 19151 103d 00000000 		.4byte	0
 19152              	.LLST62:
 19153 1041 C40B0000 		.4byte	.LVL364
 19154 1045 C80B0000 		.4byte	.LVL365
 19155 1049 0100     		.2byte	0x1
 19156 104b 50       		.byte	0x50
 19157 104c C80B0000 		.4byte	.LVL365
 19158 1050 CF0B0000 		.4byte	.LVL367-1
 19159 1054 0100     		.2byte	0x1
 19160 1056 51       		.byte	0x51
 19161 1057 00000000 		.4byte	0
 19162 105b 00000000 		.4byte	0
 19163              	.LLST63:
 19164 105f CC0B0000 		.4byte	.LVL366
 19165 1063 CF0B0000 		.4byte	.LVL367-1
 19166 1067 0700     		.2byte	0x7
 19167 1069 74       		.byte	0x74
 19168 106a 00       		.sleb128 0
 19169 106b 73       		.byte	0x73
 19170 106c 00       		.sleb128 0
 19171 106d 22       		.byte	0x22
 19172 106e 31       		.byte	0x31
 19173 106f 1C       		.byte	0x1c
 19174 1070 00000000 		.4byte	0
 19175 1074 00000000 		.4byte	0
 19176              	.LLST64:
 19177 1078 BC0B0000 		.4byte	.LVL362
 19178 107c BF0B0000 		.4byte	.LVL363-1
 19179 1080 0200     		.2byte	0x2
 19180 1082 77       		.byte	0x77
ARM GAS  /tmp/ccTQOGyd.s 			page 338


 19181 1083 01       		.sleb128 1
 19182 1084 BF0B0000 		.4byte	.LVL363-1
 19183 1088 D40B0000 		.4byte	.LVL368
 19184 108c 0100     		.2byte	0x1
 19185 108e 55       		.byte	0x55
 19186 108f 00000000 		.4byte	0
 19187 1093 00000000 		.4byte	0
 19188              	.LLST65:
 19189 1097 46100000 		.4byte	.LVL453
 19190 109b 58100000 		.4byte	.LVL454
 19191 109f 0100     		.2byte	0x1
 19192 10a1 51       		.byte	0x51
 19193 10a2 00000000 		.4byte	0
 19194 10a6 00000000 		.4byte	0
 19195              	.LLST66:
 19196 10aa 46100000 		.4byte	.LVL453
 19197 10ae 58100000 		.4byte	.LVL454
 19198 10b2 0600     		.2byte	0x6
 19199 10b4 03       		.byte	0x3
 19200 10b5 00000000 		.4byte	send_buffer
 19201 10b9 9F       		.byte	0x9f
 19202 10ba 00000000 		.4byte	0
 19203 10be 00000000 		.4byte	0
 19204              	.LLST67:
 19205 10c2 FC150000 		.4byte	.LVL548
 19206 10c6 08160000 		.4byte	.LVL549
 19207 10ca 0200     		.2byte	0x2
 19208 10cc 31       		.byte	0x31
 19209 10cd 9F       		.byte	0x9f
 19210 10ce 00000000 		.4byte	0
 19211 10d2 00000000 		.4byte	0
 19212              	.LLST68:
 19213 10d6 FC150000 		.4byte	.LVL548
 19214 10da 08160000 		.4byte	.LVL549
 19215 10de 0600     		.2byte	0x6
 19216 10e0 03       		.byte	0x3
 19217 10e1 00000000 		.4byte	send_buffer
 19218 10e5 9F       		.byte	0x9f
 19219 10e6 00000000 		.4byte	0
 19220 10ea 00000000 		.4byte	0
 19221              	.LLST69:
 19222 10ee CE160000 		.4byte	.LVL577
 19223 10f2 DA160000 		.4byte	.LVL578
 19224 10f6 0100     		.2byte	0x1
 19225 10f8 51       		.byte	0x51
 19226 10f9 00000000 		.4byte	0
 19227 10fd 00000000 		.4byte	0
 19228              	.LLST70:
 19229 1101 CC160000 		.4byte	.LVL576
 19230 1105 DA160000 		.4byte	.LVL578
 19231 1109 0600     		.2byte	0x6
 19232 110b 03       		.byte	0x3
 19233 110c 00000000 		.4byte	send_buffer
 19234 1110 9F       		.byte	0x9f
 19235 1111 00000000 		.4byte	0
 19236 1115 00000000 		.4byte	0
 19237              		.section	.debug_aranges,"",%progbits
ARM GAS  /tmp/ccTQOGyd.s 			page 339


 19238 0000 7C000000 		.4byte	0x7c
 19239 0004 0200     		.2byte	0x2
 19240 0006 00000000 		.4byte	.Ldebug_info0
 19241 000a 04       		.byte	0x4
 19242 000b 00       		.byte	0
 19243 000c 0000     		.2byte	0
 19244 000e 0000     		.2byte	0
 19245 0010 00000000 		.4byte	.LFB268
 19246 0014 10010000 		.4byte	.LFE268-.LFB268
 19247 0018 00000000 		.4byte	.LFB256
 19248 001c 24000000 		.4byte	.LFE256-.LFB256
 19249 0020 00000000 		.4byte	.LFB257
 19250 0024 0C000000 		.4byte	.LFE257-.LFB257
 19251 0028 00000000 		.4byte	.LFB258
 19252 002c 10000000 		.4byte	.LFE258-.LFB258
 19253 0030 00000000 		.4byte	.LFB260
 19254 0034 44000000 		.4byte	.LFE260-.LFB260
 19255 0038 00000000 		.4byte	.LFB261
 19256 003c 40000000 		.4byte	.LFE261-.LFB261
 19257 0040 00000000 		.4byte	.LFB262
 19258 0044 30000000 		.4byte	.LFE262-.LFB262
 19259 0048 00000000 		.4byte	.LFB263
 19260 004c 78000000 		.4byte	.LFE263-.LFB263
 19261 0050 00000000 		.4byte	.LFB264
 19262 0054 0C000000 		.4byte	.LFE264-.LFB264
 19263 0058 00000000 		.4byte	.LFB265
 19264 005c 0C000000 		.4byte	.LFE265-.LFB265
 19265 0060 00000000 		.4byte	.LFB266
 19266 0064 30000000 		.4byte	.LFE266-.LFB266
 19267 0068 00000000 		.4byte	.LFB267
 19268 006c C8020000 		.4byte	.LFE267-.LFB267
 19269 0070 00000000 		.4byte	.LFB259
 19270 0074 18170000 		.4byte	.LFE259-.LFB259
 19271 0078 00000000 		.4byte	0
 19272 007c 00000000 		.4byte	0
 19273              		.section	.debug_ranges,"",%progbits
 19274              	.Ldebug_ranges0:
 19275 0000 04000000 		.4byte	.LBB63
 19276 0004 06000000 		.4byte	.LBE63
 19277 0008 08000000 		.4byte	.LBB67
 19278 000c 20000000 		.4byte	.LBE67
 19279 0010 2E000000 		.4byte	.LBB72
 19280 0014 30000000 		.4byte	.LBE72
 19281 0018 00000000 		.4byte	0
 19282 001c 00000000 		.4byte	0
 19283 0020 20000000 		.4byte	.LBB68
 19284 0024 22000000 		.4byte	.LBE68
 19285 0028 26000000 		.4byte	.LBB71
 19286 002c 2E000000 		.4byte	.LBE71
 19287 0030 34000000 		.4byte	.LBB73
 19288 0034 D0000000 		.4byte	.LBE73
 19289 0038 00000000 		.4byte	0
 19290 003c 00000000 		.4byte	0
 19291 0040 20000000 		.4byte	.LBB74
 19292 0044 24000000 		.4byte	.LBE74
 19293 0048 2C000000 		.4byte	.LBB77
 19294 004c 32000000 		.4byte	.LBE77
ARM GAS  /tmp/ccTQOGyd.s 			page 340


 19295 0050 00000000 		.4byte	0
 19296 0054 00000000 		.4byte	0
 19297 0058 28000000 		.4byte	.LBB78
 19298 005c 2A000000 		.4byte	.LBE78
 19299 0060 2C000000 		.4byte	.LBB81
 19300 0064 34000000 		.4byte	.LBE81
 19301 0068 00000000 		.4byte	0
 19302 006c 00000000 		.4byte	0
 19303 0070 1A000000 		.4byte	.LBB82
 19304 0074 1C000000 		.4byte	.LBE82
 19305 0078 1E000000 		.4byte	.LBB85
 19306 007c 26000000 		.4byte	.LBE85
 19307 0080 00000000 		.4byte	0
 19308 0084 00000000 		.4byte	0
 19309 0088 24000000 		.4byte	.LBB86
 19310 008c 26000000 		.4byte	.LBE86
 19311 0090 2E000000 		.4byte	.LBB87
 19312 0094 58000000 		.4byte	.LBE87
 19313 0098 00000000 		.4byte	0
 19314 009c 00000000 		.4byte	0
 19315 00a0 18000000 		.4byte	.LBB90
 19316 00a4 1C000000 		.4byte	.LBE90
 19317 00a8 1E000000 		.4byte	.LBB93
 19318 00ac 30000000 		.4byte	.LBE93
 19319 00b0 00000000 		.4byte	0
 19320 00b4 00000000 		.4byte	0
 19321 00b8 04000000 		.4byte	.LBB94
 19322 00bc 06000000 		.4byte	.LBE94
 19323 00c0 A8020000 		.4byte	.LBB98
 19324 00c4 AA020000 		.4byte	.LBE98
 19325 00c8 B6020000 		.4byte	.LBB99
 19326 00cc BC020000 		.4byte	.LBE99
 19327 00d0 00000000 		.4byte	0
 19328 00d4 00000000 		.4byte	0
 19329 00d8 06010000 		.4byte	.LBB101
 19330 00dc 0C010000 		.4byte	.LBE101
 19331 00e0 CC020000 		.4byte	.LBB120
 19332 00e4 94030000 		.4byte	.LBE120
 19333 00e8 00000000 		.4byte	0
 19334 00ec 00000000 		.4byte	0
 19335 00f0 06010000 		.4byte	.LBB102
 19336 00f4 08010000 		.4byte	.LBE102
 19337 00f8 0A010000 		.4byte	.LBB105
 19338 00fc 0C010000 		.4byte	.LBE105
 19339 0100 00000000 		.4byte	0
 19340 0104 00000000 		.4byte	0
 19341 0108 0C010000 		.4byte	.LBB106
 19342 010c 10010000 		.4byte	.LBE106
 19343 0110 56060000 		.4byte	.LBB145
 19344 0114 58060000 		.4byte	.LBE145
 19345 0118 5A060000 		.4byte	.LBB146
 19346 011c 64060000 		.4byte	.LBE146
 19347 0120 00000000 		.4byte	0
 19348 0124 00000000 		.4byte	0
 19349 0128 70010000 		.4byte	.LBB112
 19350 012c F4010000 		.4byte	.LBE112
 19351 0130 DA160000 		.4byte	.LBB177
ARM GAS  /tmp/ccTQOGyd.s 			page 341


 19352 0134 EC160000 		.4byte	.LBE177
 19353 0138 00000000 		.4byte	0
 19354 013c 00000000 		.4byte	0
 19355 0140 00020000 		.4byte	.LBB115
 19356 0144 CC020000 		.4byte	.LBE115
 19357 0148 88160000 		.4byte	.LBB170
 19358 014c 96160000 		.4byte	.LBE170
 19359 0150 00000000 		.4byte	0
 19360 0154 00000000 		.4byte	0
 19361 0158 C6020000 		.4byte	.LBB116
 19362 015c CC020000 		.4byte	.LBE116
 19363 0160 88160000 		.4byte	.LBB119
 19364 0164 96160000 		.4byte	.LBE119
 19365 0168 00000000 		.4byte	0
 19366 016c 00000000 		.4byte	0
 19367 0170 6E050000 		.4byte	.LBB121
 19368 0174 70050000 		.4byte	.LBE121
 19369 0178 72050000 		.4byte	.LBB125
 19370 017c 74050000 		.4byte	.LBE125
 19371 0180 76050000 		.4byte	.LBB126
 19372 0184 7E050000 		.4byte	.LBE126
 19373 0188 00000000 		.4byte	0
 19374 018c 00000000 		.4byte	0
 19375 0190 90050000 		.4byte	.LBB127
 19376 0194 92050000 		.4byte	.LBE127
 19377 0198 94050000 		.4byte	.LBB131
 19378 019c 96050000 		.4byte	.LBE131
 19379 01a0 A8050000 		.4byte	.LBB132
 19380 01a4 B4050000 		.4byte	.LBE132
 19381 01a8 00000000 		.4byte	0
 19382 01ac 00000000 		.4byte	0
 19383 01b0 C0050000 		.4byte	.LBB133
 19384 01b4 C2050000 		.4byte	.LBE133
 19385 01b8 C4050000 		.4byte	.LBB137
 19386 01bc C6050000 		.4byte	.LBE137
 19387 01c0 D8050000 		.4byte	.LBB138
 19388 01c4 DE050000 		.4byte	.LBE138
 19389 01c8 00000000 		.4byte	0
 19390 01cc 00000000 		.4byte	0
 19391 01d0 FE050000 		.4byte	.LBB139
 19392 01d4 00060000 		.4byte	.LBE139
 19393 01d8 04060000 		.4byte	.LBB143
 19394 01dc 06060000 		.4byte	.LBE143
 19395 01e0 12060000 		.4byte	.LBB144
 19396 01e4 1E060000 		.4byte	.LBE144
 19397 01e8 00000000 		.4byte	0
 19398 01ec 00000000 		.4byte	0
 19399 01f0 70060000 		.4byte	.LBB147
 19400 01f4 72060000 		.4byte	.LBE147
 19401 01f8 74060000 		.4byte	.LBB151
 19402 01fc 76060000 		.4byte	.LBE151
 19403 0200 82060000 		.4byte	.LBB152
 19404 0204 CC060000 		.4byte	.LBE152
 19405 0208 00000000 		.4byte	0
 19406 020c 00000000 		.4byte	0
 19407 0210 8C0B0000 		.4byte	.LBB153
 19408 0214 8E0B0000 		.4byte	.LBE153
ARM GAS  /tmp/ccTQOGyd.s 			page 342


 19409 0218 900B0000 		.4byte	.LBB157
 19410 021c 920B0000 		.4byte	.LBE157
 19411 0220 980B0000 		.4byte	.LBB158
 19412 0224 A20B0000 		.4byte	.LBE158
 19413 0228 00000000 		.4byte	0
 19414 022c 00000000 		.4byte	0
 19415 0230 42100000 		.4byte	.LBB160
 19416 0234 44100000 		.4byte	.LBE160
 19417 0238 46100000 		.4byte	.LBB163
 19418 023c 58100000 		.4byte	.LBE163
 19419 0240 00000000 		.4byte	0
 19420 0244 00000000 		.4byte	0
 19421 0248 F0150000 		.4byte	.LBB164
 19422 024c F2150000 		.4byte	.LBE164
 19423 0250 F4150000 		.4byte	.LBB168
 19424 0254 F6150000 		.4byte	.LBE168
 19425 0258 FE150000 		.4byte	.LBB169
 19426 025c 08160000 		.4byte	.LBE169
 19427 0260 00000000 		.4byte	0
 19428 0264 00000000 		.4byte	0
 19429 0268 C4160000 		.4byte	.LBB171
 19430 026c C6160000 		.4byte	.LBE171
 19431 0270 C8160000 		.4byte	.LBB175
 19432 0274 CA160000 		.4byte	.LBE175
 19433 0278 D0160000 		.4byte	.LBB176
 19434 027c DA160000 		.4byte	.LBE176
 19435 0280 00000000 		.4byte	0
 19436 0284 00000000 		.4byte	0
 19437 0288 00000000 		.4byte	.LFB268
 19438 028c 10010000 		.4byte	.LFE268
 19439 0290 00000000 		.4byte	.LFB256
 19440 0294 24000000 		.4byte	.LFE256
 19441 0298 00000000 		.4byte	.LFB257
 19442 029c 0C000000 		.4byte	.LFE257
 19443 02a0 00000000 		.4byte	.LFB258
 19444 02a4 10000000 		.4byte	.LFE258
 19445 02a8 00000000 		.4byte	.LFB260
 19446 02ac 44000000 		.4byte	.LFE260
 19447 02b0 00000000 		.4byte	.LFB261
 19448 02b4 40000000 		.4byte	.LFE261
 19449 02b8 00000000 		.4byte	.LFB262
 19450 02bc 30000000 		.4byte	.LFE262
 19451 02c0 00000000 		.4byte	.LFB263
 19452 02c4 78000000 		.4byte	.LFE263
 19453 02c8 00000000 		.4byte	.LFB264
 19454 02cc 0C000000 		.4byte	.LFE264
 19455 02d0 00000000 		.4byte	.LFB265
 19456 02d4 0C000000 		.4byte	.LFE265
 19457 02d8 00000000 		.4byte	.LFB266
 19458 02dc 30000000 		.4byte	.LFE266
 19459 02e0 00000000 		.4byte	.LFB267
 19460 02e4 C8020000 		.4byte	.LFE267
 19461 02e8 00000000 		.4byte	.LFB259
 19462 02ec 18170000 		.4byte	.LFE259
 19463 02f0 00000000 		.4byte	0
 19464 02f4 00000000 		.4byte	0
 19465              		.section	.debug_line,"",%progbits
ARM GAS  /tmp/ccTQOGyd.s 			page 343


 19466              	.Ldebug_line0:
 19467 0000 950A0000 		.section	.debug_str,"MS",%progbits,1
 19467      02003903 
 19467      00000201 
 19467      FB0E0D00 
 19467      01010101 
 19468              	.LASF337:
 19469 0000 4348554B 		.ascii	"CHUK_CTRL_TYPE_CURRENT\000"
 19469      5F435452 
 19469      4C5F5459 
 19469      50455F43 
 19469      55525245 
 19470              	.LASF93:
 19471 0017 706F7274 		.ascii	"port_intctx\000"
 19471      5F696E74 
 19471      63747800 
 19472              	.LASF293:
 19473 0023 6374726C 		.ascii	"ctrl_type\000"
 19473      5F747970 
 19473      6500
 19474              	.LASF183:
 19475 002d 6C5F6D61 		.ascii	"l_max_erpm_fbrake\000"
 19475      785F6572 
 19475      706D5F66 
 19475      6272616B 
 19475      6500
 19476              	.LASF179:
 19477 003f 6C5F6162 		.ascii	"l_abs_current_max\000"
 19477      735F6375 
 19477      7272656E 
 19477      745F6D61 
 19477      7800
 19478              	.LASF433:
 19479 0051 434F4D4D 		.ascii	"COMM_SET_CURRENT_GET_POSITION\000"
 19479      5F534554 
 19479      5F435552 
 19479      52454E54 
 19479      5F474554 
 19480              	.LASF284:
 19481 006f 50504D5F 		.ascii	"PPM_CTRL_TYPE_NONE\000"
 19481      4354524C 
 19481      5F545950 
 19481      455F4E4F 
 19481      4E4500
 19482              	.LASF466:
 19483 0082 636F6D6D 		.ascii	"commands_printf\000"
 19483      616E6473 
 19483      5F707269 
 19483      6E746600 
 19484              	.LASF31:
 19485 0092 6D73675F 		.ascii	"msg_t\000"
 19485      7400
 19486              	.LASF394:
 19487 0098 434F4D4D 		.ascii	"COMM_FW_VERSION\000"
 19487      5F46575F 
 19487      56455253 
 19487      494F4E00 
ARM GAS  /tmp/ccTQOGyd.s 			page 344


 19488              	.LASF450:
 19489 00a8 464C4153 		.ascii	"FLASH_ERROR_PGA\000"
 19489      485F4552 
 19489      524F525F 
 19489      50474100 
 19490              	.LASF528:
 19491 00b8 636F6E66 		.ascii	"conf_general_measure_flux_linkage\000"
 19491      5F67656E 
 19491      6572616C 
 19491      5F6D6561 
 19491      73757265 
 19492              	.LASF422:
 19493 00da 434F4D4D 		.ascii	"COMM_DETECT_HALL_FOC\000"
 19493      5F444554 
 19493      4543545F 
 19493      48414C4C 
 19493      5F464F43 
 19494              	.LASF449:
 19495 00ef 464C4153 		.ascii	"FLASH_ERROR_PGP\000"
 19495      485F4552 
 19495      524F525F 
 19495      50475000 
 19496              	.LASF448:
 19497 00ff 464C4153 		.ascii	"FLASH_ERROR_PGS\000"
 19497      485F4552 
 19497      524F525F 
 19497      50475300 
 19498              	.LASF225:
 19499 010f 666F635F 		.ascii	"foc_observer_gain_slow\000"
 19499      6F627365 
 19499      72766572 
 19499      5F676169 
 19499      6E5F736C 
 19500              	.LASF357:
 19501 0126 4E52465F 		.ascii	"NRF_RETR_DELAY_750US\000"
 19501      52455452 
 19501      5F44454C 
 19501      41595F37 
 19501      35305553 
 19502              	.LASF83:
 19503 013b 63685F73 		.ascii	"ch_system_t\000"
 19503      79737465 
 19503      6D5F7400 
 19504              	.LASF3:
 19505 0147 5F5F7569 		.ascii	"__uint8_t\000"
 19505      6E74385F 
 19505      7400
 19506              	.LASF100:
 19507 0151 77747365 		.ascii	"wtsemp\000"
 19507      6D7000
 19508              	.LASF295:
 19509 0158 68797374 		.ascii	"hyst\000"
 19509      00
 19510              	.LASF268:
 19511 015d 5F426F6F 		.ascii	"_Bool\000"
 19511      6C00
 19512              	.LASF330:
ARM GAS  /tmp/ccTQOGyd.s 			page 345


 19513 0163 63635F62 		.ascii	"cc_button_inverted\000"
 19513      7574746F 
 19513      6E5F696E 
 19513      76657274 
 19513      656400
 19514              	.LASF463:
 19515 0176 636F6D6D 		.ascii	"commands_init\000"
 19515      616E6473 
 19515      5F696E69 
 19515      7400
 19516              	.LASF79:
 19517 0184 76745F73 		.ascii	"vt_systime\000"
 19517      79737469 
 19517      6D6500
 19518              	.LASF263:
 19519 018f 6D5F6472 		.ascii	"m_drv8301_oc_adj\000"
 19519      76383330 
 19519      315F6F63 
 19519      5F61646A 
 19519      00
 19520              	.LASF332:
 19521 01a0 766F6C74 		.ascii	"voltage_inverted\000"
 19521      6167655F 
 19521      696E7665 
 19521      72746564 
 19521      00
 19522              	.LASF508:
 19523 01b1 73656E64 		.ascii	"send_func\000"
 19523      5F66756E 
 19523      6300
 19524              	.LASF109:
 19525 01bb 6D5F6E65 		.ascii	"m_next\000"
 19525      787400
 19526              	.LASF189:
 19527 01c2 6C5F736C 		.ascii	"l_slow_abs_current\000"
 19527      6F775F61 
 19527      62735F63 
 19527      75727265 
 19527      6E7400
 19528              	.LASF475:
 19529 01d5 73616D70 		.ascii	"samples\000"
 19529      6C657300 
 19530              	.LASF178:
 19531 01dd 6C5F696E 		.ascii	"l_in_current_min\000"
 19531      5F637572 
 19531      72656E74 
 19531      5F6D696E 
 19531      00
 19532              	.LASF20:
 19533 01ee 75696E74 		.ascii	"uint16_t\000"
 19533      31365F74 
 19533      00
 19534              	.LASF346:
 19535 01f7 4E52465F 		.ascii	"NRF_POWER_M18DBM\000"
 19535      504F5745 
 19535      525F4D31 
 19535      3844424D 
ARM GAS  /tmp/ccTQOGyd.s 			page 346


 19535      00
 19536              	.LASF143:
 19537 0208 44495350 		.ascii	"DISP_POS_MODE_ENCODER\000"
 19537      5F504F53 
 19537      5F4D4F44 
 19537      455F454E 
 19537      434F4445 
 19538              	.LASF453:
 19539 021e 464C4153 		.ascii	"FLASH_ERROR_OPERATION\000"
 19539      485F4552 
 19539      524F525F 
 19539      4F504552 
 19539      4154494F 
 19540              	.LASF444:
 19541 0234 4E52465F 		.ascii	"NRF_PAIR_OK\000"
 19541      50414952 
 19541      5F4F4B00 
 19542              	.LASF252:
 19543 0240 63635F73 		.ascii	"cc_startup_boost_duty\000"
 19543      74617274 
 19543      75705F62 
 19543      6F6F7374 
 19543      5F647574 
 19544              	.LASF141:
 19545 0256 44495350 		.ascii	"DISP_POS_MODE_INDUCTANCE\000"
 19545      5F504F53 
 19545      5F4D4F44 
 19545      455F494E 
 19545      44554354 
 19546              	.LASF60:
 19547 026f 63685F74 		.ascii	"ch_threads_queue\000"
 19547      68726561 
 19547      64735F71 
 19547      75657565 
 19547      00
 19548              	.LASF506:
 19549 0280 64657465 		.ascii	"detect_hall_table\000"
 19549      63745F68 
 19549      616C6C5F 
 19549      7461626C 
 19549      6500
 19550              	.LASF180:
 19551 0292 6C5F6D69 		.ascii	"l_min_erpm\000"
 19551      6E5F6572 
 19551      706D00
 19552              	.LASF509:
 19553 029d 73656E64 		.ascii	"send_func_last\000"
 19553      5F66756E 
 19553      635F6C61 
 19553      737400
 19554              	.LASF40:
 19555 02ac 705F6E65 		.ascii	"p_newer\000"
 19555      77657200 
 19556              	.LASF170:
 19557 02b4 43414E5F 		.ascii	"CAN_BAUD\000"
 19557      42415544 
 19557      00
ARM GAS  /tmp/ccTQOGyd.s 			page 347


 19558              	.LASF559:
 19559 02bd 666C6173 		.ascii	"flash_helper_write_new_app_data\000"
 19559      685F6865 
 19559      6C706572 
 19559      5F777269 
 19559      74655F6E 
 19560              	.LASF435:
 19561 02dd 6A735F78 		.ascii	"js_x\000"
 19561      00
 19562              	.LASF436:
 19563 02e2 6A735F79 		.ascii	"js_y\000"
 19563      00
 19564              	.LASF306:
 19565 02e7 6D756C74 		.ascii	"multi_esc\000"
 19565      695F6573 
 19565      6300
 19566              	.LASF376:
 19567 02f1 72657472 		.ascii	"retries\000"
 19567      69657300 
 19568              	.LASF315:
 19569 02f9 4144435F 		.ascii	"ADC_CTRL_TYPE_CURRENT_NOREV_BRAKE_BUTTON\000"
 19569      4354524C 
 19569      5F545950 
 19569      455F4355 
 19569      5252454E 
 19570              	.LASF356:
 19571 0322 4E52465F 		.ascii	"NRF_RETR_DELAY_500US\000"
 19571      52455452 
 19571      5F44454C 
 19571      41595F35 
 19571      30305553 
 19572              	.LASF349:
 19573 0337 4E52465F 		.ascii	"NRF_POWER_0DBM\000"
 19573      504F5745 
 19573      525F3044 
 19573      424D00
 19574              	.LASF486:
 19575 0346 63687563 		.ascii	"chuck_d_tmp\000"
 19575      6B5F645F 
 19575      746D7000 
 19576              	.LASF510:
 19577 0352 61707064 		.ascii	"appdata_func\000"
 19577      6174615F 
 19577      66756E63 
 19577      00
 19578              	.LASF191:
 19579 035f 6C5F7465 		.ascii	"l_temp_fet_end\000"
 19579      6D705F66 
 19579      65745F65 
 19579      6E6400
 19580              	.LASF35:
 19581 036e 74687265 		.ascii	"thread_t\000"
 19581      61645F74 
 19581      00
 19582              	.LASF78:
 19583 0377 63685F76 		.ascii	"ch_virtual_timers_list\000"
 19583      69727475 
ARM GAS  /tmp/ccTQOGyd.s 			page 348


 19583      616C5F74 
 19583      696D6572 
 19583      735F6C69 
 19584              	.LASF21:
 19585 038e 696E7433 		.ascii	"int32_t\000"
 19585      325F7400 
 19586              	.LASF34:
 19587 0396 73797374 		.ascii	"systime_t\000"
 19587      696D655F 
 19587      7400
 19588              	.LASF407:
 19589 03a0 434F4D4D 		.ascii	"COMM_SET_MCCONF\000"
 19589      5F534554 
 19589      5F4D4343 
 19589      4F4E4600 
 19590              	.LASF152:
 19591 03b0 44525638 		.ascii	"DRV8301_OC_LIMIT\000"
 19591      3330315F 
 19591      4F435F4C 
 19591      494D4954 
 19591      00
 19592              	.LASF137:
 19593 03c1 4641554C 		.ascii	"FAULT_CODE_OVER_TEMP_FET\000"
 19593      545F434F 
 19593      44455F4F 
 19593      5645525F 
 19593      54454D50 
 19594              	.LASF371:
 19595 03da 4E52465F 		.ascii	"NRF_RETR_DELAY\000"
 19595      52455452 
 19595      5F44454C 
 19595      415900
 19596              	.LASF115:
 19597 03e9 50574D5F 		.ascii	"PWM_MODE_BIPOLAR\000"
 19597      4D4F4445 
 19597      5F424950 
 19597      4F4C4152 
 19597      00
 19598              	.LASF116:
 19599 03fa 6D635F70 		.ascii	"mc_pwm_mode\000"
 19599      776D5F6D 
 19599      6F646500 
 19600              	.LASF504:
 19601 0406 64657465 		.ascii	"detect_min_rpm\000"
 19601      63745F6D 
 19601      696E5F72 
 19601      706D00
 19602              	.LASF166:
 19603 0415 43414E5F 		.ascii	"CAN_BAUD_125K\000"
 19603      42415544 
 19603      5F313235 
 19603      4B00
 19604              	.LASF390:
 19605 0423 6170705F 		.ascii	"app_uart_baudrate\000"
 19605      75617274 
 19605      5F626175 
 19605      64726174 
ARM GAS  /tmp/ccTQOGyd.s 			page 349


 19605      6500
 19606              	.LASF585:
 19607 0435 636F6E66 		.ascii	"conf_general_store_mc_configuration\000"
 19607      5F67656E 
 19607      6572616C 
 19607      5F73746F 
 19607      72655F6D 
 19608              	.LASF568:
 19609 0459 6170705F 		.ascii	"app_adc_get_decoded_level\000"
 19609      6164635F 
 19609      6765745F 
 19609      6465636F 
 19609      6465645F 
 19610              	.LASF498:
 19611 0473 64657465 		.ascii	"detect_thread_wa\000"
 19611      63745F74 
 19611      68726561 
 19611      645F7761 
 19611      00
 19612              	.LASF437:
 19613 0484 6163635F 		.ascii	"acc_x\000"
 19613      7800
 19614              	.LASF438:
 19615 048a 6163635F 		.ascii	"acc_y\000"
 19615      7900
 19616              	.LASF439:
 19617 0490 6163635F 		.ascii	"acc_z\000"
 19617      7A00
 19618              	.LASF86:
 19619 0496 76746C69 		.ascii	"vtlist\000"
 19619      737400
 19620              	.LASF279:
 19621 049d 6170705F 		.ascii	"app_use\000"
 19621      75736500 
 19622              	.LASF48:
 19623 04a5 705F7761 		.ascii	"p_waiting\000"
 19623      6974696E 
 19623      6700
 19624              	.LASF472:
 19625 04af 696E6465 		.ascii	"index\000"
 19625      7800
 19626              	.LASF490:
 19627 04b5 72657369 		.ascii	"resistance\000"
 19627      7374616E 
 19627      636500
 19628              	.LASF423:
 19629 04c0 434F4D4D 		.ascii	"COMM_REBOOT\000"
 19629      5F524542 
 19629      4F4F5400 
 19630              	.LASF85:
 19631 04cc 726C6973 		.ascii	"rlist\000"
 19631      7400
 19632              	.LASF56:
 19633 04d2 74687265 		.ascii	"threads_list_t\000"
 19633      6164735F 
 19633      6C697374 
 19633      5F7400
ARM GAS  /tmp/ccTQOGyd.s 			page 350


 19634              	.LASF206:
 19635 04e1 736C5F6D 		.ascii	"sl_min_erpm_cycle_int_limit\000"
 19635      696E5F65 
 19635      72706D5F 
 19635      6379636C 
 19635      655F696E 
 19636              	.LASF215:
 19637 04fd 666F635F 		.ascii	"foc_current_ki\000"
 19637      63757272 
 19637      656E745F 
 19637      6B6900
 19638              	.LASF392:
 19639 050c 6170705F 		.ascii	"app_nrf_conf\000"
 19639      6E72665F 
 19639      636F6E66 
 19639      00
 19640              	.LASF307:
 19641 0519 74635F6D 		.ascii	"tc_max_diff\000"
 19641      61785F64 
 19641      69666600 
 19642              	.LASF214:
 19643 0525 666F635F 		.ascii	"foc_current_kp\000"
 19643      63757272 
 19643      656E745F 
 19643      6B7000
 19644              	.LASF468:
 19645 0534 7072696E 		.ascii	"print_buffer\000"
 19645      745F6275 
 19645      66666572 
 19645      00
 19646              	.LASF347:
 19647 0541 4E52465F 		.ascii	"NRF_POWER_M12DBM\000"
 19647      504F5745 
 19647      525F4D31 
 19647      3244424D 
 19647      00
 19648              	.LASF443:
 19649 0552 4E52465F 		.ascii	"NRF_PAIR_STARTED\000"
 19649      50414952 
 19649      5F535441 
 19649      52544544 
 19649      00
 19650              	.LASF267:
 19651 0563 6D5F6E74 		.ascii	"m_ntc_motor_beta\000"
 19651      635F6D6F 
 19651      746F725F 
 19651      62657461 
 19651      00
 19652              	.LASF573:
 19653 0574 73657276 		.ascii	"servodec_get_last_pulse_len\000"
 19653      6F646563 
 19653      5F676574 
 19653      5F6C6173 
 19653      745F7075 
 19654              	.LASF574:
 19655 0590 636F6E66 		.ascii	"conf_general_get_default_app_configuration\000"
 19655      5F67656E 
ARM GAS  /tmp/ccTQOGyd.s 			page 351


 19655      6572616C 
 19655      5F676574 
 19655      5F646566 
 19656              	.LASF303:
 19657 05bb 7468726F 		.ascii	"throttle_exp_mode\000"
 19657      74746C65 
 19657      5F657870 
 19657      5F6D6F64 
 19657      6500
 19658              	.LASF30:
 19659 05cd 74707269 		.ascii	"tprio_t\000"
 19659      6F5F7400 
 19660              	.LASF389:
 19661 05d5 6170705F 		.ascii	"app_adc_conf\000"
 19661      6164635F 
 19661      636F6E66 
 19661      00
 19662              	.LASF354:
 19663 05e2 4E52465F 		.ascii	"NRF_CRC\000"
 19663      43524300 
 19664              	.LASF491:
 19665 05ea 6C696E6B 		.ascii	"linkage\000"
 19665      61676500 
 19666              	.LASF327:
 19667 05f2 766F6C74 		.ascii	"voltage2_start\000"
 19667      61676532 
 19667      5F737461 
 19667      727400
 19668              	.LASF125:
 19669 0601 464F435F 		.ascii	"FOC_SENSOR_MODE_ENCODER\000"
 19669      53454E53 
 19669      4F525F4D 
 19669      4F44455F 
 19669      454E434F 
 19670              	.LASF308:
 19671 0619 70706D5F 		.ascii	"ppm_config\000"
 19671      636F6E66 
 19671      696700
 19672              	.LASF595:
 19673 0624 5F5F6469 		.ascii	"__disable_irq\000"
 19673      7361626C 
 19673      655F6972 
 19673      7100
 19674              	.LASF291:
 19675 0632 50504D5F 		.ascii	"PPM_CTRL_TYPE_PID_NOREV\000"
 19675      4354524C 
 19675      5F545950 
 19675      455F5049 
 19675      445F4E4F 
 19676              	.LASF324:
 19677 064a 766F6C74 		.ascii	"voltage_start\000"
 19677      6167655F 
 19677      73746172 
 19677      7400
 19678              	.LASF111:
 19679 0658 7466756E 		.ascii	"tfunc_t\000"
 19679      635F7400 
ARM GAS  /tmp/ccTQOGyd.s 			page 352


 19680              	.LASF519:
 19681 0660 76736E70 		.ascii	"vsnprintf\000"
 19681      72696E74 
 19681      6600
 19682              	.LASF154:
 19683 066a 44525638 		.ascii	"DRV8301_OC_REPORT_ONLY\000"
 19683      3330315F 
 19683      4F435F52 
 19683      45504F52 
 19683      545F4F4E 
 19684              	.LASF5:
 19685 0681 5F5F696E 		.ascii	"__int16_t\000"
 19685      7431365F 
 19685      7400
 19686              	.LASF7:
 19687 068b 5F5F7569 		.ascii	"__uint16_t\000"
 19687      6E743136 
 19687      5F7400
 19688              	.LASF413:
 19689 0696 434F4D4D 		.ascii	"COMM_SAMPLE_PRINT\000"
 19689      5F53414D 
 19689      504C455F 
 19689      5052494E 
 19689      5400
 19690              	.LASF335:
 19691 06a8 6164635F 		.ascii	"adc_config\000"
 19691      636F6E66 
 19691      696700
 19692              	.LASF50:
 19693 06b3 705F6D73 		.ascii	"p_msg\000"
 19693      6700
 19694              	.LASF256:
 19695 06b9 6D5F6661 		.ascii	"m_fault_stop_time_ms\000"
 19695      756C745F 
 19695      73746F70 
 19695      5F74696D 
 19695      655F6D73 
 19696              	.LASF570:
 19697 06ce 6170705F 		.ascii	"app_adc_get_decoded_level2\000"
 19697      6164635F 
 19697      6765745F 
 19697      6465636F 
 19697      6465645F 
 19698              	.LASF587:
 19699 06e9 6D635F69 		.ascii	"mc_interface_set_pid_speed\000"
 19699      6E746572 
 19699      66616365 
 19699      5F736574 
 19699      5F706964 
 19700              	.LASF520:
 19701 0704 6D656D63 		.ascii	"memcpy\000"
 19701      707900
 19702              	.LASF245:
 19703 070b 735F7069 		.ascii	"s_pid_kd\000"
 19703      645F6B64 
 19703      00
 19704              	.LASF497:
ARM GAS  /tmp/ccTQOGyd.s 			page 353


 19705 0714 6D6F6465 		.ascii	"mode\000"
 19705      00
 19706              	.LASF432:
 19707 0719 434F4D4D 		.ascii	"COMM_ROTOR_POSITION_CUMULATIVE\000"
 19707      5F524F54 
 19707      4F525F50 
 19707      4F534954 
 19707      494F4E5F 
 19708              	.LASF457:
 19709 0738 5F5F676E 		.ascii	"__gnuc_va_list\000"
 19709      75635F76 
 19709      615F6C69 
 19709      737400
 19710              	.LASF221:
 19711 0747 666F635F 		.ascii	"foc_motor_l\000"
 19711      6D6F746F 
 19711      725F6C00 
 19712              	.LASF222:
 19713 0753 666F635F 		.ascii	"foc_motor_r\000"
 19713      6D6F746F 
 19713      725F7200 
 19714              	.LASF135:
 19715 075f 4641554C 		.ascii	"FAULT_CODE_DRV\000"
 19715      545F434F 
 19715      44455F44 
 19715      525600
 19716              	.LASF91:
 19717 076e 73746B61 		.ascii	"stkalign_t\000"
 19717      6C69676E 
 19717      5F7400
 19718              	.LASF73:
 19719 0779 76745F70 		.ascii	"vt_prev\000"
 19719      72657600 
 19720              	.LASF518:
 19721 0781 63685468 		.ascii	"chThdCreateStatic\000"
 19721      64437265 
 19721      61746553 
 19721      74617469 
 19721      6300
 19722              	.LASF4:
 19723 0793 756E7369 		.ascii	"unsigned char\000"
 19723      676E6564 
 19723      20636861 
 19723      7200
 19724              	.LASF246:
 19725 07a1 735F7069 		.ascii	"s_pid_min_erpm\000"
 19725      645F6D69 
 19725      6E5F6572 
 19725      706D00
 19726              	.LASF105:
 19727 07b0 735F636E 		.ascii	"s_cnt\000"
 19727      7400
 19728              	.LASF61:
 19729 07b6 72656164 		.ascii	"ready_list_t\000"
 19729      795F6C69 
 19729      73745F74 
 19729      00
ARM GAS  /tmp/ccTQOGyd.s 			page 354


 19730              	.LASF57:
 19731 07c3 63685F74 		.ascii	"ch_thread\000"
 19731      68726561 
 19731      6400
 19732              	.LASF0:
 19733 07cd 666C6F61 		.ascii	"float\000"
 19733      7400
 19734              	.LASF380:
 19735 07d3 6E72665F 		.ascii	"nrf_config\000"
 19735      636F6E66 
 19735      696700
 19736              	.LASF348:
 19737 07de 4E52465F 		.ascii	"NRF_POWER_M6DBM\000"
 19737      504F5745 
 19737      525F4D36 
 19737      44424D00 
 19738              	.LASF197:
 19739 07ee 6C5F7761 		.ascii	"l_watt_max\000"
 19739      74745F6D 
 19739      617800
 19740              	.LASF499:
 19741 07f9 64657465 		.ascii	"detect_tp\000"
 19741      63745F74 
 19741      7000
 19742              	.LASF216:
 19743 0803 666F635F 		.ascii	"foc_f_sw\000"
 19743      665F7377 
 19743      00
 19744              	.LASF281:
 19745 080c 5448525F 		.ascii	"THR_EXP_NATURAL\000"
 19745      4558505F 
 19745      4E415455 
 19745      52414C00 
 19746              	.LASF299:
 19747 081c 6D656469 		.ascii	"median_filter\000"
 19747      616E5F66 
 19747      696C7465 
 19747      7200
 19748              	.LASF80:
 19749 082a 73797374 		.ascii	"system_debug_t\000"
 19749      656D5F64 
 19749      65627567 
 19749      5F7400
 19750              	.LASF190:
 19751 0839 6C5F7465 		.ascii	"l_temp_fet_start\000"
 19751      6D705F66 
 19751      65745F73 
 19751      74617274 
 19751      00
 19752              	.LASF260:
 19753 084a 6D5F7365 		.ascii	"m_sensor_port_mode\000"
 19753      6E736F72 
 19753      5F706F72 
 19753      745F6D6F 
 19753      646500
 19754              	.LASF503:
 19755 085d 64657465 		.ascii	"detect_current\000"
ARM GAS  /tmp/ccTQOGyd.s 			page 355


 19755      63745F63 
 19755      75727265 
 19755      6E7400
 19756              	.LASF333:
 19757 086c 766F6C74 		.ascii	"voltage2_inverted\000"
 19757      61676532 
 19757      5F696E76 
 19757      65727465 
 19757      6400
 19758              	.LASF584:
 19759 087e 7574696C 		.ascii	"utils_truncate_number\000"
 19759      735F7472 
 19759      756E6361 
 19759      74655F6E 
 19759      756D6265 
 19760              	.LASF39:
 19761 0894 705F6374 		.ascii	"p_ctx\000"
 19761      7800
 19762              	.LASF76:
 19763 089a 76745F70 		.ascii	"vt_par\000"
 19763      617200
 19764              	.LASF334:
 19765 08a1 75706461 		.ascii	"update_rate_hz\000"
 19765      74655F72 
 19765      6174655F 
 19765      687A00
 19766              	.LASF68:
 19767 08b0 725F6375 		.ascii	"r_current\000"
 19767      7272656E 
 19767      7400
 19768              	.LASF424:
 19769 08ba 434F4D4D 		.ascii	"COMM_ALIVE\000"
 19769      5F414C49 
 19769      564500
 19770              	.LASF172:
 19771 08c5 636F6D6D 		.ascii	"comm_mode\000"
 19771      5F6D6F64 
 19771      6500
 19772              	.LASF136:
 19773 08cf 4641554C 		.ascii	"FAULT_CODE_ABS_OVER_CURRENT\000"
 19773      545F434F 
 19773      44455F41 
 19773      42535F4F 
 19773      5645525F 
 19774              	.LASF224:
 19775 08eb 666F635F 		.ascii	"foc_observer_gain\000"
 19775      6F627365 
 19775      72766572 
 19775      5F676169 
 19775      6E00
 19776              	.LASF340:
 19777 08fd 73746963 		.ascii	"stick_erpm_per_s_in_cc\000"
 19777      6B5F6572 
 19777      706D5F70 
 19777      65725F73 
 19777      5F696E5F 
 19778              	.LASF597:
ARM GAS  /tmp/ccTQOGyd.s 			page 356


 19779 0914 636F6D6D 		.ascii	"commands_get_disp_pos_mode\000"
 19779      616E6473 
 19779      5F676574 
 19779      5F646973 
 19779      705F706F 
 19780              	.LASF23:
 19781 092f 75696E74 		.ascii	"uint64_t\000"
 19781      36345F74 
 19781      00
 19782              	.LASF529:
 19783 0938 6D637077 		.ascii	"mcpwm_foc_hall_detect\000"
 19783      6D5F666F 
 19783      635F6861 
 19783      6C6C5F64 
 19783      65746563 
 19784              	.LASF370:
 19785 094e 4E52465F 		.ascii	"NRF_RETR_DELAY_4000US\000"
 19785      52455452 
 19785      5F44454C 
 19785      41595F34 
 19785      30303055 
 19786              	.LASF447:
 19787 0964 464C4153 		.ascii	"FLASH_ERROR_RD\000"
 19787      485F4552 
 19787      524F525F 
 19787      524400
 19788              	.LASF474:
 19789 0973 636F6D6D 		.ascii	"commands_send_experiment_samples\000"
 19789      616E6473 
 19789      5F73656E 
 19789      645F6578 
 19789      70657269 
 19790              	.LASF142:
 19791 0994 44495350 		.ascii	"DISP_POS_MODE_OBSERVER\000"
 19791      5F504F53 
 19791      5F4D4F44 
 19791      455F4F42 
 19791      53455256 
 19792              	.LASF545:
 19793 09ab 6D635F69 		.ascii	"mc_interface_read_reset_avg_motor_current\000"
 19793      6E746572 
 19793      66616365 
 19793      5F726561 
 19793      645F7265 
 19794              	.LASF106:
 19795 09d5 63685F6D 		.ascii	"ch_mutex\000"
 19795      75746578 
 19795      00
 19796              	.LASF140:
 19797 09de 44495350 		.ascii	"DISP_POS_MODE_NONE\000"
 19797      5F504F53 
 19797      5F4D4F44 
 19797      455F4E4F 
 19797      4E4500
 19798              	.LASF247:
 19799 09f1 735F7069 		.ascii	"s_pid_allow_braking\000"
 19799      645F616C 
ARM GAS  /tmp/ccTQOGyd.s 			page 357


 19799      6C6F775F 
 19799      6272616B 
 19799      696E6700 
 19800              	.LASF452:
 19801 0a05 464C4153 		.ascii	"FLASH_ERROR_PROGRAM\000"
 19801      485F4552 
 19801      524F525F 
 19801      50524F47 
 19801      52414D00 
 19802              	.LASF565:
 19803 0a19 6170705F 		.ascii	"app_nunchuk_update_output\000"
 19803      6E756E63 
 19803      68756B5F 
 19803      75706461 
 19803      74655F6F 
 19804              	.LASF121:
 19805 0a33 53454E53 		.ascii	"SENSOR_MODE_SENSORED\000"
 19805      4F525F4D 
 19805      4F44455F 
 19805      53454E53 
 19805      4F524544 
 19806              	.LASF312:
 19807 0a48 4144435F 		.ascii	"ADC_CTRL_TYPE_CURRENT_REV_BUTTON\000"
 19807      4354524C 
 19807      5F545950 
 19807      455F4355 
 19807      5252454E 
 19808              	.LASF460:
 19809 0a69 76615F6C 		.ascii	"va_list\000"
 19809      69737400 
 19810              	.LASF440:
 19811 0a71 62745F63 		.ascii	"bt_c\000"
 19811      00
 19812              	.LASF505:
 19813 0a76 64657465 		.ascii	"detect_low_duty\000"
 19813      63745F6C 
 19813      6F775F64 
 19813      75747900 
 19814              	.LASF345:
 19815 0a86 4E52465F 		.ascii	"NRF_SPEED\000"
 19815      53504545 
 19815      4400
 19816              	.LASF305:
 19817 0a90 72616D70 		.ascii	"ramp_time_neg\000"
 19817      5F74696D 
 19817      655F6E65 
 19817      6700
 19818              	.LASF441:
 19819 0a9e 62745F7A 		.ascii	"bt_z\000"
 19819      00
 19820              	.LASF70:
 19821 0aa3 76697274 		.ascii	"virtual_timer_t\000"
 19821      75616C5F 
 19821      74696D65 
 19821      725F7400 
 19822              	.LASF65:
 19823 0ab3 725F6374 		.ascii	"r_ctx\000"
ARM GAS  /tmp/ccTQOGyd.s 			page 358


 19823      7800
 19824              	.LASF72:
 19825 0ab9 76745F6E 		.ascii	"vt_next\000"
 19825      65787400 
 19826              	.LASF397:
 19827 0ac1 434F4D4D 		.ascii	"COMM_WRITE_NEW_APP_DATA\000"
 19827      5F575249 
 19827      54455F4E 
 19827      45575F41 
 19827      50505F44 
 19828              	.LASF396:
 19829 0ad9 434F4D4D 		.ascii	"COMM_ERASE_NEW_APP\000"
 19829      5F455241 
 19829      53455F4E 
 19829      45575F41 
 19829      505000
 19830              	.LASF25:
 19831 0aec 7274636E 		.ascii	"rtcnt_t\000"
 19831      745F7400 
 19832              	.LASF122:
 19833 0af4 53454E53 		.ascii	"SENSOR_MODE_HYBRID\000"
 19833      4F525F4D 
 19833      4F44455F 
 19833      48594252 
 19833      494400
 19834              	.LASF446:
 19835 0b07 464C4153 		.ascii	"FLASH_BUSY\000"
 19835      485F4255 
 19835      535900
 19836              	.LASF262:
 19837 0b12 6D5F6472 		.ascii	"m_drv8301_oc_mode\000"
 19837      76383330 
 19837      315F6F63 
 19837      5F6D6F64 
 19837      6500
 19838              	.LASF199:
 19839 0b24 6C6F5F63 		.ascii	"lo_current_max\000"
 19839      75727265 
 19839      6E745F6D 
 19839      617800
 19840              	.LASF219:
 19841 0b33 666F635F 		.ascii	"foc_encoder_inverted\000"
 19841      656E636F 
 19841      6465725F 
 19841      696E7665 
 19841      72746564 
 19842              	.LASF253:
 19843 0b48 63635F6D 		.ascii	"cc_min_current\000"
 19843      696E5F63 
 19843      75727265 
 19843      6E7400
 19844              	.LASF297:
 19845 0b57 70756C73 		.ascii	"pulse_end\000"
 19845      655F656E 
 19845      6400
 19846              	.LASF149:
 19847 0b61 53454E53 		.ascii	"SENSOR_PORT_MODE_ABI\000"
ARM GAS  /tmp/ccTQOGyd.s 			page 359


 19847      4F525F50 
 19847      4F52545F 
 19847      4D4F4445 
 19847      5F414249 
 19848              	.LASF313:
 19849 0b76 4144435F 		.ascii	"ADC_CTRL_TYPE_CURRENT_REV_BUTTON_BRAKE_ADC\000"
 19849      4354524C 
 19849      5F545950 
 19849      455F4355 
 19849      5252454E 
 19850              	.LASF311:
 19851 0ba1 4144435F 		.ascii	"ADC_CTRL_TYPE_CURRENT_REV_CENTER\000"
 19851      4354524C 
 19851      5F545950 
 19851      455F4355 
 19851      5252454E 
 19852              	.LASF578:
 19853 0bc2 6170705F 		.ascii	"app_set_configuration\000"
 19853      7365745F 
 19853      636F6E66 
 19853      69677572 
 19853      6174696F 
 19854              	.LASF24:
 19855 0bd8 73697A65 		.ascii	"size_t\000"
 19855      5F7400
 19856              	.LASF150:
 19857 0bdf 53454E53 		.ascii	"SENSOR_PORT_MODE_AS5047_SPI\000"
 19857      4F525F50 
 19857      4F52545F 
 19857      4D4F4445 
 19857      5F415335 
 19858              	.LASF382:
 19859 0bfb 74696D65 		.ascii	"timeout_msec\000"
 19859      6F75745F 
 19859      6D736563 
 19859      00
 19860              	.LASF161:
 19861 0c08 44454255 		.ascii	"DEBUG_SAMPLING_TRIGGER_FAULT\000"
 19861      475F5341 
 19861      4D504C49 
 19861      4E475F54 
 19861      52494747 
 19862              	.LASF18:
 19863 0c25 75696E74 		.ascii	"uint8_t\000"
 19863      385F7400 
 19864              	.LASF384:
 19865 0c2d 73656E64 		.ascii	"send_can_status\000"
 19865      5F63616E 
 19865      5F737461 
 19865      74757300 
 19866              	.LASF67:
 19867 0c3d 725F6F6C 		.ascii	"r_older\000"
 19867      64657200 
 19868              	.LASF37:
 19869 0c45 705F7072 		.ascii	"p_prev\000"
 19869      657600
 19870              	.LASF420:
ARM GAS  /tmp/ccTQOGyd.s 			page 360


 19871 0c4c 434F4D4D 		.ascii	"COMM_DETECT_MOTOR_FLUX_LINKAGE\000"
 19871      5F444554 
 19871      4543545F 
 19871      4D4F544F 
 19871      525F464C 
 19872              	.LASF276:
 19873 0c6b 4150505F 		.ascii	"APP_NUNCHUK\000"
 19873      4E554E43 
 19873      48554B00 
 19874              	.LASF204:
 19875 0c77 6C6F5F63 		.ascii	"lo_current_motor_min_now\000"
 19875      75727265 
 19875      6E745F6D 
 19875      6F746F72 
 19875      5F6D696E 
 19876              	.LASF186:
 19877 0c90 6C5F6D61 		.ascii	"l_max_vin\000"
 19877      785F7669 
 19877      6E00
 19878              	.LASF502:
 19879 0c9a 64657465 		.ascii	"detect_coupling_k\000"
 19879      63745F63 
 19879      6F75706C 
 19879      696E675F 
 19879      6B00
 19880              	.LASF97:
 19881 0cac 65786974 		.ascii	"exitcode\000"
 19881      636F6465 
 19881      00
 19882              	.LASF379:
 19883 0cb5 73656E64 		.ascii	"send_crc_ack\000"
 19883      5F637263 
 19883      5F61636B 
 19883      00
 19884              	.LASF479:
 19885 0cc2 7061636B 		.ascii	"packet_id\000"
 19885      65745F69 
 19885      6400
 19886              	.LASF271:
 19887 0ccc 4150505F 		.ascii	"APP_PPM\000"
 19887      50504D00 
 19888              	.LASF546:
 19889 0cd4 6D635F69 		.ascii	"mc_interface_read_reset_avg_input_current\000"
 19889      6E746572 
 19889      66616365 
 19889      5F726561 
 19889      645F7265 
 19890              	.LASF550:
 19891 0cfe 6D635F69 		.ascii	"mc_interface_get_rpm\000"
 19891      6E746572 
 19891      66616365 
 19891      5F676574 
 19891      5F72706D 
 19892              	.LASF523:
 19893 0d13 62756666 		.ascii	"buffer_append_uint16\000"
 19893      65725F61 
 19893      7070656E 
ARM GAS  /tmp/ccTQOGyd.s 			page 361


 19893      645F7569 
 19893      6E743136 
 19894              	.LASF318:
 19895 0d28 4144435F 		.ascii	"ADC_CTRL_TYPE_DUTY_REV_CENTER\000"
 19895      4354524C 
 19895      5F545950 
 19895      455F4455 
 19895      54595F52 
 19896              	.LASF292:
 19897 0d46 70706D5F 		.ascii	"ppm_control_type\000"
 19897      636F6E74 
 19897      726F6C5F 
 19897      74797065 
 19897      00
 19898              	.LASF484:
 19899 0d57 666C6173 		.ascii	"flash_res\000"
 19899      685F7265 
 19899      7300
 19900              	.LASF399:
 19901 0d61 434F4D4D 		.ascii	"COMM_SET_DUTY\000"
 19901      5F534554 
 19901      5F445554 
 19901      5900
 19902              	.LASF187:
 19903 0d6f 6C5F6261 		.ascii	"l_battery_cut_start\000"
 19903      74746572 
 19903      795F6375 
 19903      745F7374 
 19903      61727400 
 19904              	.LASF145:
 19905 0d83 44495350 		.ascii	"DISP_POS_MODE_PID_POS_ERROR\000"
 19905      5F504F53 
 19905      5F4D4F44 
 19905      455F5049 
 19905      445F504F 
 19906              	.LASF185:
 19907 0d9f 6C5F6D69 		.ascii	"l_min_vin\000"
 19907      6E5F7669 
 19907      6E00
 19908              	.LASF364:
 19909 0da9 4E52465F 		.ascii	"NRF_RETR_DELAY_2500US\000"
 19909      52455452 
 19909      5F44454C 
 19909      41595F32 
 19909      35303055 
 19910              	.LASF408:
 19911 0dbf 434F4D4D 		.ascii	"COMM_GET_MCCONF\000"
 19911      5F474554 
 19911      5F4D4343 
 19911      4F4E4600 
 19912              	.LASF236:
 19913 0dcf 666F635F 		.ascii	"foc_hall_table\000"
 19913      68616C6C 
 19913      5F746162 
 19913      6C6500
 19914              	.LASF169:
 19915 0dde 43414E5F 		.ascii	"CAN_BAUD_1M\000"
ARM GAS  /tmp/ccTQOGyd.s 			page 362


 19915      42415544 
 19915      5F314D00 
 19916              	.LASF549:
 19917 0dea 6D635F69 		.ascii	"mc_interface_get_duty_cycle_now\000"
 19917      6E746572 
 19917      66616365 
 19917      5F676574 
 19917      5F647574 
 19918              	.LASF425:
 19919 0e0a 434F4D4D 		.ascii	"COMM_GET_DECODED_PPM\000"
 19919      5F474554 
 19919      5F444543 
 19919      4F444544 
 19919      5F50504D 
 19920              	.LASF144:
 19921 0e1f 44495350 		.ascii	"DISP_POS_MODE_PID_POS\000"
 19921      5F504F53 
 19921      5F4D4F44 
 19921      455F5049 
 19921      445F504F 
 19922              	.LASF130:
 19923 0e35 4D4F544F 		.ascii	"MOTOR_TYPE_FOC\000"
 19923      525F5459 
 19923      50455F46 
 19923      4F4300
 19924              	.LASF205:
 19925 0e44 736C5F6D 		.ascii	"sl_min_erpm\000"
 19925      696E5F65 
 19925      72706D00 
 19926              	.LASF133:
 19927 0e50 4641554C 		.ascii	"FAULT_CODE_OVER_VOLTAGE\000"
 19927      545F434F 
 19927      44455F4F 
 19927      5645525F 
 19927      564F4C54 
 19928              	.LASF258:
 19929 0e68 6D5F6375 		.ascii	"m_current_backoff_gain\000"
 19929      7272656E 
 19929      745F6261 
 19929      636B6F66 
 19929      665F6761 
 19930              	.LASF580:
 19931 0e7f 63685468 		.ascii	"chThdSleep\000"
 19931      64536C65 
 19931      657000
 19932              	.LASF261:
 19933 0e8a 6D5F696E 		.ascii	"m_invert_direction\000"
 19933      76657274 
 19933      5F646972 
 19933      65637469 
 19933      6F6E00
 19934              	.LASF590:
 19935 0e9d 474E5520 		.ascii	"GNU C 4.8.4 20141219 (release) -mcpu=cortex-m4 -mfl"
 19935      4320342E 
 19935      382E3420 
 19935      32303134 
 19935      31323139 
ARM GAS  /tmp/ccTQOGyd.s 			page 363


 19936 0ed0 6F61742D 		.ascii	"oat-abi=hard -mfpu=fpv4-sp-d16 -mno-thumb-interwork"
 19936      6162693D 
 19936      68617264 
 19936      202D6D66 
 19936      70753D66 
 19937 0f03 202D6D74 		.ascii	" -mthumb -ggdb -O2 -std=gnu99 -fomit-frame-pointer "
 19937      68756D62 
 19937      202D6767 
 19937      6462202D 
 19937      4F32202D 
 19938 0f36 2D66616C 		.ascii	"-falign-functions=16 -ffunction-sections -fdata-sec"
 19938      69676E2D 
 19938      66756E63 
 19938      74696F6E 
 19938      733D3136 
 19939 0f69 74696F6E 		.ascii	"tions -fno-common -fsingle-precision-constant\000"
 19939      73202D66 
 19939      6E6F2D63 
 19939      6F6D6D6F 
 19939      6E202D66 
 19940              	.LASF521:
 19941 0f97 62756666 		.ascii	"buffer_append_uint32\000"
 19941      65725F61 
 19941      7070656E 
 19941      645F7569 
 19941      6E743332 
 19942              	.LASF428:
 19943 0fac 434F4D4D 		.ascii	"COMM_FORWARD_CAN\000"
 19943      5F464F52 
 19943      57415244 
 19943      5F43414E 
 19943      00
 19944              	.LASF96:
 19945 0fbd 7264796D 		.ascii	"rdymsg\000"
 19945      736700
 19946              	.LASF196:
 19947 0fc4 6C5F6D61 		.ascii	"l_max_duty\000"
 19947      785F6475 
 19947      747900
 19948              	.LASF417:
 19949 0fcf 434F4D4D 		.ascii	"COMM_EXPERIMENT_SAMPLE\000"
 19949      5F455850 
 19949      4552494D 
 19949      454E545F 
 19949      53414D50 
 19950              	.LASF480:
 19951 0fe6 61707063 		.ascii	"appconf\000"
 19951      6F6E6600 
 19952              	.LASF159:
 19953 0fee 44454255 		.ascii	"DEBUG_SAMPLING_START\000"
 19953      475F5341 
 19953      4D504C49 
 19953      4E475F53 
 19953      54415254 
 19954              	.LASF526:
 19955 1003 62756666 		.ascii	"buffer_append_float32\000"
 19955      65725F61 
ARM GAS  /tmp/ccTQOGyd.s 			page 364


 19955      7070656E 
 19955      645F666C 
 19955      6F617433 
 19956              	.LASF38:
 19957 1019 705F7072 		.ascii	"p_prio\000"
 19957      696F00
 19958              	.LASF557:
 19959 1020 6D635F69 		.ascii	"mc_interface_get_fault\000"
 19959      6E746572 
 19959      66616365 
 19959      5F676574 
 19959      5F666175 
 19960              	.LASF14:
 19961 1037 5F5F7569 		.ascii	"__uint64_t\000"
 19961      6E743634 
 19961      5F7400
 19962              	.LASF368:
 19963 1042 4E52465F 		.ascii	"NRF_RETR_DELAY_3500US\000"
 19963      52455452 
 19963      5F44454C 
 19963      41595F33 
 19963      35303055 
 19964              	.LASF237:
 19965 1058 666F635F 		.ascii	"foc_sl_erpm\000"
 19965      736C5F65 
 19965      72706D00 
 19966              	.LASF534:
 19967 1064 74696D65 		.ascii	"timeout_reset\000"
 19967      6F75745F 
 19967      72657365 
 19967      7400
 19968              	.LASF378:
 19969 1072 61646472 		.ascii	"address\000"
 19969      65737300 
 19970              	.LASF209:
 19971 107a 736C5F70 		.ascii	"sl_phase_advance_at_br\000"
 19971      68617365 
 19971      5F616476 
 19971      616E6365 
 19971      5F61745F 
 19972              	.LASF314:
 19973 1091 4144435F 		.ascii	"ADC_CTRL_TYPE_CURRENT_NOREV_BRAKE_CENTER\000"
 19973      4354524C 
 19973      5F545950 
 19973      455F4355 
 19973      5252454E 
 19974              	.LASF36:
 19975 10ba 705F6E65 		.ascii	"p_next\000"
 19975      787400
 19976              	.LASF576:
 19977 10c1 62756666 		.ascii	"buffer_get_float32_auto\000"
 19977      65725F67 
 19977      65745F66 
 19977      6C6F6174 
 19977      33325F61 
 19978              	.LASF377:
 19979 10d9 6368616E 		.ascii	"channel\000"
ARM GAS  /tmp/ccTQOGyd.s 			page 365


 19979      6E656C00 
 19980              	.LASF524:
 19981 10e1 6D635F69 		.ascii	"mc_interface_set_configuration\000"
 19981      6E746572 
 19981      66616365 
 19981      5F736574 
 19981      5F636F6E 
 19982              	.LASF254:
 19983 1100 63635F67 		.ascii	"cc_gain\000"
 19983      61696E00 
 19984              	.LASF360:
 19985 1108 4E52465F 		.ascii	"NRF_RETR_DELAY_1500US\000"
 19985      52455452 
 19985      5F44454C 
 19985      41595F31 
 19985      35303055 
 19986              	.LASF28:
 19987 111e 74726566 		.ascii	"trefs_t\000"
 19987      735F7400 
 19988              	.LASF591:
 19989 1126 636F6D6D 		.ascii	"commands.c\000"
 19989      616E6473 
 19989      2E6300
 19990              	.LASF54:
 19991 1131 705F6D70 		.ascii	"p_mpool\000"
 19991      6F6F6C00 
 19992              	.LASF171:
 19993 1139 70776D5F 		.ascii	"pwm_mode\000"
 19993      6D6F6465 
 19993      00
 19994              	.LASF319:
 19995 1142 4144435F 		.ascii	"ADC_CTRL_TYPE_DUTY_REV_BUTTON\000"
 19995      4354524C 
 19995      5F545950 
 19995      455F4455 
 19995      54595F52 
 19996              	.LASF173:
 19997 1160 6D6F746F 		.ascii	"motor_type\000"
 19997      725F7479 
 19997      706500
 19998              	.LASF200:
 19999 116b 6C6F5F63 		.ascii	"lo_current_min\000"
 19999      75727265 
 19999      6E745F6D 
 19999      696E00
 20000              	.LASF473:
 20001 117a 636F6D6D 		.ascii	"commands_send_rotor_pos_counts\000"
 20001      616E6473 
 20001      5F73656E 
 20001      645F726F 
 20001      746F725F 
 20002              	.LASF207:
 20003 1199 736C5F6D 		.ascii	"sl_max_fullbreak_current_dir_change\000"
 20003      61785F66 
 20003      756C6C62 
 20003      7265616B 
 20003      5F637572 
ARM GAS  /tmp/ccTQOGyd.s 			page 366


 20004              	.LASF501:
 20005 11bd 64657465 		.ascii	"detect_cycle_int_limit\000"
 20005      63745F63 
 20005      79636C65 
 20005      5F696E74 
 20005      5F6C696D 
 20006              	.LASF26:
 20007 11d4 746D6F64 		.ascii	"tmode_t\000"
 20007      655F7400 
 20008              	.LASF233:
 20009 11dc 666F635F 		.ascii	"foc_sl_d_current_duty\000"
 20009      736C5F64 
 20009      5F637572 
 20009      72656E74 
 20009      5F647574 
 20010              	.LASF365:
 20011 11f2 4E52465F 		.ascii	"NRF_RETR_DELAY_2750US\000"
 20011      52455452 
 20011      5F44454C 
 20011      41595F32 
 20011      37353055 
 20012              	.LASF212:
 20013 1208 68616C6C 		.ascii	"hall_table\000"
 20013      5F746162 
 20013      6C6500
 20014              	.LASF492:
 20015 1213 68616C6C 		.ascii	"hall_tab\000"
 20015      5F746162 
 20015      00
 20016              	.LASF589:
 20017 121c 6D656D73 		.ascii	"memset\000"
 20017      657400
 20018              	.LASF164:
 20019 1223 44454255 		.ascii	"DEBUG_SAMPLING_SEND_LAST_SAMPLES\000"
 20019      475F5341 
 20019      4D504C49 
 20019      4E475F53 
 20019      454E445F 
 20020              	.LASF129:
 20021 1244 4D4F544F 		.ascii	"MOTOR_TYPE_DC\000"
 20021      525F5459 
 20021      50455F44 
 20021      4300
 20022              	.LASF361:
 20023 1252 4E52465F 		.ascii	"NRF_RETR_DELAY_1750US\000"
 20023      52455452 
 20023      5F44454C 
 20023      41595F31 
 20023      37353055 
 20024              	.LASF515:
 20025 1268 636F6E66 		.ascii	"conf_general_detect_motor_param\000"
 20025      5F67656E 
 20025      6572616C 
 20025      5F646574 
 20025      6563745F 
 20026              	.LASF285:
 20027 1288 50504D5F 		.ascii	"PPM_CTRL_TYPE_CURRENT\000"
ARM GAS  /tmp/ccTQOGyd.s 			page 367


 20027      4354524C 
 20027      5F545950 
 20027      455F4355 
 20027      5252454E 
 20028              	.LASF391:
 20029 129e 6170705F 		.ascii	"app_chuk_conf\000"
 20029      6368756B 
 20029      5F636F6E 
 20029      6600
 20030              	.LASF223:
 20031 12ac 666F635F 		.ascii	"foc_motor_flux_linkage\000"
 20031      6D6F746F 
 20031      725F666C 
 20031      75785F6C 
 20031      696E6B61 
 20032              	.LASF445:
 20033 12c3 4E52465F 		.ascii	"NRF_PAIR_FAIL\000"
 20033      50414952 
 20033      5F464149 
 20033      4C00
 20034              	.LASF208:
 20035 12d1 736C5F63 		.ascii	"sl_cycle_int_limit\000"
 20035      79636C65 
 20035      5F696E74 
 20035      5F6C696D 
 20035      697400
 20036              	.LASF17:
 20037 12e4 696E7438 		.ascii	"int8_t\000"
 20037      5F7400
 20038              	.LASF406:
 20039 12eb 434F4D4D 		.ascii	"COMM_SET_SERVO_POS\000"
 20039      5F534554 
 20039      5F534552 
 20039      564F5F50 
 20039      4F5300
 20040              	.LASF82:
 20041 12fe 70616E69 		.ascii	"panic_msg\000"
 20041      635F6D73 
 20041      6700
 20042              	.LASF383:
 20043 1308 74696D65 		.ascii	"timeout_brake_current\000"
 20043      6F75745F 
 20043      6272616B 
 20043      655F6375 
 20043      7272656E 
 20044              	.LASF66:
 20045 131e 725F6E65 		.ascii	"r_newer\000"
 20045      77657200 
 20046              	.LASF400:
 20047 1326 434F4D4D 		.ascii	"COMM_SET_CURRENT\000"
 20047      5F534554 
 20047      5F435552 
 20047      52454E54 
 20047      00
 20048              	.LASF547:
 20049 1337 6D635F69 		.ascii	"mc_interface_read_reset_avg_id\000"
 20049      6E746572 
ARM GAS  /tmp/ccTQOGyd.s 			page 368


 20049      66616365 
 20049      5F726561 
 20049      645F7265 
 20050              	.LASF434:
 20051 1356 434F4D4D 		.ascii	"COMM_PACKET_ID\000"
 20051      5F504143 
 20051      4B45545F 
 20051      494400
 20052              	.LASF280:
 20053 1365 5448525F 		.ascii	"THR_EXP_EXPO\000"
 20053      4558505F 
 20053      4558504F 
 20053      00
 20054              	.LASF29:
 20055 1372 74736C69 		.ascii	"tslices_t\000"
 20055      6365735F 
 20055      7400
 20056              	.LASF298:
 20057 137c 70756C73 		.ascii	"pulse_center\000"
 20057      655F6365 
 20057      6E746572 
 20057      00
 20058              	.LASF564:
 20059 1389 62756666 		.ascii	"buffer_get_int16\000"
 20059      65725F67 
 20059      65745F69 
 20059      6E743136 
 20059      00
 20060              	.LASF322:
 20061 139a 4144435F 		.ascii	"ADC_CTRL_TYPE_PID_REV_BUTTON\000"
 20061      4354524C 
 20061      5F545950 
 20061      455F5049 
 20061      445F5245 
 20062              	.LASF74:
 20063 13b7 76745F64 		.ascii	"vt_delta\000"
 20063      656C7461 
 20063      00
 20064              	.LASF89:
 20065 13c0 73697A65 		.ascii	"sizetype\000"
 20065      74797065 
 20065      00
 20066              	.LASF19:
 20067 13c9 696E7431 		.ascii	"int16_t\000"
 20067      365F7400 
 20068              	.LASF8:
 20069 13d1 73686F72 		.ascii	"short unsigned int\000"
 20069      7420756E 
 20069      7369676E 
 20069      65642069 
 20069      6E7400
 20070              	.LASF1:
 20071 13e4 7369676E 		.ascii	"signed char\000"
 20071      65642063 
 20071      68617200 
 20072              	.LASF387:
 20073 13f0 6170705F 		.ascii	"app_to_use\000"
ARM GAS  /tmp/ccTQOGyd.s 			page 369


 20073      746F5F75 
 20073      736500
 20074              	.LASF544:
 20075 13fb 6D635F69 		.ascii	"mc_interface_temp_motor_filtered\000"
 20075      6E746572 
 20075      66616365 
 20075      5F74656D 
 20075      705F6D6F 
 20076              	.LASF46:
 20077 141c 705F7072 		.ascii	"p_preempt\000"
 20077      65656D70 
 20077      7400
 20078              	.LASF181:
 20079 1426 6C5F6D61 		.ascii	"l_max_erpm\000"
 20079      785F6572 
 20079      706D00
 20080              	.LASF47:
 20081 1431 705F7469 		.ascii	"p_time\000"
 20081      6D6500
 20082              	.LASF487:
 20083 1438 63757272 		.ascii	"current\000"
 20083      656E7400 
 20084              	.LASF581:
 20085 1440 7465726D 		.ascii	"terminal_process_string\000"
 20085      696E616C 
 20085      5F70726F 
 20085      63657373 
 20085      5F737472 
 20086              	.LASF283:
 20087 1458 7468725F 		.ascii	"thr_exp_mode\000"
 20087      6578705F 
 20087      6D6F6465 
 20087      00
 20088              	.LASF543:
 20089 1465 62756666 		.ascii	"buffer_append_float16\000"
 20089      65725F61 
 20089      7070656E 
 20089      645F666C 
 20089      6F617431 
 20090              	.LASF538:
 20091 147b 62756666 		.ascii	"buffer_get_int32\000"
 20091      65725F67 
 20091      65745F69 
 20091      6E743332 
 20091      00
 20092              	.LASF563:
 20093 148c 6E72665F 		.ascii	"nrf_driver_start_pairing\000"
 20093      64726976 
 20093      65725F73 
 20093      74617274 
 20093      5F706169 
 20094              	.LASF388:
 20095 14a5 6170705F 		.ascii	"app_ppm_conf\000"
 20095      70706D5F 
 20095      636F6E66 
 20095      00
 20096              	.LASF476:
ARM GAS  /tmp/ccTQOGyd.s 			page 370


 20097 14b2 636F6D6D 		.ascii	"commands_set_app_data_handler\000"
 20097      616E6473 
 20097      5F736574 
 20097      5F617070 
 20097      5F646174 
 20098              	.LASF138:
 20099 14d0 4641554C 		.ascii	"FAULT_CODE_OVER_TEMP_MOTOR\000"
 20099      545F434F 
 20099      44455F4F 
 20099      5645525F 
 20099      54454D50 
 20100              	.LASF49:
 20101 14eb 705F6D73 		.ascii	"p_msgqueue\000"
 20101      67717565 
 20101      756500
 20102              	.LASF507:
 20103 14f6 64657465 		.ascii	"detect_hall_res\000"
 20103      63745F68 
 20103      616C6C5F 
 20103      72657300 
 20104              	.LASF229:
 20105 1506 666F635F 		.ascii	"foc_duty_dowmramp_ki\000"
 20105      64757479 
 20105      5F646F77 
 20105      6D72616D 
 20105      705F6B69 
 20106              	.LASF355:
 20107 151b 4E52465F 		.ascii	"NRF_RETR_DELAY_250US\000"
 20107      52455452 
 20107      5F44454C 
 20107      41595F32 
 20107      35305553 
 20108              	.LASF108:
 20109 1530 6D5F6F77 		.ascii	"m_owner\000"
 20109      6E657200 
 20110              	.LASF228:
 20111 1538 666F635F 		.ascii	"foc_duty_dowmramp_kp\000"
 20111      64757479 
 20111      5F646F77 
 20111      6D72616D 
 20111      705F6B70 
 20112              	.LASF596:
 20113 154d 64657465 		.ascii	"detect_thread\000"
 20113      63745F74 
 20113      68726561 
 20113      6400
 20114              	.LASF182:
 20115 155b 6C5F6572 		.ascii	"l_erpm_start\000"
 20115      706D5F73 
 20115      74617274 
 20115      00
 20116              	.LASF571:
 20117 1568 6170705F 		.ascii	"app_adc_get_voltage2\000"
 20117      6164635F 
 20117      6765745F 
 20117      766F6C74 
 20117      61676532 
ARM GAS  /tmp/ccTQOGyd.s 			page 371


 20118              	.LASF84:
 20119 157d 63685F73 		.ascii	"ch_system\000"
 20119      79737465 
 20119      6D00
 20120              	.LASF175:
 20121 1587 6C5F6375 		.ascii	"l_current_max\000"
 20121      7272656E 
 20121      745F6D61 
 20121      7800
 20122              	.LASF465:
 20123 1595 66756E63 		.ascii	"func\000"
 20123      00
 20124              	.LASF342:
 20125 159a 4E52465F 		.ascii	"NRF_SPEED_250K\000"
 20125      53504545 
 20125      445F3235 
 20125      304B00
 20126              	.LASF103:
 20127 15a9 63685F73 		.ascii	"ch_semaphore\000"
 20127      656D6170 
 20127      686F7265 
 20127      00
 20128              	.LASF287:
 20129 15b6 50504D5F 		.ascii	"PPM_CTRL_TYPE_CURRENT_NOREV_BRAKE\000"
 20129      4354524C 
 20129      5F545950 
 20129      455F4355 
 20129      5252454E 
 20130              	.LASF338:
 20131 15d8 4348554B 		.ascii	"CHUK_CTRL_TYPE_CURRENT_NOREV\000"
 20131      5F435452 
 20131      4C5F5459 
 20131      50455F43 
 20131      55525245 
 20132              	.LASF336:
 20133 15f5 4348554B 		.ascii	"CHUK_CTRL_TYPE_NONE\000"
 20133      5F435452 
 20133      4C5F5459 
 20133      50455F4E 
 20133      4F4E4500 
 20134              	.LASF59:
 20135 1609 74687265 		.ascii	"threads_queue_t\000"
 20135      6164735F 
 20135      71756575 
 20135      655F7400 
 20136              	.LASF148:
 20137 1619 53454E53 		.ascii	"SENSOR_PORT_MODE_HALL\000"
 20137      4F525F50 
 20137      4F52545F 
 20137      4D4F4445 
 20137      5F48414C 
 20138              	.LASF374:
 20139 162f 6372635F 		.ascii	"crc_type\000"
 20139      74797065 
 20139      00
 20140              	.LASF513:
 20141 1638 4144435F 		.ascii	"ADC_Value\000"
ARM GAS  /tmp/ccTQOGyd.s 			page 372


 20141      56616C75 
 20141      6500
 20142              	.LASF124:
 20143 1642 464F435F 		.ascii	"FOC_SENSOR_MODE_SENSORLESS\000"
 20143      53454E53 
 20143      4F525F4D 
 20143      4F44455F 
 20143      53454E53 
 20144              	.LASF45:
 20145 165d 705F7265 		.ascii	"p_refs\000"
 20145      667300
 20146              	.LASF339:
 20147 1664 6368756B 		.ascii	"chuk_control_type\000"
 20147      5F636F6E 
 20147      74726F6C 
 20147      5F747970 
 20147      6500
 20148              	.LASF540:
 20149 1676 6D635F69 		.ascii	"mc_interface_set_current\000"
 20149      6E746572 
 20149      66616365 
 20149      5F736574 
 20149      5F637572 
 20150              	.LASF123:
 20151 168f 6D635F73 		.ascii	"mc_sensor_mode\000"
 20151      656E736F 
 20151      725F6D6F 
 20151      646500
 20152              	.LASF10:
 20153 169e 6C6F6E67 		.ascii	"long int\000"
 20153      20696E74 
 20153      00
 20154              	.LASF87:
 20155 16a7 6D61696E 		.ascii	"mainthread\000"
 20155      74687265 
 20155      616400
 20156              	.LASF107:
 20157 16b2 6D5F7175 		.ascii	"m_queue\000"
 20157      65756500 
 20158              	.LASF405:
 20159 16ba 434F4D4D 		.ascii	"COMM_SET_DETECT\000"
 20159      5F534554 
 20159      5F444554 
 20159      45435400 
 20160              	.LASF467:
 20161 16ca 666F726D 		.ascii	"format\000"
 20161      617400
 20162              	.LASF395:
 20163 16d1 434F4D4D 		.ascii	"COMM_JUMP_TO_BOOTLOADER\000"
 20163      5F4A554D 
 20163      505F544F 
 20163      5F424F4F 
 20163      544C4F41 
 20164              	.LASF117:
 20165 16e9 434F4D4D 		.ascii	"COMM_MODE_INTEGRATE\000"
 20165      5F4D4F44 
 20165      455F494E 
ARM GAS  /tmp/ccTQOGyd.s 			page 373


 20165      54454752 
 20165      41544500 
 20166              	.LASF301:
 20167 16fd 7468726F 		.ascii	"throttle_exp\000"
 20167      74746C65 
 20167      5F657870 
 20167      00
 20168              	.LASF290:
 20169 170a 50504D5F 		.ascii	"PPM_CTRL_TYPE_PID\000"
 20169      4354524C 
 20169      5F545950 
 20169      455F5049 
 20169      4400
 20170              	.LASF99:
 20171 171c 77747472 		.ascii	"wttrp\000"
 20171      7000
 20172              	.LASF92:
 20173 1722 636F6E74 		.ascii	"context\000"
 20173      65787400 
 20174              	.LASF532:
 20175 172a 6D635F69 		.ascii	"mc_interface_sample_print_data\000"
 20175      6E746572 
 20175      66616365 
 20175      5F73616D 
 20175      706C655F 
 20176              	.LASF485:
 20177 1749 6E65775F 		.ascii	"new_app_offset\000"
 20177      6170705F 
 20177      6F666673 
 20177      657400
 20178              	.LASF583:
 20179 1758 636F6E66 		.ascii	"conf_general_get_default_mc_configuration\000"
 20179      5F67656E 
 20179      6572616C 
 20179      5F676574 
 20179      5F646566 
 20180              	.LASF220:
 20181 1782 666F635F 		.ascii	"foc_encoder_ratio\000"
 20181      656E636F 
 20181      6465725F 
 20181      72617469 
 20181      6F00
 20182              	.LASF22:
 20183 1794 75696E74 		.ascii	"uint32_t\000"
 20183      33325F74 
 20183      00
 20184              	.LASF427:
 20185 179d 434F4D4D 		.ascii	"COMM_GET_DECODED_CHUK\000"
 20185      5F474554 
 20185      5F444543 
 20185      4F444544 
 20185      5F434855 
 20186              	.LASF404:
 20187 17b3 434F4D4D 		.ascii	"COMM_SET_HANDBRAKE\000"
 20187      5F534554 
 20187      5F48414E 
 20187      44425241 
ARM GAS  /tmp/ccTQOGyd.s 			page 374


 20187      4B4500
 20188              	.LASF442:
 20189 17c6 63687563 		.ascii	"chuck_data\000"
 20189      6B5F6461 
 20189      746100
 20190              	.LASF188:
 20191 17d1 6C5F6261 		.ascii	"l_battery_cut_end\000"
 20191      74746572 
 20191      795F6375 
 20191      745F656E 
 20191      6400
 20192              	.LASF350:
 20193 17e3 4E52465F 		.ascii	"NRF_POWER\000"
 20193      504F5745 
 20193      5200
 20194              	.LASF456:
 20195 17ed 6C6F6E67 		.ascii	"long double\000"
 20195      20646F75 
 20195      626C6500 
 20196              	.LASF403:
 20197 17f9 434F4D4D 		.ascii	"COMM_SET_POS\000"
 20197      5F534554 
 20197      5F504F53 
 20197      00
 20198              	.LASF90:
 20199 1806 72656761 		.ascii	"regarm_t\000"
 20199      726D5F74 
 20199      00
 20200              	.LASF32:
 20201 180f 6576656E 		.ascii	"eventmask_t\000"
 20201      746D6173 
 20201      6B5F7400 
 20202              	.LASF495:
 20203 181b 73616D70 		.ascii	"sample_len\000"
 20203      6C655F6C 
 20203      656E00
 20204              	.LASF561:
 20205 1826 666C6173 		.ascii	"flash_helper_jump_to_bootloader\000"
 20205      685F6865 
 20205      6C706572 
 20205      5F6A756D 
 20205      705F746F 
 20206              	.LASF328:
 20207 1846 766F6C74 		.ascii	"voltage2_end\000"
 20207      61676532 
 20207      5F656E64 
 20207      00
 20208              	.LASF317:
 20209 1853 4144435F 		.ascii	"ADC_CTRL_TYPE_DUTY\000"
 20209      4354524C 
 20209      5F545950 
 20209      455F4455 
 20209      545900
 20210              	.LASF12:
 20211 1866 6C6F6E67 		.ascii	"long unsigned int\000"
 20211      20756E73 
 20211      69676E65 
ARM GAS  /tmp/ccTQOGyd.s 			page 375


 20211      6420696E 
 20211      7400
 20212              	.LASF255:
 20213 1878 63635F72 		.ascii	"cc_ramp_step_max\000"
 20213      616D705F 
 20213      73746570 
 20213      5F6D6178 
 20213      00
 20214              	.LASF553:
 20215 1889 6D635F69 		.ascii	"mc_interface_get_watt_hours\000"
 20215      6E746572 
 20215      66616365 
 20215      5F676574 
 20215      5F776174 
 20216              	.LASF250:
 20217 18a5 705F7069 		.ascii	"p_pid_kd\000"
 20217      645F6B64 
 20217      00
 20218              	.LASF249:
 20219 18ae 705F7069 		.ascii	"p_pid_ki\000"
 20219      645F6B69 
 20219      00
 20220              	.LASF351:
 20221 18b7 4E52465F 		.ascii	"NRF_CRC_DISABLED\000"
 20221      4352435F 
 20221      44495341 
 20221      424C4544 
 20221      00
 20222              	.LASF248:
 20223 18c8 705F7069 		.ascii	"p_pid_kp\000"
 20223      645F6B70 
 20223      00
 20224              	.LASF555:
 20225 18d1 6D635F69 		.ascii	"mc_interface_get_tachometer_value\000"
 20225      6E746572 
 20225      66616365 
 20225      5F676574 
 20225      5F746163 
 20226              	.LASF373:
 20227 18f3 706F7765 		.ascii	"power\000"
 20227      7200
 20228              	.LASF270:
 20229 18f9 4150505F 		.ascii	"APP_NONE\000"
 20229      4E4F4E45 
 20229      00
 20230              	.LASF114:
 20231 1902 50574D5F 		.ascii	"PWM_MODE_SYNCHRONOUS\000"
 20231      4D4F4445 
 20231      5F53594E 
 20231      4348524F 
 20231      4E4F5553 
 20232              	.LASF265:
 20233 1917 6D5F626C 		.ascii	"m_bldc_f_sw_max\000"
 20233      64635F66 
 20233      5F73775F 
 20233      6D617800 
 20234              	.LASF156:
ARM GAS  /tmp/ccTQOGyd.s 			page 376


 20235 1927 64727638 		.ascii	"drv8301_oc_mode\000"
 20235      3330315F 
 20235      6F635F6D 
 20235      6F646500 
 20236              	.LASF241:
 20237 1937 666F635F 		.ascii	"foc_temp_comp\000"
 20237      74656D70 
 20237      5F636F6D 
 20237      7000
 20238              	.LASF325:
 20239 1945 766F6C74 		.ascii	"voltage_end\000"
 20239      6167655F 
 20239      656E6400 
 20240              	.LASF146:
 20241 1951 44495350 		.ascii	"DISP_POS_MODE_ENCODER_OBSERVER_ERROR\000"
 20241      5F504F53 
 20241      5F4D4F44 
 20241      455F454E 
 20241      434F4445 
 20242              	.LASF110:
 20243 1976 63686172 		.ascii	"char\000"
 20243      00
 20244              	.LASF478:
 20245 197b 636F6D6D 		.ascii	"commands_send_appconf\000"
 20245      616E6473 
 20245      5F73656E 
 20245      645F6170 
 20245      70636F6E 
 20246              	.LASF63:
 20247 1991 725F7175 		.ascii	"r_queue\000"
 20247      65756500 
 20248              	.LASF211:
 20249 1999 736C5F62 		.ascii	"sl_bemf_coupling_k\000"
 20249      656D665F 
 20249      636F7570 
 20249      6C696E67 
 20249      5F6B00
 20250              	.LASF542:
 20251 19ac 6D635F69 		.ascii	"mc_interface_temp_fet_filtered\000"
 20251      6E746572 
 20251      66616365 
 20251      5F74656D 
 20251      705F6665 
 20252              	.LASF194:
 20253 19cb 6C5F7465 		.ascii	"l_temp_accel_dec\000"
 20253      6D705F61 
 20253      6363656C 
 20253      5F646563 
 20253      00
 20254              	.LASF304:
 20255 19dc 72616D70 		.ascii	"ramp_time_pos\000"
 20255      5F74696D 
 20255      655F706F 
 20255      7300
 20256              	.LASF470:
 20257 19ea 726F746F 		.ascii	"rotor_pos\000"
 20257      725F706F 
ARM GAS  /tmp/ccTQOGyd.s 			page 377


 20257      7300
 20258              	.LASF369:
 20259 19f4 4E52465F 		.ascii	"NRF_RETR_DELAY_3750US\000"
 20259      52455452 
 20259      5F44454C 
 20259      41595F33 
 20259      37353055 
 20260              	.LASF488:
 20261 1a0a 6D696E5F 		.ascii	"min_rpm\000"
 20261      72706D00 
 20262              	.LASF537:
 20263 1a12 63684576 		.ascii	"chEvtSignal\000"
 20263      74536967 
 20263      6E616C00 
 20264              	.LASF274:
 20265 1a1e 4150505F 		.ascii	"APP_PPM_UART\000"
 20265      50504D5F 
 20265      55415254 
 20265      00
 20266              	.LASF192:
 20267 1a2b 6C5F7465 		.ascii	"l_temp_motor_start\000"
 20267      6D705F6D 
 20267      6F746F72 
 20267      5F737461 
 20267      727400
 20268              	.LASF594:
 20269 1a3e 63685468 		.ascii	"chThdGetSelfX\000"
 20269      64476574 
 20269      53656C66 
 20269      5800
 20270              	.LASF548:
 20271 1a4c 6D635F69 		.ascii	"mc_interface_read_reset_avg_iq\000"
 20271      6E746572 
 20271      66616365 
 20271      5F726561 
 20271      645F7265 
 20272              	.LASF552:
 20273 1a6b 6D635F69 		.ascii	"mc_interface_get_amp_hours_charged\000"
 20273      6E746572 
 20273      66616365 
 20273      5F676574 
 20273      5F616D70 
 20274              	.LASF517:
 20275 1a8e 62756666 		.ascii	"buffer_append_int32\000"
 20275      65725F61 
 20275      7070656E 
 20275      645F696E 
 20275      74333200 
 20276              	.LASF157:
 20277 1aa2 44454255 		.ascii	"DEBUG_SAMPLING_OFF\000"
 20277      475F5341 
 20277      4D504C49 
 20277      4E475F4F 
 20277      464600
 20278              	.LASF176:
 20279 1ab5 6C5F6375 		.ascii	"l_current_min\000"
 20279      7272656E 
ARM GAS  /tmp/ccTQOGyd.s 			page 378


 20279      745F6D69 
 20279      6E00
 20280              	.LASF471:
 20281 1ac3 62756666 		.ascii	"buffer\000"
 20281      657200
 20282              	.LASF277:
 20283 1aca 4150505F 		.ascii	"APP_NRF\000"
 20283      4E524600 
 20284              	.LASF272:
 20285 1ad2 4150505F 		.ascii	"APP_ADC\000"
 20285      41444300 
 20286              	.LASF134:
 20287 1ada 4641554C 		.ascii	"FAULT_CODE_UNDER_VOLTAGE\000"
 20287      545F434F 
 20287      44455F55 
 20287      4E444552 
 20287      5F564F4C 
 20288              	.LASF421:
 20289 1af3 434F4D4D 		.ascii	"COMM_DETECT_ENCODER\000"
 20289      5F444554 
 20289      4543545F 
 20289      454E434F 
 20289      44455200 
 20290              	.LASF409:
 20291 1b07 434F4D4D 		.ascii	"COMM_GET_MCCONF_DEFAULT\000"
 20291      5F474554 
 20291      5F4D4343 
 20291      4F4E465F 
 20291      44454641 
 20292              	.LASF398:
 20293 1b1f 434F4D4D 		.ascii	"COMM_GET_VALUES\000"
 20293      5F474554 
 20293      5F56414C 
 20293      55455300 
 20294              	.LASF213:
 20295 1b2f 68616C6C 		.ascii	"hall_sl_erpm\000"
 20295      5F736C5F 
 20295      6572706D 
 20295      00
 20296              	.LASF33:
 20297 1b3c 636E745F 		.ascii	"cnt_t\000"
 20297      7400
 20298              	.LASF592:
 20299 1b42 2F686F6D 		.ascii	"/home/taylor/Programming/VESC/firmware\000"
 20299      652F7461 
 20299      796C6F72 
 20299      2F50726F 
 20299      6772616D 
 20300              	.LASF464:
 20301 1b69 636F6D6D 		.ascii	"commands_set_send_func\000"
 20301      616E6473 
 20301      5F736574 
 20301      5F73656E 
 20301      645F6675 
 20302              	.LASF489:
 20303 1b80 64757479 		.ascii	"duty\000"
 20303      00
ARM GAS  /tmp/ccTQOGyd.s 			page 379


 20304              	.LASF323:
 20305 1b85 6164635F 		.ascii	"adc_control_type\000"
 20305      636F6E74 
 20305      726F6C5F 
 20305      74797065 
 20305      00
 20306              	.LASF132:
 20307 1b96 4641554C 		.ascii	"FAULT_CODE_NONE\000"
 20307      545F434F 
 20307      44455F4E 
 20307      4F4E4500 
 20308              	.LASF244:
 20309 1ba6 735F7069 		.ascii	"s_pid_ki\000"
 20309      645F6B69 
 20309      00
 20310              	.LASF163:
 20311 1baf 44454255 		.ascii	"DEBUG_SAMPLING_TRIGGER_FAULT_NOSEND\000"
 20311      475F5341 
 20311      4D504C49 
 20311      4E475F54 
 20311      52494747 
 20312              	.LASF243:
 20313 1bd3 735F7069 		.ascii	"s_pid_kp\000"
 20313      645F6B70 
 20313      00
 20314              	.LASF533:
 20315 1bdc 6D637077 		.ascii	"mcpwm_set_detect\000"
 20315      6D5F7365 
 20315      745F6465 
 20315      74656374 
 20315      00
 20316              	.LASF415:
 20317 1bed 434F4D4D 		.ascii	"COMM_PRINT\000"
 20317      5F505249 
 20317      4E5400
 20318              	.LASF393:
 20319 1bf8 6170705F 		.ascii	"app_configuration\000"
 20319      636F6E66 
 20319      69677572 
 20319      6174696F 
 20319      6E00
 20320              	.LASF454:
 20321 1c0a 464C4153 		.ascii	"FLASH_COMPLETE\000"
 20321      485F434F 
 20321      4D504C45 
 20321      544500
 20322              	.LASF203:
 20323 1c19 6C6F5F63 		.ascii	"lo_current_motor_max_now\000"
 20323      75727265 
 20323      6E745F6D 
 20323      6F746F72 
 20323      5F6D6178 
 20324              	.LASF302:
 20325 1c32 7468726F 		.ascii	"throttle_exp_brake\000"
 20325      74746C65 
 20325      5F657870 
 20325      5F627261 
ARM GAS  /tmp/ccTQOGyd.s 			page 380


 20325      6B6500
 20326              	.LASF566:
 20327 1c45 636F6D6D 		.ascii	"comm_can_send_buffer\000"
 20327      5F63616E 
 20327      5F73656E 
 20327      645F6275 
 20327      66666572 
 20328              	.LASF343:
 20329 1c5a 4E52465F 		.ascii	"NRF_SPEED_1M\000"
 20329      53504545 
 20329      445F314D 
 20329      00
 20330              	.LASF556:
 20331 1c67 6D635F69 		.ascii	"mc_interface_get_tachometer_abs_value\000"
 20331      6E746572 
 20331      66616365 
 20331      5F676574 
 20331      5F746163 
 20332              	.LASF469:
 20333 1c8d 636F6D6D 		.ascii	"commands_send_rotor_pos\000"
 20333      616E6473 
 20333      5F73656E 
 20333      645F726F 
 20333      746F725F 
 20334              	.LASF230:
 20335 1ca5 666F635F 		.ascii	"foc_openloop_rpm\000"
 20335      6F70656E 
 20335      6C6F6F70 
 20335      5F72706D 
 20335      00
 20336              	.LASF234:
 20337 1cb6 666F635F 		.ascii	"foc_sl_d_current_factor\000"
 20337      736C5F64 
 20337      5F637572 
 20337      72656E74 
 20337      5F666163 
 20338              	.LASF227:
 20339 1cce 666F635F 		.ascii	"foc_pll_ki\000"
 20339      706C6C5F 
 20339      6B6900
 20340              	.LASF226:
 20341 1cd9 666F635F 		.ascii	"foc_pll_kp\000"
 20341      706C6C5F 
 20341      6B7000
 20342              	.LASF278:
 20343 1ce4 4150505F 		.ascii	"APP_CUSTOM\000"
 20343      43555354 
 20343      4F4D00
 20344              	.LASF560:
 20345 1cef 666C6173 		.ascii	"flash_helper_erase_new_app\000"
 20345      685F6865 
 20345      6C706572 
 20345      5F657261 
 20345      73655F6E 
 20346              	.LASF511:
 20347 1d0a 64697370 		.ascii	"display_position_mode\000"
 20347      6C61795F 
ARM GAS  /tmp/ccTQOGyd.s 			page 381


 20347      706F7369 
 20347      74696F6E 
 20347      5F6D6F64 
 20348              	.LASF525:
 20349 1d20 6D637077 		.ascii	"mcpwm_foc_measure_res_ind\000"
 20349      6D5F666F 
 20349      635F6D65 
 20349      61737572 
 20349      655F7265 
 20350              	.LASF160:
 20351 1d3a 44454255 		.ascii	"DEBUG_SAMPLING_TRIGGER_START\000"
 20351      475F5341 
 20351      4D504C49 
 20351      4E475F54 
 20351      52494747 
 20352              	.LASF493:
 20353 1d57 72617469 		.ascii	"ratio\000"
 20353      6F00
 20354              	.LASF588:
 20355 1d5d 6D635F69 		.ascii	"mc_interface_release_motor\000"
 20355      6E746572 
 20355      66616365 
 20355      5F72656C 
 20355      65617365 
 20356              	.LASF69:
 20357 1d78 76746675 		.ascii	"vtfunc_t\000"
 20357      6E635F74 
 20357      00
 20358              	.LASF419:
 20359 1d81 434F4D4D 		.ascii	"COMM_DETECT_MOTOR_R_L\000"
 20359      5F444554 
 20359      4543545F 
 20359      4D4F544F 
 20359      525F525F 
 20360              	.LASF344:
 20361 1d97 4E52465F 		.ascii	"NRF_SPEED_2M\000"
 20361      53504545 
 20361      445F324D 
 20361      00
 20362              	.LASF531:
 20363 1da4 62756666 		.ascii	"buffer_get_uint16\000"
 20363      65725F67 
 20363      65745F75 
 20363      696E7431 
 20363      3600
 20364              	.LASF98:
 20365 1db6 77746F62 		.ascii	"wtobjp\000"
 20365      6A7000
 20366              	.LASF273:
 20367 1dbd 4150505F 		.ascii	"APP_UART\000"
 20367      55415254 
 20367      00
 20368              	.LASF153:
 20369 1dc6 44525638 		.ascii	"DRV8301_OC_LATCH_SHUTDOWN\000"
 20369      3330315F 
 20369      4F435F4C 
 20369      41544348 
ARM GAS  /tmp/ccTQOGyd.s 			page 382


 20369      5F534855 
 20370              	.LASF53:
 20371 1de0 705F7265 		.ascii	"p_realprio\000"
 20371      616C7072 
 20371      696F00
 20372              	.LASF275:
 20373 1deb 4150505F 		.ascii	"APP_ADC_UART\000"
 20373      4144435F 
 20373      55415254 
 20373      00
 20374              	.LASF429:
 20375 1df8 434F4D4D 		.ascii	"COMM_SET_CHUCK_DATA\000"
 20375      5F534554 
 20375      5F434855 
 20375      434B5F44 
 20375      41544100 
 20376              	.LASF101:
 20377 1e0c 77746D74 		.ascii	"wtmtxp\000"
 20377      787000
 20378              	.LASF131:
 20379 1e13 6D635F6D 		.ascii	"mc_motor_type\000"
 20379      6F746F72 
 20379      5F747970 
 20379      6500
 20380              	.LASF331:
 20381 1e21 7265765F 		.ascii	"rev_button_inverted\000"
 20381      62757474 
 20381      6F6E5F69 
 20381      6E766572 
 20381      74656400 
 20382              	.LASF158:
 20383 1e35 44454255 		.ascii	"DEBUG_SAMPLING_NOW\000"
 20383      475F5341 
 20383      4D504C49 
 20383      4E475F4E 
 20383      4F5700
 20384              	.LASF455:
 20385 1e48 646F7562 		.ascii	"double\000"
 20385      6C6500
 20386              	.LASF411:
 20387 1e4f 434F4D4D 		.ascii	"COMM_GET_APPCONF\000"
 20387      5F474554 
 20387      5F415050 
 20387      434F4E46 
 20387      00
 20388              	.LASF586:
 20389 1e60 6D635F69 		.ascii	"mc_interface_set_pid_pos\000"
 20389      6E746572 
 20389      66616365 
 20389      5F736574 
 20389      5F706964 
 20390              	.LASF193:
 20391 1e79 6C5F7465 		.ascii	"l_temp_motor_end\000"
 20391      6D705F6D 
 20391      6F746F72 
 20391      5F656E64 
 20391      00
ARM GAS  /tmp/ccTQOGyd.s 			page 383


 20392              	.LASF431:
 20393 1e8a 434F4D4D 		.ascii	"COMM_NRF_START_PAIRING\000"
 20393      5F4E5246 
 20393      5F535441 
 20393      52545F50 
 20393      41495249 
 20394              	.LASF242:
 20395 1ea1 666F635F 		.ascii	"foc_temp_comp_base_temp\000"
 20395      74656D70 
 20395      5F636F6D 
 20395      705F6261 
 20395      73655F74 
 20396              	.LASF174:
 20397 1eb9 73656E73 		.ascii	"sensor_mode\000"
 20397      6F725F6D 
 20397      6F646500 
 20398              	.LASF536:
 20399 1ec5 656E636F 		.ascii	"encoder_is_configured\000"
 20399      6465725F 
 20399      69735F63 
 20399      6F6E6669 
 20399      67757265 
 20400              	.LASF120:
 20401 1edb 53454E53 		.ascii	"SENSOR_MODE_SENSORLESS\000"
 20401      4F525F4D 
 20401      4F44455F 
 20401      53454E53 
 20401      4F524C45 
 20402              	.LASF372:
 20403 1ef2 73706565 		.ascii	"speed\000"
 20403      6400
 20404              	.LASF62:
 20405 1ef8 63685F72 		.ascii	"ch_ready_list\000"
 20405      65616479 
 20405      5F6C6973 
 20405      7400
 20406              	.LASF9:
 20407 1f06 5F5F696E 		.ascii	"__int32_t\000"
 20407      7433325F 
 20407      7400
 20408              	.LASF168:
 20409 1f10 43414E5F 		.ascii	"CAN_BAUD_500K\000"
 20409      42415544 
 20409      5F353030 
 20409      4B00
 20410              	.LASF11:
 20411 1f1e 5F5F7569 		.ascii	"__uint32_t\000"
 20411      6E743332 
 20411      5F7400
 20412              	.LASF81:
 20413 1f29 63685F73 		.ascii	"ch_system_debug\000"
 20413      79737465 
 20413      6D5F6465 
 20413      62756700 
 20414              	.LASF462:
 20415 1f39 64617461 		.ascii	"data\000"
 20415      00
ARM GAS  /tmp/ccTQOGyd.s 			page 384


 20416              	.LASF558:
 20417 1f3e 62756666 		.ascii	"buffer_get_uint32\000"
 20417      65725F67 
 20417      65745F75 
 20417      696E7433 
 20417      3200
 20418              	.LASF477:
 20419 1f50 636F6D6D 		.ascii	"commands_send_app_data\000"
 20419      616E6473 
 20419      5F73656E 
 20419      645F6170 
 20419      705F6461 
 20420              	.LASF341:
 20421 1f67 6368756B 		.ascii	"chuk_config\000"
 20421      5F636F6E 
 20421      66696700 
 20422              	.LASF309:
 20423 1f73 4144435F 		.ascii	"ADC_CTRL_TYPE_NONE\000"
 20423      4354524C 
 20423      5F545950 
 20423      455F4E4F 
 20423      4E4500
 20424              	.LASF162:
 20425 1f86 44454255 		.ascii	"DEBUG_SAMPLING_TRIGGER_START_NOSEND\000"
 20425      475F5341 
 20425      4D504C49 
 20425      4E475F54 
 20425      52494747 
 20426              	.LASF264:
 20427 1faa 6D5F626C 		.ascii	"m_bldc_f_sw_min\000"
 20427      64635F66 
 20427      5F73775F 
 20427      6D696E00 
 20428              	.LASF482:
 20429 1fba 6D63636F 		.ascii	"mcconf\000"
 20429      6E6600
 20430              	.LASF112:
 20431 1fc1 6D757465 		.ascii	"mutex_t\000"
 20431      785F7400 
 20432              	.LASF562:
 20433 1fc9 656E636F 		.ascii	"encoder_cumulative_counts\000"
 20433      6465725F 
 20433      63756D75 
 20433      6C617469 
 20433      76655F63 
 20434              	.LASF218:
 20435 1fe3 666F635F 		.ascii	"foc_encoder_offset\000"
 20435      656E636F 
 20435      6465725F 
 20435      6F666673 
 20435      657400
 20436              	.LASF522:
 20437 1ff6 62756666 		.ascii	"buffer_append_float32_auto\000"
 20437      65725F61 
 20437      7070656E 
 20437      645F666C 
 20437      6F617433 
ARM GAS  /tmp/ccTQOGyd.s 			page 385


 20438              	.LASF51:
 20439 2011 705F6570 		.ascii	"p_epending\000"
 20439      656E6469 
 20439      6E6700
 20440              	.LASF231:
 20441 201c 666F635F 		.ascii	"foc_sl_openloop_hyst\000"
 20441      736C5F6F 
 20441      70656E6C 
 20441      6F6F705F 
 20441      68797374 
 20442              	.LASF300:
 20443 2031 73616665 		.ascii	"safe_start\000"
 20443      5F737461 
 20443      727400
 20444              	.LASF426:
 20445 203c 434F4D4D 		.ascii	"COMM_GET_DECODED_ADC\000"
 20445      5F474554 
 20445      5F444543 
 20445      4F444544 
 20445      5F414443 
 20446              	.LASF326:
 20447 2051 766F6C74 		.ascii	"voltage_center\000"
 20447      6167655F 
 20447      63656E74 
 20447      657200
 20448              	.LASF410:
 20449 2060 434F4D4D 		.ascii	"COMM_SET_APPCONF\000"
 20449      5F534554 
 20449      5F415050 
 20449      434F4E46 
 20449      00
 20450              	.LASF481:
 20451 2071 636F6D6D 		.ascii	"commands_process_packet\000"
 20451      616E6473 
 20451      5F70726F 
 20451      63657373 
 20451      5F706163 
 20452              	.LASF289:
 20453 2089 50504D5F 		.ascii	"PPM_CTRL_TYPE_DUTY_NOREV\000"
 20453      4354524C 
 20453      5F545950 
 20453      455F4455 
 20453      54595F4E 
 20454              	.LASF167:
 20455 20a2 43414E5F 		.ascii	"CAN_BAUD_250K\000"
 20455      42415544 
 20455      5F323530 
 20455      4B00
 20456              	.LASF201:
 20457 20b0 6C6F5F69 		.ascii	"lo_in_current_max\000"
 20457      6E5F6375 
 20457      7272656E 
 20457      745F6D61 
 20457      7800
 20458              	.LASF418:
 20459 20c2 434F4D4D 		.ascii	"COMM_DETECT_MOTOR_PARAM\000"
 20459      5F444554 
ARM GAS  /tmp/ccTQOGyd.s 			page 386


 20459      4543545F 
 20459      4D4F544F 
 20459      525F5041 
 20460              	.LASF577:
 20461 20da 636F6E66 		.ascii	"conf_general_store_app_configuration\000"
 20461      5F67656E 
 20461      6572616C 
 20461      5F73746F 
 20461      72655F61 
 20462              	.LASF483:
 20463 20ff 6D63636F 		.ascii	"mcconf_old\000"
 20463      6E665F6F 
 20463      6C6400
 20464              	.LASF64:
 20465 210a 725F7072 		.ascii	"r_prio\000"
 20465      696F00
 20466              	.LASF235:
 20467 2111 666F635F 		.ascii	"foc_sensor_mode\000"
 20467      73656E73 
 20467      6F725F6D 
 20467      6F646500 
 20468              	.LASF512:
 20469 2121 49544D5F 		.ascii	"ITM_RxBuffer\000"
 20469      52784275 
 20469      66666572 
 20469      00
 20470              	.LASF126:
 20471 212e 464F435F 		.ascii	"FOC_SENSOR_MODE_HALL\000"
 20471      53454E53 
 20471      4F525F4D 
 20471      4F44455F 
 20471      48414C4C 
 20472              	.LASF15:
 20473 2143 6C6F6E67 		.ascii	"long long unsigned int\000"
 20473      206C6F6E 
 20473      6720756E 
 20473      7369676E 
 20473      65642069 
 20474              	.LASF94:
 20475 215a 6F666673 		.ascii	"offset\000"
 20475      657400
 20476              	.LASF217:
 20477 2161 666F635F 		.ascii	"foc_dt_us\000"
 20477      64745F75 
 20477      7300
 20478              	.LASF593:
 20479 216b 63685265 		.ascii	"chRegSetThreadName\000"
 20479      67536574 
 20479      54687265 
 20479      61644E61 
 20479      6D6500
 20480              	.LASF240:
 20481 217e 666F635F 		.ascii	"foc_sat_comp\000"
 20481      7361745F 
 20481      636F6D70 
 20481      00
 20482              	.LASF88:
ARM GAS  /tmp/ccTQOGyd.s 			page 387


 20483 218b 69646C65 		.ascii	"idle_thread_wa\000"
 20483      5F746872 
 20483      6561645F 
 20483      776100
 20484              	.LASF75:
 20485 219a 76745F66 		.ascii	"vt_func\000"
 20485      756E6300 
 20486              	.LASF539:
 20487 21a2 6D635F69 		.ascii	"mc_interface_set_brake_current\000"
 20487      6E746572 
 20487      66616365 
 20487      5F736574 
 20487      5F627261 
 20488              	.LASF401:
 20489 21c1 434F4D4D 		.ascii	"COMM_SET_CURRENT_BRAKE\000"
 20489      5F534554 
 20489      5F435552 
 20489      52454E54 
 20489      5F425241 
 20490              	.LASF71:
 20491 21d8 63685F76 		.ascii	"ch_virtual_timer\000"
 20491      69727475 
 20491      616C5F74 
 20491      696D6572 
 20491      00
 20492              	.LASF44:
 20493 21e9 705F666C 		.ascii	"p_flags\000"
 20493      61677300 
 20494              	.LASF102:
 20495 21f1 65776D61 		.ascii	"ewmask\000"
 20495      736B00
 20496              	.LASF535:
 20497 21f8 6D635F69 		.ascii	"mc_interface_get_configuration\000"
 20497      6E746572 
 20497      66616365 
 20497      5F676574 
 20497      5F636F6E 
 20498              	.LASF402:
 20499 2217 434F4D4D 		.ascii	"COMM_SET_RPM\000"
 20499      5F534554 
 20499      5F52504D 
 20499      00
 20500              	.LASF582:
 20501 2224 6D635F69 		.ascii	"mc_interface_set_handbrake\000"
 20501      6E746572 
 20501      66616365 
 20501      5F736574 
 20501      5F68616E 
 20502              	.LASF366:
 20503 223f 4E52465F 		.ascii	"NRF_RETR_DELAY_3000US\000"
 20503      52455452 
 20503      5F44454C 
 20503      41595F33 
 20503      30303055 
 20504              	.LASF52:
 20505 2255 705F6D74 		.ascii	"p_mtxlist\000"
 20505      786C6973 
ARM GAS  /tmp/ccTQOGyd.s 			page 388


 20505      7400
 20506              	.LASF210:
 20507 225f 736C5F63 		.ascii	"sl_cycle_int_rpm_br\000"
 20507      79636C65 
 20507      5F696E74 
 20507      5F72706D 
 20507      5F627200 
 20508              	.LASF27:
 20509 2273 74737461 		.ascii	"tstate_t\000"
 20509      74655F74 
 20509      00
 20510              	.LASF500:
 20511 227c 73656E64 		.ascii	"send_buffer\000"
 20511      5F627566 
 20511      66657200 
 20512              	.LASF288:
 20513 2288 50504D5F 		.ascii	"PPM_CTRL_TYPE_DUTY\000"
 20513      4354524C 
 20513      5F545950 
 20513      455F4455 
 20513      545900
 20514              	.LASF266:
 20515 229b 6D5F6463 		.ascii	"m_dc_f_sw\000"
 20515      5F665F73 
 20515      7700
 20516              	.LASF239:
 20517 22a5 666F635F 		.ascii	"foc_sample_high_current\000"
 20517      73616D70 
 20517      6C655F68 
 20517      6967685F 
 20517      63757272 
 20518              	.LASF119:
 20519 22bd 6D635F63 		.ascii	"mc_comm_mode\000"
 20519      6F6D6D5F 
 20519      6D6F6465 
 20519      00
 20520              	.LASF42:
 20521 22ca 705F6E61 		.ascii	"p_name\000"
 20521      6D6500
 20522              	.LASF451:
 20523 22d1 464C4153 		.ascii	"FLASH_ERROR_WRP\000"
 20523      485F4552 
 20523      524F525F 
 20523      57525000 
 20524              	.LASF362:
 20525 22e1 4E52465F 		.ascii	"NRF_RETR_DELAY_2000US\000"
 20525      52455452 
 20525      5F44454C 
 20525      41595F32 
 20525      30303055 
 20526              	.LASF459:
 20527 22f7 5F5F6170 		.ascii	"__ap\000"
 20527      00
 20528              	.LASF321:
 20529 22fc 4144435F 		.ascii	"ADC_CTRL_TYPE_PID_REV_CENTER\000"
 20529      4354524C 
 20529      5F545950 
ARM GAS  /tmp/ccTQOGyd.s 			page 389


 20529      455F5049 
 20529      445F5245 
 20530              	.LASF575:
 20531 2319 6170705F 		.ascii	"app_get_configuration\000"
 20531      6765745F 
 20531      636F6E66 
 20531      69677572 
 20531      6174696F 
 20532              	.LASF282:
 20533 232f 5448525F 		.ascii	"THR_EXP_POLY\000"
 20533      4558505F 
 20533      504F4C59 
 20533      00
 20534              	.LASF147:
 20535 233c 64697370 		.ascii	"disp_pos_mode\000"
 20535      5F706F73 
 20535      5F6D6F64 
 20535      6500
 20536              	.LASF461:
 20537 234a 6E616D65 		.ascii	"name\000"
 20537      00
 20538              	.LASF77:
 20539 234f 76697274 		.ascii	"virtual_timers_list_t\000"
 20539      75616C5F 
 20539      74696D65 
 20539      72735F6C 
 20539      6973745F 
 20540              	.LASF567:
 20541 2365 6170705F 		.ascii	"app_nunchuk_get_decoded_chuk\000"
 20541      6E756E63 
 20541      68756B5F 
 20541      6765745F 
 20541      6465636F 
 20542              	.LASF113:
 20543 2382 50574D5F 		.ascii	"PWM_MODE_NONSYNCHRONOUS_HISW\000"
 20543      4D4F4445 
 20543      5F4E4F4E 
 20543      53594E43 
 20543      48524F4E 
 20544              	.LASF155:
 20545 239f 44525638 		.ascii	"DRV8301_OC_DISABLED\000"
 20545      3330315F 
 20545      4F435F44 
 20545      49534142 
 20545      4C454400 
 20546              	.LASF551:
 20547 23b3 6D635F69 		.ascii	"mc_interface_get_amp_hours\000"
 20547      6E746572 
 20547      66616365 
 20547      5F676574 
 20547      5F616D70 
 20548              	.LASF430:
 20549 23ce 434F4D4D 		.ascii	"COMM_CUSTOM_APP_DATA\000"
 20549      5F435553 
 20549      544F4D5F 
 20549      4150505F 
 20549      44415441 
ARM GAS  /tmp/ccTQOGyd.s 			page 390


 20550              	.LASF358:
 20551 23e3 4E52465F 		.ascii	"NRF_RETR_DELAY_1000US\000"
 20551      52455452 
 20551      5F44454C 
 20551      41595F31 
 20551      30303055 
 20552              	.LASF416:
 20553 23f9 434F4D4D 		.ascii	"COMM_ROTOR_POSITION\000"
 20553      5F524F54 
 20553      4F525F50 
 20553      4F534954 
 20553      494F4E00 
 20554              	.LASF104:
 20555 240d 735F7175 		.ascii	"s_queue\000"
 20555      65756500 
 20556              	.LASF329:
 20557 2415 7573655F 		.ascii	"use_filter\000"
 20557      66696C74 
 20557      657200
 20558              	.LASF139:
 20559 2420 6D635F66 		.ascii	"mc_fault_code\000"
 20559      61756C74 
 20559      5F636F64 
 20559      6500
 20560              	.LASF165:
 20561 242e 64656275 		.ascii	"debug_sampling_mode\000"
 20561      675F7361 
 20561      6D706C69 
 20561      6E675F6D 
 20561      6F646500 
 20562              	.LASF257:
 20563 2442 6D5F6475 		.ascii	"m_duty_ramp_step\000"
 20563      74795F72 
 20563      616D705F 
 20563      73746570 
 20563      00
 20564              	.LASF269:
 20565 2453 6D635F63 		.ascii	"mc_configuration\000"
 20565      6F6E6669 
 20565      67757261 
 20565      74696F6E 
 20565      00
 20566              	.LASF367:
 20567 2464 4E52465F 		.ascii	"NRF_RETR_DELAY_3250US\000"
 20567      52455452 
 20567      5F44454C 
 20567      41595F33 
 20567      32353055 
 20568              	.LASF13:
 20569 247a 6C6F6E67 		.ascii	"long long int\000"
 20569      206C6F6E 
 20569      6720696E 
 20569      7400
 20570              	.LASF414:
 20571 2488 434F4D4D 		.ascii	"COMM_TERMINAL_CMD\000"
 20571      5F544552 
 20571      4D494E41 
ARM GAS  /tmp/ccTQOGyd.s 			page 391


 20571      4C5F434D 
 20571      4400
 20572              	.LASF310:
 20573 249a 4144435F 		.ascii	"ADC_CTRL_TYPE_CURRENT\000"
 20573      4354524C 
 20573      5F545950 
 20573      455F4355 
 20573      5252454E 
 20574              	.LASF198:
 20575 24b0 6C5F7761 		.ascii	"l_watt_min\000"
 20575      74745F6D 
 20575      696E00
 20576              	.LASF352:
 20577 24bb 4E52465F 		.ascii	"NRF_CRC_1B\000"
 20577      4352435F 
 20577      314200
 20578              	.LASF184:
 20579 24c6 6C5F6D61 		.ascii	"l_max_erpm_fbrake_cc\000"
 20579      785F6572 
 20579      706D5F66 
 20579      6272616B 
 20579      655F6363 
 20580              	.LASF363:
 20581 24db 4E52465F 		.ascii	"NRF_RETR_DELAY_2250US\000"
 20581      52455452 
 20581      5F44454C 
 20581      41595F32 
 20581      32353055 
 20582              	.LASF412:
 20583 24f1 434F4D4D 		.ascii	"COMM_GET_APPCONF_DEFAULT\000"
 20583      5F474554 
 20583      5F415050 
 20583      434F4E46 
 20583      5F444546 
 20584              	.LASF294:
 20585 250a 7069645F 		.ascii	"pid_max_erpm\000"
 20585      6D61785F 
 20585      6572706D 
 20585      00
 20586              	.LASF530:
 20587 2517 6D637077 		.ascii	"mcpwm_foc_encoder_detect\000"
 20587      6D5F666F 
 20587      635F656E 
 20587      636F6465 
 20587      725F6465 
 20588              	.LASF320:
 20589 2530 4144435F 		.ascii	"ADC_CTRL_TYPE_PID\000"
 20589      4354524C 
 20589      5F545950 
 20589      455F5049 
 20589      4400
 20590              	.LASF494:
 20591 2542 696E7665 		.ascii	"inverted\000"
 20591      72746564 
 20591      00
 20592              	.LASF375:
 20593 254b 72657472 		.ascii	"retry_delay\000"
ARM GAS  /tmp/ccTQOGyd.s 			page 392


 20593      795F6465 
 20593      6C617900 
 20594              	.LASF541:
 20595 2557 6D635F69 		.ascii	"mc_interface_set_duty\000"
 20595      6E746572 
 20595      66616365 
 20595      5F736574 
 20595      5F647574 
 20596              	.LASF386:
 20597 256d 63616E5F 		.ascii	"can_baud_rate\000"
 20597      62617564 
 20597      5F726174 
 20597      6500
 20598              	.LASF353:
 20599 257b 4E52465F 		.ascii	"NRF_CRC_2B\000"
 20599      4352435F 
 20599      324200
 20600              	.LASF579:
 20601 2586 74696D65 		.ascii	"timeout_configure\000"
 20601      6F75745F 
 20601      636F6E66 
 20601      69677572 
 20601      6500
 20602              	.LASF359:
 20603 2598 4E52465F 		.ascii	"NRF_RETR_DELAY_1250US\000"
 20603      52455452 
 20603      5F44454C 
 20603      41595F31 
 20603      32353055 
 20604              	.LASF177:
 20605 25ae 6C5F696E 		.ascii	"l_in_current_max\000"
 20605      5F637572 
 20605      72656E74 
 20605      5F6D6178 
 20605      00
 20606              	.LASF41:
 20607 25bf 705F6F6C 		.ascii	"p_older\000"
 20607      64657200 
 20608              	.LASF385:
 20609 25c7 73656E64 		.ascii	"send_can_status_rate_hz\000"
 20609      5F63616E 
 20609      5F737461 
 20609      7475735F 
 20609      72617465 
 20610              	.LASF527:
 20611 25df 62756666 		.ascii	"buffer_get_float32\000"
 20611      65725F67 
 20611      65745F66 
 20611      6C6F6174 
 20611      333200
 20612              	.LASF55:
 20613 25f2 74687265 		.ascii	"thread_reference_t\000"
 20613      61645F72 
 20613      65666572 
 20613      656E6365 
 20613      5F7400
 20614              	.LASF251:
ARM GAS  /tmp/ccTQOGyd.s 			page 393


 20615 2605 705F7069 		.ascii	"p_pid_ang_div\000"
 20615      645F616E 
 20615      675F6469 
 20615      7600
 20616              	.LASF381:
 20617 2613 636F6E74 		.ascii	"controller_id\000"
 20617      726F6C6C 
 20617      65725F69 
 20617      6400
 20618              	.LASF232:
 20619 2621 666F635F 		.ascii	"foc_sl_openloop_time\000"
 20619      736C5F6F 
 20619      70656E6C 
 20619      6F6F705F 
 20619      74696D65 
 20620              	.LASF95:
 20621 2636 746D5F63 		.ascii	"tm_calibration_t\000"
 20621      616C6962 
 20621      72617469 
 20621      6F6E5F74 
 20621      00
 20622              	.LASF2:
 20623 2647 5F5F696E 		.ascii	"__int8_t\000"
 20623      74385F74 
 20623      00
 20624              	.LASF202:
 20625 2650 6C6F5F69 		.ascii	"lo_in_current_min\000"
 20625      6E5F6375 
 20625      7272656E 
 20625      745F6D69 
 20625      6E00
 20626              	.LASF296:
 20627 2662 70756C73 		.ascii	"pulse_start\000"
 20627      655F7374 
 20627      61727400 
 20628              	.LASF554:
 20629 266e 6D635F69 		.ascii	"mc_interface_get_watt_hours_charged\000"
 20629      6E746572 
 20629      66616365 
 20629      5F676574 
 20629      5F776174 
 20630              	.LASF195:
 20631 2692 6C5F6D69 		.ascii	"l_min_duty\000"
 20631      6E5F6475 
 20631      747900
 20632              	.LASF286:
 20633 269d 50504D5F 		.ascii	"PPM_CTRL_TYPE_CURRENT_NOREV\000"
 20633      4354524C 
 20633      5F545950 
 20633      455F4355 
 20633      5252454E 
 20634              	.LASF151:
 20635 26b9 73656E73 		.ascii	"sensor_port_mode\000"
 20635      6F725F70 
 20635      6F72745F 
 20635      6D6F6465 
 20635      00
ARM GAS  /tmp/ccTQOGyd.s 			page 394


 20636              	.LASF569:
 20637 26ca 6170705F 		.ascii	"app_adc_get_voltage\000"
 20637      6164635F 
 20637      6765745F 
 20637      766F6C74 
 20637      61676500 
 20638              	.LASF127:
 20639 26de 6D635F66 		.ascii	"mc_foc_sensor_mode\000"
 20639      6F635F73 
 20639      656E736F 
 20639      725F6D6F 
 20639      646500
 20640              	.LASF16:
 20641 26f1 756E7369 		.ascii	"unsigned int\000"
 20641      676E6564 
 20641      20696E74 
 20641      00
 20642              	.LASF514:
 20643 26fe 63684576 		.ascii	"chEvtWaitAny\000"
 20643      74576169 
 20643      74416E79 
 20643      00
 20644              	.LASF316:
 20645 270b 4144435F 		.ascii	"ADC_CTRL_TYPE_CURRENT_NOREV_BRAKE_ADC\000"
 20645      4354524C 
 20645      5F545950 
 20645      455F4355 
 20645      5252454E 
 20646              	.LASF6:
 20647 2731 73686F72 		.ascii	"short int\000"
 20647      7420696E 
 20647      7400
 20648              	.LASF238:
 20649 273b 666F635F 		.ascii	"foc_sample_v0_v7\000"
 20649      73616D70 
 20649      6C655F76 
 20649      305F7637 
 20649      00
 20650              	.LASF496:
 20651 274c 64656369 		.ascii	"decimation\000"
 20651      6D617469 
 20651      6F6E00
 20652              	.LASF516:
 20653 2757 636F6D6D 		.ascii	"commands_send_packet\000"
 20653      616E6473 
 20653      5F73656E 
 20653      645F7061 
 20653      636B6574 
 20654              	.LASF128:
 20655 276c 4D4F544F 		.ascii	"MOTOR_TYPE_BLDC\000"
 20655      525F5459 
 20655      50455F42 
 20655      4C444300 
 20656              	.LASF572:
 20657 277c 6170705F 		.ascii	"app_ppm_get_decoded_level\000"
 20657      70706D5F 
 20657      6765745F 
ARM GAS  /tmp/ccTQOGyd.s 			page 395


 20657      6465636F 
 20657      6465645F 
 20658              	.LASF458:
 20659 2796 5F5F7661 		.ascii	"__va_list\000"
 20659      5F6C6973 
 20659      7400
 20660              	.LASF43:
 20661 27a0 705F7374 		.ascii	"p_state\000"
 20661      61746500 
 20662              	.LASF58:
 20663 27a8 63685F74 		.ascii	"ch_threads_list\000"
 20663      68726561 
 20663      64735F6C 
 20663      69737400 
 20664              	.LASF118:
 20665 27b8 434F4D4D 		.ascii	"COMM_MODE_DELAY\000"
 20665      5F4D4F44 
 20665      455F4445 
 20665      4C415900 
 20666              	.LASF259:
 20667 27c8 6D5F656E 		.ascii	"m_encoder_counts\000"
 20667      636F6465 
 20667      725F636F 
 20667      756E7473 
 20667      00
 20668              		.ident	"GCC: (4.8.4-1+11-1) 4.8.4 20141219 (release)"
ARM GAS  /tmp/ccTQOGyd.s 			page 396


DEFINED SYMBOLS
                            *ABS*:0000000000000000 commands.c
     /tmp/ccTQOGyd.s:21     .text.detect_thread:0000000000000000 $t
     /tmp/ccTQOGyd.s:26     .text.detect_thread:0000000000000000 detect_thread
     /tmp/ccTQOGyd.s:205    .text.detect_thread:00000000000000d4 $d
     /tmp/ccTQOGyd.s:224    .text.commands_init:0000000000000000 $t
     /tmp/ccTQOGyd.s:230    .text.commands_init:0000000000000000 commands_init
     /tmp/ccTQOGyd.s:257    .text.commands_init:000000000000001c $d
     /tmp/ccTQOGyd.s:263    .text.commands_set_send_func:0000000000000000 $t
     /tmp/ccTQOGyd.s:269    .text.commands_set_send_func:0000000000000000 commands_set_send_func
     /tmp/ccTQOGyd.s:284    .text.commands_set_send_func:0000000000000008 $d
     /tmp/ccTQOGyd.s:289    .text.commands_send_packet:0000000000000000 $t
     /tmp/ccTQOGyd.s:295    .text.commands_send_packet:0000000000000000 commands_send_packet
     /tmp/ccTQOGyd.s:318    .text.commands_send_packet:000000000000000c $d
     /tmp/ccTQOGyd.s:323    .text.commands_printf:0000000000000000 $t
     /tmp/ccTQOGyd.s:329    .text.commands_printf:0000000000000000 commands_printf
     /tmp/ccTQOGyd.s:400    .text.commands_printf:000000000000003c $d
     /tmp/ccTQOGyd.s:406    .text.commands_send_rotor_pos:0000000000000000 $t
     /tmp/ccTQOGyd.s:412    .text.commands_send_rotor_pos:0000000000000000 commands_send_rotor_pos
     /tmp/ccTQOGyd.s:478    .text.commands_send_rotor_pos:0000000000000038 $d
     /tmp/ccTQOGyd.s:484    .text.commands_send_rotor_pos_counts:0000000000000000 $t
     /tmp/ccTQOGyd.s:490    .text.commands_send_rotor_pos_counts:0000000000000000 commands_send_rotor_pos_counts
     /tmp/ccTQOGyd.s:549    .text.commands_send_rotor_pos_counts:000000000000002c $d
     /tmp/ccTQOGyd.s:554    .text.commands_send_experiment_samples:0000000000000000 $t
     /tmp/ccTQOGyd.s:560    .text.commands_send_experiment_samples:0000000000000000 commands_send_experiment_samples
     /tmp/ccTQOGyd.s:671    .text.commands_send_experiment_samples:0000000000000070 $d
     /tmp/ccTQOGyd.s:677    .text.commands_get_disp_pos_mode:0000000000000000 $t
     /tmp/ccTQOGyd.s:683    .text.commands_get_disp_pos_mode:0000000000000000 commands_get_disp_pos_mode
     /tmp/ccTQOGyd.s:698    .text.commands_get_disp_pos_mode:0000000000000008 $d
     /tmp/ccTQOGyd.s:703    .text.commands_set_app_data_handler:0000000000000000 $t
     /tmp/ccTQOGyd.s:709    .text.commands_set_app_data_handler:0000000000000000 commands_set_app_data_handler
     /tmp/ccTQOGyd.s:724    .text.commands_set_app_data_handler:0000000000000008 $d
     /tmp/ccTQOGyd.s:729    .text.commands_send_app_data:0000000000000000 $t
     /tmp/ccTQOGyd.s:735    .text.commands_send_app_data:0000000000000000 commands_send_app_data
     /tmp/ccTQOGyd.s:793    .text.commands_send_app_data:0000000000000028 $d
     /tmp/ccTQOGyd.s:801    .text.commands_send_appconf:0000000000000000 $t
     /tmp/ccTQOGyd.s:807    .text.commands_send_appconf:0000000000000000 commands_send_appconf
     /tmp/ccTQOGyd.s:1245   .text.commands_send_appconf:00000000000002c0 $d
     /tmp/ccTQOGyd.s:1251   .text.commands_process_packet:0000000000000000 $t
     /tmp/ccTQOGyd.s:1257   .text.commands_process_packet:0000000000000000 commands_process_packet
     /tmp/ccTQOGyd.s:1301   .text.commands_process_packet:0000000000000026 $d
     /tmp/ccTQOGyd.s:1341   .text.commands_process_packet:0000000000000076 $t
     /tmp/ccTQOGyd.s:1879   .text.commands_process_packet:0000000000000360 $d
     /tmp/ccTQOGyd.s:1896   .text.commands_process_packet:0000000000000394 $t
     /tmp/ccTQOGyd.s:2455   .text.commands_process_packet:000000000000068c $d
     /tmp/ccTQOGyd.s:2476   .text.commands_process_packet:00000000000006cc $t
     /tmp/ccTQOGyd.s:2688   .text.commands_process_packet:0000000000000814 $d
     /tmp/ccTQOGyd.s:2694   .text.commands_process_packet:0000000000000820 $t
     /tmp/ccTQOGyd.s:3362   .text.commands_process_packet:0000000000000bec $d
     /tmp/ccTQOGyd.s:3368   .text.commands_process_packet:0000000000000bf8 $t
     /tmp/ccTQOGyd.s:3802   .text.commands_process_packet:0000000000000efc $d
     /tmp/ccTQOGyd.s:3806   .text.commands_process_packet:0000000000000f04 $t
     /tmp/ccTQOGyd.s:3997   .text.commands_process_packet:0000000000001054 $d
     /tmp/ccTQOGyd.s:4003   .text.commands_process_packet:0000000000001058 $t
     /tmp/ccTQOGyd.s:4513   .text.commands_process_packet:000000000000134c $d
     /tmp/ccTQOGyd.s:4527   .text.commands_process_packet:000000000000137c $t
     /tmp/ccTQOGyd.s:5081   .text.commands_process_packet:0000000000001700 $d
ARM GAS  /tmp/ccTQOGyd.s 			page 397


     /tmp/ccTQOGyd.s:5091   .bss.send_func:0000000000000000 $d
     /tmp/ccTQOGyd.s:5095   .bss.send_func:0000000000000000 send_func
     /tmp/ccTQOGyd.s:5098   .bss.detect_min_rpm:0000000000000000 $d
     /tmp/ccTQOGyd.s:5102   .bss.detect_min_rpm:0000000000000000 detect_min_rpm
     /tmp/ccTQOGyd.s:5105   .bss.appdata_func:0000000000000000 $d
     /tmp/ccTQOGyd.s:5109   .bss.appdata_func:0000000000000000 appdata_func
     /tmp/ccTQOGyd.s:5112   .bss.detect_hall_table:0000000000000000 $d
     /tmp/ccTQOGyd.s:5116   .bss.detect_hall_table:0000000000000000 detect_hall_table
     /tmp/ccTQOGyd.s:5119   .bss.print_buffer.11487:0000000000000000 $d
     /tmp/ccTQOGyd.s:5123   .bss.print_buffer.11487:0000000000000000 print_buffer.11487
     /tmp/ccTQOGyd.s:5126   .bss.mcconf_old.11419:0000000000000000 $d
     /tmp/ccTQOGyd.s:5130   .bss.mcconf_old.11419:0000000000000000 mcconf_old.11419
     /tmp/ccTQOGyd.s:5133   .bss.detect_hall_res:0000000000000000 $d
     /tmp/ccTQOGyd.s:5137   .bss.detect_hall_res:0000000000000000 detect_hall_res
     /tmp/ccTQOGyd.s:5140   .bss.detect_thread_wa:0000000000000000 $d
     /tmp/ccTQOGyd.s:5144   .bss.detect_thread_wa:0000000000000000 detect_thread_wa
     /tmp/ccTQOGyd.s:5147   .bss.send_buffer:0000000000000000 $d
     /tmp/ccTQOGyd.s:5151   .bss.send_buffer:0000000000000000 send_buffer
     /tmp/ccTQOGyd.s:5154   .rodata.str1.4:0000000000000000 $d
     /tmp/ccTQOGyd.s:5161   .bss.detect_tp:0000000000000000 $d
     /tmp/ccTQOGyd.s:5165   .bss.detect_tp:0000000000000000 detect_tp
     /tmp/ccTQOGyd.s:5168   .bss.detect_low_duty:0000000000000000 $d
     /tmp/ccTQOGyd.s:5172   .bss.detect_low_duty:0000000000000000 detect_low_duty
     /tmp/ccTQOGyd.s:5175   .bss.mcconf.11418:0000000000000000 $d
     /tmp/ccTQOGyd.s:5179   .bss.mcconf.11418:0000000000000000 mcconf.11418
     /tmp/ccTQOGyd.s:5182   .bss.detect_current:0000000000000000 $d
     /tmp/ccTQOGyd.s:5186   .bss.detect_current:0000000000000000 detect_current
     /tmp/ccTQOGyd.s:5189   .bss.detect_coupling_k:0000000000000000 $d
     /tmp/ccTQOGyd.s:5193   .bss.detect_coupling_k:0000000000000000 detect_coupling_k
     /tmp/ccTQOGyd.s:5196   .bss.send_func_last:0000000000000000 $d
     /tmp/ccTQOGyd.s:5200   .bss.send_func_last:0000000000000000 send_func_last
     /tmp/ccTQOGyd.s:5203   .bss.detect_cycle_int_limit:0000000000000000 $d
     /tmp/ccTQOGyd.s:5207   .bss.detect_cycle_int_limit:0000000000000000 detect_cycle_int_limit
     /tmp/ccTQOGyd.s:5213   .bss.display_position_mode:0000000000000000 display_position_mode
     /tmp/ccTQOGyd.s:5214   .bss.display_position_mode:0000000000000000 $d
                     .debug_frame:0000000000000010 $d
     /tmp/ccTQOGyd.s:262    .text.commands_init:0000000000000024 $t
     /tmp/ccTQOGyd.s:288    .text.commands_set_send_func:000000000000000c $t
     /tmp/ccTQOGyd.s:405    .text.commands_printf:0000000000000044 $t
     /tmp/ccTQOGyd.s:676    .text.commands_send_experiment_samples:0000000000000078 $t
     /tmp/ccTQOGyd.s:702    .text.commands_get_disp_pos_mode:000000000000000c $t
     /tmp/ccTQOGyd.s:728    .text.commands_set_app_data_handler:000000000000000c $t
     /tmp/ccTQOGyd.s:1250   .text.commands_send_appconf:00000000000002c8 $t
     /tmp/ccTQOGyd.s:5090   .text.commands_process_packet:0000000000001718 $t

UNDEFINED SYMBOLS
chEvtWaitAny
conf_general_detect_motor_param
buffer_append_int32
ch
chThdCreateStatic
vsnprintf
memcpy
buffer_append_uint32
buffer_append_float32_auto
buffer_append_uint16
mc_interface_get_configuration
ARM GAS  /tmp/ccTQOGyd.s 			page 398


mc_interface_set_configuration
mcpwm_foc_measure_res_ind
buffer_append_float32
mcpwm_set_detect
timeout_reset
buffer_get_float32
mcpwm_foc_hall_detect
encoder_is_configured
mcpwm_foc_encoder_detect
conf_general_measure_flux_linkage
chEvtSignal
buffer_get_int32
mc_interface_set_brake_current
mc_interface_set_current
mc_interface_set_duty
mc_interface_temp_fet_filtered
buffer_append_float16
mc_interface_temp_motor_filtered
mc_interface_read_reset_avg_motor_current
mc_interface_read_reset_avg_input_current
mc_interface_read_reset_avg_id
mc_interface_read_reset_avg_iq
mc_interface_get_duty_cycle_now
mc_interface_get_rpm
mc_interface_get_amp_hours
mc_interface_get_amp_hours_charged
mc_interface_get_watt_hours
mc_interface_get_watt_hours_charged
mc_interface_get_tachometer_value
mc_interface_get_tachometer_abs_value
mc_interface_get_fault
buffer_get_uint32
flash_helper_write_new_app_data
flash_helper_erase_new_app
flash_helper_jump_to_bootloader
encoder_cumulative_counts
nrf_driver_start_pairing
ADC_Value
buffer_get_int16
app_nunchuk_update_output
comm_can_send_buffer
app_nunchuk_get_decoded_chuk
app_adc_get_decoded_level
app_adc_get_voltage
app_adc_get_decoded_level2
app_adc_get_voltage2
app_ppm_get_decoded_level
servodec_get_last_pulse_len
conf_general_get_default_app_configuration
app_get_configuration
buffer_get_float32_auto
buffer_get_uint16
conf_general_store_app_configuration
app_set_configuration
timeout_configure
chThdSleep
terminal_process_string
ARM GAS  /tmp/ccTQOGyd.s 			page 399


mc_interface_sample_print_data
mc_interface_set_handbrake
conf_general_get_default_mc_configuration
utils_truncate_number
conf_general_store_mc_configuration
mc_interface_set_pid_pos
mc_interface_set_pid_speed
mc_interface_release_motor
memset
