ARM GAS  /tmp/ccCYPobT.s 			page 1


   1              		.syntax unified
   2              		.cpu cortex-m4
   3              		.eabi_attribute 27, 3
   4              		.eabi_attribute 28, 1
   5              		.fpu fpv4-sp-d16
   6              		.eabi_attribute 20, 1
   7              		.eabi_attribute 21, 1
   8              		.eabi_attribute 23, 3
   9              		.eabi_attribute 24, 1
  10              		.eabi_attribute 25, 1
  11              		.eabi_attribute 26, 1
  12              		.eabi_attribute 30, 2
  13              		.eabi_attribute 34, 1
  14              		.eabi_attribute 18, 4
  15              		.thumb
  16              		.file	"comm_usb.c"
  17              		.text
  18              	.Ltext0:
  19              		.cfi_sections	.debug_frame
  20              		.section	.text.send_packet,"ax",%progbits
  21              		.align	2
  22              		.p2align 4,,15
  23              		.thumb
  24              		.thumb_func
  25              		.type	send_packet, %function
  26              	send_packet:
  27              	.LFB260:
  28              		.file 1 "comm_usb.c"
  29              		.loc 1 106 0
  30              		.cfi_startproc
  31              		@ args = 0, pretend = 0, frame = 0
  32              		@ frame_needed = 0, uses_anonymous_args = 0
  33              	.LVL0:
  34              		.loc 1 107 0
  35 0000 044B     		ldr	r3, .L2
  36              		.loc 1 106 0
  37 0002 10B5     		push	{r4, lr}
  38              		.cfi_def_cfa_offset 8
  39              		.cfi_offset 4, -8
  40              		.cfi_offset 14, -4
  41              		.loc 1 107 0
  42 0004 1C68     		ldr	r4, [r3]
  43              		.loc 1 106 0
  44 0006 0A46     		mov	r2, r1
  45              		.loc 1 107 0
  46 0008 2468     		ldr	r4, [r4]
  47 000a 0146     		mov	r1, r0
  48              	.LVL1:
  49 000c 1846     		mov	r0, r3
  50              	.LVL2:
  51 000e A047     		blx	r4
  52              	.LVL3:
  53 0010 10BD     		pop	{r4, pc}
  54              	.L3:
  55 0012 00BF     		.align	2
  56              	.L2:
  57 0014 00000000 		.word	SDU1
ARM GAS  /tmp/ccCYPobT.s 			page 2


  58              		.cfi_endproc
  59              	.LFE260:
  60              		.size	send_packet, .-send_packet
  61 0018 AFF30080 		.section	.text.serial_process_thread,"ax",%progbits
  61      AFF30080 
  62              		.align	2
  63              		.p2align 4,,15
  64              		.thumb
  65              		.thumb_func
  66              		.type	serial_process_thread, %function
  67              	serial_process_thread:
  68              	.LFB257:
  69              		.loc 1 75 0
  70              		.cfi_startproc
  71              		@ args = 0, pretend = 0, frame = 0
  72              		@ frame_needed = 0, uses_anonymous_args = 0
  73              	.LVL4:
  74 0000 2DE9F843 		push	{r3, r4, r5, r6, r7, r8, r9, lr}
  75              		.cfi_def_cfa_offset 32
  76              		.cfi_offset 3, -32
  77              		.cfi_offset 4, -28
  78              		.cfi_offset 5, -24
  79              		.cfi_offset 6, -20
  80              		.cfi_offset 7, -16
  81              		.cfi_offset 8, -12
  82              		.cfi_offset 9, -8
  83              		.cfi_offset 14, -4
  84              	.LBB8:
  85              	.LBB9:
  86              		.file 2 "ChibiOS_3.0.2/os/rt/include/chregistry.h"
  87              		.loc 2 135 0
  88 0004 114B     		ldr	r3, .L11
  89              	.LBE9:
  90              	.LBE8:
  91              		.loc 1 80 0
  92 0006 124A     		ldr	r2, .L11+4
  93              	.LBB11:
  94              	.LBB10:
  95              		.loc 2 135 0
  96 0008 9B69     		ldr	r3, [r3, #24]
  97 000a 124C     		ldr	r4, .L11+8
  98 000c 1249     		ldr	r1, .L11+12
  99 000e 134E     		ldr	r6, .L11+16
 100 0010 DFF84C90 		ldr	r9, .L11+20
 101 0014 9961     		str	r1, [r3, #24]
 102              	.LBE10:
 103              	.LBE11:
 104              		.loc 1 80 0
 105 0016 1360     		str	r3, [r2]
 106              		.loc 1 86 0
 107 0018 A046     		mov	r8, r4
 108              	.LVL5:
 109              	.L9:
 110              		.loc 1 83 0
 111 001a 0120     		movs	r0, #1
 112 001c FFF7FEFF 		bl	chEvtWaitAny
 113              	.LVL6:
ARM GAS  /tmp/ccCYPobT.s 			page 3


 114              		.loc 1 86 0
 115 0020 0027     		movs	r7, #0
 116              	.L5:
 117 0022 2368     		ldr	r3, [r4]
 118              	.L7:
 119              		.loc 1 85 0 discriminator 1
 120 0024 D9F80020 		ldr	r2, [r9]
 121 0028 9A42     		cmp	r2, r3
 122              		.loc 1 86 0 discriminator 1
 123 002a 03F10105 		add	r5, r3, #1
 124 002e 4FF00001 		mov	r1, #0
 125              		.loc 1 85 0 discriminator 1
 126 0032 F2D0     		beq	.L9
 127              		.loc 1 86 0
 128 0034 F05C     		ldrb	r0, [r6, r3]	@ zero_extendqisi2
 129 0036 2560     		str	r5, [r4]
 130 0038 FFF7FEFF 		bl	packet_process_byte
 131              	.LVL7:
 132              		.loc 1 88 0
 133 003c 2368     		ldr	r3, [r4]
 134 003e B3F5006F 		cmp	r3, #2048
 135 0042 EFD1     		bne	.L7
 136              		.loc 1 89 0
 137 0044 C8F80070 		str	r7, [r8]
 138 0048 EBE7     		b	.L5
 139              	.L12:
 140 004a 00BF     		.align	2
 141              	.L11:
 142 004c 00000000 		.word	ch
 143 0050 00000000 		.word	.LANCHOR0
 144 0054 00000000 		.word	.LANCHOR1
 145 0058 00000000 		.word	.LC0
 146 005c 00000000 		.word	.LANCHOR2
 147 0060 00000000 		.word	.LANCHOR3
 148              		.cfi_endproc
 149              	.LFE257:
 150              		.size	serial_process_thread, .-serial_process_thread
 151 0064 AFF30080 		.section	.text.serial_read_thread,"ax",%progbits
 151      AFF30080 
 151      AFF30080 
 152              		.align	2
 153              		.p2align 4,,15
 154              		.thumb
 155              		.thumb_func
 156              		.type	serial_read_thread, %function
 157              	serial_read_thread:
 158              	.LFB256:
 159              		.loc 1 45 0
 160              		.cfi_startproc
 161              		@ args = 0, pretend = 0, frame = 128
 162              		@ frame_needed = 0, uses_anonymous_args = 0
 163              	.LVL8:
 164 0000 2DE9F041 		push	{r4, r5, r6, r7, r8, lr}
 165              		.cfi_def_cfa_offset 24
 166              		.cfi_offset 4, -24
 167              		.cfi_offset 5, -20
 168              		.cfi_offset 6, -16
ARM GAS  /tmp/ccCYPobT.s 			page 4


 169              		.cfi_offset 7, -12
 170              		.cfi_offset 8, -8
 171              		.cfi_offset 14, -4
 172              	.LBB12:
 173              	.LBB13:
 174              		.loc 2 135 0
 175 0004 134B     		ldr	r3, .L22
 176 0006 144A     		ldr	r2, .L22+4
 177 0008 9B69     		ldr	r3, [r3, #24]
 178 000a 144E     		ldr	r6, .L22+8
 179 000c 144D     		ldr	r5, .L22+12
 180 000e DFF85880 		ldr	r8, .L22+20
 181 0012 144F     		ldr	r7, .L22+16
 182 0014 9A61     		str	r2, [r3, #24]
 183              	.LVL9:
 184              	.LBE13:
 185              	.LBE12:
 186              		.loc 1 45 0
 187 0016 A0B0     		sub	sp, sp, #128
 188              		.cfi_def_cfa_offset 152
 189              	.LVL10:
 190              	.L15:
 191              		.loc 1 56 0
 192 0018 3368     		ldr	r3, [r6]
 193 001a 1048     		ldr	r0, .L22+8
 194 001c 5B68     		ldr	r3, [r3, #4]
 195 001e 6946     		mov	r1, sp
 196 0020 0122     		movs	r2, #1
 197 0022 9847     		blx	r3
 198              	.LVL11:
 199              		.loc 1 58 0
 200 0024 0028     		cmp	r0, #0
 201 0026 F7DD     		ble	.L15
 202 0028 2A68     		ldr	r2, [r5]
 203 002a 0023     		movs	r3, #0
 204              	.LVL12:
 205              	.L18:
 206              		.loc 1 59 0
 207 002c 511C     		adds	r1, r2, #1
 208              		.loc 1 61 0
 209 002e B1F5006F 		cmp	r1, #2048
 210              		.loc 1 59 0
 211 0032 1DF80340 		ldrb	r4, [sp, r3]	@ zero_extendqisi2
 212 0036 08F80240 		strb	r4, [r8, r2]
 213              		.loc 1 58 0
 214 003a 03F10103 		add	r3, r3, #1
 215              	.LVL13:
 216              		.loc 1 61 0
 217 003e 14BF     		ite	ne
 218 0040 0A46     		movne	r2, r1
 219 0042 0022     		moveq	r2, #0
 220              	.LVL14:
 221              		.loc 1 58 0
 222 0044 8342     		cmp	r3, r0
 223 0046 F1DB     		blt	.L18
 224              		.loc 1 69 0
 225 0048 3868     		ldr	r0, [r7]
ARM GAS  /tmp/ccCYPobT.s 			page 5


 226              	.LVL15:
 227 004a 2A60     		str	r2, [r5]
 228 004c 0121     		movs	r1, #1
 229 004e FFF7FEFF 		bl	chEvtSignal
 230              	.LVL16:
 231 0052 E1E7     		b	.L15
 232              	.L23:
 233              		.align	2
 234              	.L22:
 235 0054 00000000 		.word	ch
 236 0058 14000000 		.word	.LC1
 237 005c 00000000 		.word	SDU1
 238 0060 00000000 		.word	.LANCHOR3
 239 0064 00000000 		.word	.LANCHOR0
 240 0068 00000000 		.word	.LANCHOR2
 241              		.cfi_endproc
 242              	.LFE256:
 243              		.size	serial_read_thread, .-serial_read_thread
 244 006c AFF30080 		.section	.text.process_packet,"ax",%progbits
 245              		.align	2
 246              		.p2align 4,,15
 247              		.thumb
 248              		.thumb_func
 249              		.type	process_packet, %function
 250              	process_packet:
 251              	.LFB258:
 252              		.loc 1 95 0
 253              		.cfi_startproc
 254              		@ args = 0, pretend = 0, frame = 0
 255              		@ frame_needed = 0, uses_anonymous_args = 0
 256              	.LVL17:
 257 0000 38B5     		push	{r3, r4, r5, lr}
 258              		.cfi_def_cfa_offset 16
 259              		.cfi_offset 3, -16
 260              		.cfi_offset 4, -12
 261              		.cfi_offset 5, -8
 262              		.cfi_offset 14, -4
 263              		.loc 1 95 0
 264 0002 0446     		mov	r4, r0
 265 0004 0D46     		mov	r5, r1
 266              		.loc 1 96 0
 267 0006 0448     		ldr	r0, .L25
 268              	.LVL18:
 269 0008 FFF7FEFF 		bl	commands_set_send_func
 270              	.LVL19:
 271              		.loc 1 97 0
 272 000c 2046     		mov	r0, r4
 273 000e 2946     		mov	r1, r5
 274              		.loc 1 98 0
 275 0010 BDE83840 		pop	{r3, r4, r5, lr}
 276              	.LVL20:
 277              		.loc 1 97 0
 278 0014 FFF7FEBF 		b	commands_process_packet
 279              	.LVL21:
 280              	.L26:
 281              		.align	2
 282              	.L25:
ARM GAS  /tmp/ccCYPobT.s 			page 6


 283 0018 00000000 		.word	send_packet_wrapper
 284              		.cfi_endproc
 285              	.LFE258:
 286              		.size	process_packet, .-process_packet
 287 001c AFF30080 		.section	.text.send_packet_wrapper,"ax",%progbits
 288              		.align	2
 289              		.p2align 4,,15
 290              		.thumb
 291              		.thumb_func
 292              		.type	send_packet_wrapper, %function
 293              	send_packet_wrapper:
 294              	.LFB259:
 295              		.loc 1 100 0
 296              		.cfi_startproc
 297              		@ args = 0, pretend = 0, frame = 0
 298              		@ frame_needed = 0, uses_anonymous_args = 0
 299              	.LVL22:
 300 0000 70B5     		push	{r4, r5, r6, lr}
 301              		.cfi_def_cfa_offset 16
 302              		.cfi_offset 4, -16
 303              		.cfi_offset 5, -12
 304              		.cfi_offset 6, -8
 305              		.cfi_offset 14, -4
 306              		.loc 1 101 0
 307 0002 084C     		ldr	r4, .L28
 308              		.loc 1 100 0
 309 0004 0546     		mov	r5, r0
 310 0006 0E46     		mov	r6, r1
 311              		.loc 1 101 0
 312 0008 2046     		mov	r0, r4
 313              	.LVL23:
 314 000a FFF7FEFF 		bl	chMtxLock
 315              	.LVL24:
 316              		.loc 1 102 0
 317 000e 2846     		mov	r0, r5
 318 0010 3146     		mov	r1, r6
 319 0012 0022     		movs	r2, #0
 320 0014 FFF7FEFF 		bl	packet_send_packet
 321              	.LVL25:
 322              		.loc 1 103 0
 323 0018 2046     		mov	r0, r4
 324              		.loc 1 104 0
 325 001a BDE87040 		pop	{r4, r5, r6, lr}
 326              	.LVL26:
 327              		.loc 1 103 0
 328 001e FFF7FEBF 		b	chMtxUnlock
 329              	.LVL27:
 330              	.L29:
 331 0022 00BF     		.align	2
 332              	.L28:
 333 0024 00000000 		.word	.LANCHOR4
 334              		.cfi_endproc
 335              	.LFE259:
 336              		.size	send_packet_wrapper, .-send_packet_wrapper
 337 0028 AFF30080 		.section	.text.comm_usb_init,"ax",%progbits
 337      AFF30080 
 338              		.align	2
ARM GAS  /tmp/ccCYPobT.s 			page 7


 339              		.p2align 4,,15
 340              		.global	comm_usb_init
 341              		.thumb
 342              		.thumb_func
 343              		.type	comm_usb_init, %function
 344              	comm_usb_init:
 345              	.LFB261:
 346              		.loc 1 110 0
 347              		.cfi_startproc
 348              		@ args = 0, pretend = 0, frame = 0
 349              		@ frame_needed = 0, uses_anonymous_args = 0
 350 0000 10B5     		push	{r4, lr}
 351              		.cfi_def_cfa_offset 8
 352              		.cfi_offset 4, -8
 353              		.cfi_offset 14, -4
 354 0002 82B0     		sub	sp, sp, #8
 355              		.cfi_def_cfa_offset 16
 356              		.loc 1 111 0
 357 0004 FFF7FEFF 		bl	comm_usb_serial_init
 358              	.LVL28:
 359              		.loc 1 112 0
 360 0008 0D49     		ldr	r1, .L31
 361 000a 0E48     		ldr	r0, .L31+4
 362 000c 0022     		movs	r2, #0
 363 000e FFF7FEFF 		bl	packet_init
 364              	.LVL29:
 365              		.loc 1 117 0
 366 0012 0024     		movs	r4, #0
 367              		.loc 1 114 0
 368 0014 0C48     		ldr	r0, .L31+8
 369 0016 FFF7FEFF 		bl	chMtxObjectInit
 370              	.LVL30:
 371              		.loc 1 117 0
 372 001a 0094     		str	r4, [sp]
 373 001c 0B4B     		ldr	r3, .L31+12
 374 001e 0C48     		ldr	r0, .L31+16
 375 0020 4FF46671 		mov	r1, #920
 376 0024 4022     		movs	r2, #64
 377 0026 FFF7FEFF 		bl	chThdCreateStatic
 378              	.LVL31:
 379              		.loc 1 118 0
 380 002a 0094     		str	r4, [sp]
 381 002c 094B     		ldr	r3, .L31+20
 382 002e 0A48     		ldr	r0, .L31+24
 383 0030 41F29811 		movw	r1, #4504
 384 0034 4022     		movs	r2, #64
 385 0036 FFF7FEFF 		bl	chThdCreateStatic
 386              	.LVL32:
 387              		.loc 1 119 0
 388 003a 02B0     		add	sp, sp, #8
 389              		@ sp needed
 390 003c 10BD     		pop	{r4, pc}
 391              	.L32:
 392 003e 00BF     		.align	2
 393              	.L31:
 394 0040 00000000 		.word	process_packet
 395 0044 00000000 		.word	send_packet
ARM GAS  /tmp/ccCYPobT.s 			page 8


 396 0048 00000000 		.word	.LANCHOR4
 397 004c 00000000 		.word	serial_read_thread
 398 0050 00000000 		.word	.LANCHOR5
 399 0054 00000000 		.word	serial_process_thread
 400 0058 00000000 		.word	.LANCHOR6
 401              		.cfi_endproc
 402              	.LFE261:
 403              		.size	comm_usb_init, .-comm_usb_init
 404 005c AFF30080 		.section	.bss.serial_rx_write_pos,"aw",%nobits
 405              		.align	2
 406              		.set	.LANCHOR3,. + 0
 407              		.type	serial_rx_write_pos, %object
 408              		.size	serial_rx_write_pos, 4
 409              	serial_rx_write_pos:
 410 0000 00000000 		.space	4
 411              		.section	.bss.send_mutex,"aw",%nobits
 412              		.align	2
 413              		.set	.LANCHOR4,. + 0
 414              		.type	send_mutex, %object
 415              		.size	send_mutex, 16
 416              	send_mutex:
 417 0000 00000000 		.space	16
 417      00000000 
 417      00000000 
 417      00000000 
 418              		.section	.bss.serial_process_thread_wa,"aw",%nobits
 419              		.align	3
 420              		.set	.LANCHOR6,. + 0
 421              		.type	serial_process_thread_wa, %object
 422              		.size	serial_process_thread_wa, 4504
 423              	serial_process_thread_wa:
 424 0000 00000000 		.space	4504
 424      00000000 
 424      00000000 
 424      00000000 
 424      00000000 
 425              		.section	.bss.serial_rx_buffer,"aw",%nobits
 426              		.align	2
 427              		.set	.LANCHOR2,. + 0
 428              		.type	serial_rx_buffer, %object
 429              		.size	serial_rx_buffer, 2048
 430              	serial_rx_buffer:
 431 0000 00000000 		.space	2048
 431      00000000 
 431      00000000 
 431      00000000 
 431      00000000 
 432              		.section	.rodata.str1.4,"aMS",%progbits,1
 433              		.align	2
 434              	.LC0:
 435 0000 5553422D 		.ascii	"USB-Serial process\000"
 435      53657269 
 435      616C2070 
 435      726F6365 
 435      737300
 436 0013 00       		.space	1
 437              	.LC1:
ARM GAS  /tmp/ccCYPobT.s 			page 9


 438 0014 5553422D 		.ascii	"USB-Serial read\000"
 438      53657269 
 438      616C2072 
 438      65616400 
 439              		.section	.bss.serial_read_thread_wa,"aw",%nobits
 440              		.align	3
 441              		.set	.LANCHOR5,. + 0
 442              		.type	serial_read_thread_wa, %object
 443              		.size	serial_read_thread_wa, 920
 444              	serial_read_thread_wa:
 445 0000 00000000 		.space	920
 445      00000000 
 445      00000000 
 445      00000000 
 445      00000000 
 446              		.section	.bss.serial_rx_read_pos,"aw",%nobits
 447              		.align	2
 448              		.set	.LANCHOR1,. + 0
 449              		.type	serial_rx_read_pos, %object
 450              		.size	serial_rx_read_pos, 4
 451              	serial_rx_read_pos:
 452 0000 00000000 		.space	4
 453              		.section	.bss.process_tp,"aw",%nobits
 454              		.align	2
 455              		.set	.LANCHOR0,. + 0
 456              		.type	process_tp, %object
 457              		.size	process_tp, 4
 458              	process_tp:
 459 0000 00000000 		.space	4
 460              		.text
 461              	.Letext0:
 462              		.file 3 "/usr/lib/gcc/arm-none-eabi/4.8/include/stddef.h"
 463              		.file 4 "/usr/include/newlib/machine/_default_types.h"
 464              		.file 5 "/usr/include/newlib/stdint.h"
 465              		.file 6 "ChibiOS_3.0.2/os/rt/ports/ARMCMx/compilers/GCC/chtypes.h"
 466              		.file 7 "ChibiOS_3.0.2/os/rt/include/chsystypes.h"
 467              		.file 8 "ChibiOS_3.0.2/os/rt/include/chschd.h"
 468              		.file 9 "ChibiOS_3.0.2/os/rt/ports/ARMCMx/chcore.h"
 469              		.file 10 "ChibiOS_3.0.2/os/rt/ports/ARMCMx/chcore_v7m.h"
 470              		.file 11 "ChibiOS_3.0.2/os/rt/include/chtm.h"
 471              		.file 12 "ChibiOS_3.0.2/os/rt/include/chsem.h"
 472              		.file 13 "ChibiOS_3.0.2/os/rt/include/chmtx.h"
 473              		.file 14 "ChibiOS_3.0.2/os/rt/include/chthreads.h"
 474              		.file 15 "ChibiOS_3.0.2/os/rt/include/chevents.h"
 475              		.file 16 "ChibiOS_3.0.2/os/rt/include/chqueues.h"
 476              		.file 17 "ChibiOS_3.0.2/os/hal/include/usb.h"
 477              		.file 18 "ChibiOS_3.0.2/os/hal/ports/STM32/LLD/OTGv1/usb_lld.h"
 478              		.file 19 "ChibiOS_3.0.2/os/hal/ports/STM32/LLD/OTGv1/stm32_otg.h"
 479              		.file 20 "ChibiOS_3.0.2/os/hal/include/serial_usb.h"
 480              		.file 21 "ChibiOS_3.0.2/os/ext/CMSIS/include/core_cm4.h"
 481              		.file 22 "comm_usb_serial.h"
 482              		.file 23 "packet.h"
 483              		.file 24 "commands.h"