ARM GAS  /tmp/cc3hri4p.s 			page 1


   1              		.syntax unified
   2              		.cpu cortex-m4
   3              		.eabi_attribute 27, 3
   4              		.eabi_attribute 28, 1
   5              		.fpu fpv4-sp-d16
   6              		.eabi_attribute 20, 1
   7              		.eabi_attribute 21, 1
   8              		.eabi_attribute 23, 3
   9              		.eabi_attribute 24, 1
  10              		.eabi_attribute 25, 1
  11              		.eabi_attribute 26, 1
  12              		.eabi_attribute 30, 2
  13              		.eabi_attribute 34, 1
  14              		.eabi_attribute 18, 4
  15              		.thumb
  16              		.file	"conf_general.c"
  17              		.text
  18              	.Ltext0:
  19              		.cfi_sections	.debug_frame
  20              		.section	.text.conf_general_init,"ax",%progbits
  21              		.align	2
  22              		.p2align 4,,15
  23              		.global	conf_general_init
  24              		.thumb
  25              		.thumb_func
  26              		.type	conf_general_init, %function
  27              	conf_general_init:
  28              	.LFB219:
  29              		.file 1 "conf_general.c"
  30              		.loc 1 58 0
  31              		.cfi_startproc
  32              		@ args = 0, pretend = 0, frame = 0
  33              		@ frame_needed = 0, uses_anonymous_args = 0
  34 0000 08B5     		push	{r3, lr}
  35              		.cfi_def_cfa_offset 8
  36              		.cfi_offset 3, -8
  37              		.cfi_offset 14, -4
  38              		.loc 1 60 0
  39 0002 0021     		movs	r1, #0
  40 0004 4FF40F72 		mov	r2, #572
  41 0008 1048     		ldr	r0, .L9
  42 000a FFF7FEFF 		bl	memset
  43              	.LVL0:
  44 000e 104B     		ldr	r3, .L9+4
  45 0010 4FF47A72 		mov	r2, #1000
  46 0014 03F5BA71 		add	r1, r3, #372
  47              	.LVL1:
  48              	.L3:
  49              	.LBB2:
  50              		.loc 1 64 0 discriminator 2
  51 0018 23F8022F 		strh	r2, [r3, #2]!	@ movhi
  52 001c 0132     		adds	r2, r2, #1
  53              		.loc 1 63 0 discriminator 2
  54 001e 8B42     		cmp	r3, r1
  55 0020 92B2     		uxth	r2, r2
  56 0022 F9D1     		bne	.L3
  57 0024 0B4B     		ldr	r3, .L9+8
ARM GAS  /tmp/cc3hri4p.s 			page 2


  58              		.loc 1 63 0 is_stmt 0
  59 0026 4FF4FA62 		mov	r2, #2000
  60 002a 03F1C801 		add	r1, r3, #200
  61              	.L5:
  62              	.LBE2:
  63              	.LBB3:
  64              		.loc 1 68 0 is_stmt 1 discriminator 2
  65 002e 23F8022F 		strh	r2, [r3, #2]!	@ movhi
  66              	.LVL2:
  67 0032 0132     		adds	r2, r2, #1
  68              		.loc 1 67 0 discriminator 2
  69 0034 8B42     		cmp	r3, r1
  70 0036 92B2     		uxth	r2, r2
  71 0038 F9D1     		bne	.L5
  72              	.LBE3:
  73              		.loc 1 71 0
  74 003a FFF7FEFF 		bl	FLASH_Unlock
  75              	.LVL3:
  76              		.loc 1 72 0
  77 003e F220     		movs	r0, #242
  78 0040 FFF7FEFF 		bl	FLASH_ClearFlag
  79              	.LVL4:
  80              		.loc 1 75 0
  81 0044 BDE80840 		pop	{r3, lr}
  82              		.loc 1 74 0
  83 0048 FFF7FEBF 		b	EE_Init
  84              	.LVL5:
  85              	.L10:
  86              		.align	2
  87              	.L9:
  88 004c 00000000 		.word	.LANCHOR0
  89 0050 FEFFFFFF 		.word	.LANCHOR0-2
  90 0054 72010000 		.word	.LANCHOR0+370
  91              		.cfi_endproc
  92              	.LFE219:
  93              		.size	conf_general_init, .-conf_general_init
  94 0058 AFF30080 		.section	.text.conf_general_get_default_app_configuration,"ax",%progbits
  94      AFF30080 
  95              		.align	2
  96              		.p2align 4,,15
  97              		.global	conf_general_get_default_app_configuration
  98              		.thumb
  99              		.thumb_func
 100              		.type	conf_general_get_default_app_configuration, %function
 101              	conf_general_get_default_app_configuration:
 102              	.LFB220:
 103              		.loc 1 83 0
 104              		.cfi_startproc
 105              		@ args = 0, pretend = 0, frame = 0
 106              		@ frame_needed = 0, uses_anonymous_args = 0
 107              	.LVL6:
 108 0000 2DE9F84F 		push	{r3, r4, r5, r6, r7, r8, r9, r10, fp, lr}
 109              		.cfi_def_cfa_offset 40
 110              		.cfi_offset 3, -40
 111              		.cfi_offset 4, -36
 112              		.cfi_offset 5, -32
 113              		.cfi_offset 6, -28
ARM GAS  /tmp/cc3hri4p.s 			page 3


 114              		.cfi_offset 7, -24
 115              		.cfi_offset 8, -20
 116              		.cfi_offset 9, -16
 117              		.cfi_offset 10, -12
 118              		.cfi_offset 11, -8
 119              		.cfi_offset 14, -4
 120              		.loc 1 84 0
 121 0004 0021     		movs	r1, #0
 122              		.loc 1 83 0
 123 0006 0446     		mov	r4, r0
 124              		.loc 1 84 0
 125 0008 C822     		movs	r2, #200
 126 000a FFF7FEFF 		bl	memset
 127              	.LVL7:
 128              		.loc 1 97 0
 129 000e 4FF07E59 		mov	r9, #1065353216
 130              		.loc 1 96 0
 131 0012 DFED467A 		flds	s15, .L12
 132              		.loc 1 95 0
 133 0016 464B     		ldr	r3, .L12+4
 134              		.loc 1 109 0
 135 0018 4648     		ldr	r0, .L12+8
 136              		.loc 1 105 0
 137 001a 474E     		ldr	r6, .L12+12
 138              		.loc 1 106 0
 139 001c DFF82081 		ldr	r8, .L12+20
 140              		.loc 1 113 0
 141 0020 464F     		ldr	r7, .L12+16
 142              		.loc 1 95 0
 143 0022 E361     		str	r3, [r4, #28]	@ float
 144              		.loc 1 86 0
 145 0024 4FF47A71 		mov	r1, #1000
 146              		.loc 1 85 0
 147 0028 0023     		movs	r3, #0
 148              		.loc 1 100 0
 149 002a 0122     		movs	r2, #1
 150              		.loc 1 90 0
 151 002c 0325     		movs	r5, #3
 152              		.loc 1 98 0
 153 002e 4FF0804A 		mov	r10, #1073741824
 154              		.loc 1 99 0
 155 0032 4FF07F5B 		mov	fp, #1069547520
 156              		.loc 1 89 0
 157 0036 4FF4FA7C 		mov	ip, #500
 158              		.loc 1 86 0
 159 003a 6160     		str	r1, [r4, #4]
 160              		.loc 1 97 0
 161 003c C4F82490 		str	r9, [r4, #36]	@ float
 162              		.loc 1 104 0
 163 0040 0221     		movs	r1, #2
 164              		.loc 1 114 0
 165 0042 DFF80091 		ldr	r9, .L12+24
 166              		.loc 1 99 0
 167 0046 C4F82CB0 		str	fp, [r4, #44]	@ float
 168              		.loc 1 98 0
 169 004a C4F828A0 		str	r10, [r4, #40]	@ float
 170              		.loc 1 115 0
ARM GAS  /tmp/cc3hri4p.s 			page 4


 171 004e C4F860A0 		str	r10, [r4, #96]	@ float
 172              		.loc 1 106 0
 173 0052 C4F84480 		str	r8, [r4, #68]	@ float
 174              		.loc 1 114 0
 175 0056 C4F85C90 		str	r9, [r4, #92]	@ float
 176              		.loc 1 117 0
 177 005a C4F86890 		str	r9, [r4, #104]	@ float
 178              		.loc 1 85 0
 179 005e 2370     		strb	r3, [r4]
 180              		.loc 1 88 0
 181 0060 2373     		strb	r3, [r4, #12]
 182              		.loc 1 92 0
 183 0062 6375     		strb	r3, [r4, #21]
 184              		.loc 1 94 0
 185 0064 2376     		strb	r3, [r4, #24]
 186              		.loc 1 107 0
 187 0066 84F84830 		strb	r3, [r4, #72]
 188              		.loc 1 108 0
 189 006a 84F84930 		strb	r3, [r4, #73]
 190              		.loc 1 111 0
 191 006e 84F85030 		strb	r3, [r4, #80]
 192              		.loc 1 120 0
 193 0072 84F86E30 		strb	r3, [r4, #110]
 194              		.loc 1 121 0
 195 0076 84F86F30 		strb	r3, [r4, #111]
 196              		.loc 1 122 0
 197 007a 84F87030 		strb	r3, [r4, #112]
 198              		.loc 1 123 0
 199 007e 84F87130 		strb	r3, [r4, #113]
 200              		.loc 1 89 0
 201 0082 C4F810C0 		str	ip, [r4, #16]
 202              		.loc 1 90 0
 203 0086 2575     		strb	r5, [r4, #20]
 204              		.loc 1 96 0
 205 0088 C4ED087A 		fsts	s15, [r4, #32]
 206              		.loc 1 112 0
 207 008c C4ED157A 		fsts	s15, [r4, #84]
 208              		.loc 1 153 0
 209 0090 4FF04C0A 		mov	r10, #76
 210              		.loc 1 100 0
 211 0094 84F83020 		strb	r2, [r4, #48]
 212              		.loc 1 101 0
 213 0098 84F83120 		strb	r2, [r4, #49]
 214              		.loc 1 118 0
 215 009c 84F86C20 		strb	r2, [r4, #108]
 216              		.loc 1 119 0
 217 00a0 84F86D20 		strb	r2, [r4, #109]
 218              		.loc 1 104 0
 219 00a4 84F83C10 		strb	r1, [r4, #60]
 220              		.loc 1 105 0
 221 00a8 2664     		str	r6, [r4, #64]	@ float
 222              		.loc 1 109 0
 223 00aa E064     		str	r0, [r4, #76]	@ float
 224              		.loc 1 113 0
 225 00ac A765     		str	r7, [r4, #88]	@ float
 226              		.loc 1 116 0
 227 00ae 6766     		str	r7, [r4, #100]	@ float
ARM GAS  /tmp/cc3hri4p.s 			page 5


 228              		.loc 1 154 0
 229 00b0 4FF0C609 		mov	r9, #198
 230              		.loc 1 126 0
 231 00b4 84F87C10 		strb	r1, [r4, #124]
 232              		.loc 1 128 0
 233 00b8 C4F88480 		str	r8, [r4, #132]	@ float
 234              		.loc 1 155 0
 235 00bc 4FF0C708 		mov	r8, #199
 236              		.loc 1 134 0
 237 00c0 4FF4E13B 		mov	fp, #115200
 238              		.loc 1 152 0
 239 00c4 84F8C050 		strb	r5, [r4, #192]
 240              		.loc 1 156 0
 241 00c8 84F8C430 		strb	r3, [r4, #196]
 242              		.loc 1 153 0
 243 00cc 84F8C1A0 		strb	r10, [r4, #193]
 244              		.loc 1 154 0
 245 00d0 84F8C290 		strb	r9, [r4, #194]
 246              		.loc 1 155 0
 247 00d4 84F8C380 		strb	r8, [r4, #195]
 248              		.loc 1 127 0
 249 00d8 C4F88060 		str	r6, [r4, #128]	@ float
 250              		.loc 1 129 0
 251 00dc 84F88830 		strb	r3, [r4, #136]
 252              		.loc 1 130 0
 253 00e0 84F88930 		strb	r3, [r4, #137]
 254              		.loc 1 131 0
 255 00e4 C4F88C00 		str	r0, [r4, #140]	@ float
 256              		.loc 1 132 0
 257 00e8 C4F890C0 		str	ip, [r4, #144]
 258              		.loc 1 136 0
 259 00ec 84F89820 		strb	r2, [r4, #152]
 260              		.loc 1 137 0
 261 00f0 C4ED277A 		fsts	s15, [r4, #156]
 262              		.loc 1 138 0
 263 00f4 C4F8A070 		str	r7, [r4, #160]	@ float
 264              		.loc 1 139 0
 265 00f8 C4F8A460 		str	r6, [r4, #164]	@ float
 266              		.loc 1 140 0
 267 00fc C4F8A800 		str	r0, [r4, #168]	@ float
 268              		.loc 1 143 0
 269 0100 84F8B410 		strb	r1, [r4, #180]
 270              		.loc 1 144 0
 271 0104 84F8B530 		strb	r3, [r4, #181]
 272              		.loc 1 145 0
 273 0108 84F8B630 		strb	r3, [r4, #182]
 274              		.loc 1 146 0
 275 010c C4F8B800 		str	r0, [r4, #184]	@ float
 276              		.loc 1 148 0
 277 0110 84F8BC10 		strb	r1, [r4, #188]
 278              		.loc 1 149 0
 279 0114 84F8BD50 		strb	r5, [r4, #189]
 280              		.loc 1 150 0
 281 0118 84F8BE20 		strb	r2, [r4, #190]
 282              		.loc 1 151 0
 283 011c 84F8BF30 		strb	r3, [r4, #191]
 284              		.loc 1 157 0
ARM GAS  /tmp/cc3hri4p.s 			page 6


 285 0120 84F8C520 		strb	r2, [r4, #197]
 286              		.loc 1 134 0
 287 0124 C4F894B0 		str	fp, [r4, #148]
 288              		.loc 1 155 0
 289 0128 BDE8F88F 		pop	{r3, r4, r5, r6, r7, r8, r9, r10, fp, pc}
 290              	.LVL8:
 291              	.L13:
 292              		.align	2
 293              	.L12:
 294 012c 9A99193E 		.word	1041865114
 295 0130 00606A46 		.word	1181376512
 296 0134 00803B45 		.word	1161527296
 297 0138 9A99993E 		.word	1050253722
 298 013c 6666663F 		.word	1063675494
 299 0140 CDCCCC3D 		.word	1036831949
 300 0144 00004040 		.word	1077936128
 301              		.cfi_endproc
 302              	.LFE220:
 303              		.size	conf_general_get_default_app_configuration, .-conf_general_get_default_app_configuration
 304 0148 AFF30080 		.section	.text.conf_general_get_default_mc_configuration,"ax",%progbits
 304      AFF30080 
 305              		.align	2
 306              		.p2align 4,,15
 307              		.global	conf_general_get_default_mc_configuration
 308              		.thumb
 309              		.thumb_func
 310              		.type	conf_general_get_default_mc_configuration, %function
 311              	conf_general_get_default_mc_configuration:
 312              	.LFB221:
 313              		.loc 1 166 0
 314              		.cfi_startproc
 315              		@ args = 0, pretend = 0, frame = 0
 316              		@ frame_needed = 0, uses_anonymous_args = 0
 317              	.LVL9:
 318 0000 2DE9F84F 		push	{r3, r4, r5, r6, r7, r8, r9, r10, fp, lr}
 319              		.cfi_def_cfa_offset 40
 320              		.cfi_offset 3, -40
 321              		.cfi_offset 4, -36
 322              		.cfi_offset 5, -32
 323              		.cfi_offset 6, -28
 324              		.cfi_offset 7, -24
 325              		.cfi_offset 8, -20
 326              		.cfi_offset 9, -16
 327              		.cfi_offset 10, -12
 328              		.cfi_offset 11, -8
 329              		.cfi_offset 14, -4
 330              		.loc 1 167 0
 331 0004 0021     		movs	r1, #0
 332              		.loc 1 166 0
 333 0006 0446     		mov	r4, r0
 334              		.loc 1 167 0
 335 0008 4FF4BA72 		mov	r2, #372
 336 000c FFF7FEFF 		bl	memset
 337              	.LVL10:
 338              		.loc 1 173 0
 339 0010 944B     		ldr	r3, .L15
 340              		.loc 1 177 0
ARM GAS  /tmp/cc3hri4p.s 			page 7


 341 0012 DFF8C482 		ldr	r8, .L15+116
 342              		.loc 1 178 0
 343 0016 944E     		ldr	r6, .L15+4
 344              		.loc 1 179 0
 345 0018 DFF8C0C2 		ldr	ip, .L15+120
 346              		.loc 1 181 0
 347 001c 934F     		ldr	r7, .L15+8
 348              		.loc 1 182 0
 349 001e DFED947A 		flds	s15, .L15+12
 350              		.loc 1 194 0
 351 0022 9449     		ldr	r1, .L15+16
 352              		.loc 1 195 0
 353 0024 944A     		ldr	r2, .L15+20
 354              		.loc 1 196 0
 355 0026 9548     		ldr	r0, .L15+24
 356              		.loc 1 173 0
 357 0028 6360     		str	r3, [r4, #4]	@ float
 358              		.loc 1 175 0
 359 002a E360     		str	r3, [r4, #12]	@ float
 360              		.loc 1 198 0
 361 002c 6366     		str	r3, [r4, #100]	@ float
 362              		.loc 1 200 0
 363 002e E366     		str	r3, [r4, #108]	@ float
 364              		.loc 1 202 0
 365 0030 6367     		str	r3, [r4, #116]	@ float
 366              		.loc 1 183 0
 367 0032 4FF08243 		mov	r3, #1090519040
 368              		.loc 1 174 0
 369 0036 924D     		ldr	r5, .L15+28
 370              		.loc 1 184 0
 371 0038 DFF8A4B2 		ldr	fp, .L15+124
 372              		.loc 1 192 0
 373 003c DFF8A4A2 		ldr	r10, .L15+128
 374              		.loc 1 193 0
 375 0040 DFF8A492 		ldr	r9, .L15+132
 376              		.loc 1 177 0
 377 0044 C4F81480 		str	r8, [r4, #20]	@ float
 378              		.loc 1 178 0
 379 0048 A661     		str	r6, [r4, #24]	@ float
 380              		.loc 1 176 0
 381 004a DFF8A082 		ldr	r8, .L15+136
 382              		.loc 1 180 0
 383 004e 8D4E     		ldr	r6, .L15+32
 384              		.loc 1 179 0
 385 0050 C4F81CC0 		str	ip, [r4, #28]	@ float
 386              		.loc 1 181 0
 387 0054 6762     		str	r7, [r4, #36]	@ float
 388              		.loc 1 188 0
 389 0056 DFF898C2 		ldr	ip, .L15+140
 390              		.loc 1 189 0
 391 005a 8B4F     		ldr	r7, .L15+36
 392              		.loc 1 194 0
 393 005c A165     		str	r1, [r4, #88]	@ float
 394              		.loc 1 195 0
 395 005e E265     		str	r2, [r4, #92]	@ float
 396              		.loc 1 168 0
 397 0060 0121     		movs	r1, #1
ARM GAS  /tmp/cc3hri4p.s 			page 8


 398              		.loc 1 169 0
 399 0062 0022     		movs	r2, #0
 400              		.loc 1 196 0
 401 0064 2066     		str	r0, [r4, #96]	@ float
 402              		.loc 1 183 0
 403 0066 E362     		str	r3, [r4, #44]	@ float
 404              		.loc 1 170 0
 405 0068 0220     		movs	r0, #2
 406              		.loc 1 186 0
 407 006a A363     		str	r3, [r4, #56]	@ float
 408              		.loc 1 185 0
 409 006c 874B     		ldr	r3, .L15+40
 410              		.loc 1 182 0
 411 006e C4ED0A7A 		fsts	s15, [r4, #40]
 412              		.loc 1 184 0
 413 0072 C4F830B0 		str	fp, [r4, #48]	@ float
 414              		.loc 1 192 0
 415 0076 C4F850A0 		str	r10, [r4, #80]	@ float
 416              		.loc 1 193 0
 417 007a C4F85490 		str	r9, [r4, #84]	@ float
 418              		.loc 1 168 0
 419 007e 2170     		strb	r1, [r4]
 420              		.loc 1 187 0
 421 0080 84F83C10 		strb	r1, [r4, #60]
 422              		.loc 1 170 0
 423 0084 A070     		strb	r0, [r4, #2]
 424              		.loc 1 174 0
 425 0086 A560     		str	r5, [r4, #8]	@ float
 426              		.loc 1 199 0
 427 0088 A566     		str	r5, [r4, #104]	@ float
 428              		.loc 1 176 0
 429 008a C4F81080 		str	r8, [r4, #16]	@ float
 430              		.loc 1 201 0
 431 008e C4F87080 		str	r8, [r4, #112]	@ float
 432              		.loc 1 180 0
 433 0092 2662     		str	r6, [r4, #32]	@ float
 434              		.loc 1 185 0
 435 0094 6363     		str	r3, [r4, #52]	@ float
 436              		.loc 1 188 0
 437 0096 C4F840C0 		str	ip, [r4, #64]	@ float
 438              		.loc 1 190 0
 439 009a C4F848C0 		str	ip, [r4, #72]	@ float
 440              		.loc 1 189 0
 441 009e 6764     		str	r7, [r4, #68]	@ float
 442              		.loc 1 191 0
 443 00a0 E764     		str	r7, [r4, #76]	@ float
 444              		.loc 1 169 0
 445 00a2 6270     		strb	r2, [r4, #1]
 446              		.loc 1 171 0
 447 00a4 E270     		strb	r2, [r4, #3]
 448              		.loc 1 203 0
 449 00a6 A567     		str	r5, [r4, #120]	@ float
 450              		.loc 1 206 0
 451 00a8 C4F88430 		str	r3, [r4, #132]	@ float
 452              		.loc 1 238 0
 453 00ac C4F8DC30 		str	r3, [r4, #220]	@ float
 454              		.loc 1 215 0
ARM GAS  /tmp/cc3hri4p.s 			page 9


 455 00b0 0323     		movs	r3, #3
 456 00b2 84F89A30 		strb	r3, [r4, #154]
 457              		.loc 1 217 0
 458 00b6 0523     		movs	r3, #5
 459              		.loc 1 207 0
 460 00b8 DFED757A 		flds	s15, .L15+44
 461              		.loc 1 217 0
 462 00bc 84F89C30 		strb	r3, [r4, #156]
 463              		.loc 1 218 0
 464 00c0 0623     		movs	r3, #6
 465              		.loc 1 228 0
 466 00c2 DFF83092 		ldr	r9, .L15+144
 467              		.loc 1 218 0
 468 00c6 84F89D30 		strb	r3, [r4, #157]
 469              		.loc 1 219 0
 470 00ca 0423     		movs	r3, #4
 471              		.loc 1 208 0
 472 00cc DFF828A2 		ldr	r10, .L15+148
 473              		.loc 1 210 0
 474 00d0 DFF828B2 		ldr	fp, .L15+152
 475              		.loc 1 211 0
 476 00d4 9FED6F6A 		flds	s12, .L15+48
 477              		.loc 1 224 0
 478 00d8 DFED6F6A 		flds	s13, .L15+52
 479              		.loc 1 225 0
 480 00dc 9FED6F7A 		flds	s14, .L15+56
 481              		.loc 1 226 0
 482 00e0 6F4D     		ldr	r5, .L15+60
 483              		.loc 1 207 0
 484 00e2 C4ED207A 		fsts	s15, [r4, #128]
 485              		.loc 1 219 0
 486 00e6 84F89E30 		strb	r3, [r4, #158]
 487              		.loc 1 235 0
 488 00ea DFED6E7A 		flds	s15, .L15+64
 489              		.loc 1 239 0
 490 00ee 6E4B     		ldr	r3, .L15+68
 491              		.loc 1 228 0
 492 00f0 C4F8B490 		str	r9, [r4, #180]	@ float
 493              		.loc 1 205 0
 494 00f4 DFED6D5A 		flds	s11, .L15+72
 495              		.loc 1 229 0
 496 00f8 DFF80492 		ldr	r9, .L15+156
 497              		.loc 1 221 0
 498 00fc 6C4F     		ldr	r7, .L15+76
 499              		.loc 1 209 0
 500 00fe C4F88C60 		str	r6, [r4, #140]	@ float
 501              		.loc 1 233 0
 502 0102 DFF80082 		ldr	r8, .L15+160
 503              		.loc 1 223 0
 504 0106 6B4E     		ldr	r6, .L15+80
 505              		.loc 1 234 0
 506 0108 DFF8FCC1 		ldr	ip, .L15+164
 507              		.loc 1 208 0
 508 010c C4F888A0 		str	r10, [r4, #136]	@ float
 509              		.loc 1 210 0
 510 0110 C4F890B0 		str	fp, [r4, #144]	@ float
 511              		.loc 1 236 0
ARM GAS  /tmp/cc3hri4p.s 			page 10


 512 0114 DFF8F4A1 		ldr	r10, .L15+168
 513              		.loc 1 237 0
 514 0118 DFF8F4B1 		ldr	fp, .L15+172
 515              		.loc 1 226 0
 516 011c C4F8B050 		str	r5, [r4, #176]	@ float
 517              		.loc 1 229 0
 518 0120 C4F8BC90 		str	r9, [r4, #188]	@ float
 519              		.loc 1 232 0
 520 0124 644D     		ldr	r5, .L15+84
 521              		.loc 1 240 0
 522 0126 DFF8EC91 		ldr	r9, .L15+176
 523              		.loc 1 239 0
 524 012a C4F8E030 		str	r3, [r4, #224]	@ float
 525              		.loc 1 213 0
 526 012e FF23     		movs	r3, #255
 527              		.loc 1 214 0
 528 0130 84F89910 		strb	r1, [r4, #153]
 529              		.loc 1 216 0
 530 0134 84F89B00 		strb	r0, [r4, #155]
 531              		.loc 1 230 0
 532 0138 84F8F810 		strb	r1, [r4, #248]
 533              		.loc 1 211 0
 534 013c 84ED256A 		fsts	s12, [r4, #148]
 535              		.loc 1 224 0
 536 0140 C4ED2A6A 		fsts	s13, [r4, #168]
 537              		.loc 1 225 0
 538 0144 84ED2B7A 		fsts	s14, [r4, #172]
 539              		.loc 1 233 0
 540 0148 C4F8C080 		str	r8, [r4, #192]	@ float
 541              		.loc 1 234 0
 542 014c C4F8C4C0 		str	ip, [r4, #196]	@ float
 543              		.loc 1 235 0
 544 0150 C4ED327A 		fsts	s15, [r4, #200]
 545              		.loc 1 236 0
 546 0154 C4F8CCA0 		str	r10, [r4, #204]	@ float
 547              		.loc 1 237 0
 548 0158 C4F8D0B0 		str	fp, [r4, #208]	@ float
 549              		.loc 1 213 0
 550 015c 84F89830 		strb	r3, [r4, #152]
 551              		.loc 1 220 0
 552 0160 84F89F30 		strb	r3, [r4, #159]
 553              		.loc 1 221 0
 554 0164 C4F8A070 		str	r7, [r4, #160]	@ float
 555              		.loc 1 231 0
 556 0168 C4F8D470 		str	r7, [r4, #212]	@ float
 557              		.loc 1 223 0
 558 016c C4F8A460 		str	r6, [r4, #164]	@ float
 559              		.loc 1 227 0
 560 0170 84F8B820 		strb	r2, [r4, #184]
 561              		.loc 1 205 0
 562 0174 C4ED1F5A 		fsts	s11, [r4, #124]
 563              		.loc 1 232 0
 564 0178 C4F8D850 		str	r5, [r4, #216]	@ float
 565              		.loc 1 240 0
 566 017c C4F8E490 		str	r9, [r4, #228]	@ float
 567              		.loc 1 280 0
 568 0180 84F85C01 		strb	r0, [r4, #348]
ARM GAS  /tmp/cc3hri4p.s 			page 11


 569              		.loc 1 258 0
 570 0184 4D48     		ldr	r0, .L15+88
 571              		.loc 1 253 0
 572 0186 DFF89081 		ldr	r8, .L15+180
 573              		.loc 1 262 0
 574 018a DFF890C1 		ldr	ip, .L15+184
 575              		.loc 1 268 0
 576 018e DFF890A1 		ldr	r10, .L15+188
 577              		.loc 1 258 0
 578 0192 C4F81401 		str	r0, [r4, #276]	@ float
 579              		.loc 1 263 0
 580 0196 9FED4A6A 		flds	s12, .L15+92
 581              		.loc 1 271 0
 582 019a DFED4A6A 		flds	s13, .L15+96
 583              		.loc 1 273 0
 584 019e 9FED4A7A 		flds	s14, .L15+100
 585              		.loc 1 274 0
 586 01a2 DFED4A7A 		flds	s15, .L15+104
 587              		.loc 1 245 0
 588 01a6 84F8F930 		strb	r3, [r4, #249]
 589              		.loc 1 269 0
 590 01aa 4FF07E50 		mov	r0, #1065353216
 591              		.loc 1 246 0
 592 01ae 84F8FA30 		strb	r3, [r4, #250]
 593              		.loc 1 247 0
 594 01b2 84F8FB30 		strb	r3, [r4, #251]
 595              		.loc 1 248 0
 596 01b6 84F8FC30 		strb	r3, [r4, #252]
 597              		.loc 1 249 0
 598 01ba 84F8FD30 		strb	r3, [r4, #253]
 599              		.loc 1 250 0
 600 01be 84F8FE30 		strb	r3, [r4, #254]
 601              		.loc 1 251 0
 602 01c2 84F8FF30 		strb	r3, [r4, #255]
 603              		.loc 1 252 0
 604 01c6 84F80031 		strb	r3, [r4, #256]
 605              		.loc 1 264 0
 606 01ca 84F82811 		strb	r1, [r4, #296]
 607              		.loc 1 241 0
 608 01ce 404B     		ldr	r3, .L15+108
 609              		.loc 1 266 0
 610 01d0 C4F82C61 		str	r6, [r4, #300]	@ float
 611              		.loc 1 260 0
 612 01d4 3F49     		ldr	r1, .L15+112
 613              		.loc 1 253 0
 614 01d6 C4F80481 		str	r8, [r4, #260]	@ float
 615              		.loc 1 262 0
 616 01da C4F820C1 		str	ip, [r4, #288]	@ float
 617              		.loc 1 268 0
 618 01de C4F834A1 		str	r10, [r4, #308]	@ float
 619              		.loc 1 269 0
 620 01e2 C4F83801 		str	r0, [r4, #312]	@ float
 621              		.loc 1 277 0
 622 01e6 DFF83CB1 		ldr	fp, .L15+192
 623              		.loc 1 284 0
 624 01ea DFF83C91 		ldr	r9, .L15+196
 625              		.loc 1 286 0
ARM GAS  /tmp/cc3hri4p.s 			page 12


 626 01ee DFF83C81 		ldr	r8, .L15+200
 627              		.loc 1 287 0
 628 01f2 DFF83CC1 		ldr	ip, .L15+204
 629              		.loc 1 254 0
 630 01f6 84F80821 		strb	r2, [r4, #264]
 631              		.loc 1 276 0
 632 01fa 4FF4FA77 		mov	r7, #500
 633              		.loc 1 278 0
 634 01fe 4FF07C5A 		mov	r10, #1056964608
 635              		.loc 1 279 0
 636 0202 4FF40056 		mov	r6, #8192
 637              		.loc 1 283 0
 638 0206 1020     		movs	r0, #16
 639              		.loc 1 255 0
 640 0208 84F80921 		strb	r2, [r4, #265]
 641              		.loc 1 257 0
 642 020c 84F81021 		strb	r2, [r4, #272]
 643              		.loc 1 281 0
 644 0210 84F85D21 		strb	r2, [r4, #349]
 645              		.loc 1 263 0
 646 0214 84ED496A 		fsts	s12, [r4, #292]
 647              		.loc 1 271 0
 648 0218 C4ED4F6A 		fsts	s13, [r4, #316]
 649              		.loc 1 273 0
 650 021c 84ED517A 		fsts	s14, [r4, #324]
 651              		.loc 1 274 0
 652 0220 C4ED527A 		fsts	s15, [r4, #328]
 653              		.loc 1 276 0
 654 0224 C4F84C71 		str	r7, [r4, #332]
 655              		.loc 1 277 0
 656 0228 C4F850B1 		str	fp, [r4, #336]	@ float
 657              		.loc 1 278 0
 658 022c C4F854A1 		str	r10, [r4, #340]	@ float
 659              		.loc 1 279 0
 660 0230 C4F85861 		str	r6, [r4, #344]
 661              		.loc 1 241 0
 662 0234 C4F8E830 		str	r3, [r4, #232]	@ float
 663              		.loc 1 242 0
 664 0238 C4F8EC30 		str	r3, [r4, #236]	@ float
 665              		.loc 1 272 0
 666 023c C4F84031 		str	r3, [r4, #320]	@ float
 667              		.loc 1 260 0
 668 0240 C4F81811 		str	r1, [r4, #280]	@ float
 669              		.loc 1 261 0
 670 0244 C4F81C11 		str	r1, [r4, #284]	@ float
 671              		.loc 1 282 0
 672 0248 84F85E21 		strb	r2, [r4, #350]
 673              		.loc 1 285 0
 674 024c C4F86851 		str	r5, [r4, #360]	@ float
 675              		.loc 1 283 0
 676 0250 C4F86001 		str	r0, [r4, #352]
 677              		.loc 1 284 0
 678 0254 C4F86491 		str	r9, [r4, #356]	@ float
 679              		.loc 1 286 0
 680 0258 C4F86C81 		str	r8, [r4, #364]	@ float
 681              		.loc 1 287 0
 682 025c C4F870C1 		str	ip, [r4, #368]	@ float
ARM GAS  /tmp/cc3hri4p.s 			page 13


 683 0260 BDE8F88F 		pop	{r3, r4, r5, r6, r7, r8, r9, r10, fp, pc}
 684              	.LVL11:
 685              	.L16:
 686              		.align	2
 687              	.L15:
 688 0264 00007042 		.word	1114636288
 689 0268 0050C3C7 		.word	-943501312
 690 026c 00009643 		.word	1133903872
 691 0270 0080BB44 		.word	1153138688
 692 0274 3333733F 		.word	1064514355
 693 0278 00606A46 		.word	1181376512
 694 027c 00606AC6 		.word	-966107136
 695 0280 000070C2 		.word	-1032847360
 696 0284 CDCC4C3F 		.word	1061997773
 697 0288 0000C842 		.word	1120403456
 698 028c 00002041 		.word	1092616192
 699 0290 00808944 		.word	1149861888
 700 0294 00001644 		.word	1142292480
 701 0298 00004842 		.word	1112014848
 702 029c 00409C46 		.word	1184645120
 703 02a0 0AD7A33D 		.word	1034147594
 704 02a4 2E90203B 		.word	991989806
 705 02a8 00004843 		.word	1128792064
 706 02ac 00001643 		.word	1125515264
 707 02b0 0000FA44 		.word	1157234688
 708 02b4 8FC2F53C 		.word	1022739087
 709 02b8 00401C47 		.word	1193033728
 710 02bc 0000C841 		.word	1103626240
 711 02c0 00006144 		.word	1147207680
 712 02c4 0AD7233C 		.word	1008981770
 713 02c8 99BB963B 		.word	999734169
 714 02cc 0AD7233D 		.word	1025758986
 715 02d0 CDCCCC3D 		.word	1036831949
 716 02d4 6F12833B 		.word	998445679
 717 02d8 00000243 		.word	1124204544
 718 02dc 0050C347 		.word	1203982336
 719 02e0 00006442 		.word	1113849856
 720 02e4 9A99193E 		.word	1041865114
 721 02e8 0AD7A33B 		.word	1000593162
 722 02ec 000020C2 		.word	-1038090240
 723 02f0 0000AA42 		.word	1118437376
 724 02f4 00003443 		.word	1127481344
 725 02f8 00007842 		.word	1115160576
 726 02fc 00409C47 		.word	1201422336
 727 0300 0000E040 		.word	1088421888
 728 0304 8BE1EA36 		.word	921362827
 729 0308 8FC2753C 		.word	1014350479
 730 030c 50A9AB4C 		.word	1286318416
 731 0310 9A99993E 		.word	1050253722
 732 0314 0000C843 		.word	1137180672
 733 0318 00401C45 		.word	1159479296
 734 031c 17B7D138 		.word	953267991
 735 0320 17B7D139 		.word	970045207
 736 0324 0AD7A33C 		.word	1017370378
 737 0328 00803B45 		.word	1161527296
 738 032c 00B80847 		.word	1191753728
 739 0330 00405345 		.word	1163083776
ARM GAS  /tmp/cc3hri4p.s 			page 14


 740              		.cfi_endproc
 741              	.LFE221:
 742              		.size	conf_general_get_default_mc_configuration, .-conf_general_get_default_mc_configuration
 743 0334 AFF30080 		.section	.text.conf_general_read_app_configuration,"ax",%progbits
 743      AFF30080 
 743      AFF30080 
 744              		.align	2
 745              		.p2align 4,,15
 746              		.global	conf_general_read_app_configuration
 747              		.thumb
 748              		.thumb_func
 749              		.type	conf_general_read_app_configuration, %function
 750              	conf_general_read_app_configuration:
 751              	.LFB222:
 752              		.loc 1 296 0
 753              		.cfi_startproc
 754              		@ args = 0, pretend = 0, frame = 8
 755              		@ frame_needed = 0, uses_anonymous_args = 0
 756              	.LVL12:
 757 0000 F0B5     		push	{r4, r5, r6, r7, lr}
 758              		.cfi_def_cfa_offset 20
 759              		.cfi_offset 4, -20
 760              		.cfi_offset 5, -16
 761              		.cfi_offset 6, -12
 762              		.cfi_offset 7, -8
 763              		.cfi_offset 14, -4
 764 0002 0746     		mov	r7, r0
 765              	.LVL13:
 766 0004 83B0     		sub	sp, sp, #12
 767              		.cfi_def_cfa_offset 32
 768 0006 0546     		mov	r5, r0
 769              		.loc 1 296 0
 770 0008 4FF4FA64 		mov	r4, #2000
 771              	.LBB4:
 772              		.loc 1 301 0
 773 000c 40F63406 		movw	r6, #2100
 774 0010 09E0     		b	.L20
 775              	.LVL14:
 776              	.L21:
 777              		.loc 1 303 0
 778 0012 BDF80630 		ldrh	r3, [sp, #6]
 779              		.loc 1 304 0
 780 0016 6B70     		strb	r3, [r5, #1]
 781              		.loc 1 301 0
 782 0018 B442     		cmp	r4, r6
 783              		.loc 1 303 0
 784 001a 4FEA1323 		lsr	r3, r3, #8
 785 001e 2B70     		strb	r3, [r5]
 786 0020 05F10205 		add	r5, r5, #2
 787              		.loc 1 301 0
 788 0024 0BD0     		beq	.L17
 789              	.L20:
 790              		.loc 1 302 0
 791 0026 2046     		mov	r0, r4
 792 0028 0DF10601 		add	r1, sp, #6
 793 002c FFF7FEFF 		bl	EE_ReadVariable
 794              	.LVL15:
ARM GAS  /tmp/cc3hri4p.s 			page 15


 795 0030 0134     		adds	r4, r4, #1
 796 0032 A4B2     		uxth	r4, r4
 797 0034 0028     		cmp	r0, #0
 798 0036 ECD0     		beq	.L21
 799              	.LVL16:
 800              	.LBE4:
 801              		.loc 1 313 0
 802 0038 3846     		mov	r0, r7
 803 003a FFF7FEFF 		bl	conf_general_get_default_app_configuration
 804              	.LVL17:
 805              	.L17:
 806              		.loc 1 315 0
 807 003e 03B0     		add	sp, sp, #12
 808              		@ sp needed
 809 0040 F0BD     		pop	{r4, r5, r6, r7, pc}
 810              		.cfi_endproc
 811              	.LFE222:
 812              		.size	conf_general_read_app_configuration, .-conf_general_read_app_configuration
 813 0042 00BFAFF3 		.section	.text.conf_general_store_app_configuration,"ax",%progbits
 813      0080AFF3 
 813      0080AFF3 
 813      0080
 814              		.align	2
 815              		.p2align 4,,15
 816              		.global	conf_general_store_app_configuration
 817              		.thumb
 818              		.thumb_func
 819              		.type	conf_general_store_app_configuration, %function
 820              	conf_general_store_app_configuration:
 821              	.LFB223:
 822              		.loc 1 323 0
 823              		.cfi_startproc
 824              		@ args = 0, pretend = 0, frame = 0
 825              		@ frame_needed = 0, uses_anonymous_args = 0
 826              	.LVL18:
 827 0000 70B5     		push	{r4, r5, r6, lr}
 828              		.cfi_def_cfa_offset 16
 829              		.cfi_offset 4, -16
 830              		.cfi_offset 5, -12
 831              		.cfi_offset 6, -8
 832              		.cfi_offset 14, -4
 833              		.loc 1 323 0
 834 0002 0446     		mov	r4, r0
 835              		.loc 1 324 0
 836 0004 FFF7FEFF 		bl	mc_interface_unlock
 837              	.LVL19:
 838              		.loc 1 325 0
 839 0008 FFF7FEFF 		bl	mc_interface_release_motor
 840              	.LVL20:
 841              		.loc 1 327 0
 842 000c FFF7FEFF 		bl	utils_sys_lock_cnt
 843              	.LVL21:
 844              		.loc 1 328 0
 845 0010 FFF7FEFF 		bl	mc_interface_lock
 846              	.LVL22:
 847              		.loc 1 330 0
 848 0014 4FF40060 		mov	r0, #2048
ARM GAS  /tmp/cc3hri4p.s 			page 16


 849 0018 0021     		movs	r1, #0
 850 001a FFF7FEFF 		bl	RCC_APB1PeriphClockCmd
 851              	.LVL23:
 852              		.loc 1 336 0
 853 001e F220     		movs	r0, #242
 854 0020 FFF7FEFF 		bl	FLASH_ClearFlag
 855              	.LVL24:
 856 0024 4FF4FA65 		mov	r5, #2000
 857              	.LBB5:
 858              		.loc 1 339 0
 859 0028 40F63406 		movw	r6, #2100
 860 002c 01E0     		b	.L24
 861              	.LVL25:
 862              	.L28:
 863 002e B542     		cmp	r5, r6
 864 0030 1CD0     		beq	.L27
 865              	.L24:
 866              		.loc 1 340 0
 867 0032 2178     		ldrb	r1, [r4]	@ zero_extendqisi2
 868              	.LVL26:
 869              		.loc 1 341 0
 870 0034 6378     		ldrb	r3, [r4, #1]	@ zero_extendqisi2
 871              		.loc 1 343 0
 872 0036 2846     		mov	r0, r5
 873 0038 43EA0121 		orr	r1, r3, r1, lsl #8
 874              	.LVL27:
 875 003c FFF7FEFF 		bl	EE_WriteVariable
 876              	.LVL28:
 877 0040 0135     		adds	r5, r5, #1
 878 0042 0928     		cmp	r0, #9
 879 0044 ADB2     		uxth	r5, r5
 880 0046 04F10204 		add	r4, r4, #2
 881 004a F0D0     		beq	.L28
 882              		.loc 1 344 0
 883 004c 0024     		movs	r4, #0
 884              	.L23:
 885              	.LVL29:
 886              	.LBE5:
 887              		.loc 1 349 0
 888 004e 0121     		movs	r1, #1
 889 0050 4FF40060 		mov	r0, #2048
 890 0054 FFF7FEFF 		bl	RCC_APB1PeriphClockCmd
 891              	.LVL30:
 892              		.loc 1 351 0
 893 0058 4FF47A70 		mov	r0, #1000
 894 005c FFF7FEFF 		bl	chThdSleep
 895              	.LVL31:
 896              		.loc 1 352 0
 897 0060 FFF7FEFF 		bl	mc_interface_unlock
 898              	.LVL32:
 899              		.loc 1 353 0
 900 0064 FFF7FEFF 		bl	utils_sys_unlock_cnt
 901              	.LVL33:
 902              		.loc 1 356 0
 903 0068 2046     		mov	r0, r4
 904 006a 70BD     		pop	{r4, r5, r6, pc}
 905              	.LVL34:
ARM GAS  /tmp/cc3hri4p.s 			page 17


 906              	.L27:
 907              		.loc 1 332 0
 908 006c 0124     		movs	r4, #1
 909 006e EEE7     		b	.L23
 910              		.cfi_endproc
 911              	.LFE223:
 912              		.size	conf_general_store_app_configuration, .-conf_general_store_app_configuration
 913              		.section	.text.conf_general_read_mc_configuration,"ax",%progbits
 914              		.align	2
 915              		.p2align 4,,15
 916              		.global	conf_general_read_mc_configuration
 917              		.thumb
 918              		.thumb_func
 919              		.type	conf_general_read_mc_configuration, %function
 920              	conf_general_read_mc_configuration:
 921              	.LFB224:
 922              		.loc 1 364 0
 923              		.cfi_startproc
 924              		@ args = 0, pretend = 0, frame = 8
 925              		@ frame_needed = 0, uses_anonymous_args = 0
 926              	.LVL35:
 927 0000 F0B5     		push	{r4, r5, r6, r7, lr}
 928              		.cfi_def_cfa_offset 20
 929              		.cfi_offset 4, -20
 930              		.cfi_offset 5, -16
 931              		.cfi_offset 6, -12
 932              		.cfi_offset 7, -8
 933              		.cfi_offset 14, -4
 934 0002 0746     		mov	r7, r0
 935              	.LVL36:
 936 0004 83B0     		sub	sp, sp, #12
 937              		.cfi_def_cfa_offset 32
 938 0006 0546     		mov	r5, r0
 939              		.loc 1 364 0
 940 0008 4FF47A74 		mov	r4, #1000
 941              	.LBB6:
 942              		.loc 1 369 0
 943 000c 40F2A246 		movw	r6, #1186
 944 0010 09E0     		b	.L32
 945              	.LVL37:
 946              	.L33:
 947              		.loc 1 371 0
 948 0012 BDF80630 		ldrh	r3, [sp, #6]
 949              		.loc 1 372 0
 950 0016 6B70     		strb	r3, [r5, #1]
 951              		.loc 1 369 0
 952 0018 B442     		cmp	r4, r6
 953              		.loc 1 371 0
 954 001a 4FEA1323 		lsr	r3, r3, #8
 955 001e 2B70     		strb	r3, [r5]
 956 0020 05F10205 		add	r5, r5, #2
 957              		.loc 1 369 0
 958 0024 0BD0     		beq	.L29
 959              	.L32:
 960              		.loc 1 370 0
 961 0026 2046     		mov	r0, r4
 962 0028 0DF10601 		add	r1, sp, #6
ARM GAS  /tmp/cc3hri4p.s 			page 18


 963 002c FFF7FEFF 		bl	EE_ReadVariable
 964              	.LVL38:
 965 0030 0134     		adds	r4, r4, #1
 966 0032 A4B2     		uxth	r4, r4
 967 0034 0028     		cmp	r0, #0
 968 0036 ECD0     		beq	.L33
 969              	.LVL39:
 970              	.LBE6:
 971              		.loc 1 380 0
 972 0038 3846     		mov	r0, r7
 973 003a FFF7FEFF 		bl	conf_general_get_default_mc_configuration
 974              	.LVL40:
 975              	.L29:
 976              		.loc 1 382 0
 977 003e 03B0     		add	sp, sp, #12
 978              		@ sp needed
 979 0040 F0BD     		pop	{r4, r5, r6, r7, pc}
 980              		.cfi_endproc
 981              	.LFE224:
 982              		.size	conf_general_read_mc_configuration, .-conf_general_read_mc_configuration
 983 0042 00BFAFF3 		.section	.text.conf_general_store_mc_configuration,"ax",%progbits
 983      0080AFF3 
 983      0080AFF3 
 983      0080
 984              		.align	2
 985              		.p2align 4,,15
 986              		.global	conf_general_store_mc_configuration
 987              		.thumb
 988              		.thumb_func
 989              		.type	conf_general_store_mc_configuration, %function
 990              	conf_general_store_mc_configuration:
 991              	.LFB225:
 992              		.loc 1 390 0
 993              		.cfi_startproc
 994              		@ args = 0, pretend = 0, frame = 0
 995              		@ frame_needed = 0, uses_anonymous_args = 0
 996              	.LVL41:
 997 0000 70B5     		push	{r4, r5, r6, lr}
 998              		.cfi_def_cfa_offset 16
 999              		.cfi_offset 4, -16
 1000              		.cfi_offset 5, -12
 1001              		.cfi_offset 6, -8
 1002              		.cfi_offset 14, -4
 1003              		.loc 1 390 0
 1004 0002 0446     		mov	r4, r0
 1005              		.loc 1 391 0
 1006 0004 FFF7FEFF 		bl	mc_interface_unlock
 1007              	.LVL42:
 1008              		.loc 1 392 0
 1009 0008 FFF7FEFF 		bl	mc_interface_release_motor
 1010              	.LVL43:
 1011              		.loc 1 394 0
 1012 000c FFF7FEFF 		bl	utils_sys_lock_cnt
 1013              	.LVL44:
 1014              		.loc 1 395 0
 1015 0010 FFF7FEFF 		bl	mc_interface_lock
 1016              	.LVL45:
ARM GAS  /tmp/cc3hri4p.s 			page 19


 1017              		.loc 1 397 0
 1018 0014 4FF40060 		mov	r0, #2048
 1019 0018 0021     		movs	r1, #0
 1020 001a FFF7FEFF 		bl	RCC_APB1PeriphClockCmd
 1021              	.LVL46:
 1022              		.loc 1 403 0
 1023 001e F220     		movs	r0, #242
 1024 0020 FFF7FEFF 		bl	FLASH_ClearFlag
 1025              	.LVL47:
 1026 0024 4FF47A75 		mov	r5, #1000
 1027              	.LBB7:
 1028              		.loc 1 406 0
 1029 0028 40F2A246 		movw	r6, #1186
 1030 002c 01E0     		b	.L36
 1031              	.LVL48:
 1032              	.L40:
 1033 002e B542     		cmp	r5, r6
 1034 0030 1CD0     		beq	.L39
 1035              	.L36:
 1036              		.loc 1 407 0
 1037 0032 2178     		ldrb	r1, [r4]	@ zero_extendqisi2
 1038              	.LVL49:
 1039              		.loc 1 408 0
 1040 0034 6378     		ldrb	r3, [r4, #1]	@ zero_extendqisi2
 1041              		.loc 1 410 0
 1042 0036 2846     		mov	r0, r5
 1043 0038 43EA0121 		orr	r1, r3, r1, lsl #8
 1044              	.LVL50:
 1045 003c FFF7FEFF 		bl	EE_WriteVariable
 1046              	.LVL51:
 1047 0040 0135     		adds	r5, r5, #1
 1048 0042 0928     		cmp	r0, #9
 1049 0044 ADB2     		uxth	r5, r5
 1050 0046 04F10204 		add	r4, r4, #2
 1051 004a F0D0     		beq	.L40
 1052              		.loc 1 411 0
 1053 004c 0024     		movs	r4, #0
 1054              	.L35:
 1055              	.LVL52:
 1056              	.LBE7:
 1057              		.loc 1 416 0
 1058 004e 0121     		movs	r1, #1
 1059 0050 4FF40060 		mov	r0, #2048
 1060 0054 FFF7FEFF 		bl	RCC_APB1PeriphClockCmd
 1061              	.LVL53:
 1062              		.loc 1 418 0
 1063 0058 4FF47A70 		mov	r0, #1000
 1064 005c FFF7FEFF 		bl	chThdSleep
 1065              	.LVL54:
 1066              		.loc 1 419 0
 1067 0060 FFF7FEFF 		bl	mc_interface_unlock
 1068              	.LVL55:
 1069              		.loc 1 420 0
 1070 0064 FFF7FEFF 		bl	utils_sys_unlock_cnt
 1071              	.LVL56:
 1072              		.loc 1 423 0
 1073 0068 2046     		mov	r0, r4
ARM GAS  /tmp/cc3hri4p.s 			page 20


 1074 006a 70BD     		pop	{r4, r5, r6, pc}
 1075              	.LVL57:
 1076              	.L39:
 1077              		.loc 1 399 0
 1078 006c 0124     		movs	r4, #1
 1079 006e EEE7     		b	.L35
 1080              		.cfi_endproc
 1081              	.LFE225:
 1082              		.size	conf_general_store_mc_configuration, .-conf_general_store_mc_configuration
 1083              		.section	.text.conf_general_detect_motor_param,"ax",%progbits
 1084              		.align	2
 1085              		.p2align 4,,15
 1086              		.global	conf_general_detect_motor_param
 1087              		.thumb
 1088              		.thumb_func
 1089              		.type	conf_general_detect_motor_param, %function
 1090              	conf_general_detect_motor_param:
 1091              	.LFB226:
 1092              		.loc 1 426 0
 1093              		.cfi_startproc
 1094              		@ args = 0, pretend = 0, frame = 8
 1095              		@ frame_needed = 0, uses_anonymous_args = 0
 1096              	.LVL58:
 1097 0000 2DE9F04F 		push	{r4, r5, r6, r7, r8, r9, r10, fp, lr}
 1098              		.cfi_def_cfa_offset 36
 1099              		.cfi_offset 4, -36
 1100              		.cfi_offset 5, -32
 1101              		.cfi_offset 6, -28
 1102              		.cfi_offset 7, -24
 1103              		.cfi_offset 8, -20
 1104              		.cfi_offset 9, -16
 1105              		.cfi_offset 10, -12
 1106              		.cfi_offset 11, -8
 1107              		.cfi_offset 14, -4
 1108 0004 2DED088B 		fstmfdd	sp!, {d8, d9, d10, d11}
 1109              		.cfi_def_cfa_offset 68
 1110              		.cfi_offset 80, -68
 1111              		.cfi_offset 82, -60
 1112              		.cfi_offset 84, -52
 1113              		.cfi_offset 86, -44
 1114 0008 83B0     		sub	sp, sp, #12
 1115              		.cfi_def_cfa_offset 80
 1116              		.loc 1 426 0
 1117 000a F0EE609A 		fcpys	s19, s1
 1118 000e B0EE40AA 		fcpys	s20, s0
 1119 0012 B0EE419A 		fcpys	s18, s2
 1120 0016 0193     		str	r3, [sp, #4]
 1121 0018 8A46     		mov	r10, r1
 1122 001a 9346     		mov	fp, r2
 1123 001c 8046     		mov	r8, r0
 1124              		.loc 1 431 0
 1125 001e FFF7FEFF 		bl	mc_interface_get_configuration
 1126              	.LVL59:
 1127 0022 B94F     		ldr	r7, .L103
 1128              		.loc 1 439 0
 1129 0024 B94C     		ldr	r4, .L103+4
 1130              		.loc 1 431 0
ARM GAS  /tmp/cc3hri4p.s 			page 21


 1131 0026 0146     		mov	r1, r0
 1132 0028 4FF4BA72 		mov	r2, #372
 1133 002c 3846     		mov	r0, r7
 1134 002e FFF7FEFF 		bl	memcpy
 1135              	.LVL60:
 1136              		.loc 1 432 0
 1137 0032 3946     		mov	r1, r7
 1138 0034 4FF4BA72 		mov	r2, #372
 1139 0038 B548     		ldr	r0, .L103+8
 1140 003a FFF7FEFF 		bl	memcpy
 1141              	.LVL61:
 1142              		.loc 1 437 0
 1143 003e 4FF07E55 		mov	r5, #1065353216
 1144              		.loc 1 434 0
 1145 0042 0023     		movs	r3, #0
 1146              		.loc 1 440 0
 1147 0044 B349     		ldr	r1, .L103+12
 1148              		.loc 1 441 0
 1149 0046 B44A     		ldr	r2, .L103+16
 1150              		.loc 1 439 0
 1151 0048 C7F89440 		str	r4, [r7, #148]	@ float
 1152              		.loc 1 443 0
 1153 004c 3846     		mov	r0, r7
 1154              		.loc 1 438 0
 1155 004e C7ED1F9A 		fsts	s19, [r7, #124]
 1156              		.loc 1 437 0
 1157 0052 C7F88C50 		str	r5, [r7, #140]	@ float
 1158              		.loc 1 440 0
 1159 0056 C7F88810 		str	r1, [r7, #136]	@ float
 1160              		.loc 1 441 0
 1161 005a C7F88020 		str	r2, [r7, #128]	@ float
 1162              		.loc 1 434 0
 1163 005e BB70     		strb	r3, [r7, #2]
 1164              		.loc 1 435 0
 1165 0060 FB70     		strb	r3, [r7, #3]
 1166              		.loc 1 436 0
 1167 0062 7B70     		strb	r3, [r7, #1]
 1168              		.loc 1 442 0
 1169 0064 87F85D31 		strb	r3, [r7, #349]
 1170              		.loc 1 443 0
 1171 0068 4FF4FA74 		mov	r4, #500
 1172 006c FFF7FEFF 		bl	mc_interface_set_configuration
 1173              	.LVL62:
 1174 0070 04E0     		b	.L45
 1175              	.LVL63:
 1176              	.L42:
 1177              	.LBB8:
 1178              		.loc 1 450 0
 1179 0072 6420     		movs	r0, #100
 1180 0074 FFF7FEFF 		bl	chThdSleep
 1181              	.LVL64:
 1182              		.loc 1 446 0
 1183 0078 013C     		subs	r4, r4, #1
 1184              	.LVL65:
 1185 007a 03D0     		beq	.L44
 1186              	.LVL66:
 1187              	.L45:
ARM GAS  /tmp/cc3hri4p.s 			page 22


 1188              		.loc 1 447 0
 1189 007c FFF7FEFF 		bl	mc_interface_get_fault
 1190              	.LVL67:
 1191 0080 0028     		cmp	r0, #0
 1192 0082 F6D1     		bne	.L42
 1193              	.LVL68:
 1194              	.L44:
 1195              	.LBE8:
 1196              		.loc 1 455 0
 1197 0084 42F21070 		movw	r0, #10000
 1198 0088 FFF7FEFF 		bl	chThdSleep
 1199              	.LVL69:
 1200              		.loc 1 458 0
 1201 008c FFF7FEFF 		bl	timeout_get_timeout_msec
 1202              	.LVL70:
 1203 0090 8146     		mov	r9, r0
 1204              	.LVL71:
 1205              		.loc 1 459 0
 1206 0092 FFF7FEFF 		bl	timeout_get_brake_current
 1207              	.LVL72:
 1208 0096 F0EE40AA 		fcpys	s21, s0
 1209              	.LVL73:
 1210              		.loc 1 460 0
 1211 009a FFF7FEFF 		bl	timeout_reset
 1212              	.LVL74:
 1213              		.loc 1 461 0
 1214 009e 4EF66020 		movw	r0, #60000
 1215 00a2 9FED9E0A 		flds	s0, .L103+20
 1216 00a6 FFF7FEFF 		bl	timeout_configure
 1217              	.LVL75:
 1218              		.loc 1 463 0
 1219 00aa FFF7FEFF 		bl	mc_interface_lock
 1220              	.LVL76:
 1221              		.loc 1 465 0
 1222 00ae FFF7FEFF 		bl	mc_interface_lock_override_once
 1223              	.LVL77:
 1224              		.loc 1 466 0
 1225 00b2 B0EE4A0A 		fcpys	s0, s20
 1226 00b6 FFF7FEFF 		bl	mc_interface_set_current
 1227              	.LVL78:
 1228              	.LBB9:
 1229              		.loc 1 470 0
 1230 00ba 0026     		movs	r6, #0
 1231              	.LBB10:
 1232              		.loc 1 484 0
 1233 00bc B1EE00BA 		fconsts	s22, #16
 1234              	.LVL79:
 1235              	.L43:
 1236              		.loc 1 471 0
 1237 00c0 012E     		cmp	r6, #1
 1238 00c2 00F0FA80 		beq	.L94
 1239              		.loc 1 481 0
 1240 00c6 022E     		cmp	r6, #2
 1241 00c8 00F01281 		beq	.L95
 1242              	.L47:
 1243              	.LBE10:
 1244              		.loc 1 470 0 discriminator 1
ARM GAS  /tmp/cc3hri4p.s 			page 23


 1245 00cc 0025     		movs	r5, #0
 1246 00ce 2C46     		mov	r4, r5
 1247              	.LBB11:
 1248              		.loc 1 497 0 discriminator 1
 1249 00d0 B6EE008A 		fconsts	s16, #96
 1250              		.loc 1 501 0 discriminator 1
 1251 00d4 F5EE008A 		fconsts	s17, #80
 1252              	.L54:
 1253              	.LVL80:
 1254              		.loc 1 497 0 discriminator 1
 1255 00d8 FFF7FEFF 		bl	mc_interface_get_duty_cycle_now
 1256              	.LVL81:
 1257 00dc B4EEC80A 		fcmpes	s0, s16
 1258 00e0 F1EE10FA 		fmstat
 1259              		.loc 1 498 0 discriminator 1
 1260 00e4 4FF00A00 		mov	r0, #10
 1261              		.loc 1 499 0 discriminator 1
 1262 00e8 04F10104 		add	r4, r4, #1
 1263              	.LVL82:
 1264              		.loc 1 497 0 discriminator 1
 1265 00ec 1CD5     		bpl	.L96
 1266              		.loc 1 498 0
 1267 00ee FFF7FEFF 		bl	chThdSleep
 1268              	.LVL83:
 1269              		.loc 1 501 0
 1270 00f2 FFF7FEFF 		bl	mc_interface_get_duty_cycle_now
 1271              	.LVL84:
 1272 00f6 B4EEE80A 		fcmpes	s0, s17
 1273 00fa F1EE10FA 		fmstat
 1274 00fe 04DB     		blt	.L90
 1275              		.loc 1 501 0 is_stmt 0 discriminator 1
 1276 0100 75B1     		cbz	r5, .L97
 1277              	.L50:
 1278              	.LVL85:
 1279              		.loc 1 506 0 is_stmt 1
 1280 0102 B4F5FA6F 		cmp	r4, #2000
 1281 0106 04DC     		bgt	.L71
 1282 0108 08E0     		b	.L72
 1283              	.LVL86:
 1284              	.L90:
 1285 010a B4F5FA6F 		cmp	r4, #2000
 1286 010e E3DD     		ble	.L54
 1287              		.loc 1 506 0 is_stmt 0 discriminator 1
 1288 0110 65B1     		cbz	r5, .L52
 1289              	.LVL87:
 1290              	.L71:
 1291              		.loc 1 511 0 is_stmt 1
 1292 0112 41F28833 		movw	r3, #5000
 1293 0116 9C42     		cmp	r4, r3
 1294 0118 00F0B980 		beq	.L53
 1295              	.L72:
 1296              	.LBE11:
 1297              		.loc 1 470 0
 1298 011c 0125     		movs	r5, #1
 1299 011e DBE7     		b	.L54
 1300              	.LVL88:
 1301              	.L97:
ARM GAS  /tmp/cc3hri4p.s 			page 24


 1302              	.LBB12:
 1303              		.loc 1 502 0
 1304 0120 0120     		movs	r0, #1
 1305 0122 FFF7FEFF 		bl	mcpwm_switch_comm_mode
 1306              	.LVL89:
 1307 0126 ECE7     		b	.L50
 1308              	.LVL90:
 1309              	.L96:
 1310              		.loc 1 517 0
 1311 0128 35B9     		cbnz	r5, .L56
 1312              		.loc 1 495 0
 1313 012a 0125     		movs	r5, #1
 1314              	.LVL91:
 1315              	.L52:
 1316              	.LBE12:
 1317              		.loc 1 470 0
 1318 012c 0136     		adds	r6, r6, #1
 1319              	.LVL92:
 1320 012e 032E     		cmp	r6, #3
 1321 0130 C6D1     		bne	.L43
 1322              	.LVL93:
 1323              	.LBE9:
 1324              		.loc 1 522 0
 1325 0132 002D     		cmp	r5, #0
 1326 0134 00F0AB80 		beq	.L53
 1327              	.LVL94:
 1328              	.L56:
 1329              		.loc 1 533 0
 1330 0138 FFF7FEFF 		bl	mcpwm_reset_hall_detect_table
 1331              	.LVL95:
 1332              		.loc 1 536 0
 1333 013c FFF7FEFF 		bl	mc_interface_lock_override_once
 1334              	.LVL96:
 1335              		.loc 1 537 0
 1336 0140 B6EE000A 		fconsts	s0, #96
 1337 0144 FFF7FEFF 		bl	mc_interface_set_duty
 1338              	.LVL97:
 1339              		.loc 1 538 0
 1340 0148 4FF47A60 		mov	r0, #4000
 1341 014c FFF7FEFF 		bl	chThdSleep
 1342              	.LVL98:
 1343              		.loc 1 541 0
 1344 0150 FFF7FEFF 		bl	mc_interface_lock_override_once
 1345              	.LVL99:
 1346              		.loc 1 542 0
 1347 0154 9FED710A 		flds	s0, .L103+20
 1348 0158 FFF7FEFF 		bl	mc_interface_set_current
 1349              	.LVL100:
 1350              		.loc 1 543 0
 1351 015c 0020     		movs	r0, #0
 1352 015e FFF7FEFF 		bl	mc_interface_get_tachometer_value
 1353              	.LVL101:
 1354 0162 4FF4FA64 		mov	r4, #2000
 1355 0166 0546     		mov	r5, r0
 1356              	.LVL102:
 1357 0168 04E0     		b	.L60
 1358              	.LVL103:
ARM GAS  /tmp/cc3hri4p.s 			page 25


 1359              	.L99:
 1360              	.LBB14:
 1361              		.loc 1 546 0
 1362 016a FFF7FEFF 		bl	chThdSleep
 1363              	.LVL104:
 1364              		.loc 1 544 0
 1365 016e 013C     		subs	r4, r4, #1
 1366              	.LVL105:
 1367 0170 00F0A180 		beq	.L98
 1368              	.LVL106:
 1369              	.L60:
 1370              		.loc 1 545 0
 1371 0174 0020     		movs	r0, #0
 1372 0176 FFF7FEFF 		bl	mc_interface_get_tachometer_value
 1373              	.LVL107:
 1374 017a 431B     		subs	r3, r0, r5
 1375 017c 022B     		cmp	r3, #2
 1376              		.loc 1 546 0
 1377 017e 4FF00A00 		mov	r0, #10
 1378              		.loc 1 545 0
 1379 0182 F2DD     		ble	.L99
 1380              		.loc 1 548 0
 1381 0184 0225     		movs	r5, #2
 1382              	.LVL108:
 1383              	.L59:
 1384              	.LBE14:
 1385              		.loc 1 554 0
 1386 0186 FFF7FEFF 		bl	mcpwm_read_reset_avg_cycle_integrator
 1387              	.LVL109:
 1388              		.loc 1 555 0
 1389 018a 0020     		movs	r0, #0
 1390 018c FFF7FEFF 		bl	mc_interface_get_tachometer_value
 1391              	.LVL110:
 1392 0190 40F6B834 		movw	r4, #3000
 1393 0194 0646     		mov	r6, r0
 1394              	.LVL111:
 1395 0196 03E0     		b	.L63
 1396              	.LVL112:
 1397              	.L100:
 1398              	.LBB15:
 1399              		.loc 1 558 0
 1400 0198 FFF7FEFF 		bl	chThdSleep
 1401              	.LVL113:
 1402              		.loc 1 556 0
 1403 019c 013C     		subs	r4, r4, #1
 1404              	.LVL114:
 1405 019e 08D0     		beq	.L62
 1406              	.LVL115:
 1407              	.L63:
 1408              		.loc 1 557 0
 1409 01a0 0020     		movs	r0, #0
 1410 01a2 FFF7FEFF 		bl	mc_interface_get_tachometer_value
 1411              	.LVL116:
 1412 01a6 831B     		subs	r3, r0, r6
 1413 01a8 312B     		cmp	r3, #49
 1414              		.loc 1 558 0
 1415 01aa 4FF00A00 		mov	r0, #10
ARM GAS  /tmp/cc3hri4p.s 			page 26


 1416              		.loc 1 557 0
 1417 01ae F3DD     		ble	.L100
 1418              		.loc 1 560 0
 1419 01b0 0135     		adds	r5, r5, #1
 1420              	.LVL117:
 1421              	.L62:
 1422              	.LBE15:
 1423              		.loc 1 566 0
 1424 01b2 5846     		mov	r0, fp
 1425 01b4 FFF7FEFF 		bl	mcpwm_get_hall_detect_result
 1426              	.LVL118:
 1427 01b8 019B     		ldr	r3, [sp, #4]
 1428 01ba 1860     		str	r0, [r3]
 1429              		.loc 1 568 0
 1430 01bc FFF7FEFF 		bl	mcpwm_read_reset_avg_cycle_integrator
 1431              	.LVL119:
 1432 01c0 41F28834 		movw	r4, #5000
 1433 01c4 88ED000A 		fsts	s0, [r8]
 1434              	.LVL120:
 1435 01c8 03E0     		b	.L67
 1436              	.LVL121:
 1437              	.L101:
 1438              	.LBB16:
 1439              		.loc 1 573 0
 1440 01ca FFF7FEFF 		bl	chThdSleep
 1441              	.LVL122:
 1442              		.loc 1 571 0
 1443 01ce 013C     		subs	r4, r4, #1
 1444              	.LVL123:
 1445 01d0 09D0     		beq	.L66
 1446              	.LVL124:
 1447              	.L67:
 1448              		.loc 1 572 0
 1449 01d2 FFF7FEFF 		bl	mc_interface_get_duty_cycle_now
 1450              	.LVL125:
 1451 01d6 B4EEC90A 		fcmpes	s0, s18
 1452 01da F1EE10FA 		fmstat
 1453              		.loc 1 573 0
 1454 01de 4FF00A00 		mov	r0, #10
 1455              		.loc 1 572 0
 1456 01e2 F2DC     		bgt	.L101
 1457              		.loc 1 575 0
 1458 01e4 0135     		adds	r5, r5, #1
 1459              	.LVL126:
 1460              	.L66:
 1461              	.LBE16:
 1462              		.loc 1 580 0
 1463 01e6 FFF7FEFF 		bl	mc_interface_lock_override_once
 1464              	.LVL127:
 1465              		.loc 1 581 0
 1466 01ea B0EE490A 		fcpys	s0, s18
 1467 01ee FFF7FEFF 		bl	mc_interface_set_duty
 1468              	.LVL128:
 1469              		.loc 1 584 0
 1470 01f2 FFF7FEFF 		bl	mcpwm_read_reset_avg_cycle_integrator
 1471              	.LVL129:
 1472              		.loc 1 585 0
ARM GAS  /tmp/cc3hri4p.s 			page 27


 1473 01f6 0020     		movs	r0, #0
 1474 01f8 FFF7FEFF 		bl	mc_interface_get_tachometer_value
 1475              	.LVL130:
 1476              		.loc 1 587 0
 1477 01fc 9FED478A 		flds	s16, .L103+20
 1478              		.loc 1 585 0
 1479 0200 0646     		mov	r6, r0
 1480              	.LVL131:
 1481              		.loc 1 586 0
 1482 0202 F0EE488A 		fcpys	s17, s16
 1483              		.loc 1 585 0
 1484 0206 40F6B834 		movw	r4, #3000
 1485              	.LBB17:
 1486              		.loc 1 591 0
 1487 020a B7EE009A 		fconsts	s18, #112
 1488              	.LVL132:
 1489 020e 0AE0     		b	.L70
 1490              	.LVL133:
 1491              	.L102:
 1492              		.loc 1 590 0
 1493 0210 FFF7FEFF 		bl	mc_interface_get_rpm
 1494              	.LVL134:
 1495              		.loc 1 592 0
 1496 0214 0A20     		movs	r0, #10
 1497              		.loc 1 590 0
 1498 0216 78EE808A 		fadds	s17, s17, s0
 1499              	.LVL135:
 1500              		.loc 1 592 0
 1501 021a FFF7FEFF 		bl	chThdSleep
 1502              	.LVL136:
 1503              		.loc 1 588 0
 1504 021e 013C     		subs	r4, r4, #1
 1505              	.LVL137:
 1506              		.loc 1 591 0
 1507 0220 38EE098A 		fadds	s16, s16, s18
 1508              	.LVL138:
 1509              		.loc 1 588 0
 1510 0224 06D0     		beq	.L69
 1511              	.LVL139:
 1512              	.L70:
 1513              		.loc 1 589 0
 1514 0226 0020     		movs	r0, #0
 1515 0228 FFF7FEFF 		bl	mc_interface_get_tachometer_value
 1516              	.LVL140:
 1517 022c 801B     		subs	r0, r0, r6
 1518 022e 6328     		cmp	r0, #99
 1519 0230 EEDD     		ble	.L102
 1520              		.loc 1 594 0
 1521 0232 0135     		adds	r5, r5, #1
 1522              	.LVL141:
 1523              	.L69:
 1524              	.LBE17:
 1525              		.loc 1 599 0
 1526 0234 FFF7FEFF 		bl	mcpwm_read_reset_avg_cycle_integrator
 1527              	.LVL142:
 1528 0238 B0EE409A 		fcpys	s18, s0
 1529              	.LVL143:
ARM GAS  /tmp/cc3hri4p.s 			page 28


 1530              		.loc 1 602 0
 1531 023c FFF7FEFF 		bl	mc_interface_lock_override_once
 1532              	.LVL144:
 1533              		.loc 1 603 0
 1534 0240 FFF7FEFF 		bl	mc_interface_release_motor
 1535              	.LVL145:
 1536              		.loc 1 607 0
 1537 0244 364B     		ldr	r3, .L103+24
 1538              		.loc 1 606 0
 1539 0246 98ED007A 		flds	s14, [r8]
 1540              		.loc 1 607 0
 1541 024a 1B8A     		ldrh	r3, [r3, #16]
 1542              		.loc 1 612 0
 1543 024c 3048     		ldr	r0, .L103+8
 1544              		.loc 1 607 0
 1545 024e 9BB2     		uxth	r3, r3
 1546              		.loc 1 606 0
 1547 0250 39EE479A 		fsubs	s18, s18, s14
 1548              	.LVL146:
 1549              		.loc 1 607 0
 1550 0254 07EE103A 		fmsr	s14, r3	@ int
 1551 0258 F8EE477A 		fuitos	s15, s14
 1552              		.loc 1 600 0
 1553 025c 88EE888A 		fdivs	s16, s17, s16
 1554              	.LVL147:
 1555              		.loc 1 607 0
 1556 0260 C9EE277A 		fdivs	s15, s18, s15
 1557              	.LVL148:
 1558              		.loc 1 608 0
 1559 0264 67EE887A 		fmuls	s15, s15, s16
 1560              	.LVL149:
 1561              		.loc 1 609 0
 1562 0268 CAED007A 		fsts	s15, [r10]
 1563              		.loc 1 612 0
 1564 026c FFF7FEFF 		bl	mc_interface_set_configuration
 1565              	.LVL150:
 1566              		.loc 1 613 0
 1567 0270 4846     		mov	r0, r9
 1568 0272 B0EE6A0A 		fcpys	s0, s21
 1569 0276 FFF7FEFF 		bl	timeout_configure
 1570              	.LVL151:
 1571              		.loc 1 615 0
 1572 027a FFF7FEFF 		bl	mc_interface_unlock
 1573              	.LVL152:
 1574              		.loc 1 617 0
 1575 027e 6B1F     		subs	r3, r5, #5
 1576 0280 5842     		rsbs	r0, r3, #0
 1577 0282 5841     		adcs	r0, r0, r3
 1578              		.loc 1 618 0
 1579 0284 03B0     		add	sp, sp, #12
 1580              		@ sp needed
 1581 0286 BDEC088B 		fldmfdd	sp!, {d8-d11}
 1582              	.LVL153:
 1583 028a BDE8F08F 		pop	{r4, r5, r6, r7, r8, r9, r10, fp, pc}
 1584              	.LVL154:
 1585              	.L53:
 1586              		.loc 1 523 0
ARM GAS  /tmp/cc3hri4p.s 			page 29


 1587 028e 9FED230A 		flds	s0, .L103+20
 1588 0292 FFF7FEFF 		bl	mc_interface_set_current
 1589              	.LVL155:
 1590              		.loc 1 524 0
 1591 0296 B0EE6A0A 		fcpys	s0, s21
 1592 029a 4846     		mov	r0, r9
 1593 029c FFF7FEFF 		bl	timeout_configure
 1594              	.LVL156:
 1595              		.loc 1 525 0
 1596 02a0 1B48     		ldr	r0, .L103+8
 1597 02a2 FFF7FEFF 		bl	mc_interface_set_configuration
 1598              	.LVL157:
 1599              		.loc 1 526 0
 1600 02a6 FFF7FEFF 		bl	mc_interface_unlock
 1601              	.LVL158:
 1602              		.loc 1 527 0
 1603 02aa 0020     		movs	r0, #0
 1604              		.loc 1 618 0
 1605 02ac 03B0     		add	sp, sp, #12
 1606              		@ sp needed
 1607 02ae BDEC088B 		fldmfdd	sp!, {d8-d11}
 1608              	.LVL159:
 1609 02b2 BDE8F08F 		pop	{r4, r5, r6, r7, r8, r9, r10, fp, pc}
 1610              	.LVL160:
 1611              	.L98:
 1612              		.loc 1 530 0
 1613 02b6 0125     		movs	r5, #1
 1614              	.LVL161:
 1615 02b8 65E7     		b	.L59
 1616              	.LVL162:
 1617              	.L94:
 1618              	.LBB18:
 1619              	.LBB13:
 1620              		.loc 1 472 0
 1621 02ba FFF7FEFF 		bl	mc_interface_lock_override_once
 1622              	.LVL163:
 1623              		.loc 1 473 0
 1624 02be FFF7FEFF 		bl	mc_interface_release_motor
 1625              	.LVL164:
 1626              		.loc 1 474 0
 1627 02c2 79EEA97A 		fadds	s15, s19, s19
 1628              		.loc 1 475 0
 1629 02c6 174B     		ldr	r3, .L103+28
 1630              		.loc 1 474 0
 1631 02c8 C7ED1F7A 		fsts	s15, [r7, #124]
 1632              		.loc 1 475 0
 1633 02cc C7F88830 		str	r3, [r7, #136]	@ float
 1634              	.L93:
 1635              		.loc 1 486 0
 1636 02d0 FFF7FEFF 		bl	mc_interface_lock_override_once
 1637              	.LVL165:
 1638              		.loc 1 487 0
 1639 02d4 0C48     		ldr	r0, .L103
 1640 02d6 FFF7FEFF 		bl	mc_interface_set_configuration
 1641              	.LVL166:
 1642              		.loc 1 488 0
 1643 02da 42F21070 		movw	r0, #10000
ARM GAS  /tmp/cc3hri4p.s 			page 30


 1644 02de FFF7FEFF 		bl	chThdSleep
 1645              	.LVL167:
 1646              		.loc 1 489 0
 1647 02e2 FFF7FEFF 		bl	mc_interface_lock_override_once
 1648              	.LVL168:
 1649              		.loc 1 490 0
 1650 02e6 B0EE4A0A 		fcpys	s0, s20
 1651 02ea FFF7FEFF 		bl	mc_interface_set_current
 1652              	.LVL169:
 1653 02ee EDE6     		b	.L47
 1654              	.L95:
 1655              		.loc 1 482 0
 1656 02f0 FFF7FEFF 		bl	mc_interface_lock_override_once
 1657              	.LVL170:
 1658              		.loc 1 483 0
 1659 02f4 FFF7FEFF 		bl	mc_interface_release_motor
 1660              	.LVL171:
 1661              		.loc 1 484 0
 1662 02f8 69EE8B7A 		fmuls	s15, s19, s22
 1663              		.loc 1 485 0
 1664 02fc 0123     		movs	r3, #1
 1665              		.loc 1 484 0
 1666 02fe C7ED1F7A 		fsts	s15, [r7, #124]
 1667              		.loc 1 485 0
 1668 0302 7B70     		strb	r3, [r7, #1]
 1669 0304 E4E7     		b	.L93
 1670              	.L104:
 1671 0306 00BF     		.align	2
 1672              	.L103:
 1673 0308 00000000 		.word	.LANCHOR1
 1674 030c 00009643 		.word	1133903872
 1675 0310 00000000 		.word	.LANCHOR2
 1676 0314 00004842 		.word	1112014848
 1677 0318 00808944 		.word	1149861888
 1678 031c 00000000 		.word	0
 1679 0320 00000000 		.word	ADC_Value
 1680 0324 0000A041 		.word	1101004800
 1681              	.LBE13:
 1682              	.LBE18:
 1683              		.cfi_endproc
 1684              	.LFE226:
 1685              		.size	conf_general_detect_motor_param, .-conf_general_detect_motor_param
 1686 0328 AFF30080 		.section	.text.conf_general_measure_flux_linkage,"ax",%progbits
 1686      AFF30080 
 1687              		.align	2
 1688              		.p2align 4,,15
 1689              		.global	conf_general_measure_flux_linkage
 1690              		.thumb
 1691              		.thumb_func
 1692              		.type	conf_general_measure_flux_linkage, %function
 1693              	conf_general_measure_flux_linkage:
 1694              	.LFB227:
 1695              		.loc 1 642 0
 1696              		.cfi_startproc
 1697              		@ args = 0, pretend = 0, frame = 0
 1698              		@ frame_needed = 0, uses_anonymous_args = 0
 1699              	.LVL172:
ARM GAS  /tmp/cc3hri4p.s 			page 31


 1700 0000 2DE9F047 		push	{r4, r5, r6, r7, r8, r9, r10, lr}
 1701              		.cfi_def_cfa_offset 32
 1702              		.cfi_offset 4, -32
 1703              		.cfi_offset 5, -28
 1704              		.cfi_offset 6, -24
 1705              		.cfi_offset 7, -20
 1706              		.cfi_offset 8, -16
 1707              		.cfi_offset 9, -12
 1708              		.cfi_offset 10, -8
 1709              		.cfi_offset 14, -4
 1710 0004 2DED0A8B 		fstmfdd	sp!, {d8, d9, d10, d11, d12}
 1711              		.cfi_def_cfa_offset 72
 1712              		.cfi_offset 80, -72
 1713              		.cfi_offset 82, -64
 1714              		.cfi_offset 84, -56
 1715              		.cfi_offset 86, -48
 1716              		.cfi_offset 88, -40
 1717              		.loc 1 642 0
 1718 0008 8046     		mov	r8, r0
 1719 000a B0EE419A 		fcpys	s18, s2
 1720 000e F0EE409A 		fcpys	s19, s0
 1721 0012 B0EE608A 		fcpys	s16, s1
 1722 0016 F0EE61BA 		fcpys	s23, s3
 1723              		.loc 1 643 0
 1724 001a FFF7FEFF 		bl	mc_interface_get_configuration
 1725              	.LVL173:
 1726 001e DFF89092 		ldr	r9, .L141+44
 1727              		.loc 1 652 0
 1728 0022 984C     		ldr	r4, .L141
 1729              		.loc 1 651 0
 1730 0024 984D     		ldr	r5, .L141+4
 1731              		.loc 1 643 0
 1732 0026 0146     		mov	r1, r0
 1733 0028 4FF4BA72 		mov	r2, #372
 1734 002c 4846     		mov	r0, r9
 1735 002e FFF7FEFF 		bl	memcpy
 1736              	.LVL174:
 1737              		.loc 1 644 0
 1738 0032 4946     		mov	r1, r9
 1739 0034 4FF4BA72 		mov	r2, #372
 1740 0038 9448     		ldr	r0, .L141+8
 1741 003a FFF7FEFF 		bl	memcpy
 1742              	.LVL175:
 1743              		.loc 1 649 0
 1744 003e 4FF07E56 		mov	r6, #1065353216
 1745              		.loc 1 646 0
 1746 0042 0023     		movs	r3, #0
 1747              		.loc 1 653 0
 1748 0044 9249     		ldr	r1, .L141+12
 1749              		.loc 1 654 0
 1750 0046 934A     		ldr	r2, .L141+16
 1751              		.loc 1 652 0
 1752 0048 C9F89440 		str	r4, [r9, #148]	@ float
 1753              		.loc 1 655 0
 1754 004c 4846     		mov	r0, r9
 1755              		.loc 1 650 0
 1756 004e 89ED1F9A 		fsts	s18, [r9, #124]
ARM GAS  /tmp/cc3hri4p.s 			page 32


 1757              		.loc 1 649 0
 1758 0052 C9F88C60 		str	r6, [r9, #140]	@ float
 1759              		.loc 1 651 0
 1760 0056 C9F86451 		str	r5, [r9, #356]	@ float
 1761              		.loc 1 653 0
 1762 005a C9F88810 		str	r1, [r9, #136]	@ float
 1763              		.loc 1 654 0
 1764 005e C9F88020 		str	r2, [r9, #128]	@ float
 1765              		.loc 1 646 0
 1766 0062 89F80230 		strb	r3, [r9, #2]
 1767              		.loc 1 647 0
 1768 0066 89F80330 		strb	r3, [r9, #3]
 1769              		.loc 1 648 0
 1770 006a 89F80130 		strb	r3, [r9, #1]
 1771              		.loc 1 655 0
 1772 006e 4FF4FA74 		mov	r4, #500
 1773 0072 FFF7FEFF 		bl	mc_interface_set_configuration
 1774              	.LVL176:
 1775 0076 04E0     		b	.L109
 1776              	.LVL177:
 1777              	.L106:
 1778              	.LBB19:
 1779              		.loc 1 662 0
 1780 0078 6420     		movs	r0, #100
 1781 007a FFF7FEFF 		bl	chThdSleep
 1782              	.LVL178:
 1783              		.loc 1 658 0
 1784 007e 013C     		subs	r4, r4, #1
 1785              	.LVL179:
 1786 0080 03D0     		beq	.L108
 1787              	.LVL180:
 1788              	.L109:
 1789              		.loc 1 659 0
 1790 0082 FFF7FEFF 		bl	mc_interface_get_fault
 1791              	.LVL181:
 1792 0086 0028     		cmp	r0, #0
 1793 0088 F6D1     		bne	.L106
 1794              	.LVL182:
 1795              	.L108:
 1796              	.LBE19:
 1797              		.loc 1 668 0
 1798 008a 42F21070 		movw	r0, #10000
 1799 008e FFF7FEFF 		bl	chThdSleep
 1800              	.LVL183:
 1801              		.loc 1 671 0
 1802 0092 FFF7FEFF 		bl	timeout_get_timeout_msec
 1803              	.LVL184:
 1804 0096 0746     		mov	r7, r0
 1805              	.LVL185:
 1806              		.loc 1 672 0
 1807 0098 FFF7FEFF 		bl	timeout_get_brake_current
 1808              	.LVL186:
 1809 009c B0EE40CA 		fcpys	s24, s0
 1810              	.LVL187:
 1811              		.loc 1 673 0
 1812 00a0 FFF7FEFF 		bl	timeout_reset
 1813              	.LVL188:
ARM GAS  /tmp/cc3hri4p.s 			page 33


 1814              		.loc 1 674 0
 1815 00a4 4EF66020 		movw	r0, #60000
 1816 00a8 9FED7B0A 		flds	s0, .L141+20
 1817              	.LBB20:
 1818              	.LBB21:
 1819              		.loc 1 687 0
 1820 00ac DFF808A2 		ldr	r10, .L141+52
 1821              	.LBE21:
 1822              	.LBE20:
 1823              		.loc 1 674 0
 1824 00b0 FFF7FEFF 		bl	timeout_configure
 1825              	.LVL189:
 1826              		.loc 1 676 0
 1827 00b4 FFF7FEFF 		bl	mc_interface_lock
 1828              	.LVL190:
 1829              		.loc 1 678 0
 1830 00b8 FFF7FEFF 		bl	mc_interface_lock_override_once
 1831              	.LVL191:
 1832              		.loc 1 679 0
 1833 00bc B0EE690A 		fcpys	s0, s19
 1834 00c0 FFF7FEFF 		bl	mc_interface_set_current
 1835              	.LVL192:
 1836              	.LBB26:
 1837              		.loc 1 683 0
 1838 00c4 0026     		movs	r6, #0
 1839              	.LVL193:
 1840              	.L107:
 1841              	.LBB22:
 1842              		.loc 1 684 0
 1843 00c6 012E     		cmp	r6, #1
 1844 00c8 00F0D580 		beq	.L136
 1845              		.loc 1 693 0
 1846 00cc 022E     		cmp	r6, #2
 1847 00ce 00F0C680 		beq	.L137
 1848              		.loc 1 703 0
 1849 00d2 032E     		cmp	r6, #3
 1850 00d4 00F0A680 		beq	.L138
 1851              	.L111:
 1852              	.LBE22:
 1853              		.loc 1 683 0 discriminator 1
 1854 00d8 0025     		movs	r5, #0
 1855 00da 2C46     		mov	r4, r5
 1856              	.LBB23:
 1857              		.loc 1 723 0 discriminator 1
 1858 00dc F6EE008A 		fconsts	s17, #96
 1859              	.L119:
 1860              	.LVL194:
 1861              		.loc 1 719 0 discriminator 1
 1862 00e0 FFF7FEFF 		bl	mc_interface_get_duty_cycle_now
 1863              	.LVL195:
 1864 00e4 B4EEC80A 		fcmpes	s0, s16
 1865 00e8 F1EE10FA 		fmstat
 1866              		.loc 1 720 0 discriminator 1
 1867 00ec 4FF00A00 		mov	r0, #10
 1868              		.loc 1 721 0 discriminator 1
 1869 00f0 04F10104 		add	r4, r4, #1
 1870              	.LVL196:
ARM GAS  /tmp/cc3hri4p.s 			page 34


 1871              		.loc 1 719 0 discriminator 1
 1872 00f4 1DD5     		bpl	.L139
 1873              		.loc 1 720 0
 1874 00f6 FFF7FEFF 		bl	chThdSleep
 1875              	.LVL197:
 1876              		.loc 1 723 0
 1877 00fa FFF7FEFF 		bl	mc_interface_get_duty_cycle_now
 1878              	.LVL198:
 1879 00fe 68EE287A 		fmuls	s15, s16, s17
 1880 0102 B4EEE70A 		fcmpes	s0, s15
 1881 0106 F1EE10FA 		fmstat
 1882 010a 04DB     		blt	.L133
 1883              		.loc 1 723 0 is_stmt 0 discriminator 1
 1884 010c 6DB1     		cbz	r5, .L140
 1885              	.L115:
 1886              	.LVL199:
 1887              		.loc 1 728 0 is_stmt 1
 1888 010e B4F5FA6F 		cmp	r4, #2000
 1889 0112 04DC     		bgt	.L126
 1890 0114 07E0     		b	.L127
 1891              	.LVL200:
 1892              	.L133:
 1893 0116 B4F5FA6F 		cmp	r4, #2000
 1894 011a E1DD     		ble	.L119
 1895              		.loc 1 728 0 is_stmt 0 discriminator 1
 1896 011c 5DB1     		cbz	r5, .L117
 1897              	.LVL201:
 1898              	.L126:
 1899              		.loc 1 733 0 is_stmt 1
 1900 011e 41F28833 		movw	r3, #5000
 1901 0122 9C42     		cmp	r4, r3
 1902 0124 6BD0     		beq	.L118
 1903              	.L127:
 1904              	.LBE23:
 1905              		.loc 1 683 0
 1906 0126 0125     		movs	r5, #1
 1907 0128 DAE7     		b	.L119
 1908              	.LVL202:
 1909              	.L140:
 1910              	.LBB24:
 1911              		.loc 1 724 0
 1912 012a 0120     		movs	r0, #1
 1913 012c FFF7FEFF 		bl	mcpwm_switch_comm_mode
 1914              	.LVL203:
 1915 0130 EDE7     		b	.L115
 1916              	.LVL204:
 1917              	.L139:
 1918              		.loc 1 739 0
 1919 0132 2DB9     		cbnz	r5, .L121
 1920              		.loc 1 717 0
 1921 0134 0125     		movs	r5, #1
 1922              	.LVL205:
 1923              	.L117:
 1924              	.LBE24:
 1925              		.loc 1 683 0
 1926 0136 0136     		adds	r6, r6, #1
 1927              	.LVL206:
ARM GAS  /tmp/cc3hri4p.s 			page 35


 1928 0138 042E     		cmp	r6, #4
 1929 013a C4D1     		bne	.L107
 1930              	.LVL207:
 1931              	.LBE26:
 1932              		.loc 1 744 0
 1933 013c 002D     		cmp	r5, #0
 1934 013e 5ED0     		beq	.L118
 1935              	.LVL208:
 1936              	.L121:
 1937              		.loc 1 752 0
 1938 0140 FFF7FEFF 		bl	mc_interface_lock_override_once
 1939              	.LVL209:
 1940              		.loc 1 753 0
 1941 0144 B0EE480A 		fcpys	s0, s16
 1942 0148 FFF7FEFF 		bl	mc_interface_set_duty
 1943              	.LVL210:
 1944              		.loc 1 758 0
 1945 014c 9FED528A 		flds	s16, .L141+20
 1946              	.LVL211:
 1947 0150 524E     		ldr	r6, .L141+24
 1948              	.LVL212:
 1949              	.LBB27:
 1950              		.loc 1 760 0
 1951 0152 9FED53BA 		flds	s22, .L141+28
 1952 0156 DFED53AA 		flds	s21, .L141+32
 1953              	.LBE27:
 1954              		.loc 1 757 0
 1955 015a F0EE489A 		fcpys	s19, s16
 1956              	.LVL213:
 1957              		.loc 1 756 0
 1958 015e F0EE488A 		fcpys	s17, s16
 1959              		.loc 1 755 0
 1960 0162 B0EE489A 		fcpys	s18, s16
 1961              	.LVL214:
 1962              		.loc 1 753 0
 1963 0166 4FF4FA64 		mov	r4, #2000
 1964              	.LBB28:
 1965              		.loc 1 763 0
 1966 016a B7EE00AA 		fconsts	s20, #112
 1967              	.LVL215:
 1968              	.L125:
 1969              		.loc 1 760 0 discriminator 2
 1970 016e 338A     		ldrh	r3, [r6, #16]
 1971 0170 9DB2     		uxth	r5, r3
 1972 0172 FFF7FEFF 		bl	mc_interface_get_duty_cycle_now
 1973              	.LVL216:
 1974 0176 07EE105A 		fmsr	s14, r5	@ int
 1975 017a F8EE477A 		fuitos	s15, s14
 1976 017e 67EE8B7A 		fmuls	s15, s15, s22
 1977 0182 67EEAA7A 		fmuls	s15, s15, s21
 1978 0186 A7EE809A 		vfma.f32	s18, s15, s0
 1979              	.LVL217:
 1980              		.loc 1 761 0 discriminator 2
 1981 018a FFF7FEFF 		bl	mc_interface_get_rpm
 1982              	.LVL218:
 1983 018e 78EE808A 		fadds	s17, s17, s0
 1984              	.LVL219:
ARM GAS  /tmp/cc3hri4p.s 			page 36


 1985              		.loc 1 762 0 discriminator 2
 1986 0192 FFF7FEFF 		bl	mc_interface_get_tot_current
 1987              	.LVL220:
 1988              		.loc 1 764 0 discriminator 2
 1989 0196 0A20     		movs	r0, #10
 1990              		.loc 1 762 0 discriminator 2
 1991 0198 79EE809A 		fadds	s19, s19, s0
 1992              	.LVL221:
 1993              		.loc 1 764 0 discriminator 2
 1994 019c FFF7FEFF 		bl	chThdSleep
 1995              	.LVL222:
 1996              		.loc 1 759 0 discriminator 2
 1997 01a0 013C     		subs	r4, r4, #1
 1998              	.LVL223:
 1999              		.loc 1 763 0 discriminator 2
 2000 01a2 38EE0A8A 		fadds	s16, s16, s20
 2001              	.LVL224:
 2002              		.loc 1 759 0 discriminator 2
 2003 01a6 E2D1     		bne	.L125
 2004              	.LBE28:
 2005              		.loc 1 767 0
 2006 01a8 B0EE4C0A 		fcpys	s0, s24
 2007 01ac 3846     		mov	r0, r7
 2008 01ae FFF7FEFF 		bl	timeout_configure
 2009              	.LVL225:
 2010              		.loc 1 768 0
 2011 01b2 3648     		ldr	r0, .L141+8
 2012 01b4 FFF7FEFF 		bl	mc_interface_set_configuration
 2013              	.LVL226:
 2014              		.loc 1 769 0
 2015 01b8 FFF7FEFF 		bl	mc_interface_unlock
 2016              	.LVL227:
 2017              		.loc 1 770 0
 2018 01bc 9FED360A 		flds	s0, .L141+20
 2019 01c0 FFF7FEFF 		bl	mc_interface_set_current
 2020              	.LVL228:
 2021              		.loc 1 774 0
 2022 01c4 C9EE889A 		fdivs	s19, s19, s16
 2023              	.LVL229:
 2024              		.loc 1 779 0
 2025 01c8 0120     		movs	r0, #1
 2026              		.loc 1 772 0
 2027 01ca 89EE089A 		fdivs	s18, s18, s16
 2028              	.LVL230:
 2029              		.loc 1 773 0
 2030 01ce 88EE888A 		fdivs	s16, s17, s16
 2031              	.LVL231:
 2032 01d2 6BEEE9BA 		fnmuls	s23, s23, s19
 2033              	.LVL232:
 2034              		.loc 1 775 0
 2035 01d6 F0EE007A 		fconsts	s15, #0
 2036 01da ABEEA79A 		vfma.f32	s18, s23, s15
 2037              		.loc 1 777 0
 2038 01de 9FED327A 		flds	s14, .L141+36
 2039 01e2 DFED327A 		flds	s15, .L141+40
 2040 01e6 29EE079A 		fmuls	s18, s18, s14
 2041 01ea 68EE277A 		fmuls	s15, s16, s15
ARM GAS  /tmp/cc3hri4p.s 			page 37


 2042 01ee C9EE277A 		fdivs	s15, s18, s15
 2043              		.loc 1 780 0
 2044 01f2 BDEC0A8B 		fldmfdd	sp!, {d8-d12}
 2045              	.LVL233:
 2046              		.loc 1 777 0
 2047 01f6 C8ED007A 		fsts	s15, [r8]
 2048              		.loc 1 780 0
 2049 01fa BDE8F087 		pop	{r4, r5, r6, r7, r8, r9, r10, pc}
 2050              	.LVL234:
 2051              	.L118:
 2052              		.loc 1 745 0
 2053 01fe 9FED260A 		flds	s0, .L141+20
 2054 0202 FFF7FEFF 		bl	mc_interface_set_current
 2055              	.LVL235:
 2056              		.loc 1 746 0
 2057 0206 B0EE4C0A 		fcpys	s0, s24
 2058 020a 3846     		mov	r0, r7
 2059 020c FFF7FEFF 		bl	timeout_configure
 2060              	.LVL236:
 2061              		.loc 1 747 0
 2062 0210 1E48     		ldr	r0, .L141+8
 2063 0212 FFF7FEFF 		bl	mc_interface_set_configuration
 2064              	.LVL237:
 2065              		.loc 1 748 0
 2066 0216 FFF7FEFF 		bl	mc_interface_unlock
 2067              	.LVL238:
 2068              		.loc 1 780 0
 2069 021a BDEC0A8B 		fldmfdd	sp!, {d8-d12}
 2070              	.LVL239:
 2071              		.loc 1 749 0
 2072 021e 0020     		movs	r0, #0
 2073              		.loc 1 780 0
 2074 0220 BDE8F087 		pop	{r4, r5, r6, r7, r8, r9, r10, pc}
 2075              	.LVL240:
 2076              	.L138:
 2077              	.LBB29:
 2078              	.LBB25:
 2079              		.loc 1 704 0
 2080 0224 FFF7FEFF 		bl	mc_interface_lock_override_once
 2081              	.LVL241:
 2082              		.loc 1 705 0
 2083 0228 FFF7FEFF 		bl	mc_interface_release_motor
 2084              	.LVL242:
 2085              		.loc 1 706 0
 2086 022c F1EE007A 		fconsts	s15, #16
 2087 0230 69EE277A 		fmuls	s15, s18, s15
 2088              		.loc 1 707 0
 2089 0234 0123     		movs	r3, #1
 2090              		.loc 1 706 0
 2091 0236 C9ED1F7A 		fsts	s15, [r9, #124]
 2092              		.loc 1 707 0
 2093 023a 89F80130 		strb	r3, [r9, #1]
 2094              	.L135:
 2095              		.loc 1 708 0
 2096 023e FFF7FEFF 		bl	mc_interface_lock_override_once
 2097              	.LVL243:
 2098              		.loc 1 709 0
ARM GAS  /tmp/cc3hri4p.s 			page 38


 2099 0242 1B48     		ldr	r0, .L141+44
 2100 0244 FFF7FEFF 		bl	mc_interface_set_configuration
 2101              	.LVL244:
 2102              		.loc 1 710 0
 2103 0248 42F21070 		movw	r0, #10000
 2104 024c FFF7FEFF 		bl	chThdSleep
 2105              	.LVL245:
 2106              		.loc 1 711 0
 2107 0250 FFF7FEFF 		bl	mc_interface_lock_override_once
 2108              	.LVL246:
 2109              		.loc 1 712 0
 2110 0254 B0EE690A 		fcpys	s0, s19
 2111 0258 FFF7FEFF 		bl	mc_interface_set_current
 2112              	.LVL247:
 2113 025c 3CE7     		b	.L111
 2114              	.L137:
 2115              		.loc 1 694 0
 2116 025e FFF7FEFF 		bl	mc_interface_lock_override_once
 2117              	.LVL248:
 2118              		.loc 1 695 0
 2119 0262 FFF7FEFF 		bl	mc_interface_release_motor
 2120              	.LVL249:
 2121              		.loc 1 696 0
 2122 0266 79EE097A 		fadds	s15, s18, s18
 2123              		.loc 1 697 0
 2124 026a 124B     		ldr	r3, .L141+48
 2125              		.loc 1 696 0
 2126 026c C9ED1F7A 		fsts	s15, [r9, #124]
 2127              		.loc 1 697 0
 2128 0270 C9F88830 		str	r3, [r9, #136]	@ float
 2129 0274 E3E7     		b	.L135
 2130              	.L136:
 2131              		.loc 1 685 0
 2132 0276 FFF7FEFF 		bl	mc_interface_lock_override_once
 2133              	.LVL250:
 2134              		.loc 1 686 0
 2135 027a FFF7FEFF 		bl	mc_interface_release_motor
 2136              	.LVL251:
 2137              		.loc 1 687 0
 2138 027e C9F888A0 		str	r10, [r9, #136]	@ float
 2139 0282 DCE7     		b	.L135
 2140              	.L142:
 2141              		.align	2
 2142              	.L141:
 2143 0284 00009643 		.word	1133903872
 2144 0288 00401C46 		.word	1176256512
 2145 028c 00000000 		.word	.LANCHOR2
 2146 0290 00004842 		.word	1112014848
 2147 0294 00808944 		.word	1149861888
 2148 0298 00000000 		.word	0
 2149 029c 00000000 		.word	ADC_Value
 2150 02a0 6740533A 		.word	978534503
 2151 02a4 74D19541 		.word	1100337524
 2152 02a8 00007042 		.word	1114636288
 2153 02ac EF1F2E41 		.word	1093541871
 2154 02b0 00000000 		.word	.LANCHOR1
 2155 02b4 0000A041 		.word	1101004800
ARM GAS  /tmp/cc3hri4p.s 			page 39


 2156 02b8 00007A43 		.word	1132068864
 2157              	.LBE25:
 2158              	.LBE29:
 2159              		.cfi_endproc
 2160              	.LFE227:
 2161              		.size	conf_general_measure_flux_linkage, .-conf_general_measure_flux_linkage
 2162              		.global	mcconf_old
 2163              		.global	mcconf
 2164              		.global	conf_general_permanent_nrf_found
 2165              		.global	VirtAddVarTab
 2166 02bc AFF30080 		.section	.bss.mcconf,"aw",%nobits
 2167              		.align	2
 2168              		.set	.LANCHOR1,. + 0
 2169              		.type	mcconf, %object
 2170              		.size	mcconf, 372
 2171              	mcconf:
 2172 0000 00000000 		.space	372
 2172      00000000 
 2172      00000000 
 2172      00000000 
 2172      00000000 
 2173              		.section	.bss.conf_general_permanent_nrf_found,"aw",%nobits
 2174              		.type	conf_general_permanent_nrf_found, %object
 2175              		.size	conf_general_permanent_nrf_found, 1
 2176              	conf_general_permanent_nrf_found:
 2177 0000 00       		.space	1
 2178              		.section	.bss.mcconf_old,"aw",%nobits
 2179              		.align	2
 2180              		.set	.LANCHOR2,. + 0
 2181              		.type	mcconf_old, %object
 2182              		.size	mcconf_old, 372
 2183              	mcconf_old:
 2184 0000 00000000 		.space	372
 2184      00000000 
 2184      00000000 
 2184      00000000 
 2184      00000000 
 2185              		.section	.bss.VirtAddVarTab,"aw",%nobits
 2186              		.align	2
 2187              		.set	.LANCHOR0,. + 0
 2188              		.type	VirtAddVarTab, %object
 2189              		.size	VirtAddVarTab, 572
 2190              	VirtAddVarTab:
 2191 0000 00000000 		.space	572
 2191      00000000 
 2191      00000000 
 2191      00000000 
 2191      00000000 
 2192              		.text
 2193              	.Letext0:
 2194              		.file 2 "/usr/include/newlib/machine/_default_types.h"
 2195              		.file 3 "/usr/include/newlib/stdint.h"
 2196              		.file 4 "/usr/lib/gcc/arm-none-eabi/4.8/include/stddef.h"
 2197              		.file 5 "ChibiOS_3.0.2/os/rt/ports/ARMCMx/compilers/GCC/chtypes.h"
 2198              		.file 6 "ChibiOS_3.0.2/os/rt/include/chsystypes.h"
 2199              		.file 7 "ChibiOS_3.0.2/os/rt/include/chschd.h"
 2200              		.file 8 "ChibiOS_3.0.2/os/ext/CMSIS/ST/stm32f4xx.h"
ARM GAS  /tmp/cc3hri4p.s 			page 40


 2201              		.file 9 "ChibiOS_3.0.2/os/rt/ports/ARMCMx/chcore.h"
 2202              		.file 10 "ChibiOS_3.0.2/os/rt/ports/ARMCMx/chcore_v7m.h"
 2203              		.file 11 "ChibiOS_3.0.2/os/rt/include/chtm.h"
 2204              		.file 12 "ChibiOS_3.0.2/os/rt/include/chsem.h"
 2205              		.file 13 "ChibiOS_3.0.2/os/rt/include/chmtx.h"
 2206              		.file 14 "datatypes.h"
 2207              		.file 15 "ChibiOS_3.0.2/ext/stdperiph_stm32f4/inc/stm32f4xx_flash.h"
 2208              		.file 16 "ChibiOS_3.0.2/os/ext/CMSIS/include/core_cm4.h"
 2209              		.file 17 "mc_interface.h"
 2210              		.file 18 "eeprom.h"
 2211              		.file 19 "utils.h"
 2212              		.file 20 "ChibiOS_3.0.2/ext/stdperiph_stm32f4/inc/stm32f4xx_rcc.h"
 2213              		.file 21 "ChibiOS_3.0.2/os/rt/include/chthreads.h"
 2214              		.file 22 "mcpwm.h"
 2215              		.file 23 "timeout.h"