ARM GAS  /tmp/ccBD1k7C.s 			page 1


   1              		.syntax unified
   2              		.cpu cortex-m4
   3              		.eabi_attribute 27, 3
   4              		.eabi_attribute 28, 1
   5              		.fpu fpv4-sp-d16
   6              		.eabi_attribute 20, 1
   7              		.eabi_attribute 21, 1
   8              		.eabi_attribute 23, 3
   9              		.eabi_attribute 24, 1
  10              		.eabi_attribute 25, 1
  11              		.eabi_attribute 26, 1
  12              		.eabi_attribute 30, 2
  13              		.eabi_attribute 34, 1
  14              		.eabi_attribute 18, 4
  15              		.thumb
  16              		.file	"crt1.c"
  17              		.text
  18              	.Ltext0:
  19              		.cfi_sections	.debug_frame
  20              		.section	.text.__core_init,"ax",%progbits
  21              		.align	2
  22              		.p2align 4,,15
  23              		.weak	__core_init
  24              		.thumb
  25              		.thumb_func
  26              		.type	__core_init, %function
  27              	__core_init:
  28              	.LFB112:
  29              		.file 1 "ChibiOS_3.0.2/os/common/ports/ARMCMx/compilers/GCC/crt1.c"
  30              		.loc 1 42 0
  31              		.cfi_startproc
  32              		@ args = 0, pretend = 0, frame = 0
  33              		@ frame_needed = 0, uses_anonymous_args = 0
  34              		@ link register save eliminated.
  35 0000 7047     		bx	lr
  36              		.cfi_endproc
  37              	.LFE112:
  38              		.size	__core_init, .-__core_init
  39 0002 00BFAFF3 		.section	.text.__early_init,"ax",%progbits
  39      0080AFF3 
  39      0080AFF3 
  39      0080
  40              		.align	2
  41              		.p2align 4,,15
  42              		.weak	__early_init
  43              		.thumb
  44              		.thumb_func
  45              		.type	__early_init, %function
  46              	__early_init:
  47              	.LFB113:
  48              		.loc 1 61 0
  49              		.cfi_startproc
  50              		@ args = 0, pretend = 0, frame = 0
  51              		@ frame_needed = 0, uses_anonymous_args = 0
  52              		@ link register save eliminated.
  53 0000 7047     		bx	lr
  54              		.cfi_endproc
ARM GAS  /tmp/ccBD1k7C.s 			page 2


  55              	.LFE113:
  56              		.size	__early_init, .-__early_init
  57 0002 00BFAFF3 		.section	.text.__late_init,"ax",%progbits
  57      0080AFF3 
  57      0080AFF3 
  57      0080
  58              		.align	2
  59              		.p2align 4,,15
  60              		.weak	__late_init
  61              		.thumb
  62              		.thumb_func
  63              		.type	__late_init, %function
  64              	__late_init:
  65              	.LFB114:
  66              		.loc 1 75 0
  67              		.cfi_startproc
  68              		@ args = 0, pretend = 0, frame = 0
  69              		@ frame_needed = 0, uses_anonymous_args = 0
  70              		@ link register save eliminated.
  71 0000 7047     		bx	lr
  72              		.cfi_endproc
  73              	.LFE114:
  74              		.size	__late_init, .-__late_init
  75 0002 00BFAFF3 		.section	.text.__default_exit,"ax",%progbits
  75      0080AFF3 
  75      0080AFF3 
  75      0080
  76              		.align	2
  77              		.p2align 4,,15
  78              		.weak	__default_exit
  79              		.thumb
  80              		.thumb_func
  81              		.type	__default_exit, %function
  82              	__default_exit:
  83              	.LFB115:
  84              		.loc 1 88 0
  85              		.cfi_startproc
  86              		@ Volatile: function does not return.
  87              		@ args = 0, pretend = 0, frame = 0
  88              		@ frame_needed = 0, uses_anonymous_args = 0
  89              		@ link register save eliminated.
  90              	.L5:
  91 0000 FEE7     		b	.L5
  92              		.cfi_endproc
  93              	.LFE115:
  94              		.size	__default_exit, .-__default_exit
  95 0002 00BFAFF3 		.text
  95      0080AFF3 
  95      0080AFF3 
  95      0080
  96              	.Letext0:
  97              		.file 2 "/usr/include/newlib/machine/_default_types.h"
  98              		.file 3 "/usr/include/newlib/stdint.h"
  99              		.file 4 "ChibiOS_3.0.2/os/ext/CMSIS/include/core_cm4.h"