ARM GAS  /tmp/cc1hBWjO.s 			page 1


   1              		.syntax unified
   2              		.cpu cortex-m4
   3              		.eabi_attribute 27, 3
   4              		.eabi_attribute 28, 1
   5              		.fpu fpv4-sp-d16
   6              		.eabi_attribute 20, 1
   7              		.eabi_attribute 21, 1
   8              		.eabi_attribute 23, 3
   9              		.eabi_attribute 24, 1
  10              		.eabi_attribute 25, 1
  11              		.eabi_attribute 26, 1
  12              		.eabi_attribute 30, 2
  13              		.eabi_attribute 34, 1
  14              		.eabi_attribute 18, 4
  15              		.thumb
  16              		.file	"digital_filter.c"
  17              		.text
  18              	.Ltext0:
  19              		.cfi_sections	.debug_frame
  20              		.global	__aeabi_f2d
  21              		.global	__aeabi_d2f
  22              		.section	.text.filter_fft,"ax",%progbits
  23              		.align	2
  24              		.p2align 4,,15
  25              		.global	filter_fft
  26              		.thumb
  27              		.thumb_func
  28              		.type	filter_fft, %function
  29              	filter_fft:
  30              	.LFB0:
  31              		.file 1 "digital_filter.c"
  32              		.loc 1 25 0
  33              		.cfi_startproc
  34              		@ args = 0, pretend = 0, frame = 16
  35              		@ frame_needed = 0, uses_anonymous_args = 0
  36              	.LVL0:
  37 0000 2DE9F04F 		push	{r4, r5, r6, r7, r8, r9, r10, fp, lr}
  38              		.cfi_def_cfa_offset 36
  39              		.cfi_offset 4, -36
  40              		.cfi_offset 5, -32
  41              		.cfi_offset 6, -28
  42              		.cfi_offset 7, -24
  43              		.cfi_offset 8, -20
  44              		.cfi_offset 9, -16
  45              		.cfi_offset 10, -12
  46              		.cfi_offset 11, -8
  47              		.cfi_offset 14, -4
  48 0004 2DED028B 		fstmfdd	sp!, {d8}
  49              		.cfi_def_cfa_offset 44
  50              		.cfi_offset 80, -44
  51              		.loc 1 30 0
  52 0008 4FF00108 		mov	r8, #1
  53              		.loc 1 25 0
  54 000c 85B0     		sub	sp, sp, #20
  55              		.cfi_def_cfa_offset 64
  56              		.loc 1 30 0
  57 000e 08FA01F8 		lsl	r8, r8, r1
ARM GAS  /tmp/cc1hBWjO.s 			page 2


  58              	.LVL1:
  59              		.loc 1 35 0
  60 0012 B8F1010F 		cmp	r8, #1
  61              		.loc 1 25 0
  62 0016 0291     		str	r1, [sp, #8]
  63 0018 0390     		str	r0, [sp, #12]
  64 001a 8DE80C00 		stmia	sp, {r2, r3}
  65              		.loc 1 33 0
  66 001e 4FEA6805 		asr	r5, r8, #1
  67              	.LVL2:
  68              		.loc 1 35 0
  69 0022 2EDD     		ble	.L10
  70 0024 009B     		ldr	r3, [sp]
  71              	.LVL3:
  72 0026 DDF800C0 		ldr	ip, [sp]
  73 002a 1C1D     		adds	r4, r3, #4
  74 002c 019B     		ldr	r3, [sp, #4]
  75              		.loc 1 34 0
  76 002e 0022     		movs	r2, #0
  77              	.LVL4:
  78              		.loc 1 35 0
  79 0030 1146     		mov	r1, r2
  80              	.LVL5:
  81 0032 181D     		adds	r0, r3, #4
  82              	.LVL6:
  83 0034 08F1FF36 		add	r6, r8, #-1
  84 0038 9946     		mov	r9, r3
  85              	.LVL7:
  86              	.L5:
  87              		.loc 1 45 0
  88 003a AA42     		cmp	r2, r5
  89 003c 2B46     		mov	r3, r5
  90 003e 03DB     		blt	.L7
  91              	.LVL8:
  92              	.L8:
  93              		.loc 1 46 0
  94 0040 D21A     		subs	r2, r2, r3
  95              	.LVL9:
  96              		.loc 1 47 0
  97 0042 5B10     		asrs	r3, r3, #1
  98              	.LVL10:
  99              		.loc 1 45 0
 100 0044 9A42     		cmp	r2, r3
 101 0046 FBDA     		bge	.L8
 102              	.L7:
 103              		.loc 1 35 0
 104 0048 0131     		adds	r1, r1, #1
 105 004a B142     		cmp	r1, r6
 106              		.loc 1 49 0
 107 004c 1A44     		add	r2, r2, r3
 108              	.LVL11:
 109              		.loc 1 35 0
 110 004e 18D0     		beq	.L10
 111              		.loc 1 36 0
 112 0050 8A42     		cmp	r2, r1
 113 0052 13DD     		ble	.L6
 114              		.loc 1 39 0
ARM GAS  /tmp/cc1hBWjO.s 			page 3


 115 0054 9300     		lsls	r3, r2, #2
 116              	.LVL12:
 117 0056 0CEB0307 		add	r7, ip, r3
 118 005a D7ED007A 		flds	s15, [r7]
 119              		.loc 1 37 0
 120 005e D4F800B0 		ldr	fp, [r4]	@ float
 121              	.LVL13:
 122              		.loc 1 38 0
 123 0062 D0F800A0 		ldr	r10, [r0]	@ float
 124              	.LVL14:
 125              		.loc 1 39 0
 126 0066 C4ED007A 		fsts	s15, [r4]
 127              		.loc 1 40 0
 128 006a 4B44     		add	r3, r3, r9
 129 006c D3ED007A 		flds	s15, [r3]
 130 0070 C0ED007A 		fsts	s15, [r0]
 131              		.loc 1 41 0
 132 0074 C7F800B0 		str	fp, [r7]	@ float
 133              		.loc 1 42 0
 134 0078 C3F800A0 		str	r10, [r3]	@ float
 135              	.LVL15:
 136              	.L6:
 137 007c 0434     		adds	r4, r4, #4
 138 007e 0430     		adds	r0, r0, #4
 139 0080 DBE7     		b	.L5
 140              	.LVL16:
 141              	.L10:
 142              		.loc 1 56 0
 143 0082 0299     		ldr	r1, [sp, #8]
 144 0084 0029     		cmp	r1, #0
 145 0086 40F39180 		ble	.L4
 146 008a DFED588A 		flds	s17, .L30
 147 008e BFEE008A 		fconsts	s16, #240
 148 0092 4FF0010B 		mov	fp, #1
 149 0096 0027     		movs	r7, #0
 150              	.LVL17:
 151              	.L19:
 152              		.loc 1 61 0
 153 0098 BBF1000F 		cmp	fp, #0
 154              		.loc 1 58 0
 155 009c 4FEA4B09 		lsl	r9, fp, #1
 156              	.LVL18:
 157              		.loc 1 61 0
 158 00a0 4EDD     		ble	.L13
 159 00a2 9DE80014 		ldmia	sp, {r10, ip}
 160              		.loc 1 60 0
 161 00a6 9FED516A 		flds	s12, .L30
 162 00aa 4FEACB06 		lsl	r6, fp, #3
 163 00ae 4FEA8B05 		lsl	r5, fp, #2
 164              		.loc 1 59 0
 165 00b2 F7EE005A 		fconsts	s11, #112
 166              		.loc 1 61 0
 167 00b6 4FF0000E 		mov	lr, #0
 168              	.LVL19:
 169              	.L14:
 170              		.loc 1 62 0 discriminator 1
 171 00ba F045     		cmp	r8, lr
ARM GAS  /tmp/cc1hBWjO.s 			page 4


 172 00bc 2DDD     		ble	.L16
 173              		.loc 1 62 0 is_stmt 0
 174 00be 6246     		mov	r2, ip
 175 00c0 5346     		mov	r3, r10
 176 00c2 7146     		mov	r1, lr
 177              	.LVL20:
 178              	.L17:
 179 00c4 5019     		adds	r0, r2, r5
 180              		.loc 1 64 0 is_stmt 1 discriminator 2
 181 00c6 D0ED006A 		flds	s13, [r0]
 182              		.loc 1 66 0 discriminator 2
 183 00ca 93ED005A 		flds	s10, [r3]
 184 00ce 5C19     		adds	r4, r3, r5
 185              		.loc 1 64 0 discriminator 2
 186 00d0 D4ED007A 		flds	s15, [r4]
 187 00d4 26EE667A 		fnmuls	s14, s12, s13
 188              		.loc 1 62 0 discriminator 2
 189 00d8 4944     		add	r1, r1, r9
 190              	.LVL21:
 191              		.loc 1 64 0 discriminator 2
 192 00da A7EEA57A 		vfma.f32	s14, s15, s11
 193              	.LVL22:
 194              		.loc 1 62 0 discriminator 2
 195 00de 8845     		cmp	r8, r1
 196              		.loc 1 65 0 discriminator 2
 197 00e0 66EE277A 		fmuls	s15, s12, s15
 198              		.loc 1 66 0 discriminator 2
 199 00e4 35EE475A 		fsubs	s10, s10, s14
 200              		.loc 1 65 0 discriminator 2
 201 00e8 E5EEA67A 		vfma.f32	s15, s11, s13
 202              	.LVL23:
 203              		.loc 1 66 0 discriminator 2
 204 00ec 84ED005A 		fsts	s10, [r4]
 205              		.loc 1 67 0 discriminator 2
 206 00f0 D2ED006A 		flds	s13, [r2]
 207 00f4 76EEE76A 		fsubs	s13, s13, s15
 208 00f8 C0ED006A 		fsts	s13, [r0]
 209              		.loc 1 68 0 discriminator 2
 210 00fc D3ED006A 		flds	s13, [r3]
 211 0100 36EE877A 		fadds	s14, s13, s14
 212              	.LVL24:
 213 0104 83ED007A 		fsts	s14, [r3]
 214              		.loc 1 69 0 discriminator 2
 215 0108 92ED007A 		flds	s14, [r2]
 216 010c 77EE277A 		fadds	s15, s14, s15
 217              	.LVL25:
 218 0110 3344     		add	r3, r3, r6
 219 0112 C2ED007A 		fsts	s15, [r2]
 220 0116 3244     		add	r2, r2, r6
 221              		.loc 1 62 0 discriminator 2
 222 0118 D4DC     		bgt	.L17
 223              	.LVL26:
 224              	.L16:
 225 011a 68EEC67A 		fnmuls	s15, s17, s12
 226              		.loc 1 61 0
 227 011e 0EF1010E 		add	lr, lr, #1
 228              		.loc 1 72 0
ARM GAS  /tmp/cc1hBWjO.s 			page 5


 229 0122 26EE086A 		fmuls	s12, s12, s16
 230              	.LVL27:
 231              		.loc 1 61 0
 232 0126 DE45     		cmp	lr, fp
 233 0128 0AF1040A 		add	r10, r10, #4
 234 012c 0CF1040C 		add	ip, ip, #4
 235              		.loc 1 71 0
 236 0130 E5EE887A 		vfma.f32	s15, s11, s16
 237              	.LVL28:
 238              		.loc 1 72 0
 239 0134 A5EEA86A 		vfma.f32	s12, s11, s17
 240              	.LVL29:
 241              		.loc 1 61 0
 242 0138 02D0     		beq	.L13
 243              		.loc 1 73 0
 244 013a F0EE675A 		fcpys	s11, s15
 245 013e BCE7     		b	.L14
 246              	.LVL30:
 247              	.L13:
 248              		.loc 1 75 0
 249 0140 B7EE007A 		fconsts	s14, #112
 250 0144 37EE487A 		fsubs	s14, s14, s16
 251 0148 F6EE007A 		fconsts	s15, #96
 252 014c 67EE277A 		fmuls	s15, s14, s15
 253 0150 17EE900A 		fmrs	r0, s15
 254 0154 FFF7FEFF 		bl	__aeabi_f2d
 255              	.LVL31:
 256 0158 41EC100B 		fmdrr	d0, r0, r1
 257 015c FFF7FEFF 		bl	sqrt
 258              	.LVL32:
 259 0160 51EC100B 		fmrrd	r0, r1, d0
 260 0164 FFF7FEFF 		bl	__aeabi_d2f
 261              	.LVL33:
 262              		.loc 1 76 0
 263 0168 039B     		ldr	r3, [sp, #12]
 264              		.loc 1 75 0
 265 016a 08EE900A 		fmsr	s17, r0
 266              	.LVL34:
 267              		.loc 1 76 0
 268 016e 0BB1     		cbz	r3, .L18
 269              		.loc 1 77 0
 270 0170 F1EE688A 		fnegs	s17, s17
 271              	.LVL35:
 272              	.L18:
 273              		.loc 1 79 0
 274 0174 F7EE007A 		fconsts	s15, #112
 275 0178 38EE278A 		fadds	s16, s16, s15
 276              	.LVL36:
 277 017c F6EE007A 		fconsts	s15, #96
 278 0180 68EE277A 		fmuls	s15, s16, s15
 279              		.loc 1 56 0
 280 0184 0137     		adds	r7, r7, #1
 281              	.LVL37:
 282              		.loc 1 79 0
 283 0186 17EE900A 		fmrs	r0, s15
 284 018a FFF7FEFF 		bl	__aeabi_f2d
 285              	.LVL38:
ARM GAS  /tmp/cc1hBWjO.s 			page 6


 286 018e 41EC100B 		fmdrr	d0, r0, r1
 287 0192 FFF7FEFF 		bl	sqrt
 288              	.LVL39:
 289 0196 51EC100B 		fmrrd	r0, r1, d0
 290 019a FFF7FEFF 		bl	__aeabi_d2f
 291              	.LVL40:
 292              		.loc 1 56 0
 293 019e 0299     		ldr	r1, [sp, #8]
 294 01a0 8F42     		cmp	r7, r1
 295              		.loc 1 79 0
 296 01a2 08EE100A 		fmsr	s16, r0
 297              	.LVL41:
 298              		.loc 1 56 0
 299 01a6 01D0     		beq	.L4
 300              		.loc 1 58 0
 301 01a8 CB46     		mov	fp, r9
 302              	.LVL42:
 303 01aa 75E7     		b	.L19
 304              	.LVL43:
 305              	.L4:
 306              		.loc 1 83 0
 307 01ac 0399     		ldr	r1, [sp, #12]
 308 01ae C1B1     		cbz	r1, .L1
 309              	.LVL44:
 310              		.loc 1 84 0 discriminator 1
 311 01b0 B8F1000F 		cmp	r8, #0
 312 01b4 15DD     		ble	.L1
 313 01b6 07EE108A 		fmsr	s14, r8	@ int
 314 01ba 009B     		ldr	r3, [sp]
 315 01bc 019A     		ldr	r2, [sp, #4]
 316 01be F8EEC77A 		fsitos	s15, s14
 317 01c2 03EB8808 		add	r8, r3, r8, lsl #2
 318              	.LVL45:
 319              	.L20:
 320              		.loc 1 85 0 discriminator 2
 321 01c6 93ED007A 		flds	s14, [r3]
 322 01ca 87EE277A 		fdivs	s14, s14, s15
 323 01ce A3EC017A 		fstmias	r3!, {s14}
 324              		.loc 1 86 0 discriminator 2
 325 01d2 92ED007A 		flds	s14, [r2]
 326 01d6 87EE277A 		fdivs	s14, s14, s15
 327              		.loc 1 84 0 discriminator 2
 328 01da 4345     		cmp	r3, r8
 329              		.loc 1 86 0 discriminator 2
 330 01dc A2EC017A 		fstmias	r2!, {s14}
 331              		.loc 1 84 0 discriminator 2
 332 01e0 F1D1     		bne	.L20
 333              	.L1:
 334              		.loc 1 89 0
 335 01e2 05B0     		add	sp, sp, #20
 336              	.LVL46:
 337              		@ sp needed
 338 01e4 BDEC028B 		fldmfdd	sp!, {d8}
 339 01e8 BDE8F08F 		pop	{r4, r5, r6, r7, r8, r9, r10, fp, pc}
 340              	.LVL47:
 341              	.L31:
 342              		.align	2
ARM GAS  /tmp/cc1hBWjO.s 			page 7


 343              	.L30:
 344 01ec 00000000 		.word	0
 345              		.cfi_endproc
 346              	.LFE0:
 347              		.size	filter_fft, .-filter_fft
 348              		.section	.text.filter_dft,"ax",%progbits
 349              		.align	2
 350              		.p2align 4,,15
 351              		.global	filter_dft
 352              		.thumb
 353              		.thumb_func
 354              		.type	filter_dft, %function
 355              	filter_dft:
 356              	.LFB1:
 357              		.loc 1 92 0
 358              		.cfi_startproc
 359              		@ args = 0, pretend = 0, frame = 24
 360              		@ frame_needed = 1, uses_anonymous_args = 0
 361              	.LVL48:
 362 0000 2DE9F04F 		push	{r4, r5, r6, r7, r8, r9, r10, fp, lr}
 363              		.cfi_def_cfa_offset 36
 364              		.cfi_offset 4, -36
 365              		.cfi_offset 5, -32
 366              		.cfi_offset 6, -28
 367              		.cfi_offset 7, -24
 368              		.cfi_offset 8, -20
 369              		.cfi_offset 9, -16
 370              		.cfi_offset 10, -12
 371              		.cfi_offset 11, -8
 372              		.cfi_offset 14, -4
 373 0004 2DED0A8B 		fstmfdd	sp!, {d8, d9, d10, d11, d12}
 374              		.cfi_def_cfa_offset 76
 375              		.cfi_offset 80, -76
 376              		.cfi_offset 82, -68
 377              		.cfi_offset 84, -60
 378              		.cfi_offset 86, -52
 379              		.cfi_offset 88, -44
 380 0008 87B0     		sub	sp, sp, #28
 381              		.cfi_def_cfa_offset 104
 382 000a 00AF     		add	r7, sp, #0
 383              		.cfi_def_cfa_register 7
 384              		.loc 1 92 0
 385 000c 0C46     		mov	r4, r1
 386              		.loc 1 103 0
 387 000e 8900     		lsls	r1, r1, #2
 388              	.LVL49:
 389 0010 F960     		str	r1, [r7, #12]
 390 0012 0A31     		adds	r1, r1, #10
 391 0014 21F00701 		bic	r1, r1, #7
 392 0018 ADEB010D 		sub	sp, sp, r1
 393              		.loc 1 98 0
 394 001c 0028     		cmp	r0, #0
 395              		.loc 1 103 0
 396 001e 6D46     		mov	r5, sp
 397 0020 C7F808D0 		str	sp, [r7, #8]
 398              		.loc 1 104 0
 399 0024 ADEB010D 		sub	sp, sp, r1
ARM GAS  /tmp/cc1hBWjO.s 			page 8


 400              		.loc 1 98 0
 401 0028 0CBF     		ite	eq
 402 002a 4FF0FF31 		moveq	r1, #-1
 403 002e 0121     		movne	r1, #1
 404              		.loc 1 106 0
 405 0030 002C     		cmp	r4, #0
 406              		.loc 1 92 0
 407 0032 7A61     		str	r2, [r7, #20]
 408 0034 3B61     		str	r3, [r7, #16]
 409              		.loc 1 104 0
 410 0036 C7F804D0 		str	sp, [r7, #4]
 411              		.loc 1 98 0
 412 003a 0CEE101A 		fmsr	s24, r1	@ int
 413              	.LVL50:
 414              		.loc 1 106 0
 415 003e 70DD     		ble	.L34
 416 0040 F8EECC7A 		fsitos	s15, s24
 417 0044 9FED497A 		flds	s14, .L52
 418              		.loc 1 107 0
 419 0048 DFED49AA 		flds	s21, .L52+4
 420 004c F1EE677A 		fnegs	s15, s15
 421 0050 77EEA77A 		fadds	s15, s15, s15
 422 0054 06EE904A 		fmsr	s13, r4	@ int
 423 0058 27EE87BA 		fmuls	s22, s15, s14
 424 005c F8EEE6BA 		fsitos	s23, s13
 425 0060 A846     		mov	r8, r5
 426 0062 6E46     		mov	r6, sp
 427              		.loc 1 106 0
 428 0064 0025     		movs	r5, #0
 429              	.LVL51:
 430              	.L38:
 431              		.loc 1 109 0
 432 0066 07EE105A 		fmsr	s14, r5	@ int
 433 006a B8EEC7AA 		fsitos	s20, s14
 434 006e 9FED409A 		flds	s18, .L52+4
 435 0072 D7F814B0 		ldr	fp, [r7, #20]
 436 0076 D7F810A0 		ldr	r10, [r7, #16]
 437              		.loc 1 107 0
 438 007a E8EC01AA 		fstmias	r8!, {s21}
 439              		.loc 1 109 0
 440 007e 2AEE0BAA 		fmuls	s20, s20, s22
 441 0082 F0EE499A 		fcpys	s19, s18
 442 0086 8AEE2BAA 		fdivs	s20, s20, s23
 443              	.LVL52:
 444              		.loc 1 110 0
 445 008a 4FF00009 		mov	r9, #0
 446              		.loc 1 108 0
 447 008e E6EC01AA 		fstmias	r6!, {s21}
 448              	.LVL53:
 449              	.L36:
 450              		.loc 1 111 0 discriminator 2
 451 0092 07EE909A 		fmsr	s15, r9	@ int
 452 0096 F8EEE78A 		fsitos	s17, s15
 453              		.loc 1 110 0 discriminator 2
 454 009a 09F10109 		add	r9, r9, #1
 455              	.LVL54:
 456              		.loc 1 111 0 discriminator 2
ARM GAS  /tmp/cc1hBWjO.s 			page 9


 457 009e 68EE8A8A 		fmuls	s17, s17, s20
 458 00a2 B0EE680A 		fcpys	s0, s17
 459 00a6 FFF7FEFF 		bl	cosf
 460              	.LVL55:
 461 00aa B0EE408A 		fcpys	s16, s0
 462              	.LVL56:
 463              		.loc 1 112 0 discriminator 2
 464 00ae B0EE680A 		fcpys	s0, s17
 465              	.LVL57:
 466 00b2 FFF7FEFF 		bl	sinf
 467              	.LVL58:
 468              		.loc 1 113 0 discriminator 2
 469 00b6 FAEC017A 		fldmias	r10!, {s15}
 470 00ba FBEC016A 		fldmias	fp!, {s13}
 471 00be 20EE677A 		fnmuls	s14, s0, s15
 472              		.loc 1 114 0 discriminator 2
 473 00c2 68EE277A 		fmuls	s15, s16, s15
 474              		.loc 1 113 0 discriminator 2
 475 00c6 A6EE887A 		vfma.f32	s14, s13, s16
 476              		.loc 1 110 0 discriminator 2
 477 00ca A145     		cmp	r9, r4
 478              		.loc 1 114 0 discriminator 2
 479 00cc E0EE267A 		vfma.f32	s15, s0, s13
 480              		.loc 1 113 0 discriminator 2
 481 00d0 79EE879A 		fadds	s19, s19, s14
 482              		.loc 1 114 0 discriminator 2
 483 00d4 39EE279A 		fadds	s18, s18, s15
 484              		.loc 1 110 0 discriminator 2
 485 00d8 DBD1     		bne	.L36
 486              		.loc 1 106 0
 487 00da 0135     		adds	r5, r5, #1
 488              	.LVL59:
 489 00dc 4D45     		cmp	r5, r9
 490 00de 48ED019A 		fsts	s19, [r8, #-4]
 491 00e2 06ED019A 		fsts	s18, [r6, #-4]
 492 00e6 BED1     		bne	.L38
 493              		.loc 1 119 0
 494 00e8 1CEE101A 		fmrs	r1, s24	@ int
 495 00ec 0129     		cmp	r1, #1
 496 00ee 1AD0     		beq	.L42
 497              	.LVL60:
 498 00f0 BB68     		ldr	r3, [r7, #8]
 499 00f2 F868     		ldr	r0, [r7, #12]
 500 00f4 D7F81490 		ldr	r9, [r7, #20]
 501              	.LVL61:
 502 00f8 D7F804B0 		ldr	fp, [r7, #4]
 503 00fc D7F810A0 		ldr	r10, [r7, #16]
 504 0100 1844     		add	r0, r0, r3
 505              	.LVL62:
 506              	.L41:
 507              		.loc 1 126 0 discriminator 2
 508 0102 53F8041B 		ldr	r1, [r3], #4	@ float
 509              		.loc 1 127 0 discriminator 2
 510 0106 5BF8042B 		ldr	r2, [fp], #4	@ float
 511              		.loc 1 126 0 discriminator 2
 512 010a 49F8041B 		str	r1, [r9], #4	@ float
 513              		.loc 1 125 0 discriminator 2
ARM GAS  /tmp/cc1hBWjO.s 			page 10


 514 010e 8342     		cmp	r3, r0
 515              		.loc 1 127 0 discriminator 2
 516 0110 4AF8042B 		str	r2, [r10], #4	@ float
 517              		.loc 1 125 0 discriminator 2
 518 0114 F5D1     		bne	.L41
 519              	.LVL63:
 520              	.L32:
 521              		.loc 1 130 0
 522 0116 1C37     		adds	r7, r7, #28
 523              	.LVL64:
 524 0118 BD46     		mov	sp, r7
 525              	.LVL65:
 526              		@ sp needed
 527 011a BDEC0A8B 		fldmfdd	sp!, {d8-d12}
 528              	.LVL66:
 529 011e BDE8F08F 		pop	{r4, r5, r6, r7, r8, r9, r10, fp, pc}
 530              	.LVL67:
 531              	.L34:
 532              		.loc 1 119 0
 533 0122 0129     		cmp	r1, #1
 534 0124 F7D1     		bne	.L32
 535              	.LVL68:
 536              	.L42:
 537              		.loc 1 120 0 discriminator 1
 538 0126 002C     		cmp	r4, #0
 539 0128 F5DD     		ble	.L32
 540 012a 06EE904A 		fmsr	s13, r4	@ int
 541 012e BB68     		ldr	r3, [r7, #8]
 542 0130 FA68     		ldr	r2, [r7, #12]
 543 0132 D7F81490 		ldr	r9, [r7, #20]
 544 0136 D7F804B0 		ldr	fp, [r7, #4]
 545 013a D7F810A0 		ldr	r10, [r7, #16]
 546 013e F8EEE67A 		fsitos	s15, s13
 547 0142 1A44     		add	r2, r2, r3
 548              	.LVL69:
 549              	.L40:
 550              		.loc 1 121 0 discriminator 2
 551 0144 F3EC016A 		fldmias	r3!, {s13}
 552              		.loc 1 122 0 discriminator 2
 553 0148 BBEC017A 		fldmias	fp!, {s14}
 554              		.loc 1 121 0 discriminator 2
 555 014c C6EEA76A 		fdivs	s13, s13, s15
 556              		.loc 1 120 0 discriminator 2
 557 0150 9342     		cmp	r3, r2
 558              		.loc 1 122 0 discriminator 2
 559 0152 87EE277A 		fdivs	s14, s14, s15
 560              		.loc 1 121 0 discriminator 2
 561 0156 E9EC016A 		fstmias	r9!, {s13}
 562              		.loc 1 122 0 discriminator 2
 563 015a AAEC017A 		fstmias	r10!, {s14}
 564              		.loc 1 120 0 discriminator 2
 565 015e F1D1     		bne	.L40
 566              		.loc 1 130 0
 567 0160 1C37     		adds	r7, r7, #28
 568 0162 BD46     		mov	sp, r7
 569              	.LVL70:
 570              		@ sp needed
ARM GAS  /tmp/cc1hBWjO.s 			page 11


 571 0164 BDEC0A8B 		fldmfdd	sp!, {d8-d12}
 572 0168 BDE8F08F 		pop	{r4, r5, r6, r7, r8, r9, r10, fp, pc}
 573              	.LVL71:
 574              	.L53:
 575              		.align	2
 576              	.L52:
 577 016c DB0F4940 		.word	1078530011
 578 0170 00000000 		.word	0
 579              		.cfi_endproc
 580              	.LFE1:
 581              		.size	filter_dft, .-filter_dft
 582 0174 AFF30080 		.section	.text.filter_fftshift,"ax",%progbits
 582      AFF30080 
 582      AFF30080 
 583              		.align	2
 584              		.p2align 4,,15
 585              		.global	filter_fftshift
 586              		.thumb
 587              		.thumb_func
 588              		.type	filter_fftshift, %function
 589              	filter_fftshift:
 590              	.LFB2:
 591              		.loc 1 132 0
 592              		.cfi_startproc
 593              		@ args = 0, pretend = 0, frame = 0
 594              		@ frame_needed = 0, uses_anonymous_args = 0
 595              		@ link register save eliminated.
 596              	.LVL72:
 597              	.LBB8:
 598              		.loc 1 133 0
 599 0000 01EBD171 		add	r1, r1, r1, lsr #31
 600              	.LVL73:
 601 0004 4B10     		asrs	r3, r1, #1
 602 0006 002B     		cmp	r3, #0
 603              	.LBE8:
 604              		.loc 1 132 0
 605 0008 10B4     		push	{r4}
 606              		.cfi_def_cfa_offset 4
 607              		.cfi_offset 4, -4
 608              	.LBB11:
 609              		.loc 1 133 0
 610 000a 0ADD     		ble	.L54
 611 000c 00EB8303 		add	r3, r0, r3, lsl #2
 612 0010 1C46     		mov	r4, r3
 613              	.LVL74:
 614              	.L57:
 615              	.LBB9:
 616              		.loc 1 135 0 discriminator 2
 617 0012 1968     		ldr	r1, [r3]	@ float
 618              		.loc 1 134 0 discriminator 2
 619 0014 0268     		ldr	r2, [r0]	@ float
 620              	.LVL75:
 621              		.loc 1 137 0 discriminator 2
 622 0016 40F8041B 		str	r1, [r0], #4	@ float
 623              	.LBE9:
 624              		.loc 1 133 0 discriminator 2
 625 001a A042     		cmp	r0, r4
ARM GAS  /tmp/cc1hBWjO.s 			page 12


 626              	.LBB10:
 627              		.loc 1 138 0 discriminator 2
 628 001c 43F8042B 		str	r2, [r3], #4	@ float
 629              	.LBE10:
 630              		.loc 1 133 0 discriminator 2
 631 0020 F7D1     		bne	.L57
 632              	.LVL76:
 633              	.L54:
 634              	.LBE11:
 635              		.loc 1 140 0
 636 0022 5DF8044B 		ldr	r4, [sp], #4
 637 0026 7047     		bx	lr
 638              		.cfi_endproc
 639              	.LFE2:
 640              		.size	filter_fftshift, .-filter_fftshift
 641 0028 AFF30080 		.section	.text.filter_hamming,"ax",%progbits
 641      AFF30080 
 642              		.align	2
 643              		.p2align 4,,15
 644              		.global	filter_hamming
 645              		.thumb
 646              		.thumb_func
 647              		.type	filter_hamming, %function
 648              	filter_hamming:
 649              	.LFB3:
 650              		.loc 1 142 0
 651              		.cfi_startproc
 652              		@ args = 0, pretend = 0, frame = 0
 653              		@ frame_needed = 0, uses_anonymous_args = 0
 654              	.LVL77:
 655 0000 F8B5     		push	{r3, r4, r5, r6, r7, lr}
 656              		.cfi_def_cfa_offset 24
 657              		.cfi_offset 3, -24
 658              		.cfi_offset 4, -20
 659              		.cfi_offset 5, -16
 660              		.cfi_offset 6, -12
 661              		.cfi_offset 7, -8
 662              		.cfi_offset 14, -4
 663              		.loc 1 143 0
 664 0002 11F00104 		ands	r4, r1, #1
 665              		.loc 1 142 0
 666 0006 2DED068B 		fstmfdd	sp!, {d8, d9, d10}
 667              		.cfi_def_cfa_offset 48
 668              		.cfi_offset 80, -48
 669              		.cfi_offset 82, -40
 670              		.cfi_offset 84, -32
 671              		.loc 1 142 0
 672 000a 0E46     		mov	r6, r1
 673              		.loc 1 143 0
 674 000c 28D0     		beq	.L60
 675              	.LVL78:
 676              	.LBB12:
 677              		.loc 1 150 0 discriminator 1
 678 000e 0029     		cmp	r1, #0
 679 0010 23DD     		ble	.L59
 680 0012 4B1E     		subs	r3, r1, #1
 681 0014 0AEE103A 		fmsr	s20, r3	@ int
ARM GAS  /tmp/cc1hBWjO.s 			page 13


 682              		.loc 1 151 0
 683 0018 DFED2B9A 		flds	s19, .L65
 684 001c 9FED2B9A 		flds	s18, .L65+4
 685 0020 DFED2B8A 		flds	s17, .L65+8
 686 0024 B8EECAAA 		fsitos	s20, s20
 687 0028 0546     		mov	r5, r0
 688              		.loc 1 150 0
 689 002a 0024     		movs	r4, #0
 690              	.LVL79:
 691              	.L64:
 692              		.loc 1 151 0 discriminator 2
 693 002c 07EE904A 		fmsr	s15, r4	@ int
 694 0030 B8EEE70A 		fsitos	s0, s15
 695 0034 95ED008A 		flds	s16, [r5]
 696 0038 20EE290A 		fmuls	s0, s0, s19
 697              		.loc 1 150 0 discriminator 2
 698 003c 0134     		adds	r4, r4, #1
 699              	.LVL80:
 700              		.loc 1 151 0 discriminator 2
 701 003e 80EE0A0A 		fdivs	s0, s0, s20
 702 0042 FFF7FEFF 		bl	cosf
 703              	.LVL81:
 704              		.loc 1 150 0 discriminator 2
 705 0046 B442     		cmp	r4, r6
 706              		.loc 1 151 0 discriminator 2
 707 0048 F0EE687A 		fcpys	s15, s17
 708 004c E0EE497A 		vfms.f32	s15, s0, s18
 709 0050 28EE278A 		fmuls	s16, s16, s15
 710 0054 A5EC018A 		fstmias	r5!, {s16}
 711              		.loc 1 150 0 discriminator 2
 712 0058 E8D1     		bne	.L64
 713              	.LVL82:
 714              	.L59:
 715              	.LBE12:
 716              		.loc 1 154 0
 717 005a BDEC068B 		fldmfdd	sp!, {d8-d10}
 718 005e F8BD     		pop	{r3, r4, r5, r6, r7, pc}
 719              	.LVL83:
 720              	.L60:
 721              	.LBB13:
 722              		.loc 1 144 0 discriminator 1
 723 0060 01EBD177 		add	r7, r1, r1, lsr #31
 724 0064 7F10     		asrs	r7, r7, #1
 725 0066 002F     		cmp	r7, #0
 726 0068 F7DD     		ble	.L59
 727 006a 4B1E     		subs	r3, r1, #1
 728 006c 09EE903A 		fmsr	s19, r3	@ int
 729              	.LBB14:
 730              		.loc 1 145 0
 731 0070 9FED159A 		flds	s18, .L65
 732 0074 DFED158A 		flds	s17, .L65+4
 733 0078 9FED158A 		flds	s16, .L65+8
 734 007c F8EEE99A 		fsitos	s19, s19
 735 0080 0546     		mov	r5, r0
 736 0082 00EB8106 		add	r6, r0, r1, lsl #2
 737              	.LVL84:
 738              	.L63:
ARM GAS  /tmp/cc1hBWjO.s 			page 14


 739              		.loc 1 145 0 is_stmt 0 discriminator 2
 740 0086 07EE904A 		fmsr	s15, r4	@ int
 741 008a B8EEE70A 		fsitos	s0, s15
 742              	.LBE14:
 743              		.loc 1 144 0 is_stmt 1 discriminator 2
 744 008e 0134     		adds	r4, r4, #1
 745              	.LVL85:
 746              	.LBB15:
 747              		.loc 1 145 0 discriminator 2
 748 0090 20EE090A 		fmuls	s0, s0, s18
 749 0094 80EE290A 		fdivs	s0, s0, s19
 750 0098 FFF7FEFF 		bl	cosf
 751              	.LVL86:
 752              	.LBE15:
 753              		.loc 1 144 0 discriminator 2
 754 009c BC42     		cmp	r4, r7
 755              	.LBB16:
 756              		.loc 1 145 0 discriminator 2
 757 009e F0EE487A 		fcpys	s15, s16
 758 00a2 E0EE687A 		vfms.f32	s15, s0, s17
 759              	.LVL87:
 760              		.loc 1 146 0 discriminator 2
 761 00a6 95ED007A 		flds	s14, [r5]
 762 00aa 27EE277A 		fmuls	s14, s14, s15
 763 00ae A5EC017A 		fstmias	r5!, {s14}
 764              		.loc 1 147 0 discriminator 2
 765 00b2 16ED017A 		flds	s14, [r6, #-4]
 766 00b6 67EE877A 		fmuls	s15, s15, s14
 767              	.LVL88:
 768 00ba 66ED017A 		fstmdbs	r6!, {s15}
 769              	.LBE16:
 770              		.loc 1 144 0 discriminator 2
 771 00be E2D1     		bne	.L63
 772              	.LBE13:
 773              		.loc 1 154 0
 774 00c0 BDEC068B 		fldmfdd	sp!, {d8-d10}
 775              	.LVL89:
 776 00c4 F8BD     		pop	{r3, r4, r5, r6, r7, pc}
 777              	.LVL90:
 778              	.L66:
 779 00c6 00BF     		.align	2
 780              	.L65:
 781 00c8 DB0FC940 		.word	1086918619
 782 00cc 1F85EB3E 		.word	1055622431
 783 00d0 713D0A3F 		.word	1057635697
 784              		.cfi_endproc
 785              	.LFE3:
 786              		.size	filter_hamming, .-filter_hamming
 787 00d4 AFF30080 		.section	.text.filter_zeroPad,"ax",%progbits
 787      AFF30080 
 787      AFF30080 
 788              		.align	2
 789              		.p2align 4,,15
 790              		.global	filter_zeroPad
 791              		.thumb
 792              		.thumb_func
 793              		.type	filter_zeroPad, %function
ARM GAS  /tmp/cc1hBWjO.s 			page 15


 794              	filter_zeroPad:
 795              	.LFB4:
 796              		.loc 1 156 0
 797              		.cfi_startproc
 798              		@ args = 0, pretend = 0, frame = 0
 799              		@ frame_needed = 0, uses_anonymous_args = 0
 800              		@ link register save eliminated.
 801              	.LVL91:
 802              	.LBB17:
 803              		.loc 1 157 0
 804 0000 002B     		cmp	r3, #0
 805              	.LBE17:
 806              		.loc 1 156 0
 807 0002 70B4     		push	{r4, r5, r6}
 808              		.cfi_def_cfa_offset 12
 809              		.cfi_offset 4, -12
 810              		.cfi_offset 5, -8
 811              		.cfi_offset 6, -4
 812              	.LBB18:
 813              		.loc 1 157 0
 814 0004 0FDD     		ble	.L67
 815              		.loc 1 161 0
 816 0006 0026     		movs	r6, #0
 817              		.loc 1 157 0
 818 0008 0024     		movs	r4, #0
 819              	.LVL92:
 820              	.L72:
 821              		.loc 1 158 0
 822 000a A242     		cmp	r2, r4
 823              		.loc 1 159 0
 824 000c C4BF     		itt	gt
 825 000e 0568     		ldrgt	r5, [r0]	@ float
 826 0010 0D60     		strgt	r5, [r1]	@ float
 827              		.loc 1 157 0
 828 0012 04F10104 		add	r4, r4, #1
 829              	.LVL93:
 830              		.loc 1 161 0
 831 0016 D8BF     		it	le
 832 0018 0E60     		strle	r6, [r1]	@ float
 833              		.loc 1 157 0
 834 001a 9C42     		cmp	r4, r3
 835 001c 00F10400 		add	r0, r0, #4
 836 0020 01F10401 		add	r1, r1, #4
 837 0024 F1D1     		bne	.L72
 838              	.LVL94:
 839              	.L67:
 840              	.LBE18:
 841              		.loc 1 164 0
 842 0026 70BC     		pop	{r4, r5, r6}
 843 0028 7047     		bx	lr
 844              		.cfi_endproc
 845              	.LFE4:
 846              		.size	filter_zeroPad, .-filter_zeroPad
 847 002a 00BFAFF3 		.section	.text.filter_create_fir_lowpass,"ax",%progbits
 847      0080
 848              		.align	2
 849              		.p2align 4,,15
ARM GAS  /tmp/cc1hBWjO.s 			page 16


 850              		.global	filter_create_fir_lowpass
 851              		.thumb
 852              		.thumb_func
 853              		.type	filter_create_fir_lowpass, %function
 854              	filter_create_fir_lowpass:
 855              	.LFB5:
 856              		.loc 1 166 0
 857              		.cfi_startproc
 858              		@ args = 0, pretend = 0, frame = 0
 859              		@ frame_needed = 1, uses_anonymous_args = 0
 860              	.LVL95:
 861 0000 2DE9F047 		push	{r4, r5, r6, r7, r8, r9, r10, lr}
 862              		.cfi_def_cfa_offset 32
 863              		.cfi_offset 4, -32
 864              		.cfi_offset 5, -28
 865              		.cfi_offset 6, -24
 866              		.cfi_offset 7, -20
 867              		.cfi_offset 8, -16
 868              		.cfi_offset 9, -12
 869              		.cfi_offset 10, -8
 870              		.cfi_offset 14, -4
 871              		.loc 1 167 0
 872 0004 0126     		movs	r6, #1
 873 0006 8E40     		lsls	r6, r6, r1
 874              	.LVL96:
 875              		.loc 1 168 0
 876 0008 4FEA860A 		lsl	r10, r6, #2
 877 000c 0AF10A03 		add	r3, r10, #10
 878 0010 23F00703 		bic	r3, r3, #7
 879              		.loc 1 166 0
 880 0014 00AF     		add	r7, sp, #0
 881              		.cfi_def_cfa_register 7
 882              	.LBB19:
 883              		.loc 1 170 0
 884 0016 002E     		cmp	r6, #0
 885              	.LBE19:
 886              		.loc 1 168 0
 887 0018 ADEB030D 		sub	sp, sp, r3
 888              		.loc 1 166 0
 889 001c 8146     		mov	r9, r0
 890 001e 9046     		mov	r8, r2
 891              		.loc 1 168 0
 892 0020 6B46     		mov	r3, sp
 893              	.LVL97:
 894              	.LBB20:
 895              		.loc 1 170 0
 896 0022 1DDD     		ble	.L80
 897 0024 07EE106A 		fmsr	s14, r6	@ int
 898 0028 F8EEC77A 		fsitos	s15, s14
 899              		.loc 1 174 0
 900 002c 4FF0000E 		mov	lr, #0
 901 0030 20EE270A 		fmuls	s0, s0, s15
 902              	.LVL98:
 903 0034 6846     		mov	r0, sp
 904              	.LVL99:
 905 0036 BDEEC00A 		ftosizs	s0, s0
 906 003a 4D46     		mov	r5, r9
ARM GAS  /tmp/cc1hBWjO.s 			page 17


 907 003c 10EE10CA 		fmrs	ip, s0	@ int
 908              		.loc 1 170 0
 909 0040 0024     		movs	r4, #0
 910              		.loc 1 172 0
 911 0042 4FF07E52 		mov	r2, #1065353216
 912              	.LVL100:
 913              	.L81:
 914              		.loc 1 171 0
 915 0046 6445     		cmp	r4, ip
 916              		.loc 1 170 0
 917 0048 04F10104 		add	r4, r4, #1
 918              	.LVL101:
 919              		.loc 1 172 0
 920 004c B4BF     		ite	lt
 921 004e 2A60     		strlt	r2, [r5]	@ float
 922              		.loc 1 174 0
 923 0050 C5F800E0 		strge	lr, [r5]	@ float
 924              		.loc 1 170 0
 925 0054 B442     		cmp	r4, r6
 926              		.loc 1 176 0
 927 0056 40F804EB 		str	lr, [r0], #4	@ float
 928 005a 05F10405 		add	r5, r5, #4
 929              		.loc 1 170 0
 930 005e F2D1     		bne	.L81
 931              	.LVL102:
 932              	.L80:
 933              	.LBE20:
 934              	.LBB21:
 935              		.loc 1 180 0
 936 0060 06EBD675 		add	r5, r6, r6, lsr #31
 937 0064 6D10     		asrs	r5, r5, #1
 938 0066 002D     		cmp	r5, #0
 939 0068 22DD     		ble	.L94
 940 006a 09EB0A02 		add	r2, r9, r10
 941 006e 09EB8505 		add	r5, r9, r5, lsl #2
 942 0072 4C46     		mov	r4, r9
 943              	.LVL103:
 944              	.L83:
 945              		.loc 1 181 0 discriminator 2
 946 0074 54F8040B 		ldr	r0, [r4], #4	@ float
 947 0078 42F8040D 		str	r0, [r2, #-4]!	@ float
 948              		.loc 1 180 0 discriminator 2
 949 007c AC42     		cmp	r4, r5
 950 007e F9D1     		bne	.L83
 951              	.LBE21:
 952              		.loc 1 184 0
 953 0080 0120     		movs	r0, #1
 954 0082 4A46     		mov	r2, r9
 955 0084 FFF7FEFF 		bl	filter_fft
 956              	.LVL104:
 957 0088 2C46     		mov	r4, r5
 958 008a 4B46     		mov	r3, r9
 959              	.LVL105:
 960              	.L86:
 961              	.LBB22:
 962              	.LBB23:
 963              	.LBB24:
ARM GAS  /tmp/cc1hBWjO.s 			page 18


 964              		.loc 1 135 0
 965 008c 2168     		ldr	r1, [r4]	@ float
 966              		.loc 1 134 0
 967 008e 1A68     		ldr	r2, [r3]	@ float
 968              	.LVL106:
 969              		.loc 1 137 0
 970 0090 43F8041B 		str	r1, [r3], #4	@ float
 971              	.LBE24:
 972              		.loc 1 133 0
 973 0094 9D42     		cmp	r5, r3
 974              	.LBB25:
 975              		.loc 1 138 0
 976 0096 44F8042B 		str	r2, [r4], #4	@ float
 977              	.LBE25:
 978              		.loc 1 133 0
 979 009a F7D1     		bne	.L86
 980              	.LVL107:
 981              	.L87:
 982              	.LBE23:
 983              	.LBE22:
 984              		.loc 1 187 0
 985 009c B8F1000F 		cmp	r8, #0
 986 00a0 03D0     		beq	.L74
 987              		.loc 1 188 0
 988 00a2 4846     		mov	r0, r9
 989 00a4 3146     		mov	r1, r6
 990 00a6 FFF7FEFF 		bl	filter_hamming
 991              	.LVL108:
 992              	.L74:
 993              		.loc 1 190 0
 994 00aa BD46     		mov	sp, r7
 995              	.LVL109:
 996              		@ sp needed
 997 00ac BDE8F087 		pop	{r4, r5, r6, r7, r8, r9, r10, pc}
 998              	.LVL110:
 999              	.L94:
 1000              		.loc 1 184 0
 1001 00b0 0120     		movs	r0, #1
 1002 00b2 4A46     		mov	r2, r9
 1003 00b4 FFF7FEFF 		bl	filter_fft
 1004              	.LVL111:
 1005 00b8 F0E7     		b	.L87
 1006              		.cfi_endproc
 1007              	.LFE5:
 1008              		.size	filter_create_fir_lowpass, .-filter_create_fir_lowpass
 1009 00ba 00BFAFF3 		.section	.text.filter_run_fir_iteration,"ax",%progbits
 1009      0080
 1010              		.align	2
 1011              		.p2align 4,,15
 1012              		.global	filter_run_fir_iteration
 1013              		.thumb
 1014              		.thumb_func
 1015              		.type	filter_run_fir_iteration, %function
 1016              	filter_run_fir_iteration:
 1017              	.LFB6:
 1018              		.loc 1 203 0
 1019              		.cfi_startproc
ARM GAS  /tmp/cc1hBWjO.s 			page 19


 1020              		@ args = 0, pretend = 0, frame = 0
 1021              		@ frame_needed = 0, uses_anonymous_args = 0
 1022              		@ link register save eliminated.
 1023              	.LVL112:
 1024 0000 70B4     		push	{r4, r5, r6}
 1025              		.cfi_def_cfa_offset 12
 1026              		.cfi_offset 4, -12
 1027              		.cfi_offset 5, -8
 1028              		.cfi_offset 6, -4
 1029              		.loc 1 205 0
 1030 0002 0125     		movs	r5, #1
 1031              		.loc 1 206 0
 1032 0004 C2F12004 		rsb	r4, r2, #32
 1033              		.loc 1 205 0
 1034 0008 05FA02F2 		lsl	r2, r5, r2
 1035              	.LVL113:
 1036              		.loc 1 206 0
 1037 000c 4FF0FF36 		mov	r6, #-1
 1038              	.LBB26:
 1039              		.loc 1 208 0
 1040 0010 002A     		cmp	r2, #0
 1041              	.LBE26:
 1042              		.loc 1 206 0
 1043 0012 26FA04F4 		lsr	r4, r6, r4
 1044              	.LVL114:
 1045              		.loc 1 204 0
 1046 0016 9FED0A0A 		flds	s0, .L100
 1047              	.LBB27:
 1048              		.loc 1 208 0
 1049 001a 0EDD     		ble	.L96
 1050 001c 01EB8205 		add	r5, r1, r2, lsl #2
 1051              	.LVL115:
 1052              	.L97:
 1053              		.loc 1 209 0 discriminator 2
 1054 0020 00EB8302 		add	r2, r0, r3, lsl #2
 1055 0024 B1EC017A 		fldmias	r1!, {s14}
 1056 0028 D2ED007A 		flds	s15, [r2]
 1057              		.loc 1 210 0 discriminator 2
 1058 002c 0133     		adds	r3, r3, #1
 1059              	.LVL116:
 1060              		.loc 1 208 0 discriminator 2
 1061 002e A942     		cmp	r1, r5
 1062              		.loc 1 211 0 discriminator 2
 1063 0030 03EA0403 		and	r3, r3, r4
 1064              	.LVL117:
 1065              		.loc 1 209 0 discriminator 2
 1066 0034 A7EE270A 		vfma.f32	s0, s14, s15
 1067              	.LVL118:
 1068              		.loc 1 208 0 discriminator 2
 1069 0038 F2D1     		bne	.L97
 1070              	.LVL119:
 1071              	.L96:
 1072              	.LBE27:
 1073              		.loc 1 215 0
 1074 003a 70BC     		pop	{r4, r5, r6}
 1075              	.LVL120:
 1076 003c 7047     		bx	lr
ARM GAS  /tmp/cc1hBWjO.s 			page 20


 1077              	.L101:
 1078 003e 00BF     		.align	2
 1079              	.L100:
 1080 0040 00000000 		.word	0
 1081              		.cfi_endproc
 1082              	.LFE6:
 1083              		.size	filter_run_fir_iteration, .-filter_run_fir_iteration
 1084 0044 AFF30080 		.section	.text.filter_add_sample,"ax",%progbits
 1084      AFF30080 
 1084      AFF30080 
 1085              		.align	2
 1086              		.p2align 4,,15
 1087              		.global	filter_add_sample
 1088              		.thumb
 1089              		.thumb_func
 1090              		.type	filter_add_sample, %function
 1091              	filter_add_sample:
 1092              	.LFB7:
 1093              		.loc 1 229 0
 1094              		.cfi_startproc
 1095              		@ args = 0, pretend = 0, frame = 0
 1096              		@ frame_needed = 0, uses_anonymous_args = 0
 1097              		@ link register save eliminated.
 1098              	.LVL121:
 1099              		.loc 1 231 0
 1100 0000 1368     		ldr	r3, [r2]
 1101              		.loc 1 229 0
 1102 0002 10B4     		push	{r4}
 1103              		.cfi_def_cfa_offset 4
 1104              		.cfi_offset 4, -4
 1105              		.loc 1 230 0
 1106 0004 C1F12001 		rsb	r1, r1, #32
 1107              	.LVL122:
 1108 0008 4FF0FF34 		mov	r4, #-1
 1109 000c 24FA01F1 		lsr	r1, r4, r1
 1110              	.LVL123:
 1111              		.loc 1 232 0
 1112 0010 5C1C     		adds	r4, r3, #1
 1113              		.loc 1 233 0
 1114 0012 0C40     		ands	r4, r4, r1
 1115              		.loc 1 231 0
 1116 0014 00EB8300 		add	r0, r0, r3, lsl #2
 1117              	.LVL124:
 1118 0018 80ED000A 		fsts	s0, [r0]
 1119              		.loc 1 233 0
 1120 001c 1460     		str	r4, [r2]
 1121              		.loc 1 234 0
 1122 001e 5DF8044B 		ldr	r4, [sp], #4
 1123 0022 7047     		bx	lr
 1124              		.cfi_endproc
 1125              	.LFE7:
 1126              		.size	filter_add_sample, .-filter_add_sample
 1127 0024 AFF30080 		.text
 1127      AFF30080 
 1127      AFF30080 
 1128              	.Letext0:
 1129              		.file 2 "/usr/include/newlib/machine/_default_types.h"
ARM GAS  /tmp/cc1hBWjO.s 			page 21


 1130              		.file 3 "/usr/include/newlib/stdint.h"
 1131              		.file 4 "/usr/include/newlib/math.h"