ARM GAS  /tmp/ccMMwOcJ.s 			page 1


   1              		.syntax unified
   2              		.cpu cortex-m4
   3              		.eabi_attribute 27, 3
   4              		.eabi_attribute 28, 1
   5              		.fpu fpv4-sp-d16
   6              		.eabi_attribute 20, 1
   7              		.eabi_attribute 21, 1
   8              		.eabi_attribute 23, 3
   9              		.eabi_attribute 24, 1
  10              		.eabi_attribute 25, 1
  11              		.eabi_attribute 26, 1
  12              		.eabi_attribute 30, 2
  13              		.eabi_attribute 34, 1
  14              		.eabi_attribute 18, 4
  15              		.thumb
  16              		.file	"eeprom.c"
  17              		.text
  18              	.Ltext0:
  19              		.cfi_sections	.debug_frame
  20              		.section	.text.EE_VerifyPageFullWriteVariable,"ax",%progbits
  21              		.align	2
  22              		.p2align 4,,15
  23              		.thumb
  24              		.thumb_func
  25              		.type	EE_VerifyPageFullWriteVariable, %function
  26              	EE_VerifyPageFullWriteVariable:
  27              	.LFB224:
  28              		.file 1 "eeprom.c"
  29              		.loc 1 465 0
  30              		.cfi_startproc
  31              		@ args = 0, pretend = 0, frame = 0
  32              		@ frame_needed = 0, uses_anonymous_args = 0
  33              	.LVL0:
  34 0000 38B5     		push	{r3, r4, r5, lr}
  35              		.cfi_def_cfa_offset 16
  36              		.cfi_offset 3, -16
  37              		.cfi_offset 4, -12
  38              		.cfi_offset 5, -8
  39              		.cfi_offset 14, -4
  40              	.LBB5:
  41              	.LBB6:
  42              		.loc 1 397 0
  43 0002 1A4A     		ldr	r2, .L20
  44              		.loc 1 400 0
  45 0004 1A4B     		ldr	r3, .L20+4
  46              		.loc 1 397 0
  47 0006 1288     		ldrh	r2, [r2]
  48              		.loc 1 400 0
  49 0008 1B88     		ldrh	r3, [r3]
  50 000a 9BB2     		uxth	r3, r3
  51              	.LBE6:
  52              	.LBE5:
  53              		.loc 1 465 0
  54 000c 0546     		mov	r5, r0
  55              	.LBB10:
  56              	.LBB7:
  57              		.loc 1 397 0
ARM GAS  /tmp/ccMMwOcJ.s 			page 2


  58 000e 92B2     		uxth	r2, r2
  59              	.LVL1:
  60              		.loc 1 406 0
  61 0010 DBB9     		cbnz	r3, .L2
  62              		.loc 1 409 0
  63 0012 4EF6EE63 		movw	r3, #61166
  64              	.LVL2:
  65              		.loc 1 423 0
  66 0016 D21A     		subs	r2, r2, r3
  67              	.LVL3:
  68 0018 18BF     		it	ne
  69 001a 0122     		movne	r2, #1
  70              	.LVL4:
  71              	.L3:
  72              	.LBE7:
  73              	.LBE10:
  74              		.loc 1 480 0
  75 001c 02F50054 		add	r4, r2, #8192
  76              		.loc 1 483 0
  77 0020 531C     		adds	r3, r2, #1
  78 0022 144A     		ldr	r2, .L20+8
  79              		.loc 1 480 0
  80 0024 0134     		adds	r4, r4, #1
  81              		.loc 1 483 0
  82 0026 9B03     		lsls	r3, r3, #14
  83              		.loc 1 480 0
  84 0028 A403     		lsls	r4, r4, #14
  85              	.LVL5:
  86              		.loc 1 483 0
  87 002a 1A44     		add	r2, r2, r3
  88              	.LVL6:
  89              		.loc 1 486 0
  90 002c 9442     		cmp	r4, r2
  91 002e 03D3     		bcc	.L7
  92 0030 0EE0     		b	.L11
  93              	.L9:
  94              		.loc 1 506 0
  95 0032 0434     		adds	r4, r4, #4
  96              	.LVL7:
  97              		.loc 1 486 0
  98 0034 A242     		cmp	r2, r4
  99 0036 0BD9     		bls	.L11
 100              	.L7:
 101              		.loc 1 489 0
 102 0038 2368     		ldr	r3, [r4]
 103 003a 0133     		adds	r3, r3, #1
 104 003c F9D1     		bne	.L9
 105              		.loc 1 492 0
 106 003e 2046     		mov	r0, r4
 107              	.LVL8:
 108 0040 FFF7FEFF 		bl	FLASH_ProgramHalfWord
 109              	.LVL9:
 110              		.loc 1 494 0
 111 0044 0928     		cmp	r0, #9
 112 0046 0BD0     		beq	.L18
 113              		.loc 1 512 0
 114 0048 38BD     		pop	{r3, r4, r5, pc}
ARM GAS  /tmp/ccMMwOcJ.s 			page 3


 115              	.LVL10:
 116              	.L2:
 117              	.LBB11:
 118              	.LBB8:
 119              		.loc 1 418 0
 120 004a 1AB1     		cbz	r2, .L19
 121              	.LBE8:
 122              	.LBE11:
 123              		.loc 1 476 0
 124 004c AB20     		movs	r0, #171
 125              	.LVL11:
 126 004e 38BD     		pop	{r3, r4, r5, pc}
 127              	.LVL12:
 128              	.L11:
 129              		.loc 1 511 0
 130 0050 8020     		movs	r0, #128
 131              	.LVL13:
 132 0052 38BD     		pop	{r3, r4, r5, pc}
 133              	.LVL14:
 134              	.L19:
 135              	.LBB12:
 136              	.LBB9:
 137              		.loc 1 421 0
 138 0054 4EF6EE62 		movw	r2, #61166
 139              	.LVL15:
 140              		.loc 1 423 0
 141 0058 9B1A     		subs	r3, r3, r2
 142              	.LVL16:
 143 005a 5A42     		rsbs	r2, r3, #0
 144 005c 5A41     		adcs	r2, r2, r3
 145 005e DDE7     		b	.L3
 146              	.LVL17:
 147              	.L18:
 148              	.LBE9:
 149              	.LBE12:
 150              		.loc 1 499 0
 151 0060 A01C     		adds	r0, r4, #2
 152              	.LVL18:
 153 0062 2946     		mov	r1, r5
 154 0064 FFF7FEFF 		bl	FLASH_ProgramHalfWord
 155              	.LVL19:
 156              		.loc 1 501 0
 157 0068 38BD     		pop	{r3, r4, r5, pc}
 158              	.LVL20:
 159              	.L21:
 160 006a 00BF     		.align	2
 161              	.L20:
 162 006c 00400008 		.word	134234112
 163 0070 00800008 		.word	134250496
 164 0074 FE3F0008 		.word	134234110
 165              		.cfi_endproc
 166              	.LFE224:
 167              		.size	EE_VerifyPageFullWriteVariable, .-EE_VerifyPageFullWriteVariable
 168 0078 AFF30080 		.section	.text.EE_EraseSectorIfNotEmpty.constprop.1,"ax",%progbits
 168      AFF30080 
 169              		.align	2
 170              		.p2align 4,,15
ARM GAS  /tmp/ccMMwOcJ.s 			page 4


 171              		.thumb
 172              		.thumb_func
 173              		.type	EE_EraseSectorIfNotEmpty.constprop.1, %function
 174              	EE_EraseSectorIfNotEmpty.constprop.1:
 175              	.LFB228:
 176              		.loc 1 618 0
 177              		.cfi_startproc
 178              		@ args = 0, pretend = 0, frame = 0
 179              		@ frame_needed = 0, uses_anonymous_args = 0
 180              	.LVL21:
 181 0000 10B5     		push	{r4, lr}
 182              		.cfi_def_cfa_offset 8
 183              		.cfi_offset 4, -8
 184              		.cfi_offset 14, -4
 185              		.loc 1 618 0
 186 0002 0446     		mov	r4, r0
 187              		.loc 1 619 0
 188 0004 FFF7FEFF 		bl	flash_helper_get_sector_address
 189              	.LVL22:
 190              	.LBB13:
 191              		.loc 1 621 0
 192 0008 0023     		movs	r3, #0
 193 000a 02E0     		b	.L25
 194              	.LVL23:
 195              	.L23:
 196 000c B3F5804F 		cmp	r3, #16384
 197 0010 09D0     		beq	.L28
 198              	.LVL24:
 199              	.L25:
 200              		.loc 1 622 0
 201 0012 C25C     		ldrb	r2, [r0, r3]	@ zero_extendqisi2
 202 0014 FF2A     		cmp	r2, #255
 203              		.loc 1 621 0
 204 0016 03F10103 		add	r3, r3, #1
 205              	.LVL25:
 206              		.loc 1 622 0
 207 001a F7D0     		beq	.L23
 208              		.loc 1 623 0
 209 001c 2046     		mov	r0, r4
 210              	.LVL26:
 211 001e 0221     		movs	r1, #2
 212 0020 FFF7FEFF 		bl	FLASH_EraseSector
 213              	.LVL27:
 214 0024 10BD     		pop	{r4, pc}
 215              	.LVL28:
 216              	.L28:
 217              	.LBE13:
 218              		.loc 1 627 0
 219 0026 0920     		movs	r0, #9
 220              	.LVL29:
 221              		.loc 1 628 0
 222 0028 10BD     		pop	{r4, pc}
 223              		.cfi_endproc
 224              	.LFE228:
 225              		.size	EE_EraseSectorIfNotEmpty.constprop.1, .-EE_EraseSectorIfNotEmpty.constprop.1
 226 002a 00BFAFF3 		.section	.text.EE_Format,"ax",%progbits
 226      0080
ARM GAS  /tmp/ccMMwOcJ.s 			page 5


 227              		.align	2
 228              		.p2align 4,,15
 229              		.thumb
 230              		.thumb_func
 231              		.type	EE_Format, %function
 232              	EE_Format:
 233              	.LFB222:
 234              		.loc 1 355 0
 235              		.cfi_startproc
 236              		@ args = 0, pretend = 0, frame = 0
 237              		@ frame_needed = 0, uses_anonymous_args = 0
 238              	.LVL30:
 239 0000 08B5     		push	{r3, lr}
 240              		.cfi_def_cfa_offset 8
 241              		.cfi_offset 3, -8
 242              		.cfi_offset 14, -4
 243              		.loc 1 359 0
 244 0002 0820     		movs	r0, #8
 245 0004 FFF7FEFF 		bl	EE_EraseSectorIfNotEmpty.constprop.1
 246              	.LVL31:
 247 0008 C0B2     		uxtb	r0, r0
 248              	.LVL32:
 249              		.loc 1 362 0
 250 000a 0928     		cmp	r0, #9
 251 000c 00D0     		beq	.L33
 252              	.LVL33:
 253              	.L30:
 254              		.loc 1 381 0
 255 000e 08BD     		pop	{r3, pc}
 256              	.LVL34:
 257              	.L33:
 258              		.loc 1 368 0
 259 0010 0548     		ldr	r0, .L34
 260              	.LVL35:
 261 0012 0021     		movs	r1, #0
 262 0014 FFF7FEFF 		bl	FLASH_ProgramHalfWord
 263              	.LVL36:
 264              		.loc 1 371 0
 265 0018 0928     		cmp	r0, #9
 266 001a F8D1     		bne	.L30
 267              	.LBB16:
 268              		.loc 1 377 0
 269 001c 1020     		movs	r0, #16
 270              	.LVL37:
 271 001e FFF7FEFF 		bl	EE_EraseSectorIfNotEmpty.constprop.1
 272              	.LVL38:
 273 0022 C0B2     		uxtb	r0, r0
 274 0024 F3E7     		b	.L30
 275              	.L35:
 276 0026 00BF     		.align	2
 277              	.L34:
 278 0028 00400008 		.word	134234112
 279              	.LBE16:
 280              		.cfi_endproc
 281              	.LFE222:
 282              		.size	EE_Format, .-EE_Format
 283 002c AFF30080 		.section	.text.EE_ReadVariable,"ax",%progbits
ARM GAS  /tmp/ccMMwOcJ.s 			page 6


 284              		.align	2
 285              		.p2align 4,,15
 286              		.global	EE_ReadVariable
 287              		.thumb
 288              		.thumb_func
 289              		.type	EE_ReadVariable, %function
 290              	EE_ReadVariable:
 291              	.LFB220:
 292              		.loc 1 272 0
 293              		.cfi_startproc
 294              		@ args = 0, pretend = 0, frame = 0
 295              		@ frame_needed = 0, uses_anonymous_args = 0
 296              		@ link register save eliminated.
 297              	.LVL39:
 298              	.LBB19:
 299              	.LBB20:
 300              		.loc 1 397 0
 301 0000 154B     		ldr	r3, .L46
 302              		.loc 1 400 0
 303 0002 164A     		ldr	r2, .L46+4
 304              		.loc 1 397 0
 305 0004 1B88     		ldrh	r3, [r3]
 306              		.loc 1 400 0
 307 0006 1288     		ldrh	r2, [r2]
 308              		.loc 1 397 0
 309 0008 9BB2     		uxth	r3, r3
 310              	.LVL40:
 311              	.LBE20:
 312              	.LBE19:
 313              		.loc 1 272 0
 314 000a 10B4     		push	{r4}
 315              		.cfi_def_cfa_offset 4
 316              		.cfi_offset 4, -4
 317              	.LBB24:
 318              	.LBB21:
 319              		.loc 1 400 0
 320 000c 92B2     		uxth	r2, r2
 321              	.LVL41:
 322              		.loc 1 436 0
 323 000e BBB1     		cbz	r3, .L43
 324              		.loc 1 440 0
 325 0010 1AB1     		cbz	r2, .L44
 326              	.LBE21:
 327              	.LBE24:
 328              		.loc 1 283 0
 329 0012 AB20     		movs	r0, #171
 330              	.LVL42:
 331              		.loc 1 318 0
 332 0014 5DF8044B 		ldr	r4, [sp], #4
 333 0018 7047     		bx	lr
 334              	.LVL43:
 335              	.L44:
 336              	.LBB25:
 337              	.LBB22:
 338              		.loc 1 440 0
 339 001a 114B     		ldr	r3, .L46+8
 340              	.LVL44:
ARM GAS  /tmp/ccMMwOcJ.s 			page 7


 341 001c 114C     		ldr	r4, .L46+12
 342 001e 1A46     		mov	r2, r3
 343              	.LVL45:
 344              	.L37:
 345              	.LBE22:
 346              	.LBE25:
 347              		.loc 1 296 0
 348 0020 1288     		ldrh	r2, [r2]
 349 0022 92B2     		uxth	r2, r2
 350              	.LVL46:
 351              		.loc 1 299 0
 352 0024 8242     		cmp	r2, r0
 353 0026 04D1     		bne	.L42
 354 0028 0EE0     		b	.L41
 355              	.LVL47:
 356              	.L40:
 357              		.loc 1 296 0
 358 002a 1A88     		ldrh	r2, [r3]
 359 002c 92B2     		uxth	r2, r2
 360              	.LVL48:
 361              		.loc 1 299 0
 362 002e 8242     		cmp	r2, r0
 363 0030 0AD0     		beq	.L41
 364              	.LVL49:
 365              	.L42:
 366              		.loc 1 312 0
 367 0032 043B     		subs	r3, r3, #4
 368              	.LVL50:
 369              		.loc 1 293 0
 370 0034 A342     		cmp	r3, r4
 371 0036 F8D8     		bhi	.L40
 372              		.loc 1 274 0
 373 0038 0120     		movs	r0, #1
 374              	.LVL51:
 375              		.loc 1 318 0
 376 003a 5DF8044B 		ldr	r4, [sp], #4
 377 003e 7047     		bx	lr
 378              	.LVL52:
 379              	.L43:
 380              	.LBB26:
 381              	.LBB23:
 382              		.loc 1 436 0
 383 0040 094B     		ldr	r3, .L46+16
 384              	.LVL53:
 385 0042 0A4C     		ldr	r4, .L46+20
 386 0044 1A46     		mov	r2, r3
 387              	.LVL54:
 388 0046 EBE7     		b	.L37
 389              	.LVL55:
 390              	.L41:
 391              	.LBE23:
 392              	.LBE26:
 393              		.loc 1 302 0
 394 0048 33F8023C 		ldrh	r3, [r3, #-2]
 395              	.LVL56:
 396 004c 0B80     		strh	r3, [r1]	@ movhi
 397              	.LVL57:
ARM GAS  /tmp/ccMMwOcJ.s 			page 8


 398              		.loc 1 305 0
 399 004e 0020     		movs	r0, #0
 400              	.LVL58:
 401              		.loc 1 318 0
 402 0050 5DF8044B 		ldr	r4, [sp], #4
 403 0054 7047     		bx	lr
 404              	.L47:
 405 0056 00BF     		.align	2
 406              	.L46:
 407 0058 00400008 		.word	134234112
 408 005c 00800008 		.word	134250496
 409 0060 FEBF0008 		.word	134266878
 410 0064 02800008 		.word	134250498
 411 0068 FE7F0008 		.word	134250494
 412 006c 02400008 		.word	134234114
 413              		.cfi_endproc
 414              	.LFE220:
 415              		.size	EE_ReadVariable, .-EE_ReadVariable
 416              		.section	.text.EE_Init,"ax",%progbits
 417              		.align	2
 418              		.p2align 4,,15
 419              		.global	EE_Init
 420              		.thumb
 421              		.thumb_func
 422              		.type	EE_Init, %function
 423              	EE_Init:
 424              	.LFB219:
 425              		.loc 1 57 0
 426              		.cfi_startproc
 427              		@ args = 0, pretend = 0, frame = 0
 428              		@ frame_needed = 0, uses_anonymous_args = 0
 429              	.LVL59:
 430 0000 2DE9F041 		push	{r4, r5, r6, r7, r8, lr}
 431              		.cfi_def_cfa_offset 24
 432              		.cfi_offset 4, -24
 433              		.cfi_offset 5, -20
 434              		.cfi_offset 6, -16
 435              		.cfi_offset 7, -12
 436              		.cfi_offset 8, -8
 437              		.cfi_offset 14, -4
 438              		.loc 1 65 0
 439 0004 4B4D     		ldr	r5, .L93
 440              		.loc 1 67 0
 441 0006 4C4F     		ldr	r7, .L93+4
 442              		.loc 1 65 0
 443 0008 2B88     		ldrh	r3, [r5]
 444              		.loc 1 67 0
 445 000a 3C88     		ldrh	r4, [r7]
 446              		.loc 1 65 0
 447 000c 9BB2     		uxth	r3, r3
 448              	.LVL60:
 449              		.loc 1 70 0
 450 000e 4EF6EE62 		movw	r2, #61166
 451 0012 9342     		cmp	r3, r2
 452              		.loc 1 67 0
 453 0014 A4B2     		uxth	r4, r4
 454              	.LVL61:
ARM GAS  /tmp/ccMMwOcJ.s 			page 9


 455              		.loc 1 70 0
 456 0016 40D0     		beq	.L50
 457 0018 4FF6FF76 		movw	r6, #65535
 458 001c B342     		cmp	r3, r6
 459 001e 2DD0     		beq	.L51
 460 0020 1BB1     		cbz	r3, .L90
 461              	.LVL62:
 462              	.L85:
 463              		.loc 1 249 0
 464 0022 FFF7FEFF 		bl	EE_Format
 465              	.LVL63:
 466              	.L55:
 467              		.loc 1 259 0
 468 0026 BDE8F081 		pop	{r4, r5, r6, r7, r8, pc}
 469              	.LVL64:
 470              	.L90:
 471              		.loc 1 184 0
 472 002a 002C     		cmp	r4, #0
 473 002c F9D0     		beq	.L85
 474              		.loc 1 194 0
 475 002e B442     		cmp	r4, r6
 476 0030 7BD0     		beq	.L89
 477 0032 424D     		ldr	r5, .L93+8
 478              		.loc 1 209 0
 479 0034 424F     		ldr	r7, .L93+12
 480              		.loc 1 216 0
 481 0036 DFF80C81 		ldr	r8, .L93+16
 482              		.loc 1 194 0
 483 003a 1C46     		mov	r4, r3
 484              	.LVL65:
 485 003c 02E0     		b	.L69
 486              	.LVL66:
 487              	.L68:
 488              		.loc 1 207 0
 489 003e B4F58F7F 		cmp	r4, #286
 490 0042 60D0     		beq	.L91
 491              	.LVL67:
 492              	.L69:
 493              		.loc 1 209 0
 494 0044 3A88     		ldrh	r2, [r7]
 495 0046 35F8023B 		ldrh	r3, [r5], #2
 496              		.loc 1 216 0
 497 004a 3E49     		ldr	r1, .L93+16
 498              		.loc 1 209 0
 499 004c 92B2     		uxth	r2, r2
 500 004e 9A42     		cmp	r2, r3
 501              		.loc 1 211 0
 502 0050 08BF     		it	eq
 503 0052 A6B2     		uxtheq	r6, r4
 504              	.LVL68:
 505              		.loc 1 216 0
 506 0054 1846     		mov	r0, r3
 507              		.loc 1 213 0
 508 0056 33B2     		sxth	r3, r6
 509 0058 9C42     		cmp	r4, r3
 510 005a 04F10104 		add	r4, r4, #1
 511              	.LVL69:
ARM GAS  /tmp/ccMMwOcJ.s 			page 10


 512 005e EED0     		beq	.L68
 513              		.loc 1 216 0
 514 0060 FFF7FEFF 		bl	EE_ReadVariable
 515              	.LVL70:
 516              		.loc 1 218 0
 517 0064 0128     		cmp	r0, #1
 518 0066 EAD0     		beq	.L68
 519              		.loc 1 221 0
 520 0068 35F8020C 		ldrh	r0, [r5, #-2]
 521              	.LVL71:
 522 006c B8F80010 		ldrh	r1, [r8]
 523 0070 FFF7FEFF 		bl	EE_VerifyPageFullWriteVariable
 524              	.LVL72:
 525              		.loc 1 223 0
 526 0074 0928     		cmp	r0, #9
 527 0076 E2D0     		beq	.L68
 528 0078 BDE8F081 		pop	{r4, r5, r6, r7, r8, pc}
 529              	.LVL73:
 530              	.L51:
 531              		.loc 1 73 0
 532 007c 002C     		cmp	r4, #0
 533 007e 48D0     		beq	.L88
 534              		.loc 1 83 0
 535 0080 9442     		cmp	r4, r2
 536 0082 CED1     		bne	.L85
 537              		.loc 1 86 0
 538 0084 0820     		movs	r0, #8
 539 0086 FFF7FEFF 		bl	EE_EraseSectorIfNotEmpty.constprop.1
 540              	.LVL74:
 541              		.loc 1 88 0
 542 008a 0928     		cmp	r0, #9
 543 008c CBD1     		bne	.L55
 544              		.loc 1 93 0
 545 008e 3846     		mov	r0, r7
 546              	.LVL75:
 547 0090 0021     		movs	r1, #0
 548 0092 FFF7FEFF 		bl	FLASH_ProgramHalfWord
 549              	.LVL76:
 550 0096 BDE8F081 		pop	{r4, r5, r6, r7, r8, pc}
 551              	.LVL77:
 552              	.L50:
 553              		.loc 1 113 0
 554 009a 2CBB     		cbnz	r4, .L56
 555 009c 274D     		ldr	r5, .L93+8
 556              		.loc 1 118 0
 557 009e 2A4F     		ldr	r7, .L93+20
 558              		.loc 1 125 0
 559 00a0 DFF8A080 		ldr	r8, .L93+16
 560              		.loc 1 113 0
 561 00a4 4FF6FF76 		movw	r6, #65535
 562 00a8 02E0     		b	.L62
 563              	.LVL78:
 564              	.L61:
 565              		.loc 1 116 0
 566 00aa B4F58F7F 		cmp	r4, #286
 567 00ae 35D0     		beq	.L92
 568              	.LVL79:
ARM GAS  /tmp/ccMMwOcJ.s 			page 11


 569              	.L62:
 570              		.loc 1 118 0
 571 00b0 3A88     		ldrh	r2, [r7]
 572 00b2 35F8023B 		ldrh	r3, [r5], #2
 573              		.loc 1 125 0
 574 00b6 2349     		ldr	r1, .L93+16
 575              		.loc 1 118 0
 576 00b8 92B2     		uxth	r2, r2
 577 00ba 9A42     		cmp	r2, r3
 578              		.loc 1 120 0
 579 00bc 08BF     		it	eq
 580 00be A6B2     		uxtheq	r6, r4
 581              	.LVL80:
 582              		.loc 1 125 0
 583 00c0 1846     		mov	r0, r3
 584              		.loc 1 122 0
 585 00c2 33B2     		sxth	r3, r6
 586 00c4 9C42     		cmp	r4, r3
 587 00c6 04F10104 		add	r4, r4, #1
 588              	.LVL81:
 589 00ca EED0     		beq	.L61
 590              		.loc 1 125 0
 591 00cc FFF7FEFF 		bl	EE_ReadVariable
 592              	.LVL82:
 593              		.loc 1 127 0
 594 00d0 0128     		cmp	r0, #1
 595 00d2 EAD0     		beq	.L61
 596              		.loc 1 130 0
 597 00d4 35F8020C 		ldrh	r0, [r5, #-2]
 598              	.LVL83:
 599 00d8 B8F80010 		ldrh	r1, [r8]
 600 00dc FFF7FEFF 		bl	EE_VerifyPageFullWriteVariable
 601              	.LVL84:
 602              		.loc 1 132 0
 603 00e0 0928     		cmp	r0, #9
 604 00e2 E2D0     		beq	.L61
 605 00e4 BDE8F081 		pop	{r4, r5, r6, r7, r8, pc}
 606              	.LVL85:
 607              	.L56:
 608              		.loc 1 154 0
 609 00e8 4FF6FF73 		movw	r3, #65535
 610              	.LVL86:
 611 00ec 9C42     		cmp	r4, r3
 612 00ee 98D1     		bne	.L85
 613              		.loc 1 157 0
 614 00f0 1020     		movs	r0, #16
 615 00f2 FFF7FEFF 		bl	EE_EraseSectorIfNotEmpty.constprop.1
 616              	.LVL87:
 617              		.loc 1 159 0
 618 00f6 0928     		cmp	r0, #9
 619 00f8 95D1     		bne	.L55
 620              		.loc 1 164 0
 621 00fa 2846     		mov	r0, r5
 622              	.LVL88:
 623 00fc 0021     		movs	r1, #0
 624 00fe FFF7FEFF 		bl	FLASH_ProgramHalfWord
 625              	.LVL89:
ARM GAS  /tmp/ccMMwOcJ.s 			page 12


 626 0102 BDE8F081 		pop	{r4, r5, r6, r7, r8, pc}
 627              	.LVL90:
 628              	.L91:
 629              		.loc 1 231 0
 630 0106 0C48     		ldr	r0, .L93+4
 631 0108 0021     		movs	r1, #0
 632 010a FFF7FEFF 		bl	FLASH_ProgramHalfWord
 633              	.LVL91:
 634              		.loc 1 233 0
 635 010e 0928     		cmp	r0, #9
 636 0110 89D1     		bne	.L55
 637              	.LVL92:
 638              	.L88:
 639              		.loc 1 238 0
 640 0112 0820     		movs	r0, #8
 641              		.loc 1 259 0
 642 0114 BDE8F041 		pop	{r4, r5, r6, r7, r8, lr}
 643              		.loc 1 238 0
 644 0118 FFF7FEBF 		b	EE_EraseSectorIfNotEmpty.constprop.1
 645              	.LVL93:
 646              	.L92:
 647              		.loc 1 140 0
 648 011c 0548     		ldr	r0, .L93
 649 011e 0021     		movs	r1, #0
 650 0120 FFF7FEFF 		bl	FLASH_ProgramHalfWord
 651              	.LVL94:
 652              		.loc 1 142 0
 653 0124 0928     		cmp	r0, #9
 654 0126 7FF47EAF 		bne	.L55
 655              	.LVL95:
 656              	.L89:
 657              		.loc 1 197 0
 658 012a 1020     		movs	r0, #16
 659              		.loc 1 259 0
 660 012c BDE8F041 		pop	{r4, r5, r6, r7, r8, lr}
 661              		.loc 1 197 0
 662 0130 FFF7FEBF 		b	EE_EraseSectorIfNotEmpty.constprop.1
 663              	.LVL96:
 664              	.L94:
 665              		.align	2
 666              	.L93:
 667 0134 00400008 		.word	134234112
 668 0138 00800008 		.word	134250496
 669 013c 00000000 		.word	VirtAddVarTab
 670 0140 06800008 		.word	134250502
 671 0144 00000000 		.word	.LANCHOR0
 672 0148 06400008 		.word	134234118
 673              		.cfi_endproc
 674              	.LFE219:
 675              		.size	EE_Init, .-EE_Init
 676 014c AFF30080 		.section	.text.EE_WriteVariable,"ax",%progbits
 677              		.align	2
 678              		.p2align 4,,15
 679              		.global	EE_WriteVariable
 680              		.thumb
 681              		.thumb_func
 682              		.type	EE_WriteVariable, %function
ARM GAS  /tmp/ccMMwOcJ.s 			page 13


 683              	EE_WriteVariable:
 684              	.LFB221:
 685              		.loc 1 331 0
 686              		.cfi_startproc
 687              		@ args = 0, pretend = 0, frame = 0
 688              		@ frame_needed = 0, uses_anonymous_args = 0
 689              	.LVL97:
 690 0000 2DE9F843 		push	{r3, r4, r5, r6, r7, r8, r9, lr}
 691              		.cfi_def_cfa_offset 32
 692              		.cfi_offset 3, -32
 693              		.cfi_offset 4, -28
 694              		.cfi_offset 5, -24
 695              		.cfi_offset 6, -20
 696              		.cfi_offset 7, -16
 697              		.cfi_offset 8, -12
 698              		.cfi_offset 9, -8
 699              		.cfi_offset 14, -4
 700              		.loc 1 331 0
 701 0004 0446     		mov	r4, r0
 702 0006 0D46     		mov	r5, r1
 703              		.loc 1 335 0
 704 0008 FFF7FEFF 		bl	EE_VerifyPageFullWriteVariable
 705              	.LVL98:
 706              		.loc 1 338 0
 707 000c 8028     		cmp	r0, #128
 708 000e 01D0     		beq	.L115
 709              	.LVL99:
 710              	.L96:
 711              		.loc 1 346 0
 712 0010 BDE8F883 		pop	{r3, r4, r5, r6, r7, r8, r9, pc}
 713              	.L115:
 714              	.LVL100:
 715              	.LBB31:
 716              	.LBB32:
 717              	.LBB33:
 718              	.LBB34:
 719              		.loc 1 397 0
 720 0014 244B     		ldr	r3, .L118
 721              		.loc 1 400 0
 722 0016 2548     		ldr	r0, .L118+4
 723              	.LVL101:
 724              		.loc 1 397 0
 725 0018 1A88     		ldrh	r2, [r3]
 726              		.loc 1 400 0
 727 001a 0188     		ldrh	r1, [r0]
 728              		.loc 1 397 0
 729 001c 92B2     		uxth	r2, r2
 730              	.LVL102:
 731              		.loc 1 400 0
 732 001e 89B2     		uxth	r1, r1
 733              	.LVL103:
 734              		.loc 1 436 0
 735 0020 12B1     		cbz	r2, .L106
 736              		.loc 1 440 0
 737 0022 69B3     		cbz	r1, .L116
 738              	.LBE34:
 739              	.LBE33:
ARM GAS  /tmp/ccMMwOcJ.s 			page 14


 740              		.loc 1 554 0
 741 0024 AB20     		movs	r0, #171
 742 0026 F3E7     		b	.L96
 743              	.L106:
 744              		.loc 1 547 0
 745 0028 0746     		mov	r7, r0
 746              		.loc 1 550 0
 747 002a 4FF00808 		mov	r8, #8
 748              	.L97:
 749              	.LVL104:
 750              		.loc 1 558 0
 751 002e 3846     		mov	r0, r7
 752 0030 4EF6EE61 		movw	r1, #61166
 753              	.LVL105:
 754 0034 FFF7FEFF 		bl	FLASH_ProgramHalfWord
 755              	.LVL106:
 756              		.loc 1 560 0
 757 0038 0928     		cmp	r0, #9
 758 003a E9D1     		bne	.L96
 759              		.loc 1 566 0
 760 003c 2946     		mov	r1, r5
 761 003e 2046     		mov	r0, r4
 762              	.LVL107:
 763 0040 FFF7FEFF 		bl	EE_VerifyPageFullWriteVariable
 764              	.LVL108:
 765              		.loc 1 568 0
 766 0044 0928     		cmp	r0, #9
 767 0046 E3D1     		bne	.L96
 768 0048 194D     		ldr	r5, .L118+8
 769              	.LVL109:
 770              		.loc 1 579 0
 771 004a DFF86890 		ldr	r9, .L118+12
 772 004e 05F50F76 		add	r6, r5, #572
 773 0052 01E0     		b	.L104
 774              	.LVL110:
 775              	.L103:
 776              		.loc 1 574 0
 777 0054 B542     		cmp	r5, r6
 778 0056 17D0     		beq	.L117
 779              	.L104:
 780              		.loc 1 576 0
 781 0058 35F8023B 		ldrh	r3, [r5], #2
 782              		.loc 1 579 0
 783 005c 1549     		ldr	r1, .L118+12
 784              		.loc 1 576 0
 785 005e 9C42     		cmp	r4, r3
 786              		.loc 1 579 0
 787 0060 1846     		mov	r0, r3
 788              		.loc 1 576 0
 789 0062 F7D0     		beq	.L103
 790              		.loc 1 579 0
 791 0064 FFF7FEFF 		bl	EE_ReadVariable
 792              	.LVL111:
 793              		.loc 1 581 0
 794 0068 0128     		cmp	r0, #1
 795 006a F3D0     		beq	.L103
 796              		.loc 1 584 0
ARM GAS  /tmp/ccMMwOcJ.s 			page 15


 797 006c 35F8020C 		ldrh	r0, [r5, #-2]
 798              	.LVL112:
 799 0070 B9F80010 		ldrh	r1, [r9]
 800 0074 FFF7FEFF 		bl	EE_VerifyPageFullWriteVariable
 801              	.LVL113:
 802              		.loc 1 586 0
 803 0078 0928     		cmp	r0, #9
 804 007a EBD0     		beq	.L103
 805 007c BDE8F883 		pop	{r3, r4, r5, r6, r7, r8, r9, pc}
 806              	.LVL114:
 807              	.L116:
 808              		.loc 1 539 0
 809 0080 1F46     		mov	r7, r3
 810              		.loc 1 542 0
 811 0082 4FF01008 		mov	r8, #16
 812 0086 D2E7     		b	.L97
 813              	.LVL115:
 814              	.L117:
 815              		.loc 1 595 0
 816 0088 4046     		mov	r0, r8
 817 008a FFF7FEFF 		bl	EE_EraseSectorIfNotEmpty.constprop.1
 818              	.LVL116:
 819              		.loc 1 597 0
 820 008e C0B2     		uxtb	r0, r0
 821 0090 0928     		cmp	r0, #9
 822 0092 02D0     		beq	.L105
 823              		.loc 1 599 0
 824 0094 80B2     		uxth	r0, r0
 825              	.LVL117:
 826 0096 BDE8F883 		pop	{r3, r4, r5, r6, r7, r8, r9, pc}
 827              	.LVL118:
 828              	.L105:
 829              		.loc 1 603 0
 830 009a 3846     		mov	r0, r7
 831              	.LVL119:
 832 009c 0021     		movs	r1, #0
 833 009e FFF7FEFF 		bl	FLASH_ProgramHalfWord
 834              	.LVL120:
 835 00a2 BDE8F883 		pop	{r3, r4, r5, r6, r7, r8, r9, pc}
 836              	.LVL121:
 837              	.L119:
 838 00a6 00BF     		.align	2
 839              	.L118:
 840 00a8 00400008 		.word	134234112
 841 00ac 00800008 		.word	134250496
 842 00b0 00000000 		.word	VirtAddVarTab
 843 00b4 00000000 		.word	.LANCHOR0
 844              	.LBE32:
 845              	.LBE31:
 846              		.cfi_endproc
 847              	.LFE221:
 848              		.size	EE_WriteVariable, .-EE_WriteVariable
 849              		.global	DataVar
 850 00b8 AFF30080 		.section	.bss.DataVar,"aw",%nobits
 850      AFF30080 
 851              		.align	1
 852              		.set	.LANCHOR0,. + 0
ARM GAS  /tmp/ccMMwOcJ.s 			page 16


 853              		.type	DataVar, %object
 854              		.size	DataVar, 2
 855              	DataVar:
 856 0000 0000     		.space	2
 857              		.text
 858              	.Letext0:
 859              		.file 2 "/usr/include/newlib/machine/_default_types.h"
 860              		.file 3 "/usr/include/newlib/stdint.h"
 861              		.file 4 "ChibiOS_3.0.2/ext/stdperiph_stm32f4/inc/stm32f4xx_flash.h"
 862              		.file 5 "/usr/lib/gcc/arm-none-eabi/4.8/include/stddef.h"
 863              		.file 6 "ChibiOS_3.0.2/os/rt/ports/ARMCMx/compilers/GCC/chtypes.h"
 864              		.file 7 "ChibiOS_3.0.2/os/rt/include/chsystypes.h"
 865              		.file 8 "ChibiOS_3.0.2/os/rt/include/chschd.h"
 866              		.file 9 "ChibiOS_3.0.2/os/rt/ports/ARMCMx/chcore.h"
 867              		.file 10 "ChibiOS_3.0.2/os/rt/ports/ARMCMx/chcore_v7m.h"
 868              		.file 11 "ChibiOS_3.0.2/os/rt/include/chtm.h"
 869              		.file 12 "ChibiOS_3.0.2/os/rt/include/chsem.h"
 870              		.file 13 "ChibiOS_3.0.2/os/rt/include/chmtx.h"
 871              		.file 14 "ChibiOS_3.0.2/os/ext/CMSIS/include/core_cm4.h"
 872              		.file 15 "flash_helper.h"