ARM GAS  /tmp/ccuEfq5L.s 			page 1


   1              		.syntax unified
   2              		.cpu cortex-m4
   3              		.eabi_attribute 27, 3
   4              		.eabi_attribute 28, 1
   5              		.fpu fpv4-sp-d16
   6              		.eabi_attribute 20, 1
   7              		.eabi_attribute 21, 1
   8              		.eabi_attribute 23, 3
   9              		.eabi_attribute 24, 1
  10              		.eabi_attribute 25, 1
  11              		.eabi_attribute 26, 1
  12              		.eabi_attribute 30, 2
  13              		.eabi_attribute 34, 1
  14              		.eabi_attribute 18, 4
  15              		.thumb
  16              		.file	"encoder.c"
  17              		.text
  18              	.Ltext0:
  19              		.cfi_sections	.debug_frame
  20              		.section	.text.encoder_deinit,"ax",%progbits
  21              		.align	2
  22              		.p2align 4,,15
  23              		.global	encoder_deinit
  24              		.thumb
  25              		.thumb_func
  26              		.type	encoder_deinit, %function
  27              	encoder_deinit:
  28              	.LFB256:
  29              		.file 1 "encoder.c"
  30              		.loc 1 82 0
  31              		.cfi_startproc
  32              		@ args = 0, pretend = 0, frame = 0
  33              		@ frame_needed = 0, uses_anonymous_args = 0
  34 0000 38B5     		push	{r3, r4, r5, lr}
  35              		.cfi_def_cfa_offset 16
  36              		.cfi_offset 3, -16
  37              		.cfi_offset 4, -12
  38              		.cfi_offset 5, -8
  39              		.cfi_offset 14, -4
  40              		.loc 1 83 0
  41 0002 2820     		movs	r0, #40
  42 0004 FFF7FEFF 		bl	nvicDisableVector
  43              	.LVL0:
  44              		.loc 1 88 0
  45 0008 144C     		ldr	r4, .L2
  46              		.loc 1 92 0
  47 000a 154D     		ldr	r5, .L2+4
  48              		.loc 1 84 0
  49 000c 1E20     		movs	r0, #30
  50 000e FFF7FEFF 		bl	nvicDisableVector
  51              	.LVL1:
  52              		.loc 1 86 0
  53 0012 1448     		ldr	r0, .L2+8
  54 0014 FFF7FEFF 		bl	TIM_DeInit
  55              	.LVL2:
  56              		.loc 1 88 0
  57 0018 2046     		mov	r0, r4
ARM GAS  /tmp/ccuEfq5L.s 			page 2


  58 001a 4021     		movs	r1, #64
  59 001c 2022     		movs	r2, #32
  60 001e FFF7FEFF 		bl	_pal_lld_setgroupmode
  61              	.LVL3:
  62              		.loc 1 89 0
  63 0022 2021     		movs	r1, #32
  64 0024 2046     		mov	r0, r4
  65 0026 0A46     		mov	r2, r1
  66 0028 FFF7FEFF 		bl	_pal_lld_setgroupmode
  67              	.LVL4:
  68              		.loc 1 90 0
  69 002c 2046     		mov	r0, r4
  70 002e 1021     		movs	r1, #16
  71 0030 2022     		movs	r2, #32
  72 0032 FFF7FEFF 		bl	_pal_lld_setgroupmode
  73              	.LVL5:
  74              		.loc 1 92 0
  75 0036 2846     		mov	r0, r5
  76 0038 4021     		movs	r1, #64
  77 003a 2022     		movs	r2, #32
  78 003c FFF7FEFF 		bl	_pal_lld_setgroupmode
  79              	.LVL6:
  80              		.loc 1 93 0
  81 0040 2846     		mov	r0, r5
  82 0042 8021     		movs	r1, #128
  83 0044 2022     		movs	r2, #32
  84 0046 FFF7FEFF 		bl	_pal_lld_setgroupmode
  85              	.LVL7:
  86              		.loc 1 95 0
  87 004a 0748     		ldr	r0, .L2+12
  88              		.loc 1 96 0
  89 004c 0749     		ldr	r1, .L2+16
  90              		.loc 1 97 0
  91 004e 084A     		ldr	r2, .L2+20
  92              		.loc 1 95 0
  93 0050 0023     		movs	r3, #0
  94              		.loc 1 97 0
  95 0052 0024     		movs	r4, #0
  96              		.loc 1 95 0
  97 0054 0370     		strb	r3, [r0]
  98              		.loc 1 96 0
  99 0056 0B70     		strb	r3, [r1]
 100              		.loc 1 97 0
 101 0058 1460     		str	r4, [r2]	@ float
 102 005a 38BD     		pop	{r3, r4, r5, pc}
 103              	.L3:
 104              		.align	2
 105              	.L2:
 106 005c 00000240 		.word	1073872896
 107 0060 00040240 		.word	1073873920
 108 0064 00080040 		.word	1073743872
 109 0068 00000000 		.word	.LANCHOR0
 110 006c 00000000 		.word	.LANCHOR1
 111 0070 00000000 		.word	.LANCHOR2
 112              		.cfi_endproc
 113              	.LFE256:
 114              		.size	encoder_deinit, .-encoder_deinit
ARM GAS  /tmp/ccuEfq5L.s 			page 3


 115 0074 AFF30080 		.section	.text.encoder_init_abi,"ax",%progbits
 115      AFF30080 
 115      AFF30080 
 116              		.align	2
 117              		.p2align 4,,15
 118              		.global	encoder_init_abi
 119              		.thumb
 120              		.thumb_func
 121              		.type	encoder_init_abi, %function
 122              	encoder_init_abi:
 123              	.LFB257:
 124              		.loc 1 100 0
 125              		.cfi_startproc
 126              		@ args = 0, pretend = 0, frame = 8
 127              		@ frame_needed = 0, uses_anonymous_args = 0
 128              	.LVL8:
 129 0000 70B5     		push	{r4, r5, r6, lr}
 130              		.cfi_def_cfa_offset 16
 131              		.cfi_offset 4, -16
 132              		.cfi_offset 5, -12
 133              		.cfi_offset 6, -8
 134              		.cfi_offset 14, -4
 135              		.loc 1 105 0
 136 0002 284E     		ldr	r6, .L5
 137              		.loc 1 107 0
 138 0004 284C     		ldr	r4, .L5+4
 139              		.loc 1 104 0
 140 0006 294B     		ldr	r3, .L5+8
 141              		.loc 1 105 0
 142 0008 3060     		str	r0, [r6]
 143              		.loc 1 100 0
 144 000a 82B0     		sub	sp, sp, #8
 145              		.cfi_def_cfa_offset 24
 146              		.loc 1 104 0
 147 000c 0025     		movs	r5, #0
 148              		.loc 1 107 0
 149 000e 2046     		mov	r0, r4
 150              	.LVL9:
 151 0010 4021     		movs	r1, #64
 152 0012 4FF48172 		mov	r2, #258
 153              		.loc 1 104 0
 154 0016 1D70     		strb	r5, [r3]
 155              		.loc 1 107 0
 156 0018 FFF7FEFF 		bl	_pal_lld_setgroupmode
 157              	.LVL10:
 158              		.loc 1 108 0
 159 001c 4FF48172 		mov	r2, #258
 160 0020 2046     		mov	r0, r4
 161 0022 8021     		movs	r1, #128
 162 0024 FFF7FEFF 		bl	_pal_lld_setgroupmode
 163              	.LVL11:
 164              		.loc 1 112 0
 165 0028 0420     		movs	r0, #4
 166 002a 0121     		movs	r1, #1
 167              		.loc 1 117 0
 168 002c A4F5FE34 		sub	r4, r4, #130048
 169              		.loc 1 112 0
ARM GAS  /tmp/ccuEfq5L.s 			page 4


 170 0030 FFF7FEFF 		bl	RCC_APB1PeriphClockCmd
 171              	.LVL12:
 172              		.loc 1 115 0
 173 0034 4FF48040 		mov	r0, #16384
 174 0038 0121     		movs	r1, #1
 175 003a FFF7FEFF 		bl	RCC_APB2PeriphClockCmd
 176              	.LVL13:
 177              		.loc 1 117 0
 178 003e 2A46     		mov	r2, r5
 179 0040 2B46     		mov	r3, r5
 180 0042 2046     		mov	r0, r4
 181 0044 0321     		movs	r1, #3
 182 0046 FFF7FEFF 		bl	TIM_EncoderInterfaceConfig
 183              	.LVL14:
 184              		.loc 1 120 0
 185 004a 3168     		ldr	r1, [r6]
 186 004c 2046     		mov	r0, r4
 187 004e 0139     		subs	r1, r1, #1
 188 0050 FFF7FEFF 		bl	TIM_SetAutoreload
 189              	.LVL15:
 190              		.loc 1 123 0
 191 0054 A369     		ldr	r3, [r4, #24]
 192 0056 43F4C043 		orr	r3, r3, #24576
 193 005a 43F06003 		orr	r3, r3, #96
 194 005e A361     		str	r3, [r4, #24]
 195              		.loc 1 124 0
 196 0060 E369     		ldr	r3, [r4, #28]
 197 0062 43F06003 		orr	r3, r3, #96
 198 0066 E361     		str	r3, [r4, #28]
 199              		.loc 1 126 0
 200 0068 2046     		mov	r0, r4
 201 006a 0121     		movs	r1, #1
 202 006c FFF7FEFF 		bl	TIM_Cmd
 203              	.LVL16:
 204              		.loc 1 131 0
 205 0070 0B21     		movs	r1, #11
 206 0072 0220     		movs	r0, #2
 207 0074 FFF7FEFF 		bl	SYSCFG_EXTILineConfig
 208              	.LVL17:
 209              		.loc 1 137 0
 210 0078 0124     		movs	r4, #1
 211              		.loc 1 134 0
 212 007a 4FF40062 		mov	r2, #2048
 213              		.loc 1 136 0
 214 007e 0823     		movs	r3, #8
 215              		.loc 1 138 0
 216 0080 6846     		mov	r0, sp
 217              		.loc 1 136 0
 218 0082 8DF80530 		strb	r3, [sp, #5]
 219              		.loc 1 134 0
 220 0086 0092     		str	r2, [sp]
 221              		.loc 1 135 0
 222 0088 8DF80450 		strb	r5, [sp, #4]
 223              		.loc 1 137 0
 224 008c 8DF80640 		strb	r4, [sp, #6]
 225              		.loc 1 138 0
 226 0090 FFF7FEFF 		bl	EXTI_Init
ARM GAS  /tmp/ccuEfq5L.s 			page 5


 227              	.LVL18:
 228              		.loc 1 141 0
 229 0094 2946     		mov	r1, r5
 230 0096 2820     		movs	r0, #40
 231 0098 FFF7FEFF 		bl	nvicEnableVector
 232              	.LVL19:
 233              		.loc 1 143 0
 234 009c 044B     		ldr	r3, .L5+12
 235 009e 1C70     		strb	r4, [r3]
 236              		.loc 1 144 0
 237 00a0 02B0     		add	sp, sp, #8
 238              		@ sp needed
 239 00a2 70BD     		pop	{r4, r5, r6, pc}
 240              	.L6:
 241              		.align	2
 242              	.L5:
 243 00a4 00000000 		.word	.LANCHOR3
 244 00a8 00040240 		.word	1073873920
 245 00ac 00000000 		.word	.LANCHOR0
 246 00b0 00000000 		.word	.LANCHOR1
 247              		.cfi_endproc
 248              	.LFE257:
 249              		.size	encoder_init_abi, .-encoder_init_abi
 250 00b4 AFF30080 		.section	.text.encoder_init_as5047p_spi,"ax",%progbits
 250      AFF30080 
 250      AFF30080 
 251              		.align	2
 252              		.p2align 4,,15
 253              		.global	encoder_init_as5047p_spi
 254              		.thumb
 255              		.thumb_func
 256              		.type	encoder_init_as5047p_spi, %function
 257              	encoder_init_as5047p_spi:
 258              	.LFB258:
 259              		.loc 1 146 0
 260              		.cfi_startproc
 261              		@ args = 0, pretend = 0, frame = 16
 262              		@ frame_needed = 0, uses_anonymous_args = 0
 263 0000 30B5     		push	{r4, r5, lr}
 264              		.cfi_def_cfa_offset 12
 265              		.cfi_offset 4, -12
 266              		.cfi_offset 5, -8
 267              		.cfi_offset 14, -4
 268              		.loc 1 149 0
 269 0002 214C     		ldr	r4, .L8
 270              		.loc 1 168 0
 271 0004 214D     		ldr	r5, .L8+4
 272              		.loc 1 146 0
 273 0006 85B0     		sub	sp, sp, #20
 274              		.cfi_def_cfa_offset 32
 275              		.loc 1 149 0
 276 0008 2046     		mov	r0, r4
 277 000a 4021     		movs	r1, #64
 278 000c 0022     		movs	r2, #0
 279 000e FFF7FEFF 		bl	_pal_lld_setgroupmode
 280              	.LVL20:
 281              		.loc 1 150 0
ARM GAS  /tmp/ccuEfq5L.s 			page 6


 282 0012 2046     		mov	r0, r4
 283 0014 2021     		movs	r1, #32
 284 0016 1922     		movs	r2, #25
 285 0018 FFF7FEFF 		bl	_pal_lld_setgroupmode
 286              	.LVL21:
 287              		.loc 1 151 0
 288 001c 2046     		mov	r0, r4
 289 001e 1021     		movs	r1, #16
 290 0020 1922     		movs	r2, #25
 291 0022 FFF7FEFF 		bl	_pal_lld_setgroupmode
 292              	.LVL22:
 293              		.loc 1 155 0
 294 0026 2046     		mov	r0, r4
 295 0028 1922     		movs	r2, #25
 296 002a 8021     		movs	r1, #128
 297 002c FFF7FEFF 		bl	_pal_lld_setgroupmode
 298              	.LVL23:
 299              		.loc 1 156 0
 300 0030 8023     		movs	r3, #128
 301 0032 2383     		strh	r3, [r4, #24]	@ movhi
 302              		.loc 1 160 0
 303 0034 0420     		movs	r0, #4
 304 0036 0121     		movs	r1, #1
 305 0038 FFF7FEFF 		bl	RCC_APB1PeriphClockCmd
 306              	.LVL24:
 307              		.loc 1 163 0
 308 003c 0023     		movs	r3, #0
 309              		.loc 1 168 0
 310 003e 2846     		mov	r0, r5
 311              		.loc 1 165 0
 312 0040 41F26702 		movw	r2, #4199
 313              		.loc 1 168 0
 314 0044 01A9     		add	r1, sp, #4
 315              		.loc 1 163 0
 316 0046 ADF80430 		strh	r3, [sp, #4]	@ movhi
 317              		.loc 1 164 0
 318 004a ADF80630 		strh	r3, [sp, #6]	@ movhi
 319              		.loc 1 166 0
 320 004e ADF80C30 		strh	r3, [sp, #12]	@ movhi
 321              		.loc 1 167 0
 322 0052 8DF80E30 		strb	r3, [sp, #14]
 323              		.loc 1 165 0
 324 0056 0292     		str	r2, [sp, #8]
 325              		.loc 1 168 0
 326 0058 FFF7FEFF 		bl	TIM_TimeBaseInit
 327              	.LVL25:
 328              		.loc 1 171 0
 329 005c 0121     		movs	r1, #1
 330 005e 0A46     		mov	r2, r1
 331 0060 2846     		mov	r0, r5
 332 0062 FFF7FEFF 		bl	TIM_ITConfig
 333              	.LVL26:
 334              		.loc 1 174 0
 335 0066 2846     		mov	r0, r5
 336 0068 0121     		movs	r1, #1
 337 006a FFF7FEFF 		bl	TIM_Cmd
 338              	.LVL27:
ARM GAS  /tmp/ccuEfq5L.s 			page 7


 339              		.loc 1 176 0
 340 006e 1E20     		movs	r0, #30
 341 0070 0621     		movs	r1, #6
 342 0072 FFF7FEFF 		bl	nvicEnableVector
 343              	.LVL28:
 344              		.loc 1 178 0
 345 0076 0649     		ldr	r1, .L8+8
 346              		.loc 1 179 0
 347 0078 064B     		ldr	r3, .L8+12
 348              		.loc 1 178 0
 349 007a 0220     		movs	r0, #2
 350              		.loc 1 179 0
 351 007c 0122     		movs	r2, #1
 352              		.loc 1 178 0
 353 007e 0870     		strb	r0, [r1]
 354              		.loc 1 179 0
 355 0080 1A70     		strb	r2, [r3]
 356              		.loc 1 180 0
 357 0082 05B0     		add	sp, sp, #20
 358              		@ sp needed
 359 0084 30BD     		pop	{r4, r5, pc}
 360              	.L9:
 361 0086 00BF     		.align	2
 362              	.L8:
 363 0088 00000240 		.word	1073872896
 364 008c 00080040 		.word	1073743872
 365 0090 00000000 		.word	.LANCHOR1
 366 0094 00000000 		.word	.LANCHOR0
 367              		.cfi_endproc
 368              	.LFE258:
 369              		.size	encoder_init_as5047p_spi, .-encoder_init_as5047p_spi
 370 0098 AFF30080 		.section	.text.encoder_is_configured,"ax",%progbits
 370      AFF30080 
 371              		.align	2
 372              		.p2align 4,,15
 373              		.global	encoder_is_configured
 374              		.thumb
 375              		.thumb_func
 376              		.type	encoder_is_configured, %function
 377              	encoder_is_configured:
 378              	.LFB259:
 379              		.loc 1 182 0
 380              		.cfi_startproc
 381              		@ args = 0, pretend = 0, frame = 0
 382              		@ frame_needed = 0, uses_anonymous_args = 0
 383              		@ link register save eliminated.
 384              		.loc 1 183 0
 385 0000 024B     		ldr	r3, .L11
 386 0002 1878     		ldrb	r0, [r3]	@ zero_extendqisi2
 387              		.loc 1 184 0
 388 0004 0030     		adds	r0, r0, #0
 389 0006 18BF     		it	ne
 390 0008 0120     		movne	r0, #1
 391 000a 7047     		bx	lr
 392              	.L12:
 393              		.align	2
 394              	.L11:
ARM GAS  /tmp/ccuEfq5L.s 			page 8


 395 000c 00000000 		.word	.LANCHOR1
 396              		.cfi_endproc
 397              	.LFE259:
 398              		.size	encoder_is_configured, .-encoder_is_configured
 399              		.section	.text.encoder_read_deg,"ax",%progbits
 400              		.align	2
 401              		.p2align 4,,15
 402              		.global	encoder_read_deg
 403              		.thumb
 404              		.thumb_func
 405              		.type	encoder_read_deg, %function
 406              	encoder_read_deg:
 407              	.LFB260:
 408              		.loc 1 186 0
 409              		.cfi_startproc
 410              		@ args = 0, pretend = 0, frame = 0
 411              		@ frame_needed = 0, uses_anonymous_args = 0
 412              		@ link register save eliminated.
 413              		.loc 1 189 0
 414 0000 134B     		ldr	r3, .L20
 415 0002 1B78     		ldrb	r3, [r3]	@ zero_extendqisi2
 416 0004 012B     		cmp	r3, #1
 417 0006 0ED0     		beq	.L15
 418 0008 022B     		cmp	r3, #2
 419 000a 08D1     		bne	.L19
 420              		.loc 1 195 0
 421 000c 114A     		ldr	r2, .L20+4
 422 000e 124B     		ldr	r3, .L20+8
 423 0010 D2ED007A 		flds	s15, [r2]
 424              		.loc 1 196 0
 425 0014 B0EE670A 		fcpys	s0, s15
 426              		.loc 1 195 0
 427 0018 C3ED007A 		fsts	s15, [r3]
 428              		.loc 1 203 0
 429 001c 7047     		bx	lr
 430              	.L19:
 431 001e 0E4B     		ldr	r3, .L20+8
 432 0020 93ED000A 		flds	s0, [r3]
 433 0024 7047     		bx	lr
 434              	.L15:
 435              		.loc 1 191 0
 436 0026 0D4A     		ldr	r2, .L20+12
 437 0028 0D4B     		ldr	r3, .L20+16
 438 002a D2ED096A 		flds	s13, [r2, #36]	@ int
 439 002e D3ED007A 		flds	s15, [r3]	@ int
 440 0032 9FED0C7A 		flds	s14, .L20+20
 441 0036 084B     		ldr	r3, .L20+8
 442 0038 F8EE666A 		fuitos	s13, s13
 443 003c F8EE677A 		fuitos	s15, s15
 444 0040 26EE870A 		fmuls	s0, s13, s14
 445 0044 80EE270A 		fdivs	s0, s0, s15
 446 0048 83ED000A 		fsts	s0, [r3]
 447              		.loc 1 192 0
 448 004c 7047     		bx	lr
 449              	.L21:
 450 004e 00BF     		.align	2
 451              	.L20:
ARM GAS  /tmp/ccuEfq5L.s 			page 9


 452 0050 00000000 		.word	.LANCHOR1
 453 0054 00000000 		.word	.LANCHOR2
 454 0058 00000000 		.word	.LANCHOR4
 455 005c 00080040 		.word	1073743872
 456 0060 00000000 		.word	.LANCHOR3
 457 0064 0000B443 		.word	1135869952
 458              		.cfi_endproc
 459              	.LFE260:
 460              		.size	encoder_read_deg, .-encoder_read_deg
 461 0068 AFF30080 		.section	.text.encoder_cumulative_counts,"ax",%progbits
 461      AFF30080 
 462              		.align	2
 463              		.p2align 4,,15
 464              		.global	encoder_cumulative_counts
 465              		.thumb
 466              		.thumb_func
 467              		.type	encoder_cumulative_counts, %function
 468              	encoder_cumulative_counts:
 469              	.LFB261:
 470              		.loc 1 205 0
 471              		.cfi_startproc
 472              		@ args = 0, pretend = 0, frame = 0
 473              		@ frame_needed = 0, uses_anonymous_args = 0
 474              		@ link register save eliminated.
 475              		.loc 1 207 0
 476 0000 034B     		ldr	r3, .L25
 477 0002 1B78     		ldrb	r3, [r3]	@ zero_extendqisi2
 478 0004 022B     		cmp	r3, #2
 479              		.loc 1 209 0
 480 0006 06BF     		itte	eq
 481 0008 024B     		ldreq	r3, .L25+4
 482 000a 1868     		ldreq	r0, [r3]
 483              		.loc 1 212 0
 484 000c 0020     		movne	r0, #0
 485              		.loc 1 213 0
 486 000e 7047     		bx	lr
 487              	.L26:
 488              		.align	2
 489              	.L25:
 490 0010 00000000 		.word	.LANCHOR1
 491 0014 00000000 		.word	.LANCHOR5
 492              		.cfi_endproc
 493              	.LFE261:
 494              		.size	encoder_cumulative_counts, .-encoder_cumulative_counts
 495 0018 AFF30080 		.section	.text.encoder_reset,"ax",%progbits
 495      AFF30080 
 496              		.align	2
 497              		.p2align 4,,15
 498              		.global	encoder_reset
 499              		.thumb
 500              		.thumb_func
 501              		.type	encoder_reset, %function
 502              	encoder_reset:
 503              	.LFB262:
 504              		.loc 1 218 0
 505              		.cfi_startproc
 506              		@ args = 0, pretend = 0, frame = 0
ARM GAS  /tmp/ccuEfq5L.s 			page 10


 507              		@ frame_needed = 0, uses_anonymous_args = 0
 508              		@ link register save eliminated.
 509 0000 10B4     		push	{r4}
 510              		.cfi_def_cfa_offset 4
 511              		.cfi_offset 4, -4
 512              	.LBB131:
 513              	.LBB132:
 514              		.file 2 "ChibiOS_3.0.2/os/ext/CMSIS/include/core_cmInstr.h"
 515              		.loc 2 327 0
 516              	@ 327 "ChibiOS_3.0.2/os/ext/CMSIS/include/core_cmInstr.h" 1
 517 0002 00BF     		nop
 518              	@ 0 "" 2
 519              		.thumb
 520              	.LBE132:
 521              	.LBE131:
 522              	.LBB133:
 523              	.LBB134:
 524              	@ 327 "ChibiOS_3.0.2/os/ext/CMSIS/include/core_cmInstr.h" 1
 525 0004 00BF     		nop
 526              	@ 0 "" 2
 527              		.thumb
 528              	.LBE134:
 529              	.LBE133:
 530              	.LBB135:
 531              	.LBB136:
 532              	@ 327 "ChibiOS_3.0.2/os/ext/CMSIS/include/core_cmInstr.h" 1
 533 0006 00BF     		nop
 534              	@ 0 "" 2
 535              		.thumb
 536              	.LBE136:
 537              	.LBE135:
 538              	.LBB137:
 539              	.LBB138:
 540              	@ 327 "ChibiOS_3.0.2/os/ext/CMSIS/include/core_cmInstr.h" 1
 541 0008 00BF     		nop
 542              	@ 0 "" 2
 543              		.thumb
 544              	.LBE138:
 545              	.LBE137:
 546              		.loc 1 225 0
 547 000a 174B     		ldr	r3, .L34
 548 000c 1B69     		ldr	r3, [r3, #16]
 549 000e 1B05     		lsls	r3, r3, #20
 550 0010 17D5     		bpl	.L27
 551              	.LBB139:
 552              		.loc 1 230 0
 553 0012 164A     		ldr	r2, .L34+4
 554              		.loc 1 226 0
 555 0014 1649     		ldr	r1, .L34+8
 556              		.loc 1 228 0
 557 0016 1748     		ldr	r0, .L34+12
 558              		.loc 1 230 0
 559 0018 1378     		ldrb	r3, [r2]	@ zero_extendqisi2
 560              		.loc 1 226 0
 561 001a 4C6A     		ldr	r4, [r1, #36]
 562              	.LVL29:
 563              		.loc 1 228 0
ARM GAS  /tmp/ccuEfq5L.s 			page 11


 564 001c 0068     		ldr	r0, [r0]
 565              	.LVL30:
 566              		.loc 1 230 0
 567 001e 9BB1     		cbz	r3, .L30
 568              		.loc 1 228 0
 569 0020 154B     		ldr	r3, .L34+16
 570 0022 A3FB0013 		umull	r1, r3, r3, r0
 571 0026 1B09     		lsrs	r3, r3, #4
 572              		.loc 1 232 0
 573 0028 C01A     		subs	r0, r0, r3
 574              	.LVL31:
 575 002a 8442     		cmp	r4, r0
 576 002c 14D8     		bhi	.L31
 577              		.loc 1 232 0 is_stmt 0 discriminator 1
 578 002e 9C42     		cmp	r4, r3
 579 0030 12D3     		bcc	.L31
 580              		.loc 1 236 0 is_stmt 1
 581 0032 1249     		ldr	r1, .L34+20
 582 0034 0B68     		ldr	r3, [r1]
 583 0036 0133     		adds	r3, r3, #1
 584              		.loc 1 238 0
 585 0038 052B     		cmp	r3, #5
 586              		.loc 1 236 0
 587 003a 0B60     		str	r3, [r1]
 588              		.loc 1 238 0
 589 003c 01DD     		ble	.L27
 590              		.loc 1 239 0
 591 003e 0023     		movs	r3, #0
 592 0040 1370     		strb	r3, [r2]
 593              	.LVL32:
 594              	.L27:
 595              	.LBE139:
 596              		.loc 1 248 0
 597 0042 5DF8044B 		ldr	r4, [sp], #4
 598 0046 7047     		bx	lr
 599              	.LVL33:
 600              	.L30:
 601              	.LBB140:
 602              		.loc 1 245 0
 603 0048 0C48     		ldr	r0, .L34+20
 604              	.LVL34:
 605              		.loc 1 243 0
 606 004a 4B62     		str	r3, [r1, #36]
 607              	.LVL35:
 608              		.loc 1 244 0
 609 004c 0121     		movs	r1, #1
 610              		.loc 1 245 0
 611 004e 0360     		str	r3, [r0]
 612              		.loc 1 244 0
 613 0050 1170     		strb	r1, [r2]
 614              	.LBE140:
 615              		.loc 1 248 0
 616 0052 5DF8044B 		ldr	r4, [sp], #4
 617              	.LVL36:
 618 0056 7047     		bx	lr
 619              	.LVL37:
 620              	.L31:
ARM GAS  /tmp/ccuEfq5L.s 			page 12


 621              	.LBB141:
 622              		.loc 1 233 0
 623 0058 0549     		ldr	r1, .L34+8
 624              		.loc 1 234 0
 625 005a 084A     		ldr	r2, .L34+20
 626              	.LBE141:
 627              		.loc 1 248 0
 628 005c 5DF8044B 		ldr	r4, [sp], #4
 629              	.LVL38:
 630              	.LBB142:
 631              		.loc 1 233 0
 632 0060 0023     		movs	r3, #0
 633 0062 4B62     		str	r3, [r1, #36]
 634              	.LVL39:
 635              		.loc 1 234 0
 636 0064 1360     		str	r3, [r2]
 637              	.LBE142:
 638              		.loc 1 248 0
 639 0066 7047     		bx	lr
 640              	.L35:
 641              		.align	2
 642              	.L34:
 643 0068 00080240 		.word	1073874944
 644 006c 00000000 		.word	.LANCHOR0
 645 0070 00080040 		.word	1073743872
 646 0074 00000000 		.word	.LANCHOR3
 647 0078 CDCCCCCC 		.word	-858993459
 648 007c 00000000 		.word	.LANCHOR6
 649              		.cfi_endproc
 650              	.LFE262:
 651              		.size	encoder_reset, .-encoder_reset
 652              		.section	.text.encoder_tim_isr,"ax",%progbits
 653              		.align	2
 654              		.p2align 4,,15
 655              		.global	encoder_tim_isr
 656              		.thumb
 657              		.thumb_func
 658              		.type	encoder_tim_isr, %function
 659              	encoder_tim_isr:
 660              	.LFB263:
 661              		.loc 1 253 0
 662              		.cfi_startproc
 663              		@ args = 0, pretend = 0, frame = 0
 664              		@ frame_needed = 0, uses_anonymous_args = 0
 665 0000 2DE9F041 		push	{r4, r5, r6, r7, r8, lr}
 666              		.cfi_def_cfa_offset 24
 667              		.cfi_offset 4, -24
 668              		.cfi_offset 5, -20
 669              		.cfi_offset 6, -16
 670              		.cfi_offset 7, -12
 671              		.cfi_offset 8, -8
 672              		.cfi_offset 14, -4
 673              	.LBB184:
 674              	.LBB185:
 675              		.loc 1 340 0
 676 0004 2E4C     		ldr	r4, .L45
 677 0006 1026     		movs	r6, #16
ARM GAS  /tmp/ccuEfq5L.s 			page 13


 678              	.LBE185:
 679              	.LBE184:
 680              	.LBB187:
 681              	.LBB188:
 682              	.LBB189:
 683              	.LBB190:
 684              	.LBB191:
 685              		.loc 1 314 0
 686 0008 2027     		movs	r7, #32
 687              	.LBE191:
 688              	.LBE190:
 689              	.LBE189:
 690              	.LBE188:
 691              	.LBE187:
 692              	.LBB229:
 693              	.LBB186:
 694              		.loc 1 340 0
 695 000a 6683     		strh	r6, [r4, #26]	@ movhi
 696              	.LVL40:
 697              	.LBE186:
 698              	.LBE229:
 699              	.LBB230:
 700              	.LBB228:
 701              	.LBB227:
 702              	.LBB225:
 703              	.LBB223:
 704              		.loc 1 314 0
 705 000c B846     		mov	r8, r7	@ movhi
 706              	.LBE223:
 707              	.LBE225:
 708              		.loc 1 307 0
 709 000e 0025     		movs	r5, #0
 710              	.LVL41:
 711              	.L39:
 712              	.LBB226:
 713              	.LBB224:
 714              	.LBB192:
 715              	.LBB193:
 716              	.LBB194:
 717              		.loc 2 327 0
 718              	@ 327 "ChibiOS_3.0.2/os/ext/CMSIS/include/core_cmInstr.h" 1
 719 0010 00BF     		nop
 720              	@ 0 "" 2
 721              		.thumb
 722              	.LBE194:
 723              	.LBE193:
 724              	.LBB195:
 725              	.LBB196:
 726              	@ 327 "ChibiOS_3.0.2/os/ext/CMSIS/include/core_cmInstr.h" 1
 727 0012 00BF     		nop
 728              	@ 0 "" 2
 729              		.thumb
 730              	.LBE196:
 731              	.LBE195:
 732              	.LBB197:
 733              	.LBB198:
 734              	@ 327 "ChibiOS_3.0.2/os/ext/CMSIS/include/core_cmInstr.h" 1
ARM GAS  /tmp/ccuEfq5L.s 			page 14


 735 0014 00BF     		nop
 736              	@ 0 "" 2
 737              		.thumb
 738              	.LBE198:
 739              	.LBE197:
 740              	.LBB199:
 741              	.LBB200:
 742              	@ 327 "ChibiOS_3.0.2/os/ext/CMSIS/include/core_cmInstr.h" 1
 743 0016 00BF     		nop
 744              	@ 0 "" 2
 745              		.thumb
 746              	.LBE200:
 747              	.LBE199:
 748              	.LBE192:
 749              		.loc 1 314 0
 750 0018 A4F81880 		strh	r8, [r4, #24]	@ movhi
 751              	.LBB201:
 752              	.LBB202:
 753              	.LBB203:
 754              		.loc 2 327 0
 755              	@ 327 "ChibiOS_3.0.2/os/ext/CMSIS/include/core_cmInstr.h" 1
 756 001c 00BF     		nop
 757              	@ 0 "" 2
 758              		.thumb
 759              	.LBE203:
 760              	.LBE202:
 761              	.LBB204:
 762              	.LBB205:
 763              	@ 327 "ChibiOS_3.0.2/os/ext/CMSIS/include/core_cmInstr.h" 1
 764 001e 00BF     		nop
 765              	@ 0 "" 2
 766              		.thumb
 767              	.LBE205:
 768              	.LBE204:
 769              	.LBB206:
 770              	.LBB207:
 771              	@ 327 "ChibiOS_3.0.2/os/ext/CMSIS/include/core_cmInstr.h" 1
 772 0020 00BF     		nop
 773              	@ 0 "" 2
 774              		.thumb
 775              	.LBE207:
 776              	.LBE206:
 777              	.LBB208:
 778              	.LBB209:
 779              	@ 327 "ChibiOS_3.0.2/os/ext/CMSIS/include/core_cmInstr.h" 1
 780 0022 00BF     		nop
 781              	@ 0 "" 2
 782              		.thumb
 783              	.LBE209:
 784              	.LBE208:
 785              	.LBE201:
 786              		.loc 1 318 0
 787 0024 2069     		ldr	r0, [r4, #16]
 788              	.LVL42:
 789              	.LBB210:
 790              	.LBB211:
 791              		.loc 2 327 0
ARM GAS  /tmp/ccuEfq5L.s 			page 15


 792              	@ 327 "ChibiOS_3.0.2/os/ext/CMSIS/include/core_cmInstr.h" 1
 793 0026 00BF     		nop
 794              	@ 0 "" 2
 795              		.thumb
 796              	.LBE211:
 797              	.LBE210:
 798              		.loc 1 320 0
 799 0028 2169     		ldr	r1, [r4, #16]
 800              	.LVL43:
 801              	.LBB212:
 802              	.LBB213:
 803              		.loc 2 327 0
 804              	@ 327 "ChibiOS_3.0.2/os/ext/CMSIS/include/core_cmInstr.h" 1
 805 002a 00BF     		nop
 806              	@ 0 "" 2
 807              		.thumb
 808              	.LBE213:
 809              	.LBE212:
 810              		.loc 1 322 0
 811 002c 2269     		ldr	r2, [r4, #16]
 812              	.LVL44:
 813              		.loc 1 324 0
 814 002e 6D00     		lsls	r5, r5, #1
 815              	.LVL45:
 816              		.loc 1 325 0
 817 0030 C0F38010 		ubfx	r0, r0, #6, #1
 818              	.LVL46:
 819 0034 C1F38011 		ubfx	r1, r1, #6, #1
 820              	.LVL47:
 821 0038 C2F38012 		ubfx	r2, r2, #6, #1
 822              	.LVL48:
 823              		.loc 1 324 0
 824 003c ADB2     		uxth	r5, r5
 825              	.LVL49:
 826              		.loc 1 325 0
 827 003e FFF7FEFF 		bl	utils_middle_of_3_int
 828              	.LVL50:
 829 0042 08B1     		cbz	r0, .L40
 830              		.loc 1 326 0
 831 0044 45F00105 		orr	r5, r5, #1
 832              	.LVL51:
 833              	.L40:
 834              		.loc 1 329 0
 835 0048 6783     		strh	r7, [r4, #26]	@ movhi
 836 004a 1D4B     		ldr	r3, .L45
 837              	.LBB214:
 838              	.LBB215:
 839              	.LBB216:
 840              		.loc 2 327 0
 841              	@ 327 "ChibiOS_3.0.2/os/ext/CMSIS/include/core_cmInstr.h" 1
 842 004c 00BF     		nop
 843              	@ 0 "" 2
 844              		.thumb
 845              	.LBE216:
 846              	.LBE215:
 847              	.LBB217:
 848              	.LBB218:
ARM GAS  /tmp/ccuEfq5L.s 			page 16


 849              	@ 327 "ChibiOS_3.0.2/os/ext/CMSIS/include/core_cmInstr.h" 1
 850 004e 00BF     		nop
 851              	@ 0 "" 2
 852              		.thumb
 853              	.LBE218:
 854              	.LBE217:
 855              	.LBB219:
 856              	.LBB220:
 857              	@ 327 "ChibiOS_3.0.2/os/ext/CMSIS/include/core_cmInstr.h" 1
 858 0050 00BF     		nop
 859              	@ 0 "" 2
 860              		.thumb
 861              	.LBE220:
 862              	.LBE219:
 863              	.LBB221:
 864              	.LBB222:
 865              	@ 327 "ChibiOS_3.0.2/os/ext/CMSIS/include/core_cmInstr.h" 1
 866 0052 00BF     		nop
 867              	@ 0 "" 2
 868              	.LVL52:
 869              		.thumb
 870              	.LBE222:
 871              	.LBE221:
 872              	.LBE214:
 873              	.LBE224:
 874              		.loc 1 309 0
 875 0054 013E     		subs	r6, r6, #1
 876              	.LVL53:
 877 0056 DBD1     		bne	.L39
 878              	.LVL54:
 879              	.LBE226:
 880              	.LBE227:
 881              	.LBE228:
 882              	.LBE230:
 883              	.LBB231:
 884              	.LBB232:
 885              		.loc 1 344 0
 886 0058 1021     		movs	r1, #16
 887              	.LBE232:
 888              	.LBE231:
 889              		.loc 1 263 0
 890 005a 1A4A     		ldr	r2, .L45+4
 891              	.LBB234:
 892              	.LBB233:
 893              		.loc 1 344 0
 894 005c 1983     		strh	r1, [r3, #24]	@ movhi
 895              	.LBE233:
 896              	.LBE234:
 897              		.loc 1 263 0
 898 005e 1368     		ldr	r3, [r2]
 899 0060 B3F5805F 		cmp	r3, #4096
 900              		.loc 1 260 0
 901 0064 C5F30D05 		ubfx	r5, r5, #0, #14
 902              	.LVL55:
 903              		.loc 1 263 0
 904 0068 19D2     		bcs	.L41
 905              		.loc 1 263 0 is_stmt 0 discriminator 1
ARM GAS  /tmp/ccuEfq5L.s 			page 17


 906 006a B5F5405F 		cmp	r5, #12288
 907 006e 21D8     		bhi	.L42
 908              	.L44:
 909 0070 1549     		ldr	r1, .L45+8
 910 0072 0C68     		ldr	r4, [r1]
 911              	.L43:
 912              		.loc 1 276 0 is_stmt 1
 913 0074 9FED157A 		flds	s14, .L45+12
 914 0078 1548     		ldr	r0, .L45+16
 915              		.loc 1 274 0
 916 007a 1560     		str	r5, [r2]
 917              		.loc 1 276 0
 918 007c 07EE905A 		fmsr	s15, r5	@ int
 919 0080 F8EE676A 		fuitos	s13, s15
 920 0084 DFED137A 		flds	s15, .L45+20
 921 0088 26EE877A 		fmuls	s14, s13, s14
 922              		.loc 1 273 0
 923 008c EB1A     		subs	r3, r5, r3
 924              		.loc 1 276 0
 925 008e 67EE277A 		fmuls	s15, s14, s15
 926              		.loc 1 273 0
 927 0092 2344     		add	r3, r3, r4
 928 0094 0B60     		str	r3, [r1]
 929              		.loc 1 276 0
 930 0096 C0ED007A 		fsts	s15, [r0]
 931 009a BDE8F081 		pop	{r4, r5, r6, r7, r8, pc}
 932              	.LVL56:
 933              	.L41:
 934              		.loc 1 267 0
 935 009e B3F5405F 		cmp	r3, #12288
 936 00a2 E5D9     		bls	.L44
 937              		.loc 1 267 0 is_stmt 0 discriminator 1
 938 00a4 B5F5805F 		cmp	r5, #4096
 939 00a8 E2D2     		bcs	.L44
 940              		.loc 1 269 0 is_stmt 1
 941 00aa 0749     		ldr	r1, .L45+8
 942 00ac 0C68     		ldr	r4, [r1]
 943 00ae 04F58044 		add	r4, r4, #16384
 944 00b2 DFE7     		b	.L43
 945              	.L42:
 946              		.loc 1 265 0
 947 00b4 0449     		ldr	r1, .L45+8
 948 00b6 0C68     		ldr	r4, [r1]
 949 00b8 A4F58044 		sub	r4, r4, #16384
 950 00bc DAE7     		b	.L43
 951              	.L46:
 952 00be 00BF     		.align	2
 953              	.L45:
 954 00c0 00000240 		.word	1073872896
 955 00c4 00000000 		.word	.LANCHOR7
 956 00c8 00000000 		.word	.LANCHOR5
 957 00cc 0000B443 		.word	1135869952
 958 00d0 00000000 		.word	.LANCHOR2
 959 00d4 00008038 		.word	947912704
 960              		.cfi_endproc
 961              	.LFE263:
 962              		.size	encoder_tim_isr, .-encoder_tim_isr
ARM GAS  /tmp/ccuEfq5L.s 			page 18


 963 00d8 AFF30080 		.section	.text.encoder_set_counts,"ax",%progbits
 963      AFF30080 
 964              		.align	2
 965              		.p2align 4,,15
 966              		.global	encoder_set_counts
 967              		.thumb
 968              		.thumb_func
 969              		.type	encoder_set_counts, %function
 970              	encoder_set_counts:
 971              	.LFB264:
 972              		.loc 1 285 0
 973              		.cfi_startproc
 974              		@ args = 0, pretend = 0, frame = 0
 975              		@ frame_needed = 0, uses_anonymous_args = 0
 976              	.LVL57:
 977              		.loc 1 286 0
 978 0000 074A     		ldr	r2, .L49
 979 0002 1168     		ldr	r1, [r2]
 980 0004 8842     		cmp	r0, r1
 981              		.loc 1 285 0
 982 0006 08B5     		push	{r3, lr}
 983              		.cfi_def_cfa_offset 8
 984              		.cfi_offset 3, -8
 985              		.cfi_offset 14, -4
 986              		.loc 1 285 0
 987 0008 0346     		mov	r3, r0
 988              		.loc 1 286 0
 989 000a 07D0     		beq	.L47
 990              		.loc 1 288 0
 991 000c 411E     		subs	r1, r0, #1
 992 000e 0548     		ldr	r0, .L49+4
 993              	.LVL58:
 994              		.loc 1 287 0
 995 0010 1360     		str	r3, [r2]
 996              		.loc 1 288 0
 997 0012 FFF7FEFF 		bl	TIM_SetAutoreload
 998              	.LVL59:
 999              		.loc 1 289 0
 1000 0016 044B     		ldr	r3, .L49+8
 1001 0018 0022     		movs	r2, #0
 1002 001a 1A70     		strb	r2, [r3]
 1003              	.L47:
 1004 001c 08BD     		pop	{r3, pc}
 1005              	.L50:
 1006 001e 00BF     		.align	2
 1007              	.L49:
 1008 0020 00000000 		.word	.LANCHOR3
 1009 0024 00080040 		.word	1073743872
 1010 0028 00000000 		.word	.LANCHOR0
 1011              		.cfi_endproc
 1012              	.LFE264:
 1013              		.size	encoder_set_counts, .-encoder_set_counts
 1014 002c AFF30080 		.section	.text.encoder_index_found,"ax",%progbits
 1015              		.align	2
 1016              		.p2align 4,,15
 1017              		.global	encoder_index_found
 1018              		.thumb
ARM GAS  /tmp/ccuEfq5L.s 			page 19


 1019              		.thumb_func
 1020              		.type	encoder_index_found, %function
 1021              	encoder_index_found:
 1022              	.LFB265:
 1023              		.loc 1 299 0
 1024              		.cfi_startproc
 1025              		@ args = 0, pretend = 0, frame = 0
 1026              		@ frame_needed = 0, uses_anonymous_args = 0
 1027              		@ link register save eliminated.
 1028              		.loc 1 300 0
 1029 0000 014B     		ldr	r3, .L52
 1030              		.loc 1 301 0
 1031 0002 1878     		ldrb	r0, [r3]	@ zero_extendqisi2
 1032 0004 7047     		bx	lr
 1033              	.L53:
 1034 0006 00BF     		.align	2
 1035              	.L52:
 1036 0008 00000000 		.word	.LANCHOR0
 1037              		.cfi_endproc
 1038              	.LFE265:
 1039              		.size	encoder_index_found, .-encoder_index_found
 1040 000c AFF30080 		.section	.bss.angle.9264,"aw",%nobits
 1041              		.align	2
 1042              		.set	.LANCHOR4,. + 0
 1043              		.type	angle.9264, %object
 1044              		.size	angle.9264, 4
 1045              	angle.9264:
 1046 0000 00000000 		.space	4
 1047              		.section	.data.enc_counts,"aw",%progbits
 1048              		.align	2
 1049              		.set	.LANCHOR3,. + 0
 1050              		.type	enc_counts, %object
 1051              		.size	enc_counts, 4
 1052              	enc_counts:
 1053 0000 10270000 		.word	10000
 1054              		.section	.bss.cumulative_encoder_counts,"aw",%nobits
 1055              		.align	2
 1056              		.set	.LANCHOR5,. + 0
 1057              		.type	cumulative_encoder_counts, %object
 1058              		.size	cumulative_encoder_counts, 4
 1059              	cumulative_encoder_counts:
 1060 0000 00000000 		.space	4
 1061              		.section	.bss.last_encoder_counts,"aw",%nobits
 1062              		.align	2
 1063              		.set	.LANCHOR7,. + 0
 1064              		.type	last_encoder_counts, %object
 1065              		.size	last_encoder_counts, 4
 1066              	last_encoder_counts:
 1067 0000 00000000 		.space	4
 1068              		.section	.bss.index_found,"aw",%nobits
 1069              		.set	.LANCHOR0,. + 0
 1070              		.type	index_found, %object
 1071              		.size	index_found, 1
 1072              	index_found:
 1073 0000 00       		.space	1
 1074              		.section	.bss.mode,"aw",%nobits
 1075              		.set	.LANCHOR1,. + 0
ARM GAS  /tmp/ccuEfq5L.s 			page 20


 1076              		.type	mode, %object
 1077              		.size	mode, 1
 1078              	mode:
 1079 0000 00       		.space	1
 1080              		.section	.bss.last_enc_angle,"aw",%nobits
 1081              		.align	2
 1082              		.set	.LANCHOR2,. + 0
 1083              		.type	last_enc_angle, %object
 1084              		.size	last_enc_angle, 4
 1085              	last_enc_angle:
 1086 0000 00000000 		.space	4
 1087              		.section	.bss.bad_pulses.9276,"aw",%nobits
 1088              		.align	2
 1089              		.set	.LANCHOR6,. + 0
 1090              		.type	bad_pulses.9276, %object
 1091              		.size	bad_pulses.9276, 4
 1092              	bad_pulses.9276:
 1093 0000 00000000 		.space	4
 1094              		.text
 1095              	.Letext0:
 1096              		.file 3 "/usr/include/newlib/machine/_default_types.h"
 1097              		.file 4 "/usr/include/newlib/stdint.h"
 1098              		.file 5 "/usr/lib/gcc/arm-none-eabi/4.8/include/stddef.h"
 1099              		.file 6 "ChibiOS_3.0.2/os/rt/ports/ARMCMx/compilers/GCC/chtypes.h"
 1100              		.file 7 "ChibiOS_3.0.2/os/rt/include/chsystypes.h"
 1101              		.file 8 "ChibiOS_3.0.2/os/rt/include/chschd.h"
 1102              		.file 9 "ChibiOS_3.0.2/os/ext/CMSIS/ST/stm32f407xx.h"
 1103              		.file 10 "ChibiOS_3.0.2/os/ext/CMSIS/ST/stm32f4xx.h"
 1104              		.file 11 "ChibiOS_3.0.2/os/rt/ports/ARMCMx/chcore.h"
 1105              		.file 12 "ChibiOS_3.0.2/os/rt/ports/ARMCMx/chcore_v7m.h"
 1106              		.file 13 "ChibiOS_3.0.2/os/rt/include/chtm.h"
 1107              		.file 14 "ChibiOS_3.0.2/os/rt/include/chsem.h"
 1108              		.file 15 "ChibiOS_3.0.2/os/rt/include/chmtx.h"
 1109              		.file 16 "ChibiOS_3.0.2/os/hal/ports/STM32/LLD/GPIOv2/pal_lld.h"
 1110              		.file 17 "ChibiOS_3.0.2/ext/stdperiph_stm32f4/inc/stm32f4xx_exti.h"
 1111              		.file 18 "ChibiOS_3.0.2/ext/stdperiph_stm32f4/inc/stm32f4xx_tim.h"
 1112              		.file 19 "ChibiOS_3.0.2/os/hal/ports/common/ARMCMx/nvic.h"
 1113              		.file 20 "ChibiOS_3.0.2/ext/stdperiph_stm32f4/inc/stm32f4xx_rcc.h"
 1114              		.file 21 "ChibiOS_3.0.2/ext/stdperiph_stm32f4/inc/stm32f4xx_syscfg.h"
 1115              		.file 22 "utils.h"
 1116              		.file 23 "ChibiOS_3.0.2/os/ext/CMSIS/include/core_cm4.h"