ARM GAS  /tmp/ccXwvmPO.s 			page 1


   1              		.syntax unified
   2              		.cpu cortex-m4
   3              		.eabi_attribute 27, 3
   4              		.eabi_attribute 28, 1
   5              		.fpu fpv4-sp-d16
   6              		.eabi_attribute 20, 1
   7              		.eabi_attribute 21, 1
   8              		.eabi_attribute 23, 3
   9              		.eabi_attribute 24, 1
  10              		.eabi_attribute 25, 1
  11              		.eabi_attribute 26, 1
  12              		.eabi_attribute 30, 2
  13              		.eabi_attribute 34, 1
  14              		.eabi_attribute 18, 4
  15              		.thumb
  16              		.file	"flash_helper.c"
  17              		.text
  18              	.Ltext0:
  19              		.cfi_sections	.debug_frame
  20              		.section	.text.flash_helper_erase_new_app,"ax",%progbits
  21              		.align	2
  22              		.p2align 4,,15
  23              		.global	flash_helper_erase_new_app
  24              		.thumb
  25              		.thumb_func
  26              		.type	flash_helper_erase_new_app, %function
  27              	flash_helper_erase_new_app:
  28              	.LFB256:
  29              		.file 1 "flash_helper.c"
  30              		.loc 1 82 0
  31              		.cfi_startproc
  32              		@ args = 0, pretend = 0, frame = 0
  33              		@ frame_needed = 0, uses_anonymous_args = 0
  34              	.LVL0:
  35 0000 F8B5     		push	{r3, r4, r5, r6, r7, lr}
  36              		.cfi_def_cfa_offset 24
  37              		.cfi_offset 3, -24
  38              		.cfi_offset 4, -20
  39              		.cfi_offset 5, -16
  40              		.cfi_offset 6, -12
  41              		.cfi_offset 7, -8
  42              		.cfi_offset 14, -4
  43              		.loc 1 82 0
  44 0002 0646     		mov	r6, r0
  45              		.loc 1 83 0
  46 0004 FFF7FEFF 		bl	FLASH_Unlock
  47              	.LVL1:
  48              		.loc 1 84 0
  49 0008 F220     		movs	r0, #242
  50 000a FFF7FEFF 		bl	FLASH_ClearFlag
  51              	.LVL2:
  52              		.loc 1 89 0
  53 000e FFF7FEFF 		bl	mc_interface_unlock
  54              	.LVL3:
  55              		.loc 1 90 0
  56 0012 FFF7FEFF 		bl	mc_interface_release_motor
  57              	.LVL4:
ARM GAS  /tmp/ccXwvmPO.s 			page 2


  58              		.loc 1 91 0
  59 0016 FFF7FEFF 		bl	utils_sys_lock_cnt
  60              	.LVL5:
  61              		.loc 1 92 0
  62 001a 4FF40060 		mov	r0, #2048
  63 001e 0021     		movs	r1, #0
  64 0020 104C     		ldr	r4, .L8
  65 0022 114D     		ldr	r5, .L8+4
  66 0024 FFF7FEFF 		bl	RCC_APB1PeriphClockCmd
  67              	.LVL6:
  68              		.loc 1 87 0
  69 0028 06F10066 		add	r6, r6, #134217728
  70              	.LVL7:
  71 002c 06F50026 		add	r6, r6, #524288
  72              	.LVL8:
  73 0030 04F10C07 		add	r7, r4, #12
  74              	.LVL9:
  75              	.L5:
  76              	.LBB16:
  77              		.loc 1 95 0
  78 0034 54F8043F 		ldr	r3, [r4, #4]!
  79 0038 9E42     		cmp	r6, r3
  80              	.LBB17:
  81              		.loc 1 96 0
  82 003a 4FF00201 		mov	r1, #2
  83              	.LBE17:
  84              		.loc 1 95 0
  85 003e 07D9     		bls	.L4
  86              	.LBB18:
  87              		.loc 1 96 0
  88 0040 35F8020F 		ldrh	r0, [r5, #2]!
  89 0044 FFF7FEFF 		bl	FLASH_EraseSector
  90              	.LVL10:
  91              		.loc 1 97 0
  92 0048 0928     		cmp	r0, #9
  93 004a 0AD1     		bne	.L3
  94              	.LBE18:
  95              		.loc 1 94 0
  96 004c BC42     		cmp	r4, r7
  97 004e F1D1     		bne	.L5
  98              	.LVL11:
  99              	.L4:
 100              	.LBE16:
 101              		.loc 1 105 0
 102 0050 4FF40060 		mov	r0, #2048
 103 0054 0121     		movs	r1, #1
 104 0056 FFF7FEFF 		bl	RCC_APB1PeriphClockCmd
 105              	.LVL12:
 106              		.loc 1 106 0
 107 005a FFF7FEFF 		bl	utils_sys_unlock_cnt
 108              	.LVL13:
 109              		.loc 1 108 0
 110 005e 0920     		movs	r0, #9
 111 0060 F8BD     		pop	{r3, r4, r5, r6, r7, pc}
 112              	.LVL14:
 113              	.L3:
 114              		.loc 1 109 0
ARM GAS  /tmp/ccXwvmPO.s 			page 3


 115 0062 F8BD     		pop	{r3, r4, r5, r6, r7, pc}
 116              	.LVL15:
 117              	.L9:
 118              		.align	2
 119              	.L8:
 120 0064 1C000000 		.word	.LANCHOR0+28
 121 0068 0E000000 		.word	.LANCHOR1+14
 122              		.cfi_endproc
 123              	.LFE256:
 124              		.size	flash_helper_erase_new_app, .-flash_helper_erase_new_app
 125 006c AFF30080 		.section	.text.flash_helper_write_new_app_data,"ax",%progbits
 126              		.align	2
 127              		.p2align 4,,15
 128              		.global	flash_helper_write_new_app_data
 129              		.thumb
 130              		.thumb_func
 131              		.type	flash_helper_write_new_app_data, %function
 132              	flash_helper_write_new_app_data:
 133              	.LFB257:
 134              		.loc 1 111 0
 135              		.cfi_startproc
 136              		@ args = 0, pretend = 0, frame = 0
 137              		@ frame_needed = 0, uses_anonymous_args = 0
 138              	.LVL16:
 139 0000 F8B5     		push	{r3, r4, r5, r6, r7, lr}
 140              		.cfi_def_cfa_offset 24
 141              		.cfi_offset 3, -24
 142              		.cfi_offset 4, -20
 143              		.cfi_offset 5, -16
 144              		.cfi_offset 6, -12
 145              		.cfi_offset 7, -8
 146              		.cfi_offset 14, -4
 147              		.loc 1 111 0
 148 0002 0546     		mov	r5, r0
 149              		.loc 1 112 0
 150 0004 F220     		movs	r0, #242
 151              	.LVL17:
 152              		.loc 1 111 0
 153 0006 0F46     		mov	r7, r1
 154 0008 1646     		mov	r6, r2
 155              		.loc 1 112 0
 156 000a FFF7FEFF 		bl	FLASH_ClearFlag
 157              	.LVL18:
 158              		.loc 1 115 0
 159 000e FFF7FEFF 		bl	mc_interface_unlock
 160              	.LVL19:
 161              		.loc 1 116 0
 162 0012 FFF7FEFF 		bl	mc_interface_release_motor
 163              	.LVL20:
 164              		.loc 1 117 0
 165 0016 FFF7FEFF 		bl	utils_sys_lock_cnt
 166              	.LVL21:
 167              		.loc 1 118 0
 168 001a 4FF40060 		mov	r0, #2048
 169 001e 0021     		movs	r1, #0
 170 0020 FFF7FEFF 		bl	RCC_APB1PeriphClockCmd
 171              	.LVL22:
ARM GAS  /tmp/ccXwvmPO.s 			page 4


 172              	.LBB19:
 173              		.loc 1 120 0
 174 0024 8EB1     		cbz	r6, .L13
 175 0026 05F10065 		add	r5, r5, #134217728
 176              	.LVL23:
 177 002a 05F50025 		add	r5, r5, #524288
 178              	.LVL24:
 179 002e 3C46     		mov	r4, r7
 180 0030 3E44     		add	r6, r6, r7
 181              	.LVL25:
 182 0032 ED1B     		subs	r5, r5, r7
 183              	.LVL26:
 184 0034 01E0     		b	.L14
 185              	.LVL27:
 186              	.L16:
 187 0036 B442     		cmp	r4, r6
 188 0038 07D0     		beq	.L13
 189              	.LVL28:
 190              	.L14:
 191 003a 2819     		adds	r0, r5, r4
 192              	.LBB20:
 193              		.loc 1 121 0
 194 003c 14F8011B 		ldrb	r1, [r4], #1	@ zero_extendqisi2
 195              	.LVL29:
 196 0040 FFF7FEFF 		bl	FLASH_ProgramByte
 197              	.LVL30:
 198              		.loc 1 122 0
 199 0044 0928     		cmp	r0, #9
 200 0046 F6D0     		beq	.L16
 201              	.LBE20:
 202              	.LBE19:
 203              		.loc 1 131 0
 204 0048 F8BD     		pop	{r3, r4, r5, r6, r7, pc}
 205              	.LVL31:
 206              	.L13:
 207              		.loc 1 127 0
 208 004a 4FF40060 		mov	r0, #2048
 209 004e 0121     		movs	r1, #1
 210 0050 FFF7FEFF 		bl	RCC_APB1PeriphClockCmd
 211              	.LVL32:
 212              		.loc 1 128 0
 213 0054 FFF7FEFF 		bl	utils_sys_unlock_cnt
 214              	.LVL33:
 215              		.loc 1 130 0
 216 0058 0920     		movs	r0, #9
 217 005a F8BD     		pop	{r3, r4, r5, r6, r7, pc}
 218              		.cfi_endproc
 219              	.LFE257:
 220              		.size	flash_helper_write_new_app_data, .-flash_helper_write_new_app_data
 221 005c AFF30080 		.section	.text.flash_helper_jump_to_bootloader,"ax",%progbits
 222              		.align	2
 223              		.p2align 4,,15
 224              		.global	flash_helper_jump_to_bootloader
 225              		.thumb
 226              		.thumb_func
 227              		.type	flash_helper_jump_to_bootloader, %function
 228              	flash_helper_jump_to_bootloader:
ARM GAS  /tmp/ccXwvmPO.s 			page 5


 229              	.LFB258:
 230              		.loc 1 136 0
 231              		.cfi_startproc
 232              		@ args = 0, pretend = 0, frame = 0
 233              		@ frame_needed = 0, uses_anonymous_args = 0
 234 0000 08B5     		push	{r3, lr}
 235              		.cfi_def_cfa_offset 8
 236              		.cfi_offset 3, -8
 237              		.cfi_offset 14, -4
 238              		.loc 1 139 0
 239 0002 FFF7FEFF 		bl	mc_interface_unlock
 240              	.LVL34:
 241              		.loc 1 140 0
 242 0006 FFF7FEFF 		bl	mc_interface_release_motor
 243              	.LVL35:
 244              		.loc 1 141 0
 245 000a 1A48     		ldr	r0, .L21
 246 000c 036D     		ldr	r3, [r0, #80]
 247 000e 9A6B     		ldr	r2, [r3, #56]
 248 0010 22F40022 		bic	r2, r2, #524288
 249 0014 9A63     		str	r2, [r3, #56]
 250              		.loc 1 142 0
 251 0016 FFF7FEFF 		bl	usbStop
 252              	.LVL36:
 253              		.loc 1 144 0
 254 001a 1748     		ldr	r0, .L21+4
 255 001c FFF7FEFF 		bl	uartStop
 256              	.LVL37:
 257              		.loc 1 145 0
 258 0020 1648     		ldr	r0, .L21+8
 259 0022 4021     		movs	r1, #64
 260 0024 0022     		movs	r2, #0
 261 0026 FFF7FEFF 		bl	_pal_lld_setgroupmode
 262              	.LVL38:
 263              		.loc 1 146 0
 264 002a 0022     		movs	r2, #0
 265 002c 1348     		ldr	r0, .L21+8
 266 002e 8021     		movs	r1, #128
 267 0030 FFF7FEFF 		bl	_pal_lld_setgroupmode
 268              	.LVL39:
 269              		.loc 1 149 0
 270 0034 4FF40060 		mov	r0, #2048
 271 0038 0021     		movs	r1, #0
 272 003a FFF7FEFF 		bl	RCC_APB1PeriphClockCmd
 273              	.LVL40:
 274              	.LBB21:
 275              	.LBB22:
 276              	.LBB23:
 277              	.LBB24:
 278              		.file 2 "ChibiOS_3.0.2/os/ext/CMSIS/include/core_cmFunc.h"
 279              		.loc 2 342 0
 280              	@ 342 "ChibiOS_3.0.2/os/ext/CMSIS/include/core_cmFunc.h" 1
 281 003e 72B6     		cpsid i
 282              	@ 0 "" 2
 283              	.LVL41:
 284              		.thumb
 285              	.LBE24:
ARM GAS  /tmp/ccXwvmPO.s 			page 6


 286              	.LBE23:
 287              	.LBE22:
 288              	.LBE21:
 289              		.loc 1 160 0
 290 0040 0F4A     		ldr	r2, .L21+12
 291              		.loc 1 166 0
 292 0042 104B     		ldr	r3, .L21+16
 293              		.loc 1 160 0
 294 0044 1068     		ldr	r0, [r2]
 295              	.LVL42:
 296              		.loc 1 166 0
 297 0046 4FF00062 		mov	r2, #134217728
 298 004a 5A60     		str	r2, [r3, #4]
 299              	.LVL43:
 300              	.LBB25:
 301              		.loc 1 169 0
 302 004c 0022     		movs	r2, #0
 303              	.LVL44:
 304              	.L19:
 305 004e 9300     		lsls	r3, r2, #2
 306 0050 03F16043 		add	r3, r3, #-536870912
 307 0054 03F56143 		add	r3, r3, #57600
 308              		.loc 1 169 0 is_stmt 0 discriminator 2
 309 0058 0132     		adds	r2, r2, #1
 310              	.LVL45:
 311              		.loc 1 170 0 is_stmt 1 discriminator 2
 312 005a D3F80012 		ldr	r1, [r3, #512]
 313 005e C3F88010 		str	r1, [r3, #128]
 314              		.loc 1 169 0 discriminator 2
 315 0062 082A     		cmp	r2, #8
 316 0064 F3D1     		bne	.L19
 317              	.LBE25:
 318              		.loc 1 174 0
 319 0066 084B     		ldr	r3, .L21+20
 320 0068 1B68     		ldr	r3, [r3]
 321              	.LVL46:
 322              	.LBB26:
 323              	.LBB27:
 324              		.loc 2 468 0
 325              	@ 468 "ChibiOS_3.0.2/os/ext/CMSIS/include/core_cmFunc.h" 1
 326 006a 83F30888 		MSR msp, r3
 327              	
 328              	@ 0 "" 2
 329              		.thumb
 330              	.LBE27:
 331              	.LBE26:
 332              		.loc 1 177 0
 333 006e 8047     		blx	r0
 334              	.LVL47:
 335 0070 08BD     		pop	{r3, pc}
 336              	.L22:
 337 0072 00BF     		.align	2
 338              	.L21:
 339 0074 00000000 		.word	USBD1
 340 0078 00000000 		.word	UARTD6
 341 007c 00080240 		.word	1073874944
 342 0080 04000E08 		.word	135135236
ARM GAS  /tmp/ccXwvmPO.s 			page 7


 343 0084 00ED00E0 		.word	-536810240
 344 0088 00000E08 		.word	135135232
 345              		.cfi_endproc
 346              	.LFE258:
 347              		.size	flash_helper_jump_to_bootloader, .-flash_helper_jump_to_bootloader
 348 008c AFF30080 		.section	.text.flash_helper_get_sector_address,"ax",%progbits
 349              		.align	2
 350              		.p2align 4,,15
 351              		.global	flash_helper_get_sector_address
 352              		.thumb
 353              		.thumb_func
 354              		.type	flash_helper_get_sector_address, %function
 355              	flash_helper_get_sector_address:
 356              	.LFB259:
 357              		.loc 1 180 0
 358              		.cfi_startproc
 359              		@ args = 0, pretend = 0, frame = 0
 360              		@ frame_needed = 0, uses_anonymous_args = 0
 361              		@ link register save eliminated.
 362              	.LVL48:
 363 0000 074A     		ldr	r2, .L30
 364              	.LBB28:
 365              		.loc 1 183 0
 366 0002 0023     		movs	r3, #0
 367              	.LVL49:
 368              	.L26:
 369              		.loc 1 184 0
 370 0004 32F8021F 		ldrh	r1, [r2, #2]!
 371 0008 8142     		cmp	r1, r0
 372 000a 04D0     		beq	.L29
 373              		.loc 1 183 0
 374 000c 0133     		adds	r3, r3, #1
 375              	.LVL50:
 376 000e 0C2B     		cmp	r3, #12
 377 0010 F8D1     		bne	.L26
 378              	.LBE28:
 379              		.loc 1 181 0
 380 0012 0020     		movs	r0, #0
 381              	.LVL51:
 382              		.loc 1 191 0
 383 0014 7047     		bx	lr
 384              	.LVL52:
 385              	.L29:
 386              	.LBB29:
 387              		.loc 1 185 0
 388 0016 034A     		ldr	r2, .L30+4
 389 0018 52F82300 		ldr	r0, [r2, r3, lsl #2]
 390              	.LVL53:
 391              		.loc 1 186 0
 392 001c 7047     		bx	lr
 393              	.L31:
 394 001e 00BF     		.align	2
 395              	.L30:
 396 0020 FEFFFFFF 		.word	.LANCHOR1-2
 397 0024 00000000 		.word	.LANCHOR0
 398              	.LBE29:
 399              		.cfi_endproc
ARM GAS  /tmp/ccXwvmPO.s 			page 8


 400              	.LFE259:
 401              		.size	flash_helper_get_sector_address, .-flash_helper_get_sector_address
 402 0028 AFF30080 		.section	.rodata.flash_sector,"a",%progbits
 402      AFF30080 
 403              		.align	2
 404              		.set	.LANCHOR1,. + 0
 405              		.type	flash_sector, %object
 406              		.size	flash_sector, 24
 407              	flash_sector:
 408 0000 0000     		.short	0
 409 0002 0800     		.short	8
 410 0004 1000     		.short	16
 411 0006 1800     		.short	24
 412 0008 2000     		.short	32
 413 000a 2800     		.short	40
 414 000c 3000     		.short	48
 415 000e 3800     		.short	56
 416 0010 4000     		.short	64
 417 0012 4800     		.short	72
 418 0014 5000     		.short	80
 419 0016 5800     		.short	88
 420              		.section	.rodata.flash_addr,"a",%progbits
 421              		.align	2
 422              		.set	.LANCHOR0,. + 0
 423              		.type	flash_addr, %object
 424              		.size	flash_addr, 48
 425              	flash_addr:
 426 0000 00000008 		.word	134217728
 427 0004 00400008 		.word	134234112
 428 0008 00800008 		.word	134250496
 429 000c 00C00008 		.word	134266880
 430 0010 00000108 		.word	134283264
 431 0014 00000208 		.word	134348800
 432 0018 00000408 		.word	134479872
 433 001c 00000608 		.word	134610944
 434 0020 00000808 		.word	134742016
 435 0024 00000A08 		.word	134873088
 436 0028 00000C08 		.word	135004160
 437 002c 00000E08 		.word	135135232
 438              		.text
 439              	.Letext0:
 440              		.file 3 "/usr/include/newlib/machine/_default_types.h"
 441              		.file 4 "/usr/include/newlib/stdint.h"
 442              		.file 5 "/usr/lib/gcc/arm-none-eabi/4.8/include/stddef.h"
 443              		.file 6 "ChibiOS_3.0.2/os/rt/ports/ARMCMx/compilers/GCC/chtypes.h"
 444              		.file 7 "ChibiOS_3.0.2/os/rt/include/chsystypes.h"
 445              		.file 8 "ChibiOS_3.0.2/os/rt/include/chschd.h"
 446              		.file 9 "ChibiOS_3.0.2/os/ext/CMSIS/include/core_cm4.h"
 447              		.file 10 "ChibiOS_3.0.2/os/ext/CMSIS/ST/stm32f407xx.h"
 448              		.file 11 "ChibiOS_3.0.2/os/ext/CMSIS/ST/stm32f4xx.h"
 449              		.file 12 "ChibiOS_3.0.2/os/rt/ports/ARMCMx/chcore.h"
 450              		.file 13 "ChibiOS_3.0.2/os/rt/ports/ARMCMx/chcore_v7m.h"
 451              		.file 14 "ChibiOS_3.0.2/os/rt/include/chtm.h"
 452              		.file 15 "ChibiOS_3.0.2/os/rt/include/chsem.h"
 453              		.file 16 "ChibiOS_3.0.2/os/rt/include/chmtx.h"
 454              		.file 17 "ChibiOS_3.0.2/os/rt/include/chqueues.h"
 455              		.file 18 "ChibiOS_3.0.2/os/hal/ports/STM32/STM32F4xx/stm32_dma.h"
ARM GAS  /tmp/ccXwvmPO.s 			page 9


 456              		.file 19 "ChibiOS_3.0.2/os/hal/ports/STM32/LLD/GPIOv2/pal_lld.h"
 457              		.file 20 "ChibiOS_3.0.2/os/hal/include/uart.h"
 458              		.file 21 "ChibiOS_3.0.2/os/hal/ports/STM32/LLD/USARTv1/uart_lld.h"
 459              		.file 22 "ChibiOS_3.0.2/os/hal/include/usb.h"
 460              		.file 23 "ChibiOS_3.0.2/os/hal/ports/STM32/LLD/OTGv1/usb_lld.h"
 461              		.file 24 "ChibiOS_3.0.2/os/hal/ports/STM32/LLD/OTGv1/stm32_otg.h"
 462              		.file 25 "ChibiOS_3.0.2/ext/stdperiph_stm32f4/inc/stm32f4xx_flash.h"
 463              		.file 26 "ChibiOS_3.0.2/os/rt/include/chsys.h"
 464              		.file 27 "mc_interface.h"
 465              		.file 28 "utils.h"
 466              		.file 29 "ChibiOS_3.0.2/ext/stdperiph_stm32f4/inc/stm32f4xx_rcc.h"