ARM GAS  /tmp/ccVOxwUj.s 			page 1


   1              		.syntax unified
   2              		.cpu cortex-m4
   3              		.eabi_attribute 27, 3
   4              		.eabi_attribute 28, 1
   5              		.fpu fpv4-sp-d16
   6              		.eabi_attribute 20, 1
   7              		.eabi_attribute 21, 1
   8              		.eabi_attribute 23, 3
   9              		.eabi_attribute 24, 1
  10              		.eabi_attribute 25, 1
  11              		.eabi_attribute 26, 1
  12              		.eabi_attribute 30, 2
  13              		.eabi_attribute 34, 1
  14              		.eabi_attribute 18, 4
  15              		.thumb
  16              		.file	"hw_410.c"
  17              		.text
  18              	.Ltext0:
  19              		.cfi_sections	.debug_frame
  20              		.section	.text.hw_init_gpio,"ax",%progbits
  21              		.align	2
  22              		.p2align 4,,15
  23              		.global	hw_init_gpio
  24              		.thumb
  25              		.thumb_func
  26              		.type	hw_init_gpio, %function
  27              	hw_init_gpio:
  28              	.LFB256:
  29              		.file 1 "hwconf/hw_410.c"
  30              		.loc 1 36 0
  31              		.cfi_startproc
  32              		@ args = 0, pretend = 0, frame = 0
  33              		@ frame_needed = 0, uses_anonymous_args = 0
  34              		.loc 1 38 0
  35 0000 0120     		movs	r0, #1
  36              		.loc 1 36 0
  37 0002 F8B5     		push	{r3, r4, r5, r6, r7, lr}
  38              		.cfi_def_cfa_offset 24
  39              		.cfi_offset 3, -24
  40              		.cfi_offset 4, -20
  41              		.cfi_offset 5, -16
  42              		.cfi_offset 6, -12
  43              		.cfi_offset 7, -8
  44              		.cfi_offset 14, -4
  45              		.loc 1 38 0
  46 0004 0146     		mov	r1, r0
  47              		.loc 1 43 0
  48 0006 504C     		ldr	r4, .L2
  49              		.loc 1 57 0
  50 0008 504E     		ldr	r6, .L2+4
  51              		.loc 1 62 0
  52 000a 514D     		ldr	r5, .L2+8
  53              		.loc 1 38 0
  54 000c FFF7FEFF 		bl	RCC_AHB1PeriphClockCmd
  55              	.LVL0:
  56              		.loc 1 39 0
  57 0010 0220     		movs	r0, #2
ARM GAS  /tmp/ccVOxwUj.s 			page 2


  58 0012 0121     		movs	r1, #1
  59 0014 FFF7FEFF 		bl	RCC_AHB1PeriphClockCmd
  60              	.LVL1:
  61              		.loc 1 40 0
  62 0018 0420     		movs	r0, #4
  63 001a 0121     		movs	r1, #1
  64 001c FFF7FEFF 		bl	RCC_AHB1PeriphClockCmd
  65              	.LVL2:
  66              		.loc 1 43 0
  67 0020 2046     		mov	r0, r4
  68 0022 1021     		movs	r1, #16
  69 0024 1922     		movs	r2, #25
  70 0026 FFF7FEFF 		bl	_pal_lld_setgroupmode
  71              	.LVL3:
  72              		.loc 1 46 0
  73 002a 2046     		mov	r0, r4
  74 002c 2021     		movs	r1, #32
  75 002e 1922     		movs	r2, #25
  76 0030 FFF7FEFF 		bl	_pal_lld_setgroupmode
  77              	.LVL4:
  78              		.loc 1 51 0
  79 0034 4FF48061 		mov	r1, #1024
  80              		.loc 1 54 0
  81 0038 0F46     		mov	r7, r1
  82              		.loc 1 51 0
  83 003a 2046     		mov	r0, r4
  84 003c 1922     		movs	r2, #25
  85 003e FFF7FEFF 		bl	_pal_lld_setgroupmode
  86              	.LVL5:
  87              		.loc 1 57 0
  88 0042 3046     		mov	r0, r6
  89              		.loc 1 54 0
  90 0044 6783     		strh	r7, [r4, #26]	@ movhi
  91              		.loc 1 57 0
  92 0046 4FF48051 		mov	r1, #4096
  93 004a 1922     		movs	r2, #25
  94 004c FFF7FEFF 		bl	_pal_lld_setgroupmode
  95              	.LVL6:
  96              		.loc 1 62 0
  97 0050 2846     		mov	r0, r5
  98 0052 4FF48071 		mov	r1, #256
  99 0056 9A22     		movs	r2, #154
 100 0058 FFF7FEFF 		bl	_pal_lld_setgroupmode
 101              	.LVL7:
 102              		.loc 1 65 0
 103 005c 2846     		mov	r0, r5
 104 005e 4FF40071 		mov	r1, #512
 105 0062 9A22     		movs	r2, #154
 106 0064 FFF7FEFF 		bl	_pal_lld_setgroupmode
 107              	.LVL8:
 108              		.loc 1 68 0
 109 0068 2846     		mov	r0, r5
 110 006a 3946     		mov	r1, r7
 111 006c 9A22     		movs	r2, #154
 112 006e FFF7FEFF 		bl	_pal_lld_setgroupmode
 113              	.LVL9:
 114              		.loc 1 72 0
ARM GAS  /tmp/ccVOxwUj.s 			page 3


 115 0072 3046     		mov	r0, r6
 116 0074 4FF40051 		mov	r1, #8192
 117 0078 9A22     		movs	r2, #154
 118 007a FFF7FEFF 		bl	_pal_lld_setgroupmode
 119              	.LVL10:
 120              		.loc 1 75 0
 121 007e 3046     		mov	r0, r6
 122 0080 4FF48041 		mov	r1, #16384
 123 0084 9A22     		movs	r2, #154
 124 0086 FFF7FEFF 		bl	_pal_lld_setgroupmode
 125              	.LVL11:
 126              		.loc 1 78 0
 127 008a 3046     		mov	r0, r6
 128 008c 4FF40041 		mov	r1, #32768
 129 0090 9A22     		movs	r2, #154
 130 0092 FFF7FEFF 		bl	_pal_lld_setgroupmode
 131              	.LVL12:
 132              		.loc 1 83 0
 133 0096 3046     		mov	r0, r6
 134 0098 4021     		movs	r1, #64
 135 009a 2022     		movs	r2, #32
 136 009c FFF7FEFF 		bl	_pal_lld_setgroupmode
 137              	.LVL13:
 138              		.loc 1 84 0
 139 00a0 3046     		mov	r0, r6
 140 00a2 8021     		movs	r1, #128
 141 00a4 2022     		movs	r2, #32
 142 00a6 FFF7FEFF 		bl	_pal_lld_setgroupmode
 143              	.LVL14:
 144              		.loc 1 85 0
 145 00aa 2046     		mov	r0, r4
 146 00ac 4FF40061 		mov	r1, #2048
 147 00b0 2022     		movs	r2, #32
 148 00b2 FFF7FEFF 		bl	_pal_lld_setgroupmode
 149              	.LVL15:
 150              		.loc 1 88 0
 151 00b6 2046     		mov	r0, r4
 152 00b8 4FF48051 		mov	r1, #4096
 153 00bc 2022     		movs	r2, #32
 154 00be FFF7FEFF 		bl	_pal_lld_setgroupmode
 155              	.LVL16:
 156              		.loc 1 91 0
 157 00c2 2846     		mov	r0, r5
 158 00c4 0121     		movs	r1, #1
 159 00c6 0322     		movs	r2, #3
 160 00c8 FFF7FEFF 		bl	_pal_lld_setgroupmode
 161              	.LVL17:
 162              		.loc 1 92 0
 163 00cc 2846     		mov	r0, r5
 164 00ce 0221     		movs	r1, #2
 165 00d0 0322     		movs	r2, #3
 166 00d2 FFF7FEFF 		bl	_pal_lld_setgroupmode
 167              	.LVL18:
 168              		.loc 1 93 0
 169 00d6 2846     		mov	r0, r5
 170 00d8 0421     		movs	r1, #4
 171 00da 0322     		movs	r2, #3
ARM GAS  /tmp/ccVOxwUj.s 			page 4


 172 00dc FFF7FEFF 		bl	_pal_lld_setgroupmode
 173              	.LVL19:
 174              		.loc 1 94 0
 175 00e0 2846     		mov	r0, r5
 176 00e2 0821     		movs	r1, #8
 177 00e4 0322     		movs	r2, #3
 178 00e6 FFF7FEFF 		bl	_pal_lld_setgroupmode
 179              	.LVL20:
 180              		.loc 1 95 0
 181 00ea 2846     		mov	r0, r5
 182 00ec 1021     		movs	r1, #16
 183 00ee 0322     		movs	r2, #3
 184 00f0 FFF7FEFF 		bl	_pal_lld_setgroupmode
 185              	.LVL21:
 186              		.loc 1 96 0
 187 00f4 2846     		mov	r0, r5
 188 00f6 2021     		movs	r1, #32
 189 00f8 0322     		movs	r2, #3
 190 00fa FFF7FEFF 		bl	_pal_lld_setgroupmode
 191              	.LVL22:
 192              		.loc 1 97 0
 193 00fe 2846     		mov	r0, r5
 194 0100 4021     		movs	r1, #64
 195 0102 0322     		movs	r2, #3
 196 0104 FFF7FEFF 		bl	_pal_lld_setgroupmode
 197              	.LVL23:
 198              		.loc 1 99 0
 199 0108 3046     		mov	r0, r6
 200 010a 0121     		movs	r1, #1
 201 010c 0322     		movs	r2, #3
 202 010e FFF7FEFF 		bl	_pal_lld_setgroupmode
 203              	.LVL24:
 204              		.loc 1 100 0
 205 0112 3046     		mov	r0, r6
 206 0114 0221     		movs	r1, #2
 207 0116 0322     		movs	r2, #3
 208 0118 FFF7FEFF 		bl	_pal_lld_setgroupmode
 209              	.LVL25:
 210              		.loc 1 102 0
 211 011c 2046     		mov	r0, r4
 212 011e 0121     		movs	r1, #1
 213 0120 0322     		movs	r2, #3
 214 0122 FFF7FEFF 		bl	_pal_lld_setgroupmode
 215              	.LVL26:
 216              		.loc 1 103 0
 217 0126 2046     		mov	r0, r4
 218 0128 0221     		movs	r1, #2
 219 012a 0322     		movs	r2, #3
 220 012c FFF7FEFF 		bl	_pal_lld_setgroupmode
 221              	.LVL27:
 222              		.loc 1 104 0
 223 0130 2046     		mov	r0, r4
 224 0132 0421     		movs	r1, #4
 225 0134 0322     		movs	r2, #3
 226 0136 FFF7FEFF 		bl	_pal_lld_setgroupmode
 227              	.LVL28:
 228              		.loc 1 105 0
ARM GAS  /tmp/ccVOxwUj.s 			page 5


 229 013a 2046     		mov	r0, r4
 230 013c 0821     		movs	r1, #8
 231 013e 0322     		movs	r2, #3
 232              		.loc 1 106 0
 233 0140 BDE8F840 		pop	{r3, r4, r5, r6, r7, lr}
 234              		.loc 1 105 0
 235 0144 FFF7FEBF 		b	_pal_lld_setgroupmode
 236              	.LVL29:
 237              	.L3:
 238              		.align	2
 239              	.L2:
 240 0148 00080240 		.word	1073874944
 241 014c 00040240 		.word	1073873920
 242 0150 00000240 		.word	1073872896
 243              		.cfi_endproc
 244              	.LFE256:
 245              		.size	hw_init_gpio, .-hw_init_gpio
 246 0154 AFF30080 		.section	.text.hw_setup_adc_channels,"ax",%progbits
 246      AFF30080 
 246      AFF30080 
 247              		.align	2
 248              		.p2align 4,,15
 249              		.global	hw_setup_adc_channels
 250              		.thumb
 251              		.thumb_func
 252              		.type	hw_setup_adc_channels, %function
 253              	hw_setup_adc_channels:
 254              	.LFB257:
 255              		.loc 1 108 0
 256              		.cfi_startproc
 257              		@ args = 0, pretend = 0, frame = 0
 258              		@ frame_needed = 0, uses_anonymous_args = 0
 259 0000 70B5     		push	{r4, r5, r6, lr}
 260              		.cfi_def_cfa_offset 16
 261              		.cfi_offset 4, -16
 262              		.cfi_offset 5, -12
 263              		.cfi_offset 6, -8
 264              		.cfi_offset 14, -4
 265              		.loc 1 110 0
 266 0002 324D     		ldr	r5, .L5
 267              		.loc 1 116 0
 268 0004 324C     		ldr	r4, .L5+4
 269              		.loc 1 122 0
 270 0006 334E     		ldr	r6, .L5+8
 271              		.loc 1 110 0
 272 0008 0122     		movs	r2, #1
 273 000a 2846     		mov	r0, r5
 274 000c 1346     		mov	r3, r2
 275 000e 0021     		movs	r1, #0
 276 0010 FFF7FEFF 		bl	ADC_RegularChannelConfig
 277              	.LVL30:
 278              		.loc 1 111 0
 279 0014 2846     		mov	r0, r5
 280 0016 0821     		movs	r1, #8
 281 0018 0222     		movs	r2, #2
 282 001a 0123     		movs	r3, #1
 283 001c FFF7FEFF 		bl	ADC_RegularChannelConfig
ARM GAS  /tmp/ccVOxwUj.s 			page 6


 284              	.LVL31:
 285              		.loc 1 112 0
 286 0020 2846     		mov	r0, r5
 287 0022 1121     		movs	r1, #17
 288 0024 0322     		movs	r2, #3
 289 0026 0123     		movs	r3, #1
 290 0028 FFF7FEFF 		bl	ADC_RegularChannelConfig
 291              	.LVL32:
 292              		.loc 1 113 0
 293 002c 0421     		movs	r1, #4
 294 002e 2846     		mov	r0, r5
 295 0030 0A46     		mov	r2, r1
 296 0032 0123     		movs	r3, #1
 297 0034 FFF7FEFF 		bl	ADC_RegularChannelConfig
 298              	.LVL33:
 299              		.loc 1 116 0
 300 0038 0121     		movs	r1, #1
 301 003a 2046     		mov	r0, r4
 302 003c 0A46     		mov	r2, r1
 303 003e 0B46     		mov	r3, r1
 304 0040 FFF7FEFF 		bl	ADC_RegularChannelConfig
 305              	.LVL34:
 306              		.loc 1 117 0
 307 0044 2046     		mov	r0, r4
 308 0046 0921     		movs	r1, #9
 309 0048 0222     		movs	r2, #2
 310 004a 0123     		movs	r3, #1
 311 004c FFF7FEFF 		bl	ADC_RegularChannelConfig
 312              	.LVL35:
 313              		.loc 1 118 0
 314 0050 2046     		mov	r0, r4
 315 0052 0621     		movs	r1, #6
 316 0054 0322     		movs	r2, #3
 317 0056 0123     		movs	r3, #1
 318 0058 FFF7FEFF 		bl	ADC_RegularChannelConfig
 319              	.LVL36:
 320              		.loc 1 119 0
 321 005c 2046     		mov	r0, r4
 322 005e 0521     		movs	r1, #5
 323 0060 0422     		movs	r2, #4
 324 0062 0123     		movs	r3, #1
 325 0064 FFF7FEFF 		bl	ADC_RegularChannelConfig
 326              	.LVL37:
 327              		.loc 1 122 0
 328 0068 0122     		movs	r2, #1
 329 006a 3046     		mov	r0, r6
 330 006c 1346     		mov	r3, r2
 331 006e 0221     		movs	r1, #2
 332 0070 FFF7FEFF 		bl	ADC_RegularChannelConfig
 333              	.LVL38:
 334              		.loc 1 123 0
 335 0074 3046     		mov	r0, r6
 336 0076 0321     		movs	r1, #3
 337 0078 0222     		movs	r2, #2
 338 007a 0123     		movs	r3, #1
 339 007c FFF7FEFF 		bl	ADC_RegularChannelConfig
 340              	.LVL39:
ARM GAS  /tmp/ccVOxwUj.s 			page 7


 341              		.loc 1 124 0
 342 0080 3046     		mov	r0, r6
 343 0082 0C21     		movs	r1, #12
 344 0084 0322     		movs	r2, #3
 345 0086 0123     		movs	r3, #1
 346 0088 FFF7FEFF 		bl	ADC_RegularChannelConfig
 347              	.LVL40:
 348              		.loc 1 125 0
 349 008c 3046     		mov	r0, r6
 350 008e 0A21     		movs	r1, #10
 351 0090 0422     		movs	r2, #4
 352 0092 0123     		movs	r3, #1
 353 0094 FFF7FEFF 		bl	ADC_RegularChannelConfig
 354              	.LVL41:
 355              		.loc 1 128 0
 356 0098 0122     		movs	r2, #1
 357 009a 2846     		mov	r0, r5
 358 009c 1346     		mov	r3, r2
 359 009e 0921     		movs	r1, #9
 360 00a0 FFF7FEFF 		bl	ADC_InjectedChannelConfig
 361              	.LVL42:
 362              		.loc 1 129 0
 363 00a4 2846     		mov	r0, r5
 364 00a6 0821     		movs	r1, #8
 365 00a8 0222     		movs	r2, #2
 366 00aa 0123     		movs	r3, #1
 367 00ac FFF7FEFF 		bl	ADC_InjectedChannelConfig
 368              	.LVL43:
 369              		.loc 1 130 0
 370 00b0 0122     		movs	r2, #1
 371 00b2 2046     		mov	r0, r4
 372 00b4 1346     		mov	r3, r2
 373 00b6 0821     		movs	r1, #8
 374 00b8 FFF7FEFF 		bl	ADC_InjectedChannelConfig
 375              	.LVL44:
 376              		.loc 1 131 0
 377 00bc 2046     		mov	r0, r4
 378 00be 0921     		movs	r1, #9
 379 00c0 0222     		movs	r2, #2
 380 00c2 0123     		movs	r3, #1
 381              		.loc 1 132 0
 382 00c4 BDE87040 		pop	{r4, r5, r6, lr}
 383              		.loc 1 131 0
 384 00c8 FFF7FEBF 		b	ADC_InjectedChannelConfig
 385              	.LVL45:
 386              	.L6:
 387              		.align	2
 388              	.L5:
 389 00cc 00200140 		.word	1073815552
 390 00d0 00210140 		.word	1073815808
 391 00d4 00220140 		.word	1073816064
 392              		.cfi_endproc
 393              	.LFE257:
 394              		.size	hw_setup_adc_channels, .-hw_setup_adc_channels
 395 00d8 AFF30080 		.section	.text.hw_setup_servo_outputs,"ax",%progbits
 395      AFF30080 
 396              		.align	2
ARM GAS  /tmp/ccVOxwUj.s 			page 8


 397              		.p2align 4,,15
 398              		.global	hw_setup_servo_outputs
 399              		.thumb
 400              		.thumb_func
 401              		.type	hw_setup_servo_outputs, %function
 402              	hw_setup_servo_outputs:
 403              	.LFB258:
 404              		.loc 1 134 0
 405              		.cfi_startproc
 406              		@ args = 0, pretend = 0, frame = 0
 407              		@ frame_needed = 0, uses_anonymous_args = 0
 408 0000 38B5     		push	{r3, r4, r5, lr}
 409              		.cfi_def_cfa_offset 16
 410              		.cfi_offset 3, -16
 411              		.cfi_offset 4, -12
 412              		.cfi_offset 5, -8
 413              		.cfi_offset 14, -4
 414              		.loc 1 136 0
 415 0002 0220     		movs	r0, #2
 416 0004 0121     		movs	r1, #1
 417 0006 FFF7FEFF 		bl	RCC_AHB1PeriphClockCmd
 418              	.LVL46:
 419              		.loc 1 139 0
 420 000a 074B     		ldr	r3, .L8
 421 000c 0749     		ldr	r1, .L8+4
 422 000e 5960     		str	r1, [r3, #4]
 423              		.loc 1 141 0
 424 0010 0022     		movs	r2, #0
 425              		.loc 1 140 0
 426 0012 0525     		movs	r5, #5
 427              		.loc 1 142 0
 428 0014 8024     		movs	r4, #128
 429              		.loc 1 145 0
 430 0016 0420     		movs	r0, #4
 431              		.loc 1 140 0
 432 0018 9D60     		str	r5, [r3, #8]
 433              		.loc 1 141 0
 434 001a 9A70     		strb	r2, [r3, #2]
 435              		.loc 1 142 0
 436 001c 1C80     		strh	r4, [r3]	@ movhi
 437              		.loc 1 144 0
 438 001e 1961     		str	r1, [r3, #16]
 439              		.loc 1 145 0
 440 0020 5861     		str	r0, [r3, #20]
 441              		.loc 1 146 0
 442 0022 9A73     		strb	r2, [r3, #14]
 443              		.loc 1 147 0
 444 0024 9A81     		strh	r2, [r3, #12]	@ movhi
 445 0026 38BD     		pop	{r3, r4, r5, pc}
 446              	.L9:
 447              		.align	2
 448              	.L8:
 449 0028 00000000 		.word	servos
 450 002c 00040240 		.word	1073873920
 451              		.cfi_endproc
 452              	.LFE258:
 453              		.size	hw_setup_servo_outputs, .-hw_setup_servo_outputs
ARM GAS  /tmp/ccVOxwUj.s 			page 9


 454              		.section	.text.hw_start_i2c,"ax",%progbits
 455              		.align	2
 456              		.p2align 4,,15
 457              		.global	hw_start_i2c
 458              		.thumb
 459              		.thumb_func
 460              		.type	hw_start_i2c, %function
 461              	hw_start_i2c:
 462              	.LFB259:
 463              		.loc 1 150 0
 464              		.cfi_startproc
 465              		@ args = 0, pretend = 0, frame = 0
 466              		@ frame_needed = 0, uses_anonymous_args = 0
 467 0000 10B5     		push	{r4, lr}
 468              		.cfi_def_cfa_offset 8
 469              		.cfi_offset 4, -8
 470              		.cfi_offset 14, -4
 471              		.loc 1 153 0
 472 0002 0F4C     		ldr	r4, .L13
 473              		.loc 1 151 0
 474 0004 0F48     		ldr	r0, .L13+4
 475 0006 FFF7FEFF 		bl	i2cAcquireBus
 476              	.LVL47:
 477              		.loc 1 153 0
 478 000a 2378     		ldrb	r3, [r4]	@ zero_extendqisi2
 479 000c 9BB9     		cbnz	r3, .L11
 480              		.loc 1 154 0
 481 000e 0E48     		ldr	r0, .L13+8
 482 0010 4FF48061 		mov	r1, #1024
 483 0014 40F22E22 		movw	r2, #558
 484 0018 FFF7FEFF 		bl	_pal_lld_setgroupmode
 485              	.LVL48:
 486              		.loc 1 159 0
 487 001c 0A48     		ldr	r0, .L13+8
 488 001e 4FF40061 		mov	r1, #2048
 489 0022 40F22E22 		movw	r2, #558
 490 0026 FFF7FEFF 		bl	_pal_lld_setgroupmode
 491              	.LVL49:
 492              		.loc 1 165 0
 493 002a 0648     		ldr	r0, .L13+4
 494 002c 0749     		ldr	r1, .L13+12
 495 002e FFF7FEFF 		bl	i2cStart
 496              	.LVL50:
 497              		.loc 1 166 0
 498 0032 0123     		movs	r3, #1
 499 0034 2370     		strb	r3, [r4]
 500              	.L11:
 501              		.loc 1 169 0
 502 0036 0348     		ldr	r0, .L13+4
 503              		.loc 1 170 0
 504 0038 BDE81040 		pop	{r4, lr}
 505              		.loc 1 169 0
 506 003c FFF7FEBF 		b	i2cReleaseBus
 507              	.LVL51:
 508              	.L14:
 509              		.align	2
 510              	.L13:
ARM GAS  /tmp/ccVOxwUj.s 			page 10


 511 0040 00000000 		.word	.LANCHOR0
 512 0044 00000000 		.word	I2CD2
 513 0048 00040240 		.word	1073873920
 514 004c 00000000 		.word	.LANCHOR1
 515              		.cfi_endproc
 516              	.LFE259:
 517              		.size	hw_start_i2c, .-hw_start_i2c
 518              		.section	.text.hw_stop_i2c,"ax",%progbits
 519              		.align	2
 520              		.p2align 4,,15
 521              		.global	hw_stop_i2c
 522              		.thumb
 523              		.thumb_func
 524              		.type	hw_stop_i2c, %function
 525              	hw_stop_i2c:
 526              	.LFB260:
 527              		.loc 1 172 0
 528              		.cfi_startproc
 529              		@ args = 0, pretend = 0, frame = 0
 530              		@ frame_needed = 0, uses_anonymous_args = 0
 531 0000 10B5     		push	{r4, lr}
 532              		.cfi_def_cfa_offset 8
 533              		.cfi_offset 4, -8
 534              		.cfi_offset 14, -4
 535              		.loc 1 175 0
 536 0002 0E4C     		ldr	r4, .L20
 537              		.loc 1 173 0
 538 0004 0E48     		ldr	r0, .L20+4
 539 0006 FFF7FEFF 		bl	i2cAcquireBus
 540              	.LVL52:
 541              		.loc 1 175 0
 542 000a 2378     		ldrb	r3, [r4]	@ zero_extendqisi2
 543 000c 83B1     		cbz	r3, .L16
 544              		.loc 1 176 0
 545 000e 0D48     		ldr	r0, .L20+8
 546 0010 4FF48061 		mov	r1, #1024
 547 0014 0022     		movs	r2, #0
 548 0016 FFF7FEFF 		bl	_pal_lld_setgroupmode
 549              	.LVL53:
 550              		.loc 1 177 0
 551 001a 0A48     		ldr	r0, .L20+8
 552 001c 4FF40061 		mov	r1, #2048
 553 0020 0022     		movs	r2, #0
 554 0022 FFF7FEFF 		bl	_pal_lld_setgroupmode
 555              	.LVL54:
 556              		.loc 1 179 0
 557 0026 0648     		ldr	r0, .L20+4
 558 0028 FFF7FEFF 		bl	i2cStop
 559              	.LVL55:
 560              		.loc 1 180 0
 561 002c 0023     		movs	r3, #0
 562 002e 2370     		strb	r3, [r4]
 563              	.L16:
 564              		.loc 1 184 0
 565 0030 0348     		ldr	r0, .L20+4
 566              		.loc 1 185 0
 567 0032 BDE81040 		pop	{r4, lr}
ARM GAS  /tmp/ccVOxwUj.s 			page 11


 568              		.loc 1 184 0
 569 0036 FFF7FEBF 		b	i2cReleaseBus
 570              	.LVL56:
 571              	.L21:
 572 003a 00BF     		.align	2
 573              	.L20:
 574 003c 00000000 		.word	.LANCHOR0
 575 0040 00000000 		.word	I2CD2
 576 0044 00040240 		.word	1073873920
 577              		.cfi_endproc
 578              	.LFE260:
 579              		.size	hw_stop_i2c, .-hw_stop_i2c
 580 0048 AFF30080 		.section	.text.hw_try_restore_i2c,"ax",%progbits
 580      AFF30080 
 581              		.align	2
 582              		.p2align 4,,15
 583              		.global	hw_try_restore_i2c
 584              		.thumb
 585              		.thumb_func
 586              		.type	hw_try_restore_i2c, %function
 587              	hw_try_restore_i2c:
 588              	.LFB261:
 589              		.loc 1 190 0
 590              		.cfi_startproc
 591              		@ args = 0, pretend = 0, frame = 0
 592              		@ frame_needed = 0, uses_anonymous_args = 0
 593 0000 2DE9F843 		push	{r3, r4, r5, r6, r7, r8, r9, lr}
 594              		.cfi_def_cfa_offset 32
 595              		.cfi_offset 3, -32
 596              		.cfi_offset 4, -28
 597              		.cfi_offset 5, -24
 598              		.cfi_offset 6, -20
 599              		.cfi_offset 7, -16
 600              		.cfi_offset 8, -12
 601              		.cfi_offset 9, -8
 602              		.cfi_offset 14, -4
 603              		.loc 1 191 0
 604 0004 2B4B     		ldr	r3, .L27
 605 0006 1B78     		ldrb	r3, [r3]	@ zero_extendqisi2
 606 0008 0BB9     		cbnz	r3, .L26
 607 000a BDE8F883 		pop	{r3, r4, r5, r6, r7, r8, r9, pc}
 608              	.L26:
 609              		.loc 1 194 0
 610 000e 2A4D     		ldr	r5, .L27+4
 611              		.loc 1 192 0
 612 0010 2A48     		ldr	r0, .L27+8
 613 0012 FFF7FEFF 		bl	i2cAcquireBus
 614              	.LVL57:
 615              		.loc 1 194 0
 616 0016 2846     		mov	r0, r5
 617 0018 4FF48061 		mov	r1, #1024
 618 001c 2C22     		movs	r2, #44
 619 001e FFF7FEFF 		bl	_pal_lld_setgroupmode
 620              	.LVL58:
 621              		.loc 1 199 0
 622 0022 2846     		mov	r0, r5
 623 0024 4FF40061 		mov	r1, #2048
ARM GAS  /tmp/ccVOxwUj.s 			page 12


 624 0028 2C22     		movs	r2, #44
 625 002a FFF7FEFF 		bl	_pal_lld_setgroupmode
 626              	.LVL59:
 627              		.loc 1 204 0
 628 002e 4FF48068 		mov	r8, #1024
 629              		.loc 1 205 0
 630 0032 4FF40063 		mov	r3, #2048
 631              		.loc 1 204 0
 632 0036 A5F81880 		strh	r8, [r5, #24]	@ movhi
 633              		.loc 1 207 0
 634 003a 0120     		movs	r0, #1
 635              		.loc 1 205 0
 636 003c 2B83     		strh	r3, [r5, #24]	@ movhi
 637              		.loc 1 207 0
 638 003e FFF7FEFF 		bl	chThdSleep
 639              	.LVL60:
 640              	.LBB2:
 641              		.loc 1 210 0
 642 0042 C146     		mov	r9, r8	@ movhi
 643              	.LBE2:
 644              		.loc 1 207 0
 645 0044 1024     		movs	r4, #16
 646              	.LVL61:
 647              	.L25:
 648              	.LBB3:
 649              		.loc 1 211 0 discriminator 2
 650 0046 0120     		movs	r0, #1
 651              		.loc 1 210 0 discriminator 2
 652 0048 A5F81A90 		strh	r9, [r5, #26]	@ movhi
 653              		.loc 1 211 0 discriminator 2
 654 004c FFF7FEFF 		bl	chThdSleep
 655              	.LVL62:
 656              		.loc 1 212 0 discriminator 2
 657 0050 A5F81880 		strh	r8, [r5, #24]	@ movhi
 658              		.loc 1 213 0 discriminator 2
 659 0054 0120     		movs	r0, #1
 660 0056 FFF7FEFF 		bl	chThdSleep
 661              	.LVL63:
 662              		.loc 1 209 0 discriminator 2
 663 005a 013C     		subs	r4, r4, #1
 664              	.LVL64:
 665              		.loc 1 210 0 discriminator 2
 666 005c 164E     		ldr	r6, .L27+4
 667 005e 4FF48067 		mov	r7, #1024
 668              		.loc 1 209 0 discriminator 2
 669 0062 F0D1     		bne	.L25
 670              	.LBE3:
 671              		.loc 1 217 0
 672 0064 4FF40065 		mov	r5, #2048
 673 0068 7583     		strh	r5, [r6, #26]	@ movhi
 674              		.loc 1 218 0
 675 006a 0120     		movs	r0, #1
 676 006c FFF7FEFF 		bl	chThdSleep
 677              	.LVL65:
 678              		.loc 1 219 0
 679 0070 7783     		strh	r7, [r6, #26]	@ movhi
 680              		.loc 1 220 0
ARM GAS  /tmp/ccVOxwUj.s 			page 13


 681 0072 0120     		movs	r0, #1
 682 0074 FFF7FEFF 		bl	chThdSleep
 683              	.LVL66:
 684              		.loc 1 221 0
 685 0078 3783     		strh	r7, [r6, #24]	@ movhi
 686              		.loc 1 222 0
 687 007a 0120     		movs	r0, #1
 688 007c FFF7FEFF 		bl	chThdSleep
 689              	.LVL67:
 690              		.loc 1 237 0
 691 0080 0E4C     		ldr	r4, .L27+8
 692              	.LVL68:
 693              		.loc 1 223 0
 694 0082 3583     		strh	r5, [r6, #24]	@ movhi
 695              		.loc 1 225 0
 696 0084 3946     		mov	r1, r7
 697 0086 3046     		mov	r0, r6
 698 0088 40F22E22 		movw	r2, #558
 699 008c FFF7FEFF 		bl	_pal_lld_setgroupmode
 700              	.LVL69:
 701              		.loc 1 231 0
 702 0090 3046     		mov	r0, r6
 703 0092 2946     		mov	r1, r5
 704 0094 40F22E22 		movw	r2, #558
 705 0098 FFF7FEFF 		bl	_pal_lld_setgroupmode
 706              	.LVL70:
 707              		.loc 1 237 0
 708 009c 0123     		movs	r3, #1
 709              		.loc 1 238 0
 710 009e 2046     		mov	r0, r4
 711 00a0 0749     		ldr	r1, .L27+12
 712              		.loc 1 237 0
 713 00a2 2370     		strb	r3, [r4]
 714              		.loc 1 238 0
 715 00a4 FFF7FEFF 		bl	i2cStart
 716              	.LVL71:
 717              		.loc 1 240 0
 718 00a8 2046     		mov	r0, r4
 719              		.loc 1 242 0
 720 00aa BDE8F843 		pop	{r3, r4, r5, r6, r7, r8, r9, lr}
 721              		.loc 1 240 0
 722 00ae FFF7FEBF 		b	i2cReleaseBus
 723              	.LVL72:
 724              	.L28:
 725 00b2 00BF     		.align	2
 726              	.L27:
 727 00b4 00000000 		.word	.LANCHOR0
 728 00b8 00040240 		.word	1073873920
 729 00bc 00000000 		.word	I2CD2
 730 00c0 00000000 		.word	.LANCHOR1
 731              		.cfi_endproc
 732              	.LFE261:
 733              		.size	hw_try_restore_i2c, .-hw_try_restore_i2c
 734 00c4 AFF30080 		.section	.bss.i2c_running,"aw",%nobits
 734      AFF30080 
 734      AFF30080 
 735              		.set	.LANCHOR0,. + 0
ARM GAS  /tmp/ccVOxwUj.s 			page 14


 736              		.type	i2c_running, %object
 737              		.size	i2c_running, 1
 738              	i2c_running:
 739 0000 00       		.space	1
 740              		.section	.rodata.i2cfg,"a",%progbits
 741              		.align	2
 742              		.set	.LANCHOR1,. + 0
 743              		.type	i2cfg, %object
 744              		.size	i2cfg, 12
 745              	i2cfg:
 746 0000 01       		.byte	1
 747 0001 000000   		.space	3
 748 0004 A0860100 		.word	100000
 749 0008 01       		.byte	1
 750 0009 000000   		.space	3
 751              		.text
 752              	.Letext0:
 753              		.file 2 "/usr/include/newlib/machine/_default_types.h"
 754              		.file 3 "/usr/include/newlib/stdint.h"
 755              		.file 4 "/usr/lib/gcc/arm-none-eabi/4.8/include/stddef.h"
 756              		.file 5 "ChibiOS_3.0.2/os/rt/ports/ARMCMx/compilers/GCC/chtypes.h"
 757              		.file 6 "ChibiOS_3.0.2/os/rt/include/chsystypes.h"
 758              		.file 7 "ChibiOS_3.0.2/os/rt/include/chschd.h"
 759              		.file 8 "ChibiOS_3.0.2/os/ext/CMSIS/ST/stm32f407xx.h"
 760              		.file 9 "ChibiOS_3.0.2/os/ext/CMSIS/ST/stm32f4xx.h"
 761              		.file 10 "ChibiOS_3.0.2/os/rt/ports/ARMCMx/chcore.h"
 762              		.file 11 "ChibiOS_3.0.2/os/rt/ports/ARMCMx/chcore_v7m.h"
 763              		.file 12 "ChibiOS_3.0.2/os/rt/include/chtm.h"
 764              		.file 13 "ChibiOS_3.0.2/os/rt/include/chsem.h"
 765              		.file 14 "ChibiOS_3.0.2/os/rt/include/chmtx.h"
 766              		.file 15 "ChibiOS_3.0.2/os/hal/ports/STM32/STM32F4xx/stm32_dma.h"
 767              		.file 16 "ChibiOS_3.0.2/os/hal/ports/STM32/LLD/GPIOv2/pal_lld.h"
 768              		.file 17 "ChibiOS_3.0.2/os/hal/include/i2c.h"
 769              		.file 18 "ChibiOS_3.0.2/os/hal/ports/STM32/LLD/I2Cv1/i2c_lld.h"
 770              		.file 19 "./servo.h"
 771              		.file 20 "ChibiOS_3.0.2/os/ext/CMSIS/include/core_cm4.h"
 772              		.file 21 "ChibiOS_3.0.2/ext/stdperiph_stm32f4/inc/stm32f4xx_rcc.h"
 773              		.file 22 "ChibiOS_3.0.2/ext/stdperiph_stm32f4/inc/stm32f4xx_adc.h"
 774              		.file 23 "ChibiOS_3.0.2/os/rt/include/chthreads.h"