ARM GAS  /tmp/ccVOxwUj.s 			page 1


   1              		.syntax unified
   2              		.cpu cortex-m4
   3              		.eabi_attribute 27, 3
   4              		.eabi_attribute 28, 1
   5              		.fpu fpv4-sp-d16
   6              		.eabi_attribute 20, 1
   7              		.eabi_attribute 21, 1
   8              		.eabi_attribute 23, 3
   9              		.eabi_attribute 24, 1
  10              		.eabi_attribute 25, 1
  11              		.eabi_attribute 26, 1
  12              		.eabi_attribute 30, 2
  13              		.eabi_attribute 34, 1
  14              		.eabi_attribute 18, 4
  15              		.thumb
  16              		.file	"hw_410.c"
  17              		.text
  18              	.Ltext0:
  19              		.cfi_sections	.debug_frame
  20              		.section	.text.hw_init_gpio,"ax",%progbits
  21              		.align	2
  22              		.p2align 4,,15
  23              		.global	hw_init_gpio
  24              		.thumb
  25              		.thumb_func
  26              		.type	hw_init_gpio, %function
  27              	hw_init_gpio:
  28              	.LFB256:
  29              		.file 1 "hwconf/hw_410.c"
  30              		.loc 1 36 0
  31              		.cfi_startproc
  32              		@ args = 0, pretend = 0, frame = 0
  33              		@ frame_needed = 0, uses_anonymous_args = 0
  34              		.loc 1 38 0
  35 0000 0120     		movs	r0, #1
  36              		.loc 1 36 0
  37 0002 F8B5     		push	{r3, r4, r5, r6, r7, lr}
  38              		.cfi_def_cfa_offset 24
  39              		.cfi_offset 3, -24
  40              		.cfi_offset 4, -20
  41              		.cfi_offset 5, -16
  42              		.cfi_offset 6, -12
  43              		.cfi_offset 7, -8
  44              		.cfi_offset 14, -4
  45              		.loc 1 38 0
  46 0004 0146     		mov	r1, r0
  47              		.loc 1 43 0
  48 0006 504C     		ldr	r4, .L2
  49              		.loc 1 57 0
  50 0008 504E     		ldr	r6, .L2+4
  51              		.loc 1 62 0
  52 000a 514D     		ldr	r5, .L2+8
  53              		.loc 1 38 0
  54 000c FFF7FEFF 		bl	RCC_AHB1PeriphClockCmd
  55              	.LVL0:
  56              		.loc 1 39 0
  57 0010 0220     		movs	r0, #2
ARM GAS  /tmp/ccVOxwUj.s 			page 2


  58 0012 0121     		movs	r1, #1
  59 0014 FFF7FEFF 		bl	RCC_AHB1PeriphClockCmd
  60              	.LVL1:
  61              		.loc 1 40 0
  62 0018 0420     		movs	r0, #4
  63 001a 0121     		movs	r1, #1
  64 001c FFF7FEFF 		bl	RCC_AHB1PeriphClockCmd
  65              	.LVL2:
  66              		.loc 1 43 0
  67 0020 2046     		mov	r0, r4
  68 0022 1021     		movs	r1, #16
  69 0024 1922     		movs	r2, #25
  70 0026 FFF7FEFF 		bl	_pal_lld_setgroupmode
  71              	.LVL3:
  72              		.loc 1 46 0
  73 002a 2046     		mov	r0, r4
  74 002c 2021     		movs	r1, #32
  75 002e 1922     		movs	r2, #25
  76 0030 FFF7FEFF 		bl	_pal_lld_setgroupmode
  77              	.LVL4:
  78              		.loc 1 51 0
  79 0034 4FF48061 		mov	r1, #1024
  80              		.loc 1 54 0
  81 0038 0F46     		mov	r7, r1
  82              		.loc 1 51 0
  83 003a 2046     		mov	r0, r4
  84 003c 1922     		movs	r2, #25
  85 003e FFF7FEFF 		bl	_pal_lld_setgroupmode
  86              	.LVL5:
  87              		.loc 1 57 0
  88 0042 3046     		mov	r0, r6
  89              		.loc 1 54 0
  90 0044 6783     		strh	r7, [r4, #26]	@ movhi
  91              		.loc 1 57 0
  92 0046 4FF48051 		mov	r1, #4096
  93 004a 1922     		movs	r2, #25
  94 004c FFF7FEFF 		bl	_pal_lld_setgroupmode
  95              	.LVL6:
  96              		.loc 1 62 0
  97 0050 2846     		mov	r0, r5
  98 0052 4FF48071 		mov	r1, #256
  99 0056 9A22     		movs	r2, #154
 100 0058 FFF7FEFF 		bl	_pal_lld_setgroupmode
 101              	.LVL7:
 102              		.loc 1 65 0
 103 005c 2846     		mov	r0, r5
 104 005e 4FF40071 		mov	r1, #512
 105 0062 9A22     		movs	r2, #154
 106 0064 FFF7FEFF 		bl	_pal_lld_setgroupmode
 107              	.LVL8:
 108              		.loc 1 68 0
 109 0068 2846     		mov	r0, r5
 110 006a 3946     		mov	r1, r7
 111 006c 9A22     		movs	r2, #154
 112 006e FFF7FEFF 		bl	_pal_lld_setgroupmode
 113              	.LVL9:
 114              		.loc 1 72 0
ARM GAS  /tmp/ccVOxwUj.s 			page 3


 115 0072 3046     		mov	r0, r6
 116 0074 4FF40051 		mov	r1, #8192
 117 0078 9A22     		movs	r2, #154
 118 007a FFF7FEFF 		bl	_pal_lld_setgroupmode
 119              	.LVL10:
 120              		.loc 1 75 0
 121 007e 3046     		mov	r0, r6
 122 0080 4FF48041 		mov	r1, #16384
 123 0084 9A22     		movs	r2, #154
 124 0086 FFF7FEFF 		bl	_pal_lld_setgroupmode
 125              	.LVL11:
 126              		.loc 1 78 0
 127 008a 3046     		mov	r0, r6
 128 008c 4FF40041 		mov	r1, #32768
 129 0090 9A22     		movs	r2, #154
 130 0092 FFF7FEFF 		bl	_pal_lld_setgroupmode
 131              	.LVL12:
 132              		.loc 1 83 0
 133 0096 3046     		mov	r0, r6
 134 0098 4021     		movs	r1, #64
 135 009a 2022     		movs	r2, #32
 136 009c FFF7FEFF 		bl	_pal_lld_setgroupmode
 137              	.LVL13:
 138              		.loc 1 84 0
 139 00a0 3046     		mov	r0, r6
 140 00a2 8021     		movs	r1, #128
 141 00a4 2022     		movs	r2, #32
 142 00a6 FFF7FEFF 		bl	_pal_lld_setgroupmode
 143              	.LVL14:
 144              		.loc 1 85 0
 145 00aa 2046     		mov	r0, r4
 146 00ac 4FF40061 		mov	r1, #2048
 147 00b0 2022     		movs	r2, #32
 148 00b2 FFF7FEFF 		bl	_pal_lld_setgroupmode
 149              	.LVL15:
 150              		.loc 1 88 0
 151 00b6 2046     		mov	r0, r4
 152 00b8 4FF48051 		mov	r1, #4096
 153 00bc 2022     		movs	r2, #32
 154 00be FFF7FEFF 		bl	_pal_lld_setgroupmode
 155              	.LVL16:
 156              		.loc 1 91 0
 157 00c2 2846     		mov	r0, r5
 158 00c4 0121     		movs	r1, #1
 159 00c6 0322     		movs	r2, #3
 160 00c8 FFF7FEFF 		bl	_pal_lld_setgroupmode
 161              	.LVL17:
 162              		.loc 1 92 0
 163 00cc 2846     		mov	r0, r5
 164 00ce 0221     		movs	r1, #2
 165 00d0 0322     		movs	r2, #3
 166 00d2 FFF7FEFF 		bl	_pal_lld_setgroupmode
 167              	.LVL18:
 168              		.loc 1 93 0
 169 00d6 2846     		mov	r0, r5
 170 00d8 0421     		movs	r1, #4
 171 00da 0322     		movs	r2, #3
ARM GAS  /tmp/ccVOxwUj.s 			page 4


 172 00dc FFF7FEFF 		bl	_pal_lld_setgroupmode
 173              	.LVL19:
 174              		.loc 1 94 0
 175 00e0 2846     		mov	r0, r5
 176 00e2 0821     		movs	r1, #8
 177 00e4 0322     		movs	r2, #3
 178 00e6 FFF7FEFF 		bl	_pal_lld_setgroupmode
 179              	.LVL20:
 180              		.loc 1 95 0
 181 00ea 2846     		mov	r0, r5
 182 00ec 1021     		movs	r1, #16
 183 00ee 0322     		movs	r2, #3
 184 00f0 FFF7FEFF 		bl	_pal_lld_setgroupmode
 185              	.LVL21:
 186              		.loc 1 96 0
 187 00f4 2846     		mov	r0, r5
 188 00f6 2021     		movs	r1, #32
 189 00f8 0322     		movs	r2, #3
 190 00fa FFF7FEFF 		bl	_pal_lld_setgroupmode
 191              	.LVL22:
 192              		.loc 1 97 0
 193 00fe 2846     		mov	r0, r5
 194 0100 4021     		movs	r1, #64
 195 0102 0322     		movs	r2, #3
 196 0104 FFF7FEFF 		bl	_pal_lld_setgroupmode
 197              	.LVL23:
 198              		.loc 1 99 0
 199 0108 3046     		mov	r0, r6
 200 010a 0121     		movs	r1, #1
 201 010c 0322     		movs	r2, #3
 202 010e FFF7FEFF 		bl	_pal_lld_setgroupmode
 203              	.LVL24:
 204              		.loc 1 100 0
 205 0112 3046     		mov	r0, r6
 206 0114 0221     		movs	r1, #2
 207 0116 0322     		movs	r2, #3
 208 0118 FFF7FEFF 		bl	_pal_lld_setgroupmode
 209              	.LVL25:
 210              		.loc 1 102 0
 211 011c 2046     		mov	r0, r4
 212 011e 0121     		movs	r1, #1
 213 0120 0322     		movs	r2, #3
 214 0122 FFF7FEFF 		bl	_pal_lld_setgroupmode
 215              	.LVL26:
 216              		.loc 1 103 0
 217 0126 2046     		mov	r0, r4
 218 0128 0221     		movs	r1, #2
 219 012a 0322     		movs	r2, #3
 220 012c FFF7FEFF 		bl	_pal_lld_setgroupmode
 221              	.LVL27:
 222              		.loc 1 104 0
 223 0130 2046     		mov	r0, r4
 224 0132 0421     		movs	r1, #4
 225 0134 0322     		movs	r2, #3
 226 0136 FFF7FEFF 		bl	_pal_lld_setgroupmode
 227              	.LVL28:
 228              		.loc 1 105 0
ARM GAS  /tmp/ccVOxwUj.s 			page 5


 229 013a 2046     		mov	r0, r4
 230 013c 0821     		movs	r1, #8
 231 013e 0322     		movs	r2, #3
 232              		.loc 1 106 0
 233 0140 BDE8F840 		pop	{r3, r4, r5, r6, r7, lr}
 234              		.loc 1 105 0
 235 0144 FFF7FEBF 		b	_pal_lld_setgroupmode
 236              	.LVL29:
 237              	.L3:
 238              		.align	2
 239              	.L2:
 240 0148 00080240 		.word	1073874944
 241 014c 00040240 		.word	1073873920
 242 0150 00000240 		.word	1073872896
 243              		.cfi_endproc
 244              	.LFE256:
 245              		.size	hw_init_gpio, .-hw_init_gpio
 246 0154 AFF30080 		.section	.text.hw_setup_adc_channels,"ax",%progbits
 246      AFF30080 
 246      AFF30080 
 247              		.align	2
 248              		.p2align 4,,15
 249              		.global	hw_setup_adc_channels
 250              		.thumb
 251              		.thumb_func
 252              		.type	hw_setup_adc_channels, %function
 253              	hw_setup_adc_channels:
 254              	.LFB257:
 255              		.loc 1 108 0
 256              		.cfi_startproc
 257              		@ args = 0, pretend = 0, frame = 0
 258              		@ frame_needed = 0, uses_anonymous_args = 0
 259 0000 70B5     		push	{r4, r5, r6, lr}
 260              		.cfi_def_cfa_offset 16
 261              		.cfi_offset 4, -16
 262              		.cfi_offset 5, -12
 263              		.cfi_offset 6, -8
 264              		.cfi_offset 14, -4
 265              		.loc 1 110 0
 266 0002 324D     		ldr	r5, .L5
 267              		.loc 1 116 0
 268 0004 324C     		ldr	r4, .L5+4
 269              		.loc 1 122 0
 270 0006 334E     		ldr	r6, .L5+8
 271              		.loc 1 110 0
 272 0008 0122     		movs	r2, #1
 273 000a 2846     		mov	r0, r5
 274 000c 1346     		mov	r3, r2
 275 000e 0021     		movs	r1, #0
 276 0010 FFF7FEFF 		bl	ADC_RegularChannelConfig
 277              	.LVL30:
 278              		.loc 1 111 0
 279 0014 2846     		mov	r0, r5
 280 0016 0821     		movs	r1, #8
 281 0018 0222     		movs	r2, #2
 282 001a 0123     		movs	r3, #1
 283 001c FFF7FEFF 		bl	ADC_RegularChannelConfig
ARM GAS  /tmp/ccVOxwUj.s 			page 6


 284              	.LVL31:
 285              		.loc 1 112 0
 286 0020 2846     		mov	r0, r5
 287 0022 1121     		movs	r1, #17
 288 0024 0322     		movs	r2, #3
 289 0026 0123     		movs	r3, #1
 290 0028 FFF7FEFF 		bl	ADC_RegularChannelConfig
 291              	.LVL32:
 292              		.loc 1 113 0
 293 002c 0421     		movs	r1, #4
 294 002e 2846     		mov	r0, r5
 295 0030 0A46     		mov	r2, r1
 296 0032 0123     		movs	r3, #1
 297 0034 FFF7FEFF 		bl	ADC_RegularChannelConfig
 298              	.LVL33:
 299              		.loc 1 116 0
 300 0038 0121     		movs	r1, #1
 301 003a 2046     		mov	r0, r4
 302 003c 0A46     		mov	r2, r1
 303 003e 0B46     		mov	r3, r1
 304 0040 FFF7FEFF 		bl	ADC_RegularChannelConfig
 305              	.LVL34:
 306              		.loc 1 117 0
 307 0044 2046     		mov	r0, r4
 308 0046 0921     		movs	r1, #9
 309 0048 0222     		movs	r2, #2
 310 004a 0123     		movs	r3, #1
 311 004c FFF7FEFF 		bl	ADC_RegularChannelConfig
 312              	.LVL35:
 313              		.loc 1 118 0
 314 0050 2046     		mov	r0, r4
 315 0052 0621     		movs	r1, #6
 316 0054 0322     		movs	r2, #3
 317 0056 0123     		movs	r3, #1
 318 0058 FFF7FEFF 		bl	ADC_RegularChannelConfig
 319              	.LVL36:
 320              		.loc 1 119 0
 321 005c 2046     		mov	r0, r4
 322 005e 0521     		movs	r1, #5
 323 0060 0422     		movs	r2, #4
 324 0062 0123     		movs	r3, #1
 325 0064 FFF7FEFF 		bl	ADC_RegularChannelConfig
 326              	.LVL37:
 327              		.loc 1 122 0
 328 0068 0122     		movs	r2, #1
 329 006a 3046     		mov	r0, r6
 330 006c 1346     		mov	r3, r2
 331 006e 0221     		movs	r1, #2
 332 0070 FFF7FEFF 		bl	ADC_RegularChannelConfig
 333              	.LVL38:
 334              		.loc 1 123 0
 335 0074 3046     		mov	r0, r6
 336 0076 0321     		movs	r1, #3
 337 0078 0222     		movs	r2, #2
 338 007a 0123     		movs	r3, #1
 339 007c FFF7FEFF 		bl	ADC_RegularChannelConfig
 340              	.LVL39:
ARM GAS  /tmp/ccVOxwUj.s 			page 7


 341              		.loc 1 124 0
 342 0080 3046     		mov	r0, r6
 343 0082 0C21     		movs	r1, #12
 344 0084 0322     		movs	r2, #3
 345 0086 0123     		movs	r3, #1
 346 0088 FFF7FEFF 		bl	ADC_RegularChannelConfig
 347              	.LVL40:
 348              		.loc 1 125 0
 349 008c 3046     		mov	r0, r6
 350 008e 0A21     		movs	r1, #10
 351 0090 0422     		movs	r2, #4
 352 0092 0123     		movs	r3, #1
 353 0094 FFF7FEFF 		bl	ADC_RegularChannelConfig
 354              	.LVL41:
 355              		.loc 1 128 0
 356 0098 0122     		movs	r2, #1
 357 009a 2846     		mov	r0, r5
 358 009c 1346     		mov	r3, r2
 359 009e 0921     		movs	r1, #9
 360 00a0 FFF7FEFF 		bl	ADC_InjectedChannelConfig
 361              	.LVL42:
 362              		.loc 1 129 0
 363 00a4 2846     		mov	r0, r5
 364 00a6 0821     		movs	r1, #8
 365 00a8 0222     		movs	r2, #2
 366 00aa 0123     		movs	r3, #1
 367 00ac FFF7FEFF 		bl	ADC_InjectedChannelConfig
 368              	.LVL43:
 369              		.loc 1 130 0
 370 00b0 0122     		movs	r2, #1
 371 00b2 2046     		mov	r0, r4
 372 00b4 1346     		mov	r3, r2
 373 00b6 0821     		movs	r1, #8
 374 00b8 FFF7FEFF 		bl	ADC_InjectedChannelConfig
 375              	.LVL44:
 376              		.loc 1 131 0
 377 00bc 2046     		mov	r0, r4
 378 00be 0921     		movs	r1, #9
 379 00c0 0222     		movs	r2, #2
 380 00c2 0123     		movs	r3, #1
 381              		.loc 1 132 0
 382 00c4 BDE87040 		pop	{r4, r5, r6, lr}
 383              		.loc 1 131 0
 384 00c8 FFF7FEBF 		b	ADC_InjectedChannelConfig
 385              	.LVL45:
 386              	.L6:
 387              		.align	2
 388              	.L5:
 389 00cc 00200140 		.word	1073815552
 390 00d0 00210140 		.word	1073815808
 391 00d4 00220140 		.word	1073816064
 392              		.cfi_endproc
 393              	.LFE257:
 394              		.size	hw_setup_adc_channels, .-hw_setup_adc_channels
 395 00d8 AFF30080 		.section	.text.hw_setup_servo_outputs,"ax",%progbits
 395      AFF30080 
 396              		.align	2
ARM GAS  /tmp/ccVOxwUj.s 			page 8


 397              		.p2align 4,,15
 398              		.global	hw_setup_servo_outputs
 399              		.thumb
 400              		.thumb_func
 401              		.type	hw_setup_servo_outputs, %function
 402              	hw_setup_servo_outputs:
 403              	.LFB258:
 404              		.loc 1 134 0
 405              		.cfi_startproc
 406              		@ args = 0, pretend = 0, frame = 0
 407              		@ frame_needed = 0, uses_anonymous_args = 0
 408 0000 38B5     		push	{r3, r4, r5, lr}
 409              		.cfi_def_cfa_offset 16
 410              		.cfi_offset 3, -16
 411              		.cfi_offset 4, -12
 412              		.cfi_offset 5, -8
 413              		.cfi_offset 14, -4
 414              		.loc 1 136 0
 415 0002 0220     		movs	r0, #2
 416 0004 0121     		movs	r1, #1
 417 0006 FFF7FEFF 		bl	RCC_AHB1PeriphClockCmd
 418              	.LVL46:
 419              		.loc 1 139 0
 420 000a 074B     		ldr	r3, .L8
 421 000c 0749     		ldr	r1, .L8+4
 422 000e 5960     		str	r1, [r3, #4]
 423              		.loc 1 141 0
 424 0010 0022     		movs	r2, #0
 425              		.loc 1 140 0
 426 0012 0525     		movs	r5, #5
 427              		.loc 1 142 0
 428 0014 8024     		movs	r4, #128
 429              		.loc 1 145 0
 430 0016 0420     		movs	r0, #4
 431              		.loc 1 140 0
 432 0018 9D60     		str	r5, [r3, #8]
 433              		.loc 1 141 0
 434 001a 9A70     		strb	r2, [r3, #2]
 435              		.loc 1 142 0
 436 001c 1C80     		strh	r4, [r3]	@ movhi
 437              		.loc 1 144 0
 438 001e 1961     		str	r1, [r3, #16]
 439              		.loc 1 145 0
 440 0020 5861     		str	r0, [r3, #20]
 441              		.loc 1 146 0
 442 0022 9A73     		strb	r2, [r3, #14]
 443              		.loc 1 147 0
 444 0024 9A81     		strh	r2, [r3, #12]	@ movhi
 445 0026 38BD     		pop	{r3, r4, r5, pc}
 446              	.L9:
 447              		.align	2
 448              	.L8:
 449 0028 00000000 		.word	servos
 450 002c 00040240 		.word	1073873920
 451              		.cfi_endproc
 452              	.LFE258:
 453              		.size	hw_setup_servo_outputs, .-hw_setup_servo_outputs
ARM GAS  /tmp/ccVOxwUj.s 			page 9


 454              		.section	.text.hw_start_i2c,"ax",%progbits
 455              		.align	2
 456              		.p2align 4,,15
 457              		.global	hw_start_i2c
 458              		.thumb
 459              		.thumb_func
 460              		.type	hw_start_i2c, %function
 461              	hw_start_i2c:
 462              	.LFB259:
 463              		.loc 1 150 0
 464              		.cfi_startproc
 465              		@ args = 0, pretend = 0, frame = 0
 466              		@ frame_needed = 0, uses_anonymous_args = 0
 467 0000 10B5     		push	{r4, lr}
 468              		.cfi_def_cfa_offset 8
 469              		.cfi_offset 4, -8
 470              		.cfi_offset 14, -4
 471              		.loc 1 153 0
 472 0002 0F4C     		ldr	r4, .L13
 473              		.loc 1 151 0
 474 0004 0F48     		ldr	r0, .L13+4
 475 0006 FFF7FEFF 		bl	i2cAcquireBus
 476              	.LVL47:
 477              		.loc 1 153 0
 478 000a 2378     		ldrb	r3, [r4]	@ zero_extendqisi2
 479 000c 9BB9     		cbnz	r3, .L11
 480              		.loc 1 154 0
 481 000e 0E48     		ldr	r0, .L13+8
 482 0010 4FF48061 		mov	r1, #1024
 483 0014 40F22E22 		movw	r2, #558
 484 0018 FFF7FEFF 		bl	_pal_lld_setgroupmode
 485              	.LVL48:
 486              		.loc 1 159 0
 487 001c 0A48     		ldr	r0, .L13+8
 488 001e 4FF40061 		mov	r1, #2048
 489 0022 40F22E22 		movw	r2, #558
 490 0026 FFF7FEFF 		bl	_pal_lld_setgroupmode
 491              	.LVL49:
 492              		.loc 1 165 0
 493 002a 0648     		ldr	r0, .L13+4
 494 002c 0749     		ldr	r1, .L13+12
 495 002e FFF7FEFF 		bl	i2cStart
 496              	.LVL50:
 497              		.loc 1 166 0
 498 0032 0123     		movs	r3, #1
 499 0034 2370     		strb	r3, [r4]
 500              	.L11:
 501              		.loc 1 169 0
 502 0036 0348     		ldr	r0, .L13+4
 503              		.loc 1 170 0
 504 0038 BDE81040 		pop	{r4, lr}
 505              		.loc 1 169 0
 506 003c FFF7FEBF 		b	i2cReleaseBus
 507              	.LVL51:
 508              	.L14:
 509              		.align	2
 510              	.L13:
ARM GAS  /tmp/ccVOxwUj.s 			page 10


 511 0040 00000000 		.word	.LANCHOR0
 512 0044 00000000 		.word	I2CD2
 513 0048 00040240 		.word	1073873920
 514 004c 00000000 		.word	.LANCHOR1
 515              		.cfi_endproc
 516              	.LFE259:
 517              		.size	hw_start_i2c, .-hw_start_i2c
 518              		.section	.text.hw_stop_i2c,"ax",%progbits
 519              		.align	2
 520              		.p2align 4,,15
 521              		.global	hw_stop_i2c
 522              		.thumb
 523              		.thumb_func
 524              		.type	hw_stop_i2c, %function
 525              	hw_stop_i2c:
 526              	.LFB260:
 527              		.loc 1 172 0
 528              		.cfi_startproc
 529              		@ args = 0, pretend = 0, frame = 0
 530              		@ frame_needed = 0, uses_anonymous_args = 0
 531 0000 10B5     		push	{r4, lr}
 532              		.cfi_def_cfa_offset 8
 533              		.cfi_offset 4, -8
 534              		.cfi_offset 14, -4
 535              		.loc 1 175 0
 536 0002 0E4C     		ldr	r4, .L20
 537              		.loc 1 173 0
 538 0004 0E48     		ldr	r0, .L20+4
 539 0006 FFF7FEFF 		bl	i2cAcquireBus
 540              	.LVL52:
 541              		.loc 1 175 0
 542 000a 2378     		ldrb	r3, [r4]	@ zero_extendqisi2
 543 000c 83B1     		cbz	r3, .L16
 544              		.loc 1 176 0
 545 000e 0D48     		ldr	r0, .L20+8
 546 0010 4FF48061 		mov	r1, #1024
 547 0014 0022     		movs	r2, #0
 548 0016 FFF7FEFF 		bl	_pal_lld_setgroupmode
 549              	.LVL53:
 550              		.loc 1 177 0
 551 001a 0A48     		ldr	r0, .L20+8
 552 001c 4FF40061 		mov	r1, #2048
 553 0020 0022     		movs	r2, #0
 554 0022 FFF7FEFF 		bl	_pal_lld_setgroupmode
 555              	.LVL54:
 556              		.loc 1 179 0
 557 0026 0648     		ldr	r0, .L20+4
 558 0028 FFF7FEFF 		bl	i2cStop
 559              	.LVL55:
 560              		.loc 1 180 0
 561 002c 0023     		movs	r3, #0
 562 002e 2370     		strb	r3, [r4]
 563              	.L16:
 564              		.loc 1 184 0
 565 0030 0348     		ldr	r0, .L20+4
 566              		.loc 1 185 0
 567 0032 BDE81040 		pop	{r4, lr}
ARM GAS  /tmp/ccVOxwUj.s 			page 11


 568              		.loc 1 184 0
 569 0036 FFF7FEBF 		b	i2cReleaseBus
 570              	.LVL56:
 571              	.L21:
 572 003a 00BF     		.align	2
 573              	.L20:
 574 003c 00000000 		.word	.LANCHOR0
 575 0040 00000000 		.word	I2CD2
 576 0044 00040240 		.word	1073873920
 577              		.cfi_endproc
 578              	.LFE260:
 579              		.size	hw_stop_i2c, .-hw_stop_i2c
 580 0048 AFF30080 		.section	.text.hw_try_restore_i2c,"ax",%progbits
 580      AFF30080 
 581              		.align	2
 582              		.p2align 4,,15
 583              		.global	hw_try_restore_i2c
 584              		.thumb
 585              		.thumb_func
 586              		.type	hw_try_restore_i2c, %function
 587              	hw_try_restore_i2c:
 588              	.LFB261:
 589              		.loc 1 190 0
 590              		.cfi_startproc
 591              		@ args = 0, pretend = 0, frame = 0
 592              		@ frame_needed = 0, uses_anonymous_args = 0
 593 0000 2DE9F843 		push	{r3, r4, r5, r6, r7, r8, r9, lr}
 594              		.cfi_def_cfa_offset 32
 595              		.cfi_offset 3, -32
 596              		.cfi_offset 4, -28
 597              		.cfi_offset 5, -24
 598              		.cfi_offset 6, -20
 599              		.cfi_offset 7, -16
 600              		.cfi_offset 8, -12
 601              		.cfi_offset 9, -8
 602              		.cfi_offset 14, -4
 603              		.loc 1 191 0
 604 0004 2B4B     		ldr	r3, .L27
 605 0006 1B78     		ldrb	r3, [r3]	@ zero_extendqisi2
 606 0008 0BB9     		cbnz	r3, .L26
 607 000a BDE8F883 		pop	{r3, r4, r5, r6, r7, r8, r9, pc}
 608              	.L26:
 609              		.loc 1 194 0
 610 000e 2A4D     		ldr	r5, .L27+4
 611              		.loc 1 192 0
 612 0010 2A48     		ldr	r0, .L27+8
 613 0012 FFF7FEFF 		bl	i2cAcquireBus
 614              	.LVL57:
 615              		.loc 1 194 0
 616 0016 2846     		mov	r0, r5
 617 0018 4FF48061 		mov	r1, #1024
 618 001c 2C22     		movs	r2, #44
 619 001e FFF7FEFF 		bl	_pal_lld_setgroupmode
 620              	.LVL58:
 621              		.loc 1 199 0
 622 0022 2846     		mov	r0, r5
 623 0024 4FF40061 		mov	r1, #2048
ARM GAS  /tmp/ccVOxwUj.s 			page 12


 624 0028 2C22     		movs	r2, #44
 625 002a FFF7FEFF 		bl	_pal_lld_setgroupmode
 626              	.LVL59:
 627              		.loc 1 204 0
 628 002e 4FF48068 		mov	r8, #1024
 629              		.loc 1 205 0
 630 0032 4FF40063 		mov	r3, #2048
 631              		.loc 1 204 0
 632 0036 A5F81880 		strh	r8, [r5, #24]	@ movhi
 633              		.loc 1 207 0
 634 003a 0120     		movs	r0, #1
 635              		.loc 1 205 0
 636 003c 2B83     		strh	r3, [r5, #24]	@ movhi
 637              		.loc 1 207 0
 638 003e FFF7FEFF 		bl	chThdSleep
 639              	.LVL60:
 640              	.LBB2:
 641              		.loc 1 210 0
 642 0042 C146     		mov	r9, r8	@ movhi
 643              	.LBE2:
 644              		.loc 1 207 0
 645 0044 1024     		movs	r4, #16
 646              	.LVL61:
 647              	.L25:
 648              	.LBB3:
 649              		.loc 1 211 0 discriminator 2
 650 0046 0120     		movs	r0, #1
 651              		.loc 1 210 0 discriminator 2
 652 0048 A5F81A90 		strh	r9, [r5, #26]	@ movhi
 653              		.loc 1 211 0 discriminator 2
 654 004c FFF7FEFF 		bl	chThdSleep
 655              	.LVL62:
 656              		.loc 1 212 0 discriminator 2
 657 0050 A5F81880 		strh	r8, [r5, #24]	@ movhi
 658              		.loc 1 213 0 discriminator 2
 659 0054 0120     		movs	r0, #1
 660 0056 FFF7FEFF 		bl	chThdSleep
 661              	.LVL63:
 662              		.loc 1 209 0 discriminator 2
 663 005a 013C     		subs	r4, r4, #1
 664              	.LVL64:
 665              		.loc 1 210 0 discriminator 2
 666 005c 164E     		ldr	r6, .L27+4
 667 005e 4FF48067 		mov	r7, #1024
 668              		.loc 1 209 0 discriminator 2
 669 0062 F0D1     		bne	.L25
 670              	.LBE3:
 671              		.loc 1 217 0
 672 0064 4FF40065 		mov	r5, #2048
 673 0068 7583     		strh	r5, [r6, #26]	@ movhi
 674              		.loc 1 218 0
 675 006a 0120     		movs	r0, #1
 676 006c FFF7FEFF 		bl	chThdSleep
 677              	.LVL65:
 678              		.loc 1 219 0
 679 0070 7783     		strh	r7, [r6, #26]	@ movhi
 680              		.loc 1 220 0
ARM GAS  /tmp/ccVOxwUj.s 			page 13


 681 0072 0120     		movs	r0, #1
 682 0074 FFF7FEFF 		bl	chThdSleep
 683              	.LVL66:
 684              		.loc 1 221 0
 685 0078 3783     		strh	r7, [r6, #24]	@ movhi
 686              		.loc 1 222 0
 687 007a 0120     		movs	r0, #1
 688 007c FFF7FEFF 		bl	chThdSleep
 689              	.LVL67:
 690              		.loc 1 237 0
 691 0080 0E4C     		ldr	r4, .L27+8
 692              	.LVL68:
 693              		.loc 1 223 0
 694 0082 3583     		strh	r5, [r6, #24]	@ movhi
 695              		.loc 1 225 0
 696 0084 3946     		mov	r1, r7
 697 0086 3046     		mov	r0, r6
 698 0088 40F22E22 		movw	r2, #558
 699 008c FFF7FEFF 		bl	_pal_lld_setgroupmode
 700              	.LVL69:
 701              		.loc 1 231 0
 702 0090 3046     		mov	r0, r6
 703 0092 2946     		mov	r1, r5
 704 0094 40F22E22 		movw	r2, #558
 705 0098 FFF7FEFF 		bl	_pal_lld_setgroupmode
 706              	.LVL70:
 707              		.loc 1 237 0
 708 009c 0123     		movs	r3, #1
 709              		.loc 1 238 0
 710 009e 2046     		mov	r0, r4
 711 00a0 0749     		ldr	r1, .L27+12
 712              		.loc 1 237 0
 713 00a2 2370     		strb	r3, [r4]
 714              		.loc 1 238 0
 715 00a4 FFF7FEFF 		bl	i2cStart
 716              	.LVL71:
 717              		.loc 1 240 0
 718 00a8 2046     		mov	r0, r4
 719              		.loc 1 242 0
 720 00aa BDE8F843 		pop	{r3, r4, r5, r6, r7, r8, r9, lr}
 721              		.loc 1 240 0
 722 00ae FFF7FEBF 		b	i2cReleaseBus
 723              	.LVL72:
 724              	.L28:
 725 00b2 00BF     		.align	2
 726              	.L27:
 727 00b4 00000000 		.word	.LANCHOR0
 728 00b8 00040240 		.word	1073873920
 729 00bc 00000000 		.word	I2CD2
 730 00c0 00000000 		.word	.LANCHOR1
 731              		.cfi_endproc
 732              	.LFE261:
 733              		.size	hw_try_restore_i2c, .-hw_try_restore_i2c
 734 00c4 AFF30080 		.section	.bss.i2c_running,"aw",%nobits
 734      AFF30080 
 734      AFF30080 
 735              		.set	.LANCHOR0,. + 0
ARM GAS  /tmp/ccVOxwUj.s 			page 14


 736              		.type	i2c_running, %object
 737              		.size	i2c_running, 1
 738              	i2c_running:
 739 0000 00       		.space	1
 740              		.section	.rodata.i2cfg,"a",%progbits
 741              		.align	2
 742              		.set	.LANCHOR1,. + 0
 743              		.type	i2cfg, %object
 744              		.size	i2cfg, 12
 745              	i2cfg:
 746 0000 01       		.byte	1
 747 0001 000000   		.space	3
 748 0004 A0860100 		.word	100000
 749 0008 01       		.byte	1
 750 0009 000000   		.space	3
 751              		.text
 752              	.Letext0:
 753              		.file 2 "/usr/include/newlib/machine/_default_types.h"
 754              		.file 3 "/usr/include/newlib/stdint.h"
 755              		.file 4 "/usr/lib/gcc/arm-none-eabi/4.8/include/stddef.h"
 756              		.file 5 "ChibiOS_3.0.2/os/rt/ports/ARMCMx/compilers/GCC/chtypes.h"
 757              		.file 6 "ChibiOS_3.0.2/os/rt/include/chsystypes.h"
 758              		.file 7 "ChibiOS_3.0.2/os/rt/include/chschd.h"
 759              		.file 8 "ChibiOS_3.0.2/os/ext/CMSIS/ST/stm32f407xx.h"
 760              		.file 9 "ChibiOS_3.0.2/os/ext/CMSIS/ST/stm32f4xx.h"
 761              		.file 10 "ChibiOS_3.0.2/os/rt/ports/ARMCMx/chcore.h"
 762              		.file 11 "ChibiOS_3.0.2/os/rt/ports/ARMCMx/chcore_v7m.h"
 763              		.file 12 "ChibiOS_3.0.2/os/rt/include/chtm.h"
 764              		.file 13 "ChibiOS_3.0.2/os/rt/include/chsem.h"
 765              		.file 14 "ChibiOS_3.0.2/os/rt/include/chmtx.h"
 766              		.file 15 "ChibiOS_3.0.2/os/hal/ports/STM32/STM32F4xx/stm32_dma.h"
 767              		.file 16 "ChibiOS_3.0.2/os/hal/ports/STM32/LLD/GPIOv2/pal_lld.h"
 768              		.file 17 "ChibiOS_3.0.2/os/hal/include/i2c.h"
 769              		.file 18 "ChibiOS_3.0.2/os/hal/ports/STM32/LLD/I2Cv1/i2c_lld.h"
 770              		.file 19 "./servo.h"
 771              		.file 20 "ChibiOS_3.0.2/os/ext/CMSIS/include/core_cm4.h"
 772              		.file 21 "ChibiOS_3.0.2/ext/stdperiph_stm32f4/inc/stm32f4xx_rcc.h"
 773              		.file 22 "ChibiOS_3.0.2/ext/stdperiph_stm32f4/inc/stm32f4xx_adc.h"
 774              		.file 23 "ChibiOS_3.0.2/os/rt/include/chthreads.h"
 775              		.section	.debug_info,"",%progbits
 776              	.Ldebug_info0:
 777 0000 50160000 		.4byte	0x1650
 778 0004 0400     		.2byte	0x4
 779 0006 00000000 		.4byte	.Ldebug_abbrev0
 780 000a 04       		.byte	0x4
 781 000b 01       		.uleb128 0x1
 782 000c 81020000 		.4byte	.LASF208
 783 0010 01       		.byte	0x1
 784 0011 EB010000 		.4byte	.LASF209
 785 0015 76050000 		.4byte	.LASF210
 786 0019 18000000 		.4byte	.Ldebug_ranges0+0x18
 787 001d 00000000 		.4byte	0
 788 0021 00000000 		.4byte	.Ldebug_line0
 789 0025 02       		.uleb128 0x2
 790 0026 01       		.byte	0x1
 791 0027 06       		.byte	0x6
 792 0028 B4080000 		.4byte	.LASF0
ARM GAS  /tmp/ccVOxwUj.s 			page 15


 793 002c 03       		.uleb128 0x3
 794 002d 25070000 		.4byte	.LASF3
 795 0031 02       		.byte	0x2
 796 0032 1D       		.byte	0x1d
 797 0033 37000000 		.4byte	0x37
 798 0037 02       		.uleb128 0x2
 799 0038 01       		.byte	0x1
 800 0039 08       		.byte	0x8
 801 003a D7070000 		.4byte	.LASF1
 802 003e 02       		.uleb128 0x2
 803 003f 02       		.byte	0x2
 804 0040 05       		.byte	0x5
 805 0041 8E060000 		.4byte	.LASF2
 806 0045 03       		.uleb128 0x3
 807 0046 01020000 		.4byte	.LASF4
 808 004a 02       		.byte	0x2
 809 004b 2B       		.byte	0x2b
 810 004c 50000000 		.4byte	0x50
 811 0050 02       		.uleb128 0x2
 812 0051 02       		.byte	0x2
 813 0052 07       		.byte	0x7
 814 0053 C0080000 		.4byte	.LASF5
 815 0057 03       		.uleb128 0x3
 816 0058 CB000000 		.4byte	.LASF6
 817 005c 02       		.byte	0x2
 818 005d 3F       		.byte	0x3f
 819 005e 62000000 		.4byte	0x62
 820 0062 02       		.uleb128 0x2
 821 0063 04       		.byte	0x4
 822 0064 05       		.byte	0x5
 823 0065 B5060000 		.4byte	.LASF7
 824 0069 03       		.uleb128 0x3
 825 006a E5070000 		.4byte	.LASF8
 826 006e 02       		.byte	0x2
 827 006f 41       		.byte	0x41
 828 0070 74000000 		.4byte	0x74
 829 0074 02       		.uleb128 0x2
 830 0075 04       		.byte	0x4
 831 0076 07       		.byte	0x7
 832 0077 67070000 		.4byte	.LASF9
 833 007b 02       		.uleb128 0x2
 834 007c 08       		.byte	0x8
 835 007d 05       		.byte	0x5
 836 007e 71040000 		.4byte	.LASF10
 837 0082 03       		.uleb128 0x3
 838 0083 B2030000 		.4byte	.LASF11
 839 0087 02       		.byte	0x2
 840 0088 5B       		.byte	0x5b
 841 0089 8D000000 		.4byte	0x8d
 842 008d 02       		.uleb128 0x2
 843 008e 08       		.byte	0x8
 844 008f 07       		.byte	0x7
 845 0090 C6010000 		.4byte	.LASF12
 846 0094 04       		.uleb128 0x4
 847 0095 04       		.byte	0x4
 848 0096 05       		.byte	0x5
 849 0097 696E7400 		.ascii	"int\000"
ARM GAS  /tmp/ccVOxwUj.s 			page 16


 850 009b 02       		.uleb128 0x2
 851 009c 04       		.byte	0x4
 852 009d 07       		.byte	0x7
 853 009e 95000000 		.4byte	.LASF13
 854 00a2 03       		.uleb128 0x3
 855 00a3 9C040000 		.4byte	.LASF14
 856 00a7 03       		.byte	0x3
 857 00a8 2A       		.byte	0x2a
 858 00a9 2C000000 		.4byte	0x2c
 859 00ad 03       		.uleb128 0x3
 860 00ae 3C060000 		.4byte	.LASF15
 861 00b2 03       		.byte	0x3
 862 00b3 36       		.byte	0x36
 863 00b4 45000000 		.4byte	0x45
 864 00b8 03       		.uleb128 0x3
 865 00b9 9C070000 		.4byte	.LASF16
 866 00bd 03       		.byte	0x3
 867 00be 41       		.byte	0x41
 868 00bf 57000000 		.4byte	0x57
 869 00c3 03       		.uleb128 0x3
 870 00c4 3E010000 		.4byte	.LASF17
 871 00c8 03       		.byte	0x3
 872 00c9 42       		.byte	0x42
 873 00ca 69000000 		.4byte	0x69
 874 00ce 03       		.uleb128 0x3
 875 00cf 10070000 		.4byte	.LASF18
 876 00d3 03       		.byte	0x3
 877 00d4 4E       		.byte	0x4e
 878 00d5 82000000 		.4byte	0x82
 879 00d9 03       		.uleb128 0x3
 880 00da 7B030000 		.4byte	.LASF19
 881 00de 04       		.byte	0x4
 882 00df D4       		.byte	0xd4
 883 00e0 9B000000 		.4byte	0x9b
 884 00e4 05       		.uleb128 0x5
 885 00e5 B8000000 		.4byte	0xb8
 886 00e9 05       		.uleb128 0x5
 887 00ea C3000000 		.4byte	0xc3
 888 00ee 03       		.uleb128 0x3
 889 00ef 58060000 		.4byte	.LASF20
 890 00f3 05       		.byte	0x5
 891 00f4 45       		.byte	0x45
 892 00f5 C3000000 		.4byte	0xc3
 893 00f9 03       		.uleb128 0x3
 894 00fa 15060000 		.4byte	.LASF21
 895 00fe 05       		.byte	0x5
 896 00ff 48       		.byte	0x48
 897 0100 A2000000 		.4byte	0xa2
 898 0104 03       		.uleb128 0x3
 899 0105 3E040000 		.4byte	.LASF22
 900 0109 05       		.byte	0x5
 901 010a 49       		.byte	0x49
 902 010b A2000000 		.4byte	0xa2
 903 010f 03       		.uleb128 0x3
 904 0110 5F070000 		.4byte	.LASF23
 905 0114 05       		.byte	0x5
 906 0115 4A       		.byte	0x4a
ARM GAS  /tmp/ccVOxwUj.s 			page 17


 907 0116 A2000000 		.4byte	0xa2
 908 011a 03       		.uleb128 0x3
 909 011b D6050000 		.4byte	.LASF24
 910 011f 05       		.byte	0x5
 911 0120 4B       		.byte	0x4b
 912 0121 A2000000 		.4byte	0xa2
 913 0125 03       		.uleb128 0x3
 914 0126 98010000 		.4byte	.LASF25
 915 012a 05       		.byte	0x5
 916 012b 4C       		.byte	0x4c
 917 012c C3000000 		.4byte	0xc3
 918 0130 03       		.uleb128 0x3
 919 0131 30050000 		.4byte	.LASF26
 920 0135 05       		.byte	0x5
 921 0136 4D       		.byte	0x4d
 922 0137 B8000000 		.4byte	0xb8
 923 013b 03       		.uleb128 0x3
 924 013c 60010000 		.4byte	.LASF27
 925 0140 05       		.byte	0x5
 926 0141 4F       		.byte	0x4f
 927 0142 C3000000 		.4byte	0xc3
 928 0146 03       		.uleb128 0x3
 929 0147 0C020000 		.4byte	.LASF28
 930 014b 05       		.byte	0x5
 931 014c 51       		.byte	0x51
 932 014d B8000000 		.4byte	0xb8
 933 0151 03       		.uleb128 0x3
 934 0152 E7030000 		.4byte	.LASF29
 935 0156 06       		.byte	0x6
 936 0157 33       		.byte	0x33
 937 0158 C3000000 		.4byte	0xc3
 938 015c 03       		.uleb128 0x3
 939 015d 78020000 		.4byte	.LASF30
 940 0161 06       		.byte	0x6
 941 0162 3F       		.byte	0x3f
 942 0163 67010000 		.4byte	0x167
 943 0167 06       		.uleb128 0x6
 944 0168 C4040000 		.4byte	.LASF52
 945 016c 48       		.byte	0x48
 946 016d 07       		.byte	0x7
 947 016e C2       		.byte	0xc2
 948 016f 6C020000 		.4byte	0x26c
 949 0173 07       		.uleb128 0x7
 950 0174 09070000 		.4byte	.LASF31
 951 0178 07       		.byte	0x7
 952 0179 C3       		.byte	0xc3
 953 017a 77020000 		.4byte	0x277
 954 017e 00       		.byte	0
 955 017f 07       		.uleb128 0x7
 956 0180 48070000 		.4byte	.LASF32
 957 0184 07       		.byte	0x7
 958 0185 C5       		.byte	0xc5
 959 0186 77020000 		.4byte	0x277
 960 018a 04       		.byte	0x4
 961 018b 07       		.uleb128 0x7
 962 018c 57000000 		.4byte	.LASF33
 963 0190 07       		.byte	0x7
ARM GAS  /tmp/ccVOxwUj.s 			page 18


 964 0191 C7       		.byte	0xc7
 965 0192 25010000 		.4byte	0x125
 966 0196 08       		.byte	0x8
 967 0197 07       		.uleb128 0x7
 968 0198 19070000 		.4byte	.LASF34
 969 019c 07       		.byte	0x7
 970 019d C8       		.byte	0xc8
 971 019e C3060000 		.4byte	0x6c3
 972 01a2 0C       		.byte	0xc
 973 01a3 07       		.uleb128 0x7
 974 01a4 39020000 		.4byte	.LASF35
 975 01a8 07       		.byte	0x7
 976 01a9 CA       		.byte	0xca
 977 01aa 77020000 		.4byte	0x277
 978 01ae 10       		.byte	0x10
 979 01af 07       		.uleb128 0x7
 980 01b0 7F040000 		.4byte	.LASF36
 981 01b4 07       		.byte	0x7
 982 01b5 CB       		.byte	0xcb
 983 01b6 77020000 		.4byte	0x277
 984 01ba 14       		.byte	0x14
 985 01bb 07       		.uleb128 0x7
 986 01bc F1030000 		.4byte	.LASF37
 987 01c0 07       		.byte	0x7
 988 01c1 D2       		.byte	0xd2
 989 01c2 08090000 		.4byte	0x908
 990 01c6 18       		.byte	0x18
 991 01c7 07       		.uleb128 0x7
 992 01c8 BC040000 		.4byte	.LASF38
 993 01cc 07       		.byte	0x7
 994 01cd DD       		.byte	0xdd
 995 01ce 04010000 		.4byte	0x104
 996 01d2 1C       		.byte	0x1c
 997 01d3 07       		.uleb128 0x7
 998 01d4 4B050000 		.4byte	.LASF39
 999 01d8 07       		.byte	0x7
 1000 01d9 E1       		.byte	0xe1
 1001 01da F9000000 		.4byte	0xf9
 1002 01de 1D       		.byte	0x1d
 1003 01df 07       		.uleb128 0x7
 1004 01e0 14080000 		.4byte	.LASF40
 1005 01e4 07       		.byte	0x7
 1006 01e5 E6       		.byte	0xe6
 1007 01e6 0F010000 		.4byte	0x10f
 1008 01ea 1E       		.byte	0x1e
 1009 01eb 07       		.uleb128 0x7
 1010 01ec 46080000 		.4byte	.LASF41
 1011 01f0 07       		.byte	0x7
 1012 01f1 EC       		.byte	0xec
 1013 01f2 1A010000 		.4byte	0x11a
 1014 01f6 1F       		.byte	0x1f
 1015 01f7 07       		.uleb128 0x7
 1016 01f8 3D000000 		.4byte	.LASF42
 1017 01fc 07       		.byte	0x7
 1018 01fd F3       		.byte	0xf3
 1019 01fe 1A090000 		.4byte	0x91a
 1020 0202 20       		.byte	0x20
ARM GAS  /tmp/ccVOxwUj.s 			page 19


 1021 0203 08       		.uleb128 0x8
 1022 0204 705F7500 		.ascii	"p_u\000"
 1023 0208 07       		.byte	0x7
 1024 0209 3101     		.2byte	0x131
 1025 020b 43080000 		.4byte	0x843
 1026 020f 24       		.byte	0x24
 1027 0210 09       		.uleb128 0x9
 1028 0211 C1000000 		.4byte	.LASF43
 1029 0215 07       		.byte	0x7
 1030 0216 3601     		.2byte	0x136
 1031 0218 7D020000 		.4byte	0x27d
 1032 021c 28       		.byte	0x28
 1033 021d 09       		.uleb128 0x9
 1034 021e E4080000 		.4byte	.LASF44
 1035 0222 07       		.byte	0x7
 1036 0223 3C01     		.2byte	0x13c
 1037 0225 A1020000 		.4byte	0x2a1
 1038 0229 2C       		.byte	0x2c
 1039 022a 09       		.uleb128 0x9
 1040 022b 0F060000 		.4byte	.LASF45
 1041 022f 07       		.byte	0x7
 1042 0230 4001     		.2byte	0x140
 1043 0232 30010000 		.4byte	0x130
 1044 0236 34       		.byte	0x34
 1045 0237 09       		.uleb128 0x9
 1046 0238 A2060000 		.4byte	.LASF46
 1047 023c 07       		.byte	0x7
 1048 023d 4601     		.2byte	0x146
 1049 023f 3B010000 		.4byte	0x13b
 1050 0243 38       		.byte	0x38
 1051 0244 09       		.uleb128 0x9
 1052 0245 B2040000 		.4byte	.LASF47
 1053 0249 07       		.byte	0x7
 1054 024a 4D01     		.2byte	0x14d
 1055 024c 02090000 		.4byte	0x902
 1056 0250 3C       		.byte	0x3c
 1057 0251 09       		.uleb128 0x9
 1058 0252 83060000 		.4byte	.LASF48
 1059 0256 07       		.byte	0x7
 1060 0257 5101     		.2byte	0x151
 1061 0259 25010000 		.4byte	0x125
 1062 025d 40       		.byte	0x40
 1063 025e 09       		.uleb128 0x9
 1064 025f AA040000 		.4byte	.LASF49
 1065 0263 07       		.byte	0x7
 1066 0264 5801     		.2byte	0x158
 1067 0266 54030000 		.4byte	0x354
 1068 026a 44       		.byte	0x44
 1069 026b 00       		.byte	0
 1070 026c 03       		.uleb128 0x3
 1071 026d 45060000 		.4byte	.LASF50
 1072 0271 06       		.byte	0x6
 1073 0272 44       		.byte	0x44
 1074 0273 77020000 		.4byte	0x277
 1075 0277 0A       		.uleb128 0xa
 1076 0278 04       		.byte	0x4
 1077 0279 5C010000 		.4byte	0x15c
ARM GAS  /tmp/ccVOxwUj.s 			page 20


 1078 027d 03       		.uleb128 0x3
 1079 027e B2000000 		.4byte	.LASF51
 1080 0282 06       		.byte	0x6
 1081 0283 49       		.byte	0x49
 1082 0284 88020000 		.4byte	0x288
 1083 0288 06       		.uleb128 0x6
 1084 0289 00000000 		.4byte	.LASF53
 1085 028d 04       		.byte	0x4
 1086 028e 07       		.byte	0x7
 1087 028f B0       		.byte	0xb0
 1088 0290 A1020000 		.4byte	0x2a1
 1089 0294 07       		.uleb128 0x7
 1090 0295 09070000 		.4byte	.LASF31
 1091 0299 07       		.byte	0x7
 1092 029a B1       		.byte	0xb1
 1093 029b 77020000 		.4byte	0x277
 1094 029f 00       		.byte	0
 1095 02a0 00       		.byte	0
 1096 02a1 03       		.uleb128 0x3
 1097 02a2 10000000 		.4byte	.LASF54
 1098 02a6 06       		.byte	0x6
 1099 02a7 50       		.byte	0x50
 1100 02a8 AC020000 		.4byte	0x2ac
 1101 02ac 06       		.uleb128 0x6
 1102 02ad F2040000 		.4byte	.LASF55
 1103 02b1 08       		.byte	0x8
 1104 02b2 07       		.byte	0x7
 1105 02b3 B7       		.byte	0xb7
 1106 02b4 D1020000 		.4byte	0x2d1
 1107 02b8 07       		.uleb128 0x7
 1108 02b9 09070000 		.4byte	.LASF31
 1109 02bd 07       		.byte	0x7
 1110 02be B8       		.byte	0xb8
 1111 02bf 77020000 		.4byte	0x277
 1112 02c3 00       		.byte	0
 1113 02c4 07       		.uleb128 0x7
 1114 02c5 48070000 		.4byte	.LASF32
 1115 02c9 07       		.byte	0x7
 1116 02ca B9       		.byte	0xb9
 1117 02cb 77020000 		.4byte	0x277
 1118 02cf 04       		.byte	0x4
 1119 02d0 00       		.byte	0
 1120 02d1 03       		.uleb128 0x3
 1121 02d2 79070000 		.4byte	.LASF56
 1122 02d6 06       		.byte	0x6
 1123 02d7 57       		.byte	0x57
 1124 02d8 DC020000 		.4byte	0x2dc
 1125 02dc 0B       		.uleb128 0xb
 1126 02dd E3000000 		.4byte	.LASF57
 1127 02e1 1C       		.byte	0x1c
 1128 02e2 07       		.byte	0x7
 1129 02e3 9001     		.2byte	0x190
 1130 02e5 38030000 		.4byte	0x338
 1131 02e9 09       		.uleb128 0x9
 1132 02ea 1D050000 		.4byte	.LASF58
 1133 02ee 07       		.byte	0x7
 1134 02ef 9101     		.2byte	0x191
ARM GAS  /tmp/ccVOxwUj.s 			page 21


 1135 02f1 A1020000 		.4byte	0x2a1
 1136 02f5 00       		.byte	0
 1137 02f6 09       		.uleb128 0x9
 1138 02f7 6C010000 		.4byte	.LASF59
 1139 02fb 07       		.byte	0x7
 1140 02fc 9201     		.2byte	0x192
 1141 02fe 25010000 		.4byte	0x125
 1142 0302 08       		.byte	0x8
 1143 0303 09       		.uleb128 0x9
 1144 0304 D3080000 		.4byte	.LASF60
 1145 0308 07       		.byte	0x7
 1146 0309 9401     		.2byte	0x194
 1147 030b C3060000 		.4byte	0x6c3
 1148 030f 0C       		.byte	0xc
 1149 0310 09       		.uleb128 0x9
 1150 0311 25040000 		.4byte	.LASF61
 1151 0315 07       		.byte	0x7
 1152 0316 9701     		.2byte	0x197
 1153 0318 77020000 		.4byte	0x277
 1154 031c 10       		.byte	0x10
 1155 031d 09       		.uleb128 0x9
 1156 031e E0050000 		.4byte	.LASF62
 1157 0322 07       		.byte	0x7
 1158 0323 9801     		.2byte	0x198
 1159 0325 77020000 		.4byte	0x277
 1160 0329 14       		.byte	0x14
 1161 032a 09       		.uleb128 0x9
 1162 032b 98060000 		.4byte	.LASF63
 1163 032f 07       		.byte	0x7
 1164 0330 9B01     		.2byte	0x19b
 1165 0332 77020000 		.4byte	0x277
 1166 0336 18       		.byte	0x18
 1167 0337 00       		.byte	0
 1168 0338 03       		.uleb128 0x3
 1169 0339 19010000 		.4byte	.LASF64
 1170 033d 06       		.byte	0x6
 1171 033e 5C       		.byte	0x5c
 1172 033f 43030000 		.4byte	0x343
 1173 0343 0A       		.uleb128 0xa
 1174 0344 04       		.byte	0x4
 1175 0345 49030000 		.4byte	0x349
 1176 0349 0C       		.uleb128 0xc
 1177 034a 54030000 		.4byte	0x354
 1178 034e 0D       		.uleb128 0xd
 1179 034f 54030000 		.4byte	0x354
 1180 0353 00       		.byte	0
 1181 0354 0E       		.uleb128 0xe
 1182 0355 04       		.byte	0x4
 1183 0356 03       		.uleb128 0x3
 1184 0357 53050000 		.4byte	.LASF65
 1185 035b 06       		.byte	0x6
 1186 035c 61       		.byte	0x61
 1187 035d 61030000 		.4byte	0x361
 1188 0361 0B       		.uleb128 0xb
 1189 0362 A0010000 		.4byte	.LASF66
 1190 0366 14       		.byte	0x14
 1191 0367 07       		.byte	0x7
ARM GAS  /tmp/ccVOxwUj.s 			page 22


 1192 0368 6B01     		.2byte	0x16b
 1193 036a B0030000 		.4byte	0x3b0
 1194 036e 09       		.uleb128 0x9
 1195 036f 67080000 		.4byte	.LASF67
 1196 0373 07       		.byte	0x7
 1197 0374 6C01     		.2byte	0x16c
 1198 0376 1F090000 		.4byte	0x91f
 1199 037a 00       		.byte	0
 1200 037b 09       		.uleb128 0x9
 1201 037c 07090000 		.4byte	.LASF68
 1202 0380 07       		.byte	0x7
 1203 0381 6D01     		.2byte	0x16d
 1204 0383 1F090000 		.4byte	0x91f
 1205 0387 04       		.byte	0x4
 1206 0388 09       		.uleb128 0x9
 1207 0389 F8030000 		.4byte	.LASF69
 1208 038d 07       		.byte	0x7
 1209 038e 6E01     		.2byte	0x16e
 1210 0390 51010000 		.4byte	0x151
 1211 0394 08       		.byte	0x8
 1212 0395 09       		.uleb128 0x9
 1213 0396 BE010000 		.4byte	.LASF70
 1214 039a 07       		.byte	0x7
 1215 039b 6F01     		.2byte	0x16f
 1216 039d 38030000 		.4byte	0x338
 1217 03a1 0C       		.byte	0xc
 1218 03a2 09       		.uleb128 0x9
 1219 03a3 78010000 		.4byte	.LASF71
 1220 03a7 07       		.byte	0x7
 1221 03a8 7101     		.2byte	0x171
 1222 03aa 54030000 		.4byte	0x354
 1223 03ae 10       		.byte	0x10
 1224 03af 00       		.byte	0
 1225 03b0 03       		.uleb128 0x3
 1226 03b1 FE070000 		.4byte	.LASF72
 1227 03b5 06       		.byte	0x6
 1228 03b6 66       		.byte	0x66
 1229 03b7 BB030000 		.4byte	0x3bb
 1230 03bb 0B       		.uleb128 0xb
 1231 03bc 47020000 		.4byte	.LASF73
 1232 03c0 10       		.byte	0x10
 1233 03c1 07       		.byte	0x7
 1234 03c2 7B01     		.2byte	0x17b
 1235 03c4 FD030000 		.4byte	0x3fd
 1236 03c8 09       		.uleb128 0x9
 1237 03c9 67080000 		.4byte	.LASF67
 1238 03cd 07       		.byte	0x7
 1239 03ce 7C01     		.2byte	0x17c
 1240 03d0 1F090000 		.4byte	0x91f
 1241 03d4 00       		.byte	0
 1242 03d5 09       		.uleb128 0x9
 1243 03d6 07090000 		.4byte	.LASF68
 1244 03da 07       		.byte	0x7
 1245 03db 7E01     		.2byte	0x17e
 1246 03dd 1F090000 		.4byte	0x91f
 1247 03e1 04       		.byte	0x4
 1248 03e2 09       		.uleb128 0x9
ARM GAS  /tmp/ccVOxwUj.s 			page 23


 1249 03e3 F8030000 		.4byte	.LASF69
 1250 03e7 07       		.byte	0x7
 1251 03e8 8001     		.2byte	0x180
 1252 03ea 51010000 		.4byte	0x151
 1253 03ee 08       		.byte	0x8
 1254 03ef 09       		.uleb128 0x9
 1255 03f0 7C000000 		.4byte	.LASF74
 1256 03f4 07       		.byte	0x7
 1257 03f5 8201     		.2byte	0x182
 1258 03f7 1A090000 		.4byte	0x91a
 1259 03fb 0C       		.byte	0xc
 1260 03fc 00       		.byte	0
 1261 03fd 03       		.uleb128 0x3
 1262 03fe CE040000 		.4byte	.LASF75
 1263 0402 06       		.byte	0x6
 1264 0403 6B       		.byte	0x6b
 1265 0404 08040000 		.4byte	0x408
 1266 0408 0B       		.uleb128 0xb
 1267 0409 28010000 		.4byte	.LASF76
 1268 040d 04       		.byte	0x4
 1269 040e 07       		.byte	0x7
 1270 040f A201     		.2byte	0x1a2
 1271 0411 23040000 		.4byte	0x423
 1272 0415 09       		.uleb128 0x9
 1273 0416 1B080000 		.4byte	.LASF77
 1274 041a 07       		.byte	0x7
 1275 041b AA01     		.2byte	0x1aa
 1276 041d 25090000 		.4byte	0x925
 1277 0421 00       		.byte	0
 1278 0422 00       		.byte	0
 1279 0423 03       		.uleb128 0x3
 1280 0424 91080000 		.4byte	.LASF78
 1281 0428 06       		.byte	0x6
 1282 0429 70       		.byte	0x70
 1283 042a 2E040000 		.4byte	0x42e
 1284 042e 0F       		.uleb128 0xf
 1285 042f F8060000 		.4byte	.LASF79
 1286 0433 5802     		.2byte	0x258
 1287 0435 07       		.byte	0x7
 1288 0436 C201     		.2byte	0x1c2
 1289 0438 8A040000 		.4byte	0x48a
 1290 043c 09       		.uleb128 0x9
 1291 043d 1F070000 		.4byte	.LASF80
 1292 0441 07       		.byte	0x7
 1293 0442 C601     		.2byte	0x1c6
 1294 0444 D1020000 		.4byte	0x2d1
 1295 0448 00       		.byte	0
 1296 0449 09       		.uleb128 0x9
 1297 044a DC000000 		.4byte	.LASF81
 1298 044e 07       		.byte	0x7
 1299 044f CA01     		.2byte	0x1ca
 1300 0451 B0030000 		.4byte	0x3b0
 1301 0455 1C       		.byte	0x1c
 1302 0456 08       		.uleb128 0x8
 1303 0457 64626700 		.ascii	"dbg\000"
 1304 045b 07       		.byte	0x7
 1305 045c CE01     		.2byte	0x1ce
ARM GAS  /tmp/ccVOxwUj.s 			page 24


 1306 045e FD030000 		.4byte	0x3fd
 1307 0462 2C       		.byte	0x2c
 1308 0463 09       		.uleb128 0x9
 1309 0464 29060000 		.4byte	.LASF82
 1310 0468 07       		.byte	0x7
 1311 0469 D201     		.2byte	0x1d2
 1312 046b 5C010000 		.4byte	0x15c
 1313 046f 30       		.byte	0x30
 1314 0470 08       		.uleb128 0x8
 1315 0471 746D00   		.ascii	"tm\000"
 1316 0474 07       		.byte	0x7
 1317 0475 D701     		.2byte	0x1d7
 1318 0477 38080000 		.4byte	0x838
 1319 047b 78       		.byte	0x78
 1320 047c 09       		.uleb128 0x9
 1321 047d F1000000 		.4byte	.LASF83
 1322 0481 07       		.byte	0x7
 1323 0482 E301     		.2byte	0x1e3
 1324 0484 2A090000 		.4byte	0x92a
 1325 0488 80       		.byte	0x80
 1326 0489 00       		.byte	0
 1327 048a 02       		.uleb128 0x2
 1328 048b 04       		.byte	0x4
 1329 048c 07       		.byte	0x7
 1330 048d 56070000 		.4byte	.LASF84
 1331 0491 10       		.uleb128 0x10
 1332 0492 50       		.byte	0x50
 1333 0493 08       		.byte	0x8
 1334 0494 C4       		.byte	0xc4
 1335 0495 88050000 		.4byte	0x588
 1336 0499 11       		.uleb128 0x11
 1337 049a 535200   		.ascii	"SR\000"
 1338 049d 08       		.byte	0x8
 1339 049e C6       		.byte	0xc6
 1340 049f E9000000 		.4byte	0xe9
 1341 04a3 00       		.byte	0
 1342 04a4 11       		.uleb128 0x11
 1343 04a5 43523100 		.ascii	"CR1\000"
 1344 04a9 08       		.byte	0x8
 1345 04aa C7       		.byte	0xc7
 1346 04ab E9000000 		.4byte	0xe9
 1347 04af 04       		.byte	0x4
 1348 04b0 11       		.uleb128 0x11
 1349 04b1 43523200 		.ascii	"CR2\000"
 1350 04b5 08       		.byte	0x8
 1351 04b6 C8       		.byte	0xc8
 1352 04b7 E9000000 		.4byte	0xe9
 1353 04bb 08       		.byte	0x8
 1354 04bc 07       		.uleb128 0x7
 1355 04bd 1D060000 		.4byte	.LASF85
 1356 04c1 08       		.byte	0x8
 1357 04c2 C9       		.byte	0xc9
 1358 04c3 E9000000 		.4byte	0xe9
 1359 04c7 0C       		.byte	0xc
 1360 04c8 07       		.uleb128 0x7
 1361 04c9 23060000 		.4byte	.LASF86
 1362 04cd 08       		.byte	0x8
ARM GAS  /tmp/ccVOxwUj.s 			page 25


 1363 04ce CA       		.byte	0xca
 1364 04cf E9000000 		.4byte	0xe9
 1365 04d3 10       		.byte	0x10
 1366 04d4 07       		.uleb128 0x7
 1367 04d5 EF080000 		.4byte	.LASF87
 1368 04d9 08       		.byte	0x8
 1369 04da CB       		.byte	0xcb
 1370 04db E9000000 		.4byte	0xe9
 1371 04df 14       		.byte	0x14
 1372 04e0 07       		.uleb128 0x7
 1373 04e1 F5080000 		.4byte	.LASF88
 1374 04e5 08       		.byte	0x8
 1375 04e6 CC       		.byte	0xcc
 1376 04e7 E9000000 		.4byte	0xe9
 1377 04eb 18       		.byte	0x18
 1378 04ec 07       		.uleb128 0x7
 1379 04ed FB080000 		.4byte	.LASF89
 1380 04f1 08       		.byte	0x8
 1381 04f2 CD       		.byte	0xcd
 1382 04f3 E9000000 		.4byte	0xe9
 1383 04f7 1C       		.byte	0x1c
 1384 04f8 07       		.uleb128 0x7
 1385 04f9 01090000 		.4byte	.LASF90
 1386 04fd 08       		.byte	0x8
 1387 04fe CE       		.byte	0xce
 1388 04ff E9000000 		.4byte	0xe9
 1389 0503 20       		.byte	0x20
 1390 0504 11       		.uleb128 0x11
 1391 0505 48545200 		.ascii	"HTR\000"
 1392 0509 08       		.byte	0x8
 1393 050a CF       		.byte	0xcf
 1394 050b E9000000 		.4byte	0xe9
 1395 050f 24       		.byte	0x24
 1396 0510 11       		.uleb128 0x11
 1397 0511 4C545200 		.ascii	"LTR\000"
 1398 0515 08       		.byte	0x8
 1399 0516 D0       		.byte	0xd0
 1400 0517 E9000000 		.4byte	0xe9
 1401 051b 28       		.byte	0x28
 1402 051c 07       		.uleb128 0x7
 1403 051d 3E070000 		.4byte	.LASF91
 1404 0521 08       		.byte	0x8
 1405 0522 D1       		.byte	0xd1
 1406 0523 E9000000 		.4byte	0xe9
 1407 0527 2C       		.byte	0x2c
 1408 0528 07       		.uleb128 0x7
 1409 0529 43070000 		.4byte	.LASF92
 1410 052d 08       		.byte	0x8
 1411 052e D2       		.byte	0xd2
 1412 052f E9000000 		.4byte	0xe9
 1413 0533 30       		.byte	0x30
 1414 0534 07       		.uleb128 0x7
 1415 0535 71050000 		.4byte	.LASF93
 1416 0539 08       		.byte	0x8
 1417 053a D3       		.byte	0xd3
 1418 053b E9000000 		.4byte	0xe9
 1419 053f 34       		.byte	0x34
ARM GAS  /tmp/ccVOxwUj.s 			page 26


 1420 0540 07       		.uleb128 0x7
 1421 0541 E8050000 		.4byte	.LASF94
 1422 0545 08       		.byte	0x8
 1423 0546 D4       		.byte	0xd4
 1424 0547 E9000000 		.4byte	0xe9
 1425 054b 38       		.byte	0x38
 1426 054c 07       		.uleb128 0x7
 1427 054d 79060000 		.4byte	.LASF95
 1428 0551 08       		.byte	0x8
 1429 0552 D5       		.byte	0xd5
 1430 0553 E9000000 		.4byte	0xe9
 1431 0557 3C       		.byte	0x3c
 1432 0558 07       		.uleb128 0x7
 1433 0559 2F070000 		.4byte	.LASF96
 1434 055d 08       		.byte	0x8
 1435 055e D6       		.byte	0xd6
 1436 055f E9000000 		.4byte	0xe9
 1437 0563 40       		.byte	0x40
 1438 0564 07       		.uleb128 0x7
 1439 0565 34070000 		.4byte	.LASF97
 1440 0569 08       		.byte	0x8
 1441 056a D7       		.byte	0xd7
 1442 056b E9000000 		.4byte	0xe9
 1443 056f 44       		.byte	0x44
 1444 0570 07       		.uleb128 0x7
 1445 0571 7E060000 		.4byte	.LASF98
 1446 0575 08       		.byte	0x8
 1447 0576 D8       		.byte	0xd8
 1448 0577 E9000000 		.4byte	0xe9
 1449 057b 48       		.byte	0x48
 1450 057c 11       		.uleb128 0x11
 1451 057d 445200   		.ascii	"DR\000"
 1452 0580 08       		.byte	0x8
 1453 0581 D9       		.byte	0xd9
 1454 0582 E9000000 		.4byte	0xe9
 1455 0586 4C       		.byte	0x4c
 1456 0587 00       		.byte	0
 1457 0588 03       		.uleb128 0x3
 1458 0589 E6040000 		.4byte	.LASF99
 1459 058d 08       		.byte	0x8
 1460 058e DA       		.byte	0xda
 1461 058f 91040000 		.4byte	0x491
 1462 0593 12       		.uleb128 0x12
 1463 0594 18       		.byte	0x18
 1464 0595 08       		.byte	0x8
 1465 0596 6B01     		.2byte	0x16b
 1466 0598 EA050000 		.4byte	0x5ea
 1467 059c 08       		.uleb128 0x8
 1468 059d 435200   		.ascii	"CR\000"
 1469 05a0 08       		.byte	0x8
 1470 05a1 6D01     		.2byte	0x16d
 1471 05a3 E9000000 		.4byte	0xe9
 1472 05a7 00       		.byte	0
 1473 05a8 09       		.uleb128 0x9
 1474 05a9 00010000 		.4byte	.LASF100
 1475 05ad 08       		.byte	0x8
 1476 05ae 6E01     		.2byte	0x16e
ARM GAS  /tmp/ccVOxwUj.s 			page 27


 1477 05b0 E9000000 		.4byte	0xe9
 1478 05b4 04       		.byte	0x4
 1479 05b5 08       		.uleb128 0x8
 1480 05b6 50415200 		.ascii	"PAR\000"
 1481 05ba 08       		.byte	0x8
 1482 05bb 6F01     		.2byte	0x16f
 1483 05bd E9000000 		.4byte	0xe9
 1484 05c1 08       		.byte	0x8
 1485 05c2 09       		.uleb128 0x9
 1486 05c3 D7030000 		.4byte	.LASF101
 1487 05c7 08       		.byte	0x8
 1488 05c8 7001     		.2byte	0x170
 1489 05ca E9000000 		.4byte	0xe9
 1490 05ce 0C       		.byte	0xc
 1491 05cf 09       		.uleb128 0x9
 1492 05d0 39070000 		.4byte	.LASF102
 1493 05d4 08       		.byte	0x8
 1494 05d5 7101     		.2byte	0x171
 1495 05d7 E9000000 		.4byte	0xe9
 1496 05db 10       		.byte	0x10
 1497 05dc 08       		.uleb128 0x8
 1498 05dd 46435200 		.ascii	"FCR\000"
 1499 05e1 08       		.byte	0x8
 1500 05e2 7201     		.2byte	0x172
 1501 05e4 E9000000 		.4byte	0xe9
 1502 05e8 14       		.byte	0x14
 1503 05e9 00       		.byte	0
 1504 05ea 13       		.uleb128 0x13
 1505 05eb 9D050000 		.4byte	.LASF103
 1506 05ef 08       		.byte	0x8
 1507 05f0 7301     		.2byte	0x173
 1508 05f2 93050000 		.4byte	0x593
 1509 05f6 12       		.uleb128 0x12
 1510 05f7 28       		.byte	0x28
 1511 05f8 08       		.byte	0x8
 1512 05f9 3F02     		.2byte	0x23f
 1513 05fb 81060000 		.4byte	0x681
 1514 05ff 08       		.uleb128 0x8
 1515 0600 43523100 		.ascii	"CR1\000"
 1516 0604 08       		.byte	0x8
 1517 0605 4102     		.2byte	0x241
 1518 0607 E9000000 		.4byte	0xe9
 1519 060b 00       		.byte	0
 1520 060c 08       		.uleb128 0x8
 1521 060d 43523200 		.ascii	"CR2\000"
 1522 0611 08       		.byte	0x8
 1523 0612 4202     		.2byte	0x242
 1524 0614 E9000000 		.4byte	0xe9
 1525 0618 04       		.byte	0x4
 1526 0619 09       		.uleb128 0x9
 1527 061a 20000000 		.4byte	.LASF104
 1528 061e 08       		.byte	0x8
 1529 061f 4302     		.2byte	0x243
 1530 0621 E9000000 		.4byte	0xe9
 1531 0625 08       		.byte	0x8
 1532 0626 09       		.uleb128 0x9
 1533 0627 A4030000 		.4byte	.LASF105
ARM GAS  /tmp/ccVOxwUj.s 			page 28


 1534 062b 08       		.byte	0x8
 1535 062c 4402     		.2byte	0x244
 1536 062e E9000000 		.4byte	0xe9
 1537 0632 0C       		.byte	0xc
 1538 0633 08       		.uleb128 0x8
 1539 0634 445200   		.ascii	"DR\000"
 1540 0637 08       		.byte	0x8
 1541 0638 4502     		.2byte	0x245
 1542 063a E9000000 		.4byte	0xe9
 1543 063e 10       		.byte	0x10
 1544 063f 08       		.uleb128 0x8
 1545 0640 53523100 		.ascii	"SR1\000"
 1546 0644 08       		.byte	0x8
 1547 0645 4602     		.2byte	0x246
 1548 0647 E9000000 		.4byte	0xe9
 1549 064b 14       		.byte	0x14
 1550 064c 08       		.uleb128 0x8
 1551 064d 53523200 		.ascii	"SR2\000"
 1552 0651 08       		.byte	0x8
 1553 0652 4702     		.2byte	0x247
 1554 0654 E9000000 		.4byte	0xe9
 1555 0658 18       		.byte	0x18
 1556 0659 08       		.uleb128 0x8
 1557 065a 43435200 		.ascii	"CCR\000"
 1558 065e 08       		.byte	0x8
 1559 065f 4802     		.2byte	0x248
 1560 0661 E9000000 		.4byte	0xe9
 1561 0665 1C       		.byte	0x1c
 1562 0666 09       		.uleb128 0x9
 1563 0667 A4040000 		.4byte	.LASF106
 1564 066b 08       		.byte	0x8
 1565 066c 4902     		.2byte	0x249
 1566 066e E9000000 		.4byte	0xe9
 1567 0672 20       		.byte	0x20
 1568 0673 09       		.uleb128 0x9
 1569 0674 ED050000 		.4byte	.LASF107
 1570 0678 08       		.byte	0x8
 1571 0679 4A02     		.2byte	0x24a
 1572 067b E9000000 		.4byte	0xe9
 1573 067f 24       		.byte	0x24
 1574 0680 00       		.byte	0
 1575 0681 13       		.uleb128 0x13
 1576 0682 2F080000 		.4byte	.LASF108
 1577 0686 08       		.byte	0x8
 1578 0687 4B02     		.2byte	0x24b
 1579 0689 F6050000 		.4byte	0x5f6
 1580 068d 14       		.uleb128 0x14
 1581 068e 01       		.byte	0x1
 1582 068f 09       		.byte	0x9
 1583 0690 A8       		.byte	0xa8
 1584 0691 A2060000 		.4byte	0x6a2
 1585 0695 15       		.uleb128 0x15
 1586 0696 06040000 		.4byte	.LASF109
 1587 069a 00       		.sleb128 0
 1588 069b 15       		.uleb128 0x15
 1589 069c 4F070000 		.4byte	.LASF110
 1590 06a0 01       		.sleb128 1
ARM GAS  /tmp/ccVOxwUj.s 			page 29


 1591 06a1 00       		.byte	0
 1592 06a2 03       		.uleb128 0x3
 1593 06a3 5E000000 		.4byte	.LASF111
 1594 06a7 09       		.byte	0x9
 1595 06a8 AB       		.byte	0xab
 1596 06a9 8D060000 		.4byte	0x68d
 1597 06ad 03       		.uleb128 0x3
 1598 06ae 4E000000 		.4byte	.LASF112
 1599 06b2 0A       		.byte	0xa
 1600 06b3 65       		.byte	0x65
 1601 06b4 54030000 		.4byte	0x354
 1602 06b8 03       		.uleb128 0x3
 1603 06b9 D9080000 		.4byte	.LASF113
 1604 06bd 0A       		.byte	0xa
 1605 06be 6D       		.byte	0x6d
 1606 06bf CE000000 		.4byte	0xce
 1607 06c3 06       		.uleb128 0x6
 1608 06c4 36050000 		.4byte	.LASF114
 1609 06c8 04       		.byte	0x4
 1610 06c9 0A       		.byte	0xa
 1611 06ca 89       		.byte	0x89
 1612 06cb DC060000 		.4byte	0x6dc
 1613 06cf 11       		.uleb128 0x11
 1614 06d0 72313300 		.ascii	"r13\000"
 1615 06d4 0A       		.byte	0xa
 1616 06d5 8A       		.byte	0x8a
 1617 06d6 1D080000 		.4byte	0x81d
 1618 06da 00       		.byte	0
 1619 06db 00       		.byte	0
 1620 06dc 06       		.uleb128 0x6
 1621 06dd BE060000 		.4byte	.LASF115
 1622 06e1 64       		.byte	0x64
 1623 06e2 0B       		.byte	0xb
 1624 06e3 F4       		.byte	0xf4
 1625 06e4 1D080000 		.4byte	0x81d
 1626 06e8 11       		.uleb128 0x11
 1627 06e9 73313600 		.ascii	"s16\000"
 1628 06ed 0B       		.byte	0xb
 1629 06ee F6       		.byte	0xf6
 1630 06ef AD060000 		.4byte	0x6ad
 1631 06f3 00       		.byte	0
 1632 06f4 11       		.uleb128 0x11
 1633 06f5 73313700 		.ascii	"s17\000"
 1634 06f9 0B       		.byte	0xb
 1635 06fa F7       		.byte	0xf7
 1636 06fb AD060000 		.4byte	0x6ad
 1637 06ff 04       		.byte	0x4
 1638 0700 11       		.uleb128 0x11
 1639 0701 73313800 		.ascii	"s18\000"
 1640 0705 0B       		.byte	0xb
 1641 0706 F8       		.byte	0xf8
 1642 0707 AD060000 		.4byte	0x6ad
 1643 070b 08       		.byte	0x8
 1644 070c 11       		.uleb128 0x11
 1645 070d 73313900 		.ascii	"s19\000"
 1646 0711 0B       		.byte	0xb
 1647 0712 F9       		.byte	0xf9
ARM GAS  /tmp/ccVOxwUj.s 			page 30


 1648 0713 AD060000 		.4byte	0x6ad
 1649 0717 0C       		.byte	0xc
 1650 0718 11       		.uleb128 0x11
 1651 0719 73323000 		.ascii	"s20\000"
 1652 071d 0B       		.byte	0xb
 1653 071e FA       		.byte	0xfa
 1654 071f AD060000 		.4byte	0x6ad
 1655 0723 10       		.byte	0x10
 1656 0724 11       		.uleb128 0x11
 1657 0725 73323100 		.ascii	"s21\000"
 1658 0729 0B       		.byte	0xb
 1659 072a FB       		.byte	0xfb
 1660 072b AD060000 		.4byte	0x6ad
 1661 072f 14       		.byte	0x14
 1662 0730 11       		.uleb128 0x11
 1663 0731 73323200 		.ascii	"s22\000"
 1664 0735 0B       		.byte	0xb
 1665 0736 FC       		.byte	0xfc
 1666 0737 AD060000 		.4byte	0x6ad
 1667 073b 18       		.byte	0x18
 1668 073c 11       		.uleb128 0x11
 1669 073d 73323300 		.ascii	"s23\000"
 1670 0741 0B       		.byte	0xb
 1671 0742 FD       		.byte	0xfd
 1672 0743 AD060000 		.4byte	0x6ad
 1673 0747 1C       		.byte	0x1c
 1674 0748 11       		.uleb128 0x11
 1675 0749 73323400 		.ascii	"s24\000"
 1676 074d 0B       		.byte	0xb
 1677 074e FE       		.byte	0xfe
 1678 074f AD060000 		.4byte	0x6ad
 1679 0753 20       		.byte	0x20
 1680 0754 11       		.uleb128 0x11
 1681 0755 73323500 		.ascii	"s25\000"
 1682 0759 0B       		.byte	0xb
 1683 075a FF       		.byte	0xff
 1684 075b AD060000 		.4byte	0x6ad
 1685 075f 24       		.byte	0x24
 1686 0760 08       		.uleb128 0x8
 1687 0761 73323600 		.ascii	"s26\000"
 1688 0765 0B       		.byte	0xb
 1689 0766 0001     		.2byte	0x100
 1690 0768 AD060000 		.4byte	0x6ad
 1691 076c 28       		.byte	0x28
 1692 076d 08       		.uleb128 0x8
 1693 076e 73323700 		.ascii	"s27\000"
 1694 0772 0B       		.byte	0xb
 1695 0773 0101     		.2byte	0x101
 1696 0775 AD060000 		.4byte	0x6ad
 1697 0779 2C       		.byte	0x2c
 1698 077a 08       		.uleb128 0x8
 1699 077b 73323800 		.ascii	"s28\000"
 1700 077f 0B       		.byte	0xb
 1701 0780 0201     		.2byte	0x102
 1702 0782 AD060000 		.4byte	0x6ad
 1703 0786 30       		.byte	0x30
 1704 0787 08       		.uleb128 0x8
ARM GAS  /tmp/ccVOxwUj.s 			page 31


 1705 0788 73323900 		.ascii	"s29\000"
 1706 078c 0B       		.byte	0xb
 1707 078d 0301     		.2byte	0x103
 1708 078f AD060000 		.4byte	0x6ad
 1709 0793 34       		.byte	0x34
 1710 0794 08       		.uleb128 0x8
 1711 0795 73333000 		.ascii	"s30\000"
 1712 0799 0B       		.byte	0xb
 1713 079a 0401     		.2byte	0x104
 1714 079c AD060000 		.4byte	0x6ad
 1715 07a0 38       		.byte	0x38
 1716 07a1 08       		.uleb128 0x8
 1717 07a2 73333100 		.ascii	"s31\000"
 1718 07a6 0B       		.byte	0xb
 1719 07a7 0501     		.2byte	0x105
 1720 07a9 AD060000 		.4byte	0x6ad
 1721 07ad 3C       		.byte	0x3c
 1722 07ae 08       		.uleb128 0x8
 1723 07af 723400   		.ascii	"r4\000"
 1724 07b2 0B       		.byte	0xb
 1725 07b3 0701     		.2byte	0x107
 1726 07b5 AD060000 		.4byte	0x6ad
 1727 07b9 40       		.byte	0x40
 1728 07ba 08       		.uleb128 0x8
 1729 07bb 723500   		.ascii	"r5\000"
 1730 07be 0B       		.byte	0xb
 1731 07bf 0801     		.2byte	0x108
 1732 07c1 AD060000 		.4byte	0x6ad
 1733 07c5 44       		.byte	0x44
 1734 07c6 08       		.uleb128 0x8
 1735 07c7 723600   		.ascii	"r6\000"
 1736 07ca 0B       		.byte	0xb
 1737 07cb 0901     		.2byte	0x109
 1738 07cd AD060000 		.4byte	0x6ad
 1739 07d1 48       		.byte	0x48
 1740 07d2 08       		.uleb128 0x8
 1741 07d3 723700   		.ascii	"r7\000"
 1742 07d6 0B       		.byte	0xb
 1743 07d7 0A01     		.2byte	0x10a
 1744 07d9 AD060000 		.4byte	0x6ad
 1745 07dd 4C       		.byte	0x4c
 1746 07de 08       		.uleb128 0x8
 1747 07df 723800   		.ascii	"r8\000"
 1748 07e2 0B       		.byte	0xb
 1749 07e3 0B01     		.2byte	0x10b
 1750 07e5 AD060000 		.4byte	0x6ad
 1751 07e9 50       		.byte	0x50
 1752 07ea 08       		.uleb128 0x8
 1753 07eb 723900   		.ascii	"r9\000"
 1754 07ee 0B       		.byte	0xb
 1755 07ef 0C01     		.2byte	0x10c
 1756 07f1 AD060000 		.4byte	0x6ad
 1757 07f5 54       		.byte	0x54
 1758 07f6 08       		.uleb128 0x8
 1759 07f7 72313000 		.ascii	"r10\000"
 1760 07fb 0B       		.byte	0xb
 1761 07fc 0D01     		.2byte	0x10d
ARM GAS  /tmp/ccVOxwUj.s 			page 32


 1762 07fe AD060000 		.4byte	0x6ad
 1763 0802 58       		.byte	0x58
 1764 0803 08       		.uleb128 0x8
 1765 0804 72313100 		.ascii	"r11\000"
 1766 0808 0B       		.byte	0xb
 1767 0809 0E01     		.2byte	0x10e
 1768 080b AD060000 		.4byte	0x6ad
 1769 080f 5C       		.byte	0x5c
 1770 0810 08       		.uleb128 0x8
 1771 0811 6C7200   		.ascii	"lr\000"
 1772 0814 0B       		.byte	0xb
 1773 0815 0F01     		.2byte	0x10f
 1774 0817 AD060000 		.4byte	0x6ad
 1775 081b 60       		.byte	0x60
 1776 081c 00       		.byte	0
 1777 081d 0A       		.uleb128 0xa
 1778 081e 04       		.byte	0x4
 1779 081f DC060000 		.4byte	0x6dc
 1780 0823 10       		.uleb128 0x10
 1781 0824 04       		.byte	0x4
 1782 0825 0C       		.byte	0xc
 1783 0826 38       		.byte	0x38
 1784 0827 38080000 		.4byte	0x838
 1785 082b 07       		.uleb128 0x7
 1786 082c 89030000 		.4byte	.LASF116
 1787 0830 0C       		.byte	0xc
 1788 0831 3C       		.byte	0x3c
 1789 0832 EE000000 		.4byte	0xee
 1790 0836 00       		.byte	0
 1791 0837 00       		.byte	0
 1792 0838 03       		.uleb128 0x3
 1793 0839 2C000000 		.4byte	.LASF117
 1794 083d 0C       		.byte	0xc
 1795 083e 3D       		.byte	0x3d
 1796 083f 23080000 		.4byte	0x823
 1797 0843 16       		.uleb128 0x16
 1798 0844 04       		.byte	0x4
 1799 0845 07       		.byte	0x7
 1800 0846 FA       		.byte	0xfa
 1801 0847 A0080000 		.4byte	0x8a0
 1802 084b 17       		.uleb128 0x17
 1803 084c 82030000 		.4byte	.LASF118
 1804 0850 07       		.byte	0x7
 1805 0851 0101     		.2byte	0x101
 1806 0853 30010000 		.4byte	0x130
 1807 0857 17       		.uleb128 0x17
 1808 0858 1B090000 		.4byte	.LASF119
 1809 085c 07       		.byte	0x7
 1810 085d 0801     		.2byte	0x108
 1811 085f 30010000 		.4byte	0x130
 1812 0863 17       		.uleb128 0x17
 1813 0864 D5000000 		.4byte	.LASF120
 1814 0868 07       		.byte	0x7
 1815 0869 0F01     		.2byte	0x10f
 1816 086b 54030000 		.4byte	0x354
 1817 086f 17       		.uleb128 0x17
 1818 0870 15090000 		.4byte	.LASF121
ARM GAS  /tmp/ccVOxwUj.s 			page 33


 1819 0874 07       		.byte	0x7
 1820 0875 1601     		.2byte	0x116
 1821 0877 A0080000 		.4byte	0x8a0
 1822 087b 17       		.uleb128 0x17
 1823 087c BF070000 		.4byte	.LASF122
 1824 0880 07       		.byte	0x7
 1825 0881 1E01     		.2byte	0x11e
 1826 0883 CB080000 		.4byte	0x8cb
 1827 0887 17       		.uleb128 0x17
 1828 0888 25000000 		.4byte	.LASF123
 1829 088c 07       		.byte	0x7
 1830 088d 2701     		.2byte	0x127
 1831 088f 02090000 		.4byte	0x902
 1832 0893 17       		.uleb128 0x17
 1833 0894 12010000 		.4byte	.LASF124
 1834 0898 07       		.byte	0x7
 1835 0899 2F01     		.2byte	0x12f
 1836 089b 3B010000 		.4byte	0x13b
 1837 089f 00       		.byte	0
 1838 08a0 0A       		.uleb128 0xa
 1839 08a1 04       		.byte	0x4
 1840 08a2 6C020000 		.4byte	0x26c
 1841 08a6 06       		.uleb128 0x6
 1842 08a7 8B010000 		.4byte	.LASF125
 1843 08ab 0C       		.byte	0xc
 1844 08ac 0D       		.byte	0xd
 1845 08ad 34       		.byte	0x34
 1846 08ae CB080000 		.4byte	0x8cb
 1847 08b2 07       		.uleb128 0x7
 1848 08b3 74000000 		.4byte	.LASF126
 1849 08b7 0D       		.byte	0xd
 1850 08b8 35       		.byte	0x35
 1851 08b9 A1020000 		.4byte	0x2a1
 1852 08bd 00       		.byte	0
 1853 08be 07       		.uleb128 0x7
 1854 08bf 22010000 		.4byte	.LASF127
 1855 08c3 0D       		.byte	0xd
 1856 08c4 37       		.byte	0x37
 1857 08c5 46010000 		.4byte	0x146
 1858 08c9 08       		.byte	0x8
 1859 08ca 00       		.byte	0
 1860 08cb 0A       		.uleb128 0xa
 1861 08cc 04       		.byte	0x4
 1862 08cd A6080000 		.4byte	0x8a6
 1863 08d1 06       		.uleb128 0x6
 1864 08d2 A9030000 		.4byte	.LASF128
 1865 08d6 10       		.byte	0x10
 1866 08d7 0E       		.byte	0xe
 1867 08d8 39       		.byte	0x39
 1868 08d9 02090000 		.4byte	0x902
 1869 08dd 07       		.uleb128 0x7
 1870 08de AD060000 		.4byte	.LASF129
 1871 08e2 0E       		.byte	0xe
 1872 08e3 3A       		.byte	0x3a
 1873 08e4 A1020000 		.4byte	0x2a1
 1874 08e8 00       		.byte	0
 1875 08e9 07       		.uleb128 0x7
ARM GAS  /tmp/ccVOxwUj.s 			page 34


 1876 08ea 9C030000 		.4byte	.LASF130
 1877 08ee 0E       		.byte	0xe
 1878 08ef 3C       		.byte	0x3c
 1879 08f0 77020000 		.4byte	0x277
 1880 08f4 08       		.byte	0x8
 1881 08f5 07       		.uleb128 0x7
 1882 08f6 AD080000 		.4byte	.LASF131
 1883 08fa 0E       		.byte	0xe
 1884 08fb 3E       		.byte	0x3e
 1885 08fc 45090000 		.4byte	0x945
 1886 0900 0C       		.byte	0xc
 1887 0901 00       		.byte	0
 1888 0902 0A       		.uleb128 0xa
 1889 0903 04       		.byte	0x4
 1890 0904 D1080000 		.4byte	0x8d1
 1891 0908 0A       		.uleb128 0xa
 1892 0909 04       		.byte	0x4
 1893 090a 0E090000 		.4byte	0x90e
 1894 090e 18       		.uleb128 0x18
 1895 090f 13090000 		.4byte	0x913
 1896 0913 02       		.uleb128 0x2
 1897 0914 01       		.byte	0x1
 1898 0915 08       		.byte	0x8
 1899 0916 49000000 		.4byte	.LASF132
 1900 091a 05       		.uleb128 0x5
 1901 091b 51010000 		.4byte	0x151
 1902 091f 0A       		.uleb128 0xa
 1903 0920 04       		.byte	0x4
 1904 0921 56030000 		.4byte	0x356
 1905 0925 05       		.uleb128 0x5
 1906 0926 08090000 		.4byte	0x908
 1907 092a 19       		.uleb128 0x19
 1908 092b B8060000 		.4byte	0x6b8
 1909 092f 3A090000 		.4byte	0x93a
 1910 0933 1A       		.uleb128 0x1a
 1911 0934 8A040000 		.4byte	0x48a
 1912 0938 3A       		.byte	0x3a
 1913 0939 00       		.byte	0
 1914 093a 03       		.uleb128 0x3
 1915 093b CF070000 		.4byte	.LASF133
 1916 093f 0E       		.byte	0xe
 1917 0940 34       		.byte	0x34
 1918 0941 D1080000 		.4byte	0x8d1
 1919 0945 0A       		.uleb128 0xa
 1920 0946 04       		.byte	0x4
 1921 0947 3A090000 		.4byte	0x93a
 1922 094b 02       		.uleb128 0x2
 1923 094c 04       		.byte	0x4
 1924 094d 04       		.byte	0x4
 1925 094e 7F010000 		.4byte	.LASF134
 1926 0952 02       		.uleb128 0x2
 1927 0953 01       		.byte	0x1
 1928 0954 02       		.byte	0x2
 1929 0955 90030000 		.4byte	.LASF135
 1930 0959 10       		.uleb128 0x10
 1931 095a 0C       		.byte	0xc
 1932 095b 0F       		.byte	0xf
ARM GAS  /tmp/ccVOxwUj.s 			page 35


 1933 095c DA       		.byte	0xda
 1934 095d 9E090000 		.4byte	0x99e
 1935 0961 07       		.uleb128 0x7
 1936 0962 5F090000 		.4byte	.LASF136
 1937 0966 0F       		.byte	0xf
 1938 0967 DB       		.byte	0xdb
 1939 0968 9E090000 		.4byte	0x99e
 1940 096c 00       		.byte	0
 1941 096d 07       		.uleb128 0x7
 1942 096e 73010000 		.4byte	.LASF137
 1943 0972 0F       		.byte	0xf
 1944 0973 DC       		.byte	0xdc
 1945 0974 A4090000 		.4byte	0x9a4
 1946 0978 04       		.byte	0x4
 1947 0979 07       		.uleb128 0x7
 1948 097a 37040000 		.4byte	.LASF138
 1949 097e 0F       		.byte	0xf
 1950 097f DD       		.byte	0xdd
 1951 0980 A2000000 		.4byte	0xa2
 1952 0984 08       		.byte	0x8
 1953 0985 07       		.uleb128 0x7
 1954 0986 24090000 		.4byte	.LASF139
 1955 098a 0F       		.byte	0xf
 1956 098b DF       		.byte	0xdf
 1957 098c A2000000 		.4byte	0xa2
 1958 0990 09       		.byte	0x9
 1959 0991 07       		.uleb128 0x7
 1960 0992 DD010000 		.4byte	.LASF140
 1961 0996 0F       		.byte	0xf
 1962 0997 E0       		.byte	0xe0
 1963 0998 A2000000 		.4byte	0xa2
 1964 099c 0A       		.byte	0xa
 1965 099d 00       		.byte	0
 1966 099e 0A       		.uleb128 0xa
 1967 099f 04       		.byte	0x4
 1968 09a0 EA050000 		.4byte	0x5ea
 1969 09a4 0A       		.uleb128 0xa
 1970 09a5 04       		.byte	0x4
 1971 09a6 E9000000 		.4byte	0xe9
 1972 09aa 03       		.uleb128 0x3
 1973 09ab 5E040000 		.4byte	.LASF141
 1974 09af 0F       		.byte	0xf
 1975 09b0 E1       		.byte	0xe1
 1976 09b1 59090000 		.4byte	0x959
 1977 09b5 10       		.uleb128 0x10
 1978 09b6 04       		.byte	0x4
 1979 09b7 10       		.byte	0x10
 1980 09b8 B3       		.byte	0xb3
 1981 09b9 D6090000 		.4byte	0x9d6
 1982 09bd 11       		.uleb128 0x11
 1983 09be 73657400 		.ascii	"set\000"
 1984 09c2 10       		.byte	0x10
 1985 09c3 B4       		.byte	0xb4
 1986 09c4 AD000000 		.4byte	0xad
 1987 09c8 00       		.byte	0
 1988 09c9 07       		.uleb128 0x7
 1989 09ca 41020000 		.4byte	.LASF142
ARM GAS  /tmp/ccVOxwUj.s 			page 36


 1990 09ce 10       		.byte	0x10
 1991 09cf B5       		.byte	0xb5
 1992 09d0 AD000000 		.4byte	0xad
 1993 09d4 02       		.byte	0x2
 1994 09d5 00       		.byte	0
 1995 09d6 16       		.uleb128 0x16
 1996 09d7 04       		.byte	0x4
 1997 09d8 10       		.byte	0x10
 1998 09d9 B1       		.byte	0xb1
 1999 09da F1090000 		.4byte	0x9f1
 2000 09de 1B       		.uleb128 0x1b
 2001 09df 5700     		.ascii	"W\000"
 2002 09e1 10       		.byte	0x10
 2003 09e2 B2       		.byte	0xb2
 2004 09e3 C3000000 		.4byte	0xc3
 2005 09e7 1B       		.uleb128 0x1b
 2006 09e8 4800     		.ascii	"H\000"
 2007 09ea 10       		.byte	0x10
 2008 09eb B6       		.byte	0xb6
 2009 09ec B5090000 		.4byte	0x9b5
 2010 09f0 00       		.byte	0
 2011 09f1 10       		.uleb128 0x10
 2012 09f2 2C       		.byte	0x2c
 2013 09f3 10       		.byte	0x10
 2014 09f4 A9       		.byte	0xa9
 2015 09f5 7E0A0000 		.4byte	0xa7e
 2016 09f9 07       		.uleb128 0x7
 2017 09fa 1C020000 		.4byte	.LASF143
 2018 09fe 10       		.byte	0x10
 2019 09ff AB       		.byte	0xab
 2020 0a00 E9000000 		.4byte	0xe9
 2021 0a04 00       		.byte	0
 2022 0a05 07       		.uleb128 0x7
 2023 0a06 02070000 		.4byte	.LASF144
 2024 0a0a 10       		.byte	0x10
 2025 0a0b AC       		.byte	0xac
 2026 0a0c E9000000 		.4byte	0xe9
 2027 0a10 04       		.byte	0x4
 2028 0a11 07       		.uleb128 0x7
 2029 0a12 34060000 		.4byte	.LASF145
 2030 0a16 10       		.byte	0x10
 2031 0a17 AD       		.byte	0xad
 2032 0a18 E9000000 		.4byte	0xe9
 2033 0a1c 08       		.byte	0x8
 2034 0a1d 07       		.uleb128 0x7
 2035 0a1e 96030000 		.4byte	.LASF146
 2036 0a22 10       		.byte	0x10
 2037 0a23 AE       		.byte	0xae
 2038 0a24 E9000000 		.4byte	0xe9
 2039 0a28 0C       		.byte	0xc
 2040 0a29 11       		.uleb128 0x11
 2041 0a2a 49445200 		.ascii	"IDR\000"
 2042 0a2e 10       		.byte	0x10
 2043 0a2f AF       		.byte	0xaf
 2044 0a30 E9000000 		.4byte	0xe9
 2045 0a34 10       		.byte	0x10
 2046 0a35 11       		.uleb128 0x11
ARM GAS  /tmp/ccVOxwUj.s 			page 37


 2047 0a36 4F445200 		.ascii	"ODR\000"
 2048 0a3a 10       		.byte	0x10
 2049 0a3b B0       		.byte	0xb0
 2050 0a3c E9000000 		.4byte	0xe9
 2051 0a40 14       		.byte	0x14
 2052 0a41 07       		.uleb128 0x7
 2053 0a42 44000000 		.4byte	.LASF147
 2054 0a46 10       		.byte	0x10
 2055 0a47 B7       		.byte	0xb7
 2056 0a48 7E0A0000 		.4byte	0xa7e
 2057 0a4c 18       		.byte	0x18
 2058 0a4d 07       		.uleb128 0x7
 2059 0a4e 47090000 		.4byte	.LASF148
 2060 0a52 10       		.byte	0x10
 2061 0a53 B8       		.byte	0xb8
 2062 0a54 E9000000 		.4byte	0xe9
 2063 0a58 1C       		.byte	0x1c
 2064 0a59 07       		.uleb128 0x7
 2065 0a5a 34020000 		.4byte	.LASF149
 2066 0a5e 10       		.byte	0x10
 2067 0a5f B9       		.byte	0xb9
 2068 0a60 E9000000 		.4byte	0xe9
 2069 0a64 20       		.byte	0x20
 2070 0a65 07       		.uleb128 0x7
 2071 0a66 22020000 		.4byte	.LASF150
 2072 0a6a 10       		.byte	0x10
 2073 0a6b BA       		.byte	0xba
 2074 0a6c E9000000 		.4byte	0xe9
 2075 0a70 24       		.byte	0x24
 2076 0a71 11       		.uleb128 0x11
 2077 0a72 42525200 		.ascii	"BRR\000"
 2078 0a76 10       		.byte	0x10
 2079 0a77 BB       		.byte	0xbb
 2080 0a78 E9000000 		.4byte	0xe9
 2081 0a7c 28       		.byte	0x28
 2082 0a7d 00       		.byte	0
 2083 0a7e 05       		.uleb128 0x5
 2084 0a7f D6090000 		.4byte	0x9d6
 2085 0a83 03       		.uleb128 0x3
 2086 0a84 27020000 		.4byte	.LASF151
 2087 0a88 10       		.byte	0x10
 2088 0a89 BC       		.byte	0xbc
 2089 0a8a F1090000 		.4byte	0x9f1
 2090 0a8e 13       		.uleb128 0x13
 2091 0a8f 3E050000 		.4byte	.LASF152
 2092 0a93 10       		.byte	0x10
 2093 0a94 0E01     		.2byte	0x10e
 2094 0a96 C3000000 		.4byte	0xc3
 2095 0a9a 13       		.uleb128 0x13
 2096 0a9b A4080000 		.4byte	.LASF153
 2097 0a9f 10       		.byte	0x10
 2098 0aa0 1301     		.2byte	0x113
 2099 0aa2 C3000000 		.4byte	0xc3
 2100 0aa6 13       		.uleb128 0x13
 2101 0aa7 DC030000 		.4byte	.LASF154
 2102 0aab 10       		.byte	0x10
 2103 0aac 1B01     		.2byte	0x11b
ARM GAS  /tmp/ccVOxwUj.s 			page 38


 2104 0aae B20A0000 		.4byte	0xab2
 2105 0ab2 0A       		.uleb128 0xa
 2106 0ab3 04       		.byte	0x4
 2107 0ab4 830A0000 		.4byte	0xa83
 2108 0ab8 14       		.uleb128 0x14
 2109 0ab9 01       		.byte	0x1
 2110 0aba 11       		.byte	0x11
 2111 0abb 4C       		.byte	0x4c
 2112 0abc E50A0000 		.4byte	0xae5
 2113 0ac0 15       		.uleb128 0x15
 2114 0ac1 25050000 		.4byte	.LASF155
 2115 0ac5 00       		.sleb128 0
 2116 0ac6 15       		.uleb128 0x15
 2117 0ac7 C6070000 		.4byte	.LASF156
 2118 0acb 01       		.sleb128 1
 2119 0acc 15       		.uleb128 0x15
 2120 0acd 68060000 		.4byte	.LASF157
 2121 0ad1 02       		.sleb128 2
 2122 0ad2 15       		.uleb128 0x15
 2123 0ad3 52010000 		.4byte	.LASF158
 2124 0ad7 03       		.sleb128 3
 2125 0ad8 15       		.uleb128 0x15
 2126 0ad9 87000000 		.4byte	.LASF159
 2127 0add 04       		.sleb128 4
 2128 0ade 15       		.uleb128 0x15
 2129 0adf E1060000 		.4byte	.LASF160
 2130 0ae3 05       		.sleb128 5
 2131 0ae4 00       		.byte	0
 2132 0ae5 03       		.uleb128 0x3
 2133 0ae6 F2050000 		.4byte	.LASF161
 2134 0aea 11       		.byte	0x11
 2135 0aeb 53       		.byte	0x53
 2136 0aec B80A0000 		.4byte	0xab8
 2137 0af0 13       		.uleb128 0x13
 2138 0af1 CA060000 		.4byte	.LASF162
 2139 0af5 12       		.byte	0x12
 2140 0af6 6A01     		.2byte	0x16a
 2141 0af8 AD000000 		.4byte	0xad
 2142 0afc 13       		.uleb128 0x13
 2143 0afd 6D020000 		.4byte	.LASF163
 2144 0b01 12       		.byte	0x12
 2145 0b02 6F01     		.2byte	0x16f
 2146 0b04 C3000000 		.4byte	0xc3
 2147 0b08 1C       		.uleb128 0x1c
 2148 0b09 01       		.byte	0x1
 2149 0b0a 12       		.byte	0x12
 2150 0b0b 7401     		.2byte	0x174
 2151 0b0d 240B0000 		.4byte	0xb24
 2152 0b11 15       		.uleb128 0x15
 2153 0b12 47010000 		.4byte	.LASF164
 2154 0b16 01       		.sleb128 1
 2155 0b17 15       		.uleb128 0x15
 2156 0b18 A4070000 		.4byte	.LASF165
 2157 0b1c 02       		.sleb128 2
 2158 0b1d 15       		.uleb128 0x15
 2159 0b1e 03050000 		.4byte	.LASF166
 2160 0b22 03       		.sleb128 3
ARM GAS  /tmp/ccVOxwUj.s 			page 39


 2161 0b23 00       		.byte	0
 2162 0b24 13       		.uleb128 0x13
 2163 0b25 50080000 		.4byte	.LASF167
 2164 0b29 12       		.byte	0x12
 2165 0b2a 7801     		.2byte	0x178
 2166 0b2c 080B0000 		.4byte	0xb08
 2167 0b30 1C       		.uleb128 0x1c
 2168 0b31 01       		.byte	0x1
 2169 0b32 12       		.byte	0x12
 2170 0b33 7D01     		.2byte	0x17d
 2171 0b35 4C0B0000 		.4byte	0xb4c
 2172 0b39 15       		.uleb128 0x15
 2173 0b3a BD030000 		.4byte	.LASF168
 2174 0b3e 01       		.sleb128 1
 2175 0b3f 15       		.uleb128 0x15
 2176 0b40 FD050000 		.4byte	.LASF169
 2177 0b44 02       		.sleb128 2
 2178 0b45 15       		.uleb128 0x15
 2179 0b46 87040000 		.4byte	.LASF170
 2180 0b4a 03       		.sleb128 3
 2181 0b4b 00       		.byte	0
 2182 0b4c 13       		.uleb128 0x13
 2183 0b4d 5E020000 		.4byte	.LASF171
 2184 0b51 12       		.byte	0x12
 2185 0b52 8101     		.2byte	0x181
 2186 0b54 300B0000 		.4byte	0xb30
 2187 0b58 12       		.uleb128 0x12
 2188 0b59 0C       		.byte	0xc
 2189 0b5a 12       		.byte	0x12
 2190 0b5b 8601     		.2byte	0x186
 2191 0b5d 890B0000 		.4byte	0xb89
 2192 0b61 09       		.uleb128 0x9
 2193 0b62 60060000 		.4byte	.LASF172
 2194 0b66 12       		.byte	0x12
 2195 0b67 8801     		.2byte	0x188
 2196 0b69 240B0000 		.4byte	0xb24
 2197 0b6d 00       		.byte	0
 2198 0b6e 09       		.uleb128 0x9
 2199 0b6f CA050000 		.4byte	.LASF173
 2200 0b73 12       		.byte	0x12
 2201 0b74 8901     		.2byte	0x189
 2202 0b76 C3000000 		.4byte	0xc3
 2203 0b7a 04       		.byte	0x4
 2204 0b7b 09       		.uleb128 0x9
 2205 0b7c CC030000 		.4byte	.LASF174
 2206 0b80 12       		.byte	0x12
 2207 0b81 8C01     		.2byte	0x18c
 2208 0b83 4C0B0000 		.4byte	0xb4c
 2209 0b87 08       		.byte	0x8
 2210 0b88 00       		.byte	0
 2211 0b89 13       		.uleb128 0x13
 2212 0b8a 12020000 		.4byte	.LASF175
 2213 0b8e 12       		.byte	0x12
 2214 0b8f 8E01     		.2byte	0x18e
 2215 0b91 580B0000 		.4byte	0xb58
 2216 0b95 13       		.uleb128 0x13
 2217 0b96 A2000000 		.4byte	.LASF176
ARM GAS  /tmp/ccVOxwUj.s 			page 40


 2218 0b9a 12       		.byte	0x12
 2219 0b9b 9301     		.2byte	0x193
 2220 0b9d A10B0000 		.4byte	0xba1
 2221 0ba1 0B       		.uleb128 0xb
 2222 0ba2 A2000000 		.4byte	.LASF176
 2223 0ba6 38       		.byte	0x38
 2224 0ba7 12       		.byte	0x12
 2225 0ba8 9801     		.2byte	0x198
 2226 0baa 3E0C0000 		.4byte	0xc3e
 2227 0bae 09       		.uleb128 0x9
 2228 0baf 61080000 		.4byte	.LASF177
 2229 0bb3 12       		.byte	0x12
 2230 0bb4 9C01     		.2byte	0x19c
 2231 0bb6 E50A0000 		.4byte	0xae5
 2232 0bba 00       		.byte	0
 2233 0bbb 09       		.uleb128 0x9
 2234 0bbc 72060000 		.4byte	.LASF178
 2235 0bc0 12       		.byte	0x12
 2236 0bc1 A001     		.2byte	0x1a0
 2237 0bc3 3E0C0000 		.4byte	0xc3e
 2238 0bc7 04       		.byte	0x4
 2239 0bc8 09       		.uleb128 0x9
 2240 0bc9 E4010000 		.4byte	.LASF179
 2241 0bcd 12       		.byte	0x12
 2242 0bce A401     		.2byte	0x1a4
 2243 0bd0 FC0A0000 		.4byte	0xafc
 2244 0bd4 08       		.byte	0x8
 2245 0bd5 09       		.uleb128 0x9
 2246 0bd6 85010000 		.4byte	.LASF180
 2247 0bda 12       		.byte	0x12
 2248 0bdb A901     		.2byte	0x1a9
 2249 0bdd 3A090000 		.4byte	0x93a
 2250 0be1 0C       		.byte	0xc
 2251 0be2 09       		.uleb128 0x9
 2252 0be3 B8070000 		.4byte	.LASF181
 2253 0be7 12       		.byte	0x12
 2254 0be8 B201     		.2byte	0x1b2
 2255 0bea 6C020000 		.4byte	0x26c
 2256 0bee 1C       		.byte	0x1c
 2257 0bef 09       		.uleb128 0x9
 2258 0bf0 5C080000 		.4byte	.LASF182
 2259 0bf4 12       		.byte	0x12
 2260 0bf5 B601     		.2byte	0x1b6
 2261 0bf7 F00A0000 		.4byte	0xaf0
 2262 0bfb 20       		.byte	0x20
 2263 0bfc 09       		.uleb128 0x9
 2264 0bfd 25080000 		.4byte	.LASF183
 2265 0c01 12       		.byte	0x12
 2266 0c02 BA01     		.2byte	0x1ba
 2267 0c04 C3000000 		.4byte	0xc3
 2268 0c08 24       		.byte	0x24
 2269 0c09 09       		.uleb128 0x9
 2270 0c0a 2D040000 		.4byte	.LASF184
 2271 0c0e 12       		.byte	0x12
 2272 0c0f BE01     		.2byte	0x1be
 2273 0c11 C3000000 		.4byte	0xc3
 2274 0c15 28       		.byte	0x28
ARM GAS  /tmp/ccVOxwUj.s 			page 41


 2275 0c16 09       		.uleb128 0x9
 2276 0c17 6E000000 		.4byte	.LASF185
 2277 0c1b 12       		.byte	0x12
 2278 0c1c C201     		.2byte	0x1c2
 2279 0c1e 490C0000 		.4byte	0xc49
 2280 0c22 2C       		.byte	0x2c
 2281 0c23 09       		.uleb128 0x9
 2282 0c24 38010000 		.4byte	.LASF186
 2283 0c28 12       		.byte	0x12
 2284 0c29 C601     		.2byte	0x1c6
 2285 0c2b 490C0000 		.4byte	0xc49
 2286 0c2f 30       		.byte	0x30
 2287 0c30 08       		.uleb128 0x8
 2288 0c31 69326300 		.ascii	"i2c\000"
 2289 0c35 12       		.byte	0x12
 2290 0c36 CA01     		.2byte	0x1ca
 2291 0c38 540C0000 		.4byte	0xc54
 2292 0c3c 34       		.byte	0x34
 2293 0c3d 00       		.byte	0
 2294 0c3e 0A       		.uleb128 0xa
 2295 0c3f 04       		.byte	0x4
 2296 0c40 440C0000 		.4byte	0xc44
 2297 0c44 18       		.uleb128 0x18
 2298 0c45 890B0000 		.4byte	0xb89
 2299 0c49 0A       		.uleb128 0xa
 2300 0c4a 04       		.byte	0x4
 2301 0c4b 4F0C0000 		.4byte	0xc4f
 2302 0c4f 18       		.uleb128 0x18
 2303 0c50 AA090000 		.4byte	0x9aa
 2304 0c54 0A       		.uleb128 0xa
 2305 0c55 04       		.byte	0x4
 2306 0c56 81060000 		.4byte	0x681
 2307 0c5a 10       		.uleb128 0x10
 2308 0c5b 0C       		.byte	0xc
 2309 0c5c 13       		.byte	0x13
 2310 0c5d 8A       		.byte	0x8a
 2311 0c5e 930C0000 		.4byte	0xc93
 2312 0c62 11       		.uleb128 0x11
 2313 0c63 706F7300 		.ascii	"pos\000"
 2314 0c67 13       		.byte	0x13
 2315 0c68 8B       		.byte	0x8b
 2316 0c69 930C0000 		.4byte	0xc93
 2317 0c6d 00       		.byte	0
 2318 0c6e 07       		.uleb128 0x7
 2319 0c6f 89030000 		.4byte	.LASF116
 2320 0c73 13       		.byte	0x13
 2321 0c74 8C       		.byte	0x8c
 2322 0c75 980C0000 		.4byte	0xc98
 2323 0c79 02       		.byte	0x2
 2324 0c7a 07       		.uleb128 0x7
 2325 0c7b 01040000 		.4byte	.LASF187
 2326 0c7f 13       		.byte	0x13
 2327 0c80 8D       		.byte	0x8d
 2328 0c81 B20A0000 		.4byte	0xab2
 2329 0c85 04       		.byte	0x4
 2330 0c86 11       		.uleb128 0x11
 2331 0c87 70696E00 		.ascii	"pin\000"
ARM GAS  /tmp/ccVOxwUj.s 			page 42


 2332 0c8b 13       		.byte	0x13
 2333 0c8c 8E       		.byte	0x8e
 2334 0c8d 9D0C0000 		.4byte	0xc9d
 2335 0c91 08       		.byte	0x8
 2336 0c92 00       		.byte	0
 2337 0c93 05       		.uleb128 0x5
 2338 0c94 3E000000 		.4byte	0x3e
 2339 0c98 05       		.uleb128 0x5
 2340 0c99 37000000 		.4byte	0x37
 2341 0c9d 05       		.uleb128 0x5
 2342 0c9e 9B000000 		.4byte	0x9b
 2343 0ca2 03       		.uleb128 0x3
 2344 0ca3 AC000000 		.4byte	.LASF188
 2345 0ca7 13       		.byte	0x13
 2346 0ca8 8F       		.byte	0x8f
 2347 0ca9 5A0C0000 		.4byte	0xc5a
 2348 0cad 1D       		.uleb128 0x1d
 2349 0cae 05010000 		.4byte	.LASF189
 2350 0cb2 01       		.byte	0x1
 2351 0cb3 24       		.byte	0x24
 2352 0cb4 00000000 		.4byte	.LFB256
 2353 0cb8 54010000 		.4byte	.LFE256-.LFB256
 2354 0cbc 01       		.uleb128 0x1
 2355 0cbd 9C       		.byte	0x9c
 2356 0cbe 55100000 		.4byte	0x1055
 2357 0cc2 1E       		.uleb128 0x1e
 2358 0cc3 10000000 		.4byte	.LVL0
 2359 0cc7 7C150000 		.4byte	0x157c
 2360 0ccb DA0C0000 		.4byte	0xcda
 2361 0ccf 1F       		.uleb128 0x1f
 2362 0cd0 01       		.uleb128 0x1
 2363 0cd1 51       		.byte	0x51
 2364 0cd2 01       		.uleb128 0x1
 2365 0cd3 31       		.byte	0x31
 2366 0cd4 1F       		.uleb128 0x1f
 2367 0cd5 01       		.uleb128 0x1
 2368 0cd6 50       		.byte	0x50
 2369 0cd7 01       		.uleb128 0x1
 2370 0cd8 31       		.byte	0x31
 2371 0cd9 00       		.byte	0
 2372 0cda 1E       		.uleb128 0x1e
 2373 0cdb 18000000 		.4byte	.LVL1
 2374 0cdf 7C150000 		.4byte	0x157c
 2375 0ce3 F20C0000 		.4byte	0xcf2
 2376 0ce7 1F       		.uleb128 0x1f
 2377 0ce8 01       		.uleb128 0x1
 2378 0ce9 51       		.byte	0x51
 2379 0cea 01       		.uleb128 0x1
 2380 0ceb 31       		.byte	0x31
 2381 0cec 1F       		.uleb128 0x1f
 2382 0ced 01       		.uleb128 0x1
 2383 0cee 50       		.byte	0x50
 2384 0cef 01       		.uleb128 0x1
 2385 0cf0 32       		.byte	0x32
 2386 0cf1 00       		.byte	0
 2387 0cf2 1E       		.uleb128 0x1e
 2388 0cf3 20000000 		.4byte	.LVL2
ARM GAS  /tmp/ccVOxwUj.s 			page 43


 2389 0cf7 7C150000 		.4byte	0x157c
 2390 0cfb 0A0D0000 		.4byte	0xd0a
 2391 0cff 1F       		.uleb128 0x1f
 2392 0d00 01       		.uleb128 0x1
 2393 0d01 51       		.byte	0x51
 2394 0d02 01       		.uleb128 0x1
 2395 0d03 31       		.byte	0x31
 2396 0d04 1F       		.uleb128 0x1f
 2397 0d05 01       		.uleb128 0x1
 2398 0d06 50       		.byte	0x50
 2399 0d07 01       		.uleb128 0x1
 2400 0d08 34       		.byte	0x34
 2401 0d09 00       		.byte	0
 2402 0d0a 1E       		.uleb128 0x1e
 2403 0d0b 2A000000 		.4byte	.LVL3
 2404 0d0f 93150000 		.4byte	0x1593
 2405 0d13 280D0000 		.4byte	0xd28
 2406 0d17 1F       		.uleb128 0x1f
 2407 0d18 01       		.uleb128 0x1
 2408 0d19 52       		.byte	0x52
 2409 0d1a 01       		.uleb128 0x1
 2410 0d1b 49       		.byte	0x49
 2411 0d1c 1F       		.uleb128 0x1f
 2412 0d1d 01       		.uleb128 0x1
 2413 0d1e 51       		.byte	0x51
 2414 0d1f 01       		.uleb128 0x1
 2415 0d20 40       		.byte	0x40
 2416 0d21 1F       		.uleb128 0x1f
 2417 0d22 01       		.uleb128 0x1
 2418 0d23 50       		.byte	0x50
 2419 0d24 02       		.uleb128 0x2
 2420 0d25 74       		.byte	0x74
 2421 0d26 00       		.sleb128 0
 2422 0d27 00       		.byte	0
 2423 0d28 1E       		.uleb128 0x1e
 2424 0d29 34000000 		.4byte	.LVL4
 2425 0d2d 93150000 		.4byte	0x1593
 2426 0d31 470D0000 		.4byte	0xd47
 2427 0d35 1F       		.uleb128 0x1f
 2428 0d36 01       		.uleb128 0x1
 2429 0d37 52       		.byte	0x52
 2430 0d38 01       		.uleb128 0x1
 2431 0d39 49       		.byte	0x49
 2432 0d3a 1F       		.uleb128 0x1f
 2433 0d3b 01       		.uleb128 0x1
 2434 0d3c 51       		.byte	0x51
 2435 0d3d 02       		.uleb128 0x2
 2436 0d3e 08       		.byte	0x8
 2437 0d3f 20       		.byte	0x20
 2438 0d40 1F       		.uleb128 0x1f
 2439 0d41 01       		.uleb128 0x1
 2440 0d42 50       		.byte	0x50
 2441 0d43 02       		.uleb128 0x2
 2442 0d44 74       		.byte	0x74
 2443 0d45 00       		.sleb128 0
 2444 0d46 00       		.byte	0
 2445 0d47 1E       		.uleb128 0x1e
ARM GAS  /tmp/ccVOxwUj.s 			page 44


 2446 0d48 42000000 		.4byte	.LVL5
 2447 0d4c 93150000 		.4byte	0x1593
 2448 0d50 660D0000 		.4byte	0xd66
 2449 0d54 1F       		.uleb128 0x1f
 2450 0d55 01       		.uleb128 0x1
 2451 0d56 52       		.byte	0x52
 2452 0d57 01       		.uleb128 0x1
 2453 0d58 49       		.byte	0x49
 2454 0d59 1F       		.uleb128 0x1f
 2455 0d5a 01       		.uleb128 0x1
 2456 0d5b 51       		.byte	0x51
 2457 0d5c 02       		.uleb128 0x2
 2458 0d5d 77       		.byte	0x77
 2459 0d5e 00       		.sleb128 0
 2460 0d5f 1F       		.uleb128 0x1f
 2461 0d60 01       		.uleb128 0x1
 2462 0d61 50       		.byte	0x50
 2463 0d62 02       		.uleb128 0x2
 2464 0d63 74       		.byte	0x74
 2465 0d64 00       		.sleb128 0
 2466 0d65 00       		.byte	0
 2467 0d66 1E       		.uleb128 0x1e
 2468 0d67 50000000 		.4byte	.LVL6
 2469 0d6b 93150000 		.4byte	0x1593
 2470 0d6f 860D0000 		.4byte	0xd86
 2471 0d73 1F       		.uleb128 0x1f
 2472 0d74 01       		.uleb128 0x1
 2473 0d75 52       		.byte	0x52
 2474 0d76 01       		.uleb128 0x1
 2475 0d77 49       		.byte	0x49
 2476 0d78 1F       		.uleb128 0x1f
 2477 0d79 01       		.uleb128 0x1
 2478 0d7a 51       		.byte	0x51
 2479 0d7b 03       		.uleb128 0x3
 2480 0d7c 0A       		.byte	0xa
 2481 0d7d 0010     		.2byte	0x1000
 2482 0d7f 1F       		.uleb128 0x1f
 2483 0d80 01       		.uleb128 0x1
 2484 0d81 50       		.byte	0x50
 2485 0d82 02       		.uleb128 0x2
 2486 0d83 76       		.byte	0x76
 2487 0d84 00       		.sleb128 0
 2488 0d85 00       		.byte	0
 2489 0d86 1E       		.uleb128 0x1e
 2490 0d87 5C000000 		.4byte	.LVL7
 2491 0d8b 93150000 		.4byte	0x1593
 2492 0d8f A70D0000 		.4byte	0xda7
 2493 0d93 1F       		.uleb128 0x1f
 2494 0d94 01       		.uleb128 0x1
 2495 0d95 52       		.byte	0x52
 2496 0d96 02       		.uleb128 0x2
 2497 0d97 08       		.byte	0x8
 2498 0d98 9A       		.byte	0x9a
 2499 0d99 1F       		.uleb128 0x1f
 2500 0d9a 01       		.uleb128 0x1
 2501 0d9b 51       		.byte	0x51
 2502 0d9c 03       		.uleb128 0x3
ARM GAS  /tmp/ccVOxwUj.s 			page 45


 2503 0d9d 0A       		.byte	0xa
 2504 0d9e 0001     		.2byte	0x100
 2505 0da0 1F       		.uleb128 0x1f
 2506 0da1 01       		.uleb128 0x1
 2507 0da2 50       		.byte	0x50
 2508 0da3 02       		.uleb128 0x2
 2509 0da4 75       		.byte	0x75
 2510 0da5 00       		.sleb128 0
 2511 0da6 00       		.byte	0
 2512 0da7 1E       		.uleb128 0x1e
 2513 0da8 68000000 		.4byte	.LVL8
 2514 0dac 93150000 		.4byte	0x1593
 2515 0db0 C80D0000 		.4byte	0xdc8
 2516 0db4 1F       		.uleb128 0x1f
 2517 0db5 01       		.uleb128 0x1
 2518 0db6 52       		.byte	0x52
 2519 0db7 02       		.uleb128 0x2
 2520 0db8 08       		.byte	0x8
 2521 0db9 9A       		.byte	0x9a
 2522 0dba 1F       		.uleb128 0x1f
 2523 0dbb 01       		.uleb128 0x1
 2524 0dbc 51       		.byte	0x51
 2525 0dbd 03       		.uleb128 0x3
 2526 0dbe 0A       		.byte	0xa
 2527 0dbf 0002     		.2byte	0x200
 2528 0dc1 1F       		.uleb128 0x1f
 2529 0dc2 01       		.uleb128 0x1
 2530 0dc3 50       		.byte	0x50
 2531 0dc4 02       		.uleb128 0x2
 2532 0dc5 75       		.byte	0x75
 2533 0dc6 00       		.sleb128 0
 2534 0dc7 00       		.byte	0
 2535 0dc8 1E       		.uleb128 0x1e
 2536 0dc9 72000000 		.4byte	.LVL9
 2537 0dcd 93150000 		.4byte	0x1593
 2538 0dd1 E80D0000 		.4byte	0xde8
 2539 0dd5 1F       		.uleb128 0x1f
 2540 0dd6 01       		.uleb128 0x1
 2541 0dd7 52       		.byte	0x52
 2542 0dd8 02       		.uleb128 0x2
 2543 0dd9 08       		.byte	0x8
 2544 0dda 9A       		.byte	0x9a
 2545 0ddb 1F       		.uleb128 0x1f
 2546 0ddc 01       		.uleb128 0x1
 2547 0ddd 51       		.byte	0x51
 2548 0dde 02       		.uleb128 0x2
 2549 0ddf 77       		.byte	0x77
 2550 0de0 00       		.sleb128 0
 2551 0de1 1F       		.uleb128 0x1f
 2552 0de2 01       		.uleb128 0x1
 2553 0de3 50       		.byte	0x50
 2554 0de4 02       		.uleb128 0x2
 2555 0de5 75       		.byte	0x75
 2556 0de6 00       		.sleb128 0
 2557 0de7 00       		.byte	0
 2558 0de8 1E       		.uleb128 0x1e
 2559 0de9 7E000000 		.4byte	.LVL10
ARM GAS  /tmp/ccVOxwUj.s 			page 46


 2560 0ded 93150000 		.4byte	0x1593
 2561 0df1 090E0000 		.4byte	0xe09
 2562 0df5 1F       		.uleb128 0x1f
 2563 0df6 01       		.uleb128 0x1
 2564 0df7 52       		.byte	0x52
 2565 0df8 02       		.uleb128 0x2
 2566 0df9 08       		.byte	0x8
 2567 0dfa 9A       		.byte	0x9a
 2568 0dfb 1F       		.uleb128 0x1f
 2569 0dfc 01       		.uleb128 0x1
 2570 0dfd 51       		.byte	0x51
 2571 0dfe 03       		.uleb128 0x3
 2572 0dff 0A       		.byte	0xa
 2573 0e00 0020     		.2byte	0x2000
 2574 0e02 1F       		.uleb128 0x1f
 2575 0e03 01       		.uleb128 0x1
 2576 0e04 50       		.byte	0x50
 2577 0e05 02       		.uleb128 0x2
 2578 0e06 76       		.byte	0x76
 2579 0e07 00       		.sleb128 0
 2580 0e08 00       		.byte	0
 2581 0e09 1E       		.uleb128 0x1e
 2582 0e0a 8A000000 		.4byte	.LVL11
 2583 0e0e 93150000 		.4byte	0x1593
 2584 0e12 2A0E0000 		.4byte	0xe2a
 2585 0e16 1F       		.uleb128 0x1f
 2586 0e17 01       		.uleb128 0x1
 2587 0e18 52       		.byte	0x52
 2588 0e19 02       		.uleb128 0x2
 2589 0e1a 08       		.byte	0x8
 2590 0e1b 9A       		.byte	0x9a
 2591 0e1c 1F       		.uleb128 0x1f
 2592 0e1d 01       		.uleb128 0x1
 2593 0e1e 51       		.byte	0x51
 2594 0e1f 03       		.uleb128 0x3
 2595 0e20 0A       		.byte	0xa
 2596 0e21 0040     		.2byte	0x4000
 2597 0e23 1F       		.uleb128 0x1f
 2598 0e24 01       		.uleb128 0x1
 2599 0e25 50       		.byte	0x50
 2600 0e26 02       		.uleb128 0x2
 2601 0e27 76       		.byte	0x76
 2602 0e28 00       		.sleb128 0
 2603 0e29 00       		.byte	0
 2604 0e2a 1E       		.uleb128 0x1e
 2605 0e2b 96000000 		.4byte	.LVL12
 2606 0e2f 93150000 		.4byte	0x1593
 2607 0e33 4B0E0000 		.4byte	0xe4b
 2608 0e37 1F       		.uleb128 0x1f
 2609 0e38 01       		.uleb128 0x1
 2610 0e39 52       		.byte	0x52
 2611 0e3a 02       		.uleb128 0x2
 2612 0e3b 08       		.byte	0x8
 2613 0e3c 9A       		.byte	0x9a
 2614 0e3d 1F       		.uleb128 0x1f
 2615 0e3e 01       		.uleb128 0x1
 2616 0e3f 51       		.byte	0x51
ARM GAS  /tmp/ccVOxwUj.s 			page 47


 2617 0e40 03       		.uleb128 0x3
 2618 0e41 0A       		.byte	0xa
 2619 0e42 0080     		.2byte	0x8000
 2620 0e44 1F       		.uleb128 0x1f
 2621 0e45 01       		.uleb128 0x1
 2622 0e46 50       		.byte	0x50
 2623 0e47 02       		.uleb128 0x2
 2624 0e48 76       		.byte	0x76
 2625 0e49 00       		.sleb128 0
 2626 0e4a 00       		.byte	0
 2627 0e4b 1E       		.uleb128 0x1e
 2628 0e4c A0000000 		.4byte	.LVL13
 2629 0e50 93150000 		.4byte	0x1593
 2630 0e54 6B0E0000 		.4byte	0xe6b
 2631 0e58 1F       		.uleb128 0x1f
 2632 0e59 01       		.uleb128 0x1
 2633 0e5a 52       		.byte	0x52
 2634 0e5b 02       		.uleb128 0x2
 2635 0e5c 08       		.byte	0x8
 2636 0e5d 20       		.byte	0x20
 2637 0e5e 1F       		.uleb128 0x1f
 2638 0e5f 01       		.uleb128 0x1
 2639 0e60 51       		.byte	0x51
 2640 0e61 02       		.uleb128 0x2
 2641 0e62 08       		.byte	0x8
 2642 0e63 40       		.byte	0x40
 2643 0e64 1F       		.uleb128 0x1f
 2644 0e65 01       		.uleb128 0x1
 2645 0e66 50       		.byte	0x50
 2646 0e67 02       		.uleb128 0x2
 2647 0e68 76       		.byte	0x76
 2648 0e69 00       		.sleb128 0
 2649 0e6a 00       		.byte	0
 2650 0e6b 1E       		.uleb128 0x1e
 2651 0e6c AA000000 		.4byte	.LVL14
 2652 0e70 93150000 		.4byte	0x1593
 2653 0e74 8B0E0000 		.4byte	0xe8b
 2654 0e78 1F       		.uleb128 0x1f
 2655 0e79 01       		.uleb128 0x1
 2656 0e7a 52       		.byte	0x52
 2657 0e7b 02       		.uleb128 0x2
 2658 0e7c 08       		.byte	0x8
 2659 0e7d 20       		.byte	0x20
 2660 0e7e 1F       		.uleb128 0x1f
 2661 0e7f 01       		.uleb128 0x1
 2662 0e80 51       		.byte	0x51
 2663 0e81 02       		.uleb128 0x2
 2664 0e82 08       		.byte	0x8
 2665 0e83 80       		.byte	0x80
 2666 0e84 1F       		.uleb128 0x1f
 2667 0e85 01       		.uleb128 0x1
 2668 0e86 50       		.byte	0x50
 2669 0e87 02       		.uleb128 0x2
 2670 0e88 76       		.byte	0x76
 2671 0e89 00       		.sleb128 0
 2672 0e8a 00       		.byte	0
 2673 0e8b 1E       		.uleb128 0x1e
ARM GAS  /tmp/ccVOxwUj.s 			page 48


 2674 0e8c B6000000 		.4byte	.LVL15
 2675 0e90 93150000 		.4byte	0x1593
 2676 0e94 AC0E0000 		.4byte	0xeac
 2677 0e98 1F       		.uleb128 0x1f
 2678 0e99 01       		.uleb128 0x1
 2679 0e9a 52       		.byte	0x52
 2680 0e9b 02       		.uleb128 0x2
 2681 0e9c 08       		.byte	0x8
 2682 0e9d 20       		.byte	0x20
 2683 0e9e 1F       		.uleb128 0x1f
 2684 0e9f 01       		.uleb128 0x1
 2685 0ea0 51       		.byte	0x51
 2686 0ea1 03       		.uleb128 0x3
 2687 0ea2 0A       		.byte	0xa
 2688 0ea3 0008     		.2byte	0x800
 2689 0ea5 1F       		.uleb128 0x1f
 2690 0ea6 01       		.uleb128 0x1
 2691 0ea7 50       		.byte	0x50
 2692 0ea8 02       		.uleb128 0x2
 2693 0ea9 74       		.byte	0x74
 2694 0eaa 00       		.sleb128 0
 2695 0eab 00       		.byte	0
 2696 0eac 1E       		.uleb128 0x1e
 2697 0ead C2000000 		.4byte	.LVL16
 2698 0eb1 93150000 		.4byte	0x1593
 2699 0eb5 CD0E0000 		.4byte	0xecd
 2700 0eb9 1F       		.uleb128 0x1f
 2701 0eba 01       		.uleb128 0x1
 2702 0ebb 52       		.byte	0x52
 2703 0ebc 02       		.uleb128 0x2
 2704 0ebd 08       		.byte	0x8
 2705 0ebe 20       		.byte	0x20
 2706 0ebf 1F       		.uleb128 0x1f
 2707 0ec0 01       		.uleb128 0x1
 2708 0ec1 51       		.byte	0x51
 2709 0ec2 03       		.uleb128 0x3
 2710 0ec3 0A       		.byte	0xa
 2711 0ec4 0010     		.2byte	0x1000
 2712 0ec6 1F       		.uleb128 0x1f
 2713 0ec7 01       		.uleb128 0x1
 2714 0ec8 50       		.byte	0x50
 2715 0ec9 02       		.uleb128 0x2
 2716 0eca 74       		.byte	0x74
 2717 0ecb 00       		.sleb128 0
 2718 0ecc 00       		.byte	0
 2719 0ecd 1E       		.uleb128 0x1e
 2720 0ece CC000000 		.4byte	.LVL17
 2721 0ed2 93150000 		.4byte	0x1593
 2722 0ed6 EB0E0000 		.4byte	0xeeb
 2723 0eda 1F       		.uleb128 0x1f
 2724 0edb 01       		.uleb128 0x1
 2725 0edc 52       		.byte	0x52
 2726 0edd 01       		.uleb128 0x1
 2727 0ede 33       		.byte	0x33
 2728 0edf 1F       		.uleb128 0x1f
 2729 0ee0 01       		.uleb128 0x1
 2730 0ee1 51       		.byte	0x51
ARM GAS  /tmp/ccVOxwUj.s 			page 49


 2731 0ee2 01       		.uleb128 0x1
 2732 0ee3 31       		.byte	0x31
 2733 0ee4 1F       		.uleb128 0x1f
 2734 0ee5 01       		.uleb128 0x1
 2735 0ee6 50       		.byte	0x50
 2736 0ee7 02       		.uleb128 0x2
 2737 0ee8 75       		.byte	0x75
 2738 0ee9 00       		.sleb128 0
 2739 0eea 00       		.byte	0
 2740 0eeb 1E       		.uleb128 0x1e
 2741 0eec D6000000 		.4byte	.LVL18
 2742 0ef0 93150000 		.4byte	0x1593
 2743 0ef4 090F0000 		.4byte	0xf09
 2744 0ef8 1F       		.uleb128 0x1f
 2745 0ef9 01       		.uleb128 0x1
 2746 0efa 52       		.byte	0x52
 2747 0efb 01       		.uleb128 0x1
 2748 0efc 33       		.byte	0x33
 2749 0efd 1F       		.uleb128 0x1f
 2750 0efe 01       		.uleb128 0x1
 2751 0eff 51       		.byte	0x51
 2752 0f00 01       		.uleb128 0x1
 2753 0f01 32       		.byte	0x32
 2754 0f02 1F       		.uleb128 0x1f
 2755 0f03 01       		.uleb128 0x1
 2756 0f04 50       		.byte	0x50
 2757 0f05 02       		.uleb128 0x2
 2758 0f06 75       		.byte	0x75
 2759 0f07 00       		.sleb128 0
 2760 0f08 00       		.byte	0
 2761 0f09 1E       		.uleb128 0x1e
 2762 0f0a E0000000 		.4byte	.LVL19
 2763 0f0e 93150000 		.4byte	0x1593
 2764 0f12 270F0000 		.4byte	0xf27
 2765 0f16 1F       		.uleb128 0x1f
 2766 0f17 01       		.uleb128 0x1
 2767 0f18 52       		.byte	0x52
 2768 0f19 01       		.uleb128 0x1
 2769 0f1a 33       		.byte	0x33
 2770 0f1b 1F       		.uleb128 0x1f
 2771 0f1c 01       		.uleb128 0x1
 2772 0f1d 51       		.byte	0x51
 2773 0f1e 01       		.uleb128 0x1
 2774 0f1f 34       		.byte	0x34
 2775 0f20 1F       		.uleb128 0x1f
 2776 0f21 01       		.uleb128 0x1
 2777 0f22 50       		.byte	0x50
 2778 0f23 02       		.uleb128 0x2
 2779 0f24 75       		.byte	0x75
 2780 0f25 00       		.sleb128 0
 2781 0f26 00       		.byte	0
 2782 0f27 1E       		.uleb128 0x1e
 2783 0f28 EA000000 		.4byte	.LVL20
 2784 0f2c 93150000 		.4byte	0x1593
 2785 0f30 450F0000 		.4byte	0xf45
 2786 0f34 1F       		.uleb128 0x1f
 2787 0f35 01       		.uleb128 0x1
ARM GAS  /tmp/ccVOxwUj.s 			page 50


 2788 0f36 52       		.byte	0x52
 2789 0f37 01       		.uleb128 0x1
 2790 0f38 33       		.byte	0x33
 2791 0f39 1F       		.uleb128 0x1f
 2792 0f3a 01       		.uleb128 0x1
 2793 0f3b 51       		.byte	0x51
 2794 0f3c 01       		.uleb128 0x1
 2795 0f3d 38       		.byte	0x38
 2796 0f3e 1F       		.uleb128 0x1f
 2797 0f3f 01       		.uleb128 0x1
 2798 0f40 50       		.byte	0x50
 2799 0f41 02       		.uleb128 0x2
 2800 0f42 75       		.byte	0x75
 2801 0f43 00       		.sleb128 0
 2802 0f44 00       		.byte	0
 2803 0f45 1E       		.uleb128 0x1e
 2804 0f46 F4000000 		.4byte	.LVL21
 2805 0f4a 93150000 		.4byte	0x1593
 2806 0f4e 630F0000 		.4byte	0xf63
 2807 0f52 1F       		.uleb128 0x1f
 2808 0f53 01       		.uleb128 0x1
 2809 0f54 52       		.byte	0x52
 2810 0f55 01       		.uleb128 0x1
 2811 0f56 33       		.byte	0x33
 2812 0f57 1F       		.uleb128 0x1f
 2813 0f58 01       		.uleb128 0x1
 2814 0f59 51       		.byte	0x51
 2815 0f5a 01       		.uleb128 0x1
 2816 0f5b 40       		.byte	0x40
 2817 0f5c 1F       		.uleb128 0x1f
 2818 0f5d 01       		.uleb128 0x1
 2819 0f5e 50       		.byte	0x50
 2820 0f5f 02       		.uleb128 0x2
 2821 0f60 75       		.byte	0x75
 2822 0f61 00       		.sleb128 0
 2823 0f62 00       		.byte	0
 2824 0f63 1E       		.uleb128 0x1e
 2825 0f64 FE000000 		.4byte	.LVL22
 2826 0f68 93150000 		.4byte	0x1593
 2827 0f6c 820F0000 		.4byte	0xf82
 2828 0f70 1F       		.uleb128 0x1f
 2829 0f71 01       		.uleb128 0x1
 2830 0f72 52       		.byte	0x52
 2831 0f73 01       		.uleb128 0x1
 2832 0f74 33       		.byte	0x33
 2833 0f75 1F       		.uleb128 0x1f
 2834 0f76 01       		.uleb128 0x1
 2835 0f77 51       		.byte	0x51
 2836 0f78 02       		.uleb128 0x2
 2837 0f79 08       		.byte	0x8
 2838 0f7a 20       		.byte	0x20
 2839 0f7b 1F       		.uleb128 0x1f
 2840 0f7c 01       		.uleb128 0x1
 2841 0f7d 50       		.byte	0x50
 2842 0f7e 02       		.uleb128 0x2
 2843 0f7f 75       		.byte	0x75
 2844 0f80 00       		.sleb128 0
ARM GAS  /tmp/ccVOxwUj.s 			page 51


 2845 0f81 00       		.byte	0
 2846 0f82 1E       		.uleb128 0x1e
 2847 0f83 08010000 		.4byte	.LVL23
 2848 0f87 93150000 		.4byte	0x1593
 2849 0f8b A10F0000 		.4byte	0xfa1
 2850 0f8f 1F       		.uleb128 0x1f
 2851 0f90 01       		.uleb128 0x1
 2852 0f91 52       		.byte	0x52
 2853 0f92 01       		.uleb128 0x1
 2854 0f93 33       		.byte	0x33
 2855 0f94 1F       		.uleb128 0x1f
 2856 0f95 01       		.uleb128 0x1
 2857 0f96 51       		.byte	0x51
 2858 0f97 02       		.uleb128 0x2
 2859 0f98 08       		.byte	0x8
 2860 0f99 40       		.byte	0x40
 2861 0f9a 1F       		.uleb128 0x1f
 2862 0f9b 01       		.uleb128 0x1
 2863 0f9c 50       		.byte	0x50
 2864 0f9d 02       		.uleb128 0x2
 2865 0f9e 75       		.byte	0x75
 2866 0f9f 00       		.sleb128 0
 2867 0fa0 00       		.byte	0
 2868 0fa1 1E       		.uleb128 0x1e
 2869 0fa2 12010000 		.4byte	.LVL24
 2870 0fa6 93150000 		.4byte	0x1593
 2871 0faa BF0F0000 		.4byte	0xfbf
 2872 0fae 1F       		.uleb128 0x1f
 2873 0faf 01       		.uleb128 0x1
 2874 0fb0 52       		.byte	0x52
 2875 0fb1 01       		.uleb128 0x1
 2876 0fb2 33       		.byte	0x33
 2877 0fb3 1F       		.uleb128 0x1f
 2878 0fb4 01       		.uleb128 0x1
 2879 0fb5 51       		.byte	0x51
 2880 0fb6 01       		.uleb128 0x1
 2881 0fb7 31       		.byte	0x31
 2882 0fb8 1F       		.uleb128 0x1f
 2883 0fb9 01       		.uleb128 0x1
 2884 0fba 50       		.byte	0x50
 2885 0fbb 02       		.uleb128 0x2
 2886 0fbc 76       		.byte	0x76
 2887 0fbd 00       		.sleb128 0
 2888 0fbe 00       		.byte	0
 2889 0fbf 1E       		.uleb128 0x1e
 2890 0fc0 1C010000 		.4byte	.LVL25
 2891 0fc4 93150000 		.4byte	0x1593
 2892 0fc8 DD0F0000 		.4byte	0xfdd
 2893 0fcc 1F       		.uleb128 0x1f
 2894 0fcd 01       		.uleb128 0x1
 2895 0fce 52       		.byte	0x52
 2896 0fcf 01       		.uleb128 0x1
 2897 0fd0 33       		.byte	0x33
 2898 0fd1 1F       		.uleb128 0x1f
 2899 0fd2 01       		.uleb128 0x1
 2900 0fd3 51       		.byte	0x51
 2901 0fd4 01       		.uleb128 0x1
ARM GAS  /tmp/ccVOxwUj.s 			page 52


 2902 0fd5 32       		.byte	0x32
 2903 0fd6 1F       		.uleb128 0x1f
 2904 0fd7 01       		.uleb128 0x1
 2905 0fd8 50       		.byte	0x50
 2906 0fd9 02       		.uleb128 0x2
 2907 0fda 76       		.byte	0x76
 2908 0fdb 00       		.sleb128 0
 2909 0fdc 00       		.byte	0
 2910 0fdd 1E       		.uleb128 0x1e
 2911 0fde 26010000 		.4byte	.LVL26
 2912 0fe2 93150000 		.4byte	0x1593
 2913 0fe6 FB0F0000 		.4byte	0xffb
 2914 0fea 1F       		.uleb128 0x1f
 2915 0feb 01       		.uleb128 0x1
 2916 0fec 52       		.byte	0x52
 2917 0fed 01       		.uleb128 0x1
 2918 0fee 33       		.byte	0x33
 2919 0fef 1F       		.uleb128 0x1f
 2920 0ff0 01       		.uleb128 0x1
 2921 0ff1 51       		.byte	0x51
 2922 0ff2 01       		.uleb128 0x1
 2923 0ff3 31       		.byte	0x31
 2924 0ff4 1F       		.uleb128 0x1f
 2925 0ff5 01       		.uleb128 0x1
 2926 0ff6 50       		.byte	0x50
 2927 0ff7 02       		.uleb128 0x2
 2928 0ff8 74       		.byte	0x74
 2929 0ff9 00       		.sleb128 0
 2930 0ffa 00       		.byte	0
 2931 0ffb 1E       		.uleb128 0x1e
 2932 0ffc 30010000 		.4byte	.LVL27
 2933 1000 93150000 		.4byte	0x1593
 2934 1004 19100000 		.4byte	0x1019
 2935 1008 1F       		.uleb128 0x1f
 2936 1009 01       		.uleb128 0x1
 2937 100a 52       		.byte	0x52
 2938 100b 01       		.uleb128 0x1
 2939 100c 33       		.byte	0x33
 2940 100d 1F       		.uleb128 0x1f
 2941 100e 01       		.uleb128 0x1
 2942 100f 51       		.byte	0x51
 2943 1010 01       		.uleb128 0x1
 2944 1011 32       		.byte	0x32
 2945 1012 1F       		.uleb128 0x1f
 2946 1013 01       		.uleb128 0x1
 2947 1014 50       		.byte	0x50
 2948 1015 02       		.uleb128 0x2
 2949 1016 74       		.byte	0x74
 2950 1017 00       		.sleb128 0
 2951 1018 00       		.byte	0
 2952 1019 1E       		.uleb128 0x1e
 2953 101a 3A010000 		.4byte	.LVL28
 2954 101e 93150000 		.4byte	0x1593
 2955 1022 37100000 		.4byte	0x1037
 2956 1026 1F       		.uleb128 0x1f
 2957 1027 01       		.uleb128 0x1
 2958 1028 52       		.byte	0x52
ARM GAS  /tmp/ccVOxwUj.s 			page 53


 2959 1029 01       		.uleb128 0x1
 2960 102a 33       		.byte	0x33
 2961 102b 1F       		.uleb128 0x1f
 2962 102c 01       		.uleb128 0x1
 2963 102d 51       		.byte	0x51
 2964 102e 01       		.uleb128 0x1
 2965 102f 34       		.byte	0x34
 2966 1030 1F       		.uleb128 0x1f
 2967 1031 01       		.uleb128 0x1
 2968 1032 50       		.byte	0x50
 2969 1033 02       		.uleb128 0x2
 2970 1034 74       		.byte	0x74
 2971 1035 00       		.sleb128 0
 2972 1036 00       		.byte	0
 2973 1037 20       		.uleb128 0x20
 2974 1038 48010000 		.4byte	.LVL29
 2975 103c 93150000 		.4byte	0x1593
 2976 1040 1F       		.uleb128 0x1f
 2977 1041 01       		.uleb128 0x1
 2978 1042 52       		.byte	0x52
 2979 1043 01       		.uleb128 0x1
 2980 1044 33       		.byte	0x33
 2981 1045 1F       		.uleb128 0x1f
 2982 1046 01       		.uleb128 0x1
 2983 1047 51       		.byte	0x51
 2984 1048 01       		.uleb128 0x1
 2985 1049 38       		.byte	0x38
 2986 104a 1F       		.uleb128 0x1f
 2987 104b 01       		.uleb128 0x1
 2988 104c 50       		.byte	0x50
 2989 104d 05       		.uleb128 0x5
 2990 104e 0C       		.byte	0xc
 2991 104f 00080240 		.4byte	0x40020800
 2992 1053 00       		.byte	0
 2993 1054 00       		.byte	0
 2994 1055 1D       		.uleb128 0x1d
 2995 1056 86070000 		.4byte	.LASF190
 2996 105a 01       		.byte	0x1
 2997 105b 6C       		.byte	0x6c
 2998 105c 00000000 		.4byte	.LFB257
 2999 1060 D8000000 		.4byte	.LFE257-.LFB257
 3000 1064 01       		.uleb128 0x1
 3001 1065 9C       		.byte	0x9c
 3002 1066 9A120000 		.4byte	0x129a
 3003 106a 1E       		.uleb128 0x1e
 3004 106b 14000000 		.4byte	.LVL30
 3005 106f AF150000 		.4byte	0x15af
 3006 1073 8D100000 		.4byte	0x108d
 3007 1077 1F       		.uleb128 0x1f
 3008 1078 01       		.uleb128 0x1
 3009 1079 53       		.byte	0x53
 3010 107a 01       		.uleb128 0x1
 3011 107b 31       		.byte	0x31
 3012 107c 1F       		.uleb128 0x1f
 3013 107d 01       		.uleb128 0x1
 3014 107e 52       		.byte	0x52
 3015 107f 01       		.uleb128 0x1
ARM GAS  /tmp/ccVOxwUj.s 			page 54


 3016 1080 31       		.byte	0x31
 3017 1081 1F       		.uleb128 0x1f
 3018 1082 01       		.uleb128 0x1
 3019 1083 51       		.byte	0x51
 3020 1084 01       		.uleb128 0x1
 3021 1085 30       		.byte	0x30
 3022 1086 1F       		.uleb128 0x1f
 3023 1087 01       		.uleb128 0x1
 3024 1088 50       		.byte	0x50
 3025 1089 02       		.uleb128 0x2
 3026 108a 75       		.byte	0x75
 3027 108b 00       		.sleb128 0
 3028 108c 00       		.byte	0
 3029 108d 1E       		.uleb128 0x1e
 3030 108e 20000000 		.4byte	.LVL31
 3031 1092 AF150000 		.4byte	0x15af
 3032 1096 B0100000 		.4byte	0x10b0
 3033 109a 1F       		.uleb128 0x1f
 3034 109b 01       		.uleb128 0x1
 3035 109c 53       		.byte	0x53
 3036 109d 01       		.uleb128 0x1
 3037 109e 31       		.byte	0x31
 3038 109f 1F       		.uleb128 0x1f
 3039 10a0 01       		.uleb128 0x1
 3040 10a1 52       		.byte	0x52
 3041 10a2 01       		.uleb128 0x1
 3042 10a3 32       		.byte	0x32
 3043 10a4 1F       		.uleb128 0x1f
 3044 10a5 01       		.uleb128 0x1
 3045 10a6 51       		.byte	0x51
 3046 10a7 01       		.uleb128 0x1
 3047 10a8 38       		.byte	0x38
 3048 10a9 1F       		.uleb128 0x1f
 3049 10aa 01       		.uleb128 0x1
 3050 10ab 50       		.byte	0x50
 3051 10ac 02       		.uleb128 0x2
 3052 10ad 75       		.byte	0x75
 3053 10ae 00       		.sleb128 0
 3054 10af 00       		.byte	0
 3055 10b0 1E       		.uleb128 0x1e
 3056 10b1 2C000000 		.4byte	.LVL32
 3057 10b5 AF150000 		.4byte	0x15af
 3058 10b9 D3100000 		.4byte	0x10d3
 3059 10bd 1F       		.uleb128 0x1f
 3060 10be 01       		.uleb128 0x1
 3061 10bf 53       		.byte	0x53
 3062 10c0 01       		.uleb128 0x1
 3063 10c1 31       		.byte	0x31
 3064 10c2 1F       		.uleb128 0x1f
 3065 10c3 01       		.uleb128 0x1
 3066 10c4 52       		.byte	0x52
 3067 10c5 01       		.uleb128 0x1
 3068 10c6 33       		.byte	0x33
 3069 10c7 1F       		.uleb128 0x1f
 3070 10c8 01       		.uleb128 0x1
 3071 10c9 51       		.byte	0x51
 3072 10ca 01       		.uleb128 0x1
ARM GAS  /tmp/ccVOxwUj.s 			page 55


 3073 10cb 41       		.byte	0x41
 3074 10cc 1F       		.uleb128 0x1f
 3075 10cd 01       		.uleb128 0x1
 3076 10ce 50       		.byte	0x50
 3077 10cf 02       		.uleb128 0x2
 3078 10d0 75       		.byte	0x75
 3079 10d1 00       		.sleb128 0
 3080 10d2 00       		.byte	0
 3081 10d3 1E       		.uleb128 0x1e
 3082 10d4 38000000 		.4byte	.LVL33
 3083 10d8 AF150000 		.4byte	0x15af
 3084 10dc F6100000 		.4byte	0x10f6
 3085 10e0 1F       		.uleb128 0x1f
 3086 10e1 01       		.uleb128 0x1
 3087 10e2 53       		.byte	0x53
 3088 10e3 01       		.uleb128 0x1
 3089 10e4 31       		.byte	0x31
 3090 10e5 1F       		.uleb128 0x1f
 3091 10e6 01       		.uleb128 0x1
 3092 10e7 52       		.byte	0x52
 3093 10e8 01       		.uleb128 0x1
 3094 10e9 34       		.byte	0x34
 3095 10ea 1F       		.uleb128 0x1f
 3096 10eb 01       		.uleb128 0x1
 3097 10ec 51       		.byte	0x51
 3098 10ed 01       		.uleb128 0x1
 3099 10ee 34       		.byte	0x34
 3100 10ef 1F       		.uleb128 0x1f
 3101 10f0 01       		.uleb128 0x1
 3102 10f1 50       		.byte	0x50
 3103 10f2 02       		.uleb128 0x2
 3104 10f3 75       		.byte	0x75
 3105 10f4 00       		.sleb128 0
 3106 10f5 00       		.byte	0
 3107 10f6 1E       		.uleb128 0x1e
 3108 10f7 44000000 		.4byte	.LVL34
 3109 10fb AF150000 		.4byte	0x15af
 3110 10ff 19110000 		.4byte	0x1119
 3111 1103 1F       		.uleb128 0x1f
 3112 1104 01       		.uleb128 0x1
 3113 1105 53       		.byte	0x53
 3114 1106 01       		.uleb128 0x1
 3115 1107 31       		.byte	0x31
 3116 1108 1F       		.uleb128 0x1f
 3117 1109 01       		.uleb128 0x1
 3118 110a 52       		.byte	0x52
 3119 110b 01       		.uleb128 0x1
 3120 110c 31       		.byte	0x31
 3121 110d 1F       		.uleb128 0x1f
 3122 110e 01       		.uleb128 0x1
 3123 110f 51       		.byte	0x51
 3124 1110 01       		.uleb128 0x1
 3125 1111 31       		.byte	0x31
 3126 1112 1F       		.uleb128 0x1f
 3127 1113 01       		.uleb128 0x1
 3128 1114 50       		.byte	0x50
 3129 1115 02       		.uleb128 0x2
ARM GAS  /tmp/ccVOxwUj.s 			page 56


 3130 1116 74       		.byte	0x74
 3131 1117 00       		.sleb128 0
 3132 1118 00       		.byte	0
 3133 1119 1E       		.uleb128 0x1e
 3134 111a 50000000 		.4byte	.LVL35
 3135 111e AF150000 		.4byte	0x15af
 3136 1122 3C110000 		.4byte	0x113c
 3137 1126 1F       		.uleb128 0x1f
 3138 1127 01       		.uleb128 0x1
 3139 1128 53       		.byte	0x53
 3140 1129 01       		.uleb128 0x1
 3141 112a 31       		.byte	0x31
 3142 112b 1F       		.uleb128 0x1f
 3143 112c 01       		.uleb128 0x1
 3144 112d 52       		.byte	0x52
 3145 112e 01       		.uleb128 0x1
 3146 112f 32       		.byte	0x32
 3147 1130 1F       		.uleb128 0x1f
 3148 1131 01       		.uleb128 0x1
 3149 1132 51       		.byte	0x51
 3150 1133 01       		.uleb128 0x1
 3151 1134 39       		.byte	0x39
 3152 1135 1F       		.uleb128 0x1f
 3153 1136 01       		.uleb128 0x1
 3154 1137 50       		.byte	0x50
 3155 1138 02       		.uleb128 0x2
 3156 1139 74       		.byte	0x74
 3157 113a 00       		.sleb128 0
 3158 113b 00       		.byte	0
 3159 113c 1E       		.uleb128 0x1e
 3160 113d 5C000000 		.4byte	.LVL36
 3161 1141 AF150000 		.4byte	0x15af
 3162 1145 5F110000 		.4byte	0x115f
 3163 1149 1F       		.uleb128 0x1f
 3164 114a 01       		.uleb128 0x1
 3165 114b 53       		.byte	0x53
 3166 114c 01       		.uleb128 0x1
 3167 114d 31       		.byte	0x31
 3168 114e 1F       		.uleb128 0x1f
 3169 114f 01       		.uleb128 0x1
 3170 1150 52       		.byte	0x52
 3171 1151 01       		.uleb128 0x1
 3172 1152 33       		.byte	0x33
 3173 1153 1F       		.uleb128 0x1f
 3174 1154 01       		.uleb128 0x1
 3175 1155 51       		.byte	0x51
 3176 1156 01       		.uleb128 0x1
 3177 1157 36       		.byte	0x36
 3178 1158 1F       		.uleb128 0x1f
 3179 1159 01       		.uleb128 0x1
 3180 115a 50       		.byte	0x50
 3181 115b 02       		.uleb128 0x2
 3182 115c 74       		.byte	0x74
 3183 115d 00       		.sleb128 0
 3184 115e 00       		.byte	0
 3185 115f 1E       		.uleb128 0x1e
 3186 1160 68000000 		.4byte	.LVL37
ARM GAS  /tmp/ccVOxwUj.s 			page 57


 3187 1164 AF150000 		.4byte	0x15af
 3188 1168 82110000 		.4byte	0x1182
 3189 116c 1F       		.uleb128 0x1f
 3190 116d 01       		.uleb128 0x1
 3191 116e 53       		.byte	0x53
 3192 116f 01       		.uleb128 0x1
 3193 1170 31       		.byte	0x31
 3194 1171 1F       		.uleb128 0x1f
 3195 1172 01       		.uleb128 0x1
 3196 1173 52       		.byte	0x52
 3197 1174 01       		.uleb128 0x1
 3198 1175 34       		.byte	0x34
 3199 1176 1F       		.uleb128 0x1f
 3200 1177 01       		.uleb128 0x1
 3201 1178 51       		.byte	0x51
 3202 1179 01       		.uleb128 0x1
 3203 117a 35       		.byte	0x35
 3204 117b 1F       		.uleb128 0x1f
 3205 117c 01       		.uleb128 0x1
 3206 117d 50       		.byte	0x50
 3207 117e 02       		.uleb128 0x2
 3208 117f 74       		.byte	0x74
 3209 1180 00       		.sleb128 0
 3210 1181 00       		.byte	0
 3211 1182 1E       		.uleb128 0x1e
 3212 1183 74000000 		.4byte	.LVL38
 3213 1187 AF150000 		.4byte	0x15af
 3214 118b A5110000 		.4byte	0x11a5
 3215 118f 1F       		.uleb128 0x1f
 3216 1190 01       		.uleb128 0x1
 3217 1191 53       		.byte	0x53
 3218 1192 01       		.uleb128 0x1
 3219 1193 31       		.byte	0x31
 3220 1194 1F       		.uleb128 0x1f
 3221 1195 01       		.uleb128 0x1
 3222 1196 52       		.byte	0x52
 3223 1197 01       		.uleb128 0x1
 3224 1198 31       		.byte	0x31
 3225 1199 1F       		.uleb128 0x1f
 3226 119a 01       		.uleb128 0x1
 3227 119b 51       		.byte	0x51
 3228 119c 01       		.uleb128 0x1
 3229 119d 32       		.byte	0x32
 3230 119e 1F       		.uleb128 0x1f
 3231 119f 01       		.uleb128 0x1
 3232 11a0 50       		.byte	0x50
 3233 11a1 02       		.uleb128 0x2
 3234 11a2 76       		.byte	0x76
 3235 11a3 00       		.sleb128 0
 3236 11a4 00       		.byte	0
 3237 11a5 1E       		.uleb128 0x1e
 3238 11a6 80000000 		.4byte	.LVL39
 3239 11aa AF150000 		.4byte	0x15af
 3240 11ae C8110000 		.4byte	0x11c8
 3241 11b2 1F       		.uleb128 0x1f
 3242 11b3 01       		.uleb128 0x1
 3243 11b4 53       		.byte	0x53
ARM GAS  /tmp/ccVOxwUj.s 			page 58


 3244 11b5 01       		.uleb128 0x1
 3245 11b6 31       		.byte	0x31
 3246 11b7 1F       		.uleb128 0x1f
 3247 11b8 01       		.uleb128 0x1
 3248 11b9 52       		.byte	0x52
 3249 11ba 01       		.uleb128 0x1
 3250 11bb 32       		.byte	0x32
 3251 11bc 1F       		.uleb128 0x1f
 3252 11bd 01       		.uleb128 0x1
 3253 11be 51       		.byte	0x51
 3254 11bf 01       		.uleb128 0x1
 3255 11c0 33       		.byte	0x33
 3256 11c1 1F       		.uleb128 0x1f
 3257 11c2 01       		.uleb128 0x1
 3258 11c3 50       		.byte	0x50
 3259 11c4 02       		.uleb128 0x2
 3260 11c5 76       		.byte	0x76
 3261 11c6 00       		.sleb128 0
 3262 11c7 00       		.byte	0
 3263 11c8 1E       		.uleb128 0x1e
 3264 11c9 8C000000 		.4byte	.LVL40
 3265 11cd AF150000 		.4byte	0x15af
 3266 11d1 EB110000 		.4byte	0x11eb
 3267 11d5 1F       		.uleb128 0x1f
 3268 11d6 01       		.uleb128 0x1
 3269 11d7 53       		.byte	0x53
 3270 11d8 01       		.uleb128 0x1
 3271 11d9 31       		.byte	0x31
 3272 11da 1F       		.uleb128 0x1f
 3273 11db 01       		.uleb128 0x1
 3274 11dc 52       		.byte	0x52
 3275 11dd 01       		.uleb128 0x1
 3276 11de 33       		.byte	0x33
 3277 11df 1F       		.uleb128 0x1f
 3278 11e0 01       		.uleb128 0x1
 3279 11e1 51       		.byte	0x51
 3280 11e2 01       		.uleb128 0x1
 3281 11e3 3C       		.byte	0x3c
 3282 11e4 1F       		.uleb128 0x1f
 3283 11e5 01       		.uleb128 0x1
 3284 11e6 50       		.byte	0x50
 3285 11e7 02       		.uleb128 0x2
 3286 11e8 76       		.byte	0x76
 3287 11e9 00       		.sleb128 0
 3288 11ea 00       		.byte	0
 3289 11eb 1E       		.uleb128 0x1e
 3290 11ec 98000000 		.4byte	.LVL41
 3291 11f0 AF150000 		.4byte	0x15af
 3292 11f4 0E120000 		.4byte	0x120e
 3293 11f8 1F       		.uleb128 0x1f
 3294 11f9 01       		.uleb128 0x1
 3295 11fa 53       		.byte	0x53
 3296 11fb 01       		.uleb128 0x1
 3297 11fc 31       		.byte	0x31
 3298 11fd 1F       		.uleb128 0x1f
 3299 11fe 01       		.uleb128 0x1
 3300 11ff 52       		.byte	0x52
ARM GAS  /tmp/ccVOxwUj.s 			page 59


 3301 1200 01       		.uleb128 0x1
 3302 1201 34       		.byte	0x34
 3303 1202 1F       		.uleb128 0x1f
 3304 1203 01       		.uleb128 0x1
 3305 1204 51       		.byte	0x51
 3306 1205 01       		.uleb128 0x1
 3307 1206 3A       		.byte	0x3a
 3308 1207 1F       		.uleb128 0x1f
 3309 1208 01       		.uleb128 0x1
 3310 1209 50       		.byte	0x50
 3311 120a 02       		.uleb128 0x2
 3312 120b 76       		.byte	0x76
 3313 120c 00       		.sleb128 0
 3314 120d 00       		.byte	0
 3315 120e 1E       		.uleb128 0x1e
 3316 120f A4000000 		.4byte	.LVL42
 3317 1213 D6150000 		.4byte	0x15d6
 3318 1217 31120000 		.4byte	0x1231
 3319 121b 1F       		.uleb128 0x1f
 3320 121c 01       		.uleb128 0x1
 3321 121d 53       		.byte	0x53
 3322 121e 01       		.uleb128 0x1
 3323 121f 31       		.byte	0x31
 3324 1220 1F       		.uleb128 0x1f
 3325 1221 01       		.uleb128 0x1
 3326 1222 52       		.byte	0x52
 3327 1223 01       		.uleb128 0x1
 3328 1224 31       		.byte	0x31
 3329 1225 1F       		.uleb128 0x1f
 3330 1226 01       		.uleb128 0x1
 3331 1227 51       		.byte	0x51
 3332 1228 01       		.uleb128 0x1
 3333 1229 39       		.byte	0x39
 3334 122a 1F       		.uleb128 0x1f
 3335 122b 01       		.uleb128 0x1
 3336 122c 50       		.byte	0x50
 3337 122d 02       		.uleb128 0x2
 3338 122e 75       		.byte	0x75
 3339 122f 00       		.sleb128 0
 3340 1230 00       		.byte	0
 3341 1231 1E       		.uleb128 0x1e
 3342 1232 B0000000 		.4byte	.LVL43
 3343 1236 D6150000 		.4byte	0x15d6
 3344 123a 54120000 		.4byte	0x1254
 3345 123e 1F       		.uleb128 0x1f
 3346 123f 01       		.uleb128 0x1
 3347 1240 53       		.byte	0x53
 3348 1241 01       		.uleb128 0x1
 3349 1242 31       		.byte	0x31
 3350 1243 1F       		.uleb128 0x1f
 3351 1244 01       		.uleb128 0x1
 3352 1245 52       		.byte	0x52
 3353 1246 01       		.uleb128 0x1
 3354 1247 32       		.byte	0x32
 3355 1248 1F       		.uleb128 0x1f
 3356 1249 01       		.uleb128 0x1
 3357 124a 51       		.byte	0x51
ARM GAS  /tmp/ccVOxwUj.s 			page 60


 3358 124b 01       		.uleb128 0x1
 3359 124c 38       		.byte	0x38
 3360 124d 1F       		.uleb128 0x1f
 3361 124e 01       		.uleb128 0x1
 3362 124f 50       		.byte	0x50
 3363 1250 02       		.uleb128 0x2
 3364 1251 75       		.byte	0x75
 3365 1252 00       		.sleb128 0
 3366 1253 00       		.byte	0
 3367 1254 1E       		.uleb128 0x1e
 3368 1255 BC000000 		.4byte	.LVL44
 3369 1259 D6150000 		.4byte	0x15d6
 3370 125d 77120000 		.4byte	0x1277
 3371 1261 1F       		.uleb128 0x1f
 3372 1262 01       		.uleb128 0x1
 3373 1263 53       		.byte	0x53
 3374 1264 01       		.uleb128 0x1
 3375 1265 31       		.byte	0x31
 3376 1266 1F       		.uleb128 0x1f
 3377 1267 01       		.uleb128 0x1
 3378 1268 52       		.byte	0x52
 3379 1269 01       		.uleb128 0x1
 3380 126a 31       		.byte	0x31
 3381 126b 1F       		.uleb128 0x1f
 3382 126c 01       		.uleb128 0x1
 3383 126d 51       		.byte	0x51
 3384 126e 01       		.uleb128 0x1
 3385 126f 38       		.byte	0x38
 3386 1270 1F       		.uleb128 0x1f
 3387 1271 01       		.uleb128 0x1
 3388 1272 50       		.byte	0x50
 3389 1273 02       		.uleb128 0x2
 3390 1274 74       		.byte	0x74
 3391 1275 00       		.sleb128 0
 3392 1276 00       		.byte	0
 3393 1277 20       		.uleb128 0x20
 3394 1278 CC000000 		.4byte	.LVL45
 3395 127c D6150000 		.4byte	0x15d6
 3396 1280 1F       		.uleb128 0x1f
 3397 1281 01       		.uleb128 0x1
 3398 1282 53       		.byte	0x53
 3399 1283 01       		.uleb128 0x1
 3400 1284 31       		.byte	0x31
 3401 1285 1F       		.uleb128 0x1f
 3402 1286 01       		.uleb128 0x1
 3403 1287 52       		.byte	0x52
 3404 1288 01       		.uleb128 0x1
 3405 1289 32       		.byte	0x32
 3406 128a 1F       		.uleb128 0x1f
 3407 128b 01       		.uleb128 0x1
 3408 128c 51       		.byte	0x51
 3409 128d 01       		.uleb128 0x1
 3410 128e 39       		.byte	0x39
 3411 128f 1F       		.uleb128 0x1f
 3412 1290 01       		.uleb128 0x1
 3413 1291 50       		.byte	0x50
 3414 1292 05       		.uleb128 0x5
ARM GAS  /tmp/ccVOxwUj.s 			page 61


 3415 1293 0C       		.byte	0xc
 3416 1294 00210140 		.4byte	0x40012100
 3417 1298 00       		.byte	0
 3418 1299 00       		.byte	0
 3419 129a 1D       		.uleb128 0x1d
 3420 129b 47040000 		.4byte	.LASF191
 3421 129f 01       		.byte	0x1
 3422 12a0 86       		.byte	0x86
 3423 12a1 00000000 		.4byte	.LFB258
 3424 12a5 30000000 		.4byte	.LFE258-.LFB258
 3425 12a9 01       		.uleb128 0x1
 3426 12aa 9C       		.byte	0x9c
 3427 12ab C4120000 		.4byte	0x12c4
 3428 12af 21       		.uleb128 0x21
 3429 12b0 0A000000 		.4byte	.LVL46
 3430 12b4 7C150000 		.4byte	0x157c
 3431 12b8 1F       		.uleb128 0x1f
 3432 12b9 01       		.uleb128 0x1
 3433 12ba 51       		.byte	0x51
 3434 12bb 01       		.uleb128 0x1
 3435 12bc 31       		.byte	0x31
 3436 12bd 1F       		.uleb128 0x1f
 3437 12be 01       		.uleb128 0x1
 3438 12bf 50       		.byte	0x50
 3439 12c0 01       		.uleb128 0x1
 3440 12c1 32       		.byte	0x32
 3441 12c2 00       		.byte	0
 3442 12c3 00       		.byte	0
 3443 12c4 1D       		.uleb128 0x1d
 3444 12c5 B1010000 		.4byte	.LASF192
 3445 12c9 01       		.byte	0x1
 3446 12ca 96       		.byte	0x96
 3447 12cb 00000000 		.4byte	.LFB259
 3448 12cf 50000000 		.4byte	.LFE259-.LFB259
 3449 12d3 01       		.uleb128 0x1
 3450 12d4 9C       		.byte	0x9c
 3451 12d5 4D130000 		.4byte	0x134d
 3452 12d9 22       		.uleb128 0x22
 3453 12da 0A000000 		.4byte	.LVL47
 3454 12de F7150000 		.4byte	0x15f7
 3455 12e2 1E       		.uleb128 0x1e
 3456 12e3 1C000000 		.4byte	.LVL48
 3457 12e7 93150000 		.4byte	0x1593
 3458 12eb 07130000 		.4byte	0x1307
 3459 12ef 1F       		.uleb128 0x1f
 3460 12f0 01       		.uleb128 0x1
 3461 12f1 52       		.byte	0x52
 3462 12f2 03       		.uleb128 0x3
 3463 12f3 0A       		.byte	0xa
 3464 12f4 2E02     		.2byte	0x22e
 3465 12f6 1F       		.uleb128 0x1f
 3466 12f7 01       		.uleb128 0x1
 3467 12f8 51       		.byte	0x51
 3468 12f9 03       		.uleb128 0x3
 3469 12fa 0A       		.byte	0xa
 3470 12fb 0004     		.2byte	0x400
 3471 12fd 1F       		.uleb128 0x1f
ARM GAS  /tmp/ccVOxwUj.s 			page 62


 3472 12fe 01       		.uleb128 0x1
 3473 12ff 50       		.byte	0x50
 3474 1300 05       		.uleb128 0x5
 3475 1301 0C       		.byte	0xc
 3476 1302 00040240 		.4byte	0x40020400
 3477 1306 00       		.byte	0
 3478 1307 1E       		.uleb128 0x1e
 3479 1308 2A000000 		.4byte	.LVL49
 3480 130c 93150000 		.4byte	0x1593
 3481 1310 2C130000 		.4byte	0x132c
 3482 1314 1F       		.uleb128 0x1f
 3483 1315 01       		.uleb128 0x1
 3484 1316 52       		.byte	0x52
 3485 1317 03       		.uleb128 0x3
 3486 1318 0A       		.byte	0xa
 3487 1319 2E02     		.2byte	0x22e
 3488 131b 1F       		.uleb128 0x1f
 3489 131c 01       		.uleb128 0x1
 3490 131d 51       		.byte	0x51
 3491 131e 03       		.uleb128 0x3
 3492 131f 0A       		.byte	0xa
 3493 1320 0008     		.2byte	0x800
 3494 1322 1F       		.uleb128 0x1f
 3495 1323 01       		.uleb128 0x1
 3496 1324 50       		.byte	0x50
 3497 1325 05       		.uleb128 0x5
 3498 1326 0C       		.byte	0xc
 3499 1327 00040240 		.4byte	0x40020400
 3500 132b 00       		.byte	0
 3501 132c 1E       		.uleb128 0x1e
 3502 132d 32000000 		.4byte	.LVL50
 3503 1331 0E160000 		.4byte	0x160e
 3504 1335 43130000 		.4byte	0x1343
 3505 1339 1F       		.uleb128 0x1f
 3506 133a 01       		.uleb128 0x1
 3507 133b 51       		.byte	0x51
 3508 133c 05       		.uleb128 0x5
 3509 133d 03       		.byte	0x3
 3510 133e 00000000 		.4byte	.LANCHOR1
 3511 1342 00       		.byte	0
 3512 1343 23       		.uleb128 0x23
 3513 1344 40000000 		.4byte	.LVL51
 3514 1348 24160000 		.4byte	0x1624
 3515 134c 00       		.byte	0
 3516 134d 1D       		.uleb128 0x1d
 3517 134e EC060000 		.4byte	.LASF193
 3518 1352 01       		.byte	0x1
 3519 1353 AC       		.byte	0xac
 3520 1354 00000000 		.4byte	.LFB260
 3521 1358 48000000 		.4byte	.LFE260-.LFB260
 3522 135c 01       		.uleb128 0x1
 3523 135d 9C       		.byte	0x9c
 3524 135e C4130000 		.4byte	0x13c4
 3525 1362 22       		.uleb128 0x22
 3526 1363 0A000000 		.4byte	.LVL52
 3527 1367 F7150000 		.4byte	0x15f7
 3528 136b 1E       		.uleb128 0x1e
ARM GAS  /tmp/ccVOxwUj.s 			page 63


 3529 136c 1A000000 		.4byte	.LVL53
 3530 1370 93150000 		.4byte	0x1593
 3531 1374 8E130000 		.4byte	0x138e
 3532 1378 1F       		.uleb128 0x1f
 3533 1379 01       		.uleb128 0x1
 3534 137a 52       		.byte	0x52
 3535 137b 01       		.uleb128 0x1
 3536 137c 30       		.byte	0x30
 3537 137d 1F       		.uleb128 0x1f
 3538 137e 01       		.uleb128 0x1
 3539 137f 51       		.byte	0x51
 3540 1380 03       		.uleb128 0x3
 3541 1381 0A       		.byte	0xa
 3542 1382 0004     		.2byte	0x400
 3543 1384 1F       		.uleb128 0x1f
 3544 1385 01       		.uleb128 0x1
 3545 1386 50       		.byte	0x50
 3546 1387 05       		.uleb128 0x5
 3547 1388 0C       		.byte	0xc
 3548 1389 00040240 		.4byte	0x40020400
 3549 138d 00       		.byte	0
 3550 138e 1E       		.uleb128 0x1e
 3551 138f 26000000 		.4byte	.LVL54
 3552 1393 93150000 		.4byte	0x1593
 3553 1397 B1130000 		.4byte	0x13b1
 3554 139b 1F       		.uleb128 0x1f
 3555 139c 01       		.uleb128 0x1
 3556 139d 52       		.byte	0x52
 3557 139e 01       		.uleb128 0x1
 3558 139f 30       		.byte	0x30
 3559 13a0 1F       		.uleb128 0x1f
 3560 13a1 01       		.uleb128 0x1
 3561 13a2 51       		.byte	0x51
 3562 13a3 03       		.uleb128 0x3
 3563 13a4 0A       		.byte	0xa
 3564 13a5 0008     		.2byte	0x800
 3565 13a7 1F       		.uleb128 0x1f
 3566 13a8 01       		.uleb128 0x1
 3567 13a9 50       		.byte	0x50
 3568 13aa 05       		.uleb128 0x5
 3569 13ab 0C       		.byte	0xc
 3570 13ac 00040240 		.4byte	0x40020400
 3571 13b0 00       		.byte	0
 3572 13b1 22       		.uleb128 0x22
 3573 13b2 2C000000 		.4byte	.LVL55
 3574 13b6 35160000 		.4byte	0x1635
 3575 13ba 23       		.uleb128 0x23
 3576 13bb 3A000000 		.4byte	.LVL56
 3577 13bf 24160000 		.4byte	0x1624
 3578 13c3 00       		.byte	0
 3579 13c4 1D       		.uleb128 0x1d
 3580 13c5 4C090000 		.4byte	.LASF194
 3581 13c9 01       		.byte	0x1
 3582 13ca BE       		.byte	0xbe
 3583 13cb 00000000 		.4byte	.LFB261
 3584 13cf C4000000 		.4byte	.LFE261-.LFB261
 3585 13d3 01       		.uleb128 0x1
ARM GAS  /tmp/ccVOxwUj.s 			page 64


 3586 13d4 9C       		.byte	0x9c
 3587 13d5 12150000 		.4byte	0x1512
 3588 13d9 24       		.uleb128 0x24
 3589 13da 00000000 		.4byte	.Ldebug_ranges0+0
 3590 13de 12140000 		.4byte	0x1412
 3591 13e2 25       		.uleb128 0x25
 3592 13e3 6900     		.ascii	"i\000"
 3593 13e5 01       		.byte	0x1
 3594 13e6 D1       		.byte	0xd1
 3595 13e7 94000000 		.4byte	0x94
 3596 13eb 00000000 		.4byte	.LLST0
 3597 13ef 1E       		.uleb128 0x1e
 3598 13f0 50000000 		.4byte	.LVL62
 3599 13f4 46160000 		.4byte	0x1646
 3600 13f8 02140000 		.4byte	0x1402
 3601 13fc 1F       		.uleb128 0x1f
 3602 13fd 01       		.uleb128 0x1
 3603 13fe 50       		.byte	0x50
 3604 13ff 01       		.uleb128 0x1
 3605 1400 31       		.byte	0x31
 3606 1401 00       		.byte	0
 3607 1402 21       		.uleb128 0x21
 3608 1403 5A000000 		.4byte	.LVL63
 3609 1407 46160000 		.4byte	0x1646
 3610 140b 1F       		.uleb128 0x1f
 3611 140c 01       		.uleb128 0x1
 3612 140d 50       		.byte	0x50
 3613 140e 01       		.uleb128 0x1
 3614 140f 31       		.byte	0x31
 3615 1410 00       		.byte	0
 3616 1411 00       		.byte	0
 3617 1412 22       		.uleb128 0x22
 3618 1413 16000000 		.4byte	.LVL57
 3619 1417 F7150000 		.4byte	0x15f7
 3620 141b 1E       		.uleb128 0x1e
 3621 141c 22000000 		.4byte	.LVL58
 3622 1420 93150000 		.4byte	0x1593
 3623 1424 3C140000 		.4byte	0x143c
 3624 1428 1F       		.uleb128 0x1f
 3625 1429 01       		.uleb128 0x1
 3626 142a 52       		.byte	0x52
 3627 142b 02       		.uleb128 0x2
 3628 142c 08       		.byte	0x8
 3629 142d 2C       		.byte	0x2c
 3630 142e 1F       		.uleb128 0x1f
 3631 142f 01       		.uleb128 0x1
 3632 1430 51       		.byte	0x51
 3633 1431 03       		.uleb128 0x3
 3634 1432 0A       		.byte	0xa
 3635 1433 0004     		.2byte	0x400
 3636 1435 1F       		.uleb128 0x1f
 3637 1436 01       		.uleb128 0x1
 3638 1437 50       		.byte	0x50
 3639 1438 02       		.uleb128 0x2
 3640 1439 75       		.byte	0x75
 3641 143a 00       		.sleb128 0
 3642 143b 00       		.byte	0
ARM GAS  /tmp/ccVOxwUj.s 			page 65


 3643 143c 1E       		.uleb128 0x1e
 3644 143d 2E000000 		.4byte	.LVL59
 3645 1441 93150000 		.4byte	0x1593
 3646 1445 5D140000 		.4byte	0x145d
 3647 1449 1F       		.uleb128 0x1f
 3648 144a 01       		.uleb128 0x1
 3649 144b 52       		.byte	0x52
 3650 144c 02       		.uleb128 0x2
 3651 144d 08       		.byte	0x8
 3652 144e 2C       		.byte	0x2c
 3653 144f 1F       		.uleb128 0x1f
 3654 1450 01       		.uleb128 0x1
 3655 1451 51       		.byte	0x51
 3656 1452 03       		.uleb128 0x3
 3657 1453 0A       		.byte	0xa
 3658 1454 0008     		.2byte	0x800
 3659 1456 1F       		.uleb128 0x1f
 3660 1457 01       		.uleb128 0x1
 3661 1458 50       		.byte	0x50
 3662 1459 02       		.uleb128 0x2
 3663 145a 75       		.byte	0x75
 3664 145b 00       		.sleb128 0
 3665 145c 00       		.byte	0
 3666 145d 1E       		.uleb128 0x1e
 3667 145e 42000000 		.4byte	.LVL60
 3668 1462 46160000 		.4byte	0x1646
 3669 1466 70140000 		.4byte	0x1470
 3670 146a 1F       		.uleb128 0x1f
 3671 146b 01       		.uleb128 0x1
 3672 146c 50       		.byte	0x50
 3673 146d 01       		.uleb128 0x1
 3674 146e 31       		.byte	0x31
 3675 146f 00       		.byte	0
 3676 1470 1E       		.uleb128 0x1e
 3677 1471 70000000 		.4byte	.LVL65
 3678 1475 46160000 		.4byte	0x1646
 3679 1479 83140000 		.4byte	0x1483
 3680 147d 1F       		.uleb128 0x1f
 3681 147e 01       		.uleb128 0x1
 3682 147f 50       		.byte	0x50
 3683 1480 01       		.uleb128 0x1
 3684 1481 31       		.byte	0x31
 3685 1482 00       		.byte	0
 3686 1483 1E       		.uleb128 0x1e
 3687 1484 78000000 		.4byte	.LVL66
 3688 1488 46160000 		.4byte	0x1646
 3689 148c 96140000 		.4byte	0x1496
 3690 1490 1F       		.uleb128 0x1f
 3691 1491 01       		.uleb128 0x1
 3692 1492 50       		.byte	0x50
 3693 1493 01       		.uleb128 0x1
 3694 1494 31       		.byte	0x31
 3695 1495 00       		.byte	0
 3696 1496 1E       		.uleb128 0x1e
 3697 1497 80000000 		.4byte	.LVL67
 3698 149b 46160000 		.4byte	0x1646
 3699 149f A9140000 		.4byte	0x14a9
ARM GAS  /tmp/ccVOxwUj.s 			page 66


 3700 14a3 1F       		.uleb128 0x1f
 3701 14a4 01       		.uleb128 0x1
 3702 14a5 50       		.byte	0x50
 3703 14a6 01       		.uleb128 0x1
 3704 14a7 31       		.byte	0x31
 3705 14a8 00       		.byte	0
 3706 14a9 1E       		.uleb128 0x1e
 3707 14aa 90000000 		.4byte	.LVL69
 3708 14ae 93150000 		.4byte	0x1593
 3709 14b2 CA140000 		.4byte	0x14ca
 3710 14b6 1F       		.uleb128 0x1f
 3711 14b7 01       		.uleb128 0x1
 3712 14b8 52       		.byte	0x52
 3713 14b9 03       		.uleb128 0x3
 3714 14ba 0A       		.byte	0xa
 3715 14bb 2E02     		.2byte	0x22e
 3716 14bd 1F       		.uleb128 0x1f
 3717 14be 01       		.uleb128 0x1
 3718 14bf 51       		.byte	0x51
 3719 14c0 02       		.uleb128 0x2
 3720 14c1 77       		.byte	0x77
 3721 14c2 00       		.sleb128 0
 3722 14c3 1F       		.uleb128 0x1f
 3723 14c4 01       		.uleb128 0x1
 3724 14c5 50       		.byte	0x50
 3725 14c6 02       		.uleb128 0x2
 3726 14c7 76       		.byte	0x76
 3727 14c8 00       		.sleb128 0
 3728 14c9 00       		.byte	0
 3729 14ca 1E       		.uleb128 0x1e
 3730 14cb 9C000000 		.4byte	.LVL70
 3731 14cf 93150000 		.4byte	0x1593
 3732 14d3 EB140000 		.4byte	0x14eb
 3733 14d7 1F       		.uleb128 0x1f
 3734 14d8 01       		.uleb128 0x1
 3735 14d9 52       		.byte	0x52
 3736 14da 03       		.uleb128 0x3
 3737 14db 0A       		.byte	0xa
 3738 14dc 2E02     		.2byte	0x22e
 3739 14de 1F       		.uleb128 0x1f
 3740 14df 01       		.uleb128 0x1
 3741 14e0 51       		.byte	0x51
 3742 14e1 02       		.uleb128 0x2
 3743 14e2 75       		.byte	0x75
 3744 14e3 00       		.sleb128 0
 3745 14e4 1F       		.uleb128 0x1f
 3746 14e5 01       		.uleb128 0x1
 3747 14e6 50       		.byte	0x50
 3748 14e7 02       		.uleb128 0x2
 3749 14e8 76       		.byte	0x76
 3750 14e9 00       		.sleb128 0
 3751 14ea 00       		.byte	0
 3752 14eb 1E       		.uleb128 0x1e
 3753 14ec A8000000 		.4byte	.LVL71
 3754 14f0 0E160000 		.4byte	0x160e
 3755 14f4 08150000 		.4byte	0x1508
 3756 14f8 1F       		.uleb128 0x1f
ARM GAS  /tmp/ccVOxwUj.s 			page 67


 3757 14f9 01       		.uleb128 0x1
 3758 14fa 51       		.byte	0x51
 3759 14fb 05       		.uleb128 0x5
 3760 14fc 03       		.byte	0x3
 3761 14fd 00000000 		.4byte	.LANCHOR1
 3762 1501 1F       		.uleb128 0x1f
 3763 1502 01       		.uleb128 0x1
 3764 1503 50       		.byte	0x50
 3765 1504 02       		.uleb128 0x2
 3766 1505 74       		.byte	0x74
 3767 1506 00       		.sleb128 0
 3768 1507 00       		.byte	0
 3769 1508 23       		.uleb128 0x23
 3770 1509 B2000000 		.4byte	.LVL72
 3771 150d 24160000 		.4byte	0x1624
 3772 1511 00       		.byte	0
 3773 1512 26       		.uleb128 0x26
 3774 1513 6F080000 		.4byte	.LASF195
 3775 1517 01       		.byte	0x1
 3776 1518 1B       		.byte	0x1b
 3777 1519 23150000 		.4byte	0x1523
 3778 151d 05       		.uleb128 0x5
 3779 151e 03       		.byte	0x3
 3780 151f 00000000 		.4byte	i2c_running
 3781 1523 05       		.uleb128 0x5
 3782 1524 52090000 		.4byte	0x952
 3783 1528 26       		.uleb128 0x26
 3784 1529 FB010000 		.4byte	.LASF196
 3785 152d 01       		.byte	0x1
 3786 152e 1E       		.byte	0x1e
 3787 152f 440C0000 		.4byte	0xc44
 3788 1533 05       		.uleb128 0x5
 3789 1534 03       		.byte	0x3
 3790 1535 00000000 		.4byte	i2cfg
 3791 1539 27       		.uleb128 0x27
 3792 153a D4060000 		.4byte	.LASF197
 3793 153e 14       		.byte	0x14
 3794 153f A706     		.2byte	0x6a7
 3795 1541 E4000000 		.4byte	0xe4
 3796 1545 28       		.uleb128 0x28
 3797 1546 636800   		.ascii	"ch\000"
 3798 1549 07       		.byte	0x7
 3799 154a 0902     		.2byte	0x209
 3800 154c 23040000 		.4byte	0x423
 3801 1550 27       		.uleb128 0x27
 3802 1551 0F090000 		.4byte	.LASF198
 3803 1555 12       		.byte	0x12
 3804 1556 E401     		.2byte	0x1e4
 3805 1558 950B0000 		.4byte	0xb95
 3806 155c 19       		.uleb128 0x19
 3807 155d A20C0000 		.4byte	0xca2
 3808 1561 6C150000 		.4byte	0x156c
 3809 1565 1A       		.uleb128 0x1a
 3810 1566 8A040000 		.4byte	0x48a
 3811 156a 01       		.byte	0x1
 3812 156b 00       		.byte	0
 3813 156c 29       		.uleb128 0x29
ARM GAS  /tmp/ccVOxwUj.s 			page 68


 3814 156d 9D080000 		.4byte	.LASF199
 3815 1571 13       		.byte	0x13
 3816 1572 FA       		.byte	0xfa
 3817 1573 77150000 		.4byte	0x1577
 3818 1577 05       		.uleb128 0x5
 3819 1578 5C150000 		.4byte	0x155c
 3820 157c 2A       		.uleb128 0x2a
 3821 157d 0E040000 		.4byte	.LASF200
 3822 1581 15       		.byte	0x15
 3823 1582 5803     		.2byte	0x358
 3824 1584 93150000 		.4byte	0x1593
 3825 1588 0D       		.uleb128 0xd
 3826 1589 C3000000 		.4byte	0xc3
 3827 158d 0D       		.uleb128 0xd
 3828 158e A2060000 		.4byte	0x6a2
 3829 1592 00       		.byte	0
 3830 1593 2A       		.uleb128 0x2a
 3831 1594 7B080000 		.4byte	.LASF201
 3832 1598 10       		.byte	0x10
 3833 1599 E001     		.2byte	0x1e0
 3834 159b AF150000 		.4byte	0x15af
 3835 159f 0D       		.uleb128 0xd
 3836 15a0 A60A0000 		.4byte	0xaa6
 3837 15a4 0D       		.uleb128 0xd
 3838 15a5 8E0A0000 		.4byte	0xa8e
 3839 15a9 0D       		.uleb128 0xd
 3840 15aa 9A0A0000 		.4byte	0xa9a
 3841 15ae 00       		.byte	0
 3842 15af 2A       		.uleb128 0x2a
 3843 15b0 2E090000 		.4byte	.LASF202
 3844 15b4 16       		.byte	0x16
 3845 15b5 6002     		.2byte	0x260
 3846 15b7 D0150000 		.4byte	0x15d0
 3847 15bb 0D       		.uleb128 0xd
 3848 15bc D0150000 		.4byte	0x15d0
 3849 15c0 0D       		.uleb128 0xd
 3850 15c1 A2000000 		.4byte	0xa2
 3851 15c5 0D       		.uleb128 0xd
 3852 15c6 A2000000 		.4byte	0xa2
 3853 15ca 0D       		.uleb128 0xd
 3854 15cb A2000000 		.4byte	0xa2
 3855 15cf 00       		.byte	0
 3856 15d0 0A       		.uleb128 0xa
 3857 15d1 04       		.byte	0x4
 3858 15d2 88050000 		.4byte	0x588
 3859 15d6 2A       		.uleb128 0x2a
 3860 15d7 B0050000 		.4byte	.LASF203
 3861 15db 16       		.byte	0x16
 3862 15dc 7002     		.2byte	0x270
 3863 15de F7150000 		.4byte	0x15f7
 3864 15e2 0D       		.uleb128 0xd
 3865 15e3 D0150000 		.4byte	0x15d0
 3866 15e7 0D       		.uleb128 0xd
 3867 15e8 A2000000 		.4byte	0xa2
 3868 15ec 0D       		.uleb128 0xd
 3869 15ed A2000000 		.4byte	0xa2
 3870 15f1 0D       		.uleb128 0xd
ARM GAS  /tmp/ccVOxwUj.s 			page 69


 3871 15f2 A2000000 		.4byte	0xa2
 3872 15f6 00       		.byte	0
 3873 15f7 2B       		.uleb128 0x2b
 3874 15f8 F0070000 		.4byte	.LASF204
 3875 15fc 11       		.byte	0x11
 3876 15fd 9A       		.byte	0x9a
 3877 15fe 08160000 		.4byte	0x1608
 3878 1602 0D       		.uleb128 0xd
 3879 1603 08160000 		.4byte	0x1608
 3880 1607 00       		.byte	0
 3881 1608 0A       		.uleb128 0xa
 3882 1609 04       		.byte	0x4
 3883 160a 950B0000 		.4byte	0xb95
 3884 160e 2B       		.uleb128 0x2b
 3885 160f DD040000 		.4byte	.LASF205
 3886 1613 11       		.byte	0x11
 3887 1614 8D       		.byte	0x8d
 3888 1615 24160000 		.4byte	0x1624
 3889 1619 0D       		.uleb128 0xd
 3890 161a 08160000 		.4byte	0x1608
 3891 161e 0D       		.uleb128 0xd
 3892 161f 3E0C0000 		.4byte	0xc3e
 3893 1623 00       		.byte	0
 3894 1624 2B       		.uleb128 0x2b
 3895 1625 63050000 		.4byte	.LASF206
 3896 1629 11       		.byte	0x11
 3897 162a 9B       		.byte	0x9b
 3898 162b 35160000 		.4byte	0x1635
 3899 162f 0D       		.uleb128 0xd
 3900 1630 08160000 		.4byte	0x1608
 3901 1634 00       		.byte	0
 3902 1635 2B       		.uleb128 0x2b
 3903 1636 15050000 		.4byte	.LASF207
 3904 163a 11       		.byte	0x11
 3905 163b 8E       		.byte	0x8e
 3906 163c 46160000 		.4byte	0x1646
 3907 1640 0D       		.uleb128 0xd
 3908 1641 08160000 		.4byte	0x1608
 3909 1645 00       		.byte	0
 3910 1646 2C       		.uleb128 0x2c
 3911 1647 3B080000 		.4byte	.LASF211
 3912 164b 17       		.byte	0x17
 3913 164c 96       		.byte	0x96
 3914 164d 0D       		.uleb128 0xd
 3915 164e 51010000 		.4byte	0x151
 3916 1652 00       		.byte	0
 3917 1653 00       		.byte	0
 3918              		.section	.debug_abbrev,"",%progbits
 3919              	.Ldebug_abbrev0:
 3920 0000 01       		.uleb128 0x1
 3921 0001 11       		.uleb128 0x11
 3922 0002 01       		.byte	0x1
 3923 0003 25       		.uleb128 0x25
 3924 0004 0E       		.uleb128 0xe
 3925 0005 13       		.uleb128 0x13
 3926 0006 0B       		.uleb128 0xb
 3927 0007 03       		.uleb128 0x3
ARM GAS  /tmp/ccVOxwUj.s 			page 70


 3928 0008 0E       		.uleb128 0xe
 3929 0009 1B       		.uleb128 0x1b
 3930 000a 0E       		.uleb128 0xe
 3931 000b 55       		.uleb128 0x55
 3932 000c 17       		.uleb128 0x17
 3933 000d 11       		.uleb128 0x11
 3934 000e 01       		.uleb128 0x1
 3935 000f 10       		.uleb128 0x10
 3936 0010 17       		.uleb128 0x17
 3937 0011 00       		.byte	0
 3938 0012 00       		.byte	0
 3939 0013 02       		.uleb128 0x2
 3940 0014 24       		.uleb128 0x24
 3941 0015 00       		.byte	0
 3942 0016 0B       		.uleb128 0xb
 3943 0017 0B       		.uleb128 0xb
 3944 0018 3E       		.uleb128 0x3e
 3945 0019 0B       		.uleb128 0xb
 3946 001a 03       		.uleb128 0x3
 3947 001b 0E       		.uleb128 0xe
 3948 001c 00       		.byte	0
 3949 001d 00       		.byte	0
 3950 001e 03       		.uleb128 0x3
 3951 001f 16       		.uleb128 0x16
 3952 0020 00       		.byte	0
 3953 0021 03       		.uleb128 0x3
 3954 0022 0E       		.uleb128 0xe
 3955 0023 3A       		.uleb128 0x3a
 3956 0024 0B       		.uleb128 0xb
 3957 0025 3B       		.uleb128 0x3b
 3958 0026 0B       		.uleb128 0xb
 3959 0027 49       		.uleb128 0x49
 3960 0028 13       		.uleb128 0x13
 3961 0029 00       		.byte	0
 3962 002a 00       		.byte	0
 3963 002b 04       		.uleb128 0x4
 3964 002c 24       		.uleb128 0x24
 3965 002d 00       		.byte	0
 3966 002e 0B       		.uleb128 0xb
 3967 002f 0B       		.uleb128 0xb
 3968 0030 3E       		.uleb128 0x3e
 3969 0031 0B       		.uleb128 0xb
 3970 0032 03       		.uleb128 0x3
 3971 0033 08       		.uleb128 0x8
 3972 0034 00       		.byte	0
 3973 0035 00       		.byte	0
 3974 0036 05       		.uleb128 0x5
 3975 0037 35       		.uleb128 0x35
 3976 0038 00       		.byte	0
 3977 0039 49       		.uleb128 0x49
 3978 003a 13       		.uleb128 0x13
 3979 003b 00       		.byte	0
 3980 003c 00       		.byte	0
 3981 003d 06       		.uleb128 0x6
 3982 003e 13       		.uleb128 0x13
 3983 003f 01       		.byte	0x1
 3984 0040 03       		.uleb128 0x3
ARM GAS  /tmp/ccVOxwUj.s 			page 71


 3985 0041 0E       		.uleb128 0xe
 3986 0042 0B       		.uleb128 0xb
 3987 0043 0B       		.uleb128 0xb
 3988 0044 3A       		.uleb128 0x3a
 3989 0045 0B       		.uleb128 0xb
 3990 0046 3B       		.uleb128 0x3b
 3991 0047 0B       		.uleb128 0xb
 3992 0048 01       		.uleb128 0x1
 3993 0049 13       		.uleb128 0x13
 3994 004a 00       		.byte	0
 3995 004b 00       		.byte	0
 3996 004c 07       		.uleb128 0x7
 3997 004d 0D       		.uleb128 0xd
 3998 004e 00       		.byte	0
 3999 004f 03       		.uleb128 0x3
 4000 0050 0E       		.uleb128 0xe
 4001 0051 3A       		.uleb128 0x3a
 4002 0052 0B       		.uleb128 0xb
 4003 0053 3B       		.uleb128 0x3b
 4004 0054 0B       		.uleb128 0xb
 4005 0055 49       		.uleb128 0x49
 4006 0056 13       		.uleb128 0x13
 4007 0057 38       		.uleb128 0x38
 4008 0058 0B       		.uleb128 0xb
 4009 0059 00       		.byte	0
 4010 005a 00       		.byte	0
 4011 005b 08       		.uleb128 0x8
 4012 005c 0D       		.uleb128 0xd
 4013 005d 00       		.byte	0
 4014 005e 03       		.uleb128 0x3
 4015 005f 08       		.uleb128 0x8
 4016 0060 3A       		.uleb128 0x3a
 4017 0061 0B       		.uleb128 0xb
 4018 0062 3B       		.uleb128 0x3b
 4019 0063 05       		.uleb128 0x5
 4020 0064 49       		.uleb128 0x49
 4021 0065 13       		.uleb128 0x13
 4022 0066 38       		.uleb128 0x38
 4023 0067 0B       		.uleb128 0xb
 4024 0068 00       		.byte	0
 4025 0069 00       		.byte	0
 4026 006a 09       		.uleb128 0x9
 4027 006b 0D       		.uleb128 0xd
 4028 006c 00       		.byte	0
 4029 006d 03       		.uleb128 0x3
 4030 006e 0E       		.uleb128 0xe
 4031 006f 3A       		.uleb128 0x3a
 4032 0070 0B       		.uleb128 0xb
 4033 0071 3B       		.uleb128 0x3b
 4034 0072 05       		.uleb128 0x5
 4035 0073 49       		.uleb128 0x49
 4036 0074 13       		.uleb128 0x13
 4037 0075 38       		.uleb128 0x38
 4038 0076 0B       		.uleb128 0xb
 4039 0077 00       		.byte	0
 4040 0078 00       		.byte	0
 4041 0079 0A       		.uleb128 0xa
ARM GAS  /tmp/ccVOxwUj.s 			page 72


 4042 007a 0F       		.uleb128 0xf
 4043 007b 00       		.byte	0
 4044 007c 0B       		.uleb128 0xb
 4045 007d 0B       		.uleb128 0xb
 4046 007e 49       		.uleb128 0x49
 4047 007f 13       		.uleb128 0x13
 4048 0080 00       		.byte	0
 4049 0081 00       		.byte	0
 4050 0082 0B       		.uleb128 0xb
 4051 0083 13       		.uleb128 0x13
 4052 0084 01       		.byte	0x1
 4053 0085 03       		.uleb128 0x3
 4054 0086 0E       		.uleb128 0xe
 4055 0087 0B       		.uleb128 0xb
 4056 0088 0B       		.uleb128 0xb
 4057 0089 3A       		.uleb128 0x3a
 4058 008a 0B       		.uleb128 0xb
 4059 008b 3B       		.uleb128 0x3b
 4060 008c 05       		.uleb128 0x5
 4061 008d 01       		.uleb128 0x1
 4062 008e 13       		.uleb128 0x13
 4063 008f 00       		.byte	0
 4064 0090 00       		.byte	0
 4065 0091 0C       		.uleb128 0xc
 4066 0092 15       		.uleb128 0x15
 4067 0093 01       		.byte	0x1
 4068 0094 27       		.uleb128 0x27
 4069 0095 19       		.uleb128 0x19
 4070 0096 01       		.uleb128 0x1
 4071 0097 13       		.uleb128 0x13
 4072 0098 00       		.byte	0
 4073 0099 00       		.byte	0
 4074 009a 0D       		.uleb128 0xd
 4075 009b 05       		.uleb128 0x5
 4076 009c 00       		.byte	0
 4077 009d 49       		.uleb128 0x49
 4078 009e 13       		.uleb128 0x13
 4079 009f 00       		.byte	0
 4080 00a0 00       		.byte	0
 4081 00a1 0E       		.uleb128 0xe
 4082 00a2 0F       		.uleb128 0xf
 4083 00a3 00       		.byte	0
 4084 00a4 0B       		.uleb128 0xb
 4085 00a5 0B       		.uleb128 0xb
 4086 00a6 00       		.byte	0
 4087 00a7 00       		.byte	0
 4088 00a8 0F       		.uleb128 0xf
 4089 00a9 13       		.uleb128 0x13
 4090 00aa 01       		.byte	0x1
 4091 00ab 03       		.uleb128 0x3
 4092 00ac 0E       		.uleb128 0xe
 4093 00ad 0B       		.uleb128 0xb
 4094 00ae 05       		.uleb128 0x5
 4095 00af 3A       		.uleb128 0x3a
 4096 00b0 0B       		.uleb128 0xb
 4097 00b1 3B       		.uleb128 0x3b
 4098 00b2 05       		.uleb128 0x5
ARM GAS  /tmp/ccVOxwUj.s 			page 73


 4099 00b3 01       		.uleb128 0x1
 4100 00b4 13       		.uleb128 0x13
 4101 00b5 00       		.byte	0
 4102 00b6 00       		.byte	0
 4103 00b7 10       		.uleb128 0x10
 4104 00b8 13       		.uleb128 0x13
 4105 00b9 01       		.byte	0x1
 4106 00ba 0B       		.uleb128 0xb
 4107 00bb 0B       		.uleb128 0xb
 4108 00bc 3A       		.uleb128 0x3a
 4109 00bd 0B       		.uleb128 0xb
 4110 00be 3B       		.uleb128 0x3b
 4111 00bf 0B       		.uleb128 0xb
 4112 00c0 01       		.uleb128 0x1
 4113 00c1 13       		.uleb128 0x13
 4114 00c2 00       		.byte	0
 4115 00c3 00       		.byte	0
 4116 00c4 11       		.uleb128 0x11
 4117 00c5 0D       		.uleb128 0xd
 4118 00c6 00       		.byte	0
 4119 00c7 03       		.uleb128 0x3
 4120 00c8 08       		.uleb128 0x8
 4121 00c9 3A       		.uleb128 0x3a
 4122 00ca 0B       		.uleb128 0xb
 4123 00cb 3B       		.uleb128 0x3b
 4124 00cc 0B       		.uleb128 0xb
 4125 00cd 49       		.uleb128 0x49
 4126 00ce 13       		.uleb128 0x13
 4127 00cf 38       		.uleb128 0x38
 4128 00d0 0B       		.uleb128 0xb
 4129 00d1 00       		.byte	0
 4130 00d2 00       		.byte	0
 4131 00d3 12       		.uleb128 0x12
 4132 00d4 13       		.uleb128 0x13
 4133 00d5 01       		.byte	0x1
 4134 00d6 0B       		.uleb128 0xb
 4135 00d7 0B       		.uleb128 0xb
 4136 00d8 3A       		.uleb128 0x3a
 4137 00d9 0B       		.uleb128 0xb
 4138 00da 3B       		.uleb128 0x3b
 4139 00db 05       		.uleb128 0x5
 4140 00dc 01       		.uleb128 0x1
 4141 00dd 13       		.uleb128 0x13
 4142 00de 00       		.byte	0
 4143 00df 00       		.byte	0
 4144 00e0 13       		.uleb128 0x13
 4145 00e1 16       		.uleb128 0x16
 4146 00e2 00       		.byte	0
 4147 00e3 03       		.uleb128 0x3
 4148 00e4 0E       		.uleb128 0xe
 4149 00e5 3A       		.uleb128 0x3a
 4150 00e6 0B       		.uleb128 0xb
 4151 00e7 3B       		.uleb128 0x3b
 4152 00e8 05       		.uleb128 0x5
 4153 00e9 49       		.uleb128 0x49
 4154 00ea 13       		.uleb128 0x13
 4155 00eb 00       		.byte	0
ARM GAS  /tmp/ccVOxwUj.s 			page 74


 4156 00ec 00       		.byte	0
 4157 00ed 14       		.uleb128 0x14
 4158 00ee 04       		.uleb128 0x4
 4159 00ef 01       		.byte	0x1
 4160 00f0 0B       		.uleb128 0xb
 4161 00f1 0B       		.uleb128 0xb
 4162 00f2 3A       		.uleb128 0x3a
 4163 00f3 0B       		.uleb128 0xb
 4164 00f4 3B       		.uleb128 0x3b
 4165 00f5 0B       		.uleb128 0xb
 4166 00f6 01       		.uleb128 0x1
 4167 00f7 13       		.uleb128 0x13
 4168 00f8 00       		.byte	0
 4169 00f9 00       		.byte	0
 4170 00fa 15       		.uleb128 0x15
 4171 00fb 28       		.uleb128 0x28
 4172 00fc 00       		.byte	0
 4173 00fd 03       		.uleb128 0x3
 4174 00fe 0E       		.uleb128 0xe
 4175 00ff 1C       		.uleb128 0x1c
 4176 0100 0D       		.uleb128 0xd
 4177 0101 00       		.byte	0
 4178 0102 00       		.byte	0
 4179 0103 16       		.uleb128 0x16
 4180 0104 17       		.uleb128 0x17
 4181 0105 01       		.byte	0x1
 4182 0106 0B       		.uleb128 0xb
 4183 0107 0B       		.uleb128 0xb
 4184 0108 3A       		.uleb128 0x3a
 4185 0109 0B       		.uleb128 0xb
 4186 010a 3B       		.uleb128 0x3b
 4187 010b 0B       		.uleb128 0xb
 4188 010c 01       		.uleb128 0x1
 4189 010d 13       		.uleb128 0x13
 4190 010e 00       		.byte	0
 4191 010f 00       		.byte	0
 4192 0110 17       		.uleb128 0x17
 4193 0111 0D       		.uleb128 0xd
 4194 0112 00       		.byte	0
 4195 0113 03       		.uleb128 0x3
 4196 0114 0E       		.uleb128 0xe
 4197 0115 3A       		.uleb128 0x3a
 4198 0116 0B       		.uleb128 0xb
 4199 0117 3B       		.uleb128 0x3b
 4200 0118 05       		.uleb128 0x5
 4201 0119 49       		.uleb128 0x49
 4202 011a 13       		.uleb128 0x13
 4203 011b 00       		.byte	0
 4204 011c 00       		.byte	0
 4205 011d 18       		.uleb128 0x18
 4206 011e 26       		.uleb128 0x26
 4207 011f 00       		.byte	0
 4208 0120 49       		.uleb128 0x49
 4209 0121 13       		.uleb128 0x13
 4210 0122 00       		.byte	0
 4211 0123 00       		.byte	0
 4212 0124 19       		.uleb128 0x19
ARM GAS  /tmp/ccVOxwUj.s 			page 75


 4213 0125 01       		.uleb128 0x1
 4214 0126 01       		.byte	0x1
 4215 0127 49       		.uleb128 0x49
 4216 0128 13       		.uleb128 0x13
 4217 0129 01       		.uleb128 0x1
 4218 012a 13       		.uleb128 0x13
 4219 012b 00       		.byte	0
 4220 012c 00       		.byte	0
 4221 012d 1A       		.uleb128 0x1a
 4222 012e 21       		.uleb128 0x21
 4223 012f 00       		.byte	0
 4224 0130 49       		.uleb128 0x49
 4225 0131 13       		.uleb128 0x13
 4226 0132 2F       		.uleb128 0x2f
 4227 0133 0B       		.uleb128 0xb
 4228 0134 00       		.byte	0
 4229 0135 00       		.byte	0
 4230 0136 1B       		.uleb128 0x1b
 4231 0137 0D       		.uleb128 0xd
 4232 0138 00       		.byte	0
 4233 0139 03       		.uleb128 0x3
 4234 013a 08       		.uleb128 0x8
 4235 013b 3A       		.uleb128 0x3a
 4236 013c 0B       		.uleb128 0xb
 4237 013d 3B       		.uleb128 0x3b
 4238 013e 0B       		.uleb128 0xb
 4239 013f 49       		.uleb128 0x49
 4240 0140 13       		.uleb128 0x13
 4241 0141 00       		.byte	0
 4242 0142 00       		.byte	0
 4243 0143 1C       		.uleb128 0x1c
 4244 0144 04       		.uleb128 0x4
 4245 0145 01       		.byte	0x1
 4246 0146 0B       		.uleb128 0xb
 4247 0147 0B       		.uleb128 0xb
 4248 0148 3A       		.uleb128 0x3a
 4249 0149 0B       		.uleb128 0xb
 4250 014a 3B       		.uleb128 0x3b
 4251 014b 05       		.uleb128 0x5
 4252 014c 01       		.uleb128 0x1
 4253 014d 13       		.uleb128 0x13
 4254 014e 00       		.byte	0
 4255 014f 00       		.byte	0
 4256 0150 1D       		.uleb128 0x1d
 4257 0151 2E       		.uleb128 0x2e
 4258 0152 01       		.byte	0x1
 4259 0153 3F       		.uleb128 0x3f
 4260 0154 19       		.uleb128 0x19
 4261 0155 03       		.uleb128 0x3
 4262 0156 0E       		.uleb128 0xe
 4263 0157 3A       		.uleb128 0x3a
 4264 0158 0B       		.uleb128 0xb
 4265 0159 3B       		.uleb128 0x3b
 4266 015a 0B       		.uleb128 0xb
 4267 015b 27       		.uleb128 0x27
 4268 015c 19       		.uleb128 0x19
 4269 015d 11       		.uleb128 0x11
ARM GAS  /tmp/ccVOxwUj.s 			page 76


 4270 015e 01       		.uleb128 0x1
 4271 015f 12       		.uleb128 0x12
 4272 0160 06       		.uleb128 0x6
 4273 0161 40       		.uleb128 0x40
 4274 0162 18       		.uleb128 0x18
 4275 0163 9742     		.uleb128 0x2117
 4276 0165 19       		.uleb128 0x19
 4277 0166 01       		.uleb128 0x1
 4278 0167 13       		.uleb128 0x13
 4279 0168 00       		.byte	0
 4280 0169 00       		.byte	0
 4281 016a 1E       		.uleb128 0x1e
 4282 016b 898201   		.uleb128 0x4109
 4283 016e 01       		.byte	0x1
 4284 016f 11       		.uleb128 0x11
 4285 0170 01       		.uleb128 0x1
 4286 0171 31       		.uleb128 0x31
 4287 0172 13       		.uleb128 0x13
 4288 0173 01       		.uleb128 0x1
 4289 0174 13       		.uleb128 0x13
 4290 0175 00       		.byte	0
 4291 0176 00       		.byte	0
 4292 0177 1F       		.uleb128 0x1f
 4293 0178 8A8201   		.uleb128 0x410a
 4294 017b 00       		.byte	0
 4295 017c 02       		.uleb128 0x2
 4296 017d 18       		.uleb128 0x18
 4297 017e 9142     		.uleb128 0x2111
 4298 0180 18       		.uleb128 0x18
 4299 0181 00       		.byte	0
 4300 0182 00       		.byte	0
 4301 0183 20       		.uleb128 0x20
 4302 0184 898201   		.uleb128 0x4109
 4303 0187 01       		.byte	0x1
 4304 0188 11       		.uleb128 0x11
 4305 0189 01       		.uleb128 0x1
 4306 018a 9542     		.uleb128 0x2115
 4307 018c 19       		.uleb128 0x19
 4308 018d 31       		.uleb128 0x31
 4309 018e 13       		.uleb128 0x13
 4310 018f 00       		.byte	0
 4311 0190 00       		.byte	0
 4312 0191 21       		.uleb128 0x21
 4313 0192 898201   		.uleb128 0x4109
 4314 0195 01       		.byte	0x1
 4315 0196 11       		.uleb128 0x11
 4316 0197 01       		.uleb128 0x1
 4317 0198 31       		.uleb128 0x31
 4318 0199 13       		.uleb128 0x13
 4319 019a 00       		.byte	0
 4320 019b 00       		.byte	0
 4321 019c 22       		.uleb128 0x22
 4322 019d 898201   		.uleb128 0x4109
 4323 01a0 00       		.byte	0
 4324 01a1 11       		.uleb128 0x11
 4325 01a2 01       		.uleb128 0x1
 4326 01a3 31       		.uleb128 0x31
ARM GAS  /tmp/ccVOxwUj.s 			page 77


 4327 01a4 13       		.uleb128 0x13
 4328 01a5 00       		.byte	0
 4329 01a6 00       		.byte	0
 4330 01a7 23       		.uleb128 0x23
 4331 01a8 898201   		.uleb128 0x4109
 4332 01ab 00       		.byte	0
 4333 01ac 11       		.uleb128 0x11
 4334 01ad 01       		.uleb128 0x1
 4335 01ae 9542     		.uleb128 0x2115
 4336 01b0 19       		.uleb128 0x19
 4337 01b1 31       		.uleb128 0x31
 4338 01b2 13       		.uleb128 0x13
 4339 01b3 00       		.byte	0
 4340 01b4 00       		.byte	0
 4341 01b5 24       		.uleb128 0x24
 4342 01b6 0B       		.uleb128 0xb
 4343 01b7 01       		.byte	0x1
 4344 01b8 55       		.uleb128 0x55
 4345 01b9 17       		.uleb128 0x17
 4346 01ba 01       		.uleb128 0x1
 4347 01bb 13       		.uleb128 0x13
 4348 01bc 00       		.byte	0
 4349 01bd 00       		.byte	0
 4350 01be 25       		.uleb128 0x25
 4351 01bf 34       		.uleb128 0x34
 4352 01c0 00       		.byte	0
 4353 01c1 03       		.uleb128 0x3
 4354 01c2 08       		.uleb128 0x8
 4355 01c3 3A       		.uleb128 0x3a
 4356 01c4 0B       		.uleb128 0xb
 4357 01c5 3B       		.uleb128 0x3b
 4358 01c6 0B       		.uleb128 0xb
 4359 01c7 49       		.uleb128 0x49
 4360 01c8 13       		.uleb128 0x13
 4361 01c9 02       		.uleb128 0x2
 4362 01ca 17       		.uleb128 0x17
 4363 01cb 00       		.byte	0
 4364 01cc 00       		.byte	0
 4365 01cd 26       		.uleb128 0x26
 4366 01ce 34       		.uleb128 0x34
 4367 01cf 00       		.byte	0
 4368 01d0 03       		.uleb128 0x3
 4369 01d1 0E       		.uleb128 0xe
 4370 01d2 3A       		.uleb128 0x3a
 4371 01d3 0B       		.uleb128 0xb
 4372 01d4 3B       		.uleb128 0x3b
 4373 01d5 0B       		.uleb128 0xb
 4374 01d6 49       		.uleb128 0x49
 4375 01d7 13       		.uleb128 0x13
 4376 01d8 02       		.uleb128 0x2
 4377 01d9 18       		.uleb128 0x18
 4378 01da 00       		.byte	0
 4379 01db 00       		.byte	0
 4380 01dc 27       		.uleb128 0x27
 4381 01dd 34       		.uleb128 0x34
 4382 01de 00       		.byte	0
 4383 01df 03       		.uleb128 0x3
ARM GAS  /tmp/ccVOxwUj.s 			page 78


 4384 01e0 0E       		.uleb128 0xe
 4385 01e1 3A       		.uleb128 0x3a
 4386 01e2 0B       		.uleb128 0xb
 4387 01e3 3B       		.uleb128 0x3b
 4388 01e4 05       		.uleb128 0x5
 4389 01e5 49       		.uleb128 0x49
 4390 01e6 13       		.uleb128 0x13
 4391 01e7 3F       		.uleb128 0x3f
 4392 01e8 19       		.uleb128 0x19
 4393 01e9 3C       		.uleb128 0x3c
 4394 01ea 19       		.uleb128 0x19
 4395 01eb 00       		.byte	0
 4396 01ec 00       		.byte	0
 4397 01ed 28       		.uleb128 0x28
 4398 01ee 34       		.uleb128 0x34
 4399 01ef 00       		.byte	0
 4400 01f0 03       		.uleb128 0x3
 4401 01f1 08       		.uleb128 0x8
 4402 01f2 3A       		.uleb128 0x3a
 4403 01f3 0B       		.uleb128 0xb
 4404 01f4 3B       		.uleb128 0x3b
 4405 01f5 05       		.uleb128 0x5
 4406 01f6 49       		.uleb128 0x49
 4407 01f7 13       		.uleb128 0x13
 4408 01f8 3F       		.uleb128 0x3f
 4409 01f9 19       		.uleb128 0x19
 4410 01fa 3C       		.uleb128 0x3c
 4411 01fb 19       		.uleb128 0x19
 4412 01fc 00       		.byte	0
 4413 01fd 00       		.byte	0
 4414 01fe 29       		.uleb128 0x29
 4415 01ff 34       		.uleb128 0x34
 4416 0200 00       		.byte	0
 4417 0201 03       		.uleb128 0x3
 4418 0202 0E       		.uleb128 0xe
 4419 0203 3A       		.uleb128 0x3a
 4420 0204 0B       		.uleb128 0xb
 4421 0205 3B       		.uleb128 0x3b
 4422 0206 0B       		.uleb128 0xb
 4423 0207 49       		.uleb128 0x49
 4424 0208 13       		.uleb128 0x13
 4425 0209 3F       		.uleb128 0x3f
 4426 020a 19       		.uleb128 0x19
 4427 020b 3C       		.uleb128 0x3c
 4428 020c 19       		.uleb128 0x19
 4429 020d 00       		.byte	0
 4430 020e 00       		.byte	0
 4431 020f 2A       		.uleb128 0x2a
 4432 0210 2E       		.uleb128 0x2e
 4433 0211 01       		.byte	0x1
 4434 0212 3F       		.uleb128 0x3f
 4435 0213 19       		.uleb128 0x19
 4436 0214 03       		.uleb128 0x3
 4437 0215 0E       		.uleb128 0xe
 4438 0216 3A       		.uleb128 0x3a
 4439 0217 0B       		.uleb128 0xb
 4440 0218 3B       		.uleb128 0x3b
ARM GAS  /tmp/ccVOxwUj.s 			page 79


 4441 0219 05       		.uleb128 0x5
 4442 021a 27       		.uleb128 0x27
 4443 021b 19       		.uleb128 0x19
 4444 021c 3C       		.uleb128 0x3c
 4445 021d 19       		.uleb128 0x19
 4446 021e 01       		.uleb128 0x1
 4447 021f 13       		.uleb128 0x13
 4448 0220 00       		.byte	0
 4449 0221 00       		.byte	0
 4450 0222 2B       		.uleb128 0x2b
 4451 0223 2E       		.uleb128 0x2e
 4452 0224 01       		.byte	0x1
 4453 0225 3F       		.uleb128 0x3f
 4454 0226 19       		.uleb128 0x19
 4455 0227 03       		.uleb128 0x3
 4456 0228 0E       		.uleb128 0xe
 4457 0229 3A       		.uleb128 0x3a
 4458 022a 0B       		.uleb128 0xb
 4459 022b 3B       		.uleb128 0x3b
 4460 022c 0B       		.uleb128 0xb
 4461 022d 27       		.uleb128 0x27
 4462 022e 19       		.uleb128 0x19
 4463 022f 3C       		.uleb128 0x3c
 4464 0230 19       		.uleb128 0x19
 4465 0231 01       		.uleb128 0x1
 4466 0232 13       		.uleb128 0x13
 4467 0233 00       		.byte	0
 4468 0234 00       		.byte	0
 4469 0235 2C       		.uleb128 0x2c
 4470 0236 2E       		.uleb128 0x2e
 4471 0237 01       		.byte	0x1
 4472 0238 3F       		.uleb128 0x3f
 4473 0239 19       		.uleb128 0x19
 4474 023a 03       		.uleb128 0x3
 4475 023b 0E       		.uleb128 0xe
 4476 023c 3A       		.uleb128 0x3a
 4477 023d 0B       		.uleb128 0xb
 4478 023e 3B       		.uleb128 0x3b
 4479 023f 0B       		.uleb128 0xb
 4480 0240 27       		.uleb128 0x27
 4481 0241 19       		.uleb128 0x19
 4482 0242 3C       		.uleb128 0x3c
 4483 0243 19       		.uleb128 0x19
 4484 0244 00       		.byte	0
 4485 0245 00       		.byte	0
 4486 0246 00       		.byte	0
 4487              		.section	.debug_loc,"",%progbits
 4488              	.Ldebug_loc0:
 4489              	.LLST0:
 4490 0000 42000000 		.4byte	.LVL60
 4491 0004 46000000 		.4byte	.LVL61
 4492 0008 0200     		.2byte	0x2
 4493 000a 30       		.byte	0x30
 4494 000b 9F       		.byte	0x9f
 4495 000c 46000000 		.4byte	.LVL61
 4496 0010 5A000000 		.4byte	.LVL63
 4497 0014 0500     		.2byte	0x5
ARM GAS  /tmp/ccVOxwUj.s 			page 80


 4498 0016 40       		.byte	0x40
 4499 0017 74       		.byte	0x74
 4500 0018 00       		.sleb128 0
 4501 0019 1C       		.byte	0x1c
 4502 001a 9F       		.byte	0x9f
 4503 001b 5A000000 		.4byte	.LVL63
 4504 001f 5C000000 		.4byte	.LVL64
 4505 0023 0500     		.2byte	0x5
 4506 0025 41       		.byte	0x41
 4507 0026 74       		.byte	0x74
 4508 0027 00       		.sleb128 0
 4509 0028 1C       		.byte	0x1c
 4510 0029 9F       		.byte	0x9f
 4511 002a 5C000000 		.4byte	.LVL64
 4512 002e 82000000 		.4byte	.LVL68
 4513 0032 0500     		.2byte	0x5
 4514 0034 40       		.byte	0x40
 4515 0035 74       		.byte	0x74
 4516 0036 00       		.sleb128 0
 4517 0037 1C       		.byte	0x1c
 4518 0038 9F       		.byte	0x9f
 4519 0039 00000000 		.4byte	0
 4520 003d 00000000 		.4byte	0
 4521              		.section	.debug_aranges,"",%progbits
 4522 0000 44000000 		.4byte	0x44
 4523 0004 0200     		.2byte	0x2
 4524 0006 00000000 		.4byte	.Ldebug_info0
 4525 000a 04       		.byte	0x4
 4526 000b 00       		.byte	0
 4527 000c 0000     		.2byte	0
 4528 000e 0000     		.2byte	0
 4529 0010 00000000 		.4byte	.LFB256
 4530 0014 54010000 		.4byte	.LFE256-.LFB256
 4531 0018 00000000 		.4byte	.LFB257
 4532 001c D8000000 		.4byte	.LFE257-.LFB257
 4533 0020 00000000 		.4byte	.LFB258
 4534 0024 30000000 		.4byte	.LFE258-.LFB258
 4535 0028 00000000 		.4byte	.LFB259
 4536 002c 50000000 		.4byte	.LFE259-.LFB259
 4537 0030 00000000 		.4byte	.LFB260
 4538 0034 48000000 		.4byte	.LFE260-.LFB260
 4539 0038 00000000 		.4byte	.LFB261
 4540 003c C4000000 		.4byte	.LFE261-.LFB261
 4541 0040 00000000 		.4byte	0
 4542 0044 00000000 		.4byte	0
 4543              		.section	.debug_ranges,"",%progbits
 4544              	.Ldebug_ranges0:
 4545 0000 42000000 		.4byte	.LBB2
 4546 0004 44000000 		.4byte	.LBE2
 4547 0008 46000000 		.4byte	.LBB3
 4548 000c 64000000 		.4byte	.LBE3
 4549 0010 00000000 		.4byte	0
 4550 0014 00000000 		.4byte	0
 4551 0018 00000000 		.4byte	.LFB256
 4552 001c 54010000 		.4byte	.LFE256
 4553 0020 00000000 		.4byte	.LFB257
 4554 0024 D8000000 		.4byte	.LFE257
ARM GAS  /tmp/ccVOxwUj.s 			page 81


 4555 0028 00000000 		.4byte	.LFB258
 4556 002c 30000000 		.4byte	.LFE258
 4557 0030 00000000 		.4byte	.LFB259
 4558 0034 50000000 		.4byte	.LFE259
 4559 0038 00000000 		.4byte	.LFB260
 4560 003c 48000000 		.4byte	.LFE260
 4561 0040 00000000 		.4byte	.LFB261
 4562 0044 C4000000 		.4byte	.LFE261
 4563 0048 00000000 		.4byte	0
 4564 004c 00000000 		.4byte	0
 4565              		.section	.debug_line,"",%progbits
 4566              	.Ldebug_line0:
 4567 0000 39040000 		.section	.debug_str,"MS",%progbits,1
 4567      02002403 
 4567      00000201 
 4567      FB0E0D00 
 4567      01010101 
 4568              	.LASF53:
 4569 0000 63685F74 		.ascii	"ch_threads_list\000"
 4569      68726561 
 4569      64735F6C 
 4569      69737400 
 4570              	.LASF54:
 4571 0010 74687265 		.ascii	"threads_queue_t\000"
 4571      6164735F 
 4571      71756575 
 4571      655F7400 
 4572              	.LASF104:
 4573 0020 4F415231 		.ascii	"OAR1\000"
 4573      00
 4574              	.LASF123:
 4575 0025 77746D74 		.ascii	"wtmtxp\000"
 4575      787000
 4576              	.LASF117:
 4577 002c 746D5F63 		.ascii	"tm_calibration_t\000"
 4577      616C6962 
 4577      72617469 
 4577      6F6E5F74 
 4577      00
 4578              	.LASF42:
 4579 003d 705F7469 		.ascii	"p_time\000"
 4579      6D6500
 4580              	.LASF147:
 4581 0044 42535252 		.ascii	"BSRR\000"
 4581      00
 4582              	.LASF132:
 4583 0049 63686172 		.ascii	"char\000"
 4583      00
 4584              	.LASF112:
 4585 004e 72656761 		.ascii	"regarm_t\000"
 4585      726D5F74 
 4585      00
 4586              	.LASF33:
 4587 0057 705F7072 		.ascii	"p_prio\000"
 4587      696F00
 4588              	.LASF111:
 4589 005e 46756E63 		.ascii	"FunctionalState\000"
ARM GAS  /tmp/ccVOxwUj.s 			page 82


 4589      74696F6E 
 4589      616C5374 
 4589      61746500 
 4590              	.LASF185:
 4591 006e 646D6172 		.ascii	"dmarx\000"
 4591      7800
 4592              	.LASF126:
 4593 0074 735F7175 		.ascii	"s_queue\000"
 4593      65756500 
 4594              	.LASF74:
 4595 007c 76745F73 		.ascii	"vt_systime\000"
 4595      79737469 
 4595      6D6500
 4596              	.LASF159:
 4597 0087 4932435F 		.ascii	"I2C_ACTIVE_RX\000"
 4597      41435449 
 4597      56455F52 
 4597      5800
 4598              	.LASF13:
 4599 0095 756E7369 		.ascii	"unsigned int\000"
 4599      676E6564 
 4599      20696E74 
 4599      00
 4600              	.LASF176:
 4601 00a2 49324344 		.ascii	"I2CDriver\000"
 4601      72697665 
 4601      7200
 4602              	.LASF188:
 4603 00ac 53455256 		.ascii	"SERVO\000"
 4603      4F00
 4604              	.LASF51:
 4605 00b2 74687265 		.ascii	"threads_list_t\000"
 4605      6164735F 
 4605      6C697374 
 4605      5F7400
 4606              	.LASF43:
 4607 00c1 705F7761 		.ascii	"p_waiting\000"
 4607      6974696E 
 4607      6700
 4608              	.LASF6:
 4609 00cb 5F5F696E 		.ascii	"__int32_t\000"
 4609      7433325F 
 4609      7400
 4610              	.LASF120:
 4611 00d5 77746F62 		.ascii	"wtobjp\000"
 4611      6A7000
 4612              	.LASF81:
 4613 00dc 76746C69 		.ascii	"vtlist\000"
 4613      737400
 4614              	.LASF57:
 4615 00e3 63685F72 		.ascii	"ch_ready_list\000"
 4615      65616479 
 4615      5F6C6973 
 4615      7400
 4616              	.LASF83:
 4617 00f1 69646C65 		.ascii	"idle_thread_wa\000"
 4617      5F746872 
ARM GAS  /tmp/ccVOxwUj.s 			page 83


 4617      6561645F 
 4617      776100
 4618              	.LASF100:
 4619 0100 4E445452 		.ascii	"NDTR\000"
 4619      00
 4620              	.LASF189:
 4621 0105 68775F69 		.ascii	"hw_init_gpio\000"
 4621      6E69745F 
 4621      6770696F 
 4621      00
 4622              	.LASF124:
 4623 0112 65776D61 		.ascii	"ewmask\000"
 4623      736B00
 4624              	.LASF64:
 4625 0119 76746675 		.ascii	"vtfunc_t\000"
 4625      6E635F74 
 4625      00
 4626              	.LASF127:
 4627 0122 735F636E 		.ascii	"s_cnt\000"
 4627      7400
 4628              	.LASF76:
 4629 0128 63685F73 		.ascii	"ch_system_debug\000"
 4629      79737465 
 4629      6D5F6465 
 4629      62756700 
 4630              	.LASF186:
 4631 0138 646D6174 		.ascii	"dmatx\000"
 4631      7800
 4632              	.LASF17:
 4633 013e 75696E74 		.ascii	"uint32_t\000"
 4633      33325F74 
 4633      00
 4634              	.LASF164:
 4635 0147 4F504D4F 		.ascii	"OPMODE_I2C\000"
 4635      44455F49 
 4635      324300
 4636              	.LASF158:
 4637 0152 4932435F 		.ascii	"I2C_ACTIVE_TX\000"
 4637      41435449 
 4637      56455F54 
 4637      5800
 4638              	.LASF27:
 4639 0160 6576656E 		.ascii	"eventmask_t\000"
 4639      746D6173 
 4639      6B5F7400 
 4640              	.LASF59:
 4641 016c 725F7072 		.ascii	"r_prio\000"
 4641      696F00
 4642              	.LASF137:
 4643 0173 69666372 		.ascii	"ifcr\000"
 4643      00
 4644              	.LASF71:
 4645 0178 76745F70 		.ascii	"vt_par\000"
 4645      617200
 4646              	.LASF134:
 4647 017f 666C6F61 		.ascii	"float\000"
 4647      7400
ARM GAS  /tmp/ccVOxwUj.s 			page 84


 4648              	.LASF180:
 4649 0185 6D757465 		.ascii	"mutex\000"
 4649      7800
 4650              	.LASF125:
 4651 018b 63685F73 		.ascii	"ch_semaphore\000"
 4651      656D6170 
 4651      686F7265 
 4651      00
 4652              	.LASF25:
 4653 0198 74707269 		.ascii	"tprio_t\000"
 4653      6F5F7400 
 4654              	.LASF66:
 4655 01a0 63685F76 		.ascii	"ch_virtual_timer\000"
 4655      69727475 
 4655      616C5F74 
 4655      696D6572 
 4655      00
 4656              	.LASF192:
 4657 01b1 68775F73 		.ascii	"hw_start_i2c\000"
 4657      74617274 
 4657      5F693263 
 4657      00
 4658              	.LASF70:
 4659 01be 76745F66 		.ascii	"vt_func\000"
 4659      756E6300 
 4660              	.LASF12:
 4661 01c6 6C6F6E67 		.ascii	"long long unsigned int\000"
 4661      206C6F6E 
 4661      6720756E 
 4661      7369676E 
 4661      65642069 
 4662              	.LASF140:
 4663 01dd 76656374 		.ascii	"vector\000"
 4663      6F7200
 4664              	.LASF179:
 4665 01e4 6572726F 		.ascii	"errors\000"
 4665      727300
 4666              	.LASF209:
 4667 01eb 6877636F 		.ascii	"hwconf/hw_410.c\000"
 4667      6E662F68 
 4667      775F3431 
 4667      302E6300 
 4668              	.LASF196:
 4669 01fb 69326366 		.ascii	"i2cfg\000"
 4669      6700
 4670              	.LASF4:
 4671 0201 5F5F7569 		.ascii	"__uint16_t\000"
 4671      6E743136 
 4671      5F7400
 4672              	.LASF28:
 4673 020c 636E745F 		.ascii	"cnt_t\000"
 4673      7400
 4674              	.LASF175:
 4675 0212 49324343 		.ascii	"I2CConfig\000"
 4675      6F6E6669 
 4675      6700
 4676              	.LASF143:
ARM GAS  /tmp/ccVOxwUj.s 			page 85


 4677 021c 4D4F4445 		.ascii	"MODER\000"
 4677      5200
 4678              	.LASF150:
 4679 0222 41465248 		.ascii	"AFRH\000"
 4679      00
 4680              	.LASF151:
 4681 0227 73746D33 		.ascii	"stm32_gpio_t\000"
 4681      325F6770 
 4681      696F5F74 
 4681      00
 4682              	.LASF149:
 4683 0234 4146524C 		.ascii	"AFRL\000"
 4683      00
 4684              	.LASF35:
 4685 0239 705F6E65 		.ascii	"p_newer\000"
 4685      77657200 
 4686              	.LASF142:
 4687 0241 636C6561 		.ascii	"clear\000"
 4687      7200
 4688              	.LASF73:
 4689 0247 63685F76 		.ascii	"ch_virtual_timers_list\000"
 4689      69727475 
 4689      616C5F74 
 4689      696D6572 
 4689      735F6C69 
 4690              	.LASF171:
 4691 025e 69326364 		.ascii	"i2cdutycycle_t\000"
 4691      75747963 
 4691      79636C65 
 4691      5F7400
 4692              	.LASF163:
 4693 026d 69326366 		.ascii	"i2cflags_t\000"
 4693      6C616773 
 4693      5F7400
 4694              	.LASF30:
 4695 0278 74687265 		.ascii	"thread_t\000"
 4695      61645F74 
 4695      00
 4696              	.LASF208:
 4697 0281 474E5520 		.ascii	"GNU C 4.8.4 20141219 (release) -mcpu=cortex-m4 -mfl"
 4697      4320342E 
 4697      382E3420 
 4697      32303134 
 4697      31323139 
 4698 02b4 6F61742D 		.ascii	"oat-abi=hard -mfpu=fpv4-sp-d16 -mno-thumb-interwork"
 4698      6162693D 
 4698      68617264 
 4698      202D6D66 
 4698      70753D66 
 4699 02e7 202D6D74 		.ascii	" -mthumb -ggdb -O2 -std=gnu99 -fomit-frame-pointer "
 4699      68756D62 
 4699      202D6767 
 4699      6462202D 
 4699      4F32202D 
 4700 031a 2D66616C 		.ascii	"-falign-functions=16 -ffunction-sections -fdata-sec"
 4700      69676E2D 
 4700      66756E63 
ARM GAS  /tmp/ccVOxwUj.s 			page 86


 4700      74696F6E 
 4700      733D3136 
 4701 034d 74696F6E 		.ascii	"tions -fno-common -fsingle-precision-constant\000"
 4701      73202D66 
 4701      6E6F2D63 
 4701      6F6D6D6F 
 4701      6E202D66 
 4702              	.LASF19:
 4703 037b 73697A65 		.ascii	"size_t\000"
 4703      5F7400
 4704              	.LASF118:
 4705 0382 7264796D 		.ascii	"rdymsg\000"
 4705      736700
 4706              	.LASF116:
 4707 0389 6F666673 		.ascii	"offset\000"
 4707      657400
 4708              	.LASF135:
 4709 0390 5F426F6F 		.ascii	"_Bool\000"
 4709      6C00
 4710              	.LASF146:
 4711 0396 50555044 		.ascii	"PUPDR\000"
 4711      5200
 4712              	.LASF130:
 4713 039c 6D5F6F77 		.ascii	"m_owner\000"
 4713      6E657200 
 4714              	.LASF105:
 4715 03a4 4F415232 		.ascii	"OAR2\000"
 4715      00
 4716              	.LASF128:
 4717 03a9 63685F6D 		.ascii	"ch_mutex\000"
 4717      75746578 
 4717      00
 4718              	.LASF11:
 4719 03b2 5F5F7569 		.ascii	"__uint64_t\000"
 4719      6E743634 
 4719      5F7400
 4720              	.LASF168:
 4721 03bd 5354445F 		.ascii	"STD_DUTY_CYCLE\000"
 4721      44555459 
 4721      5F435943 
 4721      4C4500
 4722              	.LASF174:
 4723 03cc 64757479 		.ascii	"duty_cycle\000"
 4723      5F637963 
 4723      6C6500
 4724              	.LASF101:
 4725 03d7 4D304152 		.ascii	"M0AR\000"
 4725      00
 4726              	.LASF154:
 4727 03dc 696F706F 		.ascii	"ioportid_t\000"
 4727      72746964 
 4727      5F7400
 4728              	.LASF29:
 4729 03e7 73797374 		.ascii	"systime_t\000"
 4729      696D655F 
 4729      7400
 4730              	.LASF37:
ARM GAS  /tmp/ccVOxwUj.s 			page 87


 4731 03f1 705F6E61 		.ascii	"p_name\000"
 4731      6D6500
 4732              	.LASF69:
 4733 03f8 76745F64 		.ascii	"vt_delta\000"
 4733      656C7461 
 4733      00
 4734              	.LASF187:
 4735 0401 6770696F 		.ascii	"gpio\000"
 4735      00
 4736              	.LASF109:
 4737 0406 44495341 		.ascii	"DISABLE\000"
 4737      424C4500 
 4738              	.LASF200:
 4739 040e 5243435F 		.ascii	"RCC_AHB1PeriphClockCmd\000"
 4739      41484231 
 4739      50657269 
 4739      7068436C 
 4739      6F636B43 
 4740              	.LASF61:
 4741 0425 725F6E65 		.ascii	"r_newer\000"
 4741      77657200 
 4742              	.LASF184:
 4743 042d 7478646D 		.ascii	"txdmamode\000"
 4743      616D6F64 
 4743      6500
 4744              	.LASF138:
 4745 0437 69736869 		.ascii	"ishift\000"
 4745      667400
 4746              	.LASF22:
 4747 043e 74737461 		.ascii	"tstate_t\000"
 4747      74655F74 
 4747      00
 4748              	.LASF191:
 4749 0447 68775F73 		.ascii	"hw_setup_servo_outputs\000"
 4749      65747570 
 4749      5F736572 
 4749      766F5F6F 
 4749      75747075 
 4750              	.LASF141:
 4751 045e 73746D33 		.ascii	"stm32_dma_stream_t\000"
 4751      325F646D 
 4751      615F7374 
 4751      7265616D 
 4751      5F7400
 4752              	.LASF10:
 4753 0471 6C6F6E67 		.ascii	"long long int\000"
 4753      206C6F6E 
 4753      6720696E 
 4753      7400
 4754              	.LASF36:
 4755 047f 705F6F6C 		.ascii	"p_older\000"
 4755      64657200 
 4756              	.LASF170:
 4757 0487 46415354 		.ascii	"FAST_DUTY_CYCLE_16_9\000"
 4757      5F445554 
 4757      595F4359 
 4757      434C455F 
ARM GAS  /tmp/ccVOxwUj.s 			page 88


 4757      31365F39 
 4758              	.LASF14:
 4759 049c 75696E74 		.ascii	"uint8_t\000"
 4759      385F7400 
 4760              	.LASF106:
 4761 04a4 54524953 		.ascii	"TRISE\000"
 4761      4500
 4762              	.LASF49:
 4763 04aa 705F6D70 		.ascii	"p_mpool\000"
 4763      6F6F6C00 
 4764              	.LASF47:
 4765 04b2 705F6D74 		.ascii	"p_mtxlist\000"
 4765      786C6973 
 4765      7400
 4766              	.LASF38:
 4767 04bc 705F7374 		.ascii	"p_state\000"
 4767      61746500 
 4768              	.LASF52:
 4769 04c4 63685F74 		.ascii	"ch_thread\000"
 4769      68726561 
 4769      6400
 4770              	.LASF75:
 4771 04ce 73797374 		.ascii	"system_debug_t\000"
 4771      656D5F64 
 4771      65627567 
 4771      5F7400
 4772              	.LASF205:
 4773 04dd 69326353 		.ascii	"i2cStart\000"
 4773      74617274 
 4773      00
 4774              	.LASF99:
 4775 04e6 4144435F 		.ascii	"ADC_TypeDef\000"
 4775      54797065 
 4775      44656600 
 4776              	.LASF55:
 4777 04f2 63685F74 		.ascii	"ch_threads_queue\000"
 4777      68726561 
 4777      64735F71 
 4777      75657565 
 4777      00
 4778              	.LASF166:
 4779 0503 4F504D4F 		.ascii	"OPMODE_SMBUS_HOST\000"
 4779      44455F53 
 4779      4D425553 
 4779      5F484F53 
 4779      5400
 4780              	.LASF207:
 4781 0515 69326353 		.ascii	"i2cStop\000"
 4781      746F7000 
 4782              	.LASF58:
 4783 051d 725F7175 		.ascii	"r_queue\000"
 4783      65756500 
 4784              	.LASF155:
 4785 0525 4932435F 		.ascii	"I2C_UNINIT\000"
 4785      554E494E 
 4785      495400
 4786              	.LASF26:
ARM GAS  /tmp/ccVOxwUj.s 			page 89


 4787 0530 6D73675F 		.ascii	"msg_t\000"
 4787      7400
 4788              	.LASF114:
 4789 0536 636F6E74 		.ascii	"context\000"
 4789      65787400 
 4790              	.LASF152:
 4791 053e 696F706F 		.ascii	"ioportmask_t\000"
 4791      72746D61 
 4791      736B5F74 
 4791      00
 4792              	.LASF39:
 4793 054b 705F666C 		.ascii	"p_flags\000"
 4793      61677300 
 4794              	.LASF65:
 4795 0553 76697274 		.ascii	"virtual_timer_t\000"
 4795      75616C5F 
 4795      74696D65 
 4795      725F7400 
 4796              	.LASF206:
 4797 0563 69326352 		.ascii	"i2cReleaseBus\000"
 4797      656C6561 
 4797      73654275 
 4797      7300
 4798              	.LASF93:
 4799 0571 53515233 		.ascii	"SQR3\000"
 4799      00
 4800              	.LASF210:
 4801 0576 2F686F6D 		.ascii	"/home/taylor/Programming/VESC/firmware\000"
 4801      652F7461 
 4801      796C6F72 
 4801      2F50726F 
 4801      6772616D 
 4802              	.LASF103:
 4803 059d 444D415F 		.ascii	"DMA_Stream_TypeDef\000"
 4803      53747265 
 4803      616D5F54 
 4803      79706544 
 4803      656600
 4804              	.LASF203:
 4805 05b0 4144435F 		.ascii	"ADC_InjectedChannelConfig\000"
 4805      496E6A65 
 4805      63746564 
 4805      4368616E 
 4805      6E656C43 
 4806              	.LASF173:
 4807 05ca 636C6F63 		.ascii	"clock_speed\000"
 4807      6B5F7370 
 4807      65656400 
 4808              	.LASF24:
 4809 05d6 74736C69 		.ascii	"tslices_t\000"
 4809      6365735F 
 4809      7400
 4810              	.LASF62:
 4811 05e0 725F6F6C 		.ascii	"r_older\000"
 4811      64657200 
 4812              	.LASF94:
 4813 05e8 4A535152 		.ascii	"JSQR\000"
ARM GAS  /tmp/ccVOxwUj.s 			page 90


 4813      00
 4814              	.LASF107:
 4815 05ed 464C5452 		.ascii	"FLTR\000"
 4815      00
 4816              	.LASF161:
 4817 05f2 69326373 		.ascii	"i2cstate_t\000"
 4817      74617465 
 4817      5F7400
 4818              	.LASF169:
 4819 05fd 46415354 		.ascii	"FAST_DUTY_CYCLE_2\000"
 4819      5F445554 
 4819      595F4359 
 4819      434C455F 
 4819      3200
 4820              	.LASF45:
 4821 060f 705F6D73 		.ascii	"p_msg\000"
 4821      6700
 4822              	.LASF21:
 4823 0615 746D6F64 		.ascii	"tmode_t\000"
 4823      655F7400 
 4824              	.LASF85:
 4825 061d 534D5052 		.ascii	"SMPR1\000"
 4825      3100
 4826              	.LASF86:
 4827 0623 534D5052 		.ascii	"SMPR2\000"
 4827      3200
 4828              	.LASF82:
 4829 0629 6D61696E 		.ascii	"mainthread\000"
 4829      74687265 
 4829      616400
 4830              	.LASF145:
 4831 0634 4F535045 		.ascii	"OSPEEDR\000"
 4831      45445200 
 4832              	.LASF15:
 4833 063c 75696E74 		.ascii	"uint16_t\000"
 4833      31365F74 
 4833      00
 4834              	.LASF50:
 4835 0645 74687265 		.ascii	"thread_reference_t\000"
 4835      61645F72 
 4835      65666572 
 4835      656E6365 
 4835      5F7400
 4836              	.LASF20:
 4837 0658 7274636E 		.ascii	"rtcnt_t\000"
 4837      745F7400 
 4838              	.LASF172:
 4839 0660 6F705F6D 		.ascii	"op_mode\000"
 4839      6F646500 
 4840              	.LASF157:
 4841 0668 4932435F 		.ascii	"I2C_READY\000"
 4841      52454144 
 4841      5900
 4842              	.LASF178:
 4843 0672 636F6E66 		.ascii	"config\000"
 4843      696700
 4844              	.LASF95:
ARM GAS  /tmp/ccVOxwUj.s 			page 91


 4845 0679 4A445231 		.ascii	"JDR1\000"
 4845      00
 4846              	.LASF98:
 4847 067e 4A445234 		.ascii	"JDR4\000"
 4847      00
 4848              	.LASF48:
 4849 0683 705F7265 		.ascii	"p_realprio\000"
 4849      616C7072 
 4849      696F00
 4850              	.LASF2:
 4851 068e 73686F72 		.ascii	"short int\000"
 4851      7420696E 
 4851      7400
 4852              	.LASF63:
 4853 0698 725F6375 		.ascii	"r_current\000"
 4853      7272656E 
 4853      7400
 4854              	.LASF46:
 4855 06a2 705F6570 		.ascii	"p_epending\000"
 4855      656E6469 
 4855      6E6700
 4856              	.LASF129:
 4857 06ad 6D5F7175 		.ascii	"m_queue\000"
 4857      65756500 
 4858              	.LASF7:
 4859 06b5 6C6F6E67 		.ascii	"long int\000"
 4859      20696E74 
 4859      00
 4860              	.LASF115:
 4861 06be 706F7274 		.ascii	"port_intctx\000"
 4861      5F696E74 
 4861      63747800 
 4862              	.LASF162:
 4863 06ca 69326361 		.ascii	"i2caddr_t\000"
 4863      6464725F 
 4863      7400
 4864              	.LASF197:
 4865 06d4 49544D5F 		.ascii	"ITM_RxBuffer\000"
 4865      52784275 
 4865      66666572 
 4865      00
 4866              	.LASF160:
 4867 06e1 4932435F 		.ascii	"I2C_LOCKED\000"
 4867      4C4F434B 
 4867      454400
 4868              	.LASF193:
 4869 06ec 68775F73 		.ascii	"hw_stop_i2c\000"
 4869      746F705F 
 4869      69326300 
 4870              	.LASF79:
 4871 06f8 63685F73 		.ascii	"ch_system\000"
 4871      79737465 
 4871      6D00
 4872              	.LASF144:
 4873 0702 4F545950 		.ascii	"OTYPER\000"
 4873      455200
 4874              	.LASF31:
ARM GAS  /tmp/ccVOxwUj.s 			page 92


 4875 0709 705F6E65 		.ascii	"p_next\000"
 4875      787400
 4876              	.LASF18:
 4877 0710 75696E74 		.ascii	"uint64_t\000"
 4877      36345F74 
 4877      00
 4878              	.LASF34:
 4879 0719 705F6374 		.ascii	"p_ctx\000"
 4879      7800
 4880              	.LASF80:
 4881 071f 726C6973 		.ascii	"rlist\000"
 4881      7400
 4882              	.LASF3:
 4883 0725 5F5F7569 		.ascii	"__uint8_t\000"
 4883      6E74385F 
 4883      7400
 4884              	.LASF96:
 4885 072f 4A445232 		.ascii	"JDR2\000"
 4885      00
 4886              	.LASF97:
 4887 0734 4A445233 		.ascii	"JDR3\000"
 4887      00
 4888              	.LASF102:
 4889 0739 4D314152 		.ascii	"M1AR\000"
 4889      00
 4890              	.LASF91:
 4891 073e 53515231 		.ascii	"SQR1\000"
 4891      00
 4892              	.LASF92:
 4893 0743 53515232 		.ascii	"SQR2\000"
 4893      00
 4894              	.LASF32:
 4895 0748 705F7072 		.ascii	"p_prev\000"
 4895      657600
 4896              	.LASF110:
 4897 074f 454E4142 		.ascii	"ENABLE\000"
 4897      4C4500
 4898              	.LASF84:
 4899 0756 73697A65 		.ascii	"sizetype\000"
 4899      74797065 
 4899      00
 4900              	.LASF23:
 4901 075f 74726566 		.ascii	"trefs_t\000"
 4901      735F7400 
 4902              	.LASF9:
 4903 0767 6C6F6E67 		.ascii	"long unsigned int\000"
 4903      20756E73 
 4903      69676E65 
 4903      6420696E 
 4903      7400
 4904              	.LASF56:
 4905 0779 72656164 		.ascii	"ready_list_t\000"
 4905      795F6C69 
 4905      73745F74 
 4905      00
 4906              	.LASF190:
 4907 0786 68775F73 		.ascii	"hw_setup_adc_channels\000"
ARM GAS  /tmp/ccVOxwUj.s 			page 93


 4907      65747570 
 4907      5F616463 
 4907      5F636861 
 4907      6E6E656C 
 4908              	.LASF16:
 4909 079c 696E7433 		.ascii	"int32_t\000"
 4909      325F7400 
 4910              	.LASF165:
 4911 07a4 4F504D4F 		.ascii	"OPMODE_SMBUS_DEVICE\000"
 4911      44455F53 
 4911      4D425553 
 4911      5F444556 
 4911      49434500 
 4912              	.LASF181:
 4913 07b8 74687265 		.ascii	"thread\000"
 4913      616400
 4914              	.LASF122:
 4915 07bf 77747365 		.ascii	"wtsemp\000"
 4915      6D7000
 4916              	.LASF156:
 4917 07c6 4932435F 		.ascii	"I2C_STOP\000"
 4917      53544F50 
 4917      00
 4918              	.LASF133:
 4919 07cf 6D757465 		.ascii	"mutex_t\000"
 4919      785F7400 
 4920              	.LASF1:
 4921 07d7 756E7369 		.ascii	"unsigned char\000"
 4921      676E6564 
 4921      20636861 
 4921      7200
 4922              	.LASF8:
 4923 07e5 5F5F7569 		.ascii	"__uint32_t\000"
 4923      6E743332 
 4923      5F7400
 4924              	.LASF204:
 4925 07f0 69326341 		.ascii	"i2cAcquireBus\000"
 4925      63717569 
 4925      72654275 
 4925      7300
 4926              	.LASF72:
 4927 07fe 76697274 		.ascii	"virtual_timers_list_t\000"
 4927      75616C5F 
 4927      74696D65 
 4927      72735F6C 
 4927      6973745F 
 4928              	.LASF40:
 4929 0814 705F7265 		.ascii	"p_refs\000"
 4929      667300
 4930              	.LASF77:
 4931 081b 70616E69 		.ascii	"panic_msg\000"
 4931      635F6D73 
 4931      6700
 4932              	.LASF183:
 4933 0825 7278646D 		.ascii	"rxdmamode\000"
 4933      616D6F64 
 4933      6500
ARM GAS  /tmp/ccVOxwUj.s 			page 94


 4934              	.LASF108:
 4935 082f 4932435F 		.ascii	"I2C_TypeDef\000"
 4935      54797065 
 4935      44656600 
 4936              	.LASF211:
 4937 083b 63685468 		.ascii	"chThdSleep\000"
 4937      64536C65 
 4937      657000
 4938              	.LASF41:
 4939 0846 705F7072 		.ascii	"p_preempt\000"
 4939      65656D70 
 4939      7400
 4940              	.LASF167:
 4941 0850 6932636F 		.ascii	"i2copmode_t\000"
 4941      706D6F64 
 4941      655F7400 
 4942              	.LASF182:
 4943 085c 61646472 		.ascii	"addr\000"
 4943      00
 4944              	.LASF177:
 4945 0861 73746174 		.ascii	"state\000"
 4945      6500
 4946              	.LASF67:
 4947 0867 76745F6E 		.ascii	"vt_next\000"
 4947      65787400 
 4948              	.LASF195:
 4949 086f 6932635F 		.ascii	"i2c_running\000"
 4949      72756E6E 
 4949      696E6700 
 4950              	.LASF201:
 4951 087b 5F70616C 		.ascii	"_pal_lld_setgroupmode\000"
 4951      5F6C6C64 
 4951      5F736574 
 4951      67726F75 
 4951      706D6F64 
 4952              	.LASF78:
 4953 0891 63685F73 		.ascii	"ch_system_t\000"
 4953      79737465 
 4953      6D5F7400 
 4954              	.LASF199:
 4955 089d 73657276 		.ascii	"servos\000"
 4955      6F7300
 4956              	.LASF153:
 4957 08a4 696F6D6F 		.ascii	"iomode_t\000"
 4957      64655F74 
 4957      00
 4958              	.LASF131:
 4959 08ad 6D5F6E65 		.ascii	"m_next\000"
 4959      787400
 4960              	.LASF0:
 4961 08b4 7369676E 		.ascii	"signed char\000"
 4961      65642063 
 4961      68617200 
 4962              	.LASF5:
 4963 08c0 73686F72 		.ascii	"short unsigned int\000"
 4963      7420756E 
 4963      7369676E 
ARM GAS  /tmp/ccVOxwUj.s 			page 95


 4963      65642069 
 4963      6E7400
 4964              	.LASF60:
 4965 08d3 725F6374 		.ascii	"r_ctx\000"
 4965      7800
 4966              	.LASF113:
 4967 08d9 73746B61 		.ascii	"stkalign_t\000"
 4967      6C69676E 
 4967      5F7400
 4968              	.LASF44:
 4969 08e4 705F6D73 		.ascii	"p_msgqueue\000"
 4969      67717565 
 4969      756500
 4970              	.LASF87:
 4971 08ef 4A4F4652 		.ascii	"JOFR1\000"
 4971      3100
 4972              	.LASF88:
 4973 08f5 4A4F4652 		.ascii	"JOFR2\000"
 4973      3200
 4974              	.LASF89:
 4975 08fb 4A4F4652 		.ascii	"JOFR3\000"
 4975      3300
 4976              	.LASF90:
 4977 0901 4A4F4652 		.ascii	"JOFR4\000"
 4977      3400
 4978              	.LASF68:
 4979 0907 76745F70 		.ascii	"vt_prev\000"
 4979      72657600 
 4980              	.LASF198:
 4981 090f 49324344 		.ascii	"I2CD2\000"
 4981      3200
 4982              	.LASF121:
 4983 0915 77747472 		.ascii	"wttrp\000"
 4983      7000
 4984              	.LASF119:
 4985 091b 65786974 		.ascii	"exitcode\000"
 4985      636F6465 
 4985      00
 4986              	.LASF139:
 4987 0924 73656C66 		.ascii	"selfindex\000"
 4987      696E6465 
 4987      7800
 4988              	.LASF202:
 4989 092e 4144435F 		.ascii	"ADC_RegularChannelConfig\000"
 4989      52656775 
 4989      6C617243 
 4989      68616E6E 
 4989      656C436F 
 4990              	.LASF148:
 4991 0947 4C434B52 		.ascii	"LCKR\000"
 4991      00
 4992              	.LASF194:
 4993 094c 68775F74 		.ascii	"hw_try_restore_i2c\000"
 4993      72795F72 
 4993      6573746F 
 4993      72655F69 
 4993      326300
ARM GAS  /tmp/ccVOxwUj.s 			page 96


 4994              	.LASF136:
 4995 095f 73747265 		.ascii	"stream\000"
 4995      616D00
 4996              		.ident	"GCC: (4.8.4-1+11-1) 4.8.4 20141219 (release)"
ARM GAS  /tmp/ccVOxwUj.s 			page 97


DEFINED SYMBOLS
                            *ABS*:0000000000000000 hw_410.c
     /tmp/ccVOxwUj.s:21     .text.hw_init_gpio:0000000000000000 $t
     /tmp/ccVOxwUj.s:27     .text.hw_init_gpio:0000000000000000 hw_init_gpio
     /tmp/ccVOxwUj.s:240    .text.hw_init_gpio:0000000000000148 $d
     /tmp/ccVOxwUj.s:247    .text.hw_setup_adc_channels:0000000000000000 $t
     /tmp/ccVOxwUj.s:253    .text.hw_setup_adc_channels:0000000000000000 hw_setup_adc_channels
     /tmp/ccVOxwUj.s:389    .text.hw_setup_adc_channels:00000000000000cc $d
     /tmp/ccVOxwUj.s:396    .text.hw_setup_servo_outputs:0000000000000000 $t
     /tmp/ccVOxwUj.s:402    .text.hw_setup_servo_outputs:0000000000000000 hw_setup_servo_outputs
     /tmp/ccVOxwUj.s:449    .text.hw_setup_servo_outputs:0000000000000028 $d
     /tmp/ccVOxwUj.s:455    .text.hw_start_i2c:0000000000000000 $t
     /tmp/ccVOxwUj.s:461    .text.hw_start_i2c:0000000000000000 hw_start_i2c
     /tmp/ccVOxwUj.s:511    .text.hw_start_i2c:0000000000000040 $d
     /tmp/ccVOxwUj.s:519    .text.hw_stop_i2c:0000000000000000 $t
     /tmp/ccVOxwUj.s:525    .text.hw_stop_i2c:0000000000000000 hw_stop_i2c
     /tmp/ccVOxwUj.s:574    .text.hw_stop_i2c:000000000000003c $d
     /tmp/ccVOxwUj.s:581    .text.hw_try_restore_i2c:0000000000000000 $t
     /tmp/ccVOxwUj.s:587    .text.hw_try_restore_i2c:0000000000000000 hw_try_restore_i2c
     /tmp/ccVOxwUj.s:727    .text.hw_try_restore_i2c:00000000000000b4 $d
     /tmp/ccVOxwUj.s:738    .bss.i2c_running:0000000000000000 i2c_running
     /tmp/ccVOxwUj.s:739    .bss.i2c_running:0000000000000000 $d
     /tmp/ccVOxwUj.s:741    .rodata.i2cfg:0000000000000000 $d
     /tmp/ccVOxwUj.s:745    .rodata.i2cfg:0000000000000000 i2cfg
                     .debug_frame:0000000000000010 $d
     /tmp/ccVOxwUj.s:246    .text.hw_init_gpio:0000000000000154 $t
     /tmp/ccVOxwUj.s:395    .text.hw_setup_adc_channels:00000000000000d8 $t
     /tmp/ccVOxwUj.s:580    .text.hw_stop_i2c:0000000000000048 $t
     /tmp/ccVOxwUj.s:734    .text.hw_try_restore_i2c:00000000000000c4 $t

UNDEFINED SYMBOLS
RCC_AHB1PeriphClockCmd
_pal_lld_setgroupmode
ADC_RegularChannelConfig
ADC_InjectedChannelConfig
servos
i2cAcquireBus
i2cStart
i2cReleaseBus
I2CD2
i2cStop
chThdSleep
