ARM GAS  /tmp/ccZCkOcz.s 			page 1


   1              		.syntax unified
   2              		.cpu cortex-m4
   3              		.eabi_attribute 27, 3
   4              		.eabi_attribute 28, 1
   5              		.fpu fpv4-sp-d16
   6              		.eabi_attribute 20, 1
   7              		.eabi_attribute 21, 1
   8              		.eabi_attribute 23, 3
   9              		.eabi_attribute 24, 1
  10              		.eabi_attribute 25, 1
  11              		.eabi_attribute 26, 1
  12              		.eabi_attribute 30, 2
  13              		.eabi_attribute 34, 1
  14              		.eabi_attribute 18, 4
  15              		.thumb
  16              		.file	"i2c_lld.c"
  17              		.text
  18              	.Ltext0:
  19              		.cfi_sections	.debug_frame
  20              		.section	.text.i2c_lld_serve_tx_end_irq,"ax",%progbits
  21              		.align	2
  22              		.p2align 4,,15
  23              		.thumb
  24              		.thumb_func
  25              		.type	i2c_lld_serve_tx_end_irq, %function
  26              	i2c_lld_serve_tx_end_irq:
  27              	.LFB261:
  28              		.file 1 "ChibiOS_3.0.2/os/hal/ports/STM32/LLD/I2Cv1/i2c_lld.c"
  29              		.loc 1 332 0
  30              		.cfi_startproc
  31              		@ args = 0, pretend = 0, frame = 0
  32              		@ frame_needed = 0, uses_anonymous_args = 0
  33              	.LVL0:
  34              		.loc 1 337 0
  35 0000 11F00C0F 		tst	r1, #12
  36              		.loc 1 332 0
  37 0004 38B5     		push	{r3, r4, r5, lr}
  38              		.cfi_def_cfa_offset 16
  39              		.cfi_offset 3, -16
  40              		.cfi_offset 4, -12
  41              		.cfi_offset 5, -8
  42              		.cfi_offset 14, -4
  43              		.loc 1 332 0
  44 0006 0546     		mov	r5, r0
  45              		.loc 1 333 0
  46 0008 446B     		ldr	r4, [r0, #52]
  47              	.LVL1:
  48              		.loc 1 337 0
  49 000a 13D1     		bne	.L9
  50              	.LVL2:
  51              	.L2:
  52              		.loc 1 344 0
  53 000c 296B     		ldr	r1, [r5, #48]
  54 000e 0A68     		ldr	r2, [r1]
  55 0010 1368     		ldr	r3, [r2]
  56 0012 23F01F03 		bic	r3, r3, #31
  57 0016 1360     		str	r3, [r2]
ARM GAS  /tmp/ccZCkOcz.s 			page 2


  58              	.L4:
  59              		.loc 1 344 0 is_stmt 0 discriminator 1
  60 0018 1368     		ldr	r3, [r2]
  61 001a DB07     		lsls	r3, r3, #31
  62 001c FCD4     		bmi	.L4
  63              		.loc 1 344 0 discriminator 2
  64 001e 0A7A     		ldrb	r2, [r1, #8]	@ zero_extendqisi2
  65 0020 4B68     		ldr	r3, [r1, #4]
  66 0022 3D21     		movs	r1, #61
  67 0024 01FA02F2 		lsl	r2, r1, r2
  68 0028 1A60     		str	r2, [r3]
  69              		.loc 1 348 0 is_stmt 1 discriminator 2
  70 002a 6368     		ldr	r3, [r4, #4]
  71 002c 43F40073 		orr	r3, r3, #512
  72 0030 6360     		str	r3, [r4, #4]
  73 0032 38BD     		pop	{r3, r4, r5, pc}
  74              	.LVL3:
  75              	.L9:
  76              	.LBB209:
  77              	.LBB210:
  78              		.file 2 "ChibiOS_3.0.2/os/hal/osal/rt/osal.h"
  79              		.loc 2 462 0
  80 0034 0148     		ldr	r0, .L10
  81              	.LVL4:
  82 0036 FFF7FEFF 		bl	chSysHalt
  83              	.LVL5:
  84 003a E7E7     		b	.L2
  85              	.L11:
  86              		.align	2
  87              	.L10:
  88 003c 00000000 		.word	.LC0
  89              	.LBE210:
  90              	.LBE209:
  91              		.cfi_endproc
  92              	.LFE261:
  93              		.size	i2c_lld_serve_tx_end_irq, .-i2c_lld_serve_tx_end_irq
  94              		.section	.text.i2c_lld_serve_rx_end_irq,"ax",%progbits
  95              		.align	2
  96              		.p2align 4,,15
  97              		.thumb
  98              		.thumb_func
  99              		.type	i2c_lld_serve_rx_end_irq, %function
 100              	i2c_lld_serve_rx_end_irq:
 101              	.LFB260:
 102              		.loc 1 305 0
 103              		.cfi_startproc
 104              		@ args = 0, pretend = 0, frame = 0
 105              		@ frame_needed = 0, uses_anonymous_args = 0
 106              	.LVL6:
 107              		.loc 1 310 0
 108 0000 11F00C0F 		tst	r1, #12
 109              		.loc 1 305 0
 110 0004 70B5     		push	{r4, r5, r6, lr}
 111              		.cfi_def_cfa_offset 16
 112              		.cfi_offset 4, -16
 113              		.cfi_offset 5, -12
 114              		.cfi_offset 6, -8
ARM GAS  /tmp/ccZCkOcz.s 			page 3


 115              		.cfi_offset 14, -4
 116              		.loc 1 305 0
 117 0006 0646     		mov	r6, r0
 118              		.loc 1 306 0
 119 0008 456B     		ldr	r5, [r0, #52]
 120              	.LVL7:
 121              		.loc 1 310 0
 122 000a 25D1     		bne	.L19
 123              	.LVL8:
 124              	.L13:
 125              		.loc 1 317 0
 126 000c F26A     		ldr	r2, [r6, #44]
 127 000e 1368     		ldr	r3, [r2]
 128 0010 1968     		ldr	r1, [r3]
 129 0012 21F01F01 		bic	r1, r1, #31
 130 0016 1960     		str	r1, [r3]
 131              	.L15:
 132              		.loc 1 317 0 is_stmt 0 discriminator 1
 133 0018 1968     		ldr	r1, [r3]
 134 001a 11F00104 		ands	r4, r1, #1
 135 001e FBD1     		bne	.L15
 136              		.loc 1 317 0 discriminator 2
 137 0020 117A     		ldrb	r1, [r2, #8]	@ zero_extendqisi2
 138 0022 5368     		ldr	r3, [r2, #4]
 139 0024 3D22     		movs	r2, #61
 140 0026 8A40     		lsls	r2, r2, r1
 141 0028 1A60     		str	r2, [r3]
 142              		.loc 1 319 0 is_stmt 1 discriminator 2
 143 002a 6B68     		ldr	r3, [r5, #4]
 144 002c 23F48053 		bic	r3, r3, #4096
 145 0030 6B60     		str	r3, [r5, #4]
 146              		.loc 1 320 0 discriminator 2
 147 0032 2B68     		ldr	r3, [r5]
 148 0034 23F48063 		bic	r3, r3, #1024
 149 0038 2B60     		str	r3, [r5]
 150              		.loc 1 321 0 discriminator 2
 151 003a 2B68     		ldr	r3, [r5]
 152 003c 43F40073 		orr	r3, r3, #512
 153 0040 2B60     		str	r3, [r5]
 154              	.LVL9:
 155              	.LBB211:
 156              	.LBB212:
 157              	.LBB213:
 158              	.LBB214:
 159              	.LBB215:
 160              	.LBB216:
 161              		.file 3 "ChibiOS_3.0.2/os/ext/CMSIS/include/core_cmFunc.h"
 162              		.loc 3 546 0 discriminator 2
 163 0042 2023     		movs	r3, #32
 164              	@ 546 "ChibiOS_3.0.2/os/ext/CMSIS/include/core_cmFunc.h" 1
 165 0044 83F31188 		MSR basepri, r3
 166              	@ 0 "" 2
 167              	.LVL10:
 168              		.thumb
 169              	.LBE216:
 170              	.LBE215:
 171              	.LBE214:
ARM GAS  /tmp/ccZCkOcz.s 			page 4


 172              	.LBE213:
 173              	.LBE212:
 174              	.LBE211:
 175              	.LBB217:
 176              	.LBB218:
 177              		.loc 2 728 0 discriminator 2
 178 0048 06F11C00 		add	r0, r6, #28
 179              	.LVL11:
 180 004c 2146     		mov	r1, r4
 181 004e FFF7FEFF 		bl	chThdResumeI
 182              	.LVL12:
 183              	.LBE218:
 184              	.LBE217:
 185              	.LBB219:
 186              	.LBB220:
 187              	.LBB221:
 188              	.LBB222:
 189              	.LBB223:
 190              	.LBB224:
 191              		.loc 3 546 0 discriminator 2
 192              	@ 546 "ChibiOS_3.0.2/os/ext/CMSIS/include/core_cmFunc.h" 1
 193 0052 84F31188 		MSR basepri, r4
 194              	@ 0 "" 2
 195              		.thumb
 196 0056 70BD     		pop	{r4, r5, r6, pc}
 197              	.LVL13:
 198              	.L19:
 199              	.LBE224:
 200              	.LBE223:
 201              	.LBE222:
 202              	.LBE221:
 203              	.LBE220:
 204              	.LBE219:
 205              	.LBB225:
 206              	.LBB226:
 207              		.loc 2 462 0
 208 0058 0148     		ldr	r0, .L20
 209              	.LVL14:
 210 005a FFF7FEFF 		bl	chSysHalt
 211              	.LVL15:
 212 005e D5E7     		b	.L13
 213              	.L21:
 214              		.align	2
 215              	.L20:
 216 0060 00000000 		.word	.LC0
 217              	.LBE226:
 218              	.LBE225:
 219              		.cfi_endproc
 220              	.LFE260:
 221              		.size	i2c_lld_serve_rx_end_irq, .-i2c_lld_serve_rx_end_irq
 222 0064 AFF30080 		.section	.text.VectorC4,"ax",%progbits
 222      AFF30080 
 222      AFF30080 
 223              		.align	2
 224              		.p2align 4,,15
 225              		.global	VectorC4
 226              		.thumb
ARM GAS  /tmp/ccZCkOcz.s 			page 5


 227              		.thumb_func
 228              		.type	VectorC4, %function
 229              	VectorC4:
 230              	.LFB263:
 231              		.loc 1 436 0
 232              		.cfi_startproc
 233              		@ args = 0, pretend = 0, frame = 0
 234              		@ frame_needed = 0, uses_anonymous_args = 0
 235              	.LVL16:
 236              	.LBB243:
 237              	.LBB244:
 238              		.loc 1 246 0
 239 0000 3A48     		ldr	r0, .L38
 240              		.loc 1 253 0
 241 0002 3B4A     		ldr	r2, .L38+4
 242              	.LBE244:
 243              	.LBE243:
 244              		.loc 1 436 0
 245 0004 70B5     		push	{r4, r5, r6, lr}
 246              		.cfi_def_cfa_offset 16
 247              		.cfi_offset 4, -16
 248              		.cfi_offset 5, -12
 249              		.cfi_offset 6, -8
 250              		.cfi_offset 14, -4
 251              	.LBB262:
 252              	.LBB259:
 253              		.loc 1 246 0
 254 0006 446B     		ldr	r4, [r0, #52]
 255              	.LVL17:
 256              		.loc 1 247 0
 257 0008 A369     		ldr	r3, [r4, #24]
 258              	.LVL18:
 259              		.loc 1 248 0
 260 000a 6569     		ldr	r5, [r4, #20]
 261              	.LVL19:
 262              		.loc 1 253 0
 263 000c 45EA0343 		orr	r3, r5, r3, lsl #16
 264              	.LVL20:
 265 0010 23F07F43 		bic	r3, r3, #-16777216
 266 0014 9342     		cmp	r3, r2
 267 0016 4CD0     		beq	.L24
 268 0018 1ED8     		bhi	.L25
 269 001a 073A     		subs	r2, r2, #7
 270 001c 9342     		cmp	r3, r2
 271 001e 3CD0     		beq	.L26
 272 0020 0132     		adds	r2, r2, #1
 273 0022 9342     		cmp	r3, r2
 274 0024 10D1     		bne	.L23
 275              		.loc 1 267 0
 276 0026 6268     		ldr	r2, [r4, #4]
 277              		.loc 1 268 0
 278 0028 C36A     		ldr	r3, [r0, #44]
 279              		.loc 1 267 0
 280 002a 22F40072 		bic	r2, r2, #512
 281              		.loc 1 268 0
 282 002e 1B68     		ldr	r3, [r3]
 283              		.loc 1 267 0
ARM GAS  /tmp/ccZCkOcz.s 			page 6


 284 0030 6260     		str	r2, [r4, #4]
 285              		.loc 1 268 0
 286 0032 1A68     		ldr	r2, [r3]
 287 0034 42F00102 		orr	r2, r2, #1
 288 0038 1A60     		str	r2, [r3]
 289              		.loc 1 269 0
 290 003a 6268     		ldr	r2, [r4, #4]
 291 003c 42F48052 		orr	r2, r2, #4096
 292 0040 6260     		str	r2, [r4, #4]
 293              		.loc 1 270 0
 294 0042 5B68     		ldr	r3, [r3, #4]
 295 0044 012B     		cmp	r3, #1
 296 0046 4BD9     		bls	.L37
 297              	.L23:
 298              		.loc 1 293 0
 299 0048 15F00A0F 		tst	r5, #10
 300              		.loc 1 294 0
 301 004c 18BF     		it	ne
 302 004e A369     		ldrne	r3, [r4, #24]
 303              	.LBE259:
 304              	.LBE262:
 305              		.loc 1 443 0
 306 0050 BDE87040 		pop	{r4, r5, r6, lr}
 307              	.LVL21:
 308              		.loc 1 442 0
 309 0054 FFF7FEBF 		b	_port_irq_epilogue
 310              	.LVL22:
 311              	.L25:
 312              	.LBB263:
 313              	.LBB260:
 314              		.loc 1 253 0
 315 0058 264A     		ldr	r2, .L38+8
 316 005a 9342     		cmp	r3, r2
 317 005c 12D0     		beq	.L28
 318 005e 0232     		adds	r2, r2, #2
 319 0060 9342     		cmp	r3, r2
 320 0062 F1D1     		bne	.L23
 321              		.loc 1 279 0
 322 0064 C36A     		ldr	r3, [r0, #44]
 323 0066 1B68     		ldr	r3, [r3]
 324 0068 5E68     		ldr	r6, [r3, #4]
 325 006a 3EB3     		cbz	r6, .L31
 326              		.loc 1 282 0
 327 006c 2368     		ldr	r3, [r4]
 328              		.loc 1 281 0
 329 006e 028C     		ldrh	r2, [r0, #32]
 330              		.loc 1 282 0
 331 0070 43F4A063 		orr	r3, r3, #1280
 332              		.loc 1 281 0
 333 0074 42F00102 		orr	r2, r2, #1
 334 0078 0284     		strh	r2, [r0, #32]	@ movhi
 335              		.loc 1 282 0
 336 007a 2360     		str	r3, [r4]
 337              	.LBE260:
 338              	.LBE263:
 339              		.loc 1 443 0
 340 007c BDE87040 		pop	{r4, r5, r6, lr}
ARM GAS  /tmp/ccZCkOcz.s 			page 7


 341              	.LVL23:
 342              		.loc 1 442 0
 343 0080 FFF7FEBF 		b	_port_irq_epilogue
 344              	.LVL24:
 345              	.L28:
 346              	.LBB264:
 347              	.LBB261:
 348              		.loc 1 274 0
 349 0084 6268     		ldr	r2, [r4, #4]
 350              		.loc 1 275 0
 351 0086 036B     		ldr	r3, [r0, #48]
 352              		.loc 1 274 0
 353 0088 22F40072 		bic	r2, r2, #512
 354              		.loc 1 275 0
 355 008c 1B68     		ldr	r3, [r3]
 356              		.loc 1 274 0
 357 008e 6260     		str	r2, [r4, #4]
 358              		.loc 1 275 0
 359 0090 1A68     		ldr	r2, [r3]
 360 0092 42F00102 		orr	r2, r2, #1
 361 0096 1A60     		str	r2, [r3]
 362 0098 D6E7     		b	.L23
 363              	.L26:
 364              		.loc 1 255 0
 365 009a 038C     		ldrh	r3, [r0, #32]
 366 009c 1A0A     		lsrs	r2, r3, #8
 367 009e 0BD0     		beq	.L36
 368              		.loc 1 257 0
 369 00a0 03F00103 		and	r3, r3, #1
 370 00a4 43F0F003 		orr	r3, r3, #240
 371 00a8 02F00602 		and	r2, r2, #6
 372 00ac 1A43     		orrs	r2, r2, r3
 373 00ae 2261     		str	r2, [r4, #16]
 374 00b0 CAE7     		b	.L23
 375              	.L24:
 376              		.loc 1 264 0
 377 00b2 038C     		ldrh	r3, [r0, #32]
 378 00b4 C3F34703 		ubfx	r3, r3, #1, #8
 379              	.L36:
 380 00b8 2361     		str	r3, [r4, #16]
 381 00ba C5E7     		b	.L23
 382              	.L31:
 383              		.loc 1 285 0
 384 00bc 6368     		ldr	r3, [r4, #4]
 385 00be 23F40073 		bic	r3, r3, #512
 386 00c2 6360     		str	r3, [r4, #4]
 387              		.loc 1 286 0
 388 00c4 2368     		ldr	r3, [r4]
 389 00c6 43F40073 		orr	r3, r3, #512
 390 00ca 2360     		str	r3, [r4]
 391              	.LVL25:
 392              	.LBB245:
 393              	.LBB246:
 394              	.LBB247:
 395              	.LBB248:
 396              	.LBB249:
 397              	.LBB250:
ARM GAS  /tmp/ccZCkOcz.s 			page 8


 398              		.loc 3 546 0
 399 00cc 2023     		movs	r3, #32
 400              	@ 546 "ChibiOS_3.0.2/os/ext/CMSIS/include/core_cmFunc.h" 1
 401 00ce 83F31188 		MSR basepri, r3
 402              	@ 0 "" 2
 403              	.LVL26:
 404              		.thumb
 405              	.LBE250:
 406              	.LBE249:
 407              	.LBE248:
 408              	.LBE247:
 409              	.LBE246:
 410              	.LBE245:
 411              	.LBB251:
 412              	.LBB252:
 413              		.loc 2 728 0
 414 00d2 1C30     		adds	r0, r0, #28
 415 00d4 3146     		mov	r1, r6
 416 00d6 FFF7FEFF 		bl	chThdResumeI
 417              	.LVL27:
 418              	.LBE252:
 419              	.LBE251:
 420              	.LBB253:
 421              	.LBB254:
 422              	.LBB255:
 423              	.LBB256:
 424              	.LBB257:
 425              	.LBB258:
 426              		.loc 3 546 0
 427              	@ 546 "ChibiOS_3.0.2/os/ext/CMSIS/include/core_cmFunc.h" 1
 428 00da 86F31188 		MSR basepri, r6
 429              	@ 0 "" 2
 430              		.thumb
 431 00de B3E7     		b	.L23
 432              	.LVL28:
 433              	.L37:
 434              	.LBE258:
 435              	.LBE257:
 436              	.LBE256:
 437              	.LBE255:
 438              	.LBE254:
 439              	.LBE253:
 440              		.loc 1 271 0
 441 00e0 2368     		ldr	r3, [r4]
 442 00e2 23F48063 		bic	r3, r3, #1024
 443 00e6 2360     		str	r3, [r4]
 444 00e8 AEE7     		b	.L23
 445              	.L39:
 446 00ea 00BF     		.align	2
 447              	.L38:
 448 00ec 00000000 		.word	.LANCHOR0
 449 00f0 08000300 		.word	196616
 450 00f4 82000700 		.word	458882
 451              	.LBE261:
 452              	.LBE264:
 453              		.cfi_endproc
 454              	.LFE263:
ARM GAS  /tmp/ccZCkOcz.s 			page 9


 455              		.size	VectorC4, .-VectorC4
 456 00f8 AFF30080 		.section	.text.VectorC8,"ax",%progbits
 456      AFF30080 
 457              		.align	2
 458              		.p2align 4,,15
 459              		.global	VectorC8
 460              		.thumb
 461              		.thumb_func
 462              		.type	VectorC8, %function
 463              	VectorC8:
 464              	.LFB264:
 465              		.loc 1 450 0
 466              		.cfi_startproc
 467              		@ args = 0, pretend = 0, frame = 0
 468              		@ frame_needed = 0, uses_anonymous_args = 0
 469              		.loc 1 451 0
 470 0000 3248     		ldr	r0, .L75
 471              		.loc 1 450 0
 472 0002 F8B5     		push	{r3, r4, r5, r6, r7, lr}
 473              		.cfi_def_cfa_offset 24
 474              		.cfi_offset 3, -24
 475              		.cfi_offset 4, -20
 476              		.cfi_offset 5, -16
 477              		.cfi_offset 6, -12
 478              		.cfi_offset 7, -8
 479              		.cfi_offset 14, -4
 480              		.loc 1 451 0
 481 0004 446B     		ldr	r4, [r0, #52]
 482              	.LBB281:
 483              	.LBB282:
 484              		.loc 1 362 0
 485 0006 066B     		ldr	r6, [r0, #48]
 486              	.LBE282:
 487              	.LBE281:
 488              		.loc 1 451 0
 489 0008 6769     		ldr	r7, [r4, #20]
 490              	.LBB300:
 491              	.LBB297:
 492              		.loc 1 362 0
 493 000a 3268     		ldr	r2, [r6]
 494              	.LBE297:
 495              	.LBE300:
 496              		.loc 1 451 0
 497 000c B9B2     		uxth	r1, r7
 498              	.LVL29:
 499              		.loc 1 455 0
 500 000e 01F45F43 		and	r3, r1, #57088
 501 0012 DB43     		mvns	r3, r3
 502 0014 6361     		str	r3, [r4, #20]
 503              	.LVL30:
 504              	.LBB301:
 505              	.LBB298:
 506              		.loc 1 362 0
 507 0016 1368     		ldr	r3, [r2]
 508 0018 23F01F03 		bic	r3, r3, #31
 509 001c 1360     		str	r3, [r2]
 510              	.L42:
ARM GAS  /tmp/ccZCkOcz.s 			page 10


 511 001e 1368     		ldr	r3, [r2]
 512 0020 DB07     		lsls	r3, r3, #31
 513 0022 FCD4     		bmi	.L42
 514 0024 96F808C0 		ldrb	ip, [r6, #8]	@ zero_extendqisi2
 515              		.loc 1 363 0
 516 0028 C56A     		ldr	r5, [r0, #44]
 517              		.loc 1 362 0
 518 002a 7368     		ldr	r3, [r6, #4]
 519              		.loc 1 363 0
 520 002c 2A68     		ldr	r2, [r5]
 521              		.loc 1 362 0
 522 002e 3D26     		movs	r6, #61
 523 0030 06FA0CF6 		lsl	r6, r6, ip
 524 0034 1E60     		str	r6, [r3]
 525              		.loc 1 363 0
 526 0036 1368     		ldr	r3, [r2]
 527 0038 23F01F03 		bic	r3, r3, #31
 528 003c 1360     		str	r3, [r2]
 529              	.L44:
 530 003e 1368     		ldr	r3, [r2]
 531 0040 13F00103 		ands	r3, r3, #1
 532 0044 FBD1     		bne	.L44
 533 0046 2E7A     		ldrb	r6, [r5, #8]	@ zero_extendqisi2
 534 0048 6A68     		ldr	r2, [r5, #4]
 535 004a 3D25     		movs	r5, #61
 536 004c B540     		lsls	r5, r5, r6
 537 004e 1560     		str	r5, [r2]
 538              		.loc 1 367 0
 539 0050 CD05     		lsls	r5, r1, #23
 540              		.loc 1 368 0
 541 0052 48BF     		it	mi
 542 0054 0123     		movmi	r3, #1
 543              		.loc 1 370 0
 544 0056 8A05     		lsls	r2, r1, #22
 545              		.loc 1 368 0
 546 0058 8360     		str	r3, [r0, #8]
 547              		.loc 1 371 0
 548 005a 44BF     		itt	mi
 549 005c 43F00203 		orrmi	r3, r3, #2
 550 0060 8360     		strmi	r3, [r0, #8]
 551              		.loc 1 373 0
 552 0062 4E05     		lsls	r6, r1, #21
 553 0064 0AD5     		bpl	.L48
 554              		.loc 1 374 0
 555 0066 6268     		ldr	r2, [r4, #4]
 556 0068 22F40072 		bic	r2, r2, #512
 557 006c 6260     		str	r2, [r4, #4]
 558              		.loc 1 375 0
 559 006e 2268     		ldr	r2, [r4]
 560              		.loc 1 376 0
 561 0070 43F00403 		orr	r3, r3, #4
 562              		.loc 1 375 0
 563 0074 42F40072 		orr	r2, r2, #512
 564 0078 2260     		str	r2, [r4]
 565              		.loc 1 376 0
 566 007a 8360     		str	r3, [r0, #8]
 567              	.L48:
ARM GAS  /tmp/ccZCkOcz.s 			page 11


 568              		.loc 1 379 0
 569 007c 0D05     		lsls	r5, r1, #20
 570              		.loc 1 380 0
 571 007e 44BF     		itt	mi
 572 0080 43F00803 		orrmi	r3, r3, #8
 573 0084 8360     		strmi	r3, [r0, #8]
 574              		.loc 1 382 0
 575 0086 4C04     		lsls	r4, r1, #17
 576              		.loc 1 383 0
 577 0088 44BF     		itt	mi
 578 008a 43F02003 		orrmi	r3, r3, #32
 579 008e 8360     		strmi	r3, [r0, #8]
 580              		.loc 1 385 0
 581 0090 C904     		lsls	r1, r1, #19
 582              		.loc 1 386 0
 583 0092 44BF     		itt	mi
 584 0094 43F01003 		orrmi	r3, r3, #16
 585 0098 8360     		strmi	r3, [r0, #8]
 586              		.loc 1 388 0
 587 009a 3A04     		lsls	r2, r7, #16
 588 009c 04D4     		bmi	.L74
 589              		.loc 1 392 0
 590 009e 33B9     		cbnz	r3, .L53
 591              	.LBE298:
 592              	.LBE301:
 593              		.loc 1 459 0
 594 00a0 BDE8F840 		pop	{r3, r4, r5, r6, r7, lr}
 595              	.LVL31:
 596              		.loc 1 458 0
 597 00a4 FFF7FEBF 		b	_port_irq_epilogue
 598              	.LVL32:
 599              	.L74:
 600              	.LBB302:
 601              	.LBB299:
 602              		.loc 1 389 0
 603 00a8 43F04003 		orr	r3, r3, #64
 604 00ac 8360     		str	r3, [r0, #8]
 605              	.L53:
 606              	.LVL33:
 607              	.LBB283:
 608              	.LBB284:
 609              	.LBB285:
 610              	.LBB286:
 611              	.LBB287:
 612              	.LBB288:
 613              		.loc 3 546 0
 614 00ae 2023     		movs	r3, #32
 615              	@ 546 "ChibiOS_3.0.2/os/ext/CMSIS/include/core_cmFunc.h" 1
 616 00b0 83F31188 		MSR basepri, r3
 617              	@ 0 "" 2
 618              	.LVL34:
 619              		.thumb
 620              	.LBE288:
 621              	.LBE287:
 622              	.LBE286:
 623              	.LBE285:
 624              	.LBE284:
ARM GAS  /tmp/ccZCkOcz.s 			page 12


 625              	.LBE283:
 626              	.LBB289:
 627              	.LBB290:
 628              		.loc 2 728 0
 629 00b4 0648     		ldr	r0, .L75+4
 630 00b6 6FF00101 		mvn	r1, #1
 631 00ba FFF7FEFF 		bl	chThdResumeI
 632              	.LVL35:
 633              	.LBE290:
 634              	.LBE289:
 635              	.LBB291:
 636              	.LBB292:
 637              	.LBB293:
 638              	.LBB294:
 639              	.LBB295:
 640              	.LBB296:
 641              		.loc 3 546 0
 642 00be 0023     		movs	r3, #0
 643              	@ 546 "ChibiOS_3.0.2/os/ext/CMSIS/include/core_cmFunc.h" 1
 644 00c0 83F31188 		MSR basepri, r3
 645              	@ 0 "" 2
 646              		.thumb
 647              	.LBE296:
 648              	.LBE295:
 649              	.LBE294:
 650              	.LBE293:
 651              	.LBE292:
 652              	.LBE291:
 653              	.LBE299:
 654              	.LBE302:
 655              		.loc 1 459 0
 656 00c4 BDE8F840 		pop	{r3, r4, r5, r6, r7, lr}
 657              	.LVL36:
 658              		.loc 1 458 0
 659 00c8 FFF7FEBF 		b	_port_irq_epilogue
 660              	.LVL37:
 661              	.L76:
 662              		.align	2
 663              	.L75:
 664 00cc 00000000 		.word	.LANCHOR0
 665 00d0 1C000000 		.word	.LANCHOR0+28
 666              		.cfi_endproc
 667              	.LFE264:
 668              		.size	VectorC8, .-VectorC8
 669 00d4 AFF30080 		.section	.text.i2c_lld_init,"ax",%progbits
 669      AFF30080 
 669      AFF30080 
 670              		.align	2
 671              		.p2align 4,,15
 672              		.global	i2c_lld_init
 673              		.thumb
 674              		.thumb_func
 675              		.type	i2c_lld_init, %function
 676              	i2c_lld_init:
 677              	.LFB265:
 678              		.loc 1 503 0
 679              		.cfi_startproc
ARM GAS  /tmp/ccZCkOcz.s 			page 13


 680              		@ args = 0, pretend = 0, frame = 0
 681              		@ frame_needed = 0, uses_anonymous_args = 0
 682 0000 10B5     		push	{r4, lr}
 683              		.cfi_def_cfa_offset 8
 684              		.cfi_offset 4, -8
 685              		.cfi_offset 14, -4
 686              		.loc 1 514 0
 687 0002 074C     		ldr	r4, .L78
 688 0004 2046     		mov	r0, r4
 689 0006 FFF7FEFF 		bl	i2cObjectInit
 690              	.LVL38:
 691              		.loc 1 517 0
 692 000a 064B     		ldr	r3, .L78+4
 693              		.loc 1 516 0
 694 000c 064A     		ldr	r2, .L78+8
 695 000e 6263     		str	r2, [r4, #52]
 696              		.loc 1 515 0
 697 0010 0021     		movs	r1, #0
 698              		.loc 1 518 0
 699 0012 03F13C02 		add	r2, r3, #60
 700              		.loc 1 515 0
 701 0016 E161     		str	r1, [r4, #28]
 702              		.loc 1 517 0
 703 0018 E362     		str	r3, [r4, #44]
 704              		.loc 1 518 0
 705 001a 2263     		str	r2, [r4, #48]
 706 001c 10BD     		pop	{r4, pc}
 707              	.L79:
 708 001e 00BF     		.align	2
 709              	.L78:
 710 0020 00000000 		.word	.LANCHOR0
 711 0024 18000000 		.word	_stm32_dma_streams+24
 712 0028 00580040 		.word	1073764352
 713              		.cfi_endproc
 714              	.LFE265:
 715              		.size	i2c_lld_init, .-i2c_lld_init
 716 002c AFF30080 		.section	.text.i2c_lld_start,"ax",%progbits
 717              		.align	2
 718              		.p2align 4,,15
 719              		.global	i2c_lld_start
 720              		.thumb
 721              		.thumb_func
 722              		.type	i2c_lld_start, %function
 723              	i2c_lld_start:
 724              	.LFB266:
 725              		.loc 1 537 0
 726              		.cfi_startproc
 727              		@ args = 0, pretend = 0, frame = 0
 728              		@ frame_needed = 0, uses_anonymous_args = 0
 729              	.LVL39:
 730              		.loc 1 550 0
 731 0000 0378     		ldrb	r3, [r0]	@ zero_extendqisi2
 732              		.loc 1 540 0
 733 0002 40F25642 		movw	r2, #1110
 734              		.loc 1 537 0
 735 0006 2DE9F047 		push	{r4, r5, r6, r7, r8, r9, r10, lr}
 736              		.cfi_def_cfa_offset 32
ARM GAS  /tmp/ccZCkOcz.s 			page 14


 737              		.cfi_offset 4, -32
 738              		.cfi_offset 5, -28
 739              		.cfi_offset 6, -24
 740              		.cfi_offset 7, -20
 741              		.cfi_offset 8, -16
 742              		.cfi_offset 9, -12
 743              		.cfi_offset 10, -8
 744              		.cfi_offset 14, -4
 745              		.loc 1 550 0
 746 000a 012B     		cmp	r3, #1
 747              		.loc 1 540 0
 748 000c 8262     		str	r2, [r0, #40]
 749              		.loc 1 544 0
 750 000e 40F21642 		movw	r2, #1046
 751              		.loc 1 537 0
 752 0012 0446     		mov	r4, r0
 753              		.loc 1 544 0
 754 0014 4262     		str	r2, [r0, #36]
 755              		.loc 1 538 0
 756 0016 456B     		ldr	r5, [r0, #52]
 757              	.LVL40:
 758              		.loc 1 550 0
 759 0018 50D0     		beq	.L94
 760              	.L91:
 761              		.loc 1 538 0
 762 001a 2A46     		mov	r2, r5
 763              	.LVL41:
 764              	.L81:
 765              		.loc 1 632 0
 766 001c E16A     		ldr	r1, [r4, #44]
 767              		.loc 1 633 0
 768 001e 236B     		ldr	r3, [r4, #48]
 769              		.loc 1 632 0
 770 0020 D1F80090 		ldr	r9, [r1]
 771              		.loc 1 633 0
 772 0024 D3F800A0 		ldr	r10, [r3]
 773              		.loc 1 537 0
 774 0028 6368     		ldr	r3, [r4, #4]
 775              	.LVL42:
 776              	.LBB308:
 777              	.LBB309:
 778              		.loc 1 161 0
 779 002a 4D4E     		ldr	r6, .L99
 780              		.loc 1 146 0
 781 002c 5868     		ldr	r0, [r3, #4]
 782              	.LVL43:
 783              		.loc 1 147 0
 784 002e 93F808C0 		ldrb	ip, [r3, #8]	@ zero_extendqisi2
 785              	.LVL44:
 786              	.LBE309:
 787              	.LBE308:
 788              		.loc 1 632 0
 789 0032 05F11001 		add	r1, r5, #16
 790              		.loc 1 638 0
 791 0036 4FF41067 		mov	r7, #2304
 792              		.loc 1 636 0
 793 003a 4FF40048 		mov	r8, #32768
ARM GAS  /tmp/ccZCkOcz.s 			page 15


 794              		.loc 1 637 0
 795 003e 0024     		movs	r4, #0
 796              	.LVL45:
 797              		.loc 1 632 0
 798 0040 C9F80810 		str	r1, [r9, #8]
 799              		.loc 1 633 0
 800 0044 CAF80810 		str	r1, [r10, #8]
 801              		.loc 1 636 0
 802 0048 C5F80080 		str	r8, [r5]
 803              		.loc 1 637 0
 804 004c 2C60     		str	r4, [r5]
 805              		.loc 1 638 0
 806 004e 6F60     		str	r7, [r5, #4]
 807              	.LBB314:
 808              	.LBB310:
 809              		.loc 1 154 0
 810 0050 5768     		ldr	r7, [r2, #4]
 811 0052 4FF6C071 		movw	r1, #65472
 812 0056 3940     		ands	r1, r1, r7
 813 0058 5160     		str	r1, [r2, #4]
 814              		.loc 1 155 0
 815 005a 5168     		ldr	r1, [r2, #4]
 816              		.loc 1 161 0
 817 005c B042     		cmp	r0, r6
 818              		.loc 1 155 0
 819 005e 41F02A01 		orr	r1, r1, #42
 820 0062 5160     		str	r1, [r2, #4]
 821              	.LVL46:
 822              		.loc 1 161 0
 823 0064 21DD     		ble	.L95
 824              		.loc 1 177 0
 825 0066 3F49     		ldr	r1, .L99+4
 826 0068 8842     		cmp	r0, r1
 827 006a 09DC     		bgt	.L83
 828              		.loc 1 183 0
 829 006c BCF1020F 		cmp	ip, #2
 830 0070 6AD0     		beq	.L96
 831              		.loc 1 189 0
 832 0072 BCF1030F 		cmp	ip, #3
 833 0076 5AD0     		beq	.L97
 834 0078 48F6FF74 		movw	r4, #36863
 835              	.LVL47:
 836              	.L85:
 837              		.loc 1 202 0
 838 007c 0D21     		movs	r1, #13
 839 007e 1162     		str	r1, [r2, #32]
 840              	.LVL48:
 841              	.L83:
 842              	.LBE310:
 843              	.LBE314:
 844              	.LBB315:
 845              	.LBB316:
 846              		.loc 1 223 0
 847 0080 1978     		ldrb	r1, [r3]	@ zero_extendqisi2
 848              	.LBE316:
 849              	.LBE315:
 850              	.LBB320:
ARM GAS  /tmp/ccZCkOcz.s 			page 16


 851              	.LBB311:
 852              		.loc 1 207 0
 853 0082 D461     		str	r4, [r2, #28]
 854              	.LVL49:
 855              	.LBE311:
 856              	.LBE320:
 857              	.LBB321:
 858              	.LBB317:
 859              		.loc 1 222 0
 860 0084 1368     		ldr	r3, [r2]
 861              	.LVL50:
 862              		.loc 1 223 0
 863 0086 0229     		cmp	r1, #2
 864              		.loc 1 222 0
 865 0088 9BB2     		uxth	r3, r3
 866              	.LVL51:
 867              		.loc 1 223 0
 868 008a 4AD0     		beq	.L87
 869 008c 0329     		cmp	r1, #3
 870 008e 45D0     		beq	.L88
 871 0090 0129     		cmp	r1, #1
 872 0092 06D0     		beq	.L98
 873              	.LVL52:
 874              	.L86:
 875              		.loc 1 235 0
 876 0094 1360     		str	r3, [r2]
 877              	.LBE317:
 878              	.LBE321:
 879              		.loc 1 645 0
 880 0096 2B68     		ldr	r3, [r5]
 881              	.LVL53:
 882 0098 43F00103 		orr	r3, r3, #1
 883 009c 2B60     		str	r3, [r5]
 884              	.LVL54:
 885 009e BDE8F087 		pop	{r4, r5, r6, r7, r8, r9, r10, pc}
 886              	.LVL55:
 887              	.L98:
 888              	.LBB322:
 889              	.LBB318:
 890              		.loc 1 225 0
 891 00a2 23F00A03 		bic	r3, r3, #10
 892              	.LVL56:
 893 00a6 9BB2     		uxth	r3, r3
 894              	.LVL57:
 895 00a8 F4E7     		b	.L86
 896              	.LVL58:
 897              	.L95:
 898              	.LBE318:
 899              	.LBE322:
 900              	.LBB323:
 901              	.LBB312:
 902              		.loc 1 168 0
 903 00aa 2F4C     		ldr	r4, .L99+8
 904 00ac 4000     		lsls	r0, r0, #1
 905              	.LVL59:
 906 00ae B4FBF0F4 		udiv	r4, r4, r0
 907              		.loc 1 175 0
ARM GAS  /tmp/ccZCkOcz.s 			page 17


 908 00b2 2B21     		movs	r1, #43
 909 00b4 C4F30B04 		ubfx	r4, r4, #0, #12
 910 00b8 1162     		str	r1, [r2, #32]
 911              	.LVL60:
 912 00ba E1E7     		b	.L83
 913              	.LVL61:
 914              	.L94:
 915              	.LBE312:
 916              	.LBE323:
 917              		.loc 1 579 0
 918 00bc 2B4B     		ldr	r3, .L99+12
 919 00be 9842     		cmp	r0, r3
 920 00c0 ABD1     		bne	.L91
 921              	.LBB324:
 922              		.loc 1 582 0
 923 00c2 2B4E     		ldr	r6, .L99+16
 924              		.loc 1 583 0
 925 00c4 C06A     		ldr	r0, [r0, #44]
 926              	.LVL62:
 927              		.loc 1 582 0
 928 00c6 316A     		ldr	r1, [r6, #32]
 929              		.loc 1 583 0
 930 00c8 2A4A     		ldr	r2, .L99+20
 931              		.loc 1 582 0
 932 00ca 41F48001 		orr	r1, r1, #4194304
 933 00ce 0023     		movs	r3, #0
 934 00d0 3162     		str	r1, [r6, #32]
 935              		.loc 1 583 0
 936 00d2 0521     		movs	r1, #5
 937              		.loc 1 582 0
 938 00d4 3362     		str	r3, [r6, #32]
 939              		.loc 1 583 0
 940 00d6 2346     		mov	r3, r4
 941 00d8 FFF7FEFF 		bl	dmaStreamAllocate
 942              	.LVL63:
 943              		.loc 1 588 0
 944 00dc 264A     		ldr	r2, .L99+24
 945 00de 206B     		ldr	r0, [r4, #48]
 946 00e0 0521     		movs	r1, #5
 947 00e2 2346     		mov	r3, r4
 948 00e4 FFF7FEFF 		bl	dmaStreamAllocate
 949              	.LVL64:
 950              		.loc 1 593 0
 951 00e8 336C     		ldr	r3, [r6, #64]
 952 00ea 43F48003 		orr	r3, r3, #4194304
 953 00ee 3364     		str	r3, [r6, #64]
 954              		.loc 1 594 0
 955 00f0 2120     		movs	r0, #33
 956 00f2 0521     		movs	r1, #5
 957 00f4 FFF7FEFF 		bl	nvicEnableVector
 958              	.LVL65:
 959              		.loc 1 595 0
 960 00f8 0521     		movs	r1, #5
 961 00fa 2220     		movs	r0, #34
 962 00fc FFF7FEFF 		bl	nvicEnableVector
 963              	.LVL66:
 964              		.loc 1 597 0
ARM GAS  /tmp/ccZCkOcz.s 			page 18


 965 0100 616A     		ldr	r1, [r4, #36]
 966              		.loc 1 599 0
 967 0102 A36A     		ldr	r3, [r4, #40]
 968 0104 626B     		ldr	r2, [r4, #52]
 969              		.loc 1 597 0
 970 0106 41F06061 		orr	r1, r1, #234881024
 971              		.loc 1 599 0
 972 010a 43F06063 		orr	r3, r3, #234881024
 973              		.loc 1 597 0
 974 010e 41F44031 		orr	r1, r1, #196608
 975              		.loc 1 599 0
 976 0112 43F44033 		orr	r3, r3, #196608
 977              		.loc 1 597 0
 978 0116 6162     		str	r1, [r4, #36]
 979              		.loc 1 599 0
 980 0118 A362     		str	r3, [r4, #40]
 981 011a 7FE7     		b	.L81
 982              	.LVL67:
 983              	.L88:
 984              	.LBE324:
 985              	.LBB325:
 986              	.LBB319:
 987              		.loc 1 232 0
 988 011c 43F00A03 		orr	r3, r3, #10
 989              	.LVL68:
 990 0120 B8E7     		b	.L86
 991              	.L87:
 992              	.LVL69:
 993              		.loc 1 229 0
 994 0122 23F00803 		bic	r3, r3, #8
 995              	.LVL70:
 996 0126 9BB2     		uxth	r3, r3
 997 0128 43F00203 		orr	r3, r3, #2
 998              	.LVL71:
 999 012c B2E7     		b	.L86
 1000              	.LVL72:
 1001              	.L97:
 1002              	.LBE319:
 1003              	.LBE325:
 1004              	.LBB326:
 1005              	.LBB313:
 1006              		.loc 1 193 0
 1007 012e 00EB8000 		add	r0, r0, r0, lsl #2
 1008              	.LVL73:
 1009 0132 0D4C     		ldr	r4, .L99+8
 1010 0134 00EB8000 		add	r0, r0, r0, lsl #2
 1011 0138 B4FBF0F4 		udiv	r4, r4, r0
 1012 013c 6FEA8444 		mvn	r4, r4, lsl #18
 1013 0140 6FEA9444 		mvn	r4, r4, lsr #18
 1014 0144 A4B2     		uxth	r4, r4
 1015 0146 99E7     		b	.L85
 1016              	.LVL74:
 1017              	.L96:
 1018              		.loc 1 187 0
 1019 0148 074C     		ldr	r4, .L99+8
 1020 014a 00EB4000 		add	r0, r0, r0, lsl #1
 1021              	.LVL75:
ARM GAS  /tmp/ccZCkOcz.s 			page 19


 1022 014e B4FBF0F4 		udiv	r4, r4, r0
 1023 0152 6FEA4444 		mvn	r4, r4, lsl #17
 1024 0156 6FEA5444 		mvn	r4, r4, lsr #17
 1025 015a A4B2     		uxth	r4, r4
 1026 015c 8EE7     		b	.L85
 1027              	.L100:
 1028 015e 00BF     		.align	2
 1029              	.L99:
 1030 0160 A0860100 		.word	100000
 1031 0164 801A0600 		.word	400000
 1032 0168 80DE8002 		.word	42000000
 1033 016c 00000000 		.word	.LANCHOR0
 1034 0170 00380240 		.word	1073887232
 1035 0174 00000000 		.word	i2c_lld_serve_rx_end_irq
 1036 0178 00000000 		.word	i2c_lld_serve_tx_end_irq
 1037              	.LBE313:
 1038              	.LBE326:
 1039              		.cfi_endproc
 1040              	.LFE266:
 1041              		.size	i2c_lld_start, .-i2c_lld_start
 1042 017c AFF30080 		.section	.text.i2c_lld_stop,"ax",%progbits
 1043              		.align	2
 1044              		.p2align 4,,15
 1045              		.global	i2c_lld_stop
 1046              		.thumb
 1047              		.thumb_func
 1048              		.type	i2c_lld_stop, %function
 1049              	i2c_lld_stop:
 1050              	.LFB267:
 1051              		.loc 1 655 0
 1052              		.cfi_startproc
 1053              		@ args = 0, pretend = 0, frame = 0
 1054              		@ frame_needed = 0, uses_anonymous_args = 0
 1055              	.LVL76:
 1056              		.loc 1 658 0
 1057 0000 0378     		ldrb	r3, [r0]	@ zero_extendqisi2
 1058 0002 012B     		cmp	r3, #1
 1059              		.loc 1 655 0
 1060 0004 70B5     		push	{r4, r5, r6, lr}
 1061              		.cfi_def_cfa_offset 16
 1062              		.cfi_offset 4, -16
 1063              		.cfi_offset 5, -12
 1064              		.cfi_offset 6, -8
 1065              		.cfi_offset 14, -4
 1066              		.loc 1 655 0
 1067 0006 0446     		mov	r4, r0
 1068              		.loc 1 658 0
 1069 0008 2DD0     		beq	.L101
 1070              	.LVL77:
 1071              	.LBB329:
 1072              	.LBB330:
 1073              		.loc 1 132 0
 1074 000a 006B     		ldr	r0, [r0, #48]
 1075              	.LVL78:
 1076              		.loc 1 123 0
 1077 000c 636B     		ldr	r3, [r4, #52]
 1078              	.LVL79:
ARM GAS  /tmp/ccZCkOcz.s 			page 20


 1079              		.loc 1 132 0
 1080 000e 0268     		ldr	r2, [r0]
 1081              		.loc 1 127 0
 1082 0010 0021     		movs	r1, #0
 1083              		.loc 1 126 0
 1084 0012 4FF40045 		mov	r5, #32768
 1085 0016 1D60     		str	r5, [r3]
 1086              		.loc 1 127 0
 1087 0018 1960     		str	r1, [r3]
 1088              		.loc 1 128 0
 1089 001a 5960     		str	r1, [r3, #4]
 1090              		.loc 1 129 0
 1091 001c 5961     		str	r1, [r3, #20]
 1092              		.loc 1 132 0
 1093 001e 1368     		ldr	r3, [r2]
 1094              	.LVL80:
 1095 0020 23F01F03 		bic	r3, r3, #31
 1096 0024 1360     		str	r3, [r2]
 1097              	.L105:
 1098 0026 1368     		ldr	r3, [r2]
 1099 0028 D907     		lsls	r1, r3, #31
 1100 002a FCD4     		bmi	.L105
 1101 002c 057A     		ldrb	r5, [r0, #8]	@ zero_extendqisi2
 1102              		.loc 1 133 0
 1103 002e E16A     		ldr	r1, [r4, #44]
 1104              		.loc 1 132 0
 1105 0030 4368     		ldr	r3, [r0, #4]
 1106              		.loc 1 133 0
 1107 0032 0A68     		ldr	r2, [r1]
 1108              		.loc 1 132 0
 1109 0034 3D26     		movs	r6, #61
 1110 0036 06FA05F5 		lsl	r5, r6, r5
 1111 003a 1D60     		str	r5, [r3]
 1112              		.loc 1 133 0
 1113 003c 1368     		ldr	r3, [r2]
 1114 003e 23F01F03 		bic	r3, r3, #31
 1115 0042 1360     		str	r3, [r2]
 1116              	.L107:
 1117 0044 1368     		ldr	r3, [r2]
 1118 0046 DB07     		lsls	r3, r3, #31
 1119 0048 FCD4     		bmi	.L107
 1120 004a 0A7A     		ldrb	r2, [r1, #8]	@ zero_extendqisi2
 1121 004c 4B68     		ldr	r3, [r1, #4]
 1122 004e 3D21     		movs	r1, #61
 1123 0050 01FA02F2 		lsl	r2, r1, r2
 1124 0054 1A60     		str	r2, [r3]
 1125              	.LBE330:
 1126              	.LBE329:
 1127              		.loc 1 662 0
 1128 0056 FFF7FEFF 		bl	dmaStreamRelease
 1129              	.LVL81:
 1130              		.loc 1 663 0
 1131 005a E06A     		ldr	r0, [r4, #44]
 1132 005c FFF7FEFF 		bl	dmaStreamRelease
 1133              	.LVL82:
 1134              		.loc 1 674 0
 1135 0060 074B     		ldr	r3, .L110
ARM GAS  /tmp/ccZCkOcz.s 			page 21


 1136 0062 9C42     		cmp	r4, r3
 1137 0064 00D0     		beq	.L109
 1138              	.LVL83:
 1139              	.L101:
 1140 0066 70BD     		pop	{r4, r5, r6, pc}
 1141              	.LVL84:
 1142              	.L109:
 1143              		.loc 1 675 0
 1144 0068 2120     		movs	r0, #33
 1145 006a FFF7FEFF 		bl	nvicDisableVector
 1146              	.LVL85:
 1147              		.loc 1 676 0
 1148 006e 2220     		movs	r0, #34
 1149 0070 FFF7FEFF 		bl	nvicDisableVector
 1150              	.LVL86:
 1151              		.loc 1 677 0
 1152 0074 034B     		ldr	r3, .L110+4
 1153 0076 1A6C     		ldr	r2, [r3, #64]
 1154 0078 22F48002 		bic	r2, r2, #4194304
 1155 007c 1A64     		str	r2, [r3, #64]
 1156 007e F2E7     		b	.L101
 1157              	.L111:
 1158              		.align	2
 1159              	.L110:
 1160 0080 00000000 		.word	.LANCHOR0
 1161 0084 00380240 		.word	1073887232
 1162              		.cfi_endproc
 1163              	.LFE267:
 1164              		.size	i2c_lld_stop, .-i2c_lld_stop
 1165 0088 AFF30080 		.section	.text.i2c_lld_master_receive_timeout,"ax",%progbits
 1165      AFF30080 
 1166              		.align	2
 1167              		.p2align 4,,15
 1168              		.global	i2c_lld_master_receive_timeout
 1169              		.thumb
 1170              		.thumb_func
 1171              		.type	i2c_lld_master_receive_timeout, %function
 1172              	i2c_lld_master_receive_timeout:
 1173              	.LFB268:
 1174              		.loc 1 716 0
 1175              		.cfi_startproc
 1176              		@ args = 4, pretend = 0, frame = 0
 1177              		@ frame_needed = 0, uses_anonymous_args = 0
 1178              		@ link register save eliminated.
 1179              	.LVL87:
 1180              		.loc 1 728 0
 1181 0000 4900     		lsls	r1, r1, #1
 1182              	.LVL88:
 1183              		.loc 1 716 0
 1184 0002 F0B4     		push	{r4, r5, r6, r7}
 1185              		.cfi_def_cfa_offset 16
 1186              		.cfi_offset 4, -16
 1187              		.cfi_offset 5, -12
 1188              		.cfi_offset 6, -8
 1189              		.cfi_offset 7, -4
 1190              		.loc 1 728 0
 1191 0004 41F00101 		orr	r1, r1, #1
ARM GAS  /tmp/ccZCkOcz.s 			page 22


 1192              		.loc 1 725 0
 1193 0008 0027     		movs	r7, #0
 1194              		.loc 1 728 0
 1195 000a 0184     		strh	r1, [r0, #32]	@ movhi
 1196              		.loc 1 717 0
 1197 000c 446B     		ldr	r4, [r0, #52]
 1198              	.LVL89:
 1199              		.loc 1 725 0
 1200 000e 8760     		str	r7, [r0, #8]
 1201              		.loc 1 716 0
 1202 0010 DDF810C0 		ldr	ip, [sp, #16]
 1203              	.LBB331:
 1204              	.LBB332:
 1205              	.LBB333:
 1206              	.LBB334:
 1207              	.LBB335:
 1208              	.LBB336:
 1209              		.loc 3 546 0
 1210              	@ 546 "ChibiOS_3.0.2/os/ext/CMSIS/include/core_cmFunc.h" 1
 1211 0014 87F31188 		MSR basepri, r7
 1212              	@ 0 "" 2
 1213              		.thumb
 1214              	.LBE336:
 1215              	.LBE335:
 1216              	.LBE334:
 1217              	.LBE333:
 1218              	.LBE332:
 1219              	.LBE331:
 1220              		.loc 1 734 0
 1221 0018 C56A     		ldr	r5, [r0, #44]
 1222 001a 416A     		ldr	r1, [r0, #36]
 1223 001c 2E68     		ldr	r6, [r5]
 1224              	.LBB337:
 1225              	.LBB338:
 1226              	.LBB339:
 1227              		.file 4 "ChibiOS_3.0.2/os/rt/include/chvt.h"
 1228              		.loc 4 231 0
 1229 001e 134D     		ldr	r5, .L118
 1230              	.LBE339:
 1231              	.LBE338:
 1232              	.LBE337:
 1233              		.loc 1 734 0
 1234 0020 3160     		str	r1, [r6]
 1235              		.loc 1 735 0
 1236 0022 F260     		str	r2, [r6, #12]
 1237              		.loc 1 736 0
 1238 0024 7360     		str	r3, [r6, #4]
 1239              	.LBB342:
 1240              	.LBB341:
 1241              	.LBB340:
 1242              		.loc 4 231 0
 1243 0026 AE6A     		ldr	r6, [r5, #40]
 1244              	.LVL90:
 1245              	.LBE340:
 1246              	.LBE341:
 1247              	.LBE342:
 1248              	.LBB343:
ARM GAS  /tmp/ccZCkOcz.s 			page 23


 1249              	.LBB344:
 1250              	.LBB345:
 1251              	.LBB346:
 1252              	.LBB347:
 1253              		.loc 3 546 0
 1254 0028 2022     		movs	r2, #32
 1255              	.LVL91:
 1256 002a 01E0     		b	.L116
 1257              	.LVL92:
 1258              	.L117:
 1259              	.LBE347:
 1260              	.LBE346:
 1261              	.LBE345:
 1262              	.LBE344:
 1263              	.LBE343:
 1264              	.LBB352:
 1265              	.LBB353:
 1266              	.LBB354:
 1267              	.LBB355:
 1268              	.LBB356:
 1269              	.LBB357:
 1270              	@ 546 "ChibiOS_3.0.2/os/ext/CMSIS/include/core_cmFunc.h" 1
 1271 002c 87F31188 		MSR basepri, r7
 1272              	@ 0 "" 2
 1273              	.LVL93:
 1274              		.thumb
 1275              	.L116:
 1276              	.LBE357:
 1277              	.LBE356:
 1278              	.LBE355:
 1279              	.LBE354:
 1280              	.LBE353:
 1281              	.LBE352:
 1282              	.LBB358:
 1283              	.LBB351:
 1284              	.LBB350:
 1285              	.LBB349:
 1286              	.LBB348:
 1287              	@ 546 "ChibiOS_3.0.2/os/ext/CMSIS/include/core_cmFunc.h" 1
 1288 0030 82F31188 		MSR basepri, r2
 1289              	@ 0 "" 2
 1290              	.LVL94:
 1291              		.thumb
 1292              	.LBE348:
 1293              	.LBE349:
 1294              	.LBE350:
 1295              	.LBE351:
 1296              	.LBE358:
 1297              		.loc 1 749 0
 1298 0034 A369     		ldr	r3, [r4, #24]
 1299 0036 9907     		lsls	r1, r3, #30
 1300 0038 02D4     		bmi	.L113
 1301              		.loc 1 749 0 is_stmt 0 discriminator 1
 1302 003a 2368     		ldr	r3, [r4]
 1303 003c 9B05     		lsls	r3, r3, #22
 1304 003e 08D5     		bpl	.L114
 1305              	.L113:
ARM GAS  /tmp/ccZCkOcz.s 			page 24


 1306              	.LBB359:
 1307              	.LBB360:
 1308              	.LBB361:
 1309              		.loc 4 231 0 is_stmt 1
 1310 0040 AB6A     		ldr	r3, [r5, #40]
 1311              	.LVL95:
 1312              	.LBE361:
 1313              	.LBE360:
 1314              	.LBE359:
 1315              	.LBB362:
 1316              	.LBB363:
 1317              	.LBB364:
 1318              		.loc 4 288 0
 1319 0042 9B1B     		subs	r3, r3, r6
 1320              	.LVL96:
 1321              	.LBE364:
 1322              	.LBE363:
 1323              	.LBE362:
 1324              		.loc 1 754 0
 1325 0044 B3F5FA7F 		cmp	r3, #500
 1326 0048 F0D3     		bcc	.L117
 1327              		.loc 1 766 0
 1328 004a 4FF0FF30 		mov	r0, #-1
 1329              	.LVL97:
 1330 004e F0BC     		pop	{r4, r5, r6, r7}
 1331              	.LVL98:
 1332 0050 7047     		bx	lr
 1333              	.LVL99:
 1334              	.L114:
 1335              		.loc 1 761 0
 1336 0052 6368     		ldr	r3, [r4, #4]
 1337 0054 43F40073 		orr	r3, r3, #512
 1338 0058 6360     		str	r3, [r4, #4]
 1339              	.LVL100:
 1340              		.loc 1 762 0
 1341 005a 2368     		ldr	r3, [r4]
 1342 005c 43F4A063 		orr	r3, r3, #1280
 1343 0060 2360     		str	r3, [r4]
 1344              	.LBB365:
 1345              	.LBB366:
 1346              		.loc 2 713 0
 1347 0062 1C30     		adds	r0, r0, #28
 1348              	.LVL101:
 1349 0064 6146     		mov	r1, ip
 1350              	.LBE366:
 1351              	.LBE365:
 1352              		.loc 1 766 0
 1353 0066 F0BC     		pop	{r4, r5, r6, r7}
 1354              	.LVL102:
 1355              	.LBB368:
 1356              	.LBB367:
 1357              		.loc 2 713 0
 1358 0068 FFF7FEBF 		b	chThdSuspendTimeoutS
 1359              	.LVL103:
 1360              	.L119:
 1361              		.align	2
 1362              	.L118:
ARM GAS  /tmp/ccZCkOcz.s 			page 25


 1363 006c 00000000 		.word	ch
 1364              	.LBE367:
 1365              	.LBE368:
 1366              		.cfi_endproc
 1367              	.LFE268:
 1368              		.size	i2c_lld_master_receive_timeout, .-i2c_lld_master_receive_timeout
 1369              		.section	.text.i2c_lld_master_transmit_timeout,"ax",%progbits
 1370              		.align	2
 1371              		.p2align 4,,15
 1372              		.global	i2c_lld_master_transmit_timeout
 1373              		.thumb
 1374              		.thumb_func
 1375              		.type	i2c_lld_master_transmit_timeout, %function
 1376              	i2c_lld_master_transmit_timeout:
 1377              	.LFB269:
 1378              		.loc 1 796 0
 1379              		.cfi_startproc
 1380              		@ args = 12, pretend = 0, frame = 0
 1381              		@ frame_needed = 0, uses_anonymous_args = 0
 1382              		@ link register save eliminated.
 1383              	.LVL104:
 1384 0000 2DE9F00F 		push	{r4, r5, r6, r7, r8, r9, r10, fp}
 1385              		.cfi_def_cfa_offset 32
 1386              		.cfi_offset 4, -32
 1387              		.cfi_offset 5, -28
 1388              		.cfi_offset 6, -24
 1389              		.cfi_offset 7, -20
 1390              		.cfi_offset 8, -16
 1391              		.cfi_offset 9, -12
 1392              		.cfi_offset 10, -8
 1393              		.cfi_offset 11, -4
 1394              		.loc 1 808 0
 1395 0004 4900     		lsls	r1, r1, #1
 1396              	.LVL105:
 1397              		.loc 1 805 0
 1398 0006 0027     		movs	r7, #0
 1399              		.loc 1 796 0
 1400 0008 9846     		mov	r8, r3
 1401              		.loc 1 808 0
 1402 000a 0184     		strh	r1, [r0, #32]	@ movhi
 1403              		.loc 1 797 0
 1404 000c 446B     		ldr	r4, [r0, #52]
 1405              	.LVL106:
 1406              		.loc 1 805 0
 1407 000e 8760     		str	r7, [r0, #8]
 1408              		.loc 1 796 0
 1409 0010 DDF820C0 		ldr	ip, [sp, #32]
 1410 0014 099B     		ldr	r3, [sp, #36]
 1411              	.LVL107:
 1412 0016 DDF828B0 		ldr	fp, [sp, #40]
 1413              	.LBB369:
 1414              	.LBB370:
 1415              	.LBB371:
 1416              	.LBB372:
 1417              	.LBB373:
 1418              	.LBB374:
 1419              		.loc 3 546 0
ARM GAS  /tmp/ccZCkOcz.s 			page 26


 1420              	@ 546 "ChibiOS_3.0.2/os/ext/CMSIS/include/core_cmFunc.h" 1
 1421 001a 87F31188 		MSR basepri, r7
 1422              	@ 0 "" 2
 1423              		.thumb
 1424              	.LBE374:
 1425              	.LBE373:
 1426              	.LBE372:
 1427              	.LBE371:
 1428              	.LBE370:
 1429              	.LBE369:
 1430              		.loc 1 814 0
 1431 001e 066B     		ldr	r6, [r0, #48]
 1432              		.loc 1 819 0
 1433 0020 C56A     		ldr	r5, [r0, #44]
 1434              		.loc 1 814 0
 1435 0022 D6F80090 		ldr	r9, [r6]
 1436              		.loc 1 819 0
 1437 0026 2E68     		ldr	r6, [r5]
 1438 0028 D0F824A0 		ldr	r10, [r0, #36]
 1439              		.loc 1 814 0
 1440 002c 816A     		ldr	r1, [r0, #40]
 1441              	.LBB375:
 1442              	.LBB376:
 1443              	.LBB377:
 1444              		.loc 4 231 0
 1445 002e 184D     		ldr	r5, .L126
 1446              	.LBE377:
 1447              	.LBE376:
 1448              	.LBE375:
 1449              		.loc 1 814 0
 1450 0030 C9F80010 		str	r1, [r9]
 1451              		.loc 1 815 0
 1452 0034 C9F80C20 		str	r2, [r9, #12]
 1453              		.loc 1 816 0
 1454 0038 C9F80480 		str	r8, [r9, #4]
 1455              		.loc 1 819 0
 1456 003c C6F800A0 		str	r10, [r6]
 1457              		.loc 1 820 0
 1458 0040 C6F80CC0 		str	ip, [r6, #12]
 1459              		.loc 1 821 0
 1460 0044 7360     		str	r3, [r6, #4]
 1461              	.LBB380:
 1462              	.LBB379:
 1463              	.LBB378:
 1464              		.loc 4 231 0
 1465 0046 AE6A     		ldr	r6, [r5, #40]
 1466              	.LVL108:
 1467              	.LBE378:
 1468              	.LBE379:
 1469              	.LBE380:
 1470              	.LBB381:
 1471              	.LBB382:
 1472              	.LBB383:
 1473              	.LBB384:
 1474              	.LBB385:
 1475              		.loc 3 546 0
 1476 0048 2022     		movs	r2, #32
ARM GAS  /tmp/ccZCkOcz.s 			page 27


 1477              	.LVL109:
 1478 004a 01E0     		b	.L124
 1479              	.LVL110:
 1480              	.L125:
 1481              	.LBE385:
 1482              	.LBE384:
 1483              	.LBE383:
 1484              	.LBE382:
 1485              	.LBE381:
 1486              	.LBB390:
 1487              	.LBB391:
 1488              	.LBB392:
 1489              	.LBB393:
 1490              	.LBB394:
 1491              	.LBB395:
 1492              	@ 546 "ChibiOS_3.0.2/os/ext/CMSIS/include/core_cmFunc.h" 1
 1493 004c 87F31188 		MSR basepri, r7
 1494              	@ 0 "" 2
 1495              	.LVL111:
 1496              		.thumb
 1497              	.L124:
 1498              	.LBE395:
 1499              	.LBE394:
 1500              	.LBE393:
 1501              	.LBE392:
 1502              	.LBE391:
 1503              	.LBE390:
 1504              	.LBB396:
 1505              	.LBB389:
 1506              	.LBB388:
 1507              	.LBB387:
 1508              	.LBB386:
 1509              	@ 546 "ChibiOS_3.0.2/os/ext/CMSIS/include/core_cmFunc.h" 1
 1510 0050 82F31188 		MSR basepri, r2
 1511              	@ 0 "" 2
 1512              	.LVL112:
 1513              		.thumb
 1514              	.LBE386:
 1515              	.LBE387:
 1516              	.LBE388:
 1517              	.LBE389:
 1518              	.LBE396:
 1519              		.loc 1 834 0
 1520 0054 A369     		ldr	r3, [r4, #24]
 1521 0056 9907     		lsls	r1, r3, #30
 1522 0058 02D4     		bmi	.L121
 1523              		.loc 1 834 0 is_stmt 0 discriminator 1
 1524 005a 2368     		ldr	r3, [r4]
 1525 005c 9B05     		lsls	r3, r3, #22
 1526 005e 09D5     		bpl	.L122
 1527              	.L121:
 1528              	.LBB397:
 1529              	.LBB398:
 1530              	.LBB399:
 1531              		.loc 4 231 0 is_stmt 1
 1532 0060 AB6A     		ldr	r3, [r5, #40]
 1533              	.LVL113:
ARM GAS  /tmp/ccZCkOcz.s 			page 28


 1534              	.LBE399:
 1535              	.LBE398:
 1536              	.LBE397:
 1537              	.LBB400:
 1538              	.LBB401:
 1539              	.LBB402:
 1540              		.loc 4 288 0
 1541 0062 9B1B     		subs	r3, r3, r6
 1542              	.LVL114:
 1543              	.LBE402:
 1544              	.LBE401:
 1545              	.LBE400:
 1546              		.loc 1 839 0
 1547 0064 B3F5FA7F 		cmp	r3, #500
 1548 0068 F0D3     		bcc	.L125
 1549              		.loc 1 851 0
 1550 006a 4FF0FF30 		mov	r0, #-1
 1551              	.LVL115:
 1552 006e BDE8F00F 		pop	{r4, r5, r6, r7, r8, r9, r10, fp}
 1553              	.LVL116:
 1554 0072 7047     		bx	lr
 1555              	.LVL117:
 1556              	.L122:
 1557              		.loc 1 846 0
 1558 0074 6368     		ldr	r3, [r4, #4]
 1559 0076 43F40073 		orr	r3, r3, #512
 1560 007a 6360     		str	r3, [r4, #4]
 1561              		.loc 1 847 0
 1562 007c 2368     		ldr	r3, [r4]
 1563 007e 43F48073 		orr	r3, r3, #256
 1564              	.LBB403:
 1565              	.LBB404:
 1566              		.loc 2 713 0
 1567 0082 5946     		mov	r1, fp
 1568              	.LBE404:
 1569              	.LBE403:
 1570              		.loc 1 847 0
 1571 0084 2360     		str	r3, [r4]
 1572              	.LBB407:
 1573              	.LBB405:
 1574              		.loc 2 713 0
 1575 0086 1C30     		adds	r0, r0, #28
 1576              	.LVL118:
 1577              	.LBE405:
 1578              	.LBE407:
 1579              		.loc 1 851 0
 1580 0088 BDE8F00F 		pop	{r4, r5, r6, r7, r8, r9, r10, fp}
 1581              	.LVL119:
 1582              	.LBB408:
 1583              	.LBB406:
 1584              		.loc 2 713 0
 1585 008c FFF7FEBF 		b	chThdSuspendTimeoutS
 1586              	.LVL120:
 1587              	.L127:
 1588              		.align	2
 1589              	.L126:
 1590 0090 00000000 		.word	ch
ARM GAS  /tmp/ccZCkOcz.s 			page 29


 1591              	.LBE406:
 1592              	.LBE408:
 1593              		.cfi_endproc
 1594              	.LFE269:
 1595              		.size	i2c_lld_master_transmit_timeout, .-i2c_lld_master_transmit_timeout
 1596              		.global	I2CD2
 1597 0094 AFF30080 		.section	.rodata.str1.4,"aMS",%progbits,1
 1597      AFF30080 
 1597      AFF30080 
 1598              		.align	2
 1599              	.LC0:
 1600 0000 444D4120 		.ascii	"DMA failure\000"
 1600      6661696C 
 1600      75726500 
 1601              		.section	.bss.I2CD2,"aw",%nobits
 1602              		.align	2
 1603              		.set	.LANCHOR0,. + 0
 1604              		.type	I2CD2, %object
 1605              		.size	I2CD2, 56
 1606              	I2CD2:
 1607 0000 00000000 		.space	56
 1607      00000000 
 1607      00000000 
 1607      00000000 
 1607      00000000 
 1608              		.text
 1609              	.Letext0:
 1610              		.file 5 "/usr/lib/gcc/arm-none-eabi/4.8/include/stddef.h"
 1611              		.file 6 "/usr/include/newlib/machine/_default_types.h"
 1612              		.file 7 "/usr/include/newlib/stdint.h"
 1613              		.file 8 "ChibiOS_3.0.2/os/rt/ports/ARMCMx/compilers/GCC/chtypes.h"
 1614              		.file 9 "ChibiOS_3.0.2/os/rt/include/chsystypes.h"
 1615              		.file 10 "ChibiOS_3.0.2/os/rt/include/chschd.h"
 1616              		.file 11 "ChibiOS_3.0.2/os/ext/CMSIS/ST/stm32f407xx.h"
 1617              		.file 12 "ChibiOS_3.0.2/os/rt/ports/ARMCMx/chcore.h"
 1618              		.file 13 "ChibiOS_3.0.2/os/rt/ports/ARMCMx/chcore_v7m.h"
 1619              		.file 14 "ChibiOS_3.0.2/os/rt/include/chtm.h"
 1620              		.file 15 "ChibiOS_3.0.2/os/rt/include/chsem.h"
 1621              		.file 16 "ChibiOS_3.0.2/os/rt/include/chmtx.h"
 1622              		.file 17 "ChibiOS_3.0.2/os/hal/ports/STM32/STM32F4xx/stm32_dma.h"
 1623              		.file 18 "ChibiOS_3.0.2/os/hal/include/i2c.h"
 1624              		.file 19 "ChibiOS_3.0.2/os/hal/ports/STM32/LLD/I2Cv1/i2c_lld.h"
 1625              		.file 20 "ChibiOS_3.0.2/os/rt/include/chsys.h"
 1626              		.file 21 "ChibiOS_3.0.2/os/ext/CMSIS/include/core_cm4.h"
 1627              		.file 22 "ChibiOS_3.0.2/os/rt/include/chthreads.h"
 1628              		.file 23 "ChibiOS_3.0.2/os/hal/ports/common/ARMCMx/nvic.h"