ARM GAS  /tmp/ccLhCHRn.s 			page 1


   1              		.syntax unified
   2              		.cpu cortex-m4
   3              		.eabi_attribute 27, 3
   4              		.eabi_attribute 28, 1
   5              		.fpu fpv4-sp-d16
   6              		.eabi_attribute 20, 1
   7              		.eabi_attribute 21, 1
   8              		.eabi_attribute 23, 3
   9              		.eabi_attribute 24, 1
  10              		.eabi_attribute 25, 1
  11              		.eabi_attribute 26, 1
  12              		.eabi_attribute 30, 2
  13              		.eabi_attribute 34, 1
  14              		.eabi_attribute 18, 4
  15              		.thumb
  16              		.file	"icu.c"
  17              		.text
  18              	.Ltext0:
  19              		.cfi_sections	.debug_frame
  20              		.section	.text.icuInit,"ax",%progbits
  21              		.align	2
  22              		.p2align 4,,15
  23              		.global	icuInit
  24              		.thumb
  25              		.thumb_func
  26              		.type	icuInit, %function
  27              	icuInit:
  28              	.LFB256:
  29              		.file 1 "ChibiOS_3.0.2/os/hal/src/icu.c"
  30              		.loc 1 56 0
  31              		.cfi_startproc
  32              		@ args = 0, pretend = 0, frame = 0
  33              		@ frame_needed = 0, uses_anonymous_args = 0
  34              		@ link register save eliminated.
  35              		.loc 1 58 0
  36 0000 FFF7FEBF 		b	icu_lld_init
  37              	.LVL0:
  38              		.cfi_endproc
  39              	.LFE256:
  40              		.size	icuInit, .-icuInit
  41 0004 AFF30080 		.section	.text.icuObjectInit,"ax",%progbits
  41      AFF30080 
  41      AFF30080 
  42              		.align	2
  43              		.p2align 4,,15
  44              		.global	icuObjectInit
  45              		.thumb
  46              		.thumb_func
  47              		.type	icuObjectInit, %function
  48              	icuObjectInit:
  49              	.LFB257:
  50              		.loc 1 68 0
  51              		.cfi_startproc
  52              		@ args = 0, pretend = 0, frame = 0
  53              		@ frame_needed = 0, uses_anonymous_args = 0
  54              		@ link register save eliminated.
  55              	.LVL1:
ARM GAS  /tmp/ccLhCHRn.s 			page 2


  56              		.loc 1 70 0
  57 0000 0122     		movs	r2, #1
  58              		.loc 1 71 0
  59 0002 0023     		movs	r3, #0
  60              		.loc 1 70 0
  61 0004 0270     		strb	r2, [r0]
  62              		.loc 1 71 0
  63 0006 4360     		str	r3, [r0, #4]
  64 0008 7047     		bx	lr
  65              		.cfi_endproc
  66              	.LFE257:
  67              		.size	icuObjectInit, .-icuObjectInit
  68 000a 00BFAFF3 		.section	.text.icuStart,"ax",%progbits
  68      0080
  69              		.align	2
  70              		.p2align 4,,15
  71              		.global	icuStart
  72              		.thumb
  73              		.thumb_func
  74              		.type	icuStart, %function
  75              	icuStart:
  76              	.LFB258:
  77              		.loc 1 82 0
  78              		.cfi_startproc
  79              		@ args = 0, pretend = 0, frame = 0
  80              		@ frame_needed = 0, uses_anonymous_args = 0
  81              	.LVL2:
  82 0000 10B5     		push	{r4, lr}
  83              		.cfi_def_cfa_offset 8
  84              		.cfi_offset 4, -8
  85              		.cfi_offset 14, -4
  86              	.LBB115:
  87              	.LBB116:
  88              	.LBB117:
  89              	.LBB118:
  90              	.LBB119:
  91              		.file 2 "ChibiOS_3.0.2/os/ext/CMSIS/include/core_cmFunc.h"
  92              		.loc 2 546 0
  93 0002 2023     		movs	r3, #32
  94              	.LBE119:
  95              	.LBE118:
  96              	.LBE117:
  97              	.LBE116:
  98              	.LBE115:
  99              		.loc 1 82 0
 100 0004 0446     		mov	r4, r0
 101              	.LBB124:
 102              	.LBB123:
 103              	.LBB122:
 104              	.LBB121:
 105              	.LBB120:
 106              		.loc 2 546 0
 107              	@ 546 "ChibiOS_3.0.2/os/ext/CMSIS/include/core_cmFunc.h" 1
 108 0006 83F31188 		MSR basepri, r3
 109              	@ 0 "" 2
 110              		.thumb
 111              	.LBE120:
ARM GAS  /tmp/ccLhCHRn.s 			page 3


 112              	.LBE121:
 113              	.LBE122:
 114              	.LBE123:
 115              	.LBE124:
 116              		.loc 1 89 0
 117 000a 4160     		str	r1, [r0, #4]
 118              		.loc 1 90 0
 119 000c FFF7FEFF 		bl	icu_lld_start
 120              	.LVL3:
 121              		.loc 1 91 0
 122 0010 0223     		movs	r3, #2
 123 0012 2370     		strb	r3, [r4]
 124              	.LVL4:
 125              	.LBB125:
 126              	.LBB126:
 127              	.LBB127:
 128              	.LBB128:
 129              	.LBB129:
 130              	.LBB130:
 131              		.loc 2 546 0
 132 0014 0023     		movs	r3, #0
 133              	@ 546 "ChibiOS_3.0.2/os/ext/CMSIS/include/core_cmFunc.h" 1
 134 0016 83F31188 		MSR basepri, r3
 135              	@ 0 "" 2
 136              		.thumb
 137 001a 10BD     		pop	{r4, pc}
 138              	.LBE130:
 139              	.LBE129:
 140              	.LBE128:
 141              	.LBE127:
 142              	.LBE126:
 143              	.LBE125:
 144              		.cfi_endproc
 145              	.LFE258:
 146              		.size	icuStart, .-icuStart
 147 001c AFF30080 		.section	.text.icuStop,"ax",%progbits
 148              		.align	2
 149              		.p2align 4,,15
 150              		.global	icuStop
 151              		.thumb
 152              		.thumb_func
 153              		.type	icuStop, %function
 154              	icuStop:
 155              	.LFB259:
 156              		.loc 1 102 0
 157              		.cfi_startproc
 158              		@ args = 0, pretend = 0, frame = 0
 159              		@ frame_needed = 0, uses_anonymous_args = 0
 160              	.LVL5:
 161 0000 10B5     		push	{r4, lr}
 162              		.cfi_def_cfa_offset 8
 163              		.cfi_offset 4, -8
 164              		.cfi_offset 14, -4
 165              	.LBB131:
 166              	.LBB132:
 167              	.LBB133:
 168              	.LBB134:
ARM GAS  /tmp/ccLhCHRn.s 			page 4


 169              	.LBB135:
 170              		.loc 2 546 0
 171 0002 2023     		movs	r3, #32
 172              	.LBE135:
 173              	.LBE134:
 174              	.LBE133:
 175              	.LBE132:
 176              	.LBE131:
 177              		.loc 1 102 0
 178 0004 0446     		mov	r4, r0
 179              	.LBB140:
 180              	.LBB139:
 181              	.LBB138:
 182              	.LBB137:
 183              	.LBB136:
 184              		.loc 2 546 0
 185              	@ 546 "ChibiOS_3.0.2/os/ext/CMSIS/include/core_cmFunc.h" 1
 186 0006 83F31188 		MSR basepri, r3
 187              	@ 0 "" 2
 188              		.thumb
 189              	.LBE136:
 190              	.LBE137:
 191              	.LBE138:
 192              	.LBE139:
 193              	.LBE140:
 194              		.loc 1 109 0
 195 000a FFF7FEFF 		bl	icu_lld_stop
 196              	.LVL6:
 197              		.loc 1 110 0
 198 000e 0123     		movs	r3, #1
 199 0010 2370     		strb	r3, [r4]
 200              	.LVL7:
 201              	.LBB141:
 202              	.LBB142:
 203              	.LBB143:
 204              	.LBB144:
 205              	.LBB145:
 206              	.LBB146:
 207              		.loc 2 546 0
 208 0012 0023     		movs	r3, #0
 209              	@ 546 "ChibiOS_3.0.2/os/ext/CMSIS/include/core_cmFunc.h" 1
 210 0014 83F31188 		MSR basepri, r3
 211              	@ 0 "" 2
 212              		.thumb
 213 0018 10BD     		pop	{r4, pc}
 214              	.LBE146:
 215              	.LBE145:
 216              	.LBE144:
 217              	.LBE143:
 218              	.LBE142:
 219              	.LBE141:
 220              		.cfi_endproc
 221              	.LFE259:
 222              		.size	icuStop, .-icuStop
 223 001a 00BFAFF3 		.section	.text.icuStartCapture,"ax",%progbits
 223      0080
 224              		.align	2
ARM GAS  /tmp/ccLhCHRn.s 			page 5


 225              		.p2align 4,,15
 226              		.global	icuStartCapture
 227              		.thumb
 228              		.thumb_func
 229              		.type	icuStartCapture, %function
 230              	icuStartCapture:
 231              	.LFB260:
 232              		.loc 1 121 0
 233              		.cfi_startproc
 234              		@ args = 0, pretend = 0, frame = 0
 235              		@ frame_needed = 0, uses_anonymous_args = 0
 236              	.LVL8:
 237 0000 10B5     		push	{r4, lr}
 238              		.cfi_def_cfa_offset 8
 239              		.cfi_offset 4, -8
 240              		.cfi_offset 14, -4
 241              	.LBB147:
 242              	.LBB148:
 243              	.LBB149:
 244              	.LBB150:
 245              	.LBB151:
 246              		.loc 2 546 0
 247 0002 2023     		movs	r3, #32
 248              	.LBE151:
 249              	.LBE150:
 250              	.LBE149:
 251              	.LBE148:
 252              	.LBE147:
 253              		.loc 1 121 0
 254 0004 0446     		mov	r4, r0
 255              	.LBB156:
 256              	.LBB155:
 257              	.LBB154:
 258              	.LBB153:
 259              	.LBB152:
 260              		.loc 2 546 0
 261              	@ 546 "ChibiOS_3.0.2/os/ext/CMSIS/include/core_cmFunc.h" 1
 262 0006 83F31188 		MSR basepri, r3
 263              	@ 0 "" 2
 264              		.thumb
 265              	.LBE152:
 266              	.LBE153:
 267              	.LBE154:
 268              	.LBE155:
 269              	.LBE156:
 270              		.loc 1 127 0
 271 000a FFF7FEFF 		bl	icu_lld_start_capture
 272              	.LVL9:
 273 000e 0323     		movs	r3, #3
 274 0010 2370     		strb	r3, [r4]
 275              	.LVL10:
 276              	.LBB157:
 277              	.LBB158:
 278              	.LBB159:
 279              	.LBB160:
 280              	.LBB161:
 281              	.LBB162:
ARM GAS  /tmp/ccLhCHRn.s 			page 6


 282              		.loc 2 546 0
 283 0012 0023     		movs	r3, #0
 284              	@ 546 "ChibiOS_3.0.2/os/ext/CMSIS/include/core_cmFunc.h" 1
 285 0014 83F31188 		MSR basepri, r3
 286              	@ 0 "" 2
 287              		.thumb
 288 0018 10BD     		pop	{r4, pc}
 289              	.LBE162:
 290              	.LBE161:
 291              	.LBE160:
 292              	.LBE159:
 293              	.LBE158:
 294              	.LBE157:
 295              		.cfi_endproc
 296              	.LFE260:
 297              		.size	icuStartCapture, .-icuStartCapture
 298 001a 00BFAFF3 		.section	.text.icuWaitCapture,"ax",%progbits
 298      0080
 299              		.align	2
 300              		.p2align 4,,15
 301              		.global	icuWaitCapture
 302              		.thumb
 303              		.thumb_func
 304              		.type	icuWaitCapture, %function
 305              	icuWaitCapture:
 306              	.LFB261:
 307              		.loc 1 147 0
 308              		.cfi_startproc
 309              		@ args = 0, pretend = 0, frame = 0
 310              		@ frame_needed = 0, uses_anonymous_args = 0
 311              	.LVL11:
 312 0000 10B5     		push	{r4, lr}
 313              		.cfi_def_cfa_offset 8
 314              		.cfi_offset 4, -8
 315              		.cfi_offset 14, -4
 316              	.LBB163:
 317              	.LBB164:
 318              	.LBB165:
 319              	.LBB166:
 320              	.LBB167:
 321              		.loc 2 546 0
 322 0002 2023     		movs	r3, #32
 323              	.LBE167:
 324              	.LBE166:
 325              	.LBE165:
 326              	.LBE164:
 327              	.LBE163:
 328              		.loc 1 147 0
 329 0004 0446     		mov	r4, r0
 330              	.LBB172:
 331              	.LBB171:
 332              	.LBB170:
 333              	.LBB169:
 334              	.LBB168:
 335              		.loc 2 546 0
 336              	@ 546 "ChibiOS_3.0.2/os/ext/CMSIS/include/core_cmFunc.h" 1
 337 0006 83F31188 		MSR basepri, r3
ARM GAS  /tmp/ccLhCHRn.s 			page 7


 338              	@ 0 "" 2
 339              		.thumb
 340              	.LBE168:
 341              	.LBE169:
 342              	.LBE170:
 343              	.LBE171:
 344              	.LBE172:
 345              		.loc 1 157 0
 346 000a FFF7FEFF 		bl	icu_lld_wait_capture
 347              	.LVL12:
 348              		.loc 1 158 0
 349 000e 0028     		cmp	r0, #0
 350 0010 0CBF     		ite	eq
 351 0012 0423     		moveq	r3, #4
 352 0014 0323     		movne	r3, #3
 353 0016 2370     		strb	r3, [r4]
 354              	.LVL13:
 355              	.LBB173:
 356              	.LBB174:
 357              	.LBB175:
 358              	.LBB176:
 359              	.LBB177:
 360              	.LBB178:
 361              		.loc 2 546 0
 362 0018 0023     		movs	r3, #0
 363              	@ 546 "ChibiOS_3.0.2/os/ext/CMSIS/include/core_cmFunc.h" 1
 364 001a 83F31188 		MSR basepri, r3
 365              	@ 0 "" 2
 366              		.thumb
 367              	.LBE178:
 368              	.LBE177:
 369              	.LBE176:
 370              	.LBE175:
 371              	.LBE174:
 372              	.LBE173:
 373              		.loc 1 162 0
 374 001e 10BD     		pop	{r4, pc}
 375              		.cfi_endproc
 376              	.LFE261:
 377              		.size	icuWaitCapture, .-icuWaitCapture
 378              		.section	.text.icuStopCapture,"ax",%progbits
 379              		.align	2
 380              		.p2align 4,,15
 381              		.global	icuStopCapture
 382              		.thumb
 383              		.thumb_func
 384              		.type	icuStopCapture, %function
 385              	icuStopCapture:
 386              	.LFB262:
 387              		.loc 1 171 0
 388              		.cfi_startproc
 389              		@ args = 0, pretend = 0, frame = 0
 390              		@ frame_needed = 0, uses_anonymous_args = 0
 391              	.LVL14:
 392 0000 10B5     		push	{r4, lr}
 393              		.cfi_def_cfa_offset 8
 394              		.cfi_offset 4, -8
ARM GAS  /tmp/ccLhCHRn.s 			page 8


 395              		.cfi_offset 14, -4
 396              	.LBB179:
 397              	.LBB180:
 398              	.LBB181:
 399              	.LBB182:
 400              	.LBB183:
 401              		.loc 2 546 0
 402 0002 2023     		movs	r3, #32
 403              	.LBE183:
 404              	.LBE182:
 405              	.LBE181:
 406              	.LBE180:
 407              	.LBE179:
 408              		.loc 1 171 0
 409 0004 0446     		mov	r4, r0
 410              	.LBB188:
 411              	.LBB187:
 412              	.LBB186:
 413              	.LBB185:
 414              	.LBB184:
 415              		.loc 2 546 0
 416              	@ 546 "ChibiOS_3.0.2/os/ext/CMSIS/include/core_cmFunc.h" 1
 417 0006 83F31188 		MSR basepri, r3
 418              	@ 0 "" 2
 419              		.thumb
 420              	.LBE184:
 421              	.LBE185:
 422              	.LBE186:
 423              	.LBE187:
 424              	.LBE188:
 425              		.loc 1 179 0
 426 000a FFF7FEFF 		bl	icu_lld_stop_capture
 427              	.LVL15:
 428 000e 0223     		movs	r3, #2
 429 0010 2370     		strb	r3, [r4]
 430              	.LVL16:
 431              	.LBB189:
 432              	.LBB190:
 433              	.LBB191:
 434              	.LBB192:
 435              	.LBB193:
 436              	.LBB194:
 437              		.loc 2 546 0
 438 0012 0023     		movs	r3, #0
 439              	@ 546 "ChibiOS_3.0.2/os/ext/CMSIS/include/core_cmFunc.h" 1
 440 0014 83F31188 		MSR basepri, r3
 441              	@ 0 "" 2
 442              		.thumb
 443 0018 10BD     		pop	{r4, pc}
 444              	.LBE194:
 445              	.LBE193:
 446              	.LBE192:
 447              	.LBE191:
 448              	.LBE190:
 449              	.LBE189:
 450              		.cfi_endproc
 451              	.LFE262:
ARM GAS  /tmp/ccLhCHRn.s 			page 9


 452              		.size	icuStopCapture, .-icuStopCapture
 453 001a 00BFAFF3 		.section	.text.icuEnableNotifications,"ax",%progbits
 453      0080
 454              		.align	2
 455              		.p2align 4,,15
 456              		.global	icuEnableNotifications
 457              		.thumb
 458              		.thumb_func
 459              		.type	icuEnableNotifications, %function
 460              	icuEnableNotifications:
 461              	.LFB263:
 462              		.loc 1 192 0
 463              		.cfi_startproc
 464              		@ args = 0, pretend = 0, frame = 0
 465              		@ frame_needed = 0, uses_anonymous_args = 0
 466              	.LVL17:
 467 0000 08B5     		push	{r3, lr}
 468              		.cfi_def_cfa_offset 8
 469              		.cfi_offset 3, -8
 470              		.cfi_offset 14, -4
 471              	.LBB195:
 472              	.LBB196:
 473              	.LBB197:
 474              	.LBB198:
 475              	.LBB199:
 476              		.loc 2 546 0
 477 0002 2023     		movs	r3, #32
 478              	@ 546 "ChibiOS_3.0.2/os/ext/CMSIS/include/core_cmFunc.h" 1
 479 0004 83F31188 		MSR basepri, r3
 480              	@ 0 "" 2
 481              		.thumb
 482              	.LBE199:
 483              	.LBE198:
 484              	.LBE197:
 485              	.LBE196:
 486              	.LBE195:
 487              		.loc 1 199 0
 488 0008 FFF7FEFF 		bl	icu_lld_enable_notifications
 489              	.LVL18:
 490              	.LBB200:
 491              	.LBB201:
 492              	.LBB202:
 493              	.LBB203:
 494              	.LBB204:
 495              	.LBB205:
 496              		.loc 2 546 0
 497 000c 0023     		movs	r3, #0
 498              	@ 546 "ChibiOS_3.0.2/os/ext/CMSIS/include/core_cmFunc.h" 1
 499 000e 83F31188 		MSR basepri, r3
 500              	@ 0 "" 2
 501              		.thumb
 502 0012 08BD     		pop	{r3, pc}
 503              	.LBE205:
 504              	.LBE204:
 505              	.LBE203:
 506              	.LBE202:
 507              	.LBE201:
ARM GAS  /tmp/ccLhCHRn.s 			page 10


 508              	.LBE200:
 509              		.cfi_endproc
 510              	.LFE263:
 511              		.size	icuEnableNotifications, .-icuEnableNotifications
 512 0014 AFF30080 		.section	.text.icuDisableNotifications,"ax",%progbits
 512      AFF30080 
 512      AFF30080 
 513              		.align	2
 514              		.p2align 4,,15
 515              		.global	icuDisableNotifications
 516              		.thumb
 517              		.thumb_func
 518              		.type	icuDisableNotifications, %function
 519              	icuDisableNotifications:
 520              	.LFB264:
 521              		.loc 1 212 0
 522              		.cfi_startproc
 523              		@ args = 0, pretend = 0, frame = 0
 524              		@ frame_needed = 0, uses_anonymous_args = 0
 525              	.LVL19:
 526 0000 08B5     		push	{r3, lr}
 527              		.cfi_def_cfa_offset 8
 528              		.cfi_offset 3, -8
 529              		.cfi_offset 14, -4
 530              	.LBB206:
 531              	.LBB207:
 532              	.LBB208:
 533              	.LBB209:
 534              	.LBB210:
 535              		.loc 2 546 0
 536 0002 2023     		movs	r3, #32
 537              	@ 546 "ChibiOS_3.0.2/os/ext/CMSIS/include/core_cmFunc.h" 1
 538 0004 83F31188 		MSR basepri, r3
 539              	@ 0 "" 2
 540              		.thumb
 541              	.LBE210:
 542              	.LBE209:
 543              	.LBE208:
 544              	.LBE207:
 545              	.LBE206:
 546              		.loc 1 219 0
 547 0008 FFF7FEFF 		bl	icu_lld_disable_notifications
 548              	.LVL20:
 549              	.LBB211:
 550              	.LBB212:
 551              	.LBB213:
 552              	.LBB214:
 553              	.LBB215:
 554              	.LBB216:
 555              		.loc 2 546 0
 556 000c 0023     		movs	r3, #0
 557              	@ 546 "ChibiOS_3.0.2/os/ext/CMSIS/include/core_cmFunc.h" 1
 558 000e 83F31188 		MSR basepri, r3
 559              	@ 0 "" 2
 560              		.thumb
 561 0012 08BD     		pop	{r3, pc}
 562              	.LBE216:
ARM GAS  /tmp/ccLhCHRn.s 			page 11


 563              	.LBE215:
 564              	.LBE214:
 565              	.LBE213:
 566              	.LBE212:
 567              	.LBE211:
 568              		.cfi_endproc
 569              	.LFE264:
 570              		.size	icuDisableNotifications, .-icuDisableNotifications
 571 0014 AFF30080 		.text
 571      AFF30080 
 571      AFF30080 
 572              	.Letext0:
 573              		.file 3 "/usr/include/newlib/machine/_default_types.h"
 574              		.file 4 "/usr/include/newlib/stdint.h"
 575              		.file 5 "ChibiOS_3.0.2/os/rt/ports/ARMCMx/compilers/GCC/chtypes.h"
 576              		.file 6 "ChibiOS_3.0.2/os/rt/include/chsystypes.h"
 577              		.file 7 "ChibiOS_3.0.2/os/rt/include/chschd.h"
 578              		.file 8 "ChibiOS_3.0.2/os/rt/ports/ARMCMx/chcore.h"
 579              		.file 9 "ChibiOS_3.0.2/os/rt/ports/ARMCMx/chcore_v7m.h"
 580              		.file 10 "ChibiOS_3.0.2/os/rt/include/chtm.h"
 581              		.file 11 "ChibiOS_3.0.2/os/rt/include/chsem.h"
 582              		.file 12 "ChibiOS_3.0.2/os/rt/include/chmtx.h"
 583              		.file 13 "ChibiOS_3.0.2/os/hal/include/icu.h"
 584              		.file 14 "ChibiOS_3.0.2/os/hal/ports/STM32/LLD/TIMv1/icu_lld.h"
 585              		.file 15 "ChibiOS_3.0.2/os/hal/ports/STM32/LLD/TIMv1/stm32_tim.h"
 586              		.file 16 "ChibiOS_3.0.2/os/rt/include/chsys.h"
 587              		.file 17 "ChibiOS_3.0.2/os/hal/osal/rt/osal.h"
 588              		.file 18 "ChibiOS_3.0.2/os/ext/CMSIS/include/core_cm4.h"