ARM GAS  /tmp/ccq5w5Mb.s 			page 1


   1              		.syntax unified
   2              		.cpu cortex-m4
   3              		.eabi_attribute 27, 3
   4              		.eabi_attribute 28, 1
   5              		.fpu fpv4-sp-d16
   6              		.eabi_attribute 20, 1
   7              		.eabi_attribute 21, 1
   8              		.eabi_attribute 23, 3
   9              		.eabi_attribute 24, 1
  10              		.eabi_attribute 25, 1
  11              		.eabi_attribute 26, 1
  12              		.eabi_attribute 30, 2
  13              		.eabi_attribute 34, 1
  14              		.eabi_attribute 18, 4
  15              		.thumb
  16              		.file	"icu_lld.c"
  17              		.text
  18              	.Ltext0:
  19              		.cfi_sections	.debug_frame
  20              		.section	.text.icu_lld_wait_edge.isra.0,"ax",%progbits
  21              		.align	2
  22              		.p2align 4,,15
  23              		.thumb
  24              		.thumb_func
  25              		.type	icu_lld_wait_edge.isra.0, %function
  26              	icu_lld_wait_edge.isra.0:
  27              	.LFB267:
  28              		.file 1 "ChibiOS_3.0.2/os/hal/ports/STM32/LLD/TIMv1/icu_lld.c"
  29              		.loc 1 105 0
  30              		.cfi_startproc
  31              		@ args = 0, pretend = 0, frame = 0
  32              		@ frame_needed = 0, uses_anonymous_args = 0
  33              		@ link register save eliminated.
  34              	.LVL0:
  35              	.LBB33:
  36              	.LBB34:
  37              	.LBB35:
  38              	.LBB36:
  39              	.LBB37:
  40              		.file 2 "ChibiOS_3.0.2/os/ext/CMSIS/include/core_cmFunc.h"
  41              		.loc 2 546 0
  42 0000 0023     		movs	r3, #0
  43              	@ 546 "ChibiOS_3.0.2/os/ext/CMSIS/include/core_cmFunc.h" 1
  44 0002 83F31188 		MSR basepri, r3
  45              	@ 0 "" 2
  46              		.thumb
  47              	.LBE37:
  48              	.LBE36:
  49              	.LBE35:
  50              	.LBE34:
  51              	.LBE33:
  52              		.loc 1 114 0
  53 0006 0368     		ldr	r3, [r0]
  54 0008 1B7D     		ldrb	r3, [r3, #20]	@ zero_extendqisi2
  55 000a 73B9     		cbnz	r3, .L2
  56 000c 0B68     		ldr	r3, [r1]
  57              	.L4:
ARM GAS  /tmp/ccq5w5Mb.s 			page 2


  58              		.loc 1 116 0
  59 000e 1869     		ldr	r0, [r3, #16]
  60              	.LVL1:
  61 0010 8207     		lsls	r2, r0, #30
  62 0012 FCD0     		beq	.L4
  63              	.L3:
  64              	.LVL2:
  65              	.LBB38:
  66              	.LBB39:
  67              	.LBB40:
  68              	.LBB41:
  69              		.loc 2 546 0
  70 0014 2023     		movs	r3, #32
  71              	@ 546 "ChibiOS_3.0.2/os/ext/CMSIS/include/core_cmFunc.h" 1
  72 0016 83F31188 		MSR basepri, r3
  73              	@ 0 "" 2
  74              		.thumb
  75              	.LBE41:
  76              	.LBE40:
  77              	.LBE39:
  78              	.LBE38:
  79              		.loc 1 134 0
  80 001a 0B68     		ldr	r3, [r1]
  81 001c 1A69     		ldr	r2, [r3, #16]
  82 001e 22F00702 		bic	r2, r2, #7
  83              		.loc 1 139 0
  84 0022 00F00100 		and	r0, r0, #1
  85              	.LVL3:
  86              		.loc 1 134 0
  87 0026 1A61     		str	r2, [r3, #16]
  88              		.loc 1 139 0
  89 0028 7047     		bx	lr
  90              	.LVL4:
  91              	.L2:
  92 002a 0B68     		ldr	r3, [r1]
  93              	.L5:
  94              		.loc 1 122 0
  95 002c 1869     		ldr	r0, [r3, #16]
  96              	.LVL5:
  97 002e 10F0050F 		tst	r0, #5
  98 0032 FBD0     		beq	.L5
  99 0034 EEE7     		b	.L3
 100              		.cfi_endproc
 101              	.LFE267:
 102              		.size	icu_lld_wait_edge.isra.0, .-icu_lld_wait_edge.isra.0
 103 0036 00BFAFF3 		.section	.text.VectorB4,"ax",%progbits
 103      0080AFF3 
 103      0080
 104              		.align	2
 105              		.p2align 4,,15
 106              		.global	VectorB4
 107              		.thumb
 108              		.thumb_func
 109              		.type	VectorB4, %function
 110              	VectorB4:
 111              	.LFB258:
 112              		.loc 1 248 0
ARM GAS  /tmp/ccq5w5Mb.s 			page 3


 113              		.cfi_startproc
 114              		@ args = 0, pretend = 0, frame = 0
 115              		@ frame_needed = 0, uses_anonymous_args = 0
 116              	.LVL6:
 117 0000 38B5     		push	{r3, r4, r5, lr}
 118              		.cfi_def_cfa_offset 16
 119              		.cfi_offset 3, -16
 120              		.cfi_offset 4, -12
 121              		.cfi_offset 5, -8
 122              		.cfi_offset 14, -4
 123              	.LBB44:
 124              	.LBB45:
 125              		.loc 1 149 0
 126 0002 1E4C     		ldr	r4, .L49
 127 0004 E368     		ldr	r3, [r4, #12]
 128              		.loc 1 152 0
 129 0006 6268     		ldr	r2, [r4, #4]
 130              		.loc 1 149 0
 131 0008 1869     		ldr	r0, [r3, #16]
 132              	.LVL7:
 133              		.loc 1 150 0
 134 000a DD68     		ldr	r5, [r3, #12]
 135              		.loc 1 152 0
 136 000c 117D     		ldrb	r1, [r2, #20]	@ zero_extendqisi2
 137              		.loc 1 150 0
 138 000e 0540     		ands	r5, r5, r0
 139              	.LVL8:
 140 0010 E8B2     		uxtb	r0, r5
 141              		.loc 1 151 0
 142 0012 C043     		mvns	r0, r0
 143 0014 1861     		str	r0, [r3, #16]
 144              		.loc 1 152 0
 145 0016 91B9     		cbnz	r1, .L8
 146              		.loc 1 153 0
 147 0018 6B07     		lsls	r3, r5, #29
 148 001a 02D5     		bpl	.L9
 149              		.loc 1 154 0
 150 001c 2378     		ldrb	r3, [r4]	@ zero_extendqisi2
 151 001e 042B     		cmp	r3, #4
 152 0020 25D0     		beq	.L47
 153              	.L9:
 154              		.loc 1 155 0
 155 0022 A807     		lsls	r0, r5, #30
 156 0024 16D4     		bmi	.L46
 157              	.L11:
 158              		.loc 1 164 0
 159 0026 EB07     		lsls	r3, r5, #31
 160 0028 05D5     		bpl	.L17
 161              		.loc 1 165 0
 162 002a 6368     		ldr	r3, [r4, #4]
 163 002c 1348     		ldr	r0, .L49
 164 002e 1B69     		ldr	r3, [r3, #16]
 165 0030 9847     		blx	r3
 166              	.LVL9:
 167 0032 0323     		movs	r3, #3
 168 0034 2370     		strb	r3, [r4]
 169              	.L17:
ARM GAS  /tmp/ccq5w5Mb.s 			page 4


 170              	.LBE45:
 171              	.LBE44:
 172              		.loc 1 255 0
 173 0036 BDE83840 		pop	{r3, r4, r5, lr}
 174              	.LVL10:
 175              		.loc 1 254 0
 176 003a FFF7FEBF 		b	_port_irq_epilogue
 177              	.LVL11:
 178              	.L8:
 179              	.LBB47:
 180              	.LBB46:
 181              		.loc 1 159 0
 182 003e A907     		lsls	r1, r5, #30
 183 0040 06D5     		bpl	.L15
 184              		.loc 1 160 0
 185 0042 2378     		ldrb	r3, [r4]	@ zero_extendqisi2
 186 0044 042B     		cmp	r3, #4
 187 0046 03D1     		bne	.L15
 188 0048 9368     		ldr	r3, [r2, #8]
 189 004a 0BB1     		cbz	r3, .L15
 190 004c 2046     		mov	r0, r4
 191 004e 9847     		blx	r3
 192              	.LVL12:
 193              	.L15:
 194              		.loc 1 161 0
 195 0050 6A07     		lsls	r2, r5, #29
 196 0052 E8D5     		bpl	.L11
 197              	.L46:
 198              		.loc 1 156 0
 199 0054 2378     		ldrb	r3, [r4]	@ zero_extendqisi2
 200 0056 0948     		ldr	r0, .L49
 201 0058 042B     		cmp	r3, #4
 202 005a 02D0     		beq	.L48
 203              	.L13:
 204 005c 0423     		movs	r3, #4
 205 005e 2370     		strb	r3, [r4]
 206 0060 E1E7     		b	.L11
 207              	.L48:
 208 0062 4368     		ldr	r3, [r0, #4]
 209 0064 DB68     		ldr	r3, [r3, #12]
 210 0066 002B     		cmp	r3, #0
 211 0068 F8D0     		beq	.L13
 212 006a 9847     		blx	r3
 213              	.LVL13:
 214 006c F6E7     		b	.L13
 215              	.L47:
 216              		.loc 1 154 0
 217 006e 9368     		ldr	r3, [r2, #8]
 218 0070 002B     		cmp	r3, #0
 219 0072 D6D0     		beq	.L9
 220 0074 2046     		mov	r0, r4
 221 0076 9847     		blx	r3
 222              	.LVL14:
 223 0078 D3E7     		b	.L9
 224              	.L50:
 225 007a 00BF     		.align	2
 226              	.L49:
ARM GAS  /tmp/ccq5w5Mb.s 			page 5


 227 007c 00000000 		.word	.LANCHOR0
 228              	.LBE46:
 229              	.LBE47:
 230              		.cfi_endproc
 231              	.LFE258:
 232              		.size	VectorB4, .-VectorB4
 233              		.section	.text.icu_lld_init,"ax",%progbits
 234              		.align	2
 235              		.p2align 4,,15
 236              		.global	icu_lld_init
 237              		.thumb
 238              		.thumb_func
 239              		.type	icu_lld_init, %function
 240              	icu_lld_init:
 241              	.LFB259:
 242              		.loc 1 375 0
 243              		.cfi_startproc
 244              		@ args = 0, pretend = 0, frame = 0
 245              		@ frame_needed = 0, uses_anonymous_args = 0
 246 0000 10B5     		push	{r4, lr}
 247              		.cfi_def_cfa_offset 8
 248              		.cfi_offset 4, -8
 249              		.cfi_offset 14, -4
 250              		.loc 1 391 0
 251 0002 034C     		ldr	r4, .L52
 252 0004 2046     		mov	r0, r4
 253 0006 FFF7FEFF 		bl	icuObjectInit
 254              	.LVL15:
 255              		.loc 1 392 0
 256 000a 024B     		ldr	r3, .L52+4
 257 000c E360     		str	r3, [r4, #12]
 258 000e 10BD     		pop	{r4, pc}
 259              	.L53:
 260              		.align	2
 261              	.L52:
 262 0010 00000000 		.word	.LANCHOR0
 263 0014 00040040 		.word	1073742848
 264              		.cfi_endproc
 265              	.LFE259:
 266              		.size	icu_lld_init, .-icu_lld_init
 267 0018 AFF30080 		.section	.text.icu_lld_start,"ax",%progbits
 267      AFF30080 
 268              		.align	2
 269              		.p2align 4,,15
 270              		.global	icu_lld_start
 271              		.thumb
 272              		.thumb_func
 273              		.type	icu_lld_start, %function
 274              	icu_lld_start:
 275              	.LFB260:
 276              		.loc 1 427 0
 277              		.cfi_startproc
 278              		@ args = 0, pretend = 0, frame = 0
 279              		@ frame_needed = 0, uses_anonymous_args = 0
 280              	.LVL16:
 281 0000 F8B5     		push	{r3, r4, r5, r6, r7, lr}
 282              		.cfi_def_cfa_offset 24
ARM GAS  /tmp/ccq5w5Mb.s 			page 6


 283              		.cfi_offset 3, -24
 284              		.cfi_offset 4, -20
 285              		.cfi_offset 5, -16
 286              		.cfi_offset 6, -12
 287              		.cfi_offset 7, -8
 288              		.cfi_offset 14, -4
 289              		.loc 1 434 0
 290 0002 0378     		ldrb	r3, [r0]	@ zero_extendqisi2
 291 0004 012B     		cmp	r3, #1
 292              		.loc 1 427 0
 293 0006 0446     		mov	r4, r0
 294              		.loc 1 434 0
 295 0008 3AD0     		beq	.L65
 296              		.loc 1 505 0
 297 000a C368     		ldr	r3, [r0, #12]
 298 000c 0022     		movs	r2, #0
 299 000e 1A60     		str	r2, [r3]
 300              		.loc 1 506 0
 301 0010 5A63     		str	r2, [r3, #52]
 302              		.loc 1 507 0
 303 0012 9A63     		str	r2, [r3, #56]
 304              		.loc 1 508 0
 305 0014 5A62     		str	r2, [r3, #36]
 306              	.LVL17:
 307              	.L57:
 308              		.loc 1 513 0
 309 0016 6268     		ldr	r2, [r4, #4]
 310              		.loc 1 515 0
 311 0018 A568     		ldr	r5, [r4, #8]
 312 001a 5068     		ldr	r0, [r2, #4]
 313              		.loc 1 513 0
 314 001c 9169     		ldr	r1, [r2, #24]
 315              		.loc 1 522 0
 316 001e 167D     		ldrb	r6, [r2, #20]	@ zero_extendqisi2
 317              		.loc 1 535 0
 318 0020 1278     		ldrb	r2, [r2]	@ zero_extendqisi2
 319              		.loc 1 515 0
 320 0022 B5FBF0F0 		udiv	r0, r5, r0
 321 0026 0138     		subs	r0, r0, #1
 322              	.LVL18:
 323              		.loc 1 513 0
 324 0028 21F0FF01 		bic	r1, r1, #255
 325              		.loc 1 512 0
 326 002c 0025     		movs	r5, #0
 327              		.loc 1 520 0
 328 002e 4FF6FF77 		movw	r7, #65535
 329              		.loc 1 512 0
 330 0032 1D61     		str	r5, [r3, #16]
 331              		.loc 1 513 0
 332 0034 D960     		str	r1, [r3, #12]
 333              		.loc 1 519 0
 334 0036 9862     		str	r0, [r3, #40]
 335              		.loc 1 520 0
 336 0038 DF62     		str	r7, [r3, #44]
 337              		.loc 1 522 0
 338 003a 6EB9     		cbnz	r6, .L58
 339              		.loc 1 526 0
ARM GAS  /tmp/ccq5w5Mb.s 			page 7


 340 003c 40F20120 		movw	r0, #513
 341              	.LVL19:
 342              		.loc 1 530 0
 343 0040 5421     		movs	r1, #84
 344              		.loc 1 526 0
 345 0042 9861     		str	r0, [r3, #24]
 346              		.loc 1 530 0
 347 0044 9960     		str	r1, [r3, #8]
 348              		.loc 1 535 0
 349 0046 C2B1     		cbz	r2, .L66
 350              		.loc 1 539 0
 351 0048 1322     		movs	r2, #19
 352 004a 1A62     		str	r2, [r3, #32]
 353              	.LVL20:
 354              	.L60:
 355              		.loc 1 544 0 discriminator 1
 356 004c 03F13802 		add	r2, r3, #56
 357              		.loc 1 545 0 discriminator 1
 358 0050 3433     		adds	r3, r3, #52
 359              		.loc 1 544 0 discriminator 1
 360 0052 2261     		str	r2, [r4, #16]
 361              		.loc 1 545 0 discriminator 1
 362 0054 6361     		str	r3, [r4, #20]
 363 0056 F8BD     		pop	{r3, r4, r5, r6, r7, pc}
 364              	.LVL21:
 365              	.L58:
 366              		.loc 1 551 0
 367 0058 4FF48170 		mov	r0, #258
 368              	.LVL22:
 369              		.loc 1 555 0
 370 005c 6421     		movs	r1, #100
 371              		.loc 1 551 0
 372 005e 9861     		str	r0, [r3, #24]
 373              		.loc 1 555 0
 374 0060 9960     		str	r1, [r3, #8]
 375              		.loc 1 560 0
 376 0062 3AB1     		cbz	r2, .L67
 377              		.loc 1 564 0
 378 0064 3122     		movs	r2, #49
 379 0066 1A62     		str	r2, [r3, #32]
 380              	.LVL23:
 381              	.L63:
 382              		.loc 1 569 0
 383 0068 03F13402 		add	r2, r3, #52
 384              		.loc 1 570 0
 385 006c 3833     		adds	r3, r3, #56
 386              		.loc 1 569 0
 387 006e 2261     		str	r2, [r4, #16]
 388              		.loc 1 570 0
 389 0070 6361     		str	r3, [r4, #20]
 390 0072 F8BD     		pop	{r3, r4, r5, r6, r7, pc}
 391              	.LVL24:
 392              	.L67:
 393              		.loc 1 561 0
 394 0074 1322     		movs	r2, #19
 395 0076 1A62     		str	r2, [r3, #32]
 396              	.LVL25:
ARM GAS  /tmp/ccq5w5Mb.s 			page 8


 397 0078 F6E7     		b	.L63
 398              	.LVL26:
 399              	.L66:
 400              		.loc 1 536 0
 401 007a 3122     		movs	r2, #49
 402 007c 1A62     		str	r2, [r3, #32]
 403              	.LVL27:
 404 007e E5E7     		b	.L60
 405              	.LVL28:
 406              	.L65:
 407              		.loc 1 458 0
 408 0080 0B4B     		ldr	r3, .L68
 409 0082 9842     		cmp	r0, r3
 410 0084 01D0     		beq	.L56
 411              	.LVL29:
 412              	.L64:
 413 0086 E368     		ldr	r3, [r4, #12]
 414 0088 C5E7     		b	.L57
 415              	.LVL30:
 416              	.L56:
 417              		.loc 1 459 0
 418 008a 0A4B     		ldr	r3, .L68+4
 419 008c 1A6C     		ldr	r2, [r3, #64]
 420 008e 42F00202 		orr	r2, r2, #2
 421 0092 1A64     		str	r2, [r3, #64]
 422              		.loc 1 460 0
 423 0094 196A     		ldr	r1, [r3, #32]
 424 0096 0022     		movs	r2, #0
 425 0098 41F00201 		orr	r1, r1, #2
 426 009c 1962     		str	r1, [r3, #32]
 427              		.loc 1 461 0
 428 009e 1D20     		movs	r0, #29
 429              	.LVL31:
 430              		.loc 1 460 0
 431 00a0 1A62     		str	r2, [r3, #32]
 432              		.loc 1 461 0
 433 00a2 0721     		movs	r1, #7
 434 00a4 FFF7FEFF 		bl	nvicEnableVector
 435              	.LVL32:
 436              		.loc 1 462 0
 437 00a8 034B     		ldr	r3, .L68+8
 438 00aa A360     		str	r3, [r4, #8]
 439 00ac EBE7     		b	.L64
 440              	.L69:
 441 00ae 00BF     		.align	2
 442              	.L68:
 443 00b0 00000000 		.word	.LANCHOR0
 444 00b4 00380240 		.word	1073887232
 445 00b8 00BD0105 		.word	84000000
 446              		.cfi_endproc
 447              	.LFE260:
 448              		.size	icu_lld_start, .-icu_lld_start
 449 00bc AFF30080 		.section	.text.icu_lld_stop,"ax",%progbits
 450              		.align	2
 451              		.p2align 4,,15
 452              		.global	icu_lld_stop
 453              		.thumb
ARM GAS  /tmp/ccq5w5Mb.s 			page 9


 454              		.thumb_func
 455              		.type	icu_lld_stop, %function
 456              	icu_lld_stop:
 457              	.LFB261:
 458              		.loc 1 581 0
 459              		.cfi_startproc
 460              		@ args = 0, pretend = 0, frame = 0
 461              		@ frame_needed = 0, uses_anonymous_args = 0
 462              	.LVL33:
 463 0000 08B5     		push	{r3, lr}
 464              		.cfi_def_cfa_offset 8
 465              		.cfi_offset 3, -8
 466              		.cfi_offset 14, -4
 467              		.loc 1 583 0
 468 0002 0378     		ldrb	r3, [r0]	@ zero_extendqisi2
 469 0004 022B     		cmp	r3, #2
 470 0006 00D0     		beq	.L74
 471              	.LVL34:
 472              	.L70:
 473 0008 08BD     		pop	{r3, pc}
 474              	.LVL35:
 475              	.L74:
 476              		.loc 1 603 0
 477 000a 0849     		ldr	r1, .L75
 478              		.loc 1 585 0
 479 000c C368     		ldr	r3, [r0, #12]
 480 000e 0022     		movs	r2, #0
 481              		.loc 1 603 0
 482 0010 8842     		cmp	r0, r1
 483              		.loc 1 585 0
 484 0012 1A60     		str	r2, [r3]
 485              		.loc 1 586 0
 486 0014 DA60     		str	r2, [r3, #12]
 487              		.loc 1 587 0
 488 0016 1A61     		str	r2, [r3, #16]
 489              		.loc 1 603 0
 490 0018 F6D1     		bne	.L70
 491              		.loc 1 604 0
 492 001a 1D20     		movs	r0, #29
 493              	.LVL36:
 494 001c FFF7FEFF 		bl	nvicDisableVector
 495              	.LVL37:
 496              		.loc 1 605 0
 497 0020 034B     		ldr	r3, .L75+4
 498 0022 1A6C     		ldr	r2, [r3, #64]
 499 0024 22F00202 		bic	r2, r2, #2
 500 0028 1A64     		str	r2, [r3, #64]
 501 002a EDE7     		b	.L70
 502              	.L76:
 503              		.align	2
 504              	.L75:
 505 002c 00000000 		.word	.LANCHOR0
 506 0030 00380240 		.word	1073887232
 507              		.cfi_endproc
 508              	.LFE261:
 509              		.size	icu_lld_stop, .-icu_lld_stop
 510 0034 AFF30080 		.section	.text.icu_lld_start_capture,"ax",%progbits
ARM GAS  /tmp/ccq5w5Mb.s 			page 10


 510      AFF30080 
 510      AFF30080 
 511              		.align	2
 512              		.p2align 4,,15
 513              		.global	icu_lld_start_capture
 514              		.thumb
 515              		.thumb_func
 516              		.type	icu_lld_start_capture, %function
 517              	icu_lld_start_capture:
 518              	.LFB262:
 519              		.loc 1 643 0
 520              		.cfi_startproc
 521              		@ args = 0, pretend = 0, frame = 0
 522              		@ frame_needed = 0, uses_anonymous_args = 0
 523              		@ link register save eliminated.
 524              	.LVL38:
 525              		.loc 1 646 0
 526 0000 C368     		ldr	r3, [r0, #12]
 527 0002 5869     		ldr	r0, [r3, #20]
 528              	.LVL39:
 529              		.loc 1 647 0
 530 0004 0021     		movs	r1, #0
 531              		.loc 1 646 0
 532 0006 40F00100 		orr	r0, r0, #1
 533              		.loc 1 650 0
 534 000a 0522     		movs	r2, #5
 535              		.loc 1 646 0
 536 000c 5861     		str	r0, [r3, #20]
 537              		.loc 1 647 0
 538 000e 1961     		str	r1, [r3, #16]
 539              		.loc 1 650 0
 540 0010 1A60     		str	r2, [r3]
 541 0012 7047     		bx	lr
 542              		.cfi_endproc
 543              	.LFE262:
 544              		.size	icu_lld_start_capture, .-icu_lld_start_capture
 545 0014 AFF30080 		.section	.text.icu_lld_wait_capture,"ax",%progbits
 545      AFF30080 
 545      AFF30080 
 546              		.align	2
 547              		.p2align 4,,15
 548              		.global	icu_lld_wait_capture
 549              		.thumb
 550              		.thumb_func
 551              		.type	icu_lld_wait_capture, %function
 552              	icu_lld_wait_capture:
 553              	.LFB263:
 554              		.loc 1 665 0
 555              		.cfi_startproc
 556              		@ args = 0, pretend = 0, frame = 0
 557              		@ frame_needed = 0, uses_anonymous_args = 0
 558              	.LVL40:
 559 0000 38B5     		push	{r3, r4, r5, lr}
 560              		.cfi_def_cfa_offset 16
 561              		.cfi_offset 3, -16
 562              		.cfi_offset 4, -12
 563              		.cfi_offset 5, -8
ARM GAS  /tmp/ccq5w5Mb.s 			page 11


 564              		.cfi_offset 14, -4
 565              		.loc 1 669 0
 566 0002 0378     		ldrb	r3, [r0]	@ zero_extendqisi2
 567 0004 032B     		cmp	r3, #3
 568 0006 00F10405 		add	r5, r0, #4
 569 000a 00F10C04 		add	r4, r0, #12
 570 000e 05D0     		beq	.L79
 571              	.LVL41:
 572              	.L80:
 573              		.loc 1 674 0
 574 0010 2846     		mov	r0, r5
 575 0012 2146     		mov	r1, r4
 576              		.loc 1 675 0
 577 0014 BDE83840 		pop	{r3, r4, r5, lr}
 578              	.LVL42:
 579              		.loc 1 674 0
 580 0018 FFF7FEBF 		b	icu_lld_wait_edge.isra.0
 581              	.LVL43:
 582              	.L79:
 583              		.loc 1 670 0
 584 001c 2846     		mov	r0, r5
 585              	.LVL44:
 586 001e 2146     		mov	r1, r4
 587 0020 FFF7FEFF 		bl	icu_lld_wait_edge.isra.0
 588              	.LVL45:
 589 0024 0028     		cmp	r0, #0
 590 0026 F3D0     		beq	.L80
 591              		.loc 1 675 0
 592 0028 38BD     		pop	{r3, r4, r5, pc}
 593              		.cfi_endproc
 594              	.LFE263:
 595              		.size	icu_lld_wait_capture, .-icu_lld_wait_capture
 596 002a 00BFAFF3 		.section	.text.icu_lld_stop_capture,"ax",%progbits
 596      0080
 597              		.align	2
 598              		.p2align 4,,15
 599              		.global	icu_lld_stop_capture
 600              		.thumb
 601              		.thumb_func
 602              		.type	icu_lld_stop_capture, %function
 603              	icu_lld_stop_capture:
 604              	.LFB264:
 605              		.loc 1 684 0
 606              		.cfi_startproc
 607              		@ args = 0, pretend = 0, frame = 0
 608              		@ frame_needed = 0, uses_anonymous_args = 0
 609              		@ link register save eliminated.
 610              	.LVL46:
 611              		.loc 1 687 0
 612 0000 C368     		ldr	r3, [r0, #12]
 613 0002 0022     		movs	r2, #0
 614 0004 1A60     		str	r2, [r3]
 615              		.loc 1 690 0
 616 0006 DA68     		ldr	r2, [r3, #12]
 617 0008 22F0FF02 		bic	r2, r2, #255
 618 000c DA60     		str	r2, [r3, #12]
 619 000e 7047     		bx	lr
ARM GAS  /tmp/ccq5w5Mb.s 			page 12


 620              		.cfi_endproc
 621              	.LFE264:
 622              		.size	icu_lld_stop_capture, .-icu_lld_stop_capture
 623              		.section	.text.icu_lld_enable_notifications,"ax",%progbits
 624              		.align	2
 625              		.p2align 4,,15
 626              		.global	icu_lld_enable_notifications
 627              		.thumb
 628              		.thumb_func
 629              		.type	icu_lld_enable_notifications, %function
 630              	icu_lld_enable_notifications:
 631              	.LFB265:
 632              		.loc 1 702 0
 633              		.cfi_startproc
 634              		@ args = 0, pretend = 0, frame = 0
 635              		@ frame_needed = 0, uses_anonymous_args = 0
 636              		@ link register save eliminated.
 637              	.LVL47:
 638              		.loc 1 703 0
 639 0000 C268     		ldr	r2, [r0, #12]
 640 0002 D368     		ldr	r3, [r2, #12]
 641              	.LVL48:
 642              		.loc 1 702 0
 643 0004 10B4     		push	{r4}
 644              		.cfi_def_cfa_offset 4
 645              		.cfi_offset 4, -4
 646              		.loc 1 708 0
 647 0006 13F0FF04 		ands	r4, r3, #255
 648 000a 0CD1     		bne	.L85
 649              		.loc 1 712 0
 650 000c 4168     		ldr	r1, [r0, #4]
 651              		.loc 1 710 0
 652 000e 1461     		str	r4, [r2, #16]
 653              		.loc 1 712 0
 654 0010 087D     		ldrb	r0, [r1, #20]	@ zero_extendqisi2
 655              	.LVL49:
 656 0012 58B1     		cbz	r0, .L95
 657              	.LVL50:
 658              		.loc 1 725 0
 659 0014 8868     		ldr	r0, [r1, #8]
 660 0016 78B1     		cbz	r0, .L96
 661              	.LVL51:
 662              	.L90:
 663              		.loc 1 726 0
 664 0018 43F00603 		orr	r3, r3, #6
 665              	.LVL52:
 666              	.L89:
 667              		.loc 1 731 0
 668 001c 0969     		ldr	r1, [r1, #16]
 669 001e 09B1     		cbz	r1, .L91
 670              		.loc 1 732 0
 671 0020 43F00103 		orr	r3, r3, #1
 672              	.LVL53:
 673              	.L91:
 674              		.loc 1 735 0
 675 0024 D360     		str	r3, [r2, #12]
 676              	.L85:
ARM GAS  /tmp/ccq5w5Mb.s 			page 13


 677              		.loc 1 737 0
 678 0026 5DF8044B 		ldr	r4, [sp], #4
 679 002a 7047     		bx	lr
 680              	.L95:
 681              	.LVL54:
 682              		.loc 1 717 0
 683 002c 8868     		ldr	r0, [r1, #8]
 684 002e 0028     		cmp	r0, #0
 685 0030 F2D1     		bne	.L90
 686              		.loc 1 714 0
 687 0032 43F00203 		orr	r3, r3, #2
 688              	.LVL55:
 689 0036 F1E7     		b	.L89
 690              	.LVL56:
 691              	.L96:
 692              		.loc 1 722 0
 693 0038 43F00403 		orr	r3, r3, #4
 694              	.LVL57:
 695 003c EEE7     		b	.L89
 696              		.cfi_endproc
 697              	.LFE265:
 698              		.size	icu_lld_enable_notifications, .-icu_lld_enable_notifications
 699 003e 00BF     		.section	.text.icu_lld_disable_notifications,"ax",%progbits
 700              		.align	2
 701              		.p2align 4,,15
 702              		.global	icu_lld_disable_notifications
 703              		.thumb
 704              		.thumb_func
 705              		.type	icu_lld_disable_notifications, %function
 706              	icu_lld_disable_notifications:
 707              	.LFB266:
 708              		.loc 1 748 0
 709              		.cfi_startproc
 710              		@ args = 0, pretend = 0, frame = 0
 711              		@ frame_needed = 0, uses_anonymous_args = 0
 712              		@ link register save eliminated.
 713              	.LVL58:
 714              		.loc 1 751 0
 715 0000 C368     		ldr	r3, [r0, #12]
 716 0002 DA68     		ldr	r2, [r3, #12]
 717 0004 22F0FF02 		bic	r2, r2, #255
 718 0008 DA60     		str	r2, [r3, #12]
 719 000a 7047     		bx	lr
 720              		.cfi_endproc
 721              	.LFE266:
 722              		.size	icu_lld_disable_notifications, .-icu_lld_disable_notifications
 723              		.global	ICUD3
 724 000c AFF30080 		.section	.bss.ICUD3,"aw",%nobits
 725              		.align	2
 726              		.set	.LANCHOR0,. + 0
 727              		.type	ICUD3, %object
 728              		.size	ICUD3, 24
 729              	ICUD3:
 730 0000 00000000 		.space	24
 730      00000000 
 730      00000000 
 730      00000000 
ARM GAS  /tmp/ccq5w5Mb.s 			page 14


 730      00000000 
 731              		.text
 732              	.Letext0:
 733              		.file 3 "/usr/lib/gcc/arm-none-eabi/4.8/include/stddef.h"
 734              		.file 4 "/usr/include/newlib/machine/_default_types.h"
 735              		.file 5 "/usr/include/newlib/stdint.h"
 736              		.file 6 "ChibiOS_3.0.2/os/rt/ports/ARMCMx/compilers/GCC/chtypes.h"
 737              		.file 7 "ChibiOS_3.0.2/os/rt/include/chsystypes.h"
 738              		.file 8 "ChibiOS_3.0.2/os/rt/include/chschd.h"
 739              		.file 9 "ChibiOS_3.0.2/os/ext/CMSIS/ST/stm32f407xx.h"
 740              		.file 10 "ChibiOS_3.0.2/os/rt/ports/ARMCMx/chcore.h"
 741              		.file 11 "ChibiOS_3.0.2/os/rt/ports/ARMCMx/chcore_v7m.h"
 742              		.file 12 "ChibiOS_3.0.2/os/rt/include/chtm.h"
 743              		.file 13 "ChibiOS_3.0.2/os/rt/include/chsem.h"
 744              		.file 14 "ChibiOS_3.0.2/os/rt/include/chmtx.h"
 745              		.file 15 "ChibiOS_3.0.2/os/hal/include/icu.h"
 746              		.file 16 "ChibiOS_3.0.2/os/hal/ports/STM32/LLD/TIMv1/icu_lld.h"
 747              		.file 17 "ChibiOS_3.0.2/os/hal/ports/STM32/LLD/TIMv1/stm32_tim.h"
 748              		.file 18 "ChibiOS_3.0.2/os/rt/include/chsys.h"
 749              		.file 19 "ChibiOS_3.0.2/os/ext/CMSIS/include/core_cm4.h"
 750              		.file 20 "ChibiOS_3.0.2/os/hal/ports/common/ARMCMx/nvic.h"
 751              		.section	.debug_info,"",%progbits
 752              	.Ldebug_info0:
 753 0000 C90F0000 		.4byte	0xfc9
 754 0004 0400     		.2byte	0x4
 755 0006 00000000 		.4byte	.Ldebug_abbrev0
 756 000a 04       		.byte	0x4
 757 000b 01       		.uleb128 0x1
 758 000c FE010000 		.4byte	.LASF195
 759 0010 01       		.byte	0x1
 760 0011 FA000000 		.4byte	.LASF196
 761 0015 34030000 		.4byte	.LASF197
 762 0019 18000000 		.4byte	.Ldebug_ranges0+0x18
 763 001d 00000000 		.4byte	0
 764 0021 00000000 		.4byte	.Ldebug_line0
 765 0025 02       		.uleb128 0x2
 766 0026 04       		.byte	0x4
 767 0027 07       		.byte	0x7
 768 0028 7E030000 		.4byte	.LASF0
 769 002c 03       		.uleb128 0x3
 770 002d 04       		.byte	0x4
 771 002e 05       		.byte	0x5
 772 002f 696E7400 		.ascii	"int\000"
 773 0033 04       		.uleb128 0x4
 774 0034 28000000 		.4byte	.LASF2
 775 0038 03       		.byte	0x3
 776 0039 D4       		.byte	0xd4
 777 003a 25000000 		.4byte	0x25
 778 003e 02       		.uleb128 0x2
 779 003f 01       		.byte	0x1
 780 0040 06       		.byte	0x6
 781 0041 62010000 		.4byte	.LASF1
 782 0045 04       		.uleb128 0x4
 783 0046 56000000 		.4byte	.LASF3
 784 004a 04       		.byte	0x4
 785 004b 1D       		.byte	0x1d
 786 004c 50000000 		.4byte	0x50
ARM GAS  /tmp/ccq5w5Mb.s 			page 15


 787 0050 02       		.uleb128 0x2
 788 0051 01       		.byte	0x1
 789 0052 08       		.byte	0x8
 790 0053 49060000 		.4byte	.LASF4
 791 0057 02       		.uleb128 0x2
 792 0058 02       		.byte	0x2
 793 0059 05       		.byte	0x5
 794 005a AC040000 		.4byte	.LASF5
 795 005e 02       		.uleb128 0x2
 796 005f 02       		.byte	0x2
 797 0060 07       		.byte	0x7
 798 0061 08030000 		.4byte	.LASF6
 799 0065 04       		.uleb128 0x4
 800 0066 B6040000 		.4byte	.LASF7
 801 006a 04       		.byte	0x4
 802 006b 3F       		.byte	0x3f
 803 006c 70000000 		.4byte	0x70
 804 0070 02       		.uleb128 0x2
 805 0071 04       		.byte	0x4
 806 0072 05       		.byte	0x5
 807 0073 C3010000 		.4byte	.LASF8
 808 0077 04       		.uleb128 0x4
 809 0078 DA070000 		.4byte	.LASF9
 810 007c 04       		.byte	0x4
 811 007d 41       		.byte	0x41
 812 007e 82000000 		.4byte	0x82
 813 0082 02       		.uleb128 0x2
 814 0083 04       		.byte	0x4
 815 0084 07       		.byte	0x7
 816 0085 5B070000 		.4byte	.LASF10
 817 0089 02       		.uleb128 0x2
 818 008a 08       		.byte	0x8
 819 008b 05       		.byte	0x5
 820 008c 21040000 		.4byte	.LASF11
 821 0090 04       		.uleb128 0x4
 822 0091 A8050000 		.4byte	.LASF12
 823 0095 04       		.byte	0x4
 824 0096 5B       		.byte	0x5b
 825 0097 9B000000 		.4byte	0x9b
 826 009b 02       		.uleb128 0x2
 827 009c 08       		.byte	0x8
 828 009d 07       		.byte	0x7
 829 009e 9F000000 		.4byte	.LASF13
 830 00a2 04       		.uleb128 0x4
 831 00a3 AE080000 		.4byte	.LASF14
 832 00a7 05       		.byte	0x5
 833 00a8 2A       		.byte	0x2a
 834 00a9 45000000 		.4byte	0x45
 835 00ad 04       		.uleb128 0x4
 836 00ae 41060000 		.4byte	.LASF15
 837 00b2 05       		.byte	0x5
 838 00b3 41       		.byte	0x41
 839 00b4 65000000 		.4byte	0x65
 840 00b8 04       		.uleb128 0x4
 841 00b9 4E090000 		.4byte	.LASF16
 842 00bd 05       		.byte	0x5
 843 00be 42       		.byte	0x42
ARM GAS  /tmp/ccq5w5Mb.s 			page 16


 844 00bf 77000000 		.4byte	0x77
 845 00c3 04       		.uleb128 0x4
 846 00c4 36000000 		.4byte	.LASF17
 847 00c8 05       		.byte	0x5
 848 00c9 4E       		.byte	0x4e
 849 00ca 90000000 		.4byte	0x90
 850 00ce 05       		.uleb128 0x5
 851 00cf AD000000 		.4byte	0xad
 852 00d3 05       		.uleb128 0x5
 853 00d4 B8000000 		.4byte	0xb8
 854 00d8 04       		.uleb128 0x4
 855 00d9 0A050000 		.4byte	.LASF18
 856 00dd 06       		.byte	0x6
 857 00de 45       		.byte	0x45
 858 00df B8000000 		.4byte	0xb8
 859 00e3 04       		.uleb128 0x4
 860 00e4 7A040000 		.4byte	.LASF19
 861 00e8 06       		.byte	0x6
 862 00e9 48       		.byte	0x48
 863 00ea A2000000 		.4byte	0xa2
 864 00ee 04       		.uleb128 0x4
 865 00ef DF010000 		.4byte	.LASF20
 866 00f3 06       		.byte	0x6
 867 00f4 49       		.byte	0x49
 868 00f5 A2000000 		.4byte	0xa2
 869 00f9 04       		.uleb128 0x4
 870 00fa B9050000 		.4byte	.LASF21
 871 00fe 06       		.byte	0x6
 872 00ff 4A       		.byte	0x4a
 873 0100 A2000000 		.4byte	0xa2
 874 0104 04       		.uleb128 0x4
 875 0105 A0010000 		.4byte	.LASF22
 876 0109 06       		.byte	0x6
 877 010a 4B       		.byte	0x4b
 878 010b A2000000 		.4byte	0xa2
 879 010f 04       		.uleb128 0x4
 880 0110 1E060000 		.4byte	.LASF23
 881 0114 06       		.byte	0x6
 882 0115 4C       		.byte	0x4c
 883 0116 B8000000 		.4byte	0xb8
 884 011a 04       		.uleb128 0x4
 885 011b 3A040000 		.4byte	.LASF24
 886 011f 06       		.byte	0x6
 887 0120 4D       		.byte	0x4d
 888 0121 AD000000 		.4byte	0xad
 889 0125 04       		.uleb128 0x4
 890 0126 A0040000 		.4byte	.LASF25
 891 012a 06       		.byte	0x6
 892 012b 4F       		.byte	0x4f
 893 012c B8000000 		.4byte	0xb8
 894 0130 04       		.uleb128 0x4
 895 0131 78030000 		.4byte	.LASF26
 896 0135 06       		.byte	0x6
 897 0136 51       		.byte	0x51
 898 0137 AD000000 		.4byte	0xad
 899 013b 04       		.uleb128 0x4
 900 013c BC070000 		.4byte	.LASF27
ARM GAS  /tmp/ccq5w5Mb.s 			page 17


 901 0140 07       		.byte	0x7
 902 0141 33       		.byte	0x33
 903 0142 B8000000 		.4byte	0xb8
 904 0146 04       		.uleb128 0x4
 905 0147 A7070000 		.4byte	.LASF28
 906 014b 07       		.byte	0x7
 907 014c 3F       		.byte	0x3f
 908 014d 51010000 		.4byte	0x151
 909 0151 06       		.uleb128 0x6
 910 0152 F3030000 		.4byte	.LASF50
 911 0156 48       		.byte	0x48
 912 0157 08       		.byte	0x8
 913 0158 C2       		.byte	0xc2
 914 0159 56020000 		.4byte	0x256
 915 015d 07       		.uleb128 0x7
 916 015e 9C060000 		.4byte	.LASF29
 917 0162 08       		.byte	0x8
 918 0163 C3       		.byte	0xc3
 919 0164 61020000 		.4byte	0x261
 920 0168 00       		.byte	0
 921 0169 07       		.uleb128 0x7
 922 016a F9050000 		.4byte	.LASF30
 923 016e 08       		.byte	0x8
 924 016f C5       		.byte	0xc5
 925 0170 61020000 		.4byte	0x261
 926 0174 04       		.byte	0x4
 927 0175 07       		.uleb128 0x7
 928 0176 39010000 		.4byte	.LASF31
 929 017a 08       		.byte	0x8
 930 017b C7       		.byte	0xc7
 931 017c 0F010000 		.4byte	0x10f
 932 0180 08       		.byte	0x8
 933 0181 07       		.uleb128 0x7
 934 0182 57090000 		.4byte	.LASF32
 935 0186 08       		.byte	0x8
 936 0187 C8       		.byte	0xc8
 937 0188 4C060000 		.4byte	0x64c
 938 018c 0C       		.byte	0xc
 939 018d 07       		.uleb128 0x7
 940 018e F8020000 		.4byte	.LASF33
 941 0192 08       		.byte	0x8
 942 0193 CA       		.byte	0xca
 943 0194 61020000 		.4byte	0x261
 944 0198 10       		.byte	0x10
 945 0199 07       		.uleb128 0x7
 946 019a 57050000 		.4byte	.LASF34
 947 019e 08       		.byte	0x8
 948 019f CB       		.byte	0xcb
 949 01a0 61020000 		.4byte	0x261
 950 01a4 14       		.byte	0x14
 951 01a5 07       		.uleb128 0x7
 952 01a6 DB080000 		.4byte	.LASF35
 953 01aa 08       		.byte	0x8
 954 01ab D2       		.byte	0xd2
 955 01ac 91080000 		.4byte	0x891
 956 01b0 18       		.byte	0x18
 957 01b1 07       		.uleb128 0x7
ARM GAS  /tmp/ccq5w5Mb.s 			page 18


 958 01b2 6B060000 		.4byte	.LASF36
 959 01b6 08       		.byte	0x8
 960 01b7 DD       		.byte	0xdd
 961 01b8 EE000000 		.4byte	0xee
 962 01bc 1C       		.byte	0x1c
 963 01bd 07       		.uleb128 0x7
 964 01be A3060000 		.4byte	.LASF37
 965 01c2 08       		.byte	0x8
 966 01c3 E1       		.byte	0xe1
 967 01c4 E3000000 		.4byte	0xe3
 968 01c8 1D       		.byte	0x1d
 969 01c9 07       		.uleb128 0x7
 970 01ca 69080000 		.4byte	.LASF38
 971 01ce 08       		.byte	0x8
 972 01cf E6       		.byte	0xe6
 973 01d0 F9000000 		.4byte	0xf9
 974 01d4 1E       		.byte	0x1e
 975 01d5 07       		.uleb128 0x7
 976 01d6 73060000 		.4byte	.LASF39
 977 01da 08       		.byte	0x8
 978 01db EC       		.byte	0xec
 979 01dc 04010000 		.4byte	0x104
 980 01e0 1F       		.byte	0x1f
 981 01e1 07       		.uleb128 0x7
 982 01e2 A5030000 		.4byte	.LASF40
 983 01e6 08       		.byte	0x8
 984 01e7 F3       		.byte	0xf3
 985 01e8 A3080000 		.4byte	0x8a3
 986 01ec 20       		.byte	0x20
 987 01ed 08       		.uleb128 0x8
 988 01ee 705F7500 		.ascii	"p_u\000"
 989 01f2 08       		.byte	0x8
 990 01f3 3101     		.2byte	0x131
 991 01f5 CC070000 		.4byte	0x7cc
 992 01f9 24       		.byte	0x24
 993 01fa 09       		.uleb128 0x9
 994 01fb 5D090000 		.4byte	.LASF41
 995 01ff 08       		.byte	0x8
 996 0200 3601     		.2byte	0x136
 997 0202 67020000 		.4byte	0x267
 998 0206 28       		.byte	0x28
 999 0207 09       		.uleb128 0x9
 1000 0208 38080000 		.4byte	.LASF42
 1001 020c 08       		.byte	0x8
 1002 020d 3C01     		.2byte	0x13c
 1003 020f 8B020000 		.4byte	0x28b
 1004 0213 2C       		.byte	0x2c
 1005 0214 09       		.uleb128 0x9
 1006 0215 1B090000 		.4byte	.LASF43
 1007 0219 08       		.byte	0x8
 1008 021a 4001     		.2byte	0x140
 1009 021c 1A010000 		.4byte	0x11a
 1010 0220 34       		.byte	0x34
 1011 0221 09       		.uleb128 0x9
 1012 0222 F5060000 		.4byte	.LASF44
 1013 0226 08       		.byte	0x8
 1014 0227 4601     		.2byte	0x146
ARM GAS  /tmp/ccq5w5Mb.s 			page 19


 1015 0229 25010000 		.4byte	0x125
 1016 022d 38       		.byte	0x38
 1017 022e 09       		.uleb128 0x9
 1018 022f 57060000 		.4byte	.LASF45
 1019 0233 08       		.byte	0x8
 1020 0234 4D01     		.2byte	0x14d
 1021 0236 8B080000 		.4byte	0x88b
 1022 023a 3C       		.byte	0x3c
 1023 023b 09       		.uleb128 0x9
 1024 023c C6070000 		.4byte	.LASF46
 1025 0240 08       		.byte	0x8
 1026 0241 5101     		.2byte	0x151
 1027 0243 0F010000 		.4byte	0x10f
 1028 0247 40       		.byte	0x40
 1029 0248 09       		.uleb128 0x9
 1030 0249 84010000 		.4byte	.LASF47
 1031 024d 08       		.byte	0x8
 1032 024e 5801     		.2byte	0x158
 1033 0250 3E030000 		.4byte	0x33e
 1034 0254 44       		.byte	0x44
 1035 0255 00       		.byte	0
 1036 0256 04       		.uleb128 0x4
 1037 0257 BF080000 		.4byte	.LASF48
 1038 025b 07       		.byte	0x7
 1039 025c 44       		.byte	0x44
 1040 025d 61020000 		.4byte	0x261
 1041 0261 0A       		.uleb128 0xa
 1042 0262 04       		.byte	0x4
 1043 0263 46010000 		.4byte	0x146
 1044 0267 04       		.uleb128 0x4
 1045 0268 EA080000 		.4byte	.LASF49
 1046 026c 07       		.byte	0x7
 1047 026d 49       		.byte	0x49
 1048 026e 72020000 		.4byte	0x272
 1049 0272 06       		.uleb128 0x6
 1050 0273 4B070000 		.4byte	.LASF51
 1051 0277 04       		.byte	0x4
 1052 0278 08       		.byte	0x8
 1053 0279 B0       		.byte	0xb0
 1054 027a 8B020000 		.4byte	0x28b
 1055 027e 07       		.uleb128 0x7
 1056 027f 9C060000 		.4byte	.LASF29
 1057 0283 08       		.byte	0x8
 1058 0284 B1       		.byte	0xb1
 1059 0285 61020000 		.4byte	0x261
 1060 0289 00       		.byte	0
 1061 028a 00       		.byte	0
 1062 028b 04       		.uleb128 0x4
 1063 028c 59080000 		.4byte	.LASF52
 1064 0290 07       		.byte	0x7
 1065 0291 50       		.byte	0x50
 1066 0292 96020000 		.4byte	0x296
 1067 0296 06       		.uleb128 0x6
 1068 0297 E9000000 		.4byte	.LASF53
 1069 029b 08       		.byte	0x8
 1070 029c 08       		.byte	0x8
 1071 029d B7       		.byte	0xb7
ARM GAS  /tmp/ccq5w5Mb.s 			page 20


 1072 029e BB020000 		.4byte	0x2bb
 1073 02a2 07       		.uleb128 0x7
 1074 02a3 9C060000 		.4byte	.LASF29
 1075 02a7 08       		.byte	0x8
 1076 02a8 B8       		.byte	0xb8
 1077 02a9 61020000 		.4byte	0x261
 1078 02ad 00       		.byte	0
 1079 02ae 07       		.uleb128 0x7
 1080 02af F9050000 		.4byte	.LASF30
 1081 02b3 08       		.byte	0x8
 1082 02b4 B9       		.byte	0xb9
 1083 02b5 61020000 		.4byte	0x261
 1084 02b9 04       		.byte	0x4
 1085 02ba 00       		.byte	0
 1086 02bb 04       		.uleb128 0x4
 1087 02bc 16000000 		.4byte	.LASF54
 1088 02c0 07       		.byte	0x7
 1089 02c1 57       		.byte	0x57
 1090 02c2 C6020000 		.4byte	0x2c6
 1091 02c6 0B       		.uleb128 0xb
 1092 02c7 92040000 		.4byte	.LASF55
 1093 02cb 1C       		.byte	0x1c
 1094 02cc 08       		.byte	0x8
 1095 02cd 9001     		.2byte	0x190
 1096 02cf 22030000 		.4byte	0x322
 1097 02d3 09       		.uleb128 0x9
 1098 02d4 38070000 		.4byte	.LASF56
 1099 02d8 08       		.byte	0x8
 1100 02d9 9101     		.2byte	0x191
 1101 02db 8B020000 		.4byte	0x28b
 1102 02df 00       		.byte	0
 1103 02e0 09       		.uleb128 0x9
 1104 02e1 87060000 		.4byte	.LASF57
 1105 02e5 08       		.byte	0x8
 1106 02e6 9201     		.2byte	0x192
 1107 02e8 0F010000 		.4byte	0x10f
 1108 02ec 08       		.byte	0x8
 1109 02ed 09       		.uleb128 0x9
 1110 02ee 5F050000 		.4byte	.LASF58
 1111 02f2 08       		.byte	0x8
 1112 02f3 9401     		.2byte	0x194
 1113 02f5 4C060000 		.4byte	0x64c
 1114 02f9 0C       		.byte	0xc
 1115 02fa 09       		.uleb128 0x9
 1116 02fb 1B030000 		.4byte	.LASF59
 1117 02ff 08       		.byte	0x8
 1118 0300 9701     		.2byte	0x197
 1119 0302 61020000 		.4byte	0x261
 1120 0306 10       		.byte	0x10
 1121 0307 09       		.uleb128 0x9
 1122 0308 26080000 		.4byte	.LASF60
 1123 030c 08       		.byte	0x8
 1124 030d 9801     		.2byte	0x198
 1125 030f 61020000 		.4byte	0x261
 1126 0313 14       		.byte	0x14
 1127 0314 09       		.uleb128 0x9
 1128 0315 95050000 		.4byte	.LASF61
ARM GAS  /tmp/ccq5w5Mb.s 			page 21


 1129 0319 08       		.byte	0x8
 1130 031a 9B01     		.2byte	0x19b
 1131 031c 61020000 		.4byte	0x261
 1132 0320 18       		.byte	0x18
 1133 0321 00       		.byte	0
 1134 0322 04       		.uleb128 0x4
 1135 0323 D1070000 		.4byte	.LASF62
 1136 0327 07       		.byte	0x7
 1137 0328 5C       		.byte	0x5c
 1138 0329 2D030000 		.4byte	0x32d
 1139 032d 0A       		.uleb128 0xa
 1140 032e 04       		.byte	0x4
 1141 032f 33030000 		.4byte	0x333
 1142 0333 0C       		.uleb128 0xc
 1143 0334 3E030000 		.4byte	0x33e
 1144 0338 0D       		.uleb128 0xd
 1145 0339 3E030000 		.4byte	0x33e
 1146 033d 00       		.byte	0
 1147 033e 0E       		.uleb128 0xe
 1148 033f 04       		.byte	0x4
 1149 0340 04       		.uleb128 0x4
 1150 0341 E9050000 		.4byte	.LASF63
 1151 0345 07       		.byte	0x7
 1152 0346 61       		.byte	0x61
 1153 0347 4B030000 		.4byte	0x34b
 1154 034b 0B       		.uleb128 0xb
 1155 034c 79000000 		.4byte	.LASF64
 1156 0350 14       		.byte	0x14
 1157 0351 08       		.byte	0x8
 1158 0352 6B01     		.2byte	0x16b
 1159 0354 9A030000 		.4byte	0x39a
 1160 0358 09       		.uleb128 0x9
 1161 0359 8B030000 		.4byte	.LASF65
 1162 035d 08       		.byte	0x8
 1163 035e 6C01     		.2byte	0x16c
 1164 0360 A8080000 		.4byte	0x8a8
 1165 0364 00       		.byte	0
 1166 0365 09       		.uleb128 0x9
 1167 0366 2C030000 		.4byte	.LASF66
 1168 036a 08       		.byte	0x8
 1169 036b 6D01     		.2byte	0x16d
 1170 036d A8080000 		.4byte	0x8a8
 1171 0371 04       		.byte	0x4
 1172 0372 09       		.uleb128 0x9
 1173 0373 B3030000 		.4byte	.LASF67
 1174 0377 08       		.byte	0x8
 1175 0378 6E01     		.2byte	0x16e
 1176 037a 3B010000 		.4byte	0x13b
 1177 037e 08       		.byte	0x8
 1178 037f 09       		.uleb128 0x9
 1179 0380 78050000 		.4byte	.LASF68
 1180 0384 08       		.byte	0x8
 1181 0385 6F01     		.2byte	0x16f
 1182 0387 22030000 		.4byte	0x322
 1183 038b 0C       		.byte	0xc
 1184 038c 09       		.uleb128 0x9
 1185 038d 4C080000 		.4byte	.LASF69
ARM GAS  /tmp/ccq5w5Mb.s 			page 22


 1186 0391 08       		.byte	0x8
 1187 0392 7101     		.2byte	0x171
 1188 0394 3E030000 		.4byte	0x33e
 1189 0398 10       		.byte	0x10
 1190 0399 00       		.byte	0
 1191 039a 04       		.uleb128 0x4
 1192 039b C1000000 		.4byte	.LASF70
 1193 039f 07       		.byte	0x7
 1194 03a0 66       		.byte	0x66
 1195 03a1 A5030000 		.4byte	0x3a5
 1196 03a5 0B       		.uleb128 0xb
 1197 03a6 20050000 		.4byte	.LASF71
 1198 03aa 10       		.byte	0x10
 1199 03ab 08       		.byte	0x8
 1200 03ac 7B01     		.2byte	0x17b
 1201 03ae E7030000 		.4byte	0x3e7
 1202 03b2 09       		.uleb128 0x9
 1203 03b3 8B030000 		.4byte	.LASF65
 1204 03b7 08       		.byte	0x8
 1205 03b8 7C01     		.2byte	0x17c
 1206 03ba A8080000 		.4byte	0x8a8
 1207 03be 00       		.byte	0
 1208 03bf 09       		.uleb128 0x9
 1209 03c0 2C030000 		.4byte	.LASF66
 1210 03c4 08       		.byte	0x8
 1211 03c5 7E01     		.2byte	0x17e
 1212 03c7 A8080000 		.4byte	0x8a8
 1213 03cb 04       		.byte	0x4
 1214 03cc 09       		.uleb128 0x9
 1215 03cd B3030000 		.4byte	.LASF67
 1216 03d1 08       		.byte	0x8
 1217 03d2 8001     		.2byte	0x180
 1218 03d4 3B010000 		.4byte	0x13b
 1219 03d8 08       		.byte	0x8
 1220 03d9 09       		.uleb128 0x9
 1221 03da 40070000 		.4byte	.LASF72
 1222 03de 08       		.byte	0x8
 1223 03df 8201     		.2byte	0x182
 1224 03e1 A3080000 		.4byte	0x8a3
 1225 03e5 0C       		.byte	0xc
 1226 03e6 00       		.byte	0
 1227 03e7 04       		.uleb128 0x4
 1228 03e8 BC030000 		.4byte	.LASF73
 1229 03ec 07       		.byte	0x7
 1230 03ed 6B       		.byte	0x6b
 1231 03ee F2030000 		.4byte	0x3f2
 1232 03f2 0B       		.uleb128 0xb
 1233 03f3 2B060000 		.4byte	.LASF74
 1234 03f7 04       		.byte	0x4
 1235 03f8 08       		.byte	0x8
 1236 03f9 A201     		.2byte	0x1a2
 1237 03fb 0D040000 		.4byte	0x40d
 1238 03ff 09       		.uleb128 0x9
 1239 0400 F3070000 		.4byte	.LASF75
 1240 0404 08       		.byte	0x8
 1241 0405 AA01     		.2byte	0x1aa
 1242 0407 AE080000 		.4byte	0x8ae
ARM GAS  /tmp/ccq5w5Mb.s 			page 23


 1243 040b 00       		.byte	0
 1244 040c 00       		.byte	0
 1245 040d 04       		.uleb128 0x4
 1246 040e 53040000 		.4byte	.LASF76
 1247 0412 07       		.byte	0x7
 1248 0413 70       		.byte	0x70
 1249 0414 18040000 		.4byte	0x418
 1250 0418 0F       		.uleb128 0xf
 1251 0419 B9010000 		.4byte	.LASF77
 1252 041d 5802     		.2byte	0x258
 1253 041f 08       		.byte	0x8
 1254 0420 C201     		.2byte	0x1c2
 1255 0422 74040000 		.4byte	0x474
 1256 0426 09       		.uleb128 0x9
 1257 0427 A8080000 		.4byte	.LASF78
 1258 042b 08       		.byte	0x8
 1259 042c C601     		.2byte	0x1c6
 1260 042e BB020000 		.4byte	0x2bb
 1261 0432 00       		.byte	0
 1262 0433 09       		.uleb128 0x9
 1263 0434 6C000000 		.4byte	.LASF79
 1264 0438 08       		.byte	0x8
 1265 0439 CA01     		.2byte	0x1ca
 1266 043b 9A030000 		.4byte	0x39a
 1267 043f 1C       		.byte	0x1c
 1268 0440 08       		.uleb128 0x8
 1269 0441 64626700 		.ascii	"dbg\000"
 1270 0445 08       		.byte	0x8
 1271 0446 CE01     		.2byte	0x1ce
 1272 0448 E7030000 		.4byte	0x3e7
 1273 044c 2C       		.byte	0x2c
 1274 044d 09       		.uleb128 0x9
 1275 044e B6000000 		.4byte	.LASF80
 1276 0452 08       		.byte	0x8
 1277 0453 D201     		.2byte	0x1d2
 1278 0455 46010000 		.4byte	0x146
 1279 0459 30       		.byte	0x30
 1280 045a 08       		.uleb128 0x8
 1281 045b 746D00   		.ascii	"tm\000"
 1282 045e 08       		.byte	0x8
 1283 045f D701     		.2byte	0x1d7
 1284 0461 C1070000 		.4byte	0x7c1
 1285 0465 78       		.byte	0x78
 1286 0466 09       		.uleb128 0x9
 1287 0467 69030000 		.4byte	.LASF81
 1288 046b 08       		.byte	0x8
 1289 046c E301     		.2byte	0x1e3
 1290 046e B3080000 		.4byte	0x8b3
 1291 0472 80       		.byte	0x80
 1292 0473 00       		.byte	0
 1293 0474 02       		.uleb128 0x2
 1294 0475 04       		.byte	0x4
 1295 0476 07       		.byte	0x7
 1296 0477 B6080000 		.4byte	.LASF82
 1297 047b 10       		.uleb128 0x10
 1298 047c B8000000 		.4byte	0xb8
 1299 0480 8B040000 		.4byte	0x48b
ARM GAS  /tmp/ccq5w5Mb.s 			page 24


 1300 0484 11       		.uleb128 0x11
 1301 0485 74040000 		.4byte	0x474
 1302 0489 01       		.byte	0x1
 1303 048a 00       		.byte	0
 1304 048b 10       		.uleb128 0x10
 1305 048c B8000000 		.4byte	0xb8
 1306 0490 9B040000 		.4byte	0x49b
 1307 0494 11       		.uleb128 0x11
 1308 0495 74040000 		.4byte	0x474
 1309 0499 03       		.byte	0x3
 1310 049a 00       		.byte	0
 1311 049b 12       		.uleb128 0x12
 1312 049c 88       		.byte	0x88
 1313 049d 09       		.byte	0x9
 1314 049e 6702     		.2byte	0x267
 1315 04a0 2A060000 		.4byte	0x62a
 1316 04a4 08       		.uleb128 0x8
 1317 04a5 435200   		.ascii	"CR\000"
 1318 04a8 09       		.byte	0x9
 1319 04a9 6902     		.2byte	0x269
 1320 04ab D3000000 		.4byte	0xd3
 1321 04af 00       		.byte	0
 1322 04b0 09       		.uleb128 0x9
 1323 04b1 00030000 		.4byte	.LASF83
 1324 04b5 09       		.byte	0x9
 1325 04b6 6A02     		.2byte	0x26a
 1326 04b8 D3000000 		.4byte	0xd3
 1327 04bc 04       		.byte	0x4
 1328 04bd 09       		.uleb128 0x9
 1329 04be 0A070000 		.4byte	.LASF84
 1330 04c2 09       		.byte	0x9
 1331 04c3 6B02     		.2byte	0x26b
 1332 04c5 D3000000 		.4byte	0xd3
 1333 04c9 08       		.byte	0x8
 1334 04ca 08       		.uleb128 0x8
 1335 04cb 43495200 		.ascii	"CIR\000"
 1336 04cf 09       		.byte	0x9
 1337 04d0 6C02     		.2byte	0x26c
 1338 04d2 D3000000 		.4byte	0xd3
 1339 04d6 0C       		.byte	0xc
 1340 04d7 09       		.uleb128 0x9
 1341 04d8 43080000 		.4byte	.LASF85
 1342 04dc 09       		.byte	0x9
 1343 04dd 6D02     		.2byte	0x26d
 1344 04df D3000000 		.4byte	0xd3
 1345 04e3 10       		.byte	0x10
 1346 04e4 09       		.uleb128 0x9
 1347 04e5 9E070000 		.4byte	.LASF86
 1348 04e9 09       		.byte	0x9
 1349 04ea 6E02     		.2byte	0x26e
 1350 04ec D3000000 		.4byte	0xd3
 1351 04f0 14       		.byte	0x14
 1352 04f1 09       		.uleb128 0x9
 1353 04f2 40040000 		.4byte	.LASF87
 1354 04f6 09       		.byte	0x9
 1355 04f7 6F02     		.2byte	0x26f
 1356 04f9 D3000000 		.4byte	0xd3
ARM GAS  /tmp/ccq5w5Mb.s 			page 25


 1357 04fd 18       		.byte	0x18
 1358 04fe 09       		.uleb128 0x9
 1359 04ff C1050000 		.4byte	.LASF88
 1360 0503 09       		.byte	0x9
 1361 0504 7002     		.2byte	0x270
 1362 0506 B8000000 		.4byte	0xb8
 1363 050a 1C       		.byte	0x1c
 1364 050b 09       		.uleb128 0x9
 1365 050c 9F050000 		.4byte	.LASF89
 1366 0510 09       		.byte	0x9
 1367 0511 7102     		.2byte	0x271
 1368 0513 D3000000 		.4byte	0xd3
 1369 0517 20       		.byte	0x20
 1370 0518 09       		.uleb128 0x9
 1371 0519 CC010000 		.4byte	.LASF90
 1372 051d 09       		.byte	0x9
 1373 051e 7202     		.2byte	0x272
 1374 0520 D3000000 		.4byte	0xd3
 1375 0524 24       		.byte	0x24
 1376 0525 09       		.uleb128 0x9
 1377 0526 CB050000 		.4byte	.LASF91
 1378 052a 09       		.byte	0x9
 1379 052b 7302     		.2byte	0x273
 1380 052d 7B040000 		.4byte	0x47b
 1381 0531 28       		.byte	0x28
 1382 0532 09       		.uleb128 0x9
 1383 0533 E2080000 		.4byte	.LASF92
 1384 0537 09       		.byte	0x9
 1385 0538 7402     		.2byte	0x274
 1386 053a D3000000 		.4byte	0xd3
 1387 053e 30       		.byte	0x30
 1388 053f 09       		.uleb128 0x9
 1389 0540 69040000 		.4byte	.LASF93
 1390 0544 09       		.byte	0x9
 1391 0545 7502     		.2byte	0x275
 1392 0547 D3000000 		.4byte	0xd3
 1393 054b 34       		.byte	0x34
 1394 054c 09       		.uleb128 0x9
 1395 054d DB060000 		.4byte	.LASF94
 1396 0551 09       		.byte	0x9
 1397 0552 7602     		.2byte	0x276
 1398 0554 D3000000 		.4byte	0xd3
 1399 0558 38       		.byte	0x38
 1400 0559 09       		.uleb128 0x9
 1401 055a D5050000 		.4byte	.LASF95
 1402 055e 09       		.byte	0x9
 1403 055f 7702     		.2byte	0x277
 1404 0561 B8000000 		.4byte	0xb8
 1405 0565 3C       		.byte	0x3c
 1406 0566 09       		.uleb128 0x9
 1407 0567 04080000 		.4byte	.LASF96
 1408 056b 09       		.byte	0x9
 1409 056c 7802     		.2byte	0x278
 1410 056e D3000000 		.4byte	0xd3
 1411 0572 40       		.byte	0x40
 1412 0573 09       		.uleb128 0x9
 1413 0574 BE060000 		.4byte	.LASF97
ARM GAS  /tmp/ccq5w5Mb.s 			page 26


 1414 0578 09       		.byte	0x9
 1415 0579 7902     		.2byte	0x279
 1416 057b D3000000 		.4byte	0xd3
 1417 057f 44       		.byte	0x44
 1418 0580 09       		.uleb128 0x9
 1419 0581 DF050000 		.4byte	.LASF98
 1420 0585 09       		.byte	0x9
 1421 0586 7A02     		.2byte	0x27a
 1422 0588 7B040000 		.4byte	0x47b
 1423 058c 48       		.byte	0x48
 1424 058d 09       		.uleb128 0x9
 1425 058e 2F010000 		.4byte	.LASF99
 1426 0592 09       		.byte	0x9
 1427 0593 7B02     		.2byte	0x27b
 1428 0595 D3000000 		.4byte	0xd3
 1429 0599 50       		.byte	0x50
 1430 059a 09       		.uleb128 0x9
 1431 059b 65050000 		.4byte	.LASF100
 1432 059f 09       		.byte	0x9
 1433 05a0 7C02     		.2byte	0x27c
 1434 05a2 D3000000 		.4byte	0xd3
 1435 05a6 54       		.byte	0x54
 1436 05a7 09       		.uleb128 0x9
 1437 05a8 7D060000 		.4byte	.LASF101
 1438 05ac 09       		.byte	0x9
 1439 05ad 7D02     		.2byte	0x27d
 1440 05af D3000000 		.4byte	0xd3
 1441 05b3 58       		.byte	0x58
 1442 05b4 09       		.uleb128 0x9
 1443 05b5 00070000 		.4byte	.LASF102
 1444 05b9 09       		.byte	0x9
 1445 05ba 7E02     		.2byte	0x27e
 1446 05bc B8000000 		.4byte	0xb8
 1447 05c0 5C       		.byte	0x5c
 1448 05c1 09       		.uleb128 0x9
 1449 05c2 D5010000 		.4byte	.LASF103
 1450 05c6 09       		.byte	0x9
 1451 05c7 7F02     		.2byte	0x27f
 1452 05c9 D3000000 		.4byte	0xd3
 1453 05cd 60       		.byte	0x60
 1454 05ce 09       		.uleb128 0x9
 1455 05cf 82040000 		.4byte	.LASF104
 1456 05d3 09       		.byte	0x9
 1457 05d4 8002     		.2byte	0x280
 1458 05d6 D3000000 		.4byte	0xd3
 1459 05da 64       		.byte	0x64
 1460 05db 09       		.uleb128 0x9
 1461 05dc 0F070000 		.4byte	.LASF105
 1462 05e0 09       		.byte	0x9
 1463 05e1 8102     		.2byte	0x281
 1464 05e3 7B040000 		.4byte	0x47b
 1465 05e7 68       		.byte	0x68
 1466 05e8 09       		.uleb128 0x9
 1467 05e9 85080000 		.4byte	.LASF106
 1468 05ed 09       		.byte	0x9
 1469 05ee 8202     		.2byte	0x282
 1470 05f0 D3000000 		.4byte	0xd3
ARM GAS  /tmp/ccq5w5Mb.s 			page 27


 1471 05f4 70       		.byte	0x70
 1472 05f5 08       		.uleb128 0x8
 1473 05f6 43535200 		.ascii	"CSR\000"
 1474 05fa 09       		.byte	0x9
 1475 05fb 8302     		.2byte	0x283
 1476 05fd D3000000 		.4byte	0xd3
 1477 0601 74       		.byte	0x74
 1478 0602 09       		.uleb128 0x9
 1479 0603 19070000 		.4byte	.LASF107
 1480 0607 09       		.byte	0x9
 1481 0608 8402     		.2byte	0x284
 1482 060a 7B040000 		.4byte	0x47b
 1483 060e 78       		.byte	0x78
 1484 060f 09       		.uleb128 0x9
 1485 0610 53080000 		.4byte	.LASF108
 1486 0614 09       		.byte	0x9
 1487 0615 8502     		.2byte	0x285
 1488 0617 D3000000 		.4byte	0xd3
 1489 061b 80       		.byte	0x80
 1490 061c 09       		.uleb128 0x9
 1491 061d 2F040000 		.4byte	.LASF109
 1492 0621 09       		.byte	0x9
 1493 0622 8602     		.2byte	0x286
 1494 0624 D3000000 		.4byte	0xd3
 1495 0628 84       		.byte	0x84
 1496 0629 00       		.byte	0
 1497 062a 13       		.uleb128 0x13
 1498 062b E7030000 		.4byte	.LASF110
 1499 062f 09       		.byte	0x9
 1500 0630 8802     		.2byte	0x288
 1501 0632 9B040000 		.4byte	0x49b
 1502 0636 04       		.uleb128 0x4
 1503 0637 23030000 		.4byte	.LASF111
 1504 063b 0A       		.byte	0xa
 1505 063c 65       		.byte	0x65
 1506 063d 3E030000 		.4byte	0x33e
 1507 0641 04       		.uleb128 0x4
 1508 0642 E2040000 		.4byte	.LASF112
 1509 0646 0A       		.byte	0xa
 1510 0647 6D       		.byte	0x6d
 1511 0648 C3000000 		.4byte	0xc3
 1512 064c 06       		.uleb128 0x6
 1513 064d 0D040000 		.4byte	.LASF113
 1514 0651 04       		.byte	0x4
 1515 0652 0A       		.byte	0xa
 1516 0653 89       		.byte	0x89
 1517 0654 65060000 		.4byte	0x665
 1518 0658 14       		.uleb128 0x14
 1519 0659 72313300 		.ascii	"r13\000"
 1520 065d 0A       		.byte	0xa
 1521 065e 8A       		.byte	0x8a
 1522 065f A6070000 		.4byte	0x7a6
 1523 0663 00       		.byte	0
 1524 0664 00       		.byte	0
 1525 0665 06       		.uleb128 0x6
 1526 0666 60000000 		.4byte	.LASF114
 1527 066a 64       		.byte	0x64
ARM GAS  /tmp/ccq5w5Mb.s 			page 28


 1528 066b 0B       		.byte	0xb
 1529 066c F4       		.byte	0xf4
 1530 066d A6070000 		.4byte	0x7a6
 1531 0671 14       		.uleb128 0x14
 1532 0672 73313600 		.ascii	"s16\000"
 1533 0676 0B       		.byte	0xb
 1534 0677 F6       		.byte	0xf6
 1535 0678 36060000 		.4byte	0x636
 1536 067c 00       		.byte	0
 1537 067d 14       		.uleb128 0x14
 1538 067e 73313700 		.ascii	"s17\000"
 1539 0682 0B       		.byte	0xb
 1540 0683 F7       		.byte	0xf7
 1541 0684 36060000 		.4byte	0x636
 1542 0688 04       		.byte	0x4
 1543 0689 14       		.uleb128 0x14
 1544 068a 73313800 		.ascii	"s18\000"
 1545 068e 0B       		.byte	0xb
 1546 068f F8       		.byte	0xf8
 1547 0690 36060000 		.4byte	0x636
 1548 0694 08       		.byte	0x8
 1549 0695 14       		.uleb128 0x14
 1550 0696 73313900 		.ascii	"s19\000"
 1551 069a 0B       		.byte	0xb
 1552 069b F9       		.byte	0xf9
 1553 069c 36060000 		.4byte	0x636
 1554 06a0 0C       		.byte	0xc
 1555 06a1 14       		.uleb128 0x14
 1556 06a2 73323000 		.ascii	"s20\000"
 1557 06a6 0B       		.byte	0xb
 1558 06a7 FA       		.byte	0xfa
 1559 06a8 36060000 		.4byte	0x636
 1560 06ac 10       		.byte	0x10
 1561 06ad 14       		.uleb128 0x14
 1562 06ae 73323100 		.ascii	"s21\000"
 1563 06b2 0B       		.byte	0xb
 1564 06b3 FB       		.byte	0xfb
 1565 06b4 36060000 		.4byte	0x636
 1566 06b8 14       		.byte	0x14
 1567 06b9 14       		.uleb128 0x14
 1568 06ba 73323200 		.ascii	"s22\000"
 1569 06be 0B       		.byte	0xb
 1570 06bf FC       		.byte	0xfc
 1571 06c0 36060000 		.4byte	0x636
 1572 06c4 18       		.byte	0x18
 1573 06c5 14       		.uleb128 0x14
 1574 06c6 73323300 		.ascii	"s23\000"
 1575 06ca 0B       		.byte	0xb
 1576 06cb FD       		.byte	0xfd
 1577 06cc 36060000 		.4byte	0x636
 1578 06d0 1C       		.byte	0x1c
 1579 06d1 14       		.uleb128 0x14
 1580 06d2 73323400 		.ascii	"s24\000"
 1581 06d6 0B       		.byte	0xb
 1582 06d7 FE       		.byte	0xfe
 1583 06d8 36060000 		.4byte	0x636
 1584 06dc 20       		.byte	0x20
ARM GAS  /tmp/ccq5w5Mb.s 			page 29


 1585 06dd 14       		.uleb128 0x14
 1586 06de 73323500 		.ascii	"s25\000"
 1587 06e2 0B       		.byte	0xb
 1588 06e3 FF       		.byte	0xff
 1589 06e4 36060000 		.4byte	0x636
 1590 06e8 24       		.byte	0x24
 1591 06e9 08       		.uleb128 0x8
 1592 06ea 73323600 		.ascii	"s26\000"
 1593 06ee 0B       		.byte	0xb
 1594 06ef 0001     		.2byte	0x100
 1595 06f1 36060000 		.4byte	0x636
 1596 06f5 28       		.byte	0x28
 1597 06f6 08       		.uleb128 0x8
 1598 06f7 73323700 		.ascii	"s27\000"
 1599 06fb 0B       		.byte	0xb
 1600 06fc 0101     		.2byte	0x101
 1601 06fe 36060000 		.4byte	0x636
 1602 0702 2C       		.byte	0x2c
 1603 0703 08       		.uleb128 0x8
 1604 0704 73323800 		.ascii	"s28\000"
 1605 0708 0B       		.byte	0xb
 1606 0709 0201     		.2byte	0x102
 1607 070b 36060000 		.4byte	0x636
 1608 070f 30       		.byte	0x30
 1609 0710 08       		.uleb128 0x8
 1610 0711 73323900 		.ascii	"s29\000"
 1611 0715 0B       		.byte	0xb
 1612 0716 0301     		.2byte	0x103
 1613 0718 36060000 		.4byte	0x636
 1614 071c 34       		.byte	0x34
 1615 071d 08       		.uleb128 0x8
 1616 071e 73333000 		.ascii	"s30\000"
 1617 0722 0B       		.byte	0xb
 1618 0723 0401     		.2byte	0x104
 1619 0725 36060000 		.4byte	0x636
 1620 0729 38       		.byte	0x38
 1621 072a 08       		.uleb128 0x8
 1622 072b 73333100 		.ascii	"s31\000"
 1623 072f 0B       		.byte	0xb
 1624 0730 0501     		.2byte	0x105
 1625 0732 36060000 		.4byte	0x636
 1626 0736 3C       		.byte	0x3c
 1627 0737 08       		.uleb128 0x8
 1628 0738 723400   		.ascii	"r4\000"
 1629 073b 0B       		.byte	0xb
 1630 073c 0701     		.2byte	0x107
 1631 073e 36060000 		.4byte	0x636
 1632 0742 40       		.byte	0x40
 1633 0743 08       		.uleb128 0x8
 1634 0744 723500   		.ascii	"r5\000"
 1635 0747 0B       		.byte	0xb
 1636 0748 0801     		.2byte	0x108
 1637 074a 36060000 		.4byte	0x636
 1638 074e 44       		.byte	0x44
 1639 074f 08       		.uleb128 0x8
 1640 0750 723600   		.ascii	"r6\000"
 1641 0753 0B       		.byte	0xb
ARM GAS  /tmp/ccq5w5Mb.s 			page 30


 1642 0754 0901     		.2byte	0x109
 1643 0756 36060000 		.4byte	0x636
 1644 075a 48       		.byte	0x48
 1645 075b 08       		.uleb128 0x8
 1646 075c 723700   		.ascii	"r7\000"
 1647 075f 0B       		.byte	0xb
 1648 0760 0A01     		.2byte	0x10a
 1649 0762 36060000 		.4byte	0x636
 1650 0766 4C       		.byte	0x4c
 1651 0767 08       		.uleb128 0x8
 1652 0768 723800   		.ascii	"r8\000"
 1653 076b 0B       		.byte	0xb
 1654 076c 0B01     		.2byte	0x10b
 1655 076e 36060000 		.4byte	0x636
 1656 0772 50       		.byte	0x50
 1657 0773 08       		.uleb128 0x8
 1658 0774 723900   		.ascii	"r9\000"
 1659 0777 0B       		.byte	0xb
 1660 0778 0C01     		.2byte	0x10c
 1661 077a 36060000 		.4byte	0x636
 1662 077e 54       		.byte	0x54
 1663 077f 08       		.uleb128 0x8
 1664 0780 72313000 		.ascii	"r10\000"
 1665 0784 0B       		.byte	0xb
 1666 0785 0D01     		.2byte	0x10d
 1667 0787 36060000 		.4byte	0x636
 1668 078b 58       		.byte	0x58
 1669 078c 08       		.uleb128 0x8
 1670 078d 72313100 		.ascii	"r11\000"
 1671 0791 0B       		.byte	0xb
 1672 0792 0E01     		.2byte	0x10e
 1673 0794 36060000 		.4byte	0x636
 1674 0798 5C       		.byte	0x5c
 1675 0799 08       		.uleb128 0x8
 1676 079a 6C7200   		.ascii	"lr\000"
 1677 079d 0B       		.byte	0xb
 1678 079e 0F01     		.2byte	0x10f
 1679 07a0 36060000 		.4byte	0x636
 1680 07a4 60       		.byte	0x60
 1681 07a5 00       		.byte	0
 1682 07a6 0A       		.uleb128 0xa
 1683 07a7 04       		.byte	0x4
 1684 07a8 65060000 		.4byte	0x665
 1685 07ac 15       		.uleb128 0x15
 1686 07ad 04       		.byte	0x4
 1687 07ae 0C       		.byte	0xc
 1688 07af 38       		.byte	0x38
 1689 07b0 C1070000 		.4byte	0x7c1
 1690 07b4 07       		.uleb128 0x7
 1691 07b5 FD070000 		.4byte	.LASF115
 1692 07b9 0C       		.byte	0xc
 1693 07ba 3C       		.byte	0x3c
 1694 07bb D8000000 		.4byte	0xd8
 1695 07bf 00       		.byte	0
 1696 07c0 00       		.byte	0
 1697 07c1 04       		.uleb128 0x4
 1698 07c2 46050000 		.4byte	.LASF116
ARM GAS  /tmp/ccq5w5Mb.s 			page 31


 1699 07c6 0C       		.byte	0xc
 1700 07c7 3D       		.byte	0x3d
 1701 07c8 AC070000 		.4byte	0x7ac
 1702 07cc 16       		.uleb128 0x16
 1703 07cd 04       		.byte	0x4
 1704 07ce 08       		.byte	0x8
 1705 07cf FA       		.byte	0xfa
 1706 07d0 29080000 		.4byte	0x829
 1707 07d4 17       		.uleb128 0x17
 1708 07d5 2F000000 		.4byte	.LASF117
 1709 07d9 08       		.byte	0x8
 1710 07da 0101     		.2byte	0x101
 1711 07dc 1A010000 		.4byte	0x11a
 1712 07e0 17       		.uleb128 0x17
 1713 07e1 71040000 		.4byte	.LASF118
 1714 07e5 08       		.byte	0x8
 1715 07e6 0801     		.2byte	0x108
 1716 07e8 1A010000 		.4byte	0x11a
 1717 07ec 17       		.uleb128 0x17
 1718 07ed 8E060000 		.4byte	.LASF119
 1719 07f1 08       		.byte	0x8
 1720 07f2 0F01     		.2byte	0x10f
 1721 07f4 3E030000 		.4byte	0x33e
 1722 07f8 17       		.uleb128 0x17
 1723 07f9 37050000 		.4byte	.LASF120
 1724 07fd 08       		.byte	0x8
 1725 07fe 1601     		.2byte	0x116
 1726 0800 29080000 		.4byte	0x829
 1727 0804 17       		.uleb128 0x17
 1728 0805 AC030000 		.4byte	.LASF121
 1729 0809 08       		.byte	0x8
 1730 080a 1E01     		.2byte	0x11e
 1731 080c 54080000 		.4byte	0x854
 1732 0810 17       		.uleb128 0x17
 1733 0811 31070000 		.4byte	.LASF122
 1734 0815 08       		.byte	0x8
 1735 0816 2701     		.2byte	0x127
 1736 0818 8B080000 		.4byte	0x88b
 1737 081c 17       		.uleb128 0x17
 1738 081d 95060000 		.4byte	.LASF123
 1739 0821 08       		.byte	0x8
 1740 0822 2F01     		.2byte	0x12f
 1741 0824 25010000 		.4byte	0x125
 1742 0828 00       		.byte	0
 1743 0829 0A       		.uleb128 0xa
 1744 082a 04       		.byte	0x4
 1745 082b 56020000 		.4byte	0x256
 1746 082f 06       		.uleb128 0x6
 1747 0830 E3060000 		.4byte	.LASF124
 1748 0834 0C       		.byte	0xc
 1749 0835 0D       		.byte	0xd
 1750 0836 34       		.byte	0x34
 1751 0837 54080000 		.4byte	0x854
 1752 083b 07       		.uleb128 0x7
 1753 083c F9080000 		.4byte	.LASF125
 1754 0840 0D       		.byte	0xd
 1755 0841 35       		.byte	0x35
ARM GAS  /tmp/ccq5w5Mb.s 			page 32


 1756 0842 8B020000 		.4byte	0x28b
 1757 0846 00       		.byte	0
 1758 0847 07       		.uleb128 0x7
 1759 0848 07040000 		.4byte	.LASF126
 1760 084c 0D       		.byte	0xd
 1761 084d 37       		.byte	0x37
 1762 084e 30010000 		.4byte	0x130
 1763 0852 08       		.byte	0x8
 1764 0853 00       		.byte	0
 1765 0854 0A       		.uleb128 0xa
 1766 0855 04       		.byte	0x4
 1767 0856 2F080000 		.4byte	0x82f
 1768 085a 06       		.uleb128 0x6
 1769 085b D2080000 		.4byte	.LASF127
 1770 085f 10       		.byte	0x10
 1771 0860 0E       		.byte	0xe
 1772 0861 39       		.byte	0x39
 1773 0862 8B080000 		.4byte	0x88b
 1774 0866 07       		.uleb128 0x7
 1775 0867 8C010000 		.4byte	.LASF128
 1776 086b 0E       		.byte	0xe
 1777 086c 3A       		.byte	0x3a
 1778 086d 8B020000 		.4byte	0x28b
 1779 0871 00       		.byte	0
 1780 0872 07       		.uleb128 0x7
 1781 0873 3F090000 		.4byte	.LASF129
 1782 0877 0E       		.byte	0xe
 1783 0878 3C       		.byte	0x3c
 1784 0879 61020000 		.4byte	0x261
 1785 087d 08       		.byte	0x8
 1786 087e 07       		.uleb128 0x7
 1787 087f B5070000 		.4byte	.LASF130
 1788 0883 0E       		.byte	0xe
 1789 0884 3E       		.byte	0x3e
 1790 0885 CE080000 		.4byte	0x8ce
 1791 0889 0C       		.byte	0xc
 1792 088a 00       		.byte	0
 1793 088b 0A       		.uleb128 0xa
 1794 088c 04       		.byte	0x4
 1795 088d 5A080000 		.4byte	0x85a
 1796 0891 0A       		.uleb128 0xa
 1797 0892 04       		.byte	0x4
 1798 0893 97080000 		.4byte	0x897
 1799 0897 18       		.uleb128 0x18
 1800 0898 9C080000 		.4byte	0x89c
 1801 089c 02       		.uleb128 0x2
 1802 089d 01       		.byte	0x1
 1803 089e 08       		.byte	0x8
 1804 089f 6D070000 		.4byte	.LASF131
 1805 08a3 05       		.uleb128 0x5
 1806 08a4 3B010000 		.4byte	0x13b
 1807 08a8 0A       		.uleb128 0xa
 1808 08a9 04       		.byte	0x4
 1809 08aa 40030000 		.4byte	0x340
 1810 08ae 05       		.uleb128 0x5
 1811 08af 91080000 		.4byte	0x891
 1812 08b3 10       		.uleb128 0x10
ARM GAS  /tmp/ccq5w5Mb.s 			page 33


 1813 08b4 41060000 		.4byte	0x641
 1814 08b8 C3080000 		.4byte	0x8c3
 1815 08bc 11       		.uleb128 0x11
 1816 08bd 74040000 		.4byte	0x474
 1817 08c1 3A       		.byte	0x3a
 1818 08c2 00       		.byte	0
 1819 08c3 04       		.uleb128 0x4
 1820 08c4 5B030000 		.4byte	.LASF132
 1821 08c8 0E       		.byte	0xe
 1822 08c9 34       		.byte	0x34
 1823 08ca 5A080000 		.4byte	0x85a
 1824 08ce 0A       		.uleb128 0xa
 1825 08cf 04       		.byte	0x4
 1826 08d0 C3080000 		.4byte	0x8c3
 1827 08d4 02       		.uleb128 0x2
 1828 08d5 04       		.byte	0x4
 1829 08d6 04       		.byte	0x4
 1830 08d7 B3050000 		.4byte	.LASF133
 1831 08db 02       		.uleb128 0x2
 1832 08dc 01       		.byte	0x1
 1833 08dd 02       		.byte	0x2
 1834 08de 3B060000 		.4byte	.LASF134
 1835 08e2 0A       		.uleb128 0xa
 1836 08e3 04       		.byte	0x4
 1837 08e4 D3000000 		.4byte	0xd3
 1838 08e8 19       		.uleb128 0x19
 1839 08e9 01       		.byte	0x1
 1840 08ea 0F       		.byte	0xf
 1841 08eb 31       		.byte	0x31
 1842 08ec 0F090000 		.4byte	0x90f
 1843 08f0 1A       		.uleb128 0x1a
 1844 08f1 8A080000 		.4byte	.LASF135
 1845 08f5 00       		.sleb128 0
 1846 08f6 1A       		.uleb128 0x1a
 1847 08f7 6F050000 		.4byte	.LASF136
 1848 08fb 01       		.sleb128 1
 1849 08fc 1A       		.uleb128 0x1a
 1850 08fd D8040000 		.4byte	.LASF137
 1851 0901 02       		.sleb128 2
 1852 0902 1A       		.uleb128 0x1a
 1853 0903 3F000000 		.4byte	.LASF138
 1854 0907 03       		.sleb128 3
 1855 0908 1A       		.uleb128 0x1a
 1856 0909 4B000000 		.4byte	.LASF139
 1857 090d 04       		.sleb128 4
 1858 090e 00       		.byte	0
 1859 090f 04       		.uleb128 0x4
 1860 0910 94000000 		.4byte	.LASF140
 1861 0914 0F       		.byte	0xf
 1862 0915 37       		.byte	0x37
 1863 0916 E8080000 		.4byte	0x8e8
 1864 091a 04       		.uleb128 0x4
 1865 091b 5F040000 		.4byte	.LASF141
 1866 091f 0F       		.byte	0xf
 1867 0920 3C       		.byte	0x3c
 1868 0921 25090000 		.4byte	0x925
 1869 0925 0B       		.uleb128 0xb
ARM GAS  /tmp/ccq5w5Mb.s 			page 34


 1870 0926 5F040000 		.4byte	.LASF141
 1871 092a 18       		.byte	0x18
 1872 092b 10       		.byte	0x10
 1873 092c 3101     		.2byte	0x131
 1874 092e 81090000 		.4byte	0x981
 1875 0932 09       		.uleb128 0x9
 1876 0933 B3010000 		.4byte	.LASF142
 1877 0937 10       		.byte	0x10
 1878 0938 3501     		.2byte	0x135
 1879 093a 0F090000 		.4byte	0x90f
 1880 093e 00       		.byte	0
 1881 093f 09       		.uleb128 0x9
 1882 0940 7D070000 		.4byte	.LASF143
 1883 0944 10       		.byte	0x10
 1884 0945 3901     		.2byte	0x139
 1885 0947 810B0000 		.4byte	0xb81
 1886 094b 04       		.byte	0x4
 1887 094c 09       		.uleb128 0x9
 1888 094d 21090000 		.4byte	.LASF144
 1889 0951 10       		.byte	0x10
 1890 0952 4101     		.2byte	0x141
 1891 0954 B8000000 		.4byte	0xb8
 1892 0958 08       		.byte	0x8
 1893 0959 08       		.uleb128 0x8
 1894 095a 74696D00 		.ascii	"tim\000"
 1895 095e 10       		.byte	0x10
 1896 095f 4501     		.2byte	0x145
 1897 0961 8C0B0000 		.4byte	0xb8c
 1898 0965 0C       		.byte	0xc
 1899 0966 09       		.uleb128 0x9
 1900 0967 39090000 		.4byte	.LASF145
 1901 096b 10       		.byte	0x10
 1902 096c 4901     		.2byte	0x149
 1903 096e E2080000 		.4byte	0x8e2
 1904 0972 10       		.byte	0x10
 1905 0973 09       		.uleb128 0x9
 1906 0974 8C040000 		.4byte	.LASF146
 1907 0978 10       		.byte	0x10
 1908 0979 4D01     		.2byte	0x14d
 1909 097b E2080000 		.4byte	0x8e2
 1910 097f 14       		.byte	0x14
 1911 0980 00       		.byte	0
 1912 0981 04       		.uleb128 0x4
 1913 0982 D9030000 		.4byte	.LASF147
 1914 0986 0F       		.byte	0xf
 1915 0987 43       		.byte	0x43
 1916 0988 8C090000 		.4byte	0x98c
 1917 098c 0A       		.uleb128 0xa
 1918 098d 04       		.byte	0x4
 1919 098e 92090000 		.4byte	0x992
 1920 0992 0C       		.uleb128 0xc
 1921 0993 9D090000 		.4byte	0x99d
 1922 0997 0D       		.uleb128 0xd
 1923 0998 9D090000 		.4byte	0x99d
 1924 099c 00       		.byte	0
 1925 099d 0A       		.uleb128 0xa
 1926 099e 04       		.byte	0x4
ARM GAS  /tmp/ccq5w5Mb.s 			page 35


 1927 099f 1A090000 		.4byte	0x91a
 1928 09a3 12       		.uleb128 0x12
 1929 09a4 60       		.byte	0x60
 1930 09a5 11       		.byte	0x11
 1931 09a6 9E01     		.2byte	0x19e
 1932 09a8 AF0A0000 		.4byte	0xaaf
 1933 09ac 08       		.uleb128 0x8
 1934 09ad 43523100 		.ascii	"CR1\000"
 1935 09b1 11       		.byte	0x11
 1936 09b2 9F01     		.2byte	0x19f
 1937 09b4 D3000000 		.4byte	0xd3
 1938 09b8 00       		.byte	0
 1939 09b9 08       		.uleb128 0x8
 1940 09ba 43523200 		.ascii	"CR2\000"
 1941 09be 11       		.byte	0x11
 1942 09bf A001     		.2byte	0x1a0
 1943 09c1 D3000000 		.4byte	0xd3
 1944 09c5 04       		.byte	0x4
 1945 09c6 09       		.uleb128 0x9
 1946 09c7 5D010000 		.4byte	.LASF148
 1947 09cb 11       		.byte	0x11
 1948 09cc A101     		.2byte	0x1a1
 1949 09ce D3000000 		.4byte	0xd3
 1950 09d2 08       		.byte	0x8
 1951 09d3 09       		.uleb128 0x9
 1952 09d4 23000000 		.4byte	.LASF149
 1953 09d8 11       		.byte	0x11
 1954 09d9 A201     		.2byte	0x1a2
 1955 09db D3000000 		.4byte	0xd3
 1956 09df 0C       		.byte	0xc
 1957 09e0 08       		.uleb128 0x8
 1958 09e1 535200   		.ascii	"SR\000"
 1959 09e4 11       		.byte	0x11
 1960 09e5 A301     		.2byte	0x1a3
 1961 09e7 D3000000 		.4byte	0xd3
 1962 09eb 10       		.byte	0x10
 1963 09ec 08       		.uleb128 0x8
 1964 09ed 45475200 		.ascii	"EGR\000"
 1965 09f1 11       		.byte	0x11
 1966 09f2 A401     		.2byte	0x1a4
 1967 09f4 D3000000 		.4byte	0xd3
 1968 09f8 14       		.byte	0x14
 1969 09f9 09       		.uleb128 0x9
 1970 09fa 51010000 		.4byte	.LASF150
 1971 09fe 11       		.byte	0x11
 1972 09ff A501     		.2byte	0x1a5
 1973 0a01 D3000000 		.4byte	0xd3
 1974 0a05 18       		.byte	0x18
 1975 0a06 09       		.uleb128 0x9
 1976 0a07 57010000 		.4byte	.LASF151
 1977 0a0b 11       		.byte	0x11
 1978 0a0c A601     		.2byte	0x1a6
 1979 0a0e D3000000 		.4byte	0xd3
 1980 0a12 1C       		.byte	0x1c
 1981 0a13 09       		.uleb128 0x9
 1982 0a14 B0070000 		.4byte	.LASF152
 1983 0a18 11       		.byte	0x11
ARM GAS  /tmp/ccq5w5Mb.s 			page 36


 1984 0a19 A701     		.2byte	0x1a7
 1985 0a1b D3000000 		.4byte	0xd3
 1986 0a1f 20       		.byte	0x20
 1987 0a20 08       		.uleb128 0x8
 1988 0a21 434E5400 		.ascii	"CNT\000"
 1989 0a25 11       		.byte	0x11
 1990 0a26 A801     		.2byte	0x1a8
 1991 0a28 D3000000 		.4byte	0xd3
 1992 0a2c 24       		.byte	0x24
 1993 0a2d 08       		.uleb128 0x8
 1994 0a2e 50534300 		.ascii	"PSC\000"
 1995 0a32 11       		.byte	0x11
 1996 0a33 A901     		.2byte	0x1a9
 1997 0a35 D3000000 		.4byte	0xd3
 1998 0a39 28       		.byte	0x28
 1999 0a3a 08       		.uleb128 0x8
 2000 0a3b 41525200 		.ascii	"ARR\000"
 2001 0a3f 11       		.byte	0x11
 2002 0a40 AA01     		.2byte	0x1aa
 2003 0a42 D3000000 		.4byte	0xd3
 2004 0a46 2C       		.byte	0x2c
 2005 0a47 08       		.uleb128 0x8
 2006 0a48 52435200 		.ascii	"RCR\000"
 2007 0a4c 11       		.byte	0x11
 2008 0a4d AB01     		.2byte	0x1ab
 2009 0a4f D3000000 		.4byte	0xd3
 2010 0a53 30       		.byte	0x30
 2011 0a54 08       		.uleb128 0x8
 2012 0a55 43435200 		.ascii	"CCR\000"
 2013 0a59 11       		.byte	0x11
 2014 0a5a AC01     		.2byte	0x1ac
 2015 0a5c AF0A0000 		.4byte	0xaaf
 2016 0a60 34       		.byte	0x34
 2017 0a61 09       		.uleb128 0x9
 2018 0a62 E4000000 		.4byte	.LASF153
 2019 0a66 11       		.byte	0x11
 2020 0a67 AD01     		.2byte	0x1ad
 2021 0a69 D3000000 		.4byte	0xd3
 2022 0a6d 44       		.byte	0x44
 2023 0a6e 08       		.uleb128 0x8
 2024 0a6f 44435200 		.ascii	"DCR\000"
 2025 0a73 11       		.byte	0x11
 2026 0a74 AE01     		.2byte	0x1ae
 2027 0a76 D3000000 		.4byte	0xd3
 2028 0a7a 48       		.byte	0x48
 2029 0a7b 09       		.uleb128 0x9
 2030 0a7c 99070000 		.4byte	.LASF154
 2031 0a80 11       		.byte	0x11
 2032 0a81 AF01     		.2byte	0x1af
 2033 0a83 D3000000 		.4byte	0xd3
 2034 0a87 4C       		.byte	0x4c
 2035 0a88 08       		.uleb128 0x8
 2036 0a89 4F5200   		.ascii	"OR\000"
 2037 0a8c 11       		.byte	0x11
 2038 0a8d B001     		.2byte	0x1b0
 2039 0a8f D3000000 		.4byte	0xd3
 2040 0a93 50       		.byte	0x50
ARM GAS  /tmp/ccq5w5Mb.s 			page 37


 2041 0a94 09       		.uleb128 0x9
 2042 0a95 73000000 		.4byte	.LASF155
 2043 0a99 11       		.byte	0x11
 2044 0a9a B101     		.2byte	0x1b1
 2045 0a9c D3000000 		.4byte	0xd3
 2046 0aa0 54       		.byte	0x54
 2047 0aa1 09       		.uleb128 0x9
 2048 0aa2 F0060000 		.4byte	.LASF156
 2049 0aa6 11       		.byte	0x11
 2050 0aa7 B201     		.2byte	0x1b2
 2051 0aa9 B40A0000 		.4byte	0xab4
 2052 0aad 58       		.byte	0x58
 2053 0aae 00       		.byte	0
 2054 0aaf 05       		.uleb128 0x5
 2055 0ab0 8B040000 		.4byte	0x48b
 2056 0ab4 05       		.uleb128 0x5
 2057 0ab5 7B040000 		.4byte	0x47b
 2058 0ab9 13       		.uleb128 0x13
 2059 0aba 6E010000 		.4byte	.LASF157
 2060 0abe 11       		.byte	0x11
 2061 0abf B301     		.2byte	0x1b3
 2062 0ac1 A3090000 		.4byte	0x9a3
 2063 0ac5 19       		.uleb128 0x19
 2064 0ac6 01       		.byte	0x1
 2065 0ac7 10       		.byte	0x10
 2066 0ac8 EE       		.byte	0xee
 2067 0ac9 DA0A0000 		.4byte	0xada
 2068 0acd 1A       		.uleb128 0x1a
 2069 0ace 00000000 		.4byte	.LASF158
 2070 0ad2 00       		.sleb128 0
 2071 0ad3 1A       		.uleb128 0x1a
 2072 0ad4 80050000 		.4byte	.LASF159
 2073 0ad8 01       		.sleb128 1
 2074 0ad9 00       		.byte	0
 2075 0ada 04       		.uleb128 0x4
 2076 0adb 61060000 		.4byte	.LASF160
 2077 0adf 10       		.byte	0x10
 2078 0ae0 F1       		.byte	0xf1
 2079 0ae1 C50A0000 		.4byte	0xac5
 2080 0ae5 04       		.uleb128 0x4
 2081 0ae6 2E080000 		.4byte	.LASF161
 2082 0aea 10       		.byte	0x10
 2083 0aeb F6       		.byte	0xf6
 2084 0aec B8000000 		.4byte	0xb8
 2085 0af0 19       		.uleb128 0x19
 2086 0af1 01       		.byte	0x1
 2087 0af2 10       		.byte	0x10
 2088 0af3 FB       		.byte	0xfb
 2089 0af4 050B0000 		.4byte	0xb05
 2090 0af8 1A       		.uleb128 0x1a
 2091 0af9 12050000 		.4byte	.LASF162
 2092 0afd 00       		.sleb128 0
 2093 0afe 1A       		.uleb128 0x1a
 2094 0aff CB030000 		.4byte	.LASF163
 2095 0b03 01       		.sleb128 1
 2096 0b04 00       		.byte	0
 2097 0b05 04       		.uleb128 0x4
ARM GAS  /tmp/ccq5w5Mb.s 			page 38


 2098 0b06 C6060000 		.4byte	.LASF164
 2099 0b0a 10       		.byte	0x10
 2100 0b0b FE       		.byte	0xfe
 2101 0b0c F00A0000 		.4byte	0xaf0
 2102 0b10 12       		.uleb128 0x12
 2103 0b11 1C       		.byte	0x1c
 2104 0b12 10       		.byte	0x10
 2105 0b13 0901     		.2byte	0x109
 2106 0b15 750B0000 		.4byte	0xb75
 2107 0b19 09       		.uleb128 0x9
 2108 0b1a 72070000 		.4byte	.LASF165
 2109 0b1e 10       		.byte	0x10
 2110 0b1f 0D01     		.2byte	0x10d
 2111 0b21 DA0A0000 		.4byte	0xada
 2112 0b25 00       		.byte	0
 2113 0b26 09       		.uleb128 0x9
 2114 0b27 49040000 		.4byte	.LASF166
 2115 0b2b 10       		.byte	0x10
 2116 0b2c 1301     		.2byte	0x113
 2117 0b2e E50A0000 		.4byte	0xae5
 2118 0b32 04       		.byte	0x4
 2119 0b33 09       		.uleb128 0x9
 2120 0b34 3D050000 		.4byte	.LASF167
 2121 0b38 10       		.byte	0x10
 2122 0b39 1701     		.2byte	0x117
 2123 0b3b 81090000 		.4byte	0x981
 2124 0b3f 08       		.byte	0x8
 2125 0b40 09       		.uleb128 0x9
 2126 0b41 FD030000 		.4byte	.LASF168
 2127 0b45 10       		.byte	0x10
 2128 0b46 1B01     		.2byte	0x11b
 2129 0b48 81090000 		.4byte	0x981
 2130 0b4c 0C       		.byte	0xc
 2131 0b4d 09       		.uleb128 0x9
 2132 0b4e 15040000 		.4byte	.LASF169
 2133 0b52 10       		.byte	0x10
 2134 0b53 1F01     		.2byte	0x11f
 2135 0b55 81090000 		.4byte	0x981
 2136 0b59 10       		.byte	0x10
 2137 0b5a 09       		.uleb128 0x9
 2138 0b5b D3060000 		.4byte	.LASF170
 2139 0b5f 10       		.byte	0x10
 2140 0b60 2501     		.2byte	0x125
 2141 0b62 050B0000 		.4byte	0xb05
 2142 0b66 14       		.byte	0x14
 2143 0b67 09       		.uleb128 0x9
 2144 0b68 67090000 		.4byte	.LASF171
 2145 0b6c 10       		.byte	0x10
 2146 0b6d 2B01     		.2byte	0x12b
 2147 0b6f B8000000 		.4byte	0xb8
 2148 0b73 18       		.byte	0x18
 2149 0b74 00       		.byte	0
 2150 0b75 13       		.uleb128 0x13
 2151 0b76 7A010000 		.4byte	.LASF172
 2152 0b7a 10       		.byte	0x10
 2153 0b7b 2C01     		.2byte	0x12c
 2154 0b7d 100B0000 		.4byte	0xb10
ARM GAS  /tmp/ccq5w5Mb.s 			page 39


 2155 0b81 0A       		.uleb128 0xa
 2156 0b82 04       		.byte	0x4
 2157 0b83 870B0000 		.4byte	0xb87
 2158 0b87 18       		.uleb128 0x18
 2159 0b88 750B0000 		.4byte	0xb75
 2160 0b8c 0A       		.uleb128 0xa
 2161 0b8d 04       		.byte	0x4
 2162 0b8e B90A0000 		.4byte	0xab9
 2163 0b92 1B       		.uleb128 0x1b
 2164 0b93 E5070000 		.4byte	.LASF175
 2165 0b97 02       		.byte	0x2
 2166 0b98 2002     		.2byte	0x220
 2167 0b9a 03       		.byte	0x3
 2168 0b9b AC0B0000 		.4byte	0xbac
 2169 0b9f 1C       		.uleb128 0x1c
 2170 0ba0 63030000 		.4byte	.LASF178
 2171 0ba4 02       		.byte	0x2
 2172 0ba5 2002     		.2byte	0x220
 2173 0ba7 B8000000 		.4byte	0xb8
 2174 0bab 00       		.byte	0
 2175 0bac 1D       		.uleb128 0x1d
 2176 0bad 8A000000 		.4byte	.LASF173
 2177 0bb1 0B       		.byte	0xb
 2178 0bb2 BC01     		.2byte	0x1bc
 2179 0bb4 03       		.byte	0x3
 2180 0bb5 1D       		.uleb128 0x1d
 2181 0bb6 94010000 		.4byte	.LASF174
 2182 0bba 0B       		.byte	0xb
 2183 0bbb CA01     		.2byte	0x1ca
 2184 0bbd 03       		.byte	0x3
 2185 0bbe 1B       		.uleb128 0x1b
 2186 0bbf 0F090000 		.4byte	.LASF176
 2187 0bc3 12       		.byte	0x12
 2188 0bc4 6601     		.2byte	0x166
 2189 0bc6 03       		.byte	0x3
 2190 0bc7 D90B0000 		.4byte	0xbd9
 2191 0bcb 1E       		.uleb128 0x1e
 2192 0bcc AB060000 		.4byte	.LASF180
 2193 0bd0 E90B0000 		.4byte	0xbe9
 2194 0bd4 0F090000 		.4byte	.LASF176
 2195 0bd8 00       		.byte	0
 2196 0bd9 10       		.uleb128 0x10
 2197 0bda 9C080000 		.4byte	0x89c
 2198 0bde E90B0000 		.4byte	0xbe9
 2199 0be2 11       		.uleb128 0x11
 2200 0be3 74040000 		.4byte	0x474
 2201 0be7 0B       		.byte	0xb
 2202 0be8 00       		.byte	0
 2203 0be9 18       		.uleb128 0x18
 2204 0bea D90B0000 		.4byte	0xbd9
 2205 0bee 1D       		.uleb128 0x1d
 2206 0bef B4060000 		.4byte	.LASF177
 2207 0bf3 12       		.byte	0x12
 2208 0bf4 5A01     		.2byte	0x15a
 2209 0bf6 03       		.byte	0x3
 2210 0bf7 1F       		.uleb128 0x1f
 2211 0bf8 27090000 		.4byte	.LASF198
ARM GAS  /tmp/ccq5w5Mb.s 			page 40


 2212 0bfc 01       		.byte	0x1
 2213 0bfd 69       		.byte	0x69
 2214 0bfe DB080000 		.4byte	0x8db
 2215 0c02 01       		.byte	0x1
 2216 0c03 280C0000 		.4byte	0xc28
 2217 0c07 20       		.uleb128 0x20
 2218 0c08 26060000 		.4byte	.LASF179
 2219 0c0c 01       		.byte	0x1
 2220 0c0d 69       		.byte	0x69
 2221 0c0e 9D090000 		.4byte	0x99d
 2222 0c12 21       		.uleb128 0x21
 2223 0c13 737200   		.ascii	"sr\000"
 2224 0c16 01       		.byte	0x1
 2225 0c17 6A       		.byte	0x6a
 2226 0c18 B8000000 		.4byte	0xb8
 2227 0c1c 22       		.uleb128 0x22
 2228 0c1d 47090000 		.4byte	.LASF181
 2229 0c21 01       		.byte	0x1
 2230 0c22 6B       		.byte	0x6b
 2231 0c23 DB080000 		.4byte	0x8db
 2232 0c27 00       		.byte	0
 2233 0c28 23       		.uleb128 0x23
 2234 0c29 C0040000 		.4byte	.LASF182
 2235 0c2d 01       		.byte	0x1
 2236 0c2e 92       		.byte	0x92
 2237 0c2f 01       		.byte	0x1
 2238 0c30 4A0C0000 		.4byte	0xc4a
 2239 0c34 20       		.uleb128 0x20
 2240 0c35 26060000 		.4byte	.LASF179
 2241 0c39 01       		.byte	0x1
 2242 0c3a 92       		.byte	0x92
 2243 0c3b 9D090000 		.4byte	0x99d
 2244 0c3f 21       		.uleb128 0x21
 2245 0c40 737200   		.ascii	"sr\000"
 2246 0c43 01       		.byte	0x1
 2247 0c44 93       		.byte	0x93
 2248 0c45 B8000000 		.4byte	0xb8
 2249 0c49 00       		.byte	0
 2250 0c4a 24       		.uleb128 0x24
 2251 0c4b F70B0000 		.4byte	0xbf7
 2252 0c4f 00000000 		.4byte	.LFB267
 2253 0c53 36000000 		.4byte	.LFE267-.LFB267
 2254 0c57 01       		.uleb128 0x1
 2255 0c58 9C       		.byte	0x9c
 2256 0c59 0E0D0000 		.4byte	0xd0e
 2257 0c5d 25       		.uleb128 0x25
 2258 0c5e 070C0000 		.4byte	0xc07
 2259 0c62 06       		.uleb128 0x6
 2260 0c63 FA       		.byte	0xfa
 2261 0c64 070C0000 		.4byte	0xc07
 2262 0c68 9F       		.byte	0x9f
 2263 0c69 25       		.uleb128 0x25
 2264 0c6a 070C0000 		.4byte	0xc07
 2265 0c6e 06       		.uleb128 0x6
 2266 0c6f FA       		.byte	0xfa
 2267 0c70 070C0000 		.4byte	0xc07
 2268 0c74 9F       		.byte	0x9f
ARM GAS  /tmp/ccq5w5Mb.s 			page 41


 2269 0c75 26       		.uleb128 0x26
 2270 0c76 120C0000 		.4byte	0xc12
 2271 0c7a 00000000 		.4byte	.LLST0
 2272 0c7e 26       		.uleb128 0x26
 2273 0c7f 1C0C0000 		.4byte	0xc1c
 2274 0c83 1E000000 		.4byte	.LLST1
 2275 0c87 27       		.uleb128 0x27
 2276 0c88 BE0B0000 		.4byte	0xbbe
 2277 0c8c 00000000 		.4byte	.LBB33
 2278 0c90 06000000 		.4byte	.LBE33-.LBB33
 2279 0c94 01       		.byte	0x1
 2280 0c95 6F       		.byte	0x6f
 2281 0c96 D20C0000 		.4byte	0xcd2
 2282 0c9a 28       		.uleb128 0x28
 2283 0c9b 00000000 		.4byte	.LBB34
 2284 0c9f 06000000 		.4byte	.LBE34-.LBB34
 2285 0ca3 29       		.uleb128 0x29
 2286 0ca4 CB0B0000 		.4byte	0xbcb
 2287 0ca8 2A       		.uleb128 0x2a
 2288 0ca9 B50B0000 		.4byte	0xbb5
 2289 0cad 00000000 		.4byte	.LBB35
 2290 0cb1 06000000 		.4byte	.LBE35-.LBB35
 2291 0cb5 12       		.byte	0x12
 2292 0cb6 7301     		.2byte	0x173
 2293 0cb8 2A       		.uleb128 0x2a
 2294 0cb9 920B0000 		.4byte	0xb92
 2295 0cbd 00000000 		.4byte	.LBB36
 2296 0cc1 06000000 		.4byte	.LBE36-.LBB36
 2297 0cc5 0B       		.byte	0xb
 2298 0cc6 CD01     		.2byte	0x1cd
 2299 0cc8 2B       		.uleb128 0x2b
 2300 0cc9 9F0B0000 		.4byte	0xb9f
 2301 0ccd 00       		.byte	0
 2302 0cce 00       		.byte	0
 2303 0ccf 00       		.byte	0
 2304 0cd0 00       		.byte	0
 2305 0cd1 00       		.byte	0
 2306 0cd2 2C       		.uleb128 0x2c
 2307 0cd3 EE0B0000 		.4byte	0xbee
 2308 0cd7 14000000 		.4byte	.LBB38
 2309 0cdb 06000000 		.4byte	.LBE38-.LBB38
 2310 0cdf 01       		.byte	0x1
 2311 0ce0 83       		.byte	0x83
 2312 0ce1 2A       		.uleb128 0x2a
 2313 0ce2 AC0B0000 		.4byte	0xbac
 2314 0ce6 14000000 		.4byte	.LBB39
 2315 0cea 06000000 		.4byte	.LBE39-.LBB39
 2316 0cee 12       		.byte	0x12
 2317 0cef 5C01     		.2byte	0x15c
 2318 0cf1 2A       		.uleb128 0x2a
 2319 0cf2 920B0000 		.4byte	0xb92
 2320 0cf6 14000000 		.4byte	.LBB40
 2321 0cfa 06000000 		.4byte	.LBE40-.LBB40
 2322 0cfe 0B       		.byte	0xb
 2323 0cff BF01     		.2byte	0x1bf
 2324 0d01 2D       		.uleb128 0x2d
 2325 0d02 9F0B0000 		.4byte	0xb9f
ARM GAS  /tmp/ccq5w5Mb.s 			page 42


 2326 0d06 35000000 		.4byte	.LLST2
 2327 0d0a 00       		.byte	0
 2328 0d0b 00       		.byte	0
 2329 0d0c 00       		.byte	0
 2330 0d0d 00       		.byte	0
 2331 0d0e 2E       		.uleb128 0x2e
 2332 0d0f AA010000 		.4byte	.LASF183
 2333 0d13 01       		.byte	0x1
 2334 0d14 F8       		.byte	0xf8
 2335 0d15 00000000 		.4byte	.LFB258
 2336 0d19 80000000 		.4byte	.LFE258-.LFB258
 2337 0d1d 01       		.uleb128 0x1
 2338 0d1e 9C       		.byte	0x9c
 2339 0d1f 880D0000 		.4byte	0xd88
 2340 0d23 2F       		.uleb128 0x2f
 2341 0d24 280C0000 		.4byte	0xc28
 2342 0d28 02000000 		.4byte	.LBB44
 2343 0d2c 00000000 		.4byte	.Ldebug_ranges0+0
 2344 0d30 01       		.byte	0x1
 2345 0d31 FC       		.byte	0xfc
 2346 0d32 7E0D0000 		.4byte	0xd7e
 2347 0d36 25       		.uleb128 0x25
 2348 0d37 340C0000 		.4byte	0xc34
 2349 0d3b 06       		.uleb128 0x6
 2350 0d3c 03       		.byte	0x3
 2351 0d3d 00000000 		.4byte	ICUD3
 2352 0d41 9F       		.byte	0x9f
 2353 0d42 30       		.uleb128 0x30
 2354 0d43 00000000 		.4byte	.Ldebug_ranges0+0
 2355 0d47 26       		.uleb128 0x26
 2356 0d48 3F0C0000 		.4byte	0xc3f
 2357 0d4c 4A000000 		.4byte	.LLST3
 2358 0d50 31       		.uleb128 0x31
 2359 0d51 32000000 		.4byte	.LVL9
 2360 0d55 600D0000 		.4byte	0xd60
 2361 0d59 32       		.uleb128 0x32
 2362 0d5a 01       		.uleb128 0x1
 2363 0d5b 50       		.byte	0x50
 2364 0d5c 02       		.uleb128 0x2
 2365 0d5d 74       		.byte	0x74
 2366 0d5e 00       		.sleb128 0
 2367 0d5f 00       		.byte	0
 2368 0d60 31       		.uleb128 0x31
 2369 0d61 50000000 		.4byte	.LVL12
 2370 0d65 700D0000 		.4byte	0xd70
 2371 0d69 32       		.uleb128 0x32
 2372 0d6a 01       		.uleb128 0x1
 2373 0d6b 50       		.byte	0x50
 2374 0d6c 02       		.uleb128 0x2
 2375 0d6d 74       		.byte	0x74
 2376 0d6e 00       		.sleb128 0
 2377 0d6f 00       		.byte	0
 2378 0d70 33       		.uleb128 0x33
 2379 0d71 78000000 		.4byte	.LVL14
 2380 0d75 32       		.uleb128 0x32
 2381 0d76 01       		.uleb128 0x1
 2382 0d77 50       		.byte	0x50
ARM GAS  /tmp/ccq5w5Mb.s 			page 43


 2383 0d78 02       		.uleb128 0x2
 2384 0d79 74       		.byte	0x74
 2385 0d7a 00       		.sleb128 0
 2386 0d7b 00       		.byte	0
 2387 0d7c 00       		.byte	0
 2388 0d7d 00       		.byte	0
 2389 0d7e 34       		.uleb128 0x34
 2390 0d7f 3E000000 		.4byte	.LVL11
 2391 0d83 900F0000 		.4byte	0xf90
 2392 0d87 00       		.byte	0
 2393 0d88 35       		.uleb128 0x35
 2394 0d89 19080000 		.4byte	.LASF184
 2395 0d8d 01       		.byte	0x1
 2396 0d8e 7701     		.2byte	0x177
 2397 0d90 00000000 		.4byte	.LFB259
 2398 0d94 18000000 		.4byte	.LFE259-.LFB259
 2399 0d98 01       		.uleb128 0x1
 2400 0d99 9C       		.byte	0x9c
 2401 0d9a AF0D0000 		.4byte	0xdaf
 2402 0d9e 36       		.uleb128 0x36
 2403 0d9f 0A000000 		.4byte	.LVL15
 2404 0da3 980F0000 		.4byte	0xf98
 2405 0da7 32       		.uleb128 0x32
 2406 0da8 01       		.uleb128 0x1
 2407 0da9 50       		.byte	0x50
 2408 0daa 02       		.uleb128 0x2
 2409 0dab 74       		.byte	0x74
 2410 0dac 00       		.sleb128 0
 2411 0dad 00       		.byte	0
 2412 0dae 00       		.byte	0
 2413 0daf 35       		.uleb128 0x35
 2414 0db0 01090000 		.4byte	.LASF185
 2415 0db4 01       		.byte	0x1
 2416 0db5 AB01     		.2byte	0x1ab
 2417 0db7 00000000 		.4byte	.LFB260
 2418 0dbb BC000000 		.4byte	.LFE260-.LFB260
 2419 0dbf 01       		.uleb128 0x1
 2420 0dc0 9C       		.byte	0x9c
 2421 0dc1 030E0000 		.4byte	0xe03
 2422 0dc5 37       		.uleb128 0x37
 2423 0dc6 26060000 		.4byte	.LASF179
 2424 0dca 01       		.byte	0x1
 2425 0dcb AB01     		.2byte	0x1ab
 2426 0dcd 9D090000 		.4byte	0x99d
 2427 0dd1 7D000000 		.4byte	.LLST4
 2428 0dd5 38       		.uleb128 0x38
 2429 0dd6 70736300 		.ascii	"psc\000"
 2430 0dda 01       		.byte	0x1
 2431 0ddb AC01     		.2byte	0x1ac
 2432 0ddd B8000000 		.4byte	0xb8
 2433 0de1 C7000000 		.4byte	.LLST5
 2434 0de5 39       		.uleb128 0x39
 2435 0de6 AB060000 		.4byte	.LASF180
 2436 0dea 130E0000 		.4byte	0xe13
 2437 0dee 36       		.uleb128 0x36
 2438 0def A8000000 		.4byte	.LVL32
 2439 0df3 A90F0000 		.4byte	0xfa9
ARM GAS  /tmp/ccq5w5Mb.s 			page 44


 2440 0df7 32       		.uleb128 0x32
 2441 0df8 01       		.uleb128 0x1
 2442 0df9 51       		.byte	0x51
 2443 0dfa 01       		.uleb128 0x1
 2444 0dfb 37       		.byte	0x37
 2445 0dfc 32       		.uleb128 0x32
 2446 0dfd 01       		.uleb128 0x1
 2447 0dfe 50       		.byte	0x50
 2448 0dff 01       		.uleb128 0x1
 2449 0e00 4D       		.byte	0x4d
 2450 0e01 00       		.byte	0
 2451 0e02 00       		.byte	0
 2452 0e03 10       		.uleb128 0x10
 2453 0e04 9C080000 		.4byte	0x89c
 2454 0e08 130E0000 		.4byte	0xe13
 2455 0e0c 11       		.uleb128 0x11
 2456 0e0d 74040000 		.4byte	0x474
 2457 0e11 0D       		.byte	0xd
 2458 0e12 00       		.byte	0
 2459 0e13 18       		.uleb128 0x18
 2460 0e14 030E0000 		.4byte	0xe03
 2461 0e18 35       		.uleb128 0x35
 2462 0e19 0C080000 		.4byte	.LASF186
 2463 0e1d 01       		.byte	0x1
 2464 0e1e 4502     		.2byte	0x245
 2465 0e20 00000000 		.4byte	.LFB261
 2466 0e24 34000000 		.4byte	.LFE261-.LFB261
 2467 0e28 01       		.uleb128 0x1
 2468 0e29 9C       		.byte	0x9c
 2469 0e2a 4E0E0000 		.4byte	0xe4e
 2470 0e2e 37       		.uleb128 0x37
 2471 0e2f 26060000 		.4byte	.LASF179
 2472 0e33 01       		.byte	0x1
 2473 0e34 4502     		.2byte	0x245
 2474 0e36 9D090000 		.4byte	0x99d
 2475 0e3a 59010000 		.4byte	.LLST6
 2476 0e3e 36       		.uleb128 0x36
 2477 0e3f 20000000 		.4byte	.LVL37
 2478 0e43 BF0F0000 		.4byte	0xfbf
 2479 0e47 32       		.uleb128 0x32
 2480 0e48 01       		.uleb128 0x1
 2481 0e49 50       		.byte	0x50
 2482 0e4a 01       		.uleb128 0x1
 2483 0e4b 4D       		.byte	0x4d
 2484 0e4c 00       		.byte	0
 2485 0e4d 00       		.byte	0
 2486 0e4e 35       		.uleb128 0x35
 2487 0e4f E8010000 		.4byte	.LASF187
 2488 0e53 01       		.byte	0x1
 2489 0e54 8302     		.2byte	0x283
 2490 0e56 00000000 		.4byte	.LFB262
 2491 0e5a 14000000 		.4byte	.LFE262-.LFB262
 2492 0e5e 01       		.uleb128 0x1
 2493 0e5f 9C       		.byte	0x9c
 2494 0e60 750E0000 		.4byte	0xe75
 2495 0e64 37       		.uleb128 0x37
 2496 0e65 26060000 		.4byte	.LASF179
ARM GAS  /tmp/ccq5w5Mb.s 			page 45


 2497 0e69 01       		.byte	0x1
 2498 0e6a 8302     		.2byte	0x283
 2499 0e6c 9D090000 		.4byte	0x99d
 2500 0e70 93010000 		.4byte	.LLST7
 2501 0e74 00       		.byte	0
 2502 0e75 3A       		.uleb128 0x3a
 2503 0e76 70080000 		.4byte	.LASF199
 2504 0e7a 01       		.byte	0x1
 2505 0e7b 9902     		.2byte	0x299
 2506 0e7d DB080000 		.4byte	0x8db
 2507 0e81 00000000 		.4byte	.LFB263
 2508 0e85 2A000000 		.4byte	.LFE263-.LFB263
 2509 0e89 01       		.uleb128 0x1
 2510 0e8a 9C       		.byte	0x9c
 2511 0e8b E70E0000 		.4byte	0xee7
 2512 0e8f 37       		.uleb128 0x37
 2513 0e90 26060000 		.4byte	.LASF179
 2514 0e94 01       		.byte	0x1
 2515 0e95 9902     		.2byte	0x299
 2516 0e97 9D090000 		.4byte	0x99d
 2517 0e9b B4010000 		.4byte	.LLST8
 2518 0e9f 3B       		.uleb128 0x3b
 2519 0ea0 1C000000 		.4byte	.LVL43
 2520 0ea4 4A0C0000 		.4byte	0xc4a
 2521 0ea8 C80E0000 		.4byte	0xec8
 2522 0eac 32       		.uleb128 0x32
 2523 0ead 01       		.uleb128 0x1
 2524 0eae 51       		.byte	0x51
 2525 0eaf 05       		.uleb128 0x5
 2526 0eb0 F3       		.byte	0xf3
 2527 0eb1 01       		.uleb128 0x1
 2528 0eb2 50       		.byte	0x50
 2529 0eb3 23       		.byte	0x23
 2530 0eb4 0C       		.uleb128 0xc
 2531 0eb5 32       		.uleb128 0x32
 2532 0eb6 01       		.uleb128 0x1
 2533 0eb7 50       		.byte	0x50
 2534 0eb8 05       		.uleb128 0x5
 2535 0eb9 F3       		.byte	0xf3
 2536 0eba 01       		.uleb128 0x1
 2537 0ebb 50       		.byte	0x50
 2538 0ebc 23       		.byte	0x23
 2539 0ebd 04       		.uleb128 0x4
 2540 0ebe 3C       		.uleb128 0x3c
 2541 0ebf 070C0000 		.4byte	0xc07
 2542 0ec3 03       		.uleb128 0x3
 2543 0ec4 F3       		.byte	0xf3
 2544 0ec5 01       		.uleb128 0x1
 2545 0ec6 50       		.byte	0x50
 2546 0ec7 00       		.byte	0
 2547 0ec8 36       		.uleb128 0x36
 2548 0ec9 24000000 		.4byte	.LVL45
 2549 0ecd 4A0C0000 		.4byte	0xc4a
 2550 0ed1 32       		.uleb128 0x32
 2551 0ed2 01       		.uleb128 0x1
 2552 0ed3 51       		.byte	0x51
 2553 0ed4 02       		.uleb128 0x2
ARM GAS  /tmp/ccq5w5Mb.s 			page 46


 2554 0ed5 74       		.byte	0x74
 2555 0ed6 00       		.sleb128 0
 2556 0ed7 32       		.uleb128 0x32
 2557 0ed8 01       		.uleb128 0x1
 2558 0ed9 50       		.byte	0x50
 2559 0eda 02       		.uleb128 0x2
 2560 0edb 75       		.byte	0x75
 2561 0edc 00       		.sleb128 0
 2562 0edd 3C       		.uleb128 0x3c
 2563 0ede 070C0000 		.4byte	0xc07
 2564 0ee2 02       		.uleb128 0x2
 2565 0ee3 74       		.byte	0x74
 2566 0ee4 74       		.sleb128 -12
 2567 0ee5 00       		.byte	0
 2568 0ee6 00       		.byte	0
 2569 0ee7 35       		.uleb128 0x35
 2570 0ee8 84070000 		.4byte	.LASF188
 2571 0eec 01       		.byte	0x1
 2572 0eed AC02     		.2byte	0x2ac
 2573 0eef 00000000 		.4byte	.LFB264
 2574 0ef3 10000000 		.4byte	.LFE264-.LFB264
 2575 0ef7 01       		.uleb128 0x1
 2576 0ef8 9C       		.byte	0x9c
 2577 0ef9 0C0F0000 		.4byte	0xf0c
 2578 0efd 3D       		.uleb128 0x3d
 2579 0efe 26060000 		.4byte	.LASF179
 2580 0f02 01       		.byte	0x1
 2581 0f03 AC02     		.2byte	0x2ac
 2582 0f05 9D090000 		.4byte	0x99d
 2583 0f09 01       		.uleb128 0x1
 2584 0f0a 50       		.byte	0x50
 2585 0f0b 00       		.byte	0
 2586 0f0c 35       		.uleb128 0x35
 2587 0f0d ED040000 		.4byte	.LASF189
 2588 0f11 01       		.byte	0x1
 2589 0f12 BE02     		.2byte	0x2be
 2590 0f14 00000000 		.4byte	.LFB265
 2591 0f18 3E000000 		.4byte	.LFE265-.LFB265
 2592 0f1c 01       		.uleb128 0x1
 2593 0f1d 9C       		.byte	0x9c
 2594 0f1e 430F0000 		.4byte	0xf43
 2595 0f22 37       		.uleb128 0x37
 2596 0f23 26060000 		.4byte	.LASF179
 2597 0f27 01       		.byte	0x1
 2598 0f28 BE02     		.2byte	0x2be
 2599 0f2a 9D090000 		.4byte	0x99d
 2600 0f2e 07020000 		.4byte	.LLST9
 2601 0f32 3E       		.uleb128 0x3e
 2602 0f33 67090000 		.4byte	.LASF171
 2603 0f37 01       		.byte	0x1
 2604 0f38 BF02     		.2byte	0x2bf
 2605 0f3a B8000000 		.4byte	0xb8
 2606 0f3e 28020000 		.4byte	.LLST10
 2607 0f42 00       		.byte	0
 2608 0f43 35       		.uleb128 0x35
 2609 0f44 00060000 		.4byte	.LASF190
 2610 0f48 01       		.byte	0x1
ARM GAS  /tmp/ccq5w5Mb.s 			page 47


 2611 0f49 EC02     		.2byte	0x2ec
 2612 0f4b 00000000 		.4byte	.LFB266
 2613 0f4f 0C000000 		.4byte	.LFE266-.LFB266
 2614 0f53 01       		.uleb128 0x1
 2615 0f54 9C       		.byte	0x9c
 2616 0f55 680F0000 		.4byte	0xf68
 2617 0f59 3D       		.uleb128 0x3d
 2618 0f5a 26060000 		.4byte	.LASF179
 2619 0f5e 01       		.byte	0x1
 2620 0f5f EC02     		.2byte	0x2ec
 2621 0f61 9D090000 		.4byte	0x99d
 2622 0f65 01       		.uleb128 0x1
 2623 0f66 50       		.byte	0x50
 2624 0f67 00       		.byte	0
 2625 0f68 3F       		.uleb128 0x3f
 2626 0f69 D7000000 		.4byte	.LASF191
 2627 0f6d 13       		.byte	0x13
 2628 0f6e A706     		.2byte	0x6a7
 2629 0f70 CE000000 		.4byte	0xce
 2630 0f74 40       		.uleb128 0x40
 2631 0f75 636800   		.ascii	"ch\000"
 2632 0f78 08       		.byte	0x8
 2633 0f79 0902     		.2byte	0x209
 2634 0f7b 0D040000 		.4byte	0x40d
 2635 0f7f 41       		.uleb128 0x41
 2636 0f80 77070000 		.4byte	.LASF192
 2637 0f84 01       		.byte	0x1
 2638 0f85 3E       		.byte	0x3e
 2639 0f86 1A090000 		.4byte	0x91a
 2640 0f8a 05       		.uleb128 0x5
 2641 0f8b 03       		.byte	0x3
 2642 0f8c 00000000 		.4byte	ICUD3
 2643 0f90 42       		.uleb128 0x42
 2644 0f91 95080000 		.4byte	.LASF200
 2645 0f95 0B       		.byte	0xb
 2646 0f96 6601     		.2byte	0x166
 2647 0f98 43       		.uleb128 0x43
 2648 0f99 23070000 		.4byte	.LASF193
 2649 0f9d 0F       		.byte	0xf
 2650 0f9e DE       		.byte	0xde
 2651 0f9f A90F0000 		.4byte	0xfa9
 2652 0fa3 0D       		.uleb128 0xd
 2653 0fa4 9D090000 		.4byte	0x99d
 2654 0fa8 00       		.byte	0
 2655 0fa9 43       		.uleb128 0x43
 2656 0faa 40010000 		.4byte	.LASF194
 2657 0fae 14       		.byte	0x14
 2658 0faf 4E       		.byte	0x4e
 2659 0fb0 BF0F0000 		.4byte	0xfbf
 2660 0fb4 0D       		.uleb128 0xd
 2661 0fb5 B8000000 		.4byte	0xb8
 2662 0fb9 0D       		.uleb128 0xd
 2663 0fba B8000000 		.4byte	0xb8
 2664 0fbe 00       		.byte	0
 2665 0fbf 44       		.uleb128 0x44
 2666 0fc0 93030000 		.4byte	.LASF201
 2667 0fc4 14       		.byte	0x14
ARM GAS  /tmp/ccq5w5Mb.s 			page 48


 2668 0fc5 4F       		.byte	0x4f
 2669 0fc6 0D       		.uleb128 0xd
 2670 0fc7 B8000000 		.4byte	0xb8
 2671 0fcb 00       		.byte	0
 2672 0fcc 00       		.byte	0
 2673              		.section	.debug_abbrev,"",%progbits
 2674              	.Ldebug_abbrev0:
 2675 0000 01       		.uleb128 0x1
 2676 0001 11       		.uleb128 0x11
 2677 0002 01       		.byte	0x1
 2678 0003 25       		.uleb128 0x25
 2679 0004 0E       		.uleb128 0xe
 2680 0005 13       		.uleb128 0x13
 2681 0006 0B       		.uleb128 0xb
 2682 0007 03       		.uleb128 0x3
 2683 0008 0E       		.uleb128 0xe
 2684 0009 1B       		.uleb128 0x1b
 2685 000a 0E       		.uleb128 0xe
 2686 000b 55       		.uleb128 0x55
 2687 000c 17       		.uleb128 0x17
 2688 000d 11       		.uleb128 0x11
 2689 000e 01       		.uleb128 0x1
 2690 000f 10       		.uleb128 0x10
 2691 0010 17       		.uleb128 0x17
 2692 0011 00       		.byte	0
 2693 0012 00       		.byte	0
 2694 0013 02       		.uleb128 0x2
 2695 0014 24       		.uleb128 0x24
 2696 0015 00       		.byte	0
 2697 0016 0B       		.uleb128 0xb
 2698 0017 0B       		.uleb128 0xb
 2699 0018 3E       		.uleb128 0x3e
 2700 0019 0B       		.uleb128 0xb
 2701 001a 03       		.uleb128 0x3
 2702 001b 0E       		.uleb128 0xe
 2703 001c 00       		.byte	0
 2704 001d 00       		.byte	0
 2705 001e 03       		.uleb128 0x3
 2706 001f 24       		.uleb128 0x24
 2707 0020 00       		.byte	0
 2708 0021 0B       		.uleb128 0xb
 2709 0022 0B       		.uleb128 0xb
 2710 0023 3E       		.uleb128 0x3e
 2711 0024 0B       		.uleb128 0xb
 2712 0025 03       		.uleb128 0x3
 2713 0026 08       		.uleb128 0x8
 2714 0027 00       		.byte	0
 2715 0028 00       		.byte	0
 2716 0029 04       		.uleb128 0x4
 2717 002a 16       		.uleb128 0x16
 2718 002b 00       		.byte	0
 2719 002c 03       		.uleb128 0x3
 2720 002d 0E       		.uleb128 0xe
 2721 002e 3A       		.uleb128 0x3a
 2722 002f 0B       		.uleb128 0xb
 2723 0030 3B       		.uleb128 0x3b
 2724 0031 0B       		.uleb128 0xb
ARM GAS  /tmp/ccq5w5Mb.s 			page 49


 2725 0032 49       		.uleb128 0x49
 2726 0033 13       		.uleb128 0x13
 2727 0034 00       		.byte	0
 2728 0035 00       		.byte	0
 2729 0036 05       		.uleb128 0x5
 2730 0037 35       		.uleb128 0x35
 2731 0038 00       		.byte	0
 2732 0039 49       		.uleb128 0x49
 2733 003a 13       		.uleb128 0x13
 2734 003b 00       		.byte	0
 2735 003c 00       		.byte	0
 2736 003d 06       		.uleb128 0x6
 2737 003e 13       		.uleb128 0x13
 2738 003f 01       		.byte	0x1
 2739 0040 03       		.uleb128 0x3
 2740 0041 0E       		.uleb128 0xe
 2741 0042 0B       		.uleb128 0xb
 2742 0043 0B       		.uleb128 0xb
 2743 0044 3A       		.uleb128 0x3a
 2744 0045 0B       		.uleb128 0xb
 2745 0046 3B       		.uleb128 0x3b
 2746 0047 0B       		.uleb128 0xb
 2747 0048 01       		.uleb128 0x1
 2748 0049 13       		.uleb128 0x13
 2749 004a 00       		.byte	0
 2750 004b 00       		.byte	0
 2751 004c 07       		.uleb128 0x7
 2752 004d 0D       		.uleb128 0xd
 2753 004e 00       		.byte	0
 2754 004f 03       		.uleb128 0x3
 2755 0050 0E       		.uleb128 0xe
 2756 0051 3A       		.uleb128 0x3a
 2757 0052 0B       		.uleb128 0xb
 2758 0053 3B       		.uleb128 0x3b
 2759 0054 0B       		.uleb128 0xb
 2760 0055 49       		.uleb128 0x49
 2761 0056 13       		.uleb128 0x13
 2762 0057 38       		.uleb128 0x38
 2763 0058 0B       		.uleb128 0xb
 2764 0059 00       		.byte	0
 2765 005a 00       		.byte	0
 2766 005b 08       		.uleb128 0x8
 2767 005c 0D       		.uleb128 0xd
 2768 005d 00       		.byte	0
 2769 005e 03       		.uleb128 0x3
 2770 005f 08       		.uleb128 0x8
 2771 0060 3A       		.uleb128 0x3a
 2772 0061 0B       		.uleb128 0xb
 2773 0062 3B       		.uleb128 0x3b
 2774 0063 05       		.uleb128 0x5
 2775 0064 49       		.uleb128 0x49
 2776 0065 13       		.uleb128 0x13
 2777 0066 38       		.uleb128 0x38
 2778 0067 0B       		.uleb128 0xb
 2779 0068 00       		.byte	0
 2780 0069 00       		.byte	0
 2781 006a 09       		.uleb128 0x9
ARM GAS  /tmp/ccq5w5Mb.s 			page 50


 2782 006b 0D       		.uleb128 0xd
 2783 006c 00       		.byte	0
 2784 006d 03       		.uleb128 0x3
 2785 006e 0E       		.uleb128 0xe
 2786 006f 3A       		.uleb128 0x3a
 2787 0070 0B       		.uleb128 0xb
 2788 0071 3B       		.uleb128 0x3b
 2789 0072 05       		.uleb128 0x5
 2790 0073 49       		.uleb128 0x49
 2791 0074 13       		.uleb128 0x13
 2792 0075 38       		.uleb128 0x38
 2793 0076 0B       		.uleb128 0xb
 2794 0077 00       		.byte	0
 2795 0078 00       		.byte	0
 2796 0079 0A       		.uleb128 0xa
 2797 007a 0F       		.uleb128 0xf
 2798 007b 00       		.byte	0
 2799 007c 0B       		.uleb128 0xb
 2800 007d 0B       		.uleb128 0xb
 2801 007e 49       		.uleb128 0x49
 2802 007f 13       		.uleb128 0x13
 2803 0080 00       		.byte	0
 2804 0081 00       		.byte	0
 2805 0082 0B       		.uleb128 0xb
 2806 0083 13       		.uleb128 0x13
 2807 0084 01       		.byte	0x1
 2808 0085 03       		.uleb128 0x3
 2809 0086 0E       		.uleb128 0xe
 2810 0087 0B       		.uleb128 0xb
 2811 0088 0B       		.uleb128 0xb
 2812 0089 3A       		.uleb128 0x3a
 2813 008a 0B       		.uleb128 0xb
 2814 008b 3B       		.uleb128 0x3b
 2815 008c 05       		.uleb128 0x5
 2816 008d 01       		.uleb128 0x1
 2817 008e 13       		.uleb128 0x13
 2818 008f 00       		.byte	0
 2819 0090 00       		.byte	0
 2820 0091 0C       		.uleb128 0xc
 2821 0092 15       		.uleb128 0x15
 2822 0093 01       		.byte	0x1
 2823 0094 27       		.uleb128 0x27
 2824 0095 19       		.uleb128 0x19
 2825 0096 01       		.uleb128 0x1
 2826 0097 13       		.uleb128 0x13
 2827 0098 00       		.byte	0
 2828 0099 00       		.byte	0
 2829 009a 0D       		.uleb128 0xd
 2830 009b 05       		.uleb128 0x5
 2831 009c 00       		.byte	0
 2832 009d 49       		.uleb128 0x49
 2833 009e 13       		.uleb128 0x13
 2834 009f 00       		.byte	0
 2835 00a0 00       		.byte	0
 2836 00a1 0E       		.uleb128 0xe
 2837 00a2 0F       		.uleb128 0xf
 2838 00a3 00       		.byte	0
ARM GAS  /tmp/ccq5w5Mb.s 			page 51


 2839 00a4 0B       		.uleb128 0xb
 2840 00a5 0B       		.uleb128 0xb
 2841 00a6 00       		.byte	0
 2842 00a7 00       		.byte	0
 2843 00a8 0F       		.uleb128 0xf
 2844 00a9 13       		.uleb128 0x13
 2845 00aa 01       		.byte	0x1
 2846 00ab 03       		.uleb128 0x3
 2847 00ac 0E       		.uleb128 0xe
 2848 00ad 0B       		.uleb128 0xb
 2849 00ae 05       		.uleb128 0x5
 2850 00af 3A       		.uleb128 0x3a
 2851 00b0 0B       		.uleb128 0xb
 2852 00b1 3B       		.uleb128 0x3b
 2853 00b2 05       		.uleb128 0x5
 2854 00b3 01       		.uleb128 0x1
 2855 00b4 13       		.uleb128 0x13
 2856 00b5 00       		.byte	0
 2857 00b6 00       		.byte	0
 2858 00b7 10       		.uleb128 0x10
 2859 00b8 01       		.uleb128 0x1
 2860 00b9 01       		.byte	0x1
 2861 00ba 49       		.uleb128 0x49
 2862 00bb 13       		.uleb128 0x13
 2863 00bc 01       		.uleb128 0x1
 2864 00bd 13       		.uleb128 0x13
 2865 00be 00       		.byte	0
 2866 00bf 00       		.byte	0
 2867 00c0 11       		.uleb128 0x11
 2868 00c1 21       		.uleb128 0x21
 2869 00c2 00       		.byte	0
 2870 00c3 49       		.uleb128 0x49
 2871 00c4 13       		.uleb128 0x13
 2872 00c5 2F       		.uleb128 0x2f
 2873 00c6 0B       		.uleb128 0xb
 2874 00c7 00       		.byte	0
 2875 00c8 00       		.byte	0
 2876 00c9 12       		.uleb128 0x12
 2877 00ca 13       		.uleb128 0x13
 2878 00cb 01       		.byte	0x1
 2879 00cc 0B       		.uleb128 0xb
 2880 00cd 0B       		.uleb128 0xb
 2881 00ce 3A       		.uleb128 0x3a
 2882 00cf 0B       		.uleb128 0xb
 2883 00d0 3B       		.uleb128 0x3b
 2884 00d1 05       		.uleb128 0x5
 2885 00d2 01       		.uleb128 0x1
 2886 00d3 13       		.uleb128 0x13
 2887 00d4 00       		.byte	0
 2888 00d5 00       		.byte	0
 2889 00d6 13       		.uleb128 0x13
 2890 00d7 16       		.uleb128 0x16
 2891 00d8 00       		.byte	0
 2892 00d9 03       		.uleb128 0x3
 2893 00da 0E       		.uleb128 0xe
 2894 00db 3A       		.uleb128 0x3a
 2895 00dc 0B       		.uleb128 0xb
ARM GAS  /tmp/ccq5w5Mb.s 			page 52


 2896 00dd 3B       		.uleb128 0x3b
 2897 00de 05       		.uleb128 0x5
 2898 00df 49       		.uleb128 0x49
 2899 00e0 13       		.uleb128 0x13
 2900 00e1 00       		.byte	0
 2901 00e2 00       		.byte	0
 2902 00e3 14       		.uleb128 0x14
 2903 00e4 0D       		.uleb128 0xd
 2904 00e5 00       		.byte	0
 2905 00e6 03       		.uleb128 0x3
 2906 00e7 08       		.uleb128 0x8
 2907 00e8 3A       		.uleb128 0x3a
 2908 00e9 0B       		.uleb128 0xb
 2909 00ea 3B       		.uleb128 0x3b
 2910 00eb 0B       		.uleb128 0xb
 2911 00ec 49       		.uleb128 0x49
 2912 00ed 13       		.uleb128 0x13
 2913 00ee 38       		.uleb128 0x38
 2914 00ef 0B       		.uleb128 0xb
 2915 00f0 00       		.byte	0
 2916 00f1 00       		.byte	0
 2917 00f2 15       		.uleb128 0x15
 2918 00f3 13       		.uleb128 0x13
 2919 00f4 01       		.byte	0x1
 2920 00f5 0B       		.uleb128 0xb
 2921 00f6 0B       		.uleb128 0xb
 2922 00f7 3A       		.uleb128 0x3a
 2923 00f8 0B       		.uleb128 0xb
 2924 00f9 3B       		.uleb128 0x3b
 2925 00fa 0B       		.uleb128 0xb
 2926 00fb 01       		.uleb128 0x1
 2927 00fc 13       		.uleb128 0x13
 2928 00fd 00       		.byte	0
 2929 00fe 00       		.byte	0
 2930 00ff 16       		.uleb128 0x16
 2931 0100 17       		.uleb128 0x17
 2932 0101 01       		.byte	0x1
 2933 0102 0B       		.uleb128 0xb
 2934 0103 0B       		.uleb128 0xb
 2935 0104 3A       		.uleb128 0x3a
 2936 0105 0B       		.uleb128 0xb
 2937 0106 3B       		.uleb128 0x3b
 2938 0107 0B       		.uleb128 0xb
 2939 0108 01       		.uleb128 0x1
 2940 0109 13       		.uleb128 0x13
 2941 010a 00       		.byte	0
 2942 010b 00       		.byte	0
 2943 010c 17       		.uleb128 0x17
 2944 010d 0D       		.uleb128 0xd
 2945 010e 00       		.byte	0
 2946 010f 03       		.uleb128 0x3
 2947 0110 0E       		.uleb128 0xe
 2948 0111 3A       		.uleb128 0x3a
 2949 0112 0B       		.uleb128 0xb
 2950 0113 3B       		.uleb128 0x3b
 2951 0114 05       		.uleb128 0x5
 2952 0115 49       		.uleb128 0x49
ARM GAS  /tmp/ccq5w5Mb.s 			page 53


 2953 0116 13       		.uleb128 0x13
 2954 0117 00       		.byte	0
 2955 0118 00       		.byte	0
 2956 0119 18       		.uleb128 0x18
 2957 011a 26       		.uleb128 0x26
 2958 011b 00       		.byte	0
 2959 011c 49       		.uleb128 0x49
 2960 011d 13       		.uleb128 0x13
 2961 011e 00       		.byte	0
 2962 011f 00       		.byte	0
 2963 0120 19       		.uleb128 0x19
 2964 0121 04       		.uleb128 0x4
 2965 0122 01       		.byte	0x1
 2966 0123 0B       		.uleb128 0xb
 2967 0124 0B       		.uleb128 0xb
 2968 0125 3A       		.uleb128 0x3a
 2969 0126 0B       		.uleb128 0xb
 2970 0127 3B       		.uleb128 0x3b
 2971 0128 0B       		.uleb128 0xb
 2972 0129 01       		.uleb128 0x1
 2973 012a 13       		.uleb128 0x13
 2974 012b 00       		.byte	0
 2975 012c 00       		.byte	0
 2976 012d 1A       		.uleb128 0x1a
 2977 012e 28       		.uleb128 0x28
 2978 012f 00       		.byte	0
 2979 0130 03       		.uleb128 0x3
 2980 0131 0E       		.uleb128 0xe
 2981 0132 1C       		.uleb128 0x1c
 2982 0133 0D       		.uleb128 0xd
 2983 0134 00       		.byte	0
 2984 0135 00       		.byte	0
 2985 0136 1B       		.uleb128 0x1b
 2986 0137 2E       		.uleb128 0x2e
 2987 0138 01       		.byte	0x1
 2988 0139 03       		.uleb128 0x3
 2989 013a 0E       		.uleb128 0xe
 2990 013b 3A       		.uleb128 0x3a
 2991 013c 0B       		.uleb128 0xb
 2992 013d 3B       		.uleb128 0x3b
 2993 013e 05       		.uleb128 0x5
 2994 013f 27       		.uleb128 0x27
 2995 0140 19       		.uleb128 0x19
 2996 0141 20       		.uleb128 0x20
 2997 0142 0B       		.uleb128 0xb
 2998 0143 01       		.uleb128 0x1
 2999 0144 13       		.uleb128 0x13
 3000 0145 00       		.byte	0
 3001 0146 00       		.byte	0
 3002 0147 1C       		.uleb128 0x1c
 3003 0148 05       		.uleb128 0x5
 3004 0149 00       		.byte	0
 3005 014a 03       		.uleb128 0x3
 3006 014b 0E       		.uleb128 0xe
 3007 014c 3A       		.uleb128 0x3a
 3008 014d 0B       		.uleb128 0xb
 3009 014e 3B       		.uleb128 0x3b
ARM GAS  /tmp/ccq5w5Mb.s 			page 54


 3010 014f 05       		.uleb128 0x5
 3011 0150 49       		.uleb128 0x49
 3012 0151 13       		.uleb128 0x13
 3013 0152 00       		.byte	0
 3014 0153 00       		.byte	0
 3015 0154 1D       		.uleb128 0x1d
 3016 0155 2E       		.uleb128 0x2e
 3017 0156 00       		.byte	0
 3018 0157 03       		.uleb128 0x3
 3019 0158 0E       		.uleb128 0xe
 3020 0159 3A       		.uleb128 0x3a
 3021 015a 0B       		.uleb128 0xb
 3022 015b 3B       		.uleb128 0x3b
 3023 015c 05       		.uleb128 0x5
 3024 015d 27       		.uleb128 0x27
 3025 015e 19       		.uleb128 0x19
 3026 015f 20       		.uleb128 0x20
 3027 0160 0B       		.uleb128 0xb
 3028 0161 00       		.byte	0
 3029 0162 00       		.byte	0
 3030 0163 1E       		.uleb128 0x1e
 3031 0164 34       		.uleb128 0x34
 3032 0165 00       		.byte	0
 3033 0166 03       		.uleb128 0x3
 3034 0167 0E       		.uleb128 0xe
 3035 0168 49       		.uleb128 0x49
 3036 0169 13       		.uleb128 0x13
 3037 016a 34       		.uleb128 0x34
 3038 016b 19       		.uleb128 0x19
 3039 016c 1C       		.uleb128 0x1c
 3040 016d 0E       		.uleb128 0xe
 3041 016e 00       		.byte	0
 3042 016f 00       		.byte	0
 3043 0170 1F       		.uleb128 0x1f
 3044 0171 2E       		.uleb128 0x2e
 3045 0172 01       		.byte	0x1
 3046 0173 03       		.uleb128 0x3
 3047 0174 0E       		.uleb128 0xe
 3048 0175 3A       		.uleb128 0x3a
 3049 0176 0B       		.uleb128 0xb
 3050 0177 3B       		.uleb128 0x3b
 3051 0178 0B       		.uleb128 0xb
 3052 0179 27       		.uleb128 0x27
 3053 017a 19       		.uleb128 0x19
 3054 017b 49       		.uleb128 0x49
 3055 017c 13       		.uleb128 0x13
 3056 017d 20       		.uleb128 0x20
 3057 017e 0B       		.uleb128 0xb
 3058 017f 01       		.uleb128 0x1
 3059 0180 13       		.uleb128 0x13
 3060 0181 00       		.byte	0
 3061 0182 00       		.byte	0
 3062 0183 20       		.uleb128 0x20
 3063 0184 05       		.uleb128 0x5
 3064 0185 00       		.byte	0
 3065 0186 03       		.uleb128 0x3
 3066 0187 0E       		.uleb128 0xe
ARM GAS  /tmp/ccq5w5Mb.s 			page 55


 3067 0188 3A       		.uleb128 0x3a
 3068 0189 0B       		.uleb128 0xb
 3069 018a 3B       		.uleb128 0x3b
 3070 018b 0B       		.uleb128 0xb
 3071 018c 49       		.uleb128 0x49
 3072 018d 13       		.uleb128 0x13
 3073 018e 00       		.byte	0
 3074 018f 00       		.byte	0
 3075 0190 21       		.uleb128 0x21
 3076 0191 34       		.uleb128 0x34
 3077 0192 00       		.byte	0
 3078 0193 03       		.uleb128 0x3
 3079 0194 08       		.uleb128 0x8
 3080 0195 3A       		.uleb128 0x3a
 3081 0196 0B       		.uleb128 0xb
 3082 0197 3B       		.uleb128 0x3b
 3083 0198 0B       		.uleb128 0xb
 3084 0199 49       		.uleb128 0x49
 3085 019a 13       		.uleb128 0x13
 3086 019b 00       		.byte	0
 3087 019c 00       		.byte	0
 3088 019d 22       		.uleb128 0x22
 3089 019e 34       		.uleb128 0x34
 3090 019f 00       		.byte	0
 3091 01a0 03       		.uleb128 0x3
 3092 01a1 0E       		.uleb128 0xe
 3093 01a2 3A       		.uleb128 0x3a
 3094 01a3 0B       		.uleb128 0xb
 3095 01a4 3B       		.uleb128 0x3b
 3096 01a5 0B       		.uleb128 0xb
 3097 01a6 49       		.uleb128 0x49
 3098 01a7 13       		.uleb128 0x13
 3099 01a8 00       		.byte	0
 3100 01a9 00       		.byte	0
 3101 01aa 23       		.uleb128 0x23
 3102 01ab 2E       		.uleb128 0x2e
 3103 01ac 01       		.byte	0x1
 3104 01ad 03       		.uleb128 0x3
 3105 01ae 0E       		.uleb128 0xe
 3106 01af 3A       		.uleb128 0x3a
 3107 01b0 0B       		.uleb128 0xb
 3108 01b1 3B       		.uleb128 0x3b
 3109 01b2 0B       		.uleb128 0xb
 3110 01b3 27       		.uleb128 0x27
 3111 01b4 19       		.uleb128 0x19
 3112 01b5 20       		.uleb128 0x20
 3113 01b6 0B       		.uleb128 0xb
 3114 01b7 01       		.uleb128 0x1
 3115 01b8 13       		.uleb128 0x13
 3116 01b9 00       		.byte	0
 3117 01ba 00       		.byte	0
 3118 01bb 24       		.uleb128 0x24
 3119 01bc 2E       		.uleb128 0x2e
 3120 01bd 01       		.byte	0x1
 3121 01be 31       		.uleb128 0x31
 3122 01bf 13       		.uleb128 0x13
 3123 01c0 11       		.uleb128 0x11
ARM GAS  /tmp/ccq5w5Mb.s 			page 56


 3124 01c1 01       		.uleb128 0x1
 3125 01c2 12       		.uleb128 0x12
 3126 01c3 06       		.uleb128 0x6
 3127 01c4 40       		.uleb128 0x40
 3128 01c5 18       		.uleb128 0x18
 3129 01c6 9742     		.uleb128 0x2117
 3130 01c8 19       		.uleb128 0x19
 3131 01c9 01       		.uleb128 0x1
 3132 01ca 13       		.uleb128 0x13
 3133 01cb 00       		.byte	0
 3134 01cc 00       		.byte	0
 3135 01cd 25       		.uleb128 0x25
 3136 01ce 05       		.uleb128 0x5
 3137 01cf 00       		.byte	0
 3138 01d0 31       		.uleb128 0x31
 3139 01d1 13       		.uleb128 0x13
 3140 01d2 02       		.uleb128 0x2
 3141 01d3 18       		.uleb128 0x18
 3142 01d4 00       		.byte	0
 3143 01d5 00       		.byte	0
 3144 01d6 26       		.uleb128 0x26
 3145 01d7 34       		.uleb128 0x34
 3146 01d8 00       		.byte	0
 3147 01d9 31       		.uleb128 0x31
 3148 01da 13       		.uleb128 0x13
 3149 01db 02       		.uleb128 0x2
 3150 01dc 17       		.uleb128 0x17
 3151 01dd 00       		.byte	0
 3152 01de 00       		.byte	0
 3153 01df 27       		.uleb128 0x27
 3154 01e0 1D       		.uleb128 0x1d
 3155 01e1 01       		.byte	0x1
 3156 01e2 31       		.uleb128 0x31
 3157 01e3 13       		.uleb128 0x13
 3158 01e4 11       		.uleb128 0x11
 3159 01e5 01       		.uleb128 0x1
 3160 01e6 12       		.uleb128 0x12
 3161 01e7 06       		.uleb128 0x6
 3162 01e8 58       		.uleb128 0x58
 3163 01e9 0B       		.uleb128 0xb
 3164 01ea 59       		.uleb128 0x59
 3165 01eb 0B       		.uleb128 0xb
 3166 01ec 01       		.uleb128 0x1
 3167 01ed 13       		.uleb128 0x13
 3168 01ee 00       		.byte	0
 3169 01ef 00       		.byte	0
 3170 01f0 28       		.uleb128 0x28
 3171 01f1 0B       		.uleb128 0xb
 3172 01f2 01       		.byte	0x1
 3173 01f3 11       		.uleb128 0x11
 3174 01f4 01       		.uleb128 0x1
 3175 01f5 12       		.uleb128 0x12
 3176 01f6 06       		.uleb128 0x6
 3177 01f7 00       		.byte	0
 3178 01f8 00       		.byte	0
 3179 01f9 29       		.uleb128 0x29
 3180 01fa 34       		.uleb128 0x34
ARM GAS  /tmp/ccq5w5Mb.s 			page 57


 3181 01fb 00       		.byte	0
 3182 01fc 31       		.uleb128 0x31
 3183 01fd 13       		.uleb128 0x13
 3184 01fe 00       		.byte	0
 3185 01ff 00       		.byte	0
 3186 0200 2A       		.uleb128 0x2a
 3187 0201 1D       		.uleb128 0x1d
 3188 0202 01       		.byte	0x1
 3189 0203 31       		.uleb128 0x31
 3190 0204 13       		.uleb128 0x13
 3191 0205 11       		.uleb128 0x11
 3192 0206 01       		.uleb128 0x1
 3193 0207 12       		.uleb128 0x12
 3194 0208 06       		.uleb128 0x6
 3195 0209 58       		.uleb128 0x58
 3196 020a 0B       		.uleb128 0xb
 3197 020b 59       		.uleb128 0x59
 3198 020c 05       		.uleb128 0x5
 3199 020d 00       		.byte	0
 3200 020e 00       		.byte	0
 3201 020f 2B       		.uleb128 0x2b
 3202 0210 05       		.uleb128 0x5
 3203 0211 00       		.byte	0
 3204 0212 31       		.uleb128 0x31
 3205 0213 13       		.uleb128 0x13
 3206 0214 1C       		.uleb128 0x1c
 3207 0215 0B       		.uleb128 0xb
 3208 0216 00       		.byte	0
 3209 0217 00       		.byte	0
 3210 0218 2C       		.uleb128 0x2c
 3211 0219 1D       		.uleb128 0x1d
 3212 021a 01       		.byte	0x1
 3213 021b 31       		.uleb128 0x31
 3214 021c 13       		.uleb128 0x13
 3215 021d 11       		.uleb128 0x11
 3216 021e 01       		.uleb128 0x1
 3217 021f 12       		.uleb128 0x12
 3218 0220 06       		.uleb128 0x6
 3219 0221 58       		.uleb128 0x58
 3220 0222 0B       		.uleb128 0xb
 3221 0223 59       		.uleb128 0x59
 3222 0224 0B       		.uleb128 0xb
 3223 0225 00       		.byte	0
 3224 0226 00       		.byte	0
 3225 0227 2D       		.uleb128 0x2d
 3226 0228 05       		.uleb128 0x5
 3227 0229 00       		.byte	0
 3228 022a 31       		.uleb128 0x31
 3229 022b 13       		.uleb128 0x13
 3230 022c 02       		.uleb128 0x2
 3231 022d 17       		.uleb128 0x17
 3232 022e 00       		.byte	0
 3233 022f 00       		.byte	0
 3234 0230 2E       		.uleb128 0x2e
 3235 0231 2E       		.uleb128 0x2e
 3236 0232 01       		.byte	0x1
 3237 0233 3F       		.uleb128 0x3f
ARM GAS  /tmp/ccq5w5Mb.s 			page 58


 3238 0234 19       		.uleb128 0x19
 3239 0235 03       		.uleb128 0x3
 3240 0236 0E       		.uleb128 0xe
 3241 0237 3A       		.uleb128 0x3a
 3242 0238 0B       		.uleb128 0xb
 3243 0239 3B       		.uleb128 0x3b
 3244 023a 0B       		.uleb128 0xb
 3245 023b 27       		.uleb128 0x27
 3246 023c 19       		.uleb128 0x19
 3247 023d 11       		.uleb128 0x11
 3248 023e 01       		.uleb128 0x1
 3249 023f 12       		.uleb128 0x12
 3250 0240 06       		.uleb128 0x6
 3251 0241 40       		.uleb128 0x40
 3252 0242 18       		.uleb128 0x18
 3253 0243 9642     		.uleb128 0x2116
 3254 0245 19       		.uleb128 0x19
 3255 0246 01       		.uleb128 0x1
 3256 0247 13       		.uleb128 0x13
 3257 0248 00       		.byte	0
 3258 0249 00       		.byte	0
 3259 024a 2F       		.uleb128 0x2f
 3260 024b 1D       		.uleb128 0x1d
 3261 024c 01       		.byte	0x1
 3262 024d 31       		.uleb128 0x31
 3263 024e 13       		.uleb128 0x13
 3264 024f 52       		.uleb128 0x52
 3265 0250 01       		.uleb128 0x1
 3266 0251 55       		.uleb128 0x55
 3267 0252 17       		.uleb128 0x17
 3268 0253 58       		.uleb128 0x58
 3269 0254 0B       		.uleb128 0xb
 3270 0255 59       		.uleb128 0x59
 3271 0256 0B       		.uleb128 0xb
 3272 0257 01       		.uleb128 0x1
 3273 0258 13       		.uleb128 0x13
 3274 0259 00       		.byte	0
 3275 025a 00       		.byte	0
 3276 025b 30       		.uleb128 0x30
 3277 025c 0B       		.uleb128 0xb
 3278 025d 01       		.byte	0x1
 3279 025e 55       		.uleb128 0x55
 3280 025f 17       		.uleb128 0x17
 3281 0260 00       		.byte	0
 3282 0261 00       		.byte	0
 3283 0262 31       		.uleb128 0x31
 3284 0263 898201   		.uleb128 0x4109
 3285 0266 01       		.byte	0x1
 3286 0267 11       		.uleb128 0x11
 3287 0268 01       		.uleb128 0x1
 3288 0269 01       		.uleb128 0x1
 3289 026a 13       		.uleb128 0x13
 3290 026b 00       		.byte	0
 3291 026c 00       		.byte	0
 3292 026d 32       		.uleb128 0x32
 3293 026e 8A8201   		.uleb128 0x410a
 3294 0271 00       		.byte	0
ARM GAS  /tmp/ccq5w5Mb.s 			page 59


 3295 0272 02       		.uleb128 0x2
 3296 0273 18       		.uleb128 0x18
 3297 0274 9142     		.uleb128 0x2111
 3298 0276 18       		.uleb128 0x18
 3299 0277 00       		.byte	0
 3300 0278 00       		.byte	0
 3301 0279 33       		.uleb128 0x33
 3302 027a 898201   		.uleb128 0x4109
 3303 027d 01       		.byte	0x1
 3304 027e 11       		.uleb128 0x11
 3305 027f 01       		.uleb128 0x1
 3306 0280 00       		.byte	0
 3307 0281 00       		.byte	0
 3308 0282 34       		.uleb128 0x34
 3309 0283 898201   		.uleb128 0x4109
 3310 0286 00       		.byte	0
 3311 0287 11       		.uleb128 0x11
 3312 0288 01       		.uleb128 0x1
 3313 0289 9542     		.uleb128 0x2115
 3314 028b 19       		.uleb128 0x19
 3315 028c 31       		.uleb128 0x31
 3316 028d 13       		.uleb128 0x13
 3317 028e 00       		.byte	0
 3318 028f 00       		.byte	0
 3319 0290 35       		.uleb128 0x35
 3320 0291 2E       		.uleb128 0x2e
 3321 0292 01       		.byte	0x1
 3322 0293 3F       		.uleb128 0x3f
 3323 0294 19       		.uleb128 0x19
 3324 0295 03       		.uleb128 0x3
 3325 0296 0E       		.uleb128 0xe
 3326 0297 3A       		.uleb128 0x3a
 3327 0298 0B       		.uleb128 0xb
 3328 0299 3B       		.uleb128 0x3b
 3329 029a 05       		.uleb128 0x5
 3330 029b 27       		.uleb128 0x27
 3331 029c 19       		.uleb128 0x19
 3332 029d 11       		.uleb128 0x11
 3333 029e 01       		.uleb128 0x1
 3334 029f 12       		.uleb128 0x12
 3335 02a0 06       		.uleb128 0x6
 3336 02a1 40       		.uleb128 0x40
 3337 02a2 18       		.uleb128 0x18
 3338 02a3 9742     		.uleb128 0x2117
 3339 02a5 19       		.uleb128 0x19
 3340 02a6 01       		.uleb128 0x1
 3341 02a7 13       		.uleb128 0x13
 3342 02a8 00       		.byte	0
 3343 02a9 00       		.byte	0
 3344 02aa 36       		.uleb128 0x36
 3345 02ab 898201   		.uleb128 0x4109
 3346 02ae 01       		.byte	0x1
 3347 02af 11       		.uleb128 0x11
 3348 02b0 01       		.uleb128 0x1
 3349 02b1 31       		.uleb128 0x31
 3350 02b2 13       		.uleb128 0x13
 3351 02b3 00       		.byte	0
ARM GAS  /tmp/ccq5w5Mb.s 			page 60


 3352 02b4 00       		.byte	0
 3353 02b5 37       		.uleb128 0x37
 3354 02b6 05       		.uleb128 0x5
 3355 02b7 00       		.byte	0
 3356 02b8 03       		.uleb128 0x3
 3357 02b9 0E       		.uleb128 0xe
 3358 02ba 3A       		.uleb128 0x3a
 3359 02bb 0B       		.uleb128 0xb
 3360 02bc 3B       		.uleb128 0x3b
 3361 02bd 05       		.uleb128 0x5
 3362 02be 49       		.uleb128 0x49
 3363 02bf 13       		.uleb128 0x13
 3364 02c0 02       		.uleb128 0x2
 3365 02c1 17       		.uleb128 0x17
 3366 02c2 00       		.byte	0
 3367 02c3 00       		.byte	0
 3368 02c4 38       		.uleb128 0x38
 3369 02c5 34       		.uleb128 0x34
 3370 02c6 00       		.byte	0
 3371 02c7 03       		.uleb128 0x3
 3372 02c8 08       		.uleb128 0x8
 3373 02c9 3A       		.uleb128 0x3a
 3374 02ca 0B       		.uleb128 0xb
 3375 02cb 3B       		.uleb128 0x3b
 3376 02cc 05       		.uleb128 0x5
 3377 02cd 49       		.uleb128 0x49
 3378 02ce 13       		.uleb128 0x13
 3379 02cf 02       		.uleb128 0x2
 3380 02d0 17       		.uleb128 0x17
 3381 02d1 00       		.byte	0
 3382 02d2 00       		.byte	0
 3383 02d3 39       		.uleb128 0x39
 3384 02d4 34       		.uleb128 0x34
 3385 02d5 00       		.byte	0
 3386 02d6 03       		.uleb128 0x3
 3387 02d7 0E       		.uleb128 0xe
 3388 02d8 49       		.uleb128 0x49
 3389 02d9 13       		.uleb128 0x13
 3390 02da 34       		.uleb128 0x34
 3391 02db 19       		.uleb128 0x19
 3392 02dc 00       		.byte	0
 3393 02dd 00       		.byte	0
 3394 02de 3A       		.uleb128 0x3a
 3395 02df 2E       		.uleb128 0x2e
 3396 02e0 01       		.byte	0x1
 3397 02e1 3F       		.uleb128 0x3f
 3398 02e2 19       		.uleb128 0x19
 3399 02e3 03       		.uleb128 0x3
 3400 02e4 0E       		.uleb128 0xe
 3401 02e5 3A       		.uleb128 0x3a
 3402 02e6 0B       		.uleb128 0xb
 3403 02e7 3B       		.uleb128 0x3b
 3404 02e8 05       		.uleb128 0x5
 3405 02e9 27       		.uleb128 0x27
 3406 02ea 19       		.uleb128 0x19
 3407 02eb 49       		.uleb128 0x49
 3408 02ec 13       		.uleb128 0x13
ARM GAS  /tmp/ccq5w5Mb.s 			page 61


 3409 02ed 11       		.uleb128 0x11
 3410 02ee 01       		.uleb128 0x1
 3411 02ef 12       		.uleb128 0x12
 3412 02f0 06       		.uleb128 0x6
 3413 02f1 40       		.uleb128 0x40
 3414 02f2 18       		.uleb128 0x18
 3415 02f3 9742     		.uleb128 0x2117
 3416 02f5 19       		.uleb128 0x19
 3417 02f6 01       		.uleb128 0x1
 3418 02f7 13       		.uleb128 0x13
 3419 02f8 00       		.byte	0
 3420 02f9 00       		.byte	0
 3421 02fa 3B       		.uleb128 0x3b
 3422 02fb 898201   		.uleb128 0x4109
 3423 02fe 01       		.byte	0x1
 3424 02ff 11       		.uleb128 0x11
 3425 0300 01       		.uleb128 0x1
 3426 0301 9542     		.uleb128 0x2115
 3427 0303 19       		.uleb128 0x19
 3428 0304 31       		.uleb128 0x31
 3429 0305 13       		.uleb128 0x13
 3430 0306 01       		.uleb128 0x1
 3431 0307 13       		.uleb128 0x13
 3432 0308 00       		.byte	0
 3433 0309 00       		.byte	0
 3434 030a 3C       		.uleb128 0x3c
 3435 030b 8A8201   		.uleb128 0x410a
 3436 030e 00       		.byte	0
 3437 030f 31       		.uleb128 0x31
 3438 0310 13       		.uleb128 0x13
 3439 0311 9142     		.uleb128 0x2111
 3440 0313 18       		.uleb128 0x18
 3441 0314 00       		.byte	0
 3442 0315 00       		.byte	0
 3443 0316 3D       		.uleb128 0x3d
 3444 0317 05       		.uleb128 0x5
 3445 0318 00       		.byte	0
 3446 0319 03       		.uleb128 0x3
 3447 031a 0E       		.uleb128 0xe
 3448 031b 3A       		.uleb128 0x3a
 3449 031c 0B       		.uleb128 0xb
 3450 031d 3B       		.uleb128 0x3b
 3451 031e 05       		.uleb128 0x5
 3452 031f 49       		.uleb128 0x49
 3453 0320 13       		.uleb128 0x13
 3454 0321 02       		.uleb128 0x2
 3455 0322 18       		.uleb128 0x18
 3456 0323 00       		.byte	0
 3457 0324 00       		.byte	0
 3458 0325 3E       		.uleb128 0x3e
 3459 0326 34       		.uleb128 0x34
 3460 0327 00       		.byte	0
 3461 0328 03       		.uleb128 0x3
 3462 0329 0E       		.uleb128 0xe
 3463 032a 3A       		.uleb128 0x3a
 3464 032b 0B       		.uleb128 0xb
 3465 032c 3B       		.uleb128 0x3b
ARM GAS  /tmp/ccq5w5Mb.s 			page 62


 3466 032d 05       		.uleb128 0x5
 3467 032e 49       		.uleb128 0x49
 3468 032f 13       		.uleb128 0x13
 3469 0330 02       		.uleb128 0x2
 3470 0331 17       		.uleb128 0x17
 3471 0332 00       		.byte	0
 3472 0333 00       		.byte	0
 3473 0334 3F       		.uleb128 0x3f
 3474 0335 34       		.uleb128 0x34
 3475 0336 00       		.byte	0
 3476 0337 03       		.uleb128 0x3
 3477 0338 0E       		.uleb128 0xe
 3478 0339 3A       		.uleb128 0x3a
 3479 033a 0B       		.uleb128 0xb
 3480 033b 3B       		.uleb128 0x3b
 3481 033c 05       		.uleb128 0x5
 3482 033d 49       		.uleb128 0x49
 3483 033e 13       		.uleb128 0x13
 3484 033f 3F       		.uleb128 0x3f
 3485 0340 19       		.uleb128 0x19
 3486 0341 3C       		.uleb128 0x3c
 3487 0342 19       		.uleb128 0x19
 3488 0343 00       		.byte	0
 3489 0344 00       		.byte	0
 3490 0345 40       		.uleb128 0x40
 3491 0346 34       		.uleb128 0x34
 3492 0347 00       		.byte	0
 3493 0348 03       		.uleb128 0x3
 3494 0349 08       		.uleb128 0x8
 3495 034a 3A       		.uleb128 0x3a
 3496 034b 0B       		.uleb128 0xb
 3497 034c 3B       		.uleb128 0x3b
 3498 034d 05       		.uleb128 0x5
 3499 034e 49       		.uleb128 0x49
 3500 034f 13       		.uleb128 0x13
 3501 0350 3F       		.uleb128 0x3f
 3502 0351 19       		.uleb128 0x19
 3503 0352 3C       		.uleb128 0x3c
 3504 0353 19       		.uleb128 0x19
 3505 0354 00       		.byte	0
 3506 0355 00       		.byte	0
 3507 0356 41       		.uleb128 0x41
 3508 0357 34       		.uleb128 0x34
 3509 0358 00       		.byte	0
 3510 0359 03       		.uleb128 0x3
 3511 035a 0E       		.uleb128 0xe
 3512 035b 3A       		.uleb128 0x3a
 3513 035c 0B       		.uleb128 0xb
 3514 035d 3B       		.uleb128 0x3b
 3515 035e 0B       		.uleb128 0xb
 3516 035f 49       		.uleb128 0x49
 3517 0360 13       		.uleb128 0x13
 3518 0361 3F       		.uleb128 0x3f
 3519 0362 19       		.uleb128 0x19
 3520 0363 02       		.uleb128 0x2
 3521 0364 18       		.uleb128 0x18
 3522 0365 00       		.byte	0
ARM GAS  /tmp/ccq5w5Mb.s 			page 63


 3523 0366 00       		.byte	0
 3524 0367 42       		.uleb128 0x42
 3525 0368 2E       		.uleb128 0x2e
 3526 0369 00       		.byte	0
 3527 036a 3F       		.uleb128 0x3f
 3528 036b 19       		.uleb128 0x19
 3529 036c 03       		.uleb128 0x3
 3530 036d 0E       		.uleb128 0xe
 3531 036e 3A       		.uleb128 0x3a
 3532 036f 0B       		.uleb128 0xb
 3533 0370 3B       		.uleb128 0x3b
 3534 0371 05       		.uleb128 0x5
 3535 0372 27       		.uleb128 0x27
 3536 0373 19       		.uleb128 0x19
 3537 0374 3C       		.uleb128 0x3c
 3538 0375 19       		.uleb128 0x19
 3539 0376 00       		.byte	0
 3540 0377 00       		.byte	0
 3541 0378 43       		.uleb128 0x43
 3542 0379 2E       		.uleb128 0x2e
 3543 037a 01       		.byte	0x1
 3544 037b 3F       		.uleb128 0x3f
 3545 037c 19       		.uleb128 0x19
 3546 037d 03       		.uleb128 0x3
 3547 037e 0E       		.uleb128 0xe
 3548 037f 3A       		.uleb128 0x3a
 3549 0380 0B       		.uleb128 0xb
 3550 0381 3B       		.uleb128 0x3b
 3551 0382 0B       		.uleb128 0xb
 3552 0383 27       		.uleb128 0x27
 3553 0384 19       		.uleb128 0x19
 3554 0385 3C       		.uleb128 0x3c
 3555 0386 19       		.uleb128 0x19
 3556 0387 01       		.uleb128 0x1
 3557 0388 13       		.uleb128 0x13
 3558 0389 00       		.byte	0
 3559 038a 00       		.byte	0
 3560 038b 44       		.uleb128 0x44
 3561 038c 2E       		.uleb128 0x2e
 3562 038d 01       		.byte	0x1
 3563 038e 3F       		.uleb128 0x3f
 3564 038f 19       		.uleb128 0x19
 3565 0390 03       		.uleb128 0x3
 3566 0391 0E       		.uleb128 0xe
 3567 0392 3A       		.uleb128 0x3a
 3568 0393 0B       		.uleb128 0xb
 3569 0394 3B       		.uleb128 0x3b
 3570 0395 0B       		.uleb128 0xb
 3571 0396 27       		.uleb128 0x27
 3572 0397 19       		.uleb128 0x19
 3573 0398 3C       		.uleb128 0x3c
 3574 0399 19       		.uleb128 0x19
 3575 039a 00       		.byte	0
 3576 039b 00       		.byte	0
 3577 039c 00       		.byte	0
 3578              		.section	.debug_loc,"",%progbits
 3579              	.Ldebug_loc0:
ARM GAS  /tmp/ccq5w5Mb.s 			page 64


 3580              	.LLST0:
 3581 0000 10000000 		.4byte	.LVL1
 3582 0004 26000000 		.4byte	.LVL3
 3583 0008 0100     		.2byte	0x1
 3584 000a 50       		.byte	0x50
 3585 000b 2E000000 		.4byte	.LVL5
 3586 000f 36000000 		.4byte	.LFE267
 3587 0013 0100     		.2byte	0x1
 3588 0015 50       		.byte	0x50
 3589 0016 00000000 		.4byte	0
 3590 001a 00000000 		.4byte	0
 3591              	.LLST1:
 3592 001e 14000000 		.4byte	.LVL2
 3593 0022 26000000 		.4byte	.LVL3
 3594 0026 0500     		.2byte	0x5
 3595 0028 70       		.byte	0x70
 3596 0029 00       		.sleb128 0
 3597 002a 31       		.byte	0x31
 3598 002b 1A       		.byte	0x1a
 3599 002c 9F       		.byte	0x9f
 3600 002d 00000000 		.4byte	0
 3601 0031 00000000 		.4byte	0
 3602              	.LLST2:
 3603 0035 14000000 		.4byte	.LVL2
 3604 0039 2A000000 		.4byte	.LVL4
 3605 003d 0300     		.2byte	0x3
 3606 003f 08       		.byte	0x8
 3607 0040 20       		.byte	0x20
 3608 0041 9F       		.byte	0x9f
 3609 0042 00000000 		.4byte	0
 3610 0046 00000000 		.4byte	0
 3611              	.LLST3:
 3612 004a 0A000000 		.4byte	.LVL7
 3613 004e 10000000 		.4byte	.LVL8
 3614 0052 0100     		.2byte	0x1
 3615 0054 50       		.byte	0x50
 3616 0055 10000000 		.4byte	.LVL8
 3617 0059 3A000000 		.4byte	.LVL10
 3618 005d 0600     		.2byte	0x6
 3619 005f 75       		.byte	0x75
 3620 0060 00       		.sleb128 0
 3621 0061 08       		.byte	0x8
 3622 0062 FF       		.byte	0xff
 3623 0063 1A       		.byte	0x1a
 3624 0064 9F       		.byte	0x9f
 3625 0065 3E000000 		.4byte	.LVL11
 3626 0069 80000000 		.4byte	.LFE258
 3627 006d 0600     		.2byte	0x6
 3628 006f 75       		.byte	0x75
 3629 0070 00       		.sleb128 0
 3630 0071 08       		.byte	0x8
 3631 0072 FF       		.byte	0xff
 3632 0073 1A       		.byte	0x1a
 3633 0074 9F       		.byte	0x9f
 3634 0075 00000000 		.4byte	0
 3635 0079 00000000 		.4byte	0
 3636              	.LLST4:
ARM GAS  /tmp/ccq5w5Mb.s 			page 65


 3637 007d 00000000 		.4byte	.LVL16
 3638 0081 16000000 		.4byte	.LVL17
 3639 0085 0100     		.2byte	0x1
 3640 0087 50       		.byte	0x50
 3641 0088 16000000 		.4byte	.LVL17
 3642 008c 80000000 		.4byte	.LVL28
 3643 0090 0100     		.2byte	0x1
 3644 0092 54       		.byte	0x54
 3645 0093 80000000 		.4byte	.LVL28
 3646 0097 86000000 		.4byte	.LVL29
 3647 009b 0100     		.2byte	0x1
 3648 009d 50       		.byte	0x50
 3649 009e 86000000 		.4byte	.LVL29
 3650 00a2 8A000000 		.4byte	.LVL30
 3651 00a6 0100     		.2byte	0x1
 3652 00a8 54       		.byte	0x54
 3653 00a9 8A000000 		.4byte	.LVL30
 3654 00ad A0000000 		.4byte	.LVL31
 3655 00b1 0100     		.2byte	0x1
 3656 00b3 50       		.byte	0x50
 3657 00b4 A0000000 		.4byte	.LVL31
 3658 00b8 BC000000 		.4byte	.LFE260
 3659 00bc 0100     		.2byte	0x1
 3660 00be 54       		.byte	0x54
 3661 00bf 00000000 		.4byte	0
 3662 00c3 00000000 		.4byte	0
 3663              	.LLST5:
 3664 00c7 28000000 		.4byte	.LVL18
 3665 00cb 40000000 		.4byte	.LVL19
 3666 00cf 0100     		.2byte	0x1
 3667 00d1 50       		.byte	0x50
 3668 00d2 40000000 		.4byte	.LVL19
 3669 00d6 4C000000 		.4byte	.LVL20
 3670 00da 1300     		.2byte	0x13
 3671 00dc 74       		.byte	0x74
 3672 00dd 08       		.sleb128 8
 3673 00de 06       		.byte	0x6
 3674 00df F7       		.byte	0xf7
 3675 00e0 25       		.uleb128 0x25
 3676 00e1 74       		.byte	0x74
 3677 00e2 04       		.sleb128 4
 3678 00e3 06       		.byte	0x6
 3679 00e4 23       		.byte	0x23
 3680 00e5 04       		.uleb128 0x4
 3681 00e6 06       		.byte	0x6
 3682 00e7 F7       		.byte	0xf7
 3683 00e8 25       		.uleb128 0x25
 3684 00e9 1B       		.byte	0x1b
 3685 00ea F7       		.byte	0xf7
 3686 00eb 00       		.uleb128 0
 3687 00ec 31       		.byte	0x31
 3688 00ed 1C       		.byte	0x1c
 3689 00ee 9F       		.byte	0x9f
 3690 00ef 58000000 		.4byte	.LVL21
 3691 00f3 5C000000 		.4byte	.LVL22
 3692 00f7 0100     		.2byte	0x1
 3693 00f9 50       		.byte	0x50
ARM GAS  /tmp/ccq5w5Mb.s 			page 66


 3694 00fa 5C000000 		.4byte	.LVL22
 3695 00fe 68000000 		.4byte	.LVL23
 3696 0102 1300     		.2byte	0x13
 3697 0104 74       		.byte	0x74
 3698 0105 08       		.sleb128 8
 3699 0106 06       		.byte	0x6
 3700 0107 F7       		.byte	0xf7
 3701 0108 25       		.uleb128 0x25
 3702 0109 74       		.byte	0x74
 3703 010a 04       		.sleb128 4
 3704 010b 06       		.byte	0x6
 3705 010c 23       		.byte	0x23
 3706 010d 04       		.uleb128 0x4
 3707 010e 06       		.byte	0x6
 3708 010f F7       		.byte	0xf7
 3709 0110 25       		.uleb128 0x25
 3710 0111 1B       		.byte	0x1b
 3711 0112 F7       		.byte	0xf7
 3712 0113 00       		.uleb128 0
 3713 0114 31       		.byte	0x31
 3714 0115 1C       		.byte	0x1c
 3715 0116 9F       		.byte	0x9f
 3716 0117 74000000 		.4byte	.LVL24
 3717 011b 78000000 		.4byte	.LVL25
 3718 011f 1300     		.2byte	0x13
 3719 0121 74       		.byte	0x74
 3720 0122 08       		.sleb128 8
 3721 0123 06       		.byte	0x6
 3722 0124 F7       		.byte	0xf7
 3723 0125 25       		.uleb128 0x25
 3724 0126 74       		.byte	0x74
 3725 0127 04       		.sleb128 4
 3726 0128 06       		.byte	0x6
 3727 0129 23       		.byte	0x23
 3728 012a 04       		.uleb128 0x4
 3729 012b 06       		.byte	0x6
 3730 012c F7       		.byte	0xf7
 3731 012d 25       		.uleb128 0x25
 3732 012e 1B       		.byte	0x1b
 3733 012f F7       		.byte	0xf7
 3734 0130 00       		.uleb128 0
 3735 0131 31       		.byte	0x31
 3736 0132 1C       		.byte	0x1c
 3737 0133 9F       		.byte	0x9f
 3738 0134 7A000000 		.4byte	.LVL26
 3739 0138 7E000000 		.4byte	.LVL27
 3740 013c 1300     		.2byte	0x13
 3741 013e 74       		.byte	0x74
 3742 013f 08       		.sleb128 8
 3743 0140 06       		.byte	0x6
 3744 0141 F7       		.byte	0xf7
 3745 0142 25       		.uleb128 0x25
 3746 0143 74       		.byte	0x74
 3747 0144 04       		.sleb128 4
 3748 0145 06       		.byte	0x6
 3749 0146 23       		.byte	0x23
 3750 0147 04       		.uleb128 0x4
ARM GAS  /tmp/ccq5w5Mb.s 			page 67


 3751 0148 06       		.byte	0x6
 3752 0149 F7       		.byte	0xf7
 3753 014a 25       		.uleb128 0x25
 3754 014b 1B       		.byte	0x1b
 3755 014c F7       		.byte	0xf7
 3756 014d 00       		.uleb128 0
 3757 014e 31       		.byte	0x31
 3758 014f 1C       		.byte	0x1c
 3759 0150 9F       		.byte	0x9f
 3760 0151 00000000 		.4byte	0
 3761 0155 00000000 		.4byte	0
 3762              	.LLST6:
 3763 0159 00000000 		.4byte	.LVL33
 3764 015d 08000000 		.4byte	.LVL34
 3765 0161 0100     		.2byte	0x1
 3766 0163 50       		.byte	0x50
 3767 0164 08000000 		.4byte	.LVL34
 3768 0168 0A000000 		.4byte	.LVL35
 3769 016c 0400     		.2byte	0x4
 3770 016e F3       		.byte	0xf3
 3771 016f 01       		.uleb128 0x1
 3772 0170 50       		.byte	0x50
 3773 0171 9F       		.byte	0x9f
 3774 0172 0A000000 		.4byte	.LVL35
 3775 0176 1C000000 		.4byte	.LVL36
 3776 017a 0100     		.2byte	0x1
 3777 017c 50       		.byte	0x50
 3778 017d 1C000000 		.4byte	.LVL36
 3779 0181 34000000 		.4byte	.LFE261
 3780 0185 0400     		.2byte	0x4
 3781 0187 F3       		.byte	0xf3
 3782 0188 01       		.uleb128 0x1
 3783 0189 50       		.byte	0x50
 3784 018a 9F       		.byte	0x9f
 3785 018b 00000000 		.4byte	0
 3786 018f 00000000 		.4byte	0
 3787              	.LLST7:
 3788 0193 00000000 		.4byte	.LVL38
 3789 0197 04000000 		.4byte	.LVL39
 3790 019b 0100     		.2byte	0x1
 3791 019d 50       		.byte	0x50
 3792 019e 04000000 		.4byte	.LVL39
 3793 01a2 14000000 		.4byte	.LFE262
 3794 01a6 0400     		.2byte	0x4
 3795 01a8 F3       		.byte	0xf3
 3796 01a9 01       		.uleb128 0x1
 3797 01aa 50       		.byte	0x50
 3798 01ab 9F       		.byte	0x9f
 3799 01ac 00000000 		.4byte	0
 3800 01b0 00000000 		.4byte	0
 3801              	.LLST8:
 3802 01b4 00000000 		.4byte	.LVL40
 3803 01b8 10000000 		.4byte	.LVL41
 3804 01bc 0100     		.2byte	0x1
 3805 01be 50       		.byte	0x50
 3806 01bf 10000000 		.4byte	.LVL41
 3807 01c3 18000000 		.4byte	.LVL42
ARM GAS  /tmp/ccq5w5Mb.s 			page 68


 3808 01c7 0300     		.2byte	0x3
 3809 01c9 74       		.byte	0x74
 3810 01ca 74       		.sleb128 -12
 3811 01cb 9F       		.byte	0x9f
 3812 01cc 18000000 		.4byte	.LVL42
 3813 01d0 1B000000 		.4byte	.LVL43-1
 3814 01d4 0300     		.2byte	0x3
 3815 01d6 71       		.byte	0x71
 3816 01d7 74       		.sleb128 -12
 3817 01d8 9F       		.byte	0x9f
 3818 01d9 1B000000 		.4byte	.LVL43-1
 3819 01dd 1C000000 		.4byte	.LVL43
 3820 01e1 0400     		.2byte	0x4
 3821 01e3 F3       		.byte	0xf3
 3822 01e4 01       		.uleb128 0x1
 3823 01e5 50       		.byte	0x50
 3824 01e6 9F       		.byte	0x9f
 3825 01e7 1C000000 		.4byte	.LVL43
 3826 01eb 1E000000 		.4byte	.LVL44
 3827 01ef 0100     		.2byte	0x1
 3828 01f1 50       		.byte	0x50
 3829 01f2 1E000000 		.4byte	.LVL44
 3830 01f6 2A000000 		.4byte	.LFE263
 3831 01fa 0300     		.2byte	0x3
 3832 01fc 74       		.byte	0x74
 3833 01fd 74       		.sleb128 -12
 3834 01fe 9F       		.byte	0x9f
 3835 01ff 00000000 		.4byte	0
 3836 0203 00000000 		.4byte	0
 3837              	.LLST9:
 3838 0207 00000000 		.4byte	.LVL47
 3839 020b 12000000 		.4byte	.LVL49
 3840 020f 0100     		.2byte	0x1
 3841 0211 50       		.byte	0x50
 3842 0212 12000000 		.4byte	.LVL49
 3843 0216 3E000000 		.4byte	.LFE265
 3844 021a 0400     		.2byte	0x4
 3845 021c F3       		.byte	0xf3
 3846 021d 01       		.uleb128 0x1
 3847 021e 50       		.byte	0x50
 3848 021f 9F       		.byte	0x9f
 3849 0220 00000000 		.4byte	0
 3850 0224 00000000 		.4byte	0
 3851              	.LLST10:
 3852 0228 04000000 		.4byte	.LVL48
 3853 022c 14000000 		.4byte	.LVL50
 3854 0230 0100     		.2byte	0x1
 3855 0232 53       		.byte	0x53
 3856 0233 14000000 		.4byte	.LVL50
 3857 0237 18000000 		.4byte	.LVL51
 3858 023b 0500     		.2byte	0x5
 3859 023d 73       		.byte	0x73
 3860 023e 00       		.sleb128 0
 3861 023f 34       		.byte	0x34
 3862 0240 21       		.byte	0x21
 3863 0241 9F       		.byte	0x9f
 3864 0242 1C000000 		.4byte	.LVL52
ARM GAS  /tmp/ccq5w5Mb.s 			page 69


 3865 0246 2C000000 		.4byte	.LVL54
 3866 024a 0100     		.2byte	0x1
 3867 024c 53       		.byte	0x53
 3868 024d 2C000000 		.4byte	.LVL54
 3869 0251 36000000 		.4byte	.LVL55
 3870 0255 0500     		.2byte	0x5
 3871 0257 73       		.byte	0x73
 3872 0258 00       		.sleb128 0
 3873 0259 32       		.byte	0x32
 3874 025a 21       		.byte	0x21
 3875 025b 9F       		.byte	0x9f
 3876 025c 36000000 		.4byte	.LVL55
 3877 0260 38000000 		.4byte	.LVL56
 3878 0264 0100     		.2byte	0x1
 3879 0266 53       		.byte	0x53
 3880 0267 38000000 		.4byte	.LVL56
 3881 026b 3C000000 		.4byte	.LVL57
 3882 026f 0500     		.2byte	0x5
 3883 0271 73       		.byte	0x73
 3884 0272 00       		.sleb128 0
 3885 0273 34       		.byte	0x34
 3886 0274 21       		.byte	0x21
 3887 0275 9F       		.byte	0x9f
 3888 0276 00000000 		.4byte	0
 3889 027a 00000000 		.4byte	0
 3890              		.section	.debug_aranges,"",%progbits
 3891 0000 64000000 		.4byte	0x64
 3892 0004 0200     		.2byte	0x2
 3893 0006 00000000 		.4byte	.Ldebug_info0
 3894 000a 04       		.byte	0x4
 3895 000b 00       		.byte	0
 3896 000c 0000     		.2byte	0
 3897 000e 0000     		.2byte	0
 3898 0010 00000000 		.4byte	.LFB267
 3899 0014 36000000 		.4byte	.LFE267-.LFB267
 3900 0018 00000000 		.4byte	.LFB258
 3901 001c 80000000 		.4byte	.LFE258-.LFB258
 3902 0020 00000000 		.4byte	.LFB259
 3903 0024 18000000 		.4byte	.LFE259-.LFB259
 3904 0028 00000000 		.4byte	.LFB260
 3905 002c BC000000 		.4byte	.LFE260-.LFB260
 3906 0030 00000000 		.4byte	.LFB261
 3907 0034 34000000 		.4byte	.LFE261-.LFB261
 3908 0038 00000000 		.4byte	.LFB262
 3909 003c 14000000 		.4byte	.LFE262-.LFB262
 3910 0040 00000000 		.4byte	.LFB263
 3911 0044 2A000000 		.4byte	.LFE263-.LFB263
 3912 0048 00000000 		.4byte	.LFB264
 3913 004c 10000000 		.4byte	.LFE264-.LFB264
 3914 0050 00000000 		.4byte	.LFB265
 3915 0054 3E000000 		.4byte	.LFE265-.LFB265
 3916 0058 00000000 		.4byte	.LFB266
 3917 005c 0C000000 		.4byte	.LFE266-.LFB266
 3918 0060 00000000 		.4byte	0
 3919 0064 00000000 		.4byte	0
 3920              		.section	.debug_ranges,"",%progbits
 3921              	.Ldebug_ranges0:
ARM GAS  /tmp/ccq5w5Mb.s 			page 70


 3922 0000 02000000 		.4byte	.LBB44
 3923 0004 36000000 		.4byte	.LBE44
 3924 0008 3E000000 		.4byte	.LBB47
 3925 000c 80000000 		.4byte	.LBE47
 3926 0010 00000000 		.4byte	0
 3927 0014 00000000 		.4byte	0
 3928 0018 00000000 		.4byte	.LFB267
 3929 001c 36000000 		.4byte	.LFE267
 3930 0020 00000000 		.4byte	.LFB258
 3931 0024 80000000 		.4byte	.LFE258
 3932 0028 00000000 		.4byte	.LFB259
 3933 002c 18000000 		.4byte	.LFE259
 3934 0030 00000000 		.4byte	.LFB260
 3935 0034 BC000000 		.4byte	.LFE260
 3936 0038 00000000 		.4byte	.LFB261
 3937 003c 34000000 		.4byte	.LFE261
 3938 0040 00000000 		.4byte	.LFB262
 3939 0044 14000000 		.4byte	.LFE262
 3940 0048 00000000 		.4byte	.LFB263
 3941 004c 2A000000 		.4byte	.LFE263
 3942 0050 00000000 		.4byte	.LFB264
 3943 0054 10000000 		.4byte	.LFE264
 3944 0058 00000000 		.4byte	.LFB265
 3945 005c 3E000000 		.4byte	.LFE265
 3946 0060 00000000 		.4byte	.LFB266
 3947 0064 0C000000 		.4byte	.LFE266
 3948 0068 00000000 		.4byte	0
 3949 006c 00000000 		.4byte	0
 3950              		.section	.debug_line,"",%progbits
 3951              	.Ldebug_line0:
 3952 0000 05040000 		.section	.debug_str,"MS",%progbits,1
 3952      02009002 
 3952      00000201 
 3952      FB0E0D00 
 3952      01010101 
 3953              	.LASF158:
 3954 0000 4943555F 		.ascii	"ICU_INPUT_ACTIVE_HIGH\000"
 3954      494E5055 
 3954      545F4143 
 3954      54495645 
 3954      5F484947 
 3955              	.LASF54:
 3956 0016 72656164 		.ascii	"ready_list_t\000"
 3956      795F6C69 
 3956      73745F74 
 3956      00
 3957              	.LASF149:
 3958 0023 44494552 		.ascii	"DIER\000"
 3958      00
 3959              	.LASF2:
 3960 0028 73697A65 		.ascii	"size_t\000"
 3960      5F7400
 3961              	.LASF117:
 3962 002f 7264796D 		.ascii	"rdymsg\000"
 3962      736700
 3963              	.LASF17:
 3964 0036 75696E74 		.ascii	"uint64_t\000"
ARM GAS  /tmp/ccq5w5Mb.s 			page 71


 3964      36345F74 
 3964      00
 3965              	.LASF138:
 3966 003f 4943555F 		.ascii	"ICU_WAITING\000"
 3966      57414954 
 3966      494E4700 
 3967              	.LASF139:
 3968 004b 4943555F 		.ascii	"ICU_ACTIVE\000"
 3968      41435449 
 3968      564500
 3969              	.LASF3:
 3970 0056 5F5F7569 		.ascii	"__uint8_t\000"
 3970      6E74385F 
 3970      7400
 3971              	.LASF114:
 3972 0060 706F7274 		.ascii	"port_intctx\000"
 3972      5F696E74 
 3972      63747800 
 3973              	.LASF79:
 3974 006c 76746C69 		.ascii	"vtlist\000"
 3974      737400
 3975              	.LASF155:
 3976 0073 43434D52 		.ascii	"CCMR3\000"
 3976      3300
 3977              	.LASF64:
 3978 0079 63685F76 		.ascii	"ch_virtual_timer\000"
 3978      69727475 
 3978      616C5F74 
 3978      696D6572 
 3978      00
 3979              	.LASF173:
 3980 008a 706F7274 		.ascii	"port_lock\000"
 3980      5F6C6F63 
 3980      6B00
 3981              	.LASF140:
 3982 0094 69637573 		.ascii	"icustate_t\000"
 3982      74617465 
 3982      5F7400
 3983              	.LASF13:
 3984 009f 6C6F6E67 		.ascii	"long long unsigned int\000"
 3984      206C6F6E 
 3984      6720756E 
 3984      7369676E 
 3984      65642069 
 3985              	.LASF80:
 3986 00b6 6D61696E 		.ascii	"mainthread\000"
 3986      74687265 
 3986      616400
 3987              	.LASF70:
 3988 00c1 76697274 		.ascii	"virtual_timers_list_t\000"
 3988      75616C5F 
 3988      74696D65 
 3988      72735F6C 
 3988      6973745F 
 3989              	.LASF191:
 3990 00d7 49544D5F 		.ascii	"ITM_RxBuffer\000"
 3990      52784275 
ARM GAS  /tmp/ccq5w5Mb.s 			page 72


 3990      66666572 
 3990      00
 3991              	.LASF153:
 3992 00e4 42445452 		.ascii	"BDTR\000"
 3992      00
 3993              	.LASF53:
 3994 00e9 63685F74 		.ascii	"ch_threads_queue\000"
 3994      68726561 
 3994      64735F71 
 3994      75657565 
 3994      00
 3995              	.LASF196:
 3996 00fa 43686962 		.ascii	"ChibiOS_3.0.2/os/hal/ports/STM32/LLD/TIMv1/icu_lld."
 3996      694F535F 
 3996      332E302E 
 3996      322F6F73 
 3996      2F68616C 
 3997 012d 6300     		.ascii	"c\000"
 3998              	.LASF99:
 3999 012f 41484231 		.ascii	"AHB1LPENR\000"
 3999      4C50454E 
 3999      5200
 4000              	.LASF31:
 4001 0139 705F7072 		.ascii	"p_prio\000"
 4001      696F00
 4002              	.LASF194:
 4003 0140 6E766963 		.ascii	"nvicEnableVector\000"
 4003      456E6162 
 4003      6C655665 
 4003      63746F72 
 4003      00
 4004              	.LASF150:
 4005 0151 43434D52 		.ascii	"CCMR1\000"
 4005      3100
 4006              	.LASF151:
 4007 0157 43434D52 		.ascii	"CCMR2\000"
 4007      3200
 4008              	.LASF148:
 4009 015d 534D4352 		.ascii	"SMCR\000"
 4009      00
 4010              	.LASF1:
 4011 0162 7369676E 		.ascii	"signed char\000"
 4011      65642063 
 4011      68617200 
 4012              	.LASF157:
 4013 016e 73746D33 		.ascii	"stm32_tim_t\000"
 4013      325F7469 
 4013      6D5F7400 
 4014              	.LASF172:
 4015 017a 49435543 		.ascii	"ICUConfig\000"
 4015      6F6E6669 
 4015      6700
 4016              	.LASF47:
 4017 0184 705F6D70 		.ascii	"p_mpool\000"
 4017      6F6F6C00 
 4018              	.LASF128:
 4019 018c 6D5F7175 		.ascii	"m_queue\000"
ARM GAS  /tmp/ccq5w5Mb.s 			page 73


 4019      65756500 
 4020              	.LASF174:
 4021 0194 706F7274 		.ascii	"port_unlock\000"
 4021      5F756E6C 
 4021      6F636B00 
 4022              	.LASF22:
 4023 01a0 74736C69 		.ascii	"tslices_t\000"
 4023      6365735F 
 4023      7400
 4024              	.LASF183:
 4025 01aa 56656374 		.ascii	"VectorB4\000"
 4025      6F724234 
 4025      00
 4026              	.LASF142:
 4027 01b3 73746174 		.ascii	"state\000"
 4027      6500
 4028              	.LASF77:
 4029 01b9 63685F73 		.ascii	"ch_system\000"
 4029      79737465 
 4029      6D00
 4030              	.LASF8:
 4031 01c3 6C6F6E67 		.ascii	"long int\000"
 4031      20696E74 
 4031      00
 4032              	.LASF90:
 4033 01cc 41504232 		.ascii	"APB2RSTR\000"
 4033      52535452 
 4033      00
 4034              	.LASF103:
 4035 01d5 41504231 		.ascii	"APB1LPENR\000"
 4035      4C50454E 
 4035      5200
 4036              	.LASF20:
 4037 01df 74737461 		.ascii	"tstate_t\000"
 4037      74655F74 
 4037      00
 4038              	.LASF187:
 4039 01e8 6963755F 		.ascii	"icu_lld_start_capture\000"
 4039      6C6C645F 
 4039      73746172 
 4039      745F6361 
 4039      70747572 
 4040              	.LASF195:
 4041 01fe 474E5520 		.ascii	"GNU C 4.8.4 20141219 (release) -mcpu=cortex-m4 -mfl"
 4041      4320342E 
 4041      382E3420 
 4041      32303134 
 4041      31323139 
 4042 0231 6F61742D 		.ascii	"oat-abi=hard -mfpu=fpv4-sp-d16 -mno-thumb-interwork"
 4042      6162693D 
 4042      68617264 
 4042      202D6D66 
 4042      70753D66 
 4043 0264 202D6D74 		.ascii	" -mthumb -ggdb -O2 -std=gnu99 -fomit-frame-pointer "
 4043      68756D62 
 4043      202D6767 
 4043      6462202D 
ARM GAS  /tmp/ccq5w5Mb.s 			page 74


 4043      4F32202D 
 4044 0297 2D66616C 		.ascii	"-falign-functions=16 -ffunction-sections -fdata-sec"
 4044      69676E2D 
 4044      66756E63 
 4044      74696F6E 
 4044      733D3136 
 4045 02ca 74696F6E 		.ascii	"tions -fno-common -fsingle-precision-constant\000"
 4045      73202D66 
 4045      6E6F2D63 
 4045      6F6D6D6F 
 4045      6E202D66 
 4046              	.LASF33:
 4047 02f8 705F6E65 		.ascii	"p_newer\000"
 4047      77657200 
 4048              	.LASF83:
 4049 0300 504C4C43 		.ascii	"PLLCFGR\000"
 4049      46475200 
 4050              	.LASF6:
 4051 0308 73686F72 		.ascii	"short unsigned int\000"
 4051      7420756E 
 4051      7369676E 
 4051      65642069 
 4051      6E7400
 4052              	.LASF59:
 4053 031b 725F6E65 		.ascii	"r_newer\000"
 4053      77657200 
 4054              	.LASF111:
 4055 0323 72656761 		.ascii	"regarm_t\000"
 4055      726D5F74 
 4055      00
 4056              	.LASF66:
 4057 032c 76745F70 		.ascii	"vt_prev\000"
 4057      72657600 
 4058              	.LASF197:
 4059 0334 2F686F6D 		.ascii	"/home/taylor/Programming/VESC/firmware\000"
 4059      652F7461 
 4059      796C6F72 
 4059      2F50726F 
 4059      6772616D 
 4060              	.LASF132:
 4061 035b 6D757465 		.ascii	"mutex_t\000"
 4061      785F7400 
 4062              	.LASF178:
 4063 0363 76616C75 		.ascii	"value\000"
 4063      6500
 4064              	.LASF81:
 4065 0369 69646C65 		.ascii	"idle_thread_wa\000"
 4065      5F746872 
 4065      6561645F 
 4065      776100
 4066              	.LASF26:
 4067 0378 636E745F 		.ascii	"cnt_t\000"
 4067      7400
 4068              	.LASF0:
 4069 037e 756E7369 		.ascii	"unsigned int\000"
 4069      676E6564 
 4069      20696E74 
ARM GAS  /tmp/ccq5w5Mb.s 			page 75


 4069      00
 4070              	.LASF65:
 4071 038b 76745F6E 		.ascii	"vt_next\000"
 4071      65787400 
 4072              	.LASF201:
 4073 0393 6E766963 		.ascii	"nvicDisableVector\000"
 4073      44697361 
 4073      626C6556 
 4073      6563746F 
 4073      7200
 4074              	.LASF40:
 4075 03a5 705F7469 		.ascii	"p_time\000"
 4075      6D6500
 4076              	.LASF121:
 4077 03ac 77747365 		.ascii	"wtsemp\000"
 4077      6D7000
 4078              	.LASF67:
 4079 03b3 76745F64 		.ascii	"vt_delta\000"
 4079      656C7461 
 4079      00
 4080              	.LASF73:
 4081 03bc 73797374 		.ascii	"system_debug_t\000"
 4081      656D5F64 
 4081      65627567 
 4081      5F7400
 4082              	.LASF163:
 4083 03cb 4943555F 		.ascii	"ICU_CHANNEL_2\000"
 4083      4348414E 
 4083      4E454C5F 
 4083      3200
 4084              	.LASF147:
 4085 03d9 69637563 		.ascii	"icucallback_t\000"
 4085      616C6C62 
 4085      61636B5F 
 4085      7400
 4086              	.LASF110:
 4087 03e7 5243435F 		.ascii	"RCC_TypeDef\000"
 4087      54797065 
 4087      44656600 
 4088              	.LASF50:
 4089 03f3 63685F74 		.ascii	"ch_thread\000"
 4089      68726561 
 4089      6400
 4090              	.LASF168:
 4091 03fd 70657269 		.ascii	"period_cb\000"
 4091      6F645F63 
 4091      6200
 4092              	.LASF126:
 4093 0407 735F636E 		.ascii	"s_cnt\000"
 4093      7400
 4094              	.LASF113:
 4095 040d 636F6E74 		.ascii	"context\000"
 4095      65787400 
 4096              	.LASF169:
 4097 0415 6F766572 		.ascii	"overflow_cb\000"
 4097      666C6F77 
 4097      5F636200 
ARM GAS  /tmp/ccq5w5Mb.s 			page 76


 4098              	.LASF11:
 4099 0421 6C6F6E67 		.ascii	"long long int\000"
 4099      206C6F6E 
 4099      6720696E 
 4099      7400
 4100              	.LASF109:
 4101 042f 504C4C49 		.ascii	"PLLI2SCFGR\000"
 4101      32534346 
 4101      475200
 4102              	.LASF24:
 4103 043a 6D73675F 		.ascii	"msg_t\000"
 4103      7400
 4104              	.LASF87:
 4105 0440 41484233 		.ascii	"AHB3RSTR\000"
 4105      52535452 
 4105      00
 4106              	.LASF166:
 4107 0449 66726571 		.ascii	"frequency\000"
 4107      75656E63 
 4107      7900
 4108              	.LASF76:
 4109 0453 63685F73 		.ascii	"ch_system_t\000"
 4109      79737465 
 4109      6D5F7400 
 4110              	.LASF141:
 4111 045f 49435544 		.ascii	"ICUDriver\000"
 4111      72697665 
 4111      7200
 4112              	.LASF93:
 4113 0469 41484232 		.ascii	"AHB2ENR\000"
 4113      454E5200 
 4114              	.LASF118:
 4115 0471 65786974 		.ascii	"exitcode\000"
 4115      636F6465 
 4115      00
 4116              	.LASF19:
 4117 047a 746D6F64 		.ascii	"tmode_t\000"
 4117      655F7400 
 4118              	.LASF104:
 4119 0482 41504232 		.ascii	"APB2LPENR\000"
 4119      4C50454E 
 4119      5200
 4120              	.LASF146:
 4121 048c 70636372 		.ascii	"pccrp\000"
 4121      7000
 4122              	.LASF55:
 4123 0492 63685F72 		.ascii	"ch_ready_list\000"
 4123      65616479 
 4123      5F6C6973 
 4123      7400
 4124              	.LASF25:
 4125 04a0 6576656E 		.ascii	"eventmask_t\000"
 4125      746D6173 
 4125      6B5F7400 
 4126              	.LASF5:
 4127 04ac 73686F72 		.ascii	"short int\000"
 4127      7420696E 
ARM GAS  /tmp/ccq5w5Mb.s 			page 77


 4127      7400
 4128              	.LASF7:
 4129 04b6 5F5F696E 		.ascii	"__int32_t\000"
 4129      7433325F 
 4129      7400
 4130              	.LASF182:
 4131 04c0 6963755F 		.ascii	"icu_lld_serve_interrupt\000"
 4131      6C6C645F 
 4131      73657276 
 4131      655F696E 
 4131      74657272 
 4132              	.LASF137:
 4133 04d8 4943555F 		.ascii	"ICU_READY\000"
 4133      52454144 
 4133      5900
 4134              	.LASF112:
 4135 04e2 73746B61 		.ascii	"stkalign_t\000"
 4135      6C69676E 
 4135      5F7400
 4136              	.LASF189:
 4137 04ed 6963755F 		.ascii	"icu_lld_enable_notifications\000"
 4137      6C6C645F 
 4137      656E6162 
 4137      6C655F6E 
 4137      6F746966 
 4138              	.LASF18:
 4139 050a 7274636E 		.ascii	"rtcnt_t\000"
 4139      745F7400 
 4140              	.LASF162:
 4141 0512 4943555F 		.ascii	"ICU_CHANNEL_1\000"
 4141      4348414E 
 4141      4E454C5F 
 4141      3100
 4142              	.LASF71:
 4143 0520 63685F76 		.ascii	"ch_virtual_timers_list\000"
 4143      69727475 
 4143      616C5F74 
 4143      696D6572 
 4143      735F6C69 
 4144              	.LASF120:
 4145 0537 77747472 		.ascii	"wttrp\000"
 4145      7000
 4146              	.LASF167:
 4147 053d 77696474 		.ascii	"width_cb\000"
 4147      685F6362 
 4147      00
 4148              	.LASF116:
 4149 0546 746D5F63 		.ascii	"tm_calibration_t\000"
 4149      616C6962 
 4149      72617469 
 4149      6F6E5F74 
 4149      00
 4150              	.LASF34:
 4151 0557 705F6F6C 		.ascii	"p_older\000"
 4151      64657200 
 4152              	.LASF58:
 4153 055f 725F6374 		.ascii	"r_ctx\000"
ARM GAS  /tmp/ccq5w5Mb.s 			page 78


 4153      7800
 4154              	.LASF100:
 4155 0565 41484232 		.ascii	"AHB2LPENR\000"
 4155      4C50454E 
 4155      5200
 4156              	.LASF136:
 4157 056f 4943555F 		.ascii	"ICU_STOP\000"
 4157      53544F50 
 4157      00
 4158              	.LASF68:
 4159 0578 76745F66 		.ascii	"vt_func\000"
 4159      756E6300 
 4160              	.LASF159:
 4161 0580 4943555F 		.ascii	"ICU_INPUT_ACTIVE_LOW\000"
 4161      494E5055 
 4161      545F4143 
 4161      54495645 
 4161      5F4C4F57 
 4162              	.LASF61:
 4163 0595 725F6375 		.ascii	"r_current\000"
 4163      7272656E 
 4163      7400
 4164              	.LASF89:
 4165 059f 41504231 		.ascii	"APB1RSTR\000"
 4165      52535452 
 4165      00
 4166              	.LASF12:
 4167 05a8 5F5F7569 		.ascii	"__uint64_t\000"
 4167      6E743634 
 4167      5F7400
 4168              	.LASF133:
 4169 05b3 666C6F61 		.ascii	"float\000"
 4169      7400
 4170              	.LASF21:
 4171 05b9 74726566 		.ascii	"trefs_t\000"
 4171      735F7400 
 4172              	.LASF88:
 4173 05c1 52455345 		.ascii	"RESERVED0\000"
 4173      52564544 
 4173      3000
 4174              	.LASF91:
 4175 05cb 52455345 		.ascii	"RESERVED1\000"
 4175      52564544 
 4175      3100
 4176              	.LASF95:
 4177 05d5 52455345 		.ascii	"RESERVED2\000"
 4177      52564544 
 4177      3200
 4178              	.LASF98:
 4179 05df 52455345 		.ascii	"RESERVED3\000"
 4179      52564544 
 4179      3300
 4180              	.LASF63:
 4181 05e9 76697274 		.ascii	"virtual_timer_t\000"
 4181      75616C5F 
 4181      74696D65 
 4181      725F7400 
ARM GAS  /tmp/ccq5w5Mb.s 			page 79


 4182              	.LASF30:
 4183 05f9 705F7072 		.ascii	"p_prev\000"
 4183      657600
 4184              	.LASF190:
 4185 0600 6963755F 		.ascii	"icu_lld_disable_notifications\000"
 4185      6C6C645F 
 4185      64697361 
 4185      626C655F 
 4185      6E6F7469 
 4186              	.LASF23:
 4187 061e 74707269 		.ascii	"tprio_t\000"
 4187      6F5F7400 
 4188              	.LASF179:
 4189 0626 69637570 		.ascii	"icup\000"
 4189      00
 4190              	.LASF74:
 4191 062b 63685F73 		.ascii	"ch_system_debug\000"
 4191      79737465 
 4191      6D5F6465 
 4191      62756700 
 4192              	.LASF134:
 4193 063b 5F426F6F 		.ascii	"_Bool\000"
 4193      6C00
 4194              	.LASF15:
 4195 0641 696E7433 		.ascii	"int32_t\000"
 4195      325F7400 
 4196              	.LASF4:
 4197 0649 756E7369 		.ascii	"unsigned char\000"
 4197      676E6564 
 4197      20636861 
 4197      7200
 4198              	.LASF45:
 4199 0657 705F6D74 		.ascii	"p_mtxlist\000"
 4199      786C6973 
 4199      7400
 4200              	.LASF160:
 4201 0661 6963756D 		.ascii	"icumode_t\000"
 4201      6F64655F 
 4201      7400
 4202              	.LASF36:
 4203 066b 705F7374 		.ascii	"p_state\000"
 4203      61746500 
 4204              	.LASF39:
 4205 0673 705F7072 		.ascii	"p_preempt\000"
 4205      65656D70 
 4205      7400
 4206              	.LASF101:
 4207 067d 41484233 		.ascii	"AHB3LPENR\000"
 4207      4C50454E 
 4207      5200
 4208              	.LASF57:
 4209 0687 725F7072 		.ascii	"r_prio\000"
 4209      696F00
 4210              	.LASF119:
 4211 068e 77746F62 		.ascii	"wtobjp\000"
 4211      6A7000
 4212              	.LASF123:
ARM GAS  /tmp/ccq5w5Mb.s 			page 80


 4213 0695 65776D61 		.ascii	"ewmask\000"
 4213      736B00
 4214              	.LASF29:
 4215 069c 705F6E65 		.ascii	"p_next\000"
 4215      787400
 4216              	.LASF37:
 4217 06a3 705F666C 		.ascii	"p_flags\000"
 4217      61677300 
 4218              	.LASF180:
 4219 06ab 5F5F6675 		.ascii	"__func__\000"
 4219      6E635F5F 
 4219      00
 4220              	.LASF177:
 4221 06b4 63685379 		.ascii	"chSysLock\000"
 4221      734C6F63 
 4221      6B00
 4222              	.LASF97:
 4223 06be 41504232 		.ascii	"APB2ENR\000"
 4223      454E5200 
 4224              	.LASF164:
 4225 06c6 69637563 		.ascii	"icuchannel_t\000"
 4225      68616E6E 
 4225      656C5F74 
 4225      00
 4226              	.LASF170:
 4227 06d3 6368616E 		.ascii	"channel\000"
 4227      6E656C00 
 4228              	.LASF94:
 4229 06db 41484233 		.ascii	"AHB3ENR\000"
 4229      454E5200 
 4230              	.LASF124:
 4231 06e3 63685F73 		.ascii	"ch_semaphore\000"
 4231      656D6170 
 4231      686F7265 
 4231      00
 4232              	.LASF156:
 4233 06f0 43435852 		.ascii	"CCXR\000"
 4233      00
 4234              	.LASF44:
 4235 06f5 705F6570 		.ascii	"p_epending\000"
 4235      656E6469 
 4235      6E6700
 4236              	.LASF102:
 4237 0700 52455345 		.ascii	"RESERVED4\000"
 4237      52564544 
 4237      3400
 4238              	.LASF84:
 4239 070a 43464752 		.ascii	"CFGR\000"
 4239      00
 4240              	.LASF105:
 4241 070f 52455345 		.ascii	"RESERVED5\000"
 4241      52564544 
 4241      3500
 4242              	.LASF107:
 4243 0719 52455345 		.ascii	"RESERVED6\000"
 4243      52564544 
 4243      3600
ARM GAS  /tmp/ccq5w5Mb.s 			page 81


 4244              	.LASF193:
 4245 0723 6963754F 		.ascii	"icuObjectInit\000"
 4245      626A6563 
 4245      74496E69 
 4245      7400
 4246              	.LASF122:
 4247 0731 77746D74 		.ascii	"wtmtxp\000"
 4247      787000
 4248              	.LASF56:
 4249 0738 725F7175 		.ascii	"r_queue\000"
 4249      65756500 
 4250              	.LASF72:
 4251 0740 76745F73 		.ascii	"vt_systime\000"
 4251      79737469 
 4251      6D6500
 4252              	.LASF51:
 4253 074b 63685F74 		.ascii	"ch_threads_list\000"
 4253      68726561 
 4253      64735F6C 
 4253      69737400 
 4254              	.LASF10:
 4255 075b 6C6F6E67 		.ascii	"long unsigned int\000"
 4255      20756E73 
 4255      69676E65 
 4255      6420696E 
 4255      7400
 4256              	.LASF131:
 4257 076d 63686172 		.ascii	"char\000"
 4257      00
 4258              	.LASF165:
 4259 0772 6D6F6465 		.ascii	"mode\000"
 4259      00
 4260              	.LASF192:
 4261 0777 49435544 		.ascii	"ICUD3\000"
 4261      3300
 4262              	.LASF143:
 4263 077d 636F6E66 		.ascii	"config\000"
 4263      696700
 4264              	.LASF188:
 4265 0784 6963755F 		.ascii	"icu_lld_stop_capture\000"
 4265      6C6C645F 
 4265      73746F70 
 4265      5F636170 
 4265      74757265 
 4266              	.LASF154:
 4267 0799 444D4152 		.ascii	"DMAR\000"
 4267      00
 4268              	.LASF86:
 4269 079e 41484232 		.ascii	"AHB2RSTR\000"
 4269      52535452 
 4269      00
 4270              	.LASF28:
 4271 07a7 74687265 		.ascii	"thread_t\000"
 4271      61645F74 
 4271      00
 4272              	.LASF152:
 4273 07b0 43434552 		.ascii	"CCER\000"
ARM GAS  /tmp/ccq5w5Mb.s 			page 82


 4273      00
 4274              	.LASF130:
 4275 07b5 6D5F6E65 		.ascii	"m_next\000"
 4275      787400
 4276              	.LASF27:
 4277 07bc 73797374 		.ascii	"systime_t\000"
 4277      696D655F 
 4277      7400
 4278              	.LASF46:
 4279 07c6 705F7265 		.ascii	"p_realprio\000"
 4279      616C7072 
 4279      696F00
 4280              	.LASF62:
 4281 07d1 76746675 		.ascii	"vtfunc_t\000"
 4281      6E635F74 
 4281      00
 4282              	.LASF9:
 4283 07da 5F5F7569 		.ascii	"__uint32_t\000"
 4283      6E743332 
 4283      5F7400
 4284              	.LASF175:
 4285 07e5 5F5F7365 		.ascii	"__set_BASEPRI\000"
 4285      745F4241 
 4285      53455052 
 4285      4900
 4286              	.LASF75:
 4287 07f3 70616E69 		.ascii	"panic_msg\000"
 4287      635F6D73 
 4287      6700
 4288              	.LASF115:
 4289 07fd 6F666673 		.ascii	"offset\000"
 4289      657400
 4290              	.LASF96:
 4291 0804 41504231 		.ascii	"APB1ENR\000"
 4291      454E5200 
 4292              	.LASF186:
 4293 080c 6963755F 		.ascii	"icu_lld_stop\000"
 4293      6C6C645F 
 4293      73746F70 
 4293      00
 4294              	.LASF184:
 4295 0819 6963755F 		.ascii	"icu_lld_init\000"
 4295      6C6C645F 
 4295      696E6974 
 4295      00
 4296              	.LASF60:
 4297 0826 725F6F6C 		.ascii	"r_older\000"
 4297      64657200 
 4298              	.LASF161:
 4299 082e 69637566 		.ascii	"icufreq_t\000"
 4299      7265715F 
 4299      7400
 4300              	.LASF42:
 4301 0838 705F6D73 		.ascii	"p_msgqueue\000"
 4301      67717565 
 4301      756500
 4302              	.LASF85:
ARM GAS  /tmp/ccq5w5Mb.s 			page 83


 4303 0843 41484231 		.ascii	"AHB1RSTR\000"
 4303      52535452 
 4303      00
 4304              	.LASF69:
 4305 084c 76745F70 		.ascii	"vt_par\000"
 4305      617200
 4306              	.LASF108:
 4307 0853 53534347 		.ascii	"SSCGR\000"
 4307      5200
 4308              	.LASF52:
 4309 0859 74687265 		.ascii	"threads_queue_t\000"
 4309      6164735F 
 4309      71756575 
 4309      655F7400 
 4310              	.LASF38:
 4311 0869 705F7265 		.ascii	"p_refs\000"
 4311      667300
 4312              	.LASF199:
 4313 0870 6963755F 		.ascii	"icu_lld_wait_capture\000"
 4313      6C6C645F 
 4313      77616974 
 4313      5F636170 
 4313      74757265 
 4314              	.LASF106:
 4315 0885 42444352 		.ascii	"BDCR\000"
 4315      00
 4316              	.LASF135:
 4317 088a 4943555F 		.ascii	"ICU_UNINIT\000"
 4317      554E494E 
 4317      495400
 4318              	.LASF200:
 4319 0895 5F706F72 		.ascii	"_port_irq_epilogue\000"
 4319      745F6972 
 4319      715F6570 
 4319      696C6F67 
 4319      756500
 4320              	.LASF78:
 4321 08a8 726C6973 		.ascii	"rlist\000"
 4321      7400
 4322              	.LASF14:
 4323 08ae 75696E74 		.ascii	"uint8_t\000"
 4323      385F7400 
 4324              	.LASF82:
 4325 08b6 73697A65 		.ascii	"sizetype\000"
 4325      74797065 
 4325      00
 4326              	.LASF48:
 4327 08bf 74687265 		.ascii	"thread_reference_t\000"
 4327      61645F72 
 4327      65666572 
 4327      656E6365 
 4327      5F7400
 4328              	.LASF127:
 4329 08d2 63685F6D 		.ascii	"ch_mutex\000"
 4329      75746578 
 4329      00
 4330              	.LASF35:
ARM GAS  /tmp/ccq5w5Mb.s 			page 84


 4331 08db 705F6E61 		.ascii	"p_name\000"
 4331      6D6500
 4332              	.LASF92:
 4333 08e2 41484231 		.ascii	"AHB1ENR\000"
 4333      454E5200 
 4334              	.LASF49:
 4335 08ea 74687265 		.ascii	"threads_list_t\000"
 4335      6164735F 
 4335      6C697374 
 4335      5F7400
 4336              	.LASF125:
 4337 08f9 735F7175 		.ascii	"s_queue\000"
 4337      65756500 
 4338              	.LASF185:
 4339 0901 6963755F 		.ascii	"icu_lld_start\000"
 4339      6C6C645F 
 4339      73746172 
 4339      7400
 4340              	.LASF176:
 4341 090f 63685379 		.ascii	"chSysUnlock\000"
 4341      73556E6C 
 4341      6F636B00 
 4342              	.LASF43:
 4343 091b 705F6D73 		.ascii	"p_msg\000"
 4343      6700
 4344              	.LASF144:
 4345 0921 636C6F63 		.ascii	"clock\000"
 4345      6B00
 4346              	.LASF198:
 4347 0927 6963755F 		.ascii	"icu_lld_wait_edge\000"
 4347      6C6C645F 
 4347      77616974 
 4347      5F656467 
 4347      6500
 4348              	.LASF145:
 4349 0939 77636372 		.ascii	"wccrp\000"
 4349      7000
 4350              	.LASF129:
 4351 093f 6D5F6F77 		.ascii	"m_owner\000"
 4351      6E657200 
 4352              	.LASF181:
 4353 0947 72657375 		.ascii	"result\000"
 4353      6C7400
 4354              	.LASF16:
 4355 094e 75696E74 		.ascii	"uint32_t\000"
 4355      33325F74 
 4355      00
 4356              	.LASF32:
 4357 0957 705F6374 		.ascii	"p_ctx\000"
 4357      7800
 4358              	.LASF41:
 4359 095d 705F7761 		.ascii	"p_waiting\000"
 4359      6974696E 
 4359      6700
 4360              	.LASF171:
 4361 0967 64696572 		.ascii	"dier\000"
 4361      00
ARM GAS  /tmp/ccq5w5Mb.s 			page 85


 4362              		.ident	"GCC: (4.8.4-1+11-1) 4.8.4 20141219 (release)"
ARM GAS  /tmp/ccq5w5Mb.s 			page 86


DEFINED SYMBOLS
                            *ABS*:0000000000000000 icu_lld.c
     /tmp/ccq5w5Mb.s:21     .text.icu_lld_wait_edge.isra.0:0000000000000000 $t
     /tmp/ccq5w5Mb.s:26     .text.icu_lld_wait_edge.isra.0:0000000000000000 icu_lld_wait_edge.isra.0
     /tmp/ccq5w5Mb.s:104    .text.VectorB4:0000000000000000 $t
     /tmp/ccq5w5Mb.s:110    .text.VectorB4:0000000000000000 VectorB4
     /tmp/ccq5w5Mb.s:227    .text.VectorB4:000000000000007c $d
     /tmp/ccq5w5Mb.s:234    .text.icu_lld_init:0000000000000000 $t
     /tmp/ccq5w5Mb.s:240    .text.icu_lld_init:0000000000000000 icu_lld_init
     /tmp/ccq5w5Mb.s:262    .text.icu_lld_init:0000000000000010 $d
     /tmp/ccq5w5Mb.s:268    .text.icu_lld_start:0000000000000000 $t
     /tmp/ccq5w5Mb.s:274    .text.icu_lld_start:0000000000000000 icu_lld_start
     /tmp/ccq5w5Mb.s:443    .text.icu_lld_start:00000000000000b0 $d
     /tmp/ccq5w5Mb.s:450    .text.icu_lld_stop:0000000000000000 $t
     /tmp/ccq5w5Mb.s:456    .text.icu_lld_stop:0000000000000000 icu_lld_stop
     /tmp/ccq5w5Mb.s:505    .text.icu_lld_stop:000000000000002c $d
     /tmp/ccq5w5Mb.s:511    .text.icu_lld_start_capture:0000000000000000 $t
     /tmp/ccq5w5Mb.s:517    .text.icu_lld_start_capture:0000000000000000 icu_lld_start_capture
     /tmp/ccq5w5Mb.s:546    .text.icu_lld_wait_capture:0000000000000000 $t
     /tmp/ccq5w5Mb.s:552    .text.icu_lld_wait_capture:0000000000000000 icu_lld_wait_capture
     /tmp/ccq5w5Mb.s:597    .text.icu_lld_stop_capture:0000000000000000 $t
     /tmp/ccq5w5Mb.s:603    .text.icu_lld_stop_capture:0000000000000000 icu_lld_stop_capture
     /tmp/ccq5w5Mb.s:624    .text.icu_lld_enable_notifications:0000000000000000 $t
     /tmp/ccq5w5Mb.s:630    .text.icu_lld_enable_notifications:0000000000000000 icu_lld_enable_notifications
     /tmp/ccq5w5Mb.s:700    .text.icu_lld_disable_notifications:0000000000000000 $t
     /tmp/ccq5w5Mb.s:706    .text.icu_lld_disable_notifications:0000000000000000 icu_lld_disable_notifications
     /tmp/ccq5w5Mb.s:729    .bss.ICUD3:0000000000000000 ICUD3
     /tmp/ccq5w5Mb.s:725    .bss.ICUD3:0000000000000000 $d
                     .debug_frame:0000000000000010 $d
     /tmp/ccq5w5Mb.s:267    .text.icu_lld_init:0000000000000018 $t
     /tmp/ccq5w5Mb.s:449    .text.icu_lld_start:00000000000000bc $t
     /tmp/ccq5w5Mb.s:510    .text.icu_lld_stop:0000000000000034 $t

UNDEFINED SYMBOLS
_port_irq_epilogue
icuObjectInit
nvicEnableVector
nvicDisableVector
