ARM GAS  /tmp/ccq5w5Mb.s 			page 1


   1              		.syntax unified
   2              		.cpu cortex-m4
   3              		.eabi_attribute 27, 3
   4              		.eabi_attribute 28, 1
   5              		.fpu fpv4-sp-d16
   6              		.eabi_attribute 20, 1
   7              		.eabi_attribute 21, 1
   8              		.eabi_attribute 23, 3
   9              		.eabi_attribute 24, 1
  10              		.eabi_attribute 25, 1
  11              		.eabi_attribute 26, 1
  12              		.eabi_attribute 30, 2
  13              		.eabi_attribute 34, 1
  14              		.eabi_attribute 18, 4
  15              		.thumb
  16              		.file	"icu_lld.c"
  17              		.text
  18              	.Ltext0:
  19              		.cfi_sections	.debug_frame
  20              		.section	.text.icu_lld_wait_edge.isra.0,"ax",%progbits
  21              		.align	2
  22              		.p2align 4,,15
  23              		.thumb
  24              		.thumb_func
  25              		.type	icu_lld_wait_edge.isra.0, %function
  26              	icu_lld_wait_edge.isra.0:
  27              	.LFB267:
  28              		.file 1 "ChibiOS_3.0.2/os/hal/ports/STM32/LLD/TIMv1/icu_lld.c"
  29              		.loc 1 105 0
  30              		.cfi_startproc
  31              		@ args = 0, pretend = 0, frame = 0
  32              		@ frame_needed = 0, uses_anonymous_args = 0
  33              		@ link register save eliminated.
  34              	.LVL0:
  35              	.LBB33:
  36              	.LBB34:
  37              	.LBB35:
  38              	.LBB36:
  39              	.LBB37:
  40              		.file 2 "ChibiOS_3.0.2/os/ext/CMSIS/include/core_cmFunc.h"
  41              		.loc 2 546 0
  42 0000 0023     		movs	r3, #0
  43              	@ 546 "ChibiOS_3.0.2/os/ext/CMSIS/include/core_cmFunc.h" 1
  44 0002 83F31188 		MSR basepri, r3
  45              	@ 0 "" 2
  46              		.thumb
  47              	.LBE37:
  48              	.LBE36:
  49              	.LBE35:
  50              	.LBE34:
  51              	.LBE33:
  52              		.loc 1 114 0
  53 0006 0368     		ldr	r3, [r0]
  54 0008 1B7D     		ldrb	r3, [r3, #20]	@ zero_extendqisi2
  55 000a 73B9     		cbnz	r3, .L2
  56 000c 0B68     		ldr	r3, [r1]
  57              	.L4:
ARM GAS  /tmp/ccq5w5Mb.s 			page 2


  58              		.loc 1 116 0
  59 000e 1869     		ldr	r0, [r3, #16]
  60              	.LVL1:
  61 0010 8207     		lsls	r2, r0, #30
  62 0012 FCD0     		beq	.L4
  63              	.L3:
  64              	.LVL2:
  65              	.LBB38:
  66              	.LBB39:
  67              	.LBB40:
  68              	.LBB41:
  69              		.loc 2 546 0
  70 0014 2023     		movs	r3, #32
  71              	@ 546 "ChibiOS_3.0.2/os/ext/CMSIS/include/core_cmFunc.h" 1
  72 0016 83F31188 		MSR basepri, r3
  73              	@ 0 "" 2
  74              		.thumb
  75              	.LBE41:
  76              	.LBE40:
  77              	.LBE39:
  78              	.LBE38:
  79              		.loc 1 134 0
  80 001a 0B68     		ldr	r3, [r1]
  81 001c 1A69     		ldr	r2, [r3, #16]
  82 001e 22F00702 		bic	r2, r2, #7
  83              		.loc 1 139 0
  84 0022 00F00100 		and	r0, r0, #1
  85              	.LVL3:
  86              		.loc 1 134 0
  87 0026 1A61     		str	r2, [r3, #16]
  88              		.loc 1 139 0
  89 0028 7047     		bx	lr
  90              	.LVL4:
  91              	.L2:
  92 002a 0B68     		ldr	r3, [r1]
  93              	.L5:
  94              		.loc 1 122 0
  95 002c 1869     		ldr	r0, [r3, #16]
  96              	.LVL5:
  97 002e 10F0050F 		tst	r0, #5
  98 0032 FBD0     		beq	.L5
  99 0034 EEE7     		b	.L3
 100              		.cfi_endproc
 101              	.LFE267:
 102              		.size	icu_lld_wait_edge.isra.0, .-icu_lld_wait_edge.isra.0
 103 0036 00BFAFF3 		.section	.text.VectorB4,"ax",%progbits
 103      0080AFF3 
 103      0080
 104              		.align	2
 105              		.p2align 4,,15
 106              		.global	VectorB4
 107              		.thumb
 108              		.thumb_func
 109              		.type	VectorB4, %function
 110              	VectorB4:
 111              	.LFB258:
 112              		.loc 1 248 0
ARM GAS  /tmp/ccq5w5Mb.s 			page 3


 113              		.cfi_startproc
 114              		@ args = 0, pretend = 0, frame = 0
 115              		@ frame_needed = 0, uses_anonymous_args = 0
 116              	.LVL6:
 117 0000 38B5     		push	{r3, r4, r5, lr}
 118              		.cfi_def_cfa_offset 16
 119              		.cfi_offset 3, -16
 120              		.cfi_offset 4, -12
 121              		.cfi_offset 5, -8
 122              		.cfi_offset 14, -4
 123              	.LBB44:
 124              	.LBB45:
 125              		.loc 1 149 0
 126 0002 1E4C     		ldr	r4, .L49
 127 0004 E368     		ldr	r3, [r4, #12]
 128              		.loc 1 152 0
 129 0006 6268     		ldr	r2, [r4, #4]
 130              		.loc 1 149 0
 131 0008 1869     		ldr	r0, [r3, #16]
 132              	.LVL7:
 133              		.loc 1 150 0
 134 000a DD68     		ldr	r5, [r3, #12]
 135              		.loc 1 152 0
 136 000c 117D     		ldrb	r1, [r2, #20]	@ zero_extendqisi2
 137              		.loc 1 150 0
 138 000e 0540     		ands	r5, r5, r0
 139              	.LVL8:
 140 0010 E8B2     		uxtb	r0, r5
 141              		.loc 1 151 0
 142 0012 C043     		mvns	r0, r0
 143 0014 1861     		str	r0, [r3, #16]
 144              		.loc 1 152 0
 145 0016 91B9     		cbnz	r1, .L8
 146              		.loc 1 153 0
 147 0018 6B07     		lsls	r3, r5, #29
 148 001a 02D5     		bpl	.L9
 149              		.loc 1 154 0
 150 001c 2378     		ldrb	r3, [r4]	@ zero_extendqisi2
 151 001e 042B     		cmp	r3, #4
 152 0020 25D0     		beq	.L47
 153              	.L9:
 154              		.loc 1 155 0
 155 0022 A807     		lsls	r0, r5, #30
 156 0024 16D4     		bmi	.L46
 157              	.L11:
 158              		.loc 1 164 0
 159 0026 EB07     		lsls	r3, r5, #31
 160 0028 05D5     		bpl	.L17
 161              		.loc 1 165 0
 162 002a 6368     		ldr	r3, [r4, #4]
 163 002c 1348     		ldr	r0, .L49
 164 002e 1B69     		ldr	r3, [r3, #16]
 165 0030 9847     		blx	r3
 166              	.LVL9:
 167 0032 0323     		movs	r3, #3
 168 0034 2370     		strb	r3, [r4]
 169              	.L17:
ARM GAS  /tmp/ccq5w5Mb.s 			page 4


 170              	.LBE45:
 171              	.LBE44:
 172              		.loc 1 255 0
 173 0036 BDE83840 		pop	{r3, r4, r5, lr}
 174              	.LVL10:
 175              		.loc 1 254 0
 176 003a FFF7FEBF 		b	_port_irq_epilogue
 177              	.LVL11:
 178              	.L8:
 179              	.LBB47:
 180              	.LBB46:
 181              		.loc 1 159 0
 182 003e A907     		lsls	r1, r5, #30
 183 0040 06D5     		bpl	.L15
 184              		.loc 1 160 0
 185 0042 2378     		ldrb	r3, [r4]	@ zero_extendqisi2
 186 0044 042B     		cmp	r3, #4
 187 0046 03D1     		bne	.L15
 188 0048 9368     		ldr	r3, [r2, #8]
 189 004a 0BB1     		cbz	r3, .L15
 190 004c 2046     		mov	r0, r4
 191 004e 9847     		blx	r3
 192              	.LVL12:
 193              	.L15:
 194              		.loc 1 161 0
 195 0050 6A07     		lsls	r2, r5, #29
 196 0052 E8D5     		bpl	.L11
 197              	.L46:
 198              		.loc 1 156 0
 199 0054 2378     		ldrb	r3, [r4]	@ zero_extendqisi2
 200 0056 0948     		ldr	r0, .L49
 201 0058 042B     		cmp	r3, #4
 202 005a 02D0     		beq	.L48
 203              	.L13:
 204 005c 0423     		movs	r3, #4
 205 005e 2370     		strb	r3, [r4]
 206 0060 E1E7     		b	.L11
 207              	.L48:
 208 0062 4368     		ldr	r3, [r0, #4]
 209 0064 DB68     		ldr	r3, [r3, #12]
 210 0066 002B     		cmp	r3, #0
 211 0068 F8D0     		beq	.L13
 212 006a 9847     		blx	r3
 213              	.LVL13:
 214 006c F6E7     		b	.L13
 215              	.L47:
 216              		.loc 1 154 0
 217 006e 9368     		ldr	r3, [r2, #8]
 218 0070 002B     		cmp	r3, #0
 219 0072 D6D0     		beq	.L9
 220 0074 2046     		mov	r0, r4
 221 0076 9847     		blx	r3
 222              	.LVL14:
 223 0078 D3E7     		b	.L9
 224              	.L50:
 225 007a 00BF     		.align	2
 226              	.L49:
ARM GAS  /tmp/ccq5w5Mb.s 			page 5


 227 007c 00000000 		.word	.LANCHOR0
 228              	.LBE46:
 229              	.LBE47:
 230              		.cfi_endproc
 231              	.LFE258:
 232              		.size	VectorB4, .-VectorB4
 233              		.section	.text.icu_lld_init,"ax",%progbits
 234              		.align	2
 235              		.p2align 4,,15
 236              		.global	icu_lld_init
 237              		.thumb
 238              		.thumb_func
 239              		.type	icu_lld_init, %function
 240              	icu_lld_init:
 241              	.LFB259:
 242              		.loc 1 375 0
 243              		.cfi_startproc
 244              		@ args = 0, pretend = 0, frame = 0
 245              		@ frame_needed = 0, uses_anonymous_args = 0
 246 0000 10B5     		push	{r4, lr}
 247              		.cfi_def_cfa_offset 8
 248              		.cfi_offset 4, -8
 249              		.cfi_offset 14, -4
 250              		.loc 1 391 0
 251 0002 034C     		ldr	r4, .L52
 252 0004 2046     		mov	r0, r4
 253 0006 FFF7FEFF 		bl	icuObjectInit
 254              	.LVL15:
 255              		.loc 1 392 0
 256 000a 024B     		ldr	r3, .L52+4
 257 000c E360     		str	r3, [r4, #12]
 258 000e 10BD     		pop	{r4, pc}
 259              	.L53:
 260              		.align	2
 261              	.L52:
 262 0010 00000000 		.word	.LANCHOR0
 263 0014 00040040 		.word	1073742848
 264              		.cfi_endproc
 265              	.LFE259:
 266              		.size	icu_lld_init, .-icu_lld_init
 267 0018 AFF30080 		.section	.text.icu_lld_start,"ax",%progbits
 267      AFF30080 
 268              		.align	2
 269              		.p2align 4,,15
 270              		.global	icu_lld_start
 271              		.thumb
 272              		.thumb_func
 273              		.type	icu_lld_start, %function
 274              	icu_lld_start:
 275              	.LFB260:
 276              		.loc 1 427 0
 277              		.cfi_startproc
 278              		@ args = 0, pretend = 0, frame = 0
 279              		@ frame_needed = 0, uses_anonymous_args = 0
 280              	.LVL16:
 281 0000 F8B5     		push	{r3, r4, r5, r6, r7, lr}
 282              		.cfi_def_cfa_offset 24
ARM GAS  /tmp/ccq5w5Mb.s 			page 6


 283              		.cfi_offset 3, -24
 284              		.cfi_offset 4, -20
 285              		.cfi_offset 5, -16
 286              		.cfi_offset 6, -12
 287              		.cfi_offset 7, -8
 288              		.cfi_offset 14, -4
 289              		.loc 1 434 0
 290 0002 0378     		ldrb	r3, [r0]	@ zero_extendqisi2
 291 0004 012B     		cmp	r3, #1
 292              		.loc 1 427 0
 293 0006 0446     		mov	r4, r0
 294              		.loc 1 434 0
 295 0008 3AD0     		beq	.L65
 296              		.loc 1 505 0
 297 000a C368     		ldr	r3, [r0, #12]
 298 000c 0022     		movs	r2, #0
 299 000e 1A60     		str	r2, [r3]
 300              		.loc 1 506 0
 301 0010 5A63     		str	r2, [r3, #52]
 302              		.loc 1 507 0
 303 0012 9A63     		str	r2, [r3, #56]
 304              		.loc 1 508 0
 305 0014 5A62     		str	r2, [r3, #36]
 306              	.LVL17:
 307              	.L57:
 308              		.loc 1 513 0
 309 0016 6268     		ldr	r2, [r4, #4]
 310              		.loc 1 515 0
 311 0018 A568     		ldr	r5, [r4, #8]
 312 001a 5068     		ldr	r0, [r2, #4]
 313              		.loc 1 513 0
 314 001c 9169     		ldr	r1, [r2, #24]
 315              		.loc 1 522 0
 316 001e 167D     		ldrb	r6, [r2, #20]	@ zero_extendqisi2
 317              		.loc 1 535 0
 318 0020 1278     		ldrb	r2, [r2]	@ zero_extendqisi2
 319              		.loc 1 515 0
 320 0022 B5FBF0F0 		udiv	r0, r5, r0
 321 0026 0138     		subs	r0, r0, #1
 322              	.LVL18:
 323              		.loc 1 513 0
 324 0028 21F0FF01 		bic	r1, r1, #255
 325              		.loc 1 512 0
 326 002c 0025     		movs	r5, #0
 327              		.loc 1 520 0
 328 002e 4FF6FF77 		movw	r7, #65535
 329              		.loc 1 512 0
 330 0032 1D61     		str	r5, [r3, #16]
 331              		.loc 1 513 0
 332 0034 D960     		str	r1, [r3, #12]
 333              		.loc 1 519 0
 334 0036 9862     		str	r0, [r3, #40]
 335              		.loc 1 520 0
 336 0038 DF62     		str	r7, [r3, #44]
 337              		.loc 1 522 0
 338 003a 6EB9     		cbnz	r6, .L58
 339              		.loc 1 526 0
ARM GAS  /tmp/ccq5w5Mb.s 			page 7


 340 003c 40F20120 		movw	r0, #513
 341              	.LVL19:
 342              		.loc 1 530 0
 343 0040 5421     		movs	r1, #84
 344              		.loc 1 526 0
 345 0042 9861     		str	r0, [r3, #24]
 346              		.loc 1 530 0
 347 0044 9960     		str	r1, [r3, #8]
 348              		.loc 1 535 0
 349 0046 C2B1     		cbz	r2, .L66
 350              		.loc 1 539 0
 351 0048 1322     		movs	r2, #19
 352 004a 1A62     		str	r2, [r3, #32]
 353              	.LVL20:
 354              	.L60:
 355              		.loc 1 544 0 discriminator 1
 356 004c 03F13802 		add	r2, r3, #56
 357              		.loc 1 545 0 discriminator 1
 358 0050 3433     		adds	r3, r3, #52
 359              		.loc 1 544 0 discriminator 1
 360 0052 2261     		str	r2, [r4, #16]
 361              		.loc 1 545 0 discriminator 1
 362 0054 6361     		str	r3, [r4, #20]
 363 0056 F8BD     		pop	{r3, r4, r5, r6, r7, pc}
 364              	.LVL21:
 365              	.L58:
 366              		.loc 1 551 0
 367 0058 4FF48170 		mov	r0, #258
 368              	.LVL22:
 369              		.loc 1 555 0
 370 005c 6421     		movs	r1, #100
 371              		.loc 1 551 0
 372 005e 9861     		str	r0, [r3, #24]
 373              		.loc 1 555 0
 374 0060 9960     		str	r1, [r3, #8]
 375              		.loc 1 560 0
 376 0062 3AB1     		cbz	r2, .L67
 377              		.loc 1 564 0
 378 0064 3122     		movs	r2, #49
 379 0066 1A62     		str	r2, [r3, #32]
 380              	.LVL23:
 381              	.L63:
 382              		.loc 1 569 0
 383 0068 03F13402 		add	r2, r3, #52
 384              		.loc 1 570 0
 385 006c 3833     		adds	r3, r3, #56
 386              		.loc 1 569 0
 387 006e 2261     		str	r2, [r4, #16]
 388              		.loc 1 570 0
 389 0070 6361     		str	r3, [r4, #20]
 390 0072 F8BD     		pop	{r3, r4, r5, r6, r7, pc}
 391              	.LVL24:
 392              	.L67:
 393              		.loc 1 561 0
 394 0074 1322     		movs	r2, #19
 395 0076 1A62     		str	r2, [r3, #32]
 396              	.LVL25:
ARM GAS  /tmp/ccq5w5Mb.s 			page 8


 397 0078 F6E7     		b	.L63
 398              	.LVL26:
 399              	.L66:
 400              		.loc 1 536 0
 401 007a 3122     		movs	r2, #49
 402 007c 1A62     		str	r2, [r3, #32]
 403              	.LVL27:
 404 007e E5E7     		b	.L60
 405              	.LVL28:
 406              	.L65:
 407              		.loc 1 458 0
 408 0080 0B4B     		ldr	r3, .L68
 409 0082 9842     		cmp	r0, r3
 410 0084 01D0     		beq	.L56
 411              	.LVL29:
 412              	.L64:
 413 0086 E368     		ldr	r3, [r4, #12]
 414 0088 C5E7     		b	.L57
 415              	.LVL30:
 416              	.L56:
 417              		.loc 1 459 0
 418 008a 0A4B     		ldr	r3, .L68+4
 419 008c 1A6C     		ldr	r2, [r3, #64]
 420 008e 42F00202 		orr	r2, r2, #2
 421 0092 1A64     		str	r2, [r3, #64]
 422              		.loc 1 460 0
 423 0094 196A     		ldr	r1, [r3, #32]
 424 0096 0022     		movs	r2, #0
 425 0098 41F00201 		orr	r1, r1, #2
 426 009c 1962     		str	r1, [r3, #32]
 427              		.loc 1 461 0
 428 009e 1D20     		movs	r0, #29
 429              	.LVL31:
 430              		.loc 1 460 0
 431 00a0 1A62     		str	r2, [r3, #32]
 432              		.loc 1 461 0
 433 00a2 0721     		movs	r1, #7
 434 00a4 FFF7FEFF 		bl	nvicEnableVector
 435              	.LVL32:
 436              		.loc 1 462 0
 437 00a8 034B     		ldr	r3, .L68+8
 438 00aa A360     		str	r3, [r4, #8]
 439 00ac EBE7     		b	.L64
 440              	.L69:
 441 00ae 00BF     		.align	2
 442              	.L68:
 443 00b0 00000000 		.word	.LANCHOR0
 444 00b4 00380240 		.word	1073887232
 445 00b8 00BD0105 		.word	84000000
 446              		.cfi_endproc
 447              	.LFE260:
 448              		.size	icu_lld_start, .-icu_lld_start
 449 00bc AFF30080 		.section	.text.icu_lld_stop,"ax",%progbits
 450              		.align	2
 451              		.p2align 4,,15
 452              		.global	icu_lld_stop
 453              		.thumb
ARM GAS  /tmp/ccq5w5Mb.s 			page 9


 454              		.thumb_func
 455              		.type	icu_lld_stop, %function
 456              	icu_lld_stop:
 457              	.LFB261:
 458              		.loc 1 581 0
 459              		.cfi_startproc
 460              		@ args = 0, pretend = 0, frame = 0
 461              		@ frame_needed = 0, uses_anonymous_args = 0
 462              	.LVL33:
 463 0000 08B5     		push	{r3, lr}
 464              		.cfi_def_cfa_offset 8
 465              		.cfi_offset 3, -8
 466              		.cfi_offset 14, -4
 467              		.loc 1 583 0
 468 0002 0378     		ldrb	r3, [r0]	@ zero_extendqisi2
 469 0004 022B     		cmp	r3, #2
 470 0006 00D0     		beq	.L74
 471              	.LVL34:
 472              	.L70:
 473 0008 08BD     		pop	{r3, pc}
 474              	.LVL35:
 475              	.L74:
 476              		.loc 1 603 0
 477 000a 0849     		ldr	r1, .L75
 478              		.loc 1 585 0
 479 000c C368     		ldr	r3, [r0, #12]
 480 000e 0022     		movs	r2, #0
 481              		.loc 1 603 0
 482 0010 8842     		cmp	r0, r1
 483              		.loc 1 585 0
 484 0012 1A60     		str	r2, [r3]
 485              		.loc 1 586 0
 486 0014 DA60     		str	r2, [r3, #12]
 487              		.loc 1 587 0
 488 0016 1A61     		str	r2, [r3, #16]
 489              		.loc 1 603 0
 490 0018 F6D1     		bne	.L70
 491              		.loc 1 604 0
 492 001a 1D20     		movs	r0, #29
 493              	.LVL36:
 494 001c FFF7FEFF 		bl	nvicDisableVector
 495              	.LVL37:
 496              		.loc 1 605 0
 497 0020 034B     		ldr	r3, .L75+4
 498 0022 1A6C     		ldr	r2, [r3, #64]
 499 0024 22F00202 		bic	r2, r2, #2
 500 0028 1A64     		str	r2, [r3, #64]
 501 002a EDE7     		b	.L70
 502              	.L76:
 503              		.align	2
 504              	.L75:
 505 002c 00000000 		.word	.LANCHOR0
 506 0030 00380240 		.word	1073887232
 507              		.cfi_endproc
 508              	.LFE261:
 509              		.size	icu_lld_stop, .-icu_lld_stop
 510 0034 AFF30080 		.section	.text.icu_lld_start_capture,"ax",%progbits
ARM GAS  /tmp/ccq5w5Mb.s 			page 10


 510      AFF30080 
 510      AFF30080 
 511              		.align	2
 512              		.p2align 4,,15
 513              		.global	icu_lld_start_capture
 514              		.thumb
 515              		.thumb_func
 516              		.type	icu_lld_start_capture, %function
 517              	icu_lld_start_capture:
 518              	.LFB262:
 519              		.loc 1 643 0
 520              		.cfi_startproc
 521              		@ args = 0, pretend = 0, frame = 0
 522              		@ frame_needed = 0, uses_anonymous_args = 0
 523              		@ link register save eliminated.
 524              	.LVL38:
 525              		.loc 1 646 0
 526 0000 C368     		ldr	r3, [r0, #12]
 527 0002 5869     		ldr	r0, [r3, #20]
 528              	.LVL39:
 529              		.loc 1 647 0
 530 0004 0021     		movs	r1, #0
 531              		.loc 1 646 0
 532 0006 40F00100 		orr	r0, r0, #1
 533              		.loc 1 650 0
 534 000a 0522     		movs	r2, #5
 535              		.loc 1 646 0
 536 000c 5861     		str	r0, [r3, #20]
 537              		.loc 1 647 0
 538 000e 1961     		str	r1, [r3, #16]
 539              		.loc 1 650 0
 540 0010 1A60     		str	r2, [r3]
 541 0012 7047     		bx	lr
 542              		.cfi_endproc
 543              	.LFE262:
 544              		.size	icu_lld_start_capture, .-icu_lld_start_capture
 545 0014 AFF30080 		.section	.text.icu_lld_wait_capture,"ax",%progbits
 545      AFF30080 
 545      AFF30080 
 546              		.align	2
 547              		.p2align 4,,15
 548              		.global	icu_lld_wait_capture
 549              		.thumb
 550              		.thumb_func
 551              		.type	icu_lld_wait_capture, %function
 552              	icu_lld_wait_capture:
 553              	.LFB263:
 554              		.loc 1 665 0
 555              		.cfi_startproc
 556              		@ args = 0, pretend = 0, frame = 0
 557              		@ frame_needed = 0, uses_anonymous_args = 0
 558              	.LVL40:
 559 0000 38B5     		push	{r3, r4, r5, lr}
 560              		.cfi_def_cfa_offset 16
 561              		.cfi_offset 3, -16
 562              		.cfi_offset 4, -12
 563              		.cfi_offset 5, -8
ARM GAS  /tmp/ccq5w5Mb.s 			page 11


 564              		.cfi_offset 14, -4
 565              		.loc 1 669 0
 566 0002 0378     		ldrb	r3, [r0]	@ zero_extendqisi2
 567 0004 032B     		cmp	r3, #3
 568 0006 00F10405 		add	r5, r0, #4
 569 000a 00F10C04 		add	r4, r0, #12
 570 000e 05D0     		beq	.L79
 571              	.LVL41:
 572              	.L80:
 573              		.loc 1 674 0
 574 0010 2846     		mov	r0, r5
 575 0012 2146     		mov	r1, r4
 576              		.loc 1 675 0
 577 0014 BDE83840 		pop	{r3, r4, r5, lr}
 578              	.LVL42:
 579              		.loc 1 674 0
 580 0018 FFF7FEBF 		b	icu_lld_wait_edge.isra.0
 581              	.LVL43:
 582              	.L79:
 583              		.loc 1 670 0
 584 001c 2846     		mov	r0, r5
 585              	.LVL44:
 586 001e 2146     		mov	r1, r4
 587 0020 FFF7FEFF 		bl	icu_lld_wait_edge.isra.0
 588              	.LVL45:
 589 0024 0028     		cmp	r0, #0
 590 0026 F3D0     		beq	.L80
 591              		.loc 1 675 0
 592 0028 38BD     		pop	{r3, r4, r5, pc}
 593              		.cfi_endproc
 594              	.LFE263:
 595              		.size	icu_lld_wait_capture, .-icu_lld_wait_capture
 596 002a 00BFAFF3 		.section	.text.icu_lld_stop_capture,"ax",%progbits
 596      0080
 597              		.align	2
 598              		.p2align 4,,15
 599              		.global	icu_lld_stop_capture
 600              		.thumb
 601              		.thumb_func
 602              		.type	icu_lld_stop_capture, %function
 603              	icu_lld_stop_capture:
 604              	.LFB264:
 605              		.loc 1 684 0
 606              		.cfi_startproc
 607              		@ args = 0, pretend = 0, frame = 0
 608              		@ frame_needed = 0, uses_anonymous_args = 0
 609              		@ link register save eliminated.
 610              	.LVL46:
 611              		.loc 1 687 0
 612 0000 C368     		ldr	r3, [r0, #12]
 613 0002 0022     		movs	r2, #0
 614 0004 1A60     		str	r2, [r3]
 615              		.loc 1 690 0
 616 0006 DA68     		ldr	r2, [r3, #12]
 617 0008 22F0FF02 		bic	r2, r2, #255
 618 000c DA60     		str	r2, [r3, #12]
 619 000e 7047     		bx	lr
ARM GAS  /tmp/ccq5w5Mb.s 			page 12


 620              		.cfi_endproc
 621              	.LFE264:
 622              		.size	icu_lld_stop_capture, .-icu_lld_stop_capture
 623              		.section	.text.icu_lld_enable_notifications,"ax",%progbits
 624              		.align	2
 625              		.p2align 4,,15
 626              		.global	icu_lld_enable_notifications
 627              		.thumb
 628              		.thumb_func
 629              		.type	icu_lld_enable_notifications, %function
 630              	icu_lld_enable_notifications:
 631              	.LFB265:
 632              		.loc 1 702 0
 633              		.cfi_startproc
 634              		@ args = 0, pretend = 0, frame = 0
 635              		@ frame_needed = 0, uses_anonymous_args = 0
 636              		@ link register save eliminated.
 637              	.LVL47:
 638              		.loc 1 703 0
 639 0000 C268     		ldr	r2, [r0, #12]
 640 0002 D368     		ldr	r3, [r2, #12]
 641              	.LVL48:
 642              		.loc 1 702 0
 643 0004 10B4     		push	{r4}
 644              		.cfi_def_cfa_offset 4
 645              		.cfi_offset 4, -4
 646              		.loc 1 708 0
 647 0006 13F0FF04 		ands	r4, r3, #255
 648 000a 0CD1     		bne	.L85
 649              		.loc 1 712 0
 650 000c 4168     		ldr	r1, [r0, #4]
 651              		.loc 1 710 0
 652 000e 1461     		str	r4, [r2, #16]
 653              		.loc 1 712 0
 654 0010 087D     		ldrb	r0, [r1, #20]	@ zero_extendqisi2
 655              	.LVL49:
 656 0012 58B1     		cbz	r0, .L95
 657              	.LVL50:
 658              		.loc 1 725 0
 659 0014 8868     		ldr	r0, [r1, #8]
 660 0016 78B1     		cbz	r0, .L96
 661              	.LVL51:
 662              	.L90:
 663              		.loc 1 726 0
 664 0018 43F00603 		orr	r3, r3, #6
 665              	.LVL52:
 666              	.L89:
 667              		.loc 1 731 0
 668 001c 0969     		ldr	r1, [r1, #16]
 669 001e 09B1     		cbz	r1, .L91
 670              		.loc 1 732 0
 671 0020 43F00103 		orr	r3, r3, #1
 672              	.LVL53:
 673              	.L91:
 674              		.loc 1 735 0
 675 0024 D360     		str	r3, [r2, #12]
 676              	.L85:
ARM GAS  /tmp/ccq5w5Mb.s 			page 13


 677              		.loc 1 737 0
 678 0026 5DF8044B 		ldr	r4, [sp], #4
 679 002a 7047     		bx	lr
 680              	.L95:
 681              	.LVL54:
 682              		.loc 1 717 0
 683 002c 8868     		ldr	r0, [r1, #8]
 684 002e 0028     		cmp	r0, #0
 685 0030 F2D1     		bne	.L90
 686              		.loc 1 714 0
 687 0032 43F00203 		orr	r3, r3, #2
 688              	.LVL55:
 689 0036 F1E7     		b	.L89
 690              	.LVL56:
 691              	.L96:
 692              		.loc 1 722 0
 693 0038 43F00403 		orr	r3, r3, #4
 694              	.LVL57:
 695 003c EEE7     		b	.L89
 696              		.cfi_endproc
 697              	.LFE265:
 698              		.size	icu_lld_enable_notifications, .-icu_lld_enable_notifications
 699 003e 00BF     		.section	.text.icu_lld_disable_notifications,"ax",%progbits
 700              		.align	2
 701              		.p2align 4,,15
 702              		.global	icu_lld_disable_notifications
 703              		.thumb
 704              		.thumb_func
 705              		.type	icu_lld_disable_notifications, %function
 706              	icu_lld_disable_notifications:
 707              	.LFB266:
 708              		.loc 1 748 0
 709              		.cfi_startproc
 710              		@ args = 0, pretend = 0, frame = 0
 711              		@ frame_needed = 0, uses_anonymous_args = 0
 712              		@ link register save eliminated.
 713              	.LVL58:
 714              		.loc 1 751 0
 715 0000 C368     		ldr	r3, [r0, #12]
 716 0002 DA68     		ldr	r2, [r3, #12]
 717 0004 22F0FF02 		bic	r2, r2, #255
 718 0008 DA60     		str	r2, [r3, #12]
 719 000a 7047     		bx	lr
 720              		.cfi_endproc
 721              	.LFE266:
 722              		.size	icu_lld_disable_notifications, .-icu_lld_disable_notifications
 723              		.global	ICUD3
 724 000c AFF30080 		.section	.bss.ICUD3,"aw",%nobits
 725              		.align	2
 726              		.set	.LANCHOR0,. + 0
 727              		.type	ICUD3, %object
 728              		.size	ICUD3, 24
 729              	ICUD3:
 730 0000 00000000 		.space	24
 730      00000000 
 730      00000000 
 730      00000000 
ARM GAS  /tmp/ccq5w5Mb.s 			page 14


 730      00000000 
 731              		.text
 732              	.Letext0:
 733              		.file 3 "/usr/lib/gcc/arm-none-eabi/4.8/include/stddef.h"
 734              		.file 4 "/usr/include/newlib/machine/_default_types.h"
 735              		.file 5 "/usr/include/newlib/stdint.h"
 736              		.file 6 "ChibiOS_3.0.2/os/rt/ports/ARMCMx/compilers/GCC/chtypes.h"
 737              		.file 7 "ChibiOS_3.0.2/os/rt/include/chsystypes.h"
 738              		.file 8 "ChibiOS_3.0.2/os/rt/include/chschd.h"
 739              		.file 9 "ChibiOS_3.0.2/os/ext/CMSIS/ST/stm32f407xx.h"
 740              		.file 10 "ChibiOS_3.0.2/os/rt/ports/ARMCMx/chcore.h"
 741              		.file 11 "ChibiOS_3.0.2/os/rt/ports/ARMCMx/chcore_v7m.h"
 742              		.file 12 "ChibiOS_3.0.2/os/rt/include/chtm.h"
 743              		.file 13 "ChibiOS_3.0.2/os/rt/include/chsem.h"
 744              		.file 14 "ChibiOS_3.0.2/os/rt/include/chmtx.h"
 745              		.file 15 "ChibiOS_3.0.2/os/hal/include/icu.h"
 746              		.file 16 "ChibiOS_3.0.2/os/hal/ports/STM32/LLD/TIMv1/icu_lld.h"
 747              		.file 17 "ChibiOS_3.0.2/os/hal/ports/STM32/LLD/TIMv1/stm32_tim.h"
 748              		.file 18 "ChibiOS_3.0.2/os/rt/include/chsys.h"
 749              		.file 19 "ChibiOS_3.0.2/os/ext/CMSIS/include/core_cm4.h"
 750              		.file 20 "ChibiOS_3.0.2/os/hal/ports/common/ARMCMx/nvic.h"