ARM GAS  /tmp/ccwifD7O.s 			page 1


   1              		.syntax unified
   2              		.cpu cortex-m4
   3              		.eabi_attribute 27, 3
   4              		.eabi_attribute 28, 1
   5              		.fpu fpv4-sp-d16
   6              		.eabi_attribute 20, 1
   7              		.eabi_attribute 21, 1
   8              		.eabi_attribute 23, 3
   9              		.eabi_attribute 24, 1
  10              		.eabi_attribute 25, 1
  11              		.eabi_attribute 26, 1
  12              		.eabi_attribute 30, 2
  13              		.eabi_attribute 34, 1
  14              		.eabi_attribute 18, 4
  15              		.thumb
  16              		.file	"irq_handlers.c"
  17              		.text
  18              	.Ltext0:
  19              		.cfi_sections	.debug_frame
  20              		.section	.text.Vector88,"ax",%progbits
  21              		.align	2
  22              		.p2align 4,,15
  23              		.global	Vector88
  24              		.thumb
  25              		.thumb_func
  26              		.type	Vector88, %function
  27              	Vector88:
  28              	.LFB256:
  29              		.file 1 "irq_handlers.c"
  30              		.loc 1 39 0
  31              		.cfi_startproc
  32              		@ args = 0, pretend = 0, frame = 0
  33              		@ frame_needed = 0, uses_anonymous_args = 0
  34 0000 08B5     		push	{r3, lr}
  35              		.cfi_def_cfa_offset 8
  36              		.cfi_offset 3, -8
  37              		.cfi_offset 14, -4
  38              		.loc 1 41 0
  39 0002 0548     		ldr	r0, .L2
  40 0004 40F20741 		movw	r1, #1031
  41 0008 FFF7FEFF 		bl	ADC_ClearITPendingBit
  42              	.LVL0:
  43              		.loc 1 42 0
  44 000c FFF7FEFF 		bl	mc_interface_adc_inj_int_handler
  45              	.LVL1:
  46              		.loc 1 44 0
  47 0010 BDE80840 		pop	{r3, lr}
  48              		.loc 1 43 0
  49 0014 FFF7FEBF 		b	_port_irq_epilogue
  50              	.LVL2:
  51              	.L3:
  52              		.align	2
  53              	.L2:
  54 0018 00200140 		.word	1073815552
  55              		.cfi_endproc
  56              	.LFE256:
  57              		.size	Vector88, .-Vector88
ARM GAS  /tmp/ccwifD7O.s 			page 2


  58 001c AFF30080 		.section	.text.VectorE0,"ax",%progbits
  59              		.align	2
  60              		.p2align 4,,15
  61              		.global	VectorE0
  62              		.thumb
  63              		.thumb_func
  64              		.type	VectorE0, %function
  65              	VectorE0:
  66              	.LFB257:
  67              		.loc 1 46 0
  68              		.cfi_startproc
  69              		@ args = 0, pretend = 0, frame = 0
  70              		@ frame_needed = 0, uses_anonymous_args = 0
  71 0000 08B5     		push	{r3, lr}
  72              		.cfi_def_cfa_offset 8
  73              		.cfi_offset 3, -8
  74              		.cfi_offset 14, -4
  75              		.loc 1 47 0
  76 0002 4FF40060 		mov	r0, #2048
  77 0006 FFF7FEFF 		bl	EXTI_GetITStatus
  78              	.LVL3:
  79 000a 00B9     		cbnz	r0, .L7
  80 000c 08BD     		pop	{r3, pc}
  81              	.L7:
  82              		.loc 1 48 0
  83 000e FFF7FEFF 		bl	encoder_reset
  84              	.LVL4:
  85              		.loc 1 51 0
  86 0012 4FF40060 		mov	r0, #2048
  87              		.loc 1 53 0
  88 0016 BDE80840 		pop	{r3, lr}
  89              		.loc 1 51 0
  90 001a FFF7FEBF 		b	EXTI_ClearITPendingBit
  91              	.LVL5:
  92              		.cfi_endproc
  93              	.LFE257:
  94              		.size	VectorE0, .-VectorE0
  95 001e 00BF     		.section	.text.VectorB8,"ax",%progbits
  96              		.align	2
  97              		.p2align 4,,15
  98              		.global	VectorB8
  99              		.thumb
 100              		.thumb_func
 101              		.type	VectorB8, %function
 102              	VectorB8:
 103              	.LFB258:
 104              		.loc 1 55 0
 105              		.cfi_startproc
 106              		@ args = 0, pretend = 0, frame = 0
 107              		@ frame_needed = 0, uses_anonymous_args = 0
 108 0000 08B5     		push	{r3, lr}
 109              		.cfi_def_cfa_offset 8
 110              		.cfi_offset 3, -8
 111              		.cfi_offset 14, -4
 112              		.loc 1 56 0
 113 0002 0748     		ldr	r0, .L11
 114 0004 0121     		movs	r1, #1
ARM GAS  /tmp/ccwifD7O.s 			page 3


 115 0006 FFF7FEFF 		bl	TIM_GetITStatus
 116              	.LVL6:
 117 000a 00B9     		cbnz	r0, .L10
 118 000c 08BD     		pop	{r3, pc}
 119              	.L10:
 120              		.loc 1 57 0
 121 000e FFF7FEFF 		bl	encoder_tim_isr
 122              	.LVL7:
 123              		.loc 1 60 0
 124 0012 0348     		ldr	r0, .L11
 125 0014 0121     		movs	r1, #1
 126              		.loc 1 62 0
 127 0016 BDE80840 		pop	{r3, lr}
 128              		.loc 1 60 0
 129 001a FFF7FEBF 		b	TIM_ClearITPendingBit
 130              	.LVL8:
 131              	.L12:
 132 001e 00BF     		.align	2
 133              	.L11:
 134 0020 00080040 		.word	1073743872
 135              		.cfi_endproc
 136              	.LFE258:
 137              		.size	VectorB8, .-VectorB8
 138 0024 AFF30080 		.section	.text.VectorF8,"ax",%progbits
 138      AFF30080 
 138      AFF30080 
 139              		.align	2
 140              		.p2align 4,,15
 141              		.global	VectorF8
 142              		.thumb
 143              		.thumb_func
 144              		.type	VectorF8, %function
 145              	VectorF8:
 146              	.LFB259:
 147              		.loc 1 64 0
 148              		.cfi_startproc
 149              		@ args = 0, pretend = 0, frame = 0
 150              		@ frame_needed = 0, uses_anonymous_args = 0
 151 0000 08B5     		push	{r3, lr}
 152              		.cfi_def_cfa_offset 8
 153              		.cfi_offset 3, -8
 154              		.cfi_offset 14, -4
 155              		.loc 1 65 0
 156 0002 0748     		ldr	r0, .L16
 157 0004 0221     		movs	r1, #2
 158 0006 FFF7FEFF 		bl	TIM_GetITStatus
 159              	.LVL9:
 160 000a 00B9     		cbnz	r0, .L15
 161 000c 08BD     		pop	{r3, pc}
 162              	.L15:
 163              		.loc 1 66 0
 164 000e FFF7FEFF 		bl	mcpwm_foc_tim_sample_int_handler
 165              	.LVL10:
 166              		.loc 1 69 0
 167 0012 0348     		ldr	r0, .L16
 168 0014 0221     		movs	r1, #2
 169              		.loc 1 71 0
ARM GAS  /tmp/ccwifD7O.s 			page 4


 170 0016 BDE80840 		pop	{r3, lr}
 171              		.loc 1 69 0
 172 001a FFF7FEBF 		b	TIM_ClearITPendingBit
 173              	.LVL11:
 174              	.L17:
 175 001e 00BF     		.align	2
 176              	.L16:
 177 0020 00040140 		.word	1073808384
 178              		.cfi_endproc
 179              	.LFE259:
 180              		.size	VectorF8, .-VectorF8
 181 0024 AFF30080 		.text
 181      AFF30080 
 181      AFF30080 
 182              	.Letext0:
 183              		.file 2 "/usr/include/newlib/machine/_default_types.h"
 184              		.file 3 "/usr/include/newlib/stdint.h"
 185              		.file 4 "ChibiOS_3.0.2/os/rt/ports/ARMCMx/compilers/GCC/chtypes.h"
 186              		.file 5 "ChibiOS_3.0.2/os/rt/include/chsystypes.h"
 187              		.file 6 "ChibiOS_3.0.2/os/rt/include/chschd.h"
 188              		.file 7 "ChibiOS_3.0.2/os/ext/CMSIS/ST/stm32f407xx.h"
 189              		.file 8 "ChibiOS_3.0.2/os/ext/CMSIS/ST/stm32f4xx.h"
 190              		.file 9 "ChibiOS_3.0.2/os/rt/ports/ARMCMx/chcore.h"
 191              		.file 10 "ChibiOS_3.0.2/os/rt/ports/ARMCMx/chcore_v7m.h"
 192              		.file 11 "ChibiOS_3.0.2/os/rt/include/chtm.h"
 193              		.file 12 "ChibiOS_3.0.2/os/rt/include/chsem.h"
 194              		.file 13 "ChibiOS_3.0.2/os/rt/include/chmtx.h"
 195              		.file 14 "mc_interface.h"
 196              		.file 15 "encoder.h"
 197              		.file 16 "ChibiOS_3.0.2/ext/stdperiph_stm32f4/inc/stm32f4xx_adc.h"
 198              		.file 17 "ChibiOS_3.0.2/ext/stdperiph_stm32f4/inc/stm32f4xx_exti.h"
 199              		.file 18 "ChibiOS_3.0.2/ext/stdperiph_stm32f4/inc/stm32f4xx_tim.h"
 200              		.file 19 "mcpwm_foc.h"
 201              		.file 20 "ChibiOS_3.0.2/os/ext/CMSIS/include/core_cm4.h"