ARM GAS  /tmp/cccegR9C.s 			page 1


   1              		.syntax unified
   2              		.cpu cortex-m4
   3              		.eabi_attribute 27, 3
   4              		.eabi_attribute 28, 1
   5              		.fpu fpv4-sp-d16
   6              		.eabi_attribute 20, 1
   7              		.eabi_attribute 21, 1
   8              		.eabi_attribute 23, 3
   9              		.eabi_attribute 24, 1
  10              		.eabi_attribute 25, 1
  11              		.eabi_attribute 26, 1
  12              		.eabi_attribute 30, 2
  13              		.eabi_attribute 34, 1
  14              		.eabi_attribute 18, 4
  15              		.thumb
  16              		.file	"led_external.c"
  17              		.text
  18              	.Ltext0:
  19              		.cfi_sections	.debug_frame
  20              		.section	.text.wait_for_state_change,"ax",%progbits
  21              		.align	2
  22              		.p2align 4,,15
  23              		.thumb
  24              		.thumb_func
  25              		.type	wait_for_state_change, %function
  26              	wait_for_state_change:
  27              	.LFB261:
  28              		.file 1 "led_external.c"
  29              		.loc 1 201 0
  30              		.cfi_startproc
  31              		@ args = 0, pretend = 0, frame = 0
  32              		@ frame_needed = 0, uses_anonymous_args = 0
  33 0000 F8B5     		push	{r3, r4, r5, r6, r7, lr}
  34              		.cfi_def_cfa_offset 24
  35              		.cfi_offset 3, -24
  36              		.cfi_offset 4, -20
  37              		.cfi_offset 5, -16
  38              		.cfi_offset 6, -12
  39              		.cfi_offset 7, -8
  40              		.cfi_offset 14, -4
  41              		.loc 1 202 0
  42 0002 0B4C     		ldr	r4, .L8
  43              		.loc 1 203 0
  44 0004 0B4D     		ldr	r5, .L8+4
  45              		.loc 1 202 0
  46 0006 2378     		ldrb	r3, [r4]	@ zero_extendqisi2
  47              	.LVL0:
  48              		.loc 1 203 0
  49 0008 2F78     		ldrb	r7, [r5]	@ zero_extendqisi2
  50              		.loc 1 204 0
  51 000a 2678     		ldrb	r6, [r4]	@ zero_extendqisi2
  52 000c F6B2     		uxtb	r6, r6
  53 000e 9E42     		cmp	r6, r3
  54              		.loc 1 203 0
  55 0010 FFB2     		uxtb	r7, r7
  56              	.LVL1:
  57              		.loc 1 204 0
ARM GAS  /tmp/cccegR9C.s 			page 2


  58 0012 09D0     		beq	.L5
  59 0014 0BE0     		b	.L1
  60              	.LVL2:
  61              	.L7:
  62 0016 FFF7FEFF 		bl	mc_interface_get_fault
  63              	.LVL3:
  64 001a 40B9     		cbnz	r0, .L1
  65              		.loc 1 205 0
  66 001c 6420     		movs	r0, #100
  67 001e FFF7FEFF 		bl	chThdSleep
  68              	.LVL4:
  69              		.loc 1 204 0
  70 0022 2378     		ldrb	r3, [r4]	@ zero_extendqisi2
  71 0024 B342     		cmp	r3, r6
  72 0026 02D1     		bne	.L1
  73              	.L5:
  74 0028 2B78     		ldrb	r3, [r5]	@ zero_extendqisi2
  75 002a 9F42     		cmp	r7, r3
  76 002c F3D0     		beq	.L7
  77              	.L1:
  78 002e F8BD     		pop	{r3, r4, r5, r6, r7, pc}
  79              	.LVL5:
  80              	.L9:
  81              		.align	2
  82              	.L8:
  83 0030 00000000 		.word	.LANCHOR0
  84 0034 00000000 		.word	.LANCHOR1
  85              		.cfi_endproc
  86              	.LFE261:
  87              		.size	wait_for_state_change, .-wait_for_state_change
  88 0038 AFF30080 		.section	.text.set_led_wrapper,"ax",%progbits
  88      AFF30080 
  89              		.align	2
  90              		.p2align 4,,15
  91              		.thumb
  92              		.thumb_func
  93              		.type	set_led_wrapper, %function
  94              	set_led_wrapper:
  95              	.LFB262:
  96              		.loc 1 209 0
  97              		.cfi_startproc
  98              		@ args = 0, pretend = 0, frame = 0
  99              		@ frame_needed = 0, uses_anonymous_args = 0
 100              		@ link register save eliminated.
 101              	.LVL6:
 102              		.loc 1 210 0
 103 0000 064B     		ldr	r3, .L13
 104 0002 1A78     		ldrb	r2, [r3]	@ zero_extendqisi2
 105 0004 3AB1     		cbz	r2, .L11
 106              		.loc 1 211 0
 107 0006 0D28     		cmp	r0, #13
 108 0008 02DC     		bgt	.L12
 109              		.loc 1 212 0
 110 000a 0E30     		adds	r0, r0, #14
 111              	.LVL7:
 112 000c FFF7FEBF 		b	ws2811_set_led_color
 113              	.LVL8:
ARM GAS  /tmp/cccegR9C.s 			page 3


 114              	.L12:
 115              		.loc 1 214 0
 116 0010 0E38     		subs	r0, r0, #14
 117              	.LVL9:
 118 0012 FFF7FEBF 		b	ws2811_set_led_color
 119              	.LVL10:
 120              	.L11:
 121              		.loc 1 217 0
 122 0016 FFF7FEBF 		b	ws2811_set_led_color
 123              	.LVL11:
 124              	.L14:
 125 001a 00BF     		.align	2
 126              	.L13:
 127 001c 00000000 		.word	.LANCHOR1
 128              		.cfi_endproc
 129              	.LFE262:
 130              		.size	set_led_wrapper, .-set_led_wrapper
 131              		.section	.text.led_thread,"ax",%progbits
 132              		.align	2
 133              		.p2align 4,,15
 134              		.thumb
 135              		.thumb_func
 136              		.type	led_thread, %function
 137              	led_thread:
 138              	.LFB259:
 139              		.loc 1 56 0
 140              		.cfi_startproc
 141              		@ args = 0, pretend = 0, frame = 8
 142              		@ frame_needed = 0, uses_anonymous_args = 0
 143              	.LVL12:
 144 0000 2DE9F04F 		push	{r4, r5, r6, r7, r8, r9, r10, fp, lr}
 145              		.cfi_def_cfa_offset 36
 146              		.cfi_offset 4, -36
 147              		.cfi_offset 5, -32
 148              		.cfi_offset 6, -28
 149              		.cfi_offset 7, -24
 150              		.cfi_offset 8, -20
 151              		.cfi_offset 9, -16
 152              		.cfi_offset 10, -12
 153              		.cfi_offset 11, -8
 154              		.cfi_offset 14, -4
 155              	.LBB110:
 156              	.LBB111:
 157              		.file 2 "ChibiOS_3.0.2/os/rt/include/chregistry.h"
 158              		.loc 2 135 0
 159 0004 DFF85093 		ldr	r9, .L78+44
 160 0008 C84A     		ldr	r2, .L78
 161 000a D9F81830 		ldr	r3, [r9, #24]
 162 000e C84F     		ldr	r7, .L78+4
 163 0010 DFF84883 		ldr	r8, .L78+48
 164              	.LBE111:
 165              	.LBE110:
 166              	.LBB113:
 167              	.LBB114:
 168              		.loc 1 144 0
 169 0014 DFF848A3 		ldr	r10, .L78+52
 170              	.LBE114:
ARM GAS  /tmp/cccegR9C.s 			page 4


 171              	.LBE113:
 172              		.loc 1 56 0
 173 0018 2DED068B 		fstmfdd	sp!, {d8, d9, d10}
 174              		.cfi_def_cfa_offset 60
 175              		.cfi_offset 80, -60
 176              		.cfi_offset 82, -52
 177              		.cfi_offset 84, -44
 178              	.LBB177:
 179              	.LBB112:
 180              		.loc 2 135 0
 181 001c 9A61     		str	r2, [r3, #24]
 182              	.LVL13:
 183              	.LBE112:
 184              	.LBE177:
 185              		.loc 1 56 0
 186 001e 83B0     		sub	sp, sp, #12
 187              		.cfi_def_cfa_offset 72
 188              	.LBB178:
 189              		.loc 1 63 0
 190 0020 FFF7FEFF 		bl	mc_interface_get_fault
 191              	.LVL14:
 192              	.LBB160:
 193              		.loc 1 157 0
 194 0024 DFEDC3AA 		flds	s21, .L78+8
 195 0028 9FEDC3AA 		flds	s20, .L78+12
 196              	.LBE160:
 197              		.loc 1 64 0
 198 002c 0546     		mov	r5, r0
 199 002e 0028     		cmp	r0, #0
 200 0030 45D0     		beq	.L16
 201              	.LVL15:
 202              	.L70:
 203              	.LBB161:
 204              		.loc 1 65 0
 205 0032 0020     		movs	r0, #0
 206              	.LVL16:
 207 0034 FFF7FEFF 		bl	ws2811_set_all
 208              	.LVL17:
 209              	.LBB162:
 210              		.loc 1 66 0
 211 0038 0024     		movs	r4, #0
 212              	.LVL18:
 213              	.L19:
 214              		.loc 1 67 0 discriminator 2
 215 003a 2046     		mov	r0, r4
 216 003c 4FF47F01 		mov	r1, #16711680
 217 0040 FFF7FEFF 		bl	set_led_wrapper
 218              	.LVL19:
 219              		.loc 1 66 0 discriminator 2
 220 0044 0134     		adds	r4, r4, #1
 221              	.LVL20:
 222              		.loc 1 68 0 discriminator 2
 223 0046 4FF4FA60 		mov	r0, #2000
 224 004a FFF7FEFF 		bl	chThdSleep
 225              	.LVL21:
 226              		.loc 1 66 0 discriminator 2
 227 004e A542     		cmp	r5, r4
ARM GAS  /tmp/cccegR9C.s 			page 5


 228 0050 F3DC     		bgt	.L19
 229              	.LBE162:
 230              		.loc 1 71 0
 231 0052 42F21070 		movw	r0, #10000
 232 0056 FFF7FEFF 		bl	chThdSleep
 233              	.LVL22:
 234              	.LBB163:
 235              	.LBB164:
 236              		.loc 1 75 0
 237 005a DFEDB89A 		flds	s19, .L78+16
 238              	.LBB165:
 239              	.LBB166:
 240              		.loc 1 195 0
 241 005e 9FEDB89A 		flds	s18, .L78+20
 242              		.loc 1 194 0
 243 0062 DFEDB88A 		flds	s17, .L78+24
 244              	.LBE166:
 245              	.LBE165:
 246              	.LBE164:
 247              	.LBE163:
 248              		.loc 1 71 0
 249 0066 3226     		movs	r6, #50
 250              		.loc 1 73 0
 251 0068 B7EE008A 		fconsts	s16, #112
 252              	.LVL23:
 253              	.L18:
 254              	.LBB172:
 255              	.LBB171:
 256              		.loc 1 75 0
 257 006c 38EE698A 		fsubs	s16, s16, s19
 258              	.LVL24:
 259              	.LBB168:
 260              		.loc 1 77 0
 261 0070 4FF0000B 		mov	fp, #0
 262              	.LBE168:
 263              	.LBB169:
 264              	.LBB167:
 265              		.loc 1 195 0
 266 0074 28EE097A 		fmuls	s14, s16, s18
 267              		.loc 1 194 0
 268 0078 68EE287A 		fmuls	s15, s16, s17
 269              		.loc 1 195 0
 270 007c BCEEC77A 		ftouizs	s14, s14
 271              		.loc 1 194 0
 272 0080 FCEEE77A 		ftouizs	s15, s15
 273              		.loc 1 195 0
 274 0084 17EE104A 		fmrs	r4, s14	@ int
 275              	.LVL25:
 276              		.loc 1 194 0
 277 0088 17EE902A 		fmrs	r2, s15	@ int
 278              		.loc 1 198 0
 279 008c 2102     		lsls	r1, r4, #8
 280 008e 41EA0242 		orr	r2, r1, r2, lsl #16
 281 0092 1443     		orrs	r4, r4, r2
 282              	.LVL26:
 283              	.L21:
 284              	.LBE167:
ARM GAS  /tmp/cccegR9C.s 			page 6


 285              	.LBE169:
 286              	.LBB170:
 287              		.loc 1 78 0 discriminator 2
 288 0094 5846     		mov	r0, fp
 289 0096 2146     		mov	r1, r4
 290              		.loc 1 77 0 discriminator 2
 291 0098 0BF1010B 		add	fp, fp, #1
 292              	.LVL27:
 293              		.loc 1 78 0 discriminator 2
 294 009c FFF7FEFF 		bl	set_led_wrapper
 295              	.LVL28:
 296              		.loc 1 77 0 discriminator 2
 297 00a0 5D45     		cmp	r5, fp
 298 00a2 F7DC     		bgt	.L21
 299              	.LBE170:
 300              		.loc 1 80 0
 301 00a4 6420     		movs	r0, #100
 302 00a6 FFF7FEFF 		bl	chThdSleep
 303              	.LVL29:
 304              	.LBE171:
 305              		.loc 1 74 0
 306 00aa 013E     		subs	r6, r6, #1
 307              	.LVL30:
 308 00ac DED1     		bne	.L18
 309              	.LVL31:
 310              	.L23:
 311              	.LBE172:
 312              	.LBE161:
 313              		.loc 1 185 0
 314 00ae 0A20     		movs	r0, #10
 315 00b0 FFF7FEFF 		bl	chThdSleep
 316              	.LVL32:
 317              	.L73:
 318              		.loc 1 63 0
 319 00b4 FFF7FEFF 		bl	mc_interface_get_fault
 320              	.LVL33:
 321              		.loc 1 64 0
 322 00b8 0546     		mov	r5, r0
 323 00ba 0028     		cmp	r0, #0
 324 00bc B9D1     		bne	.L70
 325              	.L16:
 326              	.LVL34:
 327              	.LBB173:
 328              		.loc 1 84 0
 329 00be 3C78     		ldrb	r4, [r7]	@ zero_extendqisi2
 330              		.loc 1 85 0
 331 00c0 98F80050 		ldrb	r5, [r8]	@ zero_extendqisi2
 332              		.loc 1 87 0
 333 00c4 3B78     		ldrb	r3, [r7]	@ zero_extendqisi2
 334              		.loc 1 84 0
 335 00c6 E4B2     		uxtb	r4, r4
 336              	.LVL35:
 337              		.loc 1 85 0
 338 00c8 EDB2     		uxtb	r5, r5
 339              	.LVL36:
 340              		.loc 1 87 0
 341 00ca 072B     		cmp	r3, #7
ARM GAS  /tmp/cccegR9C.s 			page 7


 342 00cc 00F25E81 		bhi	.L24
 343 00d0 DFE803F0 		tbb	[pc, r3]
 344              	.L26:
 345 00d4 C1       		.byte	(.L25-.L26)/2
 346 00d5 AF       		.byte	(.L27-.L26)/2
 347 00d6 9A       		.byte	(.L28-.L26)/2
 348 00d7 4D       		.byte	(.L29-.L26)/2
 349 00d8 04       		.byte	(.L30-.L26)/2
 350 00d9 4D       		.byte	(.L29-.L26)/2
 351 00da 04       		.byte	(.L30-.L26)/2
 352 00db CA       		.byte	(.L31-.L26)/2
 353              		.p2align 1
 354              	.L30:
 355 00dc 0026     		movs	r6, #0
 356              	.LVL37:
 357              	.L47:
 358              	.LBB115:
 359              		.loc 1 135 0
 360 00de 3B78     		ldrb	r3, [r7]	@ zero_extendqisi2
 361 00e0 042B     		cmp	r3, #4
 362              		.loc 1 138 0
 363 00e2 3046     		mov	r0, r6
 364 00e4 4FF47F01 		mov	r1, #16711680
 365              		.loc 1 136 0
 366 00e8 08BF     		it	eq
 367 00ea 4FF4FE01 		moveq	r1, #8323072
 368              		.loc 1 138 0
 369 00ee FFF7FEFF 		bl	set_led_wrapper
 370              	.LVL38:
 371              		.loc 1 140 0
 372 00f2 06F10E00 		add	r0, r6, #14
 373 00f6 6FF07F41 		mvn	r1, #-16777216
 374              		.loc 1 134 0
 375 00fa 0136     		adds	r6, r6, #1
 376              	.LVL39:
 377              		.loc 1 140 0
 378 00fc FFF7FEFF 		bl	set_led_wrapper
 379              	.LVL40:
 380              		.loc 1 134 0
 381 0100 0E2E     		cmp	r6, #14
 382 0102 ECD1     		bne	.L47
 383              	.LBE115:
 384              		.loc 1 143 0 discriminator 1
 385 0104 3E78     		ldrb	r6, [r7]	@ zero_extendqisi2
 386              	.LVL41:
 387 0106 F6B2     		uxtb	r6, r6
 388 0108 A642     		cmp	r6, r4
 389 010a D0D1     		bne	.L23
 390              		.loc 1 143 0 is_stmt 0
 391 010c 98F80030 		ldrb	r3, [r8]	@ zero_extendqisi2
 392 0110 9D42     		cmp	r5, r3
 393 0112 CCD1     		bne	.L23
 394              	.LBB116:
 395              	.LBB117:
 396              	.LBB118:
 397              	.LBB119:
 398              	.LBB120:
ARM GAS  /tmp/cccegR9C.s 			page 8


 399              	.LBB121:
 400              		.file 3 "ChibiOS_3.0.2/os/ext/CMSIS/include/core_cmFunc.h"
 401              		.loc 3 546 0 is_stmt 1
 402 0114 2024     		movs	r4, #32
 403              	.LVL42:
 404 0116 0FE0     		b	.L50
 405              	.LVL43:
 406              	.L71:
 407              	.LBE121:
 408              	.LBE120:
 409              	.LBE119:
 410              	.LBE118:
 411              	.LBE117:
 412              	.LBE116:
 413              		.loc 1 145 0
 414 0118 FFF7FEFF 		bl	set_led_wrapper
 415              	.LVL44:
 416              		.loc 1 146 0
 417 011c 1B20     		movs	r0, #27
 418 011e 8A49     		ldr	r1, .L78+28
 419 0120 FFF7FEFF 		bl	set_led_wrapper
 420              	.LVL45:
 421              	.L49:
 422              		.loc 1 151 0
 423 0124 6420     		movs	r0, #100
 424 0126 FFF7FEFF 		bl	chThdSleep
 425              	.LVL46:
 426              		.loc 1 143 0
 427 012a 3B78     		ldrb	r3, [r7]	@ zero_extendqisi2
 428 012c B342     		cmp	r3, r6
 429 012e BED1     		bne	.L23
 430              		.loc 1 143 0 is_stmt 0 discriminator 2
 431 0130 98F80030 		ldrb	r3, [r8]	@ zero_extendqisi2
 432 0134 9D42     		cmp	r5, r3
 433 0136 BAD1     		bne	.L23
 434              	.LVL47:
 435              	.L50:
 436              		.loc 1 143 0
 437 0138 FFF7FEFF 		bl	mc_interface_get_fault
 438              	.LVL48:
 439 013c 0028     		cmp	r0, #0
 440 013e B6D1     		bne	.L23
 441              	.LBB134:
 442              	.LBB133:
 443              	.LBB125:
 444              	.LBB124:
 445              	.LBB123:
 446              	.LBB122:
 447              		.loc 3 546 0 is_stmt 1
 448              	@ 546 "ChibiOS_3.0.2/os/ext/CMSIS/include/core_cmFunc.h" 1
 449 0140 84F31188 		MSR basepri, r4
 450              	@ 0 "" 2
 451              		.thumb
 452              	.LBE122:
 453              	.LBE123:
 454              	.LBE124:
 455              	.LBE125:
ARM GAS  /tmp/cccegR9C.s 			page 9


 456              	.LBB126:
 457              	.LBB127:
 458              		.file 4 "ChibiOS_3.0.2/os/rt/include/chvt.h"
 459              		.loc 4 231 0
 460 0144 D9F82830 		ldr	r3, [r9, #40]
 461              	.LVL49:
 462              	.LBE127:
 463              	.LBE126:
 464              	.LBB128:
 465              	.LBB129:
 466              	.LBB130:
 467              	.LBB131:
 468              	.LBB132:
 469              		.loc 3 546 0
 470              	@ 546 "ChibiOS_3.0.2/os/ext/CMSIS/include/core_cmFunc.h" 1
 471 0148 80F31188 		MSR basepri, r0
 472              	@ 0 "" 2
 473              		.thumb
 474              	.LBE132:
 475              	.LBE131:
 476              	.LBE130:
 477              	.LBE129:
 478              	.LBE128:
 479              	.LBE133:
 480              	.LBE134:
 481              		.loc 1 144 0
 482 014c AAFB0323 		umull	r2, r3, r10, r3
 483 0150 C3F30033 		ubfx	r3, r3, #12, #1
 484              		.loc 1 145 0
 485 0154 7C49     		ldr	r1, .L78+28
 486              		.loc 1 144 0
 487 0156 002B     		cmp	r3, #0
 488 0158 DED1     		bne	.L71
 489              		.loc 1 148 0
 490 015a 1946     		mov	r1, r3
 491 015c 0193     		str	r3, [sp, #4]
 492 015e FFF7FEFF 		bl	set_led_wrapper
 493              	.LVL50:
 494              		.loc 1 149 0
 495 0162 019B     		ldr	r3, [sp, #4]
 496 0164 1B20     		movs	r0, #27
 497 0166 1946     		mov	r1, r3
 498 0168 FFF7FEFF 		bl	set_led_wrapper
 499              	.LVL51:
 500 016c DAE7     		b	.L49
 501              	.LVL52:
 502              	.L29:
 503              		.loc 1 87 0
 504 016e 0026     		movs	r6, #0
 505              	.LVL53:
 506              	.L40:
 507              	.LBB135:
 508              		.loc 1 112 0
 509 0170 3B78     		ldrb	r3, [r7]	@ zero_extendqisi2
 510 0172 032B     		cmp	r3, #3
 511              		.loc 1 115 0
 512 0174 3046     		mov	r0, r6
ARM GAS  /tmp/cccegR9C.s 			page 10


 513 0176 4FF47F01 		mov	r1, #16711680
 514              		.loc 1 113 0
 515 017a 08BF     		it	eq
 516 017c 4FF4FE01 		moveq	r1, #8323072
 517              		.loc 1 115 0
 518 0180 FFF7FEFF 		bl	set_led_wrapper
 519              	.LVL54:
 520              		.loc 1 117 0
 521 0184 06F10E00 		add	r0, r6, #14
 522 0188 6FF07F41 		mvn	r1, #-16777216
 523              		.loc 1 111 0
 524 018c 0136     		adds	r6, r6, #1
 525              	.LVL55:
 526              		.loc 1 117 0
 527 018e FFF7FEFF 		bl	set_led_wrapper
 528              	.LVL56:
 529              		.loc 1 111 0
 530 0192 0E2E     		cmp	r6, #14
 531 0194 ECD1     		bne	.L40
 532              	.LBE135:
 533              		.loc 1 120 0 discriminator 1
 534 0196 3E78     		ldrb	r6, [r7]	@ zero_extendqisi2
 535              	.LVL57:
 536 0198 F6B2     		uxtb	r6, r6
 537 019a A642     		cmp	r6, r4
 538 019c 87D1     		bne	.L23
 539              		.loc 1 120 0 is_stmt 0
 540 019e 98F80030 		ldrb	r3, [r8]	@ zero_extendqisi2
 541 01a2 9D42     		cmp	r5, r3
 542 01a4 83D1     		bne	.L23
 543              	.LBB136:
 544              	.LBB137:
 545              	.LBB138:
 546              	.LBB139:
 547              	.LBB140:
 548              	.LBB141:
 549              		.loc 3 546 0 is_stmt 1
 550 01a6 2024     		movs	r4, #32
 551              	.LVL58:
 552 01a8 11E0     		b	.L43
 553              	.LVL59:
 554              	.L72:
 555              	.LBE141:
 556              	.LBE140:
 557              	.LBE139:
 558              	.LBE138:
 559              	.LBE137:
 560              	.LBE136:
 561              		.loc 1 122 0
 562 01aa FFF7FEFF 		bl	set_led_wrapper
 563              	.LVL60:
 564              		.loc 1 123 0
 565 01ae 0E20     		movs	r0, #14
 566 01b0 6549     		ldr	r1, .L78+28
 567 01b2 FFF7FEFF 		bl	set_led_wrapper
 568              	.LVL61:
 569              	.L42:
ARM GAS  /tmp/cccegR9C.s 			page 11


 570              		.loc 1 128 0
 571 01b6 6420     		movs	r0, #100
 572 01b8 FFF7FEFF 		bl	chThdSleep
 573              	.LVL62:
 574              		.loc 1 120 0
 575 01bc 3B78     		ldrb	r3, [r7]	@ zero_extendqisi2
 576 01be 9E42     		cmp	r6, r3
 577 01c0 7FF475AF 		bne	.L23
 578              		.loc 1 120 0 is_stmt 0 discriminator 2
 579 01c4 98F80030 		ldrb	r3, [r8]	@ zero_extendqisi2
 580 01c8 9D42     		cmp	r5, r3
 581 01ca 7FF470AF 		bne	.L23
 582              	.LVL63:
 583              	.L43:
 584              		.loc 1 120 0
 585 01ce FFF7FEFF 		bl	mc_interface_get_fault
 586              	.LVL64:
 587 01d2 0028     		cmp	r0, #0
 588 01d4 7FF46BAF 		bne	.L23
 589              	.LBB154:
 590              	.LBB153:
 591              	.LBB145:
 592              	.LBB144:
 593              	.LBB143:
 594              	.LBB142:
 595              		.loc 3 546 0 is_stmt 1
 596              	@ 546 "ChibiOS_3.0.2/os/ext/CMSIS/include/core_cmFunc.h" 1
 597 01d8 84F31188 		MSR basepri, r4
 598              	@ 0 "" 2
 599              		.thumb
 600              	.LBE142:
 601              	.LBE143:
 602              	.LBE144:
 603              	.LBE145:
 604              	.LBB146:
 605              	.LBB147:
 606              		.loc 4 231 0
 607 01dc D9F82830 		ldr	r3, [r9, #40]
 608              	.LVL65:
 609              	.LBE147:
 610              	.LBE146:
 611              	.LBB148:
 612              	.LBB149:
 613              	.LBB150:
 614              	.LBB151:
 615              	.LBB152:
 616              		.loc 3 546 0
 617              	@ 546 "ChibiOS_3.0.2/os/ext/CMSIS/include/core_cmFunc.h" 1
 618 01e0 80F31188 		MSR basepri, r0
 619              	@ 0 "" 2
 620              		.thumb
 621              	.LBE152:
 622              	.LBE151:
 623              	.LBE150:
 624              	.LBE149:
 625              	.LBE148:
 626              	.LBE153:
ARM GAS  /tmp/cccegR9C.s 			page 12


 627              	.LBE154:
 628              		.loc 1 121 0
 629 01e4 AAFB0323 		umull	r2, r3, r10, r3
 630 01e8 C3F30033 		ubfx	r3, r3, #12, #1
 631              		.loc 1 125 0
 632 01ec 0D20     		movs	r0, #13
 633              		.loc 1 122 0
 634 01ee 5649     		ldr	r1, .L78+28
 635              		.loc 1 121 0
 636 01f0 002B     		cmp	r3, #0
 637 01f2 DAD1     		bne	.L72
 638              		.loc 1 125 0
 639 01f4 1946     		mov	r1, r3
 640 01f6 0193     		str	r3, [sp, #4]
 641 01f8 FFF7FEFF 		bl	set_led_wrapper
 642              	.LVL66:
 643              		.loc 1 126 0
 644 01fc 019B     		ldr	r3, [sp, #4]
 645 01fe 0E20     		movs	r0, #14
 646 0200 1946     		mov	r1, r3
 647 0202 FFF7FEFF 		bl	set_led_wrapper
 648              	.LVL67:
 649 0206 D6E7     		b	.L42
 650              	.LVL68:
 651              	.L28:
 652              		.loc 1 87 0
 653 0208 0024     		movs	r4, #0
 654              	.LVL69:
 655              	.L36:
 656              	.LBB155:
 657              		.loc 1 103 0 discriminator 2
 658 020a 2046     		mov	r0, r4
 659 020c 4FF47F01 		mov	r1, #16711680
 660 0210 FFF7FEFF 		bl	set_led_wrapper
 661              	.LVL70:
 662              		.loc 1 104 0 discriminator 2
 663 0214 04F10E00 		add	r0, r4, #14
 664 0218 6FF07F41 		mvn	r1, #-16777216
 665              		.loc 1 102 0 discriminator 2
 666 021c 0134     		adds	r4, r4, #1
 667              	.LVL71:
 668              		.loc 1 104 0 discriminator 2
 669 021e FFF7FEFF 		bl	set_led_wrapper
 670              	.LVL72:
 671              		.loc 1 102 0 discriminator 2
 672 0222 0E2C     		cmp	r4, #14
 673 0224 F1D1     		bne	.L36
 674              	.LBE155:
 675              		.loc 1 98 0
 676 0226 FFF7FEFF 		bl	wait_for_state_change
 677              	.LVL73:
 678              	.L74:
 679              	.LBE173:
 680              		.loc 1 185 0
 681 022a 0A20     		movs	r0, #10
 682 022c FFF7FEFF 		bl	chThdSleep
 683              	.LVL74:
ARM GAS  /tmp/cccegR9C.s 			page 13


 684 0230 40E7     		b	.L73
 685              	.LVL75:
 686              	.L27:
 687              	.LBB174:
 688              		.loc 1 87 0
 689 0232 0024     		movs	r4, #0
 690              	.LVL76:
 691              	.L35:
 692              	.LBB156:
 693              		.loc 1 95 0 discriminator 2
 694 0234 2046     		mov	r0, r4
 695 0236 4FF4FE01 		mov	r1, #8323072
 696 023a FFF7FEFF 		bl	set_led_wrapper
 697              	.LVL77:
 698              		.loc 1 96 0 discriminator 2
 699 023e 04F10E00 		add	r0, r4, #14
 700 0242 6FF07F41 		mvn	r1, #-16777216
 701              		.loc 1 94 0 discriminator 2
 702 0246 0134     		adds	r4, r4, #1
 703              	.LVL78:
 704              		.loc 1 96 0 discriminator 2
 705 0248 FFF7FEFF 		bl	set_led_wrapper
 706              	.LVL79:
 707              		.loc 1 94 0 discriminator 2
 708 024c 0E2C     		cmp	r4, #14
 709 024e F1D1     		bne	.L35
 710              	.LBE156:
 711              		.loc 1 98 0
 712 0250 FFF7FEFF 		bl	wait_for_state_change
 713              	.LVL80:
 714 0254 E9E7     		b	.L74
 715              	.LVL81:
 716              	.L25:
 717              		.loc 1 89 0
 718 0256 0020     		movs	r0, #0
 719              	.LVL82:
 720 0258 FFF7FEFF 		bl	ws2811_set_all
 721              	.LVL83:
 722              		.loc 1 90 0
 723 025c FFF7FEFF 		bl	wait_for_state_change
 724              	.LVL84:
 725              	.LBE174:
 726              		.loc 1 185 0
 727 0260 0A20     		movs	r0, #10
 728 0262 FFF7FEFF 		bl	chThdSleep
 729              	.LVL85:
 730 0266 25E7     		b	.L73
 731              	.LVL86:
 732              	.L31:
 733              	.LBB175:
 734              		.loc 1 156 0 discriminator 1
 735 0268 3E78     		ldrb	r6, [r7]	@ zero_extendqisi2
 736 026a F6B2     		uxtb	r6, r6
 737 026c A642     		cmp	r6, r4
 738 026e 7FF41EAF 		bne	.L23
 739              	.LVL87:
 740              	.L68:
ARM GAS  /tmp/cccegR9C.s 			page 14


 741              		.loc 1 156 0 is_stmt 0
 742 0272 98F80030 		ldrb	r3, [r8]	@ zero_extendqisi2
 743 0276 9D42     		cmp	r5, r3
 744 0278 7FF419AF 		bne	.L23
 745 027c FFF7FEFF 		bl	mc_interface_get_fault
 746              	.LVL88:
 747 0280 0446     		mov	r4, r0
 748 0282 0028     		cmp	r0, #0
 749 0284 7FF413AF 		bne	.L23
 750              		.loc 1 157 0 is_stmt 1
 751 0288 304A     		ldr	r2, .L78+32
 752 028a 9FED311A 		flds	s2, .L78+36
 753 028e 138A     		ldrh	r3, [r2, #16]
 754 0290 DFED2B1A 		flds	s3, .L78+20
 755 0294 9BB2     		uxth	r3, r3
 756 0296 07EE103A 		fmsr	s14, r3	@ int
 757 029a B8EE470A 		fuitos	s0, s14
 758 029e F3EE0C0A 		fconsts	s1, #60
 759 02a2 20EE2A0A 		fmuls	s0, s0, s21
 760 02a6 B7EE002A 		fconsts	s4, #112
 761 02aa 20EE0A0A 		fmuls	s0, s0, s20
 762 02ae FFF7FEFF 		bl	utils_map
 763              	.LVL89:
 764 02b2 B2EE0C8A 		fconsts	s16, #44
 765              	.LBB157:
 766              		.loc 1 158 0
 767 02b6 A346     		mov	fp, r4
 768 02b8 20EE088A 		fmuls	s16, s0, s16
 769              	.LBE157:
 770              		.loc 1 157 0
 771 02bc 1B24     		movs	r4, #27
 772 02be 13E0     		b	.L57
 773              	.LVL90:
 774              	.L77:
 775              	.LBB158:
 776              		.loc 1 160 0
 777 02c0 BBF1030F 		cmp	fp, #3
 778 02c4 58DD     		ble	.L75
 779              		.loc 1 163 0
 780 02c6 BBF1080F 		cmp	fp, #8
 781 02ca 4BDC     		bgt	.L55
 782              		.loc 1 164 0
 783 02cc 2149     		ldr	r1, .L78+40
 784 02ce FFF7FEFF 		bl	set_led_wrapper
 785              	.LVL91:
 786              		.loc 1 165 0
 787 02d2 2046     		mov	r0, r4
 788 02d4 1F49     		ldr	r1, .L78+40
 789 02d6 FFF7FEFF 		bl	set_led_wrapper
 790              	.LVL92:
 791              	.L54:
 792              		.loc 1 158 0
 793 02da 0BF1010B 		add	fp, fp, #1
 794              	.LVL93:
 795 02de BBF10E0F 		cmp	fp, #14
 796 02e2 04F1FF34 		add	r4, r4, #-1
 797 02e6 17D0     		beq	.L76
ARM GAS  /tmp/cccegR9C.s 			page 15


 798              	.LVL94:
 799              	.L57:
 800              		.loc 1 159 0
 801 02e8 07EE10BA 		fmsr	s14, fp	@ int
 802 02ec F8EEC77A 		fsitos	s15, s14
 803              		.loc 1 161 0
 804 02f0 5846     		mov	r0, fp
 805              		.loc 1 159 0
 806 02f2 B4EEE78A 		fcmpes	s16, s15
 807 02f6 F1EE10FA 		fmstat
 808 02fa E1DC     		bgt	.L77
 809              		.loc 1 171 0
 810 02fc 0021     		movs	r1, #0
 811 02fe FFF7FEFF 		bl	set_led_wrapper
 812              	.LVL95:
 813              		.loc 1 158 0
 814 0302 0BF1010B 		add	fp, fp, #1
 815              	.LVL96:
 816              		.loc 1 172 0
 817 0306 2046     		mov	r0, r4
 818 0308 0021     		movs	r1, #0
 819 030a FFF7FEFF 		bl	set_led_wrapper
 820              	.LVL97:
 821              		.loc 1 158 0
 822 030e BBF10E0F 		cmp	fp, #14
 823 0312 04F1FF34 		add	r4, r4, #-1
 824 0316 E7D1     		bne	.L57
 825              	.L76:
 826              	.LBE158:
 827              		.loc 1 175 0
 828 0318 6420     		movs	r0, #100
 829 031a FFF7FEFF 		bl	chThdSleep
 830              	.LVL98:
 831              		.loc 1 156 0
 832 031e 3B78     		ldrb	r3, [r7]	@ zero_extendqisi2
 833 0320 B342     		cmp	r3, r6
 834 0322 A6D0     		beq	.L68
 835              	.LBE175:
 836              		.loc 1 185 0
 837 0324 0A20     		movs	r0, #10
 838 0326 FFF7FEFF 		bl	chThdSleep
 839              	.LVL99:
 840 032a C3E6     		b	.L73
 841              	.L79:
 842              		.align	2
 843              	.L78:
 844 032c 00000000 		.word	.LC0
 845 0330 00000000 		.word	.LANCHOR0
 846 0334 6740533A 		.word	978534503
 847 0338 74D19541 		.word	1100337524
 848 033c 0AD7A33C 		.word	1017370378
 849 0340 00000000 		.word	0
 850 0344 00007F43 		.word	1132396544
 851 0348 00A5FF00 		.word	16753920
 852 034c 00000000 		.word	ADC_Value
 853 0350 00000442 		.word	1107558400
 854 0354 00FFFF00 		.word	16776960
ARM GAS  /tmp/cccegR9C.s 			page 16


 855 0358 00000000 		.word	ch
 856 035c 00000000 		.word	.LANCHOR1
 857 0360 5917B7D1 		.word	-776530087
 858              	.LVL100:
 859              	.L55:
 860              	.LBB176:
 861              	.LBB159:
 862              		.loc 1 167 0
 863 0364 4FF47F41 		mov	r1, #65280
 864 0368 FFF7FEFF 		bl	set_led_wrapper
 865              	.LVL101:
 866              		.loc 1 168 0
 867 036c 2046     		mov	r0, r4
 868 036e 4FF47F41 		mov	r1, #65280
 869 0372 FFF7FEFF 		bl	set_led_wrapper
 870              	.LVL102:
 871 0376 B0E7     		b	.L54
 872              	.LVL103:
 873              	.L75:
 874              		.loc 1 161 0
 875 0378 4FF47F01 		mov	r1, #16711680
 876 037c FFF7FEFF 		bl	set_led_wrapper
 877              	.LVL104:
 878              		.loc 1 162 0
 879 0380 2046     		mov	r0, r4
 880 0382 4FF47F01 		mov	r1, #16711680
 881 0386 FFF7FEFF 		bl	set_led_wrapper
 882              	.LVL105:
 883 038a A6E7     		b	.L54
 884              	.LVL106:
 885              	.L24:
 886              	.LBE159:
 887              		.loc 1 180 0
 888 038c 6420     		movs	r0, #100
 889              	.LVL107:
 890 038e FFF7FEFF 		bl	chThdSleep
 891              	.LVL108:
 892              	.LBE176:
 893              		.loc 1 185 0
 894 0392 0A20     		movs	r0, #10
 895 0394 FFF7FEFF 		bl	chThdSleep
 896              	.LVL109:
 897 0398 8CE6     		b	.L73
 898              	.LBE178:
 899              		.cfi_endproc
 900              	.LFE259:
 901              		.size	led_thread, .-led_thread
 902              		.section	.text.led_external_init,"ax",%progbits
 903              		.align	2
 904              		.p2align 4,,15
 905              		.global	led_external_init
 906              		.thumb
 907              		.thumb_func
 908              		.type	led_external_init, %function
 909              	led_external_init:
 910              	.LFB256:
 911              		.loc 1 42 0
ARM GAS  /tmp/cccegR9C.s 			page 17


 912              		.cfi_startproc
 913              		@ args = 0, pretend = 0, frame = 0
 914              		@ frame_needed = 0, uses_anonymous_args = 0
 915 0000 70B5     		push	{r4, r5, r6, lr}
 916              		.cfi_def_cfa_offset 16
 917              		.cfi_offset 4, -16
 918              		.cfi_offset 5, -12
 919              		.cfi_offset 6, -8
 920              		.cfi_offset 14, -4
 921 0002 82B0     		sub	sp, sp, #8
 922              		.cfi_def_cfa_offset 24
 923              		.loc 1 43 0
 924 0004 0024     		movs	r4, #0
 925 0006 074E     		ldr	r6, .L81
 926              		.loc 1 44 0
 927 0008 074D     		ldr	r5, .L81+4
 928              		.loc 1 45 0
 929 000a 084B     		ldr	r3, .L81+8
 930 000c 0094     		str	r4, [sp]
 931 000e 4FF4B361 		mov	r1, #1432
 932 0012 0222     		movs	r2, #2
 933 0014 0648     		ldr	r0, .L81+12
 934              		.loc 1 43 0
 935 0016 3470     		strb	r4, [r6]
 936              		.loc 1 44 0
 937 0018 2C70     		strb	r4, [r5]
 938              		.loc 1 45 0
 939 001a FFF7FEFF 		bl	chThdCreateStatic
 940              	.LVL110:
 941              		.loc 1 46 0
 942 001e 02B0     		add	sp, sp, #8
 943              		@ sp needed
 944 0020 70BD     		pop	{r4, r5, r6, pc}
 945              	.L82:
 946 0022 00BF     		.align	2
 947              	.L81:
 948 0024 00000000 		.word	.LANCHOR1
 949 0028 00000000 		.word	.LANCHOR0
 950 002c 00000000 		.word	led_thread
 951 0030 00000000 		.word	.LANCHOR2
 952              		.cfi_endproc
 953              	.LFE256:
 954              		.size	led_external_init, .-led_external_init
 955 0034 AFF30080 		.section	.text.led_external_set_state,"ax",%progbits
 955      AFF30080 
 955      AFF30080 
 956              		.align	2
 957              		.p2align 4,,15
 958              		.global	led_external_set_state
 959              		.thumb
 960              		.thumb_func
 961              		.type	led_external_set_state, %function
 962              	led_external_set_state:
 963              	.LFB257:
 964              		.loc 1 48 0
 965              		.cfi_startproc
 966              		@ args = 0, pretend = 0, frame = 0
ARM GAS  /tmp/cccegR9C.s 			page 18


 967              		@ frame_needed = 0, uses_anonymous_args = 0
 968              		@ link register save eliminated.
 969              	.LVL111:
 970              		.loc 1 49 0
 971 0000 014B     		ldr	r3, .L84
 972 0002 1870     		strb	r0, [r3]
 973 0004 7047     		bx	lr
 974              	.L85:
 975 0006 00BF     		.align	2
 976              	.L84:
 977 0008 00000000 		.word	.LANCHOR0
 978              		.cfi_endproc
 979              	.LFE257:
 980              		.size	led_external_set_state, .-led_external_set_state
 981 000c AFF30080 		.section	.text.led_external_set_reversed,"ax",%progbits
 982              		.align	2
 983              		.p2align 4,,15
 984              		.global	led_external_set_reversed
 985              		.thumb
 986              		.thumb_func
 987              		.type	led_external_set_reversed, %function
 988              	led_external_set_reversed:
 989              	.LFB258:
 990              		.loc 1 52 0
 991              		.cfi_startproc
 992              		@ args = 0, pretend = 0, frame = 0
 993              		@ frame_needed = 0, uses_anonymous_args = 0
 994              		@ link register save eliminated.
 995              	.LVL112:
 996              		.loc 1 53 0
 997 0000 014B     		ldr	r3, .L87
 998 0002 1870     		strb	r0, [r3]
 999 0004 7047     		bx	lr
 1000              	.L88:
 1001 0006 00BF     		.align	2
 1002              	.L87:
 1003 0008 00000000 		.word	.LANCHOR1
 1004              		.cfi_endproc
 1005              	.LFE258:
 1006              		.size	led_external_set_reversed, .-led_external_set_reversed
 1007 000c AFF30080 		.section	.bss.reverse_leds,"aw",%nobits
 1008              		.set	.LANCHOR1,. + 0
 1009              		.type	reverse_leds, %object
 1010              		.size	reverse_leds, 1
 1011              	reverse_leds:
 1012 0000 00       		.space	1
 1013              		.section	.bss.state,"aw",%nobits
 1014              		.set	.LANCHOR0,. + 0
 1015              		.type	state, %object
 1016              		.size	state, 1
 1017              	state:
 1018 0000 00       		.space	1
 1019              		.section	.rodata.str1.4,"aMS",%progbits,1
 1020              		.align	2
 1021              	.LC0:
 1022 0000 4C454473 		.ascii	"LEDs External\000"
 1022      20457874 
ARM GAS  /tmp/cccegR9C.s 			page 19


 1022      65726E61 
 1022      6C00
 1023 000e 0000     		.section	.bss.led_thread_wa,"aw",%nobits
 1024              		.align	3
 1025              		.set	.LANCHOR2,. + 0
 1026              		.type	led_thread_wa, %object
 1027              		.size	led_thread_wa, 1432
 1028              	led_thread_wa:
 1029 0000 00000000 		.space	1432
 1029      00000000 
 1029      00000000 
 1029      00000000 
 1029      00000000 
 1030              		.text
 1031              	.Letext0:
 1032              		.file 5 "/usr/include/newlib/machine/_default_types.h"
 1033              		.file 6 "/usr/include/newlib/stdint.h"
 1034              		.file 7 "/usr/lib/gcc/arm-none-eabi/4.8/include/stddef.h"
 1035              		.file 8 "ChibiOS_3.0.2/os/rt/ports/ARMCMx/compilers/GCC/chtypes.h"
 1036              		.file 9 "ChibiOS_3.0.2/os/rt/include/chsystypes.h"
 1037              		.file 10 "ChibiOS_3.0.2/os/rt/include/chschd.h"
 1038              		.file 11 "ChibiOS_3.0.2/os/rt/ports/ARMCMx/chcore.h"
 1039              		.file 12 "ChibiOS_3.0.2/os/rt/ports/ARMCMx/chcore_v7m.h"
 1040              		.file 13 "ChibiOS_3.0.2/os/rt/include/chtm.h"
 1041              		.file 14 "ChibiOS_3.0.2/os/rt/include/chsem.h"
 1042              		.file 15 "ChibiOS_3.0.2/os/rt/include/chmtx.h"
 1043              		.file 16 "ChibiOS_3.0.2/os/rt/include/chthreads.h"
 1044              		.file 17 "datatypes.h"
 1045              		.file 18 "ChibiOS_3.0.2/os/rt/include/chsys.h"
 1046              		.file 19 "ChibiOS_3.0.2/os/ext/CMSIS/include/core_cm4.h"
 1047              		.file 20 "mc_interface.h"
 1048              		.file 21 "ws2811.h"
 1049              		.file 22 "utils.h"
 1050              		.section	.debug_info,"",%progbits
 1051              	.Ldebug_info0:
 1052 0000 18120000 		.4byte	0x1218
 1053 0004 0400     		.2byte	0x4
 1054 0006 00000000 		.4byte	.Ldebug_abbrev0
 1055 000a 04       		.byte	0x4
 1056 000b 01       		.uleb128 0x1
 1057 000c D7010000 		.4byte	.LASF164
 1058 0010 01       		.byte	0x1
 1059 0011 10010000 		.4byte	.LASF165
 1060 0015 0C030000 		.4byte	.LASF166
 1061 0019 48010000 		.4byte	.Ldebug_ranges0+0x148
 1062 001d 00000000 		.4byte	0
 1063 0021 00000000 		.4byte	.Ldebug_line0
 1064 0025 02       		.uleb128 0x2
 1065 0026 04       		.byte	0x4
 1066 0027 04       		.byte	0x4
 1067 0028 95050000 		.4byte	.LASF0
 1068 002c 02       		.uleb128 0x2
 1069 002d 04       		.byte	0x4
 1070 002e 07       		.byte	0x7
 1071 002f 80030000 		.4byte	.LASF1
 1072 0033 02       		.uleb128 0x2
 1073 0034 01       		.byte	0x1
ARM GAS  /tmp/cccegR9C.s 			page 20


 1074 0035 06       		.byte	0x6
 1075 0036 2D010000 		.4byte	.LASF2
 1076 003a 03       		.uleb128 0x3
 1077 003b 58000000 		.4byte	.LASF5
 1078 003f 05       		.byte	0x5
 1079 0040 1D       		.byte	0x1d
 1080 0041 45000000 		.4byte	0x45
 1081 0045 02       		.uleb128 0x2
 1082 0046 01       		.byte	0x1
 1083 0047 08       		.byte	0x8
 1084 0048 12060000 		.4byte	.LASF3
 1085 004c 02       		.uleb128 0x2
 1086 004d 02       		.byte	0x2
 1087 004e 05       		.byte	0x5
 1088 004f 3B060000 		.4byte	.LASF4
 1089 0053 03       		.uleb128 0x3
 1090 0054 23070000 		.4byte	.LASF6
 1091 0058 05       		.byte	0x5
 1092 0059 2B       		.byte	0x2b
 1093 005a 5E000000 		.4byte	0x5e
 1094 005e 02       		.uleb128 0x2
 1095 005f 02       		.byte	0x2
 1096 0060 07       		.byte	0x7
 1097 0061 86070000 		.4byte	.LASF7
 1098 0065 03       		.uleb128 0x3
 1099 0066 7A040000 		.4byte	.LASF8
 1100 006a 05       		.byte	0x5
 1101 006b 3F       		.byte	0x3f
 1102 006c 70000000 		.4byte	0x70
 1103 0070 02       		.uleb128 0x2
 1104 0071 04       		.byte	0x4
 1105 0072 05       		.byte	0x5
 1106 0073 86010000 		.4byte	.LASF9
 1107 0077 03       		.uleb128 0x3
 1108 0078 5C070000 		.4byte	.LASF10
 1109 007c 05       		.byte	0x5
 1110 007d 41       		.byte	0x41
 1111 007e 82000000 		.4byte	0x82
 1112 0082 02       		.uleb128 0x2
 1113 0083 04       		.byte	0x4
 1114 0084 07       		.byte	0x7
 1115 0085 FF060000 		.4byte	.LASF11
 1116 0089 02       		.uleb128 0x2
 1117 008a 08       		.byte	0x8
 1118 008b 05       		.byte	0x5
 1119 008c 1F010000 		.4byte	.LASF12
 1120 0090 03       		.uleb128 0x3
 1121 0091 8A050000 		.4byte	.LASF13
 1122 0095 05       		.byte	0x5
 1123 0096 5B       		.byte	0x5b
 1124 0097 9B000000 		.4byte	0x9b
 1125 009b 02       		.uleb128 0x2
 1126 009c 08       		.byte	0x8
 1127 009d 07       		.byte	0x7
 1128 009e 9A000000 		.4byte	.LASF14
 1129 00a2 04       		.uleb128 0x4
 1130 00a3 04       		.byte	0x4
ARM GAS  /tmp/cccegR9C.s 			page 21


 1131 00a4 05       		.byte	0x5
 1132 00a5 696E7400 		.ascii	"int\000"
 1133 00a9 03       		.uleb128 0x3
 1134 00aa E2070000 		.4byte	.LASF15
 1135 00ae 06       		.byte	0x6
 1136 00af 2A       		.byte	0x2a
 1137 00b0 3A000000 		.4byte	0x3a
 1138 00b4 03       		.uleb128 0x3
 1139 00b5 CE010000 		.4byte	.LASF16
 1140 00b9 06       		.byte	0x6
 1141 00ba 36       		.byte	0x36
 1142 00bb 53000000 		.4byte	0x53
 1143 00bf 03       		.uleb128 0x3
 1144 00c0 0A060000 		.4byte	.LASF17
 1145 00c4 06       		.byte	0x6
 1146 00c5 41       		.byte	0x41
 1147 00c6 65000000 		.4byte	0x65
 1148 00ca 03       		.uleb128 0x3
 1149 00cb CC060000 		.4byte	.LASF18
 1150 00cf 06       		.byte	0x6
 1151 00d0 42       		.byte	0x42
 1152 00d1 77000000 		.4byte	0x77
 1153 00d5 03       		.uleb128 0x3
 1154 00d6 37000000 		.4byte	.LASF19
 1155 00da 06       		.byte	0x6
 1156 00db 4E       		.byte	0x4e
 1157 00dc 90000000 		.4byte	0x90
 1158 00e0 03       		.uleb128 0x3
 1159 00e1 1B000000 		.4byte	.LASF20
 1160 00e5 07       		.byte	0x7
 1161 00e6 D4       		.byte	0xd4
 1162 00e7 2C000000 		.4byte	0x2c
 1163 00eb 05       		.uleb128 0x5
 1164 00ec BF000000 		.4byte	0xbf
 1165 00f0 03       		.uleb128 0x3
 1166 00f1 99070000 		.4byte	.LASF21
 1167 00f5 08       		.byte	0x8
 1168 00f6 45       		.byte	0x45
 1169 00f7 CA000000 		.4byte	0xca
 1170 00fb 03       		.uleb128 0x3
 1171 00fc 50040000 		.4byte	.LASF22
 1172 0100 08       		.byte	0x8
 1173 0101 48       		.byte	0x48
 1174 0102 A9000000 		.4byte	0xa9
 1175 0106 03       		.uleb128 0x3
 1176 0107 D1020000 		.4byte	.LASF23
 1177 010b 08       		.byte	0x8
 1178 010c 49       		.byte	0x49
 1179 010d A9000000 		.4byte	0xa9
 1180 0111 03       		.uleb128 0x3
 1181 0112 9B050000 		.4byte	.LASF24
 1182 0116 08       		.byte	0x8
 1183 0117 4A       		.byte	0x4a
 1184 0118 A9000000 		.4byte	0xa9
 1185 011c 03       		.uleb128 0x3
 1186 011d 65010000 		.4byte	.LASF25
 1187 0121 08       		.byte	0x8
ARM GAS  /tmp/cccegR9C.s 			page 22


 1188 0122 4B       		.byte	0x4b
 1189 0123 A9000000 		.4byte	0xa9
 1190 0127 03       		.uleb128 0x3
 1191 0128 D4050000 		.4byte	.LASF26
 1192 012c 08       		.byte	0x8
 1193 012d 4C       		.byte	0x4c
 1194 012e CA000000 		.4byte	0xca
 1195 0132 03       		.uleb128 0x3
 1196 0133 FC030000 		.4byte	.LASF27
 1197 0137 08       		.byte	0x8
 1198 0138 4D       		.byte	0x4d
 1199 0139 BF000000 		.4byte	0xbf
 1200 013d 03       		.uleb128 0x3
 1201 013e 6E040000 		.4byte	.LASF28
 1202 0142 08       		.byte	0x8
 1203 0143 4F       		.byte	0x4f
 1204 0144 CA000000 		.4byte	0xca
 1205 0148 03       		.uleb128 0x3
 1206 0149 67030000 		.4byte	.LASF29
 1207 014d 08       		.byte	0x8
 1208 014e 51       		.byte	0x51
 1209 014f BF000000 		.4byte	0xbf
 1210 0153 03       		.uleb128 0x3
 1211 0154 3E070000 		.4byte	.LASF30
 1212 0158 09       		.byte	0x9
 1213 0159 33       		.byte	0x33
 1214 015a CA000000 		.4byte	0xca
 1215 015e 03       		.uleb128 0x3
 1216 015f 2E070000 		.4byte	.LASF31
 1217 0163 09       		.byte	0x9
 1218 0164 3F       		.byte	0x3f
 1219 0165 69010000 		.4byte	0x169
 1220 0169 06       		.uleb128 0x6
 1221 016a F2030000 		.4byte	.LASF53
 1222 016e 48       		.byte	0x48
 1223 016f 0A       		.byte	0xa
 1224 0170 C2       		.byte	0xc2
 1225 0171 6E020000 		.4byte	0x26e
 1226 0175 07       		.uleb128 0x7
 1227 0176 56060000 		.4byte	.LASF32
 1228 017a 0A       		.byte	0xa
 1229 017b C3       		.byte	0xc3
 1230 017c 79020000 		.4byte	0x279
 1231 0180 00       		.byte	0
 1232 0181 07       		.uleb128 0x7
 1233 0182 C0040000 		.4byte	.LASF33
 1234 0186 0A       		.byte	0xa
 1235 0187 C5       		.byte	0xc5
 1236 0188 79020000 		.4byte	0x279
 1237 018c 04       		.byte	0x4
 1238 018d 07       		.uleb128 0x7
 1239 018e 09010000 		.4byte	.LASF34
 1240 0192 0A       		.byte	0xa
 1241 0193 C7       		.byte	0xc7
 1242 0194 27010000 		.4byte	0x127
 1243 0198 08       		.byte	0x8
 1244 0199 07       		.uleb128 0x7
ARM GAS  /tmp/cccegR9C.s 			page 23


 1245 019a BA080000 		.4byte	.LASF35
 1246 019e 0A       		.byte	0xa
 1247 019f C8       		.byte	0xc8
 1248 01a0 A9040000 		.4byte	0x4a9
 1249 01a4 0C       		.byte	0xc
 1250 01a5 07       		.uleb128 0x7
 1251 01a6 DA020000 		.4byte	.LASF36
 1252 01aa 0A       		.byte	0xa
 1253 01ab CA       		.byte	0xca
 1254 01ac 79020000 		.4byte	0x279
 1255 01b0 10       		.byte	0x10
 1256 01b1 07       		.uleb128 0x7
 1257 01b2 25050000 		.4byte	.LASF37
 1258 01b6 0A       		.byte	0xa
 1259 01b7 CB       		.byte	0xcb
 1260 01b8 79020000 		.4byte	0x279
 1261 01bc 14       		.byte	0x14
 1262 01bd 07       		.uleb128 0x7
 1263 01be 0A080000 		.4byte	.LASF38
 1264 01c2 0A       		.byte	0xa
 1265 01c3 D2       		.byte	0xd2
 1266 01c4 EE060000 		.4byte	0x6ee
 1267 01c8 18       		.byte	0x18
 1268 01c9 07       		.uleb128 0x7
 1269 01ca 29060000 		.4byte	.LASF39
 1270 01ce 0A       		.byte	0xa
 1271 01cf DD       		.byte	0xdd
 1272 01d0 06010000 		.4byte	0x106
 1273 01d4 1C       		.byte	0x1c
 1274 01d5 07       		.uleb128 0x7
 1275 01d6 5D060000 		.4byte	.LASF40
 1276 01da 0A       		.byte	0xa
 1277 01db E1       		.byte	0xe1
 1278 01dc FB000000 		.4byte	0xfb
 1279 01e0 1D       		.byte	0x1d
 1280 01e1 07       		.uleb128 0x7
 1281 01e2 CA070000 		.4byte	.LASF41
 1282 01e6 0A       		.byte	0xa
 1283 01e7 E6       		.byte	0xe6
 1284 01e8 11010000 		.4byte	0x111
 1285 01ec 1E       		.byte	0x1e
 1286 01ed 07       		.uleb128 0x7
 1287 01ee 45060000 		.4byte	.LASF42
 1288 01f2 0A       		.byte	0xa
 1289 01f3 EC       		.byte	0xec
 1290 01f4 1C010000 		.4byte	0x11c
 1291 01f8 1F       		.byte	0x1f
 1292 01f9 07       		.uleb128 0x7
 1293 01fa 95030000 		.4byte	.LASF43
 1294 01fe 0A       		.byte	0xa
 1295 01ff F3       		.byte	0xf3
 1296 0200 00070000 		.4byte	0x700
 1297 0204 20       		.byte	0x20
 1298 0205 08       		.uleb128 0x8
 1299 0206 705F7500 		.ascii	"p_u\000"
 1300 020a 0A       		.byte	0xa
 1301 020b 3101     		.2byte	0x131
ARM GAS  /tmp/cccegR9C.s 			page 24


 1302 020d 29060000 		.4byte	0x629
 1303 0211 24       		.byte	0x24
 1304 0212 09       		.uleb128 0x9
 1305 0213 C0080000 		.4byte	.LASF44
 1306 0217 0A       		.byte	0xa
 1307 0218 3601     		.2byte	0x136
 1308 021a 7F020000 		.4byte	0x27f
 1309 021e 28       		.byte	0x28
 1310 021f 09       		.uleb128 0x9
 1311 0220 AD070000 		.4byte	.LASF45
 1312 0224 0A       		.byte	0xa
 1313 0225 3C01     		.2byte	0x13c
 1314 0227 A3020000 		.4byte	0x2a3
 1315 022b 2C       		.byte	0x2c
 1316 022c 09       		.uleb128 0x9
 1317 022d 43080000 		.4byte	.LASF46
 1318 0231 0A       		.byte	0xa
 1319 0232 4001     		.2byte	0x140
 1320 0234 32010000 		.4byte	0x132
 1321 0238 34       		.byte	0x34
 1322 0239 09       		.uleb128 0x9
 1323 023a B4060000 		.4byte	.LASF47
 1324 023e 0A       		.byte	0xa
 1325 023f 4601     		.2byte	0x146
 1326 0241 3D010000 		.4byte	0x13d
 1327 0245 38       		.byte	0x38
 1328 0246 09       		.uleb128 0x9
 1329 0247 31060000 		.4byte	.LASF48
 1330 024b 0A       		.byte	0xa
 1331 024c 4D01     		.2byte	0x14d
 1332 024e E8060000 		.4byte	0x6e8
 1333 0252 3C       		.byte	0x3c
 1334 0253 09       		.uleb128 0x9
 1335 0254 48070000 		.4byte	.LASF49
 1336 0258 0A       		.byte	0xa
 1337 0259 5101     		.2byte	0x151
 1338 025b 27010000 		.4byte	0x127
 1339 025f 40       		.byte	0x40
 1340 0260 09       		.uleb128 0x9
 1341 0261 43010000 		.4byte	.LASF50
 1342 0265 0A       		.byte	0xa
 1343 0266 5801     		.2byte	0x158
 1344 0268 56030000 		.4byte	0x356
 1345 026c 44       		.byte	0x44
 1346 026d 00       		.byte	0
 1347 026e 03       		.uleb128 0x3
 1348 026f DF040000 		.4byte	.LASF51
 1349 0273 09       		.byte	0x9
 1350 0274 44       		.byte	0x44
 1351 0275 79020000 		.4byte	0x279
 1352 0279 0A       		.uleb128 0xa
 1353 027a 04       		.byte	0x4
 1354 027b 5E010000 		.4byte	0x15e
 1355 027f 03       		.uleb128 0x3
 1356 0280 28080000 		.4byte	.LASF52
 1357 0284 09       		.byte	0x9
 1358 0285 49       		.byte	0x49
ARM GAS  /tmp/cccegR9C.s 			page 25


 1359 0286 8A020000 		.4byte	0x28a
 1360 028a 06       		.uleb128 0x6
 1361 028b EF060000 		.4byte	.LASF54
 1362 028f 04       		.byte	0x4
 1363 0290 0A       		.byte	0xa
 1364 0291 B0       		.byte	0xb0
 1365 0292 A3020000 		.4byte	0x2a3
 1366 0296 07       		.uleb128 0x7
 1367 0297 56060000 		.4byte	.LASF32
 1368 029b 0A       		.byte	0xa
 1369 029c B1       		.byte	0xb1
 1370 029d 79020000 		.4byte	0x279
 1371 02a1 00       		.byte	0
 1372 02a2 00       		.byte	0
 1373 02a3 03       		.uleb128 0x3
 1374 02a4 86060000 		.4byte	.LASF55
 1375 02a8 09       		.byte	0x9
 1376 02a9 50       		.byte	0x50
 1377 02aa AE020000 		.4byte	0x2ae
 1378 02ae 06       		.uleb128 0x6
 1379 02af DF000000 		.4byte	.LASF56
 1380 02b3 08       		.byte	0x8
 1381 02b4 0A       		.byte	0xa
 1382 02b5 B7       		.byte	0xb7
 1383 02b6 D3020000 		.4byte	0x2d3
 1384 02ba 07       		.uleb128 0x7
 1385 02bb 56060000 		.4byte	.LASF32
 1386 02bf 0A       		.byte	0xa
 1387 02c0 B8       		.byte	0xb8
 1388 02c1 79020000 		.4byte	0x279
 1389 02c5 00       		.byte	0
 1390 02c6 07       		.uleb128 0x7
 1391 02c7 C0040000 		.4byte	.LASF33
 1392 02cb 0A       		.byte	0xa
 1393 02cc B9       		.byte	0xb9
 1394 02cd 79020000 		.4byte	0x279
 1395 02d1 04       		.byte	0x4
 1396 02d2 00       		.byte	0
 1397 02d3 03       		.uleb128 0x3
 1398 02d4 0E000000 		.4byte	.LASF57
 1399 02d8 09       		.byte	0x9
 1400 02d9 57       		.byte	0x57
 1401 02da DE020000 		.4byte	0x2de
 1402 02de 0B       		.uleb128 0xb
 1403 02df 60040000 		.4byte	.LASF58
 1404 02e3 1C       		.byte	0x1c
 1405 02e4 0A       		.byte	0xa
 1406 02e5 9001     		.2byte	0x190
 1407 02e7 3A030000 		.4byte	0x33a
 1408 02eb 09       		.uleb128 0x9
 1409 02ec DC060000 		.4byte	.LASF59
 1410 02f0 0A       		.byte	0xa
 1411 02f1 9101     		.2byte	0x191
 1412 02f3 A3020000 		.4byte	0x2a3
 1413 02f7 00       		.byte	0
 1414 02f8 09       		.uleb128 0x9
 1415 02f9 A7040000 		.4byte	.LASF60
ARM GAS  /tmp/cccegR9C.s 			page 26


 1416 02fd 0A       		.byte	0xa
 1417 02fe 9201     		.2byte	0x192
 1418 0300 27010000 		.4byte	0x127
 1419 0304 08       		.byte	0x8
 1420 0305 09       		.uleb128 0x9
 1421 0306 2D050000 		.4byte	.LASF61
 1422 030a 0A       		.byte	0xa
 1423 030b 9401     		.2byte	0x194
 1424 030d A9040000 		.4byte	0x4a9
 1425 0311 0C       		.byte	0xc
 1426 0312 09       		.uleb128 0x9
 1427 0313 F3020000 		.4byte	.LASF62
 1428 0317 0A       		.byte	0xa
 1429 0318 9701     		.2byte	0x197
 1430 031a 79020000 		.4byte	0x279
 1431 031e 10       		.byte	0x10
 1432 031f 09       		.uleb128 0x9
 1433 0320 67050000 		.4byte	.LASF63
 1434 0324 0A       		.byte	0xa
 1435 0325 9801     		.2byte	0x198
 1436 0327 79020000 		.4byte	0x279
 1437 032b 14       		.byte	0x14
 1438 032c 09       		.uleb128 0x9
 1439 032d 5D050000 		.4byte	.LASF64
 1440 0331 0A       		.byte	0xa
 1441 0332 9B01     		.2byte	0x19b
 1442 0334 79020000 		.4byte	0x279
 1443 0338 18       		.byte	0x18
 1444 0339 00       		.byte	0
 1445 033a 03       		.uleb128 0x3
 1446 033b 53070000 		.4byte	.LASF65
 1447 033f 09       		.byte	0x9
 1448 0340 5C       		.byte	0x5c
 1449 0341 45030000 		.4byte	0x345
 1450 0345 0A       		.uleb128 0xa
 1451 0346 04       		.byte	0x4
 1452 0347 4B030000 		.4byte	0x34b
 1453 034b 0C       		.uleb128 0xc
 1454 034c 56030000 		.4byte	0x356
 1455 0350 0D       		.uleb128 0xd
 1456 0351 56030000 		.4byte	0x356
 1457 0355 00       		.byte	0
 1458 0356 0E       		.uleb128 0xe
 1459 0357 04       		.byte	0x4
 1460 0358 03       		.uleb128 0x3
 1461 0359 B5050000 		.4byte	.LASF66
 1462 035d 09       		.byte	0x9
 1463 035e 61       		.byte	0x61
 1464 035f 63030000 		.4byte	0x363
 1465 0363 0B       		.uleb128 0xb
 1466 0364 96060000 		.4byte	.LASF67
 1467 0368 14       		.byte	0x14
 1468 0369 0A       		.byte	0xa
 1469 036a 6B01     		.2byte	0x16b
 1470 036c B2030000 		.4byte	0x3b2
 1471 0370 09       		.uleb128 0x9
 1472 0371 8D030000 		.4byte	.LASF68
ARM GAS  /tmp/cccegR9C.s 			page 27


 1473 0375 0A       		.byte	0xa
 1474 0376 6C01     		.2byte	0x16c
 1475 0378 05070000 		.4byte	0x705
 1476 037c 00       		.byte	0
 1477 037d 09       		.uleb128 0x9
 1478 037e 04030000 		.4byte	.LASF69
 1479 0382 0A       		.byte	0xa
 1480 0383 6D01     		.2byte	0x16d
 1481 0385 05070000 		.4byte	0x705
 1482 0389 04       		.byte	0x4
 1483 038a 09       		.uleb128 0x9
 1484 038b A3030000 		.4byte	.LASF70
 1485 038f 0A       		.byte	0xa
 1486 0390 6E01     		.2byte	0x16e
 1487 0392 53010000 		.4byte	0x153
 1488 0396 08       		.byte	0x8
 1489 0397 09       		.uleb128 0x9
 1490 0398 43050000 		.4byte	.LASF71
 1491 039c 0A       		.byte	0xa
 1492 039d 6F01     		.2byte	0x16f
 1493 039f 3A030000 		.4byte	0x33a
 1494 03a3 0C       		.byte	0xc
 1495 03a4 09       		.uleb128 0x9
 1496 03a5 B8070000 		.4byte	.LASF72
 1497 03a9 0A       		.byte	0xa
 1498 03aa 7101     		.2byte	0x171
 1499 03ac 56030000 		.4byte	0x356
 1500 03b0 10       		.byte	0x10
 1501 03b1 00       		.byte	0
 1502 03b2 03       		.uleb128 0x3
 1503 03b3 BC000000 		.4byte	.LASF73
 1504 03b7 09       		.byte	0x9
 1505 03b8 66       		.byte	0x66
 1506 03b9 BD030000 		.4byte	0x3bd
 1507 03bd 0B       		.uleb128 0xb
 1508 03be 50030000 		.4byte	.LASF74
 1509 03c2 10       		.byte	0x10
 1510 03c3 0A       		.byte	0xa
 1511 03c4 7B01     		.2byte	0x17b
 1512 03c6 FF030000 		.4byte	0x3ff
 1513 03ca 09       		.uleb128 0x9
 1514 03cb 8D030000 		.4byte	.LASF68
 1515 03cf 0A       		.byte	0xa
 1516 03d0 7C01     		.2byte	0x17c
 1517 03d2 05070000 		.4byte	0x705
 1518 03d6 00       		.byte	0
 1519 03d7 09       		.uleb128 0x9
 1520 03d8 04030000 		.4byte	.LASF69
 1521 03dc 0A       		.byte	0xa
 1522 03dd 7E01     		.2byte	0x17e
 1523 03df 05070000 		.4byte	0x705
 1524 03e3 04       		.byte	0x4
 1525 03e4 09       		.uleb128 0x9
 1526 03e5 A3030000 		.4byte	.LASF70
 1527 03e9 0A       		.byte	0xa
 1528 03ea 8001     		.2byte	0x180
 1529 03ec 53010000 		.4byte	0x153
ARM GAS  /tmp/cccegR9C.s 			page 28


 1530 03f0 08       		.byte	0x8
 1531 03f1 09       		.uleb128 0x9
 1532 03f2 E4060000 		.4byte	.LASF75
 1533 03f6 0A       		.byte	0xa
 1534 03f7 8201     		.2byte	0x182
 1535 03f9 00070000 		.4byte	0x700
 1536 03fd 0C       		.byte	0xc
 1537 03fe 00       		.byte	0
 1538 03ff 03       		.uleb128 0x3
 1539 0400 AC030000 		.4byte	.LASF76
 1540 0404 09       		.byte	0x9
 1541 0405 6B       		.byte	0x6b
 1542 0406 0A040000 		.4byte	0x40a
 1543 040a 0B       		.uleb128 0xb
 1544 040b F4050000 		.4byte	.LASF77
 1545 040f 04       		.byte	0x4
 1546 0410 0A       		.byte	0xa
 1547 0411 A201     		.2byte	0x1a2
 1548 0413 25040000 		.4byte	0x425
 1549 0417 09       		.uleb128 0x9
 1550 0418 75070000 		.4byte	.LASF78
 1551 041c 0A       		.byte	0xa
 1552 041d AA01     		.2byte	0x1aa
 1553 041f 0B070000 		.4byte	0x70b
 1554 0423 00       		.byte	0
 1555 0424 00       		.byte	0
 1556 0425 03       		.uleb128 0x3
 1557 0426 2E040000 		.4byte	.LASF79
 1558 042a 09       		.byte	0x9
 1559 042b 70       		.byte	0x70
 1560 042c 30040000 		.4byte	0x430
 1561 0430 0F       		.uleb128 0xf
 1562 0431 7C010000 		.4byte	.LASF80
 1563 0435 5802     		.2byte	0x258
 1564 0437 0A       		.byte	0xa
 1565 0438 C201     		.2byte	0x1c2
 1566 043a 8C040000 		.4byte	0x48c
 1567 043e 09       		.uleb128 0x9
 1568 043f DC070000 		.4byte	.LASF81
 1569 0443 0A       		.byte	0xa
 1570 0444 C601     		.2byte	0x1c6
 1571 0446 D3020000 		.4byte	0x2d3
 1572 044a 00       		.byte	0
 1573 044b 09       		.uleb128 0x9
 1574 044c 6E000000 		.4byte	.LASF82
 1575 0450 0A       		.byte	0xa
 1576 0451 CA01     		.2byte	0x1ca
 1577 0453 B2030000 		.4byte	0x3b2
 1578 0457 1C       		.byte	0x1c
 1579 0458 08       		.uleb128 0x8
 1580 0459 64626700 		.ascii	"dbg\000"
 1581 045d 0A       		.byte	0xa
 1582 045e CE01     		.2byte	0x1ce
 1583 0460 FF030000 		.4byte	0x3ff
 1584 0464 2C       		.byte	0x2c
 1585 0465 09       		.uleb128 0x9
 1586 0466 B1000000 		.4byte	.LASF83
ARM GAS  /tmp/cccegR9C.s 			page 29


 1587 046a 0A       		.byte	0xa
 1588 046b D201     		.2byte	0x1d2
 1589 046d 5E010000 		.4byte	0x15e
 1590 0471 30       		.byte	0x30
 1591 0472 08       		.uleb128 0x8
 1592 0473 746D00   		.ascii	"tm\000"
 1593 0476 0A       		.byte	0xa
 1594 0477 D701     		.2byte	0x1d7
 1595 0479 1E060000 		.4byte	0x61e
 1596 047d 78       		.byte	0x78
 1597 047e 09       		.uleb128 0x9
 1598 047f 41030000 		.4byte	.LASF84
 1599 0483 0A       		.byte	0xa
 1600 0484 E301     		.2byte	0x1e3
 1601 0486 10070000 		.4byte	0x710
 1602 048a 80       		.byte	0x80
 1603 048b 00       		.byte	0
 1604 048c 02       		.uleb128 0x2
 1605 048d 04       		.byte	0x4
 1606 048e 07       		.byte	0x7
 1607 048f EA070000 		.4byte	.LASF85
 1608 0493 03       		.uleb128 0x3
 1609 0494 FB020000 		.4byte	.LASF86
 1610 0498 0B       		.byte	0xb
 1611 0499 65       		.byte	0x65
 1612 049a 56030000 		.4byte	0x356
 1613 049e 03       		.uleb128 0x3
 1614 049f 8A040000 		.4byte	.LASF87
 1615 04a3 0B       		.byte	0xb
 1616 04a4 6D       		.byte	0x6d
 1617 04a5 D5000000 		.4byte	0xd5
 1618 04a9 06       		.uleb128 0x6
 1619 04aa D1030000 		.4byte	.LASF88
 1620 04ae 04       		.byte	0x4
 1621 04af 0B       		.byte	0xb
 1622 04b0 89       		.byte	0x89
 1623 04b1 C2040000 		.4byte	0x4c2
 1624 04b5 10       		.uleb128 0x10
 1625 04b6 72313300 		.ascii	"r13\000"
 1626 04ba 0B       		.byte	0xb
 1627 04bb 8A       		.byte	0x8a
 1628 04bc 03060000 		.4byte	0x603
 1629 04c0 00       		.byte	0
 1630 04c1 00       		.byte	0
 1631 04c2 06       		.uleb128 0x6
 1632 04c3 62000000 		.4byte	.LASF89
 1633 04c7 64       		.byte	0x64
 1634 04c8 0C       		.byte	0xc
 1635 04c9 F4       		.byte	0xf4
 1636 04ca 03060000 		.4byte	0x603
 1637 04ce 10       		.uleb128 0x10
 1638 04cf 73313600 		.ascii	"s16\000"
 1639 04d3 0C       		.byte	0xc
 1640 04d4 F6       		.byte	0xf6
 1641 04d5 93040000 		.4byte	0x493
 1642 04d9 00       		.byte	0
 1643 04da 10       		.uleb128 0x10
ARM GAS  /tmp/cccegR9C.s 			page 30


 1644 04db 73313700 		.ascii	"s17\000"
 1645 04df 0C       		.byte	0xc
 1646 04e0 F7       		.byte	0xf7
 1647 04e1 93040000 		.4byte	0x493
 1648 04e5 04       		.byte	0x4
 1649 04e6 10       		.uleb128 0x10
 1650 04e7 73313800 		.ascii	"s18\000"
 1651 04eb 0C       		.byte	0xc
 1652 04ec F8       		.byte	0xf8
 1653 04ed 93040000 		.4byte	0x493
 1654 04f1 08       		.byte	0x8
 1655 04f2 10       		.uleb128 0x10
 1656 04f3 73313900 		.ascii	"s19\000"
 1657 04f7 0C       		.byte	0xc
 1658 04f8 F9       		.byte	0xf9
 1659 04f9 93040000 		.4byte	0x493
 1660 04fd 0C       		.byte	0xc
 1661 04fe 10       		.uleb128 0x10
 1662 04ff 73323000 		.ascii	"s20\000"
 1663 0503 0C       		.byte	0xc
 1664 0504 FA       		.byte	0xfa
 1665 0505 93040000 		.4byte	0x493
 1666 0509 10       		.byte	0x10
 1667 050a 10       		.uleb128 0x10
 1668 050b 73323100 		.ascii	"s21\000"
 1669 050f 0C       		.byte	0xc
 1670 0510 FB       		.byte	0xfb
 1671 0511 93040000 		.4byte	0x493
 1672 0515 14       		.byte	0x14
 1673 0516 10       		.uleb128 0x10
 1674 0517 73323200 		.ascii	"s22\000"
 1675 051b 0C       		.byte	0xc
 1676 051c FC       		.byte	0xfc
 1677 051d 93040000 		.4byte	0x493
 1678 0521 18       		.byte	0x18
 1679 0522 10       		.uleb128 0x10
 1680 0523 73323300 		.ascii	"s23\000"
 1681 0527 0C       		.byte	0xc
 1682 0528 FD       		.byte	0xfd
 1683 0529 93040000 		.4byte	0x493
 1684 052d 1C       		.byte	0x1c
 1685 052e 10       		.uleb128 0x10
 1686 052f 73323400 		.ascii	"s24\000"
 1687 0533 0C       		.byte	0xc
 1688 0534 FE       		.byte	0xfe
 1689 0535 93040000 		.4byte	0x493
 1690 0539 20       		.byte	0x20
 1691 053a 10       		.uleb128 0x10
 1692 053b 73323500 		.ascii	"s25\000"
 1693 053f 0C       		.byte	0xc
 1694 0540 FF       		.byte	0xff
 1695 0541 93040000 		.4byte	0x493
 1696 0545 24       		.byte	0x24
 1697 0546 08       		.uleb128 0x8
 1698 0547 73323600 		.ascii	"s26\000"
 1699 054b 0C       		.byte	0xc
 1700 054c 0001     		.2byte	0x100
ARM GAS  /tmp/cccegR9C.s 			page 31


 1701 054e 93040000 		.4byte	0x493
 1702 0552 28       		.byte	0x28
 1703 0553 08       		.uleb128 0x8
 1704 0554 73323700 		.ascii	"s27\000"
 1705 0558 0C       		.byte	0xc
 1706 0559 0101     		.2byte	0x101
 1707 055b 93040000 		.4byte	0x493
 1708 055f 2C       		.byte	0x2c
 1709 0560 08       		.uleb128 0x8
 1710 0561 73323800 		.ascii	"s28\000"
 1711 0565 0C       		.byte	0xc
 1712 0566 0201     		.2byte	0x102
 1713 0568 93040000 		.4byte	0x493
 1714 056c 30       		.byte	0x30
 1715 056d 08       		.uleb128 0x8
 1716 056e 73323900 		.ascii	"s29\000"
 1717 0572 0C       		.byte	0xc
 1718 0573 0301     		.2byte	0x103
 1719 0575 93040000 		.4byte	0x493
 1720 0579 34       		.byte	0x34
 1721 057a 08       		.uleb128 0x8
 1722 057b 73333000 		.ascii	"s30\000"
 1723 057f 0C       		.byte	0xc
 1724 0580 0401     		.2byte	0x104
 1725 0582 93040000 		.4byte	0x493
 1726 0586 38       		.byte	0x38
 1727 0587 08       		.uleb128 0x8
 1728 0588 73333100 		.ascii	"s31\000"
 1729 058c 0C       		.byte	0xc
 1730 058d 0501     		.2byte	0x105
 1731 058f 93040000 		.4byte	0x493
 1732 0593 3C       		.byte	0x3c
 1733 0594 08       		.uleb128 0x8
 1734 0595 723400   		.ascii	"r4\000"
 1735 0598 0C       		.byte	0xc
 1736 0599 0701     		.2byte	0x107
 1737 059b 93040000 		.4byte	0x493
 1738 059f 40       		.byte	0x40
 1739 05a0 08       		.uleb128 0x8
 1740 05a1 723500   		.ascii	"r5\000"
 1741 05a4 0C       		.byte	0xc
 1742 05a5 0801     		.2byte	0x108
 1743 05a7 93040000 		.4byte	0x493
 1744 05ab 44       		.byte	0x44
 1745 05ac 08       		.uleb128 0x8
 1746 05ad 723600   		.ascii	"r6\000"
 1747 05b0 0C       		.byte	0xc
 1748 05b1 0901     		.2byte	0x109
 1749 05b3 93040000 		.4byte	0x493
 1750 05b7 48       		.byte	0x48
 1751 05b8 08       		.uleb128 0x8
 1752 05b9 723700   		.ascii	"r7\000"
 1753 05bc 0C       		.byte	0xc
 1754 05bd 0A01     		.2byte	0x10a
 1755 05bf 93040000 		.4byte	0x493
 1756 05c3 4C       		.byte	0x4c
 1757 05c4 08       		.uleb128 0x8
ARM GAS  /tmp/cccegR9C.s 			page 32


 1758 05c5 723800   		.ascii	"r8\000"
 1759 05c8 0C       		.byte	0xc
 1760 05c9 0B01     		.2byte	0x10b
 1761 05cb 93040000 		.4byte	0x493
 1762 05cf 50       		.byte	0x50
 1763 05d0 08       		.uleb128 0x8
 1764 05d1 723900   		.ascii	"r9\000"
 1765 05d4 0C       		.byte	0xc
 1766 05d5 0C01     		.2byte	0x10c
 1767 05d7 93040000 		.4byte	0x493
 1768 05db 54       		.byte	0x54
 1769 05dc 08       		.uleb128 0x8
 1770 05dd 72313000 		.ascii	"r10\000"
 1771 05e1 0C       		.byte	0xc
 1772 05e2 0D01     		.2byte	0x10d
 1773 05e4 93040000 		.4byte	0x493
 1774 05e8 58       		.byte	0x58
 1775 05e9 08       		.uleb128 0x8
 1776 05ea 72313100 		.ascii	"r11\000"
 1777 05ee 0C       		.byte	0xc
 1778 05ef 0E01     		.2byte	0x10e
 1779 05f1 93040000 		.4byte	0x493
 1780 05f5 5C       		.byte	0x5c
 1781 05f6 08       		.uleb128 0x8
 1782 05f7 6C7200   		.ascii	"lr\000"
 1783 05fa 0C       		.byte	0xc
 1784 05fb 0F01     		.2byte	0x10f
 1785 05fd 93040000 		.4byte	0x493
 1786 0601 60       		.byte	0x60
 1787 0602 00       		.byte	0
 1788 0603 0A       		.uleb128 0xa
 1789 0604 04       		.byte	0x4
 1790 0605 C2040000 		.4byte	0x4c2
 1791 0609 11       		.uleb128 0x11
 1792 060a 04       		.byte	0x4
 1793 060b 0D       		.byte	0xd
 1794 060c 38       		.byte	0x38
 1795 060d 1E060000 		.4byte	0x61e
 1796 0611 07       		.uleb128 0x7
 1797 0612 7F070000 		.4byte	.LASF90
 1798 0616 0D       		.byte	0xd
 1799 0617 3C       		.byte	0x3c
 1800 0618 F0000000 		.4byte	0xf0
 1801 061c 00       		.byte	0
 1802 061d 00       		.byte	0
 1803 061e 03       		.uleb128 0x3
 1804 061f 0A050000 		.4byte	.LASF91
 1805 0623 0D       		.byte	0xd
 1806 0624 3D       		.byte	0x3d
 1807 0625 09060000 		.4byte	0x609
 1808 0629 12       		.uleb128 0x12
 1809 062a 04       		.byte	0x4
 1810 062b 0A       		.byte	0xa
 1811 062c FA       		.byte	0xfa
 1812 062d 86060000 		.4byte	0x686
 1813 0631 13       		.uleb128 0x13
 1814 0632 22000000 		.4byte	.LASF92
ARM GAS  /tmp/cccegR9C.s 			page 33


 1815 0636 0A       		.byte	0xa
 1816 0637 0101     		.2byte	0x101
 1817 0639 32010000 		.4byte	0x132
 1818 063d 13       		.uleb128 0x13
 1819 063e EA020000 		.4byte	.LASF93
 1820 0642 0A       		.byte	0xa
 1821 0643 0801     		.2byte	0x108
 1822 0645 32010000 		.4byte	0x132
 1823 0649 13       		.uleb128 0x13
 1824 064a 6F010000 		.4byte	.LASF94
 1825 064e 0A       		.byte	0xa
 1826 064f 0F01     		.2byte	0x10f
 1827 0651 56030000 		.4byte	0x356
 1828 0655 13       		.uleb128 0x13
 1829 0656 FB040000 		.4byte	.LASF95
 1830 065a 0A       		.byte	0xa
 1831 065b 1601     		.2byte	0x116
 1832 065d 86060000 		.4byte	0x686
 1833 0661 13       		.uleb128 0x13
 1834 0662 9C030000 		.4byte	.LASF96
 1835 0666 0A       		.byte	0xa
 1836 0667 1E01     		.2byte	0x11e
 1837 0669 B1060000 		.4byte	0x6b1
 1838 066d 13       		.uleb128 0x13
 1839 066e D5060000 		.4byte	.LASF97
 1840 0672 0A       		.byte	0xa
 1841 0673 2701     		.2byte	0x127
 1842 0675 E8060000 		.4byte	0x6e8
 1843 0679 13       		.uleb128 0x13
 1844 067a 4F060000 		.4byte	.LASF98
 1845 067e 0A       		.byte	0xa
 1846 067f 2F01     		.2byte	0x12f
 1847 0681 3D010000 		.4byte	0x13d
 1848 0685 00       		.byte	0
 1849 0686 0A       		.uleb128 0xa
 1850 0687 04       		.byte	0x4
 1851 0688 6E020000 		.4byte	0x26e
 1852 068c 06       		.uleb128 0x6
 1853 068d A7060000 		.4byte	.LASF99
 1854 0691 0C       		.byte	0xc
 1855 0692 0E       		.byte	0xe
 1856 0693 34       		.byte	0x34
 1857 0694 B1060000 		.4byte	0x6b1
 1858 0698 07       		.uleb128 0x7
 1859 0699 E2020000 		.4byte	.LASF100
 1860 069d 0E       		.byte	0xe
 1861 069e 35       		.byte	0x35
 1862 069f A3020000 		.4byte	0x2a3
 1863 06a3 00       		.byte	0
 1864 06a4 07       		.uleb128 0x7
 1865 06a5 C6030000 		.4byte	.LASF101
 1866 06a9 0E       		.byte	0xe
 1867 06aa 37       		.byte	0x37
 1868 06ab 48010000 		.4byte	0x148
 1869 06af 08       		.byte	0x8
 1870 06b0 00       		.byte	0
 1871 06b1 0A       		.uleb128 0xa
ARM GAS  /tmp/cccegR9C.s 			page 34


 1872 06b2 04       		.byte	0x4
 1873 06b3 8C060000 		.4byte	0x68c
 1874 06b7 06       		.uleb128 0x6
 1875 06b8 01080000 		.4byte	.LASF102
 1876 06bc 10       		.byte	0x10
 1877 06bd 0F       		.byte	0xf
 1878 06be 39       		.byte	0x39
 1879 06bf E8060000 		.4byte	0x6e8
 1880 06c3 07       		.uleb128 0x7
 1881 06c4 4B010000 		.4byte	.LASF103
 1882 06c8 0F       		.byte	0xf
 1883 06c9 3A       		.byte	0x3a
 1884 06ca A3020000 		.4byte	0x2a3
 1885 06ce 00       		.byte	0
 1886 06cf 07       		.uleb128 0x7
 1887 06d0 A4080000 		.4byte	.LASF104
 1888 06d4 0F       		.byte	0xf
 1889 06d5 3C       		.byte	0x3c
 1890 06d6 79020000 		.4byte	0x279
 1891 06da 08       		.byte	0x8
 1892 06db 07       		.uleb128 0x7
 1893 06dc 37070000 		.4byte	.LASF105
 1894 06e0 0F       		.byte	0xf
 1895 06e1 3E       		.byte	0x3e
 1896 06e2 36070000 		.4byte	0x736
 1897 06e6 0C       		.byte	0xc
 1898 06e7 00       		.byte	0
 1899 06e8 0A       		.uleb128 0xa
 1900 06e9 04       		.byte	0x4
 1901 06ea B7060000 		.4byte	0x6b7
 1902 06ee 0A       		.uleb128 0xa
 1903 06ef 04       		.byte	0x4
 1904 06f0 F4060000 		.4byte	0x6f4
 1905 06f4 14       		.uleb128 0x14
 1906 06f5 F9060000 		.4byte	0x6f9
 1907 06f9 02       		.uleb128 0x2
 1908 06fa 01       		.byte	0x1
 1909 06fb 08       		.byte	0x8
 1910 06fc 1E070000 		.4byte	.LASF106
 1911 0700 05       		.uleb128 0x5
 1912 0701 53010000 		.4byte	0x153
 1913 0705 0A       		.uleb128 0xa
 1914 0706 04       		.byte	0x4
 1915 0707 58030000 		.4byte	0x358
 1916 070b 05       		.uleb128 0x5
 1917 070c EE060000 		.4byte	0x6ee
 1918 0710 15       		.uleb128 0x15
 1919 0711 9E040000 		.4byte	0x49e
 1920 0715 20070000 		.4byte	0x720
 1921 0719 16       		.uleb128 0x16
 1922 071a 8C040000 		.4byte	0x48c
 1923 071e 3A       		.byte	0x3a
 1924 071f 00       		.byte	0
 1925 0720 03       		.uleb128 0x3
 1926 0721 00000000 		.4byte	.LASF107
 1927 0725 10       		.byte	0x10
 1928 0726 34       		.byte	0x34
ARM GAS  /tmp/cccegR9C.s 			page 35


 1929 0727 45030000 		.4byte	0x345
 1930 072b 03       		.uleb128 0x3
 1931 072c 33030000 		.4byte	.LASF108
 1932 0730 0F       		.byte	0xf
 1933 0731 34       		.byte	0x34
 1934 0732 B7060000 		.4byte	0x6b7
 1935 0736 0A       		.uleb128 0xa
 1936 0737 04       		.byte	0x4
 1937 0738 2B070000 		.4byte	0x72b
 1938 073c 17       		.uleb128 0x17
 1939 073d 01       		.byte	0x1
 1940 073e 11       		.byte	0x11
 1941 073f 40       		.byte	0x40
 1942 0740 6F070000 		.4byte	0x76f
 1943 0744 18       		.uleb128 0x18
 1944 0745 33050000 		.4byte	.LASF109
 1945 0749 00       		.sleb128 0
 1946 074a 18       		.uleb128 0x18
 1947 074b 40000000 		.4byte	.LASF110
 1948 074f 01       		.sleb128 1
 1949 0750 18       		.uleb128 0x18
 1950 0751 F0000000 		.4byte	.LASF111
 1951 0755 02       		.sleb128 2
 1952 0756 18       		.uleb128 0x18
 1953 0757 75000000 		.4byte	.LASF112
 1954 075b 03       		.sleb128 3
 1955 075c 18       		.uleb128 0x18
 1956 075d 8F010000 		.4byte	.LASF113
 1957 0761 04       		.sleb128 4
 1958 0762 18       		.uleb128 0x18
 1959 0763 D9030000 		.4byte	.LASF114
 1960 0767 05       		.sleb128 5
 1961 0768 18       		.uleb128 0x18
 1962 0769 6F050000 		.4byte	.LASF115
 1963 076d 06       		.sleb128 6
 1964 076e 00       		.byte	0
 1965 076f 03       		.uleb128 0x3
 1966 0770 F3070000 		.4byte	.LASF116
 1967 0774 11       		.byte	0x11
 1968 0775 48       		.byte	0x48
 1969 0776 3C070000 		.4byte	0x73c
 1970 077a 02       		.uleb128 0x2
 1971 077b 01       		.byte	0x1
 1972 077c 02       		.byte	0x2
 1973 077d 04060000 		.4byte	.LASF117
 1974 0781 19       		.uleb128 0x19
 1975 0782 01       		.byte	0x1
 1976 0783 11       		.byte	0x11
 1977 0784 0D02     		.2byte	0x20d
 1978 0786 BB070000 		.4byte	0x7bb
 1979 078a 18       		.uleb128 0x18
 1980 078b 8E000000 		.4byte	.LASF118
 1981 078f 00       		.sleb128 0
 1982 0790 18       		.uleb128 0x18
 1983 0791 C5050000 		.4byte	.LASF119
 1984 0795 01       		.sleb128 1
 1985 0796 18       		.uleb128 0x18
ARM GAS  /tmp/cccegR9C.s 			page 36


 1986 0797 6E060000 		.4byte	.LASF120
 1987 079b 02       		.sleb128 2
 1988 079c 18       		.uleb128 0x18
 1989 079d A3050000 		.4byte	.LASF121
 1990 07a1 03       		.sleb128 3
 1991 07a2 18       		.uleb128 0x18
 1992 07a3 6E080000 		.4byte	.LASF122
 1993 07a7 04       		.sleb128 4
 1994 07a8 18       		.uleb128 0x18
 1995 07a9 DC050000 		.4byte	.LASF123
 1996 07ad 05       		.sleb128 5
 1997 07ae 18       		.uleb128 0x18
 1998 07af B5010000 		.4byte	.LASF124
 1999 07b3 06       		.sleb128 6
 2000 07b4 18       		.uleb128 0x18
 2001 07b5 BF060000 		.4byte	.LASF125
 2002 07b9 07       		.sleb128 7
 2003 07ba 00       		.byte	0
 2004 07bb 1A       		.uleb128 0x1a
 2005 07bc 29000000 		.4byte	.LASF126
 2006 07c0 11       		.byte	0x11
 2007 07c1 1602     		.2byte	0x216
 2008 07c3 81070000 		.4byte	0x781
 2009 07c7 1B       		.uleb128 0x1b
 2010 07c8 67070000 		.4byte	.LASF130
 2011 07cc 03       		.byte	0x3
 2012 07cd 2002     		.2byte	0x220
 2013 07cf 03       		.byte	0x3
 2014 07d0 E1070000 		.4byte	0x7e1
 2015 07d4 1C       		.uleb128 0x1c
 2016 07d5 3B030000 		.4byte	.LASF133
 2017 07d9 03       		.byte	0x3
 2018 07da 2002     		.2byte	0x220
 2019 07dc CA000000 		.4byte	0xca
 2020 07e0 00       		.byte	0
 2021 07e1 1D       		.uleb128 0x1d
 2022 07e2 84000000 		.4byte	.LASF127
 2023 07e6 0C       		.byte	0xc
 2024 07e7 BC01     		.2byte	0x1bc
 2025 07e9 03       		.byte	0x3
 2026 07ea 1D       		.uleb128 0x1d
 2027 07eb 59010000 		.4byte	.LASF128
 2028 07ef 0C       		.byte	0xc
 2029 07f0 CA01     		.2byte	0x1ca
 2030 07f2 03       		.byte	0x3
 2031 07f3 1D       		.uleb128 0x1d
 2032 07f4 7C060000 		.4byte	.LASF129
 2033 07f8 12       		.byte	0x12
 2034 07f9 5A01     		.2byte	0x15a
 2035 07fb 03       		.byte	0x3
 2036 07fc 1E       		.uleb128 0x1e
 2037 07fd 6D030000 		.4byte	.LASF167
 2038 0801 04       		.byte	0x4
 2039 0802 E4       		.byte	0xe4
 2040 0803 53010000 		.4byte	0x153
 2041 0807 03       		.byte	0x3
 2042 0808 1B       		.uleb128 0x1b
ARM GAS  /tmp/cccegR9C.s 			page 37


 2043 0809 37080000 		.4byte	.LASF131
 2044 080d 12       		.byte	0x12
 2045 080e 6601     		.2byte	0x166
 2046 0810 03       		.byte	0x3
 2047 0811 23080000 		.4byte	0x823
 2048 0815 1F       		.uleb128 0x1f
 2049 0816 65060000 		.4byte	.LASF135
 2050 081a 33080000 		.4byte	0x833
 2051 081e 37080000 		.4byte	.LASF131
 2052 0822 00       		.byte	0
 2053 0823 15       		.uleb128 0x15
 2054 0824 F9060000 		.4byte	0x6f9
 2055 0828 33080000 		.4byte	0x833
 2056 082c 16       		.uleb128 0x16
 2057 082d 8C040000 		.4byte	0x48c
 2058 0831 0B       		.byte	0xb
 2059 0832 00       		.byte	0
 2060 0833 14       		.uleb128 0x14
 2061 0834 23080000 		.4byte	0x823
 2062 0838 20       		.uleb128 0x20
 2063 0839 81080000 		.4byte	.LASF132
 2064 083d 02       		.byte	0x2
 2065 083e 84       		.byte	0x84
 2066 083f 03       		.byte	0x3
 2067 0840 50080000 		.4byte	0x850
 2068 0844 21       		.uleb128 0x21
 2069 0845 CC030000 		.4byte	.LASF134
 2070 0849 02       		.byte	0x2
 2071 084a 84       		.byte	0x84
 2072 084b EE060000 		.4byte	0x6ee
 2073 084f 00       		.byte	0
 2074 0850 22       		.uleb128 0x22
 2075 0851 4B050000 		.4byte	.LASF137
 2076 0855 04       		.byte	0x4
 2077 0856 F7       		.byte	0xf7
 2078 0857 53010000 		.4byte	0x153
 2079 085b 03       		.byte	0x3
 2080 085c 6C080000 		.4byte	0x86c
 2081 0860 23       		.uleb128 0x23
 2082 0861 58040000 		.4byte	.LASF136
 2083 0865 04       		.byte	0x4
 2084 0866 F8       		.byte	0xf8
 2085 0867 53010000 		.4byte	0x153
 2086 086b 00       		.byte	0
 2087 086c 22       		.uleb128 0x22
 2088 086d A1070000 		.4byte	.LASF138
 2089 0871 01       		.byte	0x1
 2090 0872 BD       		.byte	0xbd
 2091 0873 CA000000 		.4byte	0xca
 2092 0877 01       		.byte	0x1
 2093 0878 AE080000 		.4byte	0x8ae
 2094 087c 21       		.uleb128 0x21
 2095 087d 84040000 		.4byte	.LASF139
 2096 0881 01       		.byte	0x1
 2097 0882 BD       		.byte	0xbd
 2098 0883 CA000000 		.4byte	0xca
 2099 0887 21       		.uleb128 0x21
ARM GAS  /tmp/cccegR9C.s 			page 38


 2100 0888 08000000 		.4byte	.LASF140
 2101 088c 01       		.byte	0x1
 2102 088d BD       		.byte	0xbd
 2103 088e 25000000 		.4byte	0x25
 2104 0892 24       		.uleb128 0x24
 2105 0893 7200     		.ascii	"r\000"
 2106 0895 01       		.byte	0x1
 2107 0896 BE       		.byte	0xbe
 2108 0897 CA000000 		.4byte	0xca
 2109 089b 24       		.uleb128 0x24
 2110 089c 6700     		.ascii	"g\000"
 2111 089e 01       		.byte	0x1
 2112 089f BF       		.byte	0xbf
 2113 08a0 CA000000 		.4byte	0xca
 2114 08a4 24       		.uleb128 0x24
 2115 08a5 6200     		.ascii	"b\000"
 2116 08a7 01       		.byte	0x1
 2117 08a8 C0       		.byte	0xc0
 2118 08a9 CA000000 		.4byte	0xca
 2119 08ad 00       		.byte	0
 2120 08ae 25       		.uleb128 0x25
 2121 08af 3A040000 		.4byte	.LASF142
 2122 08b3 01       		.byte	0x1
 2123 08b4 C9       		.byte	0xc9
 2124 08b5 00000000 		.4byte	.LFB261
 2125 08b9 38000000 		.4byte	.LFE261-.LFB261
 2126 08bd 01       		.uleb128 0x1
 2127 08be 9C       		.byte	0x9c
 2128 08bf FA080000 		.4byte	0x8fa
 2129 08c3 26       		.uleb128 0x26
 2130 08c4 737400   		.ascii	"st\000"
 2131 08c7 01       		.byte	0x1
 2132 08c8 CA       		.byte	0xca
 2133 08c9 BB070000 		.4byte	0x7bb
 2134 08cd 00000000 		.4byte	.LLST0
 2135 08d1 27       		.uleb128 0x27
 2136 08d2 F2040000 		.4byte	.LASF141
 2137 08d6 01       		.byte	0x1
 2138 08d7 CB       		.byte	0xcb
 2139 08d8 7A070000 		.4byte	0x77a
 2140 08dc 13000000 		.4byte	.LLST1
 2141 08e0 28       		.uleb128 0x28
 2142 08e1 1A000000 		.4byte	.LVL3
 2143 08e5 8A110000 		.4byte	0x118a
 2144 08e9 29       		.uleb128 0x29
 2145 08ea 22000000 		.4byte	.LVL4
 2146 08ee 95110000 		.4byte	0x1195
 2147 08f2 2A       		.uleb128 0x2a
 2148 08f3 01       		.uleb128 0x1
 2149 08f4 50       		.byte	0x50
 2150 08f5 02       		.uleb128 0x2
 2151 08f6 08       		.byte	0x8
 2152 08f7 64       		.byte	0x64
 2153 08f8 00       		.byte	0
 2154 08f9 00       		.byte	0
 2155 08fa 25       		.uleb128 0x25
 2156 08fb 94080000 		.4byte	.LASF143
ARM GAS  /tmp/cccegR9C.s 			page 39


 2157 08ff 01       		.byte	0x1
 2158 0900 D1       		.byte	0xd1
 2159 0901 00000000 		.4byte	.LFB262
 2160 0905 20000000 		.4byte	.LFE262-.LFB262
 2161 0909 01       		.uleb128 0x1
 2162 090a 9C       		.byte	0x9c
 2163 090b 6C090000 		.4byte	0x96c
 2164 090f 2B       		.uleb128 0x2b
 2165 0910 6C656400 		.ascii	"led\000"
 2166 0914 01       		.byte	0x1
 2167 0915 D1       		.byte	0xd1
 2168 0916 A2000000 		.4byte	0xa2
 2169 091a 26000000 		.4byte	.LLST2
 2170 091e 2C       		.uleb128 0x2c
 2171 091f 84040000 		.4byte	.LASF139
 2172 0923 01       		.byte	0x1
 2173 0924 D1       		.byte	0xd1
 2174 0925 CA000000 		.4byte	0xca
 2175 0929 93000000 		.4byte	.LLST3
 2176 092d 2D       		.uleb128 0x2d
 2177 092e 10000000 		.4byte	.LVL8
 2178 0932 A6110000 		.4byte	0x11a6
 2179 0936 4B090000 		.4byte	0x94b
 2180 093a 2A       		.uleb128 0x2a
 2181 093b 01       		.uleb128 0x1
 2182 093c 51       		.byte	0x51
 2183 093d 03       		.uleb128 0x3
 2184 093e F3       		.byte	0xf3
 2185 093f 01       		.uleb128 0x1
 2186 0940 51       		.byte	0x51
 2187 0941 2A       		.uleb128 0x2a
 2188 0942 01       		.uleb128 0x1
 2189 0943 50       		.byte	0x50
 2190 0944 05       		.uleb128 0x5
 2191 0945 F3       		.byte	0xf3
 2192 0946 01       		.uleb128 0x1
 2193 0947 50       		.byte	0x50
 2194 0948 23       		.byte	0x23
 2195 0949 0E       		.uleb128 0xe
 2196 094a 00       		.byte	0
 2197 094b 2D       		.uleb128 0x2d
 2198 094c 16000000 		.4byte	.LVL10
 2199 0950 A6110000 		.4byte	0x11a6
 2200 0954 62090000 		.4byte	0x962
 2201 0958 2A       		.uleb128 0x2a
 2202 0959 01       		.uleb128 0x1
 2203 095a 50       		.byte	0x50
 2204 095b 05       		.uleb128 0x5
 2205 095c F3       		.byte	0xf3
 2206 095d 01       		.uleb128 0x1
 2207 095e 50       		.byte	0x50
 2208 095f 3E       		.byte	0x3e
 2209 0960 1C       		.byte	0x1c
 2210 0961 00       		.byte	0
 2211 0962 2E       		.uleb128 0x2e
 2212 0963 1A000000 		.4byte	.LVL11
 2213 0967 A6110000 		.4byte	0x11a6
ARM GAS  /tmp/cccegR9C.s 			page 40


 2214 096b 00       		.byte	0
 2215 096c 25       		.uleb128 0x25
 2216 096d D1070000 		.4byte	.LASF144
 2217 0971 01       		.byte	0x1
 2218 0972 38       		.byte	0x38
 2219 0973 00000000 		.4byte	.LFB259
 2220 0977 9A030000 		.4byte	.LFE259-.LFB259
 2221 097b 01       		.uleb128 0x1
 2222 097c 9C       		.byte	0x9c
 2223 097d 80100000 		.4byte	0x1080
 2224 0981 2B       		.uleb128 0x2b
 2225 0982 61726700 		.ascii	"arg\000"
 2226 0986 01       		.byte	0x1
 2227 0987 38       		.byte	0x38
 2228 0988 56030000 		.4byte	0x356
 2229 098c E6000000 		.4byte	.LLST4
 2230 0990 27       		.uleb128 0x27
 2231 0991 BB030000 		.4byte	.LASF145
 2232 0995 01       		.byte	0x1
 2233 0996 3C       		.byte	0x3c
 2234 0997 25000000 		.4byte	0x25
 2235 099b 07010000 		.4byte	.LLST5
 2236 099f 2F       		.uleb128 0x2f
 2237 09a0 38080000 		.4byte	0x838
 2238 09a4 04000000 		.4byte	.LBB110
 2239 09a8 00000000 		.4byte	.Ldebug_ranges0+0
 2240 09ac 01       		.byte	0x1
 2241 09ad 3A       		.byte	0x3a
 2242 09ae BF090000 		.4byte	0x9bf
 2243 09b2 30       		.uleb128 0x30
 2244 09b3 44080000 		.4byte	0x844
 2245 09b7 06       		.uleb128 0x6
 2246 09b8 03       		.byte	0x3
 2247 09b9 00000000 		.4byte	.LC0
 2248 09bd 9F       		.byte	0x9f
 2249 09be 00       		.byte	0
 2250 09bf 31       		.uleb128 0x31
 2251 09c0 18000000 		.4byte	.Ldebug_ranges0+0x18
 2252 09c4 27       		.uleb128 0x27
 2253 09c5 53010000 		.4byte	.LASF146
 2254 09c9 01       		.byte	0x1
 2255 09ca 3F       		.byte	0x3f
 2256 09cb 6F070000 		.4byte	0x76f
 2257 09cf 2B010000 		.4byte	.LLST6
 2258 09d3 32       		.uleb128 0x32
 2259 09d4 30000000 		.4byte	.Ldebug_ranges0+0x30
 2260 09d8 DC0E0000 		.4byte	0xedc
 2261 09dc 23       		.uleb128 0x23
 2262 09dd C7040000 		.4byte	.LASF147
 2263 09e1 01       		.byte	0x1
 2264 09e2 53       		.byte	0x53
 2265 09e3 CA000000 		.4byte	0xca
 2266 09e7 27       		.uleb128 0x27
 2267 09e8 63080000 		.4byte	.LASF148
 2268 09ec 01       		.byte	0x1
 2269 09ed 54       		.byte	0x54
 2270 09ee BB070000 		.4byte	0x7bb
ARM GAS  /tmp/cccegR9C.s 			page 41


 2271 09f2 8B010000 		.4byte	.LLST7
 2272 09f6 33       		.uleb128 0x33
 2273 09f7 01050000 		.4byte	.LASF149
 2274 09fb 01       		.byte	0x1
 2275 09fc 55       		.byte	0x55
 2276 09fd 7A070000 		.4byte	0x77a
 2277 0a01 01       		.uleb128 0x1
 2278 0a02 55       		.byte	0x55
 2279 0a03 34       		.uleb128 0x34
 2280 0a04 DE000000 		.4byte	.LBB115
 2281 0a08 26000000 		.4byte	.LBE115-.LBB115
 2282 0a0c 4B0A0000 		.4byte	0xa4b
 2283 0a10 26       		.uleb128 0x26
 2284 0a11 6900     		.ascii	"i\000"
 2285 0a13 01       		.byte	0x1
 2286 0a14 86       		.byte	0x86
 2287 0a15 A2000000 		.4byte	0xa2
 2288 0a19 D5010000 		.4byte	.LLST8
 2289 0a1d 35       		.uleb128 0x35
 2290 0a1e F2000000 		.4byte	.LVL38
 2291 0a22 FA080000 		.4byte	0x8fa
 2292 0a26 310A0000 		.4byte	0xa31
 2293 0a2a 2A       		.uleb128 0x2a
 2294 0a2b 01       		.uleb128 0x1
 2295 0a2c 50       		.byte	0x50
 2296 0a2d 02       		.uleb128 0x2
 2297 0a2e 76       		.byte	0x76
 2298 0a2f 00       		.sleb128 0
 2299 0a30 00       		.byte	0
 2300 0a31 29       		.uleb128 0x29
 2301 0a32 00010000 		.4byte	.LVL40
 2302 0a36 FA080000 		.4byte	0x8fa
 2303 0a3a 2A       		.uleb128 0x2a
 2304 0a3b 01       		.uleb128 0x1
 2305 0a3c 51       		.byte	0x51
 2306 0a3d 05       		.uleb128 0x5
 2307 0a3e 0C       		.byte	0xc
 2308 0a3f FFFFFF00 		.4byte	0xffffff
 2309 0a43 2A       		.uleb128 0x2a
 2310 0a44 01       		.uleb128 0x1
 2311 0a45 50       		.byte	0x50
 2312 0a46 02       		.uleb128 0x2
 2313 0a47 76       		.byte	0x76
 2314 0a48 0D       		.sleb128 13
 2315 0a49 00       		.byte	0
 2316 0a4a 00       		.byte	0
 2317 0a4b 2F       		.uleb128 0x2f
 2318 0a4c 50080000 		.4byte	0x850
 2319 0a50 14010000 		.4byte	.LBB116
 2320 0a54 68000000 		.4byte	.Ldebug_ranges0+0x68
 2321 0a58 01       		.byte	0x1
 2322 0a59 90       		.byte	0x90
 2323 0a5a 020B0000 		.4byte	0xb02
 2324 0a5e 31       		.uleb128 0x31
 2325 0a5f 68000000 		.4byte	.Ldebug_ranges0+0x68
 2326 0a63 36       		.uleb128 0x36
 2327 0a64 60080000 		.4byte	0x860
ARM GAS  /tmp/cccegR9C.s 			page 42


 2328 0a68 2F       		.uleb128 0x2f
 2329 0a69 F3070000 		.4byte	0x7f3
 2330 0a6d 14010000 		.4byte	.LBB118
 2331 0a71 80000000 		.4byte	.Ldebug_ranges0+0x80
 2332 0a75 04       		.byte	0x4
 2333 0a76 FA       		.byte	0xfa
 2334 0a77 A70A0000 		.4byte	0xaa7
 2335 0a7b 37       		.uleb128 0x37
 2336 0a7c E1070000 		.4byte	0x7e1
 2337 0a80 14010000 		.4byte	.LBB119
 2338 0a84 80000000 		.4byte	.Ldebug_ranges0+0x80
 2339 0a88 12       		.byte	0x12
 2340 0a89 5C01     		.2byte	0x15c
 2341 0a8b 37       		.uleb128 0x37
 2342 0a8c C7070000 		.4byte	0x7c7
 2343 0a90 14010000 		.4byte	.LBB120
 2344 0a94 80000000 		.4byte	.Ldebug_ranges0+0x80
 2345 0a98 0C       		.byte	0xc
 2346 0a99 BF01     		.2byte	0x1bf
 2347 0a9b 38       		.uleb128 0x38
 2348 0a9c D4070000 		.4byte	0x7d4
 2349 0aa0 00020000 		.4byte	.LLST9
 2350 0aa4 00       		.byte	0
 2351 0aa5 00       		.byte	0
 2352 0aa6 00       		.byte	0
 2353 0aa7 39       		.uleb128 0x39
 2354 0aa8 FC070000 		.4byte	0x7fc
 2355 0aac 44010000 		.4byte	.LBB126
 2356 0ab0 04000000 		.4byte	.LBE126-.LBB126
 2357 0ab4 04       		.byte	0x4
 2358 0ab5 FB       		.byte	0xfb
 2359 0ab6 3A       		.uleb128 0x3a
 2360 0ab7 08080000 		.4byte	0x808
 2361 0abb 48010000 		.4byte	.LBB128
 2362 0abf 04000000 		.4byte	.LBE128-.LBB128
 2363 0ac3 04       		.byte	0x4
 2364 0ac4 FC       		.byte	0xfc
 2365 0ac5 3B       		.uleb128 0x3b
 2366 0ac6 48010000 		.4byte	.LBB129
 2367 0aca 04000000 		.4byte	.LBE129-.LBB129
 2368 0ace 36       		.uleb128 0x36
 2369 0acf 15080000 		.4byte	0x815
 2370 0ad3 3C       		.uleb128 0x3c
 2371 0ad4 EA070000 		.4byte	0x7ea
 2372 0ad8 48010000 		.4byte	.LBB130
 2373 0adc 04000000 		.4byte	.LBE130-.LBB130
 2374 0ae0 12       		.byte	0x12
 2375 0ae1 7301     		.2byte	0x173
 2376 0ae3 3C       		.uleb128 0x3c
 2377 0ae4 C7070000 		.4byte	0x7c7
 2378 0ae8 48010000 		.4byte	.LBB131
 2379 0aec 04000000 		.4byte	.LBE131-.LBB131
 2380 0af0 0C       		.byte	0xc
 2381 0af1 CD01     		.2byte	0x1cd
 2382 0af3 38       		.uleb128 0x38
 2383 0af4 D4070000 		.4byte	0x7d4
 2384 0af8 22020000 		.4byte	.LLST10
ARM GAS  /tmp/cccegR9C.s 			page 43


 2385 0afc 00       		.byte	0
 2386 0afd 00       		.byte	0
 2387 0afe 00       		.byte	0
 2388 0aff 00       		.byte	0
 2389 0b00 00       		.byte	0
 2390 0b01 00       		.byte	0
 2391 0b02 34       		.uleb128 0x34
 2392 0b03 70010000 		.4byte	.LBB135
 2393 0b07 26000000 		.4byte	.LBE135-.LBB135
 2394 0b0b 4A0B0000 		.4byte	0xb4a
 2395 0b0f 26       		.uleb128 0x26
 2396 0b10 6900     		.ascii	"i\000"
 2397 0b12 01       		.byte	0x1
 2398 0b13 6F       		.byte	0x6f
 2399 0b14 A2000000 		.4byte	0xa2
 2400 0b18 42020000 		.4byte	.LLST11
 2401 0b1c 35       		.uleb128 0x35
 2402 0b1d 84010000 		.4byte	.LVL54
 2403 0b21 FA080000 		.4byte	0x8fa
 2404 0b25 300B0000 		.4byte	0xb30
 2405 0b29 2A       		.uleb128 0x2a
 2406 0b2a 01       		.uleb128 0x1
 2407 0b2b 50       		.byte	0x50
 2408 0b2c 02       		.uleb128 0x2
 2409 0b2d 76       		.byte	0x76
 2410 0b2e 00       		.sleb128 0
 2411 0b2f 00       		.byte	0
 2412 0b30 29       		.uleb128 0x29
 2413 0b31 92010000 		.4byte	.LVL56
 2414 0b35 FA080000 		.4byte	0x8fa
 2415 0b39 2A       		.uleb128 0x2a
 2416 0b3a 01       		.uleb128 0x1
 2417 0b3b 51       		.byte	0x51
 2418 0b3c 05       		.uleb128 0x5
 2419 0b3d 0C       		.byte	0xc
 2420 0b3e FFFFFF00 		.4byte	0xffffff
 2421 0b42 2A       		.uleb128 0x2a
 2422 0b43 01       		.uleb128 0x1
 2423 0b44 50       		.byte	0x50
 2424 0b45 02       		.uleb128 0x2
 2425 0b46 76       		.byte	0x76
 2426 0b47 0D       		.sleb128 13
 2427 0b48 00       		.byte	0
 2428 0b49 00       		.byte	0
 2429 0b4a 2F       		.uleb128 0x2f
 2430 0b4b 50080000 		.4byte	0x850
 2431 0b4f A6010000 		.4byte	.LBB136
 2432 0b53 98000000 		.4byte	.Ldebug_ranges0+0x98
 2433 0b57 01       		.byte	0x1
 2434 0b58 79       		.byte	0x79
 2435 0b59 010C0000 		.4byte	0xc01
 2436 0b5d 31       		.uleb128 0x31
 2437 0b5e 98000000 		.4byte	.Ldebug_ranges0+0x98
 2438 0b62 36       		.uleb128 0x36
 2439 0b63 60080000 		.4byte	0x860
 2440 0b67 2F       		.uleb128 0x2f
 2441 0b68 F3070000 		.4byte	0x7f3
ARM GAS  /tmp/cccegR9C.s 			page 44


 2442 0b6c A6010000 		.4byte	.LBB138
 2443 0b70 B0000000 		.4byte	.Ldebug_ranges0+0xb0
 2444 0b74 04       		.byte	0x4
 2445 0b75 FA       		.byte	0xfa
 2446 0b76 A60B0000 		.4byte	0xba6
 2447 0b7a 37       		.uleb128 0x37
 2448 0b7b E1070000 		.4byte	0x7e1
 2449 0b7f A6010000 		.4byte	.LBB139
 2450 0b83 B0000000 		.4byte	.Ldebug_ranges0+0xb0
 2451 0b87 12       		.byte	0x12
 2452 0b88 5C01     		.2byte	0x15c
 2453 0b8a 37       		.uleb128 0x37
 2454 0b8b C7070000 		.4byte	0x7c7
 2455 0b8f A6010000 		.4byte	.LBB140
 2456 0b93 B0000000 		.4byte	.Ldebug_ranges0+0xb0
 2457 0b97 0C       		.byte	0xc
 2458 0b98 BF01     		.2byte	0x1bf
 2459 0b9a 38       		.uleb128 0x38
 2460 0b9b D4070000 		.4byte	0x7d4
 2461 0b9f 6D020000 		.4byte	.LLST12
 2462 0ba3 00       		.byte	0
 2463 0ba4 00       		.byte	0
 2464 0ba5 00       		.byte	0
 2465 0ba6 39       		.uleb128 0x39
 2466 0ba7 FC070000 		.4byte	0x7fc
 2467 0bab DC010000 		.4byte	.LBB146
 2468 0baf 04000000 		.4byte	.LBE146-.LBB146
 2469 0bb3 04       		.byte	0x4
 2470 0bb4 FB       		.byte	0xfb
 2471 0bb5 3A       		.uleb128 0x3a
 2472 0bb6 08080000 		.4byte	0x808
 2473 0bba E0010000 		.4byte	.LBB148
 2474 0bbe 04000000 		.4byte	.LBE148-.LBB148
 2475 0bc2 04       		.byte	0x4
 2476 0bc3 FC       		.byte	0xfc
 2477 0bc4 3B       		.uleb128 0x3b
 2478 0bc5 E0010000 		.4byte	.LBB149
 2479 0bc9 04000000 		.4byte	.LBE149-.LBB149
 2480 0bcd 36       		.uleb128 0x36
 2481 0bce 15080000 		.4byte	0x815
 2482 0bd2 3C       		.uleb128 0x3c
 2483 0bd3 EA070000 		.4byte	0x7ea
 2484 0bd7 E0010000 		.4byte	.LBB150
 2485 0bdb 04000000 		.4byte	.LBE150-.LBB150
 2486 0bdf 12       		.byte	0x12
 2487 0be0 7301     		.2byte	0x173
 2488 0be2 3C       		.uleb128 0x3c
 2489 0be3 C7070000 		.4byte	0x7c7
 2490 0be7 E0010000 		.4byte	.LBB151
 2491 0beb 04000000 		.4byte	.LBE151-.LBB151
 2492 0bef 0C       		.byte	0xc
 2493 0bf0 CD01     		.2byte	0x1cd
 2494 0bf2 38       		.uleb128 0x38
 2495 0bf3 D4070000 		.4byte	0x7d4
 2496 0bf7 8F020000 		.4byte	.LLST13
 2497 0bfb 00       		.byte	0
 2498 0bfc 00       		.byte	0
ARM GAS  /tmp/cccegR9C.s 			page 45


 2499 0bfd 00       		.byte	0
 2500 0bfe 00       		.byte	0
 2501 0bff 00       		.byte	0
 2502 0c00 00       		.byte	0
 2503 0c01 34       		.uleb128 0x34
 2504 0c02 0A020000 		.4byte	.LBB155
 2505 0c06 1C000000 		.4byte	.LBE155-.LBB155
 2506 0c0a 510C0000 		.4byte	0xc51
 2507 0c0e 26       		.uleb128 0x26
 2508 0c0f 6900     		.ascii	"i\000"
 2509 0c11 01       		.byte	0x1
 2510 0c12 66       		.byte	0x66
 2511 0c13 A2000000 		.4byte	0xa2
 2512 0c17 AF020000 		.4byte	.LLST14
 2513 0c1b 35       		.uleb128 0x35
 2514 0c1c 14020000 		.4byte	.LVL70
 2515 0c20 FA080000 		.4byte	0x8fa
 2516 0c24 370C0000 		.4byte	0xc37
 2517 0c28 2A       		.uleb128 0x2a
 2518 0c29 01       		.uleb128 0x1
 2519 0c2a 51       		.byte	0x51
 2520 0c2b 04       		.uleb128 0x4
 2521 0c2c 08       		.byte	0x8
 2522 0c2d FF       		.byte	0xff
 2523 0c2e 40       		.byte	0x40
 2524 0c2f 24       		.byte	0x24
 2525 0c30 2A       		.uleb128 0x2a
 2526 0c31 01       		.uleb128 0x1
 2527 0c32 50       		.byte	0x50
 2528 0c33 02       		.uleb128 0x2
 2529 0c34 74       		.byte	0x74
 2530 0c35 00       		.sleb128 0
 2531 0c36 00       		.byte	0
 2532 0c37 29       		.uleb128 0x29
 2533 0c38 22020000 		.4byte	.LVL72
 2534 0c3c FA080000 		.4byte	0x8fa
 2535 0c40 2A       		.uleb128 0x2a
 2536 0c41 01       		.uleb128 0x1
 2537 0c42 51       		.byte	0x51
 2538 0c43 05       		.uleb128 0x5
 2539 0c44 0C       		.byte	0xc
 2540 0c45 FFFFFF00 		.4byte	0xffffff
 2541 0c49 2A       		.uleb128 0x2a
 2542 0c4a 01       		.uleb128 0x1
 2543 0c4b 50       		.byte	0x50
 2544 0c4c 02       		.uleb128 0x2
 2545 0c4d 74       		.byte	0x74
 2546 0c4e 0D       		.sleb128 13
 2547 0c4f 00       		.byte	0
 2548 0c50 00       		.byte	0
 2549 0c51 34       		.uleb128 0x34
 2550 0c52 34020000 		.4byte	.LBB156
 2551 0c56 1C000000 		.4byte	.LBE156-.LBB156
 2552 0c5a A10C0000 		.4byte	0xca1
 2553 0c5e 26       		.uleb128 0x26
 2554 0c5f 6900     		.ascii	"i\000"
 2555 0c61 01       		.byte	0x1
ARM GAS  /tmp/cccegR9C.s 			page 46


 2556 0c62 5E       		.byte	0x5e
 2557 0c63 A2000000 		.4byte	0xa2
 2558 0c67 DA020000 		.4byte	.LLST15
 2559 0c6b 35       		.uleb128 0x35
 2560 0c6c 3E020000 		.4byte	.LVL77
 2561 0c70 FA080000 		.4byte	0x8fa
 2562 0c74 870C0000 		.4byte	0xc87
 2563 0c78 2A       		.uleb128 0x2a
 2564 0c79 01       		.uleb128 0x1
 2565 0c7a 51       		.byte	0x51
 2566 0c7b 04       		.uleb128 0x4
 2567 0c7c 08       		.byte	0x8
 2568 0c7d FE       		.byte	0xfe
 2569 0c7e 3F       		.byte	0x3f
 2570 0c7f 24       		.byte	0x24
 2571 0c80 2A       		.uleb128 0x2a
 2572 0c81 01       		.uleb128 0x1
 2573 0c82 50       		.byte	0x50
 2574 0c83 02       		.uleb128 0x2
 2575 0c84 74       		.byte	0x74
 2576 0c85 00       		.sleb128 0
 2577 0c86 00       		.byte	0
 2578 0c87 29       		.uleb128 0x29
 2579 0c88 4C020000 		.4byte	.LVL79
 2580 0c8c FA080000 		.4byte	0x8fa
 2581 0c90 2A       		.uleb128 0x2a
 2582 0c91 01       		.uleb128 0x1
 2583 0c92 51       		.byte	0x51
 2584 0c93 05       		.uleb128 0x5
 2585 0c94 0C       		.byte	0xc
 2586 0c95 FFFFFF00 		.4byte	0xffffff
 2587 0c99 2A       		.uleb128 0x2a
 2588 0c9a 01       		.uleb128 0x1
 2589 0c9b 50       		.byte	0x50
 2590 0c9c 02       		.uleb128 0x2
 2591 0c9d 74       		.byte	0x74
 2592 0c9e 0D       		.sleb128 13
 2593 0c9f 00       		.byte	0
 2594 0ca0 00       		.byte	0
 2595 0ca1 32       		.uleb128 0x32
 2596 0ca2 C8000000 		.4byte	.Ldebug_ranges0+0xc8
 2597 0ca6 7C0D0000 		.4byte	0xd7c
 2598 0caa 26       		.uleb128 0x26
 2599 0cab 6900     		.ascii	"i\000"
 2600 0cad 01       		.byte	0x1
 2601 0cae 9E       		.byte	0x9e
 2602 0caf A2000000 		.4byte	0xa2
 2603 0cb3 05030000 		.4byte	.LLST16
 2604 0cb7 35       		.uleb128 0x35
 2605 0cb8 D2020000 		.4byte	.LVL91
 2606 0cbc FA080000 		.4byte	0x8fa
 2607 0cc0 CE0C0000 		.4byte	0xcce
 2608 0cc4 2A       		.uleb128 0x2a
 2609 0cc5 01       		.uleb128 0x1
 2610 0cc6 51       		.byte	0x51
 2611 0cc7 05       		.uleb128 0x5
 2612 0cc8 0C       		.byte	0xc
ARM GAS  /tmp/cccegR9C.s 			page 47


 2613 0cc9 00FFFF00 		.4byte	0xffff00
 2614 0ccd 00       		.byte	0
 2615 0cce 35       		.uleb128 0x35
 2616 0ccf DA020000 		.4byte	.LVL92
 2617 0cd3 FA080000 		.4byte	0x8fa
 2618 0cd7 EB0C0000 		.4byte	0xceb
 2619 0cdb 2A       		.uleb128 0x2a
 2620 0cdc 01       		.uleb128 0x1
 2621 0cdd 51       		.byte	0x51
 2622 0cde 05       		.uleb128 0x5
 2623 0cdf 0C       		.byte	0xc
 2624 0ce0 00FFFF00 		.4byte	0xffff00
 2625 0ce4 2A       		.uleb128 0x2a
 2626 0ce5 01       		.uleb128 0x1
 2627 0ce6 50       		.byte	0x50
 2628 0ce7 02       		.uleb128 0x2
 2629 0ce8 74       		.byte	0x74
 2630 0ce9 00       		.sleb128 0
 2631 0cea 00       		.byte	0
 2632 0ceb 35       		.uleb128 0x35
 2633 0cec 02030000 		.4byte	.LVL95
 2634 0cf0 FA080000 		.4byte	0x8fa
 2635 0cf4 040D0000 		.4byte	0xd04
 2636 0cf8 2A       		.uleb128 0x2a
 2637 0cf9 01       		.uleb128 0x1
 2638 0cfa 51       		.byte	0x51
 2639 0cfb 01       		.uleb128 0x1
 2640 0cfc 30       		.byte	0x30
 2641 0cfd 2A       		.uleb128 0x2a
 2642 0cfe 01       		.uleb128 0x1
 2643 0cff 50       		.byte	0x50
 2644 0d00 02       		.uleb128 0x2
 2645 0d01 7B       		.byte	0x7b
 2646 0d02 00       		.sleb128 0
 2647 0d03 00       		.byte	0
 2648 0d04 35       		.uleb128 0x35
 2649 0d05 0E030000 		.4byte	.LVL97
 2650 0d09 FA080000 		.4byte	0x8fa
 2651 0d0d 1D0D0000 		.4byte	0xd1d
 2652 0d11 2A       		.uleb128 0x2a
 2653 0d12 01       		.uleb128 0x1
 2654 0d13 51       		.byte	0x51
 2655 0d14 01       		.uleb128 0x1
 2656 0d15 30       		.byte	0x30
 2657 0d16 2A       		.uleb128 0x2a
 2658 0d17 01       		.uleb128 0x1
 2659 0d18 50       		.byte	0x50
 2660 0d19 02       		.uleb128 0x2
 2661 0d1a 74       		.byte	0x74
 2662 0d1b 00       		.sleb128 0
 2663 0d1c 00       		.byte	0
 2664 0d1d 35       		.uleb128 0x35
 2665 0d1e 6C030000 		.4byte	.LVL101
 2666 0d22 FA080000 		.4byte	0x8fa
 2667 0d26 320D0000 		.4byte	0xd32
 2668 0d2a 2A       		.uleb128 0x2a
 2669 0d2b 01       		.uleb128 0x1
ARM GAS  /tmp/cccegR9C.s 			page 48


 2670 0d2c 51       		.byte	0x51
 2671 0d2d 03       		.uleb128 0x3
 2672 0d2e 0A       		.byte	0xa
 2673 0d2f 00FF     		.2byte	0xff00
 2674 0d31 00       		.byte	0
 2675 0d32 35       		.uleb128 0x35
 2676 0d33 76030000 		.4byte	.LVL102
 2677 0d37 FA080000 		.4byte	0x8fa
 2678 0d3b 4D0D0000 		.4byte	0xd4d
 2679 0d3f 2A       		.uleb128 0x2a
 2680 0d40 01       		.uleb128 0x1
 2681 0d41 51       		.byte	0x51
 2682 0d42 03       		.uleb128 0x3
 2683 0d43 0A       		.byte	0xa
 2684 0d44 00FF     		.2byte	0xff00
 2685 0d46 2A       		.uleb128 0x2a
 2686 0d47 01       		.uleb128 0x1
 2687 0d48 50       		.byte	0x50
 2688 0d49 02       		.uleb128 0x2
 2689 0d4a 74       		.byte	0x74
 2690 0d4b 00       		.sleb128 0
 2691 0d4c 00       		.byte	0
 2692 0d4d 35       		.uleb128 0x35
 2693 0d4e 80030000 		.4byte	.LVL104
 2694 0d52 FA080000 		.4byte	0x8fa
 2695 0d56 630D0000 		.4byte	0xd63
 2696 0d5a 2A       		.uleb128 0x2a
 2697 0d5b 01       		.uleb128 0x1
 2698 0d5c 51       		.byte	0x51
 2699 0d5d 04       		.uleb128 0x4
 2700 0d5e 08       		.byte	0x8
 2701 0d5f FF       		.byte	0xff
 2702 0d60 40       		.byte	0x40
 2703 0d61 24       		.byte	0x24
 2704 0d62 00       		.byte	0
 2705 0d63 29       		.uleb128 0x29
 2706 0d64 8A030000 		.4byte	.LVL105
 2707 0d68 FA080000 		.4byte	0x8fa
 2708 0d6c 2A       		.uleb128 0x2a
 2709 0d6d 01       		.uleb128 0x1
 2710 0d6e 51       		.byte	0x51
 2711 0d6f 04       		.uleb128 0x4
 2712 0d70 08       		.byte	0x8
 2713 0d71 FF       		.byte	0xff
 2714 0d72 40       		.byte	0x40
 2715 0d73 24       		.byte	0x24
 2716 0d74 2A       		.uleb128 0x2a
 2717 0d75 01       		.uleb128 0x1
 2718 0d76 50       		.byte	0x50
 2719 0d77 02       		.uleb128 0x2
 2720 0d78 74       		.byte	0x74
 2721 0d79 00       		.sleb128 0
 2722 0d7a 00       		.byte	0
 2723 0d7b 00       		.byte	0
 2724 0d7c 28       		.uleb128 0x28
 2725 0d7d 1C010000 		.4byte	.LVL44
 2726 0d81 FA080000 		.4byte	0x8fa
ARM GAS  /tmp/cccegR9C.s 			page 49


 2727 0d85 35       		.uleb128 0x35
 2728 0d86 24010000 		.4byte	.LVL45
 2729 0d8a FA080000 		.4byte	0x8fa
 2730 0d8e A10D0000 		.4byte	0xda1
 2731 0d92 2A       		.uleb128 0x2a
 2732 0d93 01       		.uleb128 0x1
 2733 0d94 51       		.byte	0x51
 2734 0d95 05       		.uleb128 0x5
 2735 0d96 0C       		.byte	0xc
 2736 0d97 00A5FF00 		.4byte	0xffa500
 2737 0d9b 2A       		.uleb128 0x2a
 2738 0d9c 01       		.uleb128 0x1
 2739 0d9d 50       		.byte	0x50
 2740 0d9e 01       		.uleb128 0x1
 2741 0d9f 4B       		.byte	0x4b
 2742 0da0 00       		.byte	0
 2743 0da1 35       		.uleb128 0x35
 2744 0da2 2A010000 		.4byte	.LVL46
 2745 0da6 95110000 		.4byte	0x1195
 2746 0daa B50D0000 		.4byte	0xdb5
 2747 0dae 2A       		.uleb128 0x2a
 2748 0daf 01       		.uleb128 0x1
 2749 0db0 50       		.byte	0x50
 2750 0db1 02       		.uleb128 0x2
 2751 0db2 08       		.byte	0x8
 2752 0db3 64       		.byte	0x64
 2753 0db4 00       		.byte	0
 2754 0db5 28       		.uleb128 0x28
 2755 0db6 3C010000 		.4byte	.LVL48
 2756 0dba 8A110000 		.4byte	0x118a
 2757 0dbe 28       		.uleb128 0x28
 2758 0dbf 62010000 		.4byte	.LVL50
 2759 0dc3 FA080000 		.4byte	0x8fa
 2760 0dc7 35       		.uleb128 0x35
 2761 0dc8 6C010000 		.4byte	.LVL51
 2762 0dcc FA080000 		.4byte	0x8fa
 2763 0dd0 DA0D0000 		.4byte	0xdda
 2764 0dd4 2A       		.uleb128 0x2a
 2765 0dd5 01       		.uleb128 0x1
 2766 0dd6 50       		.byte	0x50
 2767 0dd7 01       		.uleb128 0x1
 2768 0dd8 4B       		.byte	0x4b
 2769 0dd9 00       		.byte	0
 2770 0dda 28       		.uleb128 0x28
 2771 0ddb AE010000 		.4byte	.LVL60
 2772 0ddf FA080000 		.4byte	0x8fa
 2773 0de3 35       		.uleb128 0x35
 2774 0de4 B6010000 		.4byte	.LVL61
 2775 0de8 FA080000 		.4byte	0x8fa
 2776 0dec FF0D0000 		.4byte	0xdff
 2777 0df0 2A       		.uleb128 0x2a
 2778 0df1 01       		.uleb128 0x1
 2779 0df2 51       		.byte	0x51
 2780 0df3 05       		.uleb128 0x5
 2781 0df4 0C       		.byte	0xc
 2782 0df5 00A5FF00 		.4byte	0xffa500
 2783 0df9 2A       		.uleb128 0x2a
ARM GAS  /tmp/cccegR9C.s 			page 50


 2784 0dfa 01       		.uleb128 0x1
 2785 0dfb 50       		.byte	0x50
 2786 0dfc 01       		.uleb128 0x1
 2787 0dfd 3E       		.byte	0x3e
 2788 0dfe 00       		.byte	0
 2789 0dff 35       		.uleb128 0x35
 2790 0e00 BC010000 		.4byte	.LVL62
 2791 0e04 95110000 		.4byte	0x1195
 2792 0e08 130E0000 		.4byte	0xe13
 2793 0e0c 2A       		.uleb128 0x2a
 2794 0e0d 01       		.uleb128 0x1
 2795 0e0e 50       		.byte	0x50
 2796 0e0f 02       		.uleb128 0x2
 2797 0e10 08       		.byte	0x8
 2798 0e11 64       		.byte	0x64
 2799 0e12 00       		.byte	0
 2800 0e13 28       		.uleb128 0x28
 2801 0e14 D2010000 		.4byte	.LVL64
 2802 0e18 8A110000 		.4byte	0x118a
 2803 0e1c 35       		.uleb128 0x35
 2804 0e1d FC010000 		.4byte	.LVL66
 2805 0e21 FA080000 		.4byte	0x8fa
 2806 0e25 2F0E0000 		.4byte	0xe2f
 2807 0e29 2A       		.uleb128 0x2a
 2808 0e2a 01       		.uleb128 0x1
 2809 0e2b 50       		.byte	0x50
 2810 0e2c 01       		.uleb128 0x1
 2811 0e2d 3D       		.byte	0x3d
 2812 0e2e 00       		.byte	0
 2813 0e2f 35       		.uleb128 0x35
 2814 0e30 06020000 		.4byte	.LVL67
 2815 0e34 FA080000 		.4byte	0x8fa
 2816 0e38 420E0000 		.4byte	0xe42
 2817 0e3c 2A       		.uleb128 0x2a
 2818 0e3d 01       		.uleb128 0x1
 2819 0e3e 50       		.byte	0x50
 2820 0e3f 01       		.uleb128 0x1
 2821 0e40 3E       		.byte	0x3e
 2822 0e41 00       		.byte	0
 2823 0e42 28       		.uleb128 0x28
 2824 0e43 2A020000 		.4byte	.LVL73
 2825 0e47 AE080000 		.4byte	0x8ae
 2826 0e4b 28       		.uleb128 0x28
 2827 0e4c 54020000 		.4byte	.LVL80
 2828 0e50 AE080000 		.4byte	0x8ae
 2829 0e54 35       		.uleb128 0x35
 2830 0e55 5C020000 		.4byte	.LVL83
 2831 0e59 BC110000 		.4byte	0x11bc
 2832 0e5d 670E0000 		.4byte	0xe67
 2833 0e61 2A       		.uleb128 0x2a
 2834 0e62 01       		.uleb128 0x1
 2835 0e63 50       		.byte	0x50
 2836 0e64 01       		.uleb128 0x1
 2837 0e65 30       		.byte	0x30
 2838 0e66 00       		.byte	0
 2839 0e67 28       		.uleb128 0x28
 2840 0e68 60020000 		.4byte	.LVL84
ARM GAS  /tmp/cccegR9C.s 			page 51


 2841 0e6c AE080000 		.4byte	0x8ae
 2842 0e70 28       		.uleb128 0x28
 2843 0e71 80020000 		.4byte	.LVL88
 2844 0e75 8A110000 		.4byte	0x118a
 2845 0e79 35       		.uleb128 0x35
 2846 0e7a B2020000 		.4byte	.LVL89
 2847 0e7e CD110000 		.4byte	0x11cd
 2848 0e82 B70E0000 		.4byte	0xeb7
 2849 0e86 2A       		.uleb128 0x2a
 2850 0e87 02       		.uleb128 0x2
 2851 0e88 90       		.byte	0x90
 2852 0e89 44       		.uleb128 0x44
 2853 0e8a 07       		.uleb128 0x7
 2854 0e8b F4       		.byte	0xf4
 2855 0e8c 25       		.uleb128 0x25
 2856 0e8d 04       		.byte	0x4
 2857 0e8e 0000803F 		.4byte	0x3f800000
 2858 0e92 2A       		.uleb128 0x2a
 2859 0e93 02       		.uleb128 0x2
 2860 0e94 90       		.byte	0x90
 2861 0e95 43       		.uleb128 0x43
 2862 0e96 07       		.uleb128 0x7
 2863 0e97 F4       		.byte	0xf4
 2864 0e98 25       		.uleb128 0x25
 2865 0e99 04       		.byte	0x4
 2866 0e9a 00000000 		.4byte	0
 2867 0e9e 2A       		.uleb128 0x2a
 2868 0e9f 02       		.uleb128 0x2
 2869 0ea0 90       		.byte	0x90
 2870 0ea1 42       		.uleb128 0x42
 2871 0ea2 07       		.uleb128 0x7
 2872 0ea3 F4       		.byte	0xf4
 2873 0ea4 25       		.uleb128 0x25
 2874 0ea5 04       		.byte	0x4
 2875 0ea6 00000442 		.4byte	0x42040000
 2876 0eaa 2A       		.uleb128 0x2a
 2877 0eab 02       		.uleb128 0x2
 2878 0eac 90       		.byte	0x90
 2879 0ead 41       		.uleb128 0x41
 2880 0eae 07       		.uleb128 0x7
 2881 0eaf F4       		.byte	0xf4
 2882 0eb0 25       		.uleb128 0x25
 2883 0eb1 04       		.byte	0x4
 2884 0eb2 0000E041 		.4byte	0x41e00000
 2885 0eb6 00       		.byte	0
 2886 0eb7 35       		.uleb128 0x35
 2887 0eb8 1E030000 		.4byte	.LVL98
 2888 0ebc 95110000 		.4byte	0x1195
 2889 0ec0 CB0E0000 		.4byte	0xecb
 2890 0ec4 2A       		.uleb128 0x2a
 2891 0ec5 01       		.uleb128 0x1
 2892 0ec6 50       		.byte	0x50
 2893 0ec7 02       		.uleb128 0x2
 2894 0ec8 08       		.byte	0x8
 2895 0ec9 64       		.byte	0x64
 2896 0eca 00       		.byte	0
 2897 0ecb 29       		.uleb128 0x29
ARM GAS  /tmp/cccegR9C.s 			page 52


 2898 0ecc 92030000 		.4byte	.LVL108
 2899 0ed0 95110000 		.4byte	0x1195
 2900 0ed4 2A       		.uleb128 0x2a
 2901 0ed5 01       		.uleb128 0x1
 2902 0ed6 50       		.byte	0x50
 2903 0ed7 02       		.uleb128 0x2
 2904 0ed8 08       		.byte	0x8
 2905 0ed9 64       		.byte	0x64
 2906 0eda 00       		.byte	0
 2907 0edb 00       		.byte	0
 2908 0edc 34       		.uleb128 0x34
 2909 0edd 32000000 		.4byte	.LBB161
 2910 0ee1 7C000000 		.4byte	.LBE161-.LBB161
 2911 0ee5 11100000 		.4byte	0x1011
 2912 0ee9 27       		.uleb128 0x27
 2913 0eea 08000000 		.4byte	.LASF140
 2914 0eee 01       		.byte	0x1
 2915 0eef 49       		.byte	0x49
 2916 0ef0 25000000 		.4byte	0x25
 2917 0ef4 73030000 		.4byte	.LLST17
 2918 0ef8 34       		.uleb128 0x34
 2919 0ef9 38000000 		.4byte	.LBB162
 2920 0efd 1A000000 		.4byte	.LBE162-.LBB162
 2921 0f01 400F0000 		.4byte	0xf40
 2922 0f05 26       		.uleb128 0x26
 2923 0f06 6900     		.ascii	"i\000"
 2924 0f08 01       		.byte	0x1
 2925 0f09 42       		.byte	0x42
 2926 0f0a A2000000 		.4byte	0xa2
 2927 0f0e 97030000 		.4byte	.LLST18
 2928 0f12 35       		.uleb128 0x35
 2929 0f13 44000000 		.4byte	.LVL19
 2930 0f17 FA080000 		.4byte	0x8fa
 2931 0f1b 2E0F0000 		.4byte	0xf2e
 2932 0f1f 2A       		.uleb128 0x2a
 2933 0f20 01       		.uleb128 0x1
 2934 0f21 51       		.byte	0x51
 2935 0f22 04       		.uleb128 0x4
 2936 0f23 08       		.byte	0x8
 2937 0f24 FF       		.byte	0xff
 2938 0f25 40       		.byte	0x40
 2939 0f26 24       		.byte	0x24
 2940 0f27 2A       		.uleb128 0x2a
 2941 0f28 01       		.uleb128 0x1
 2942 0f29 50       		.byte	0x50
 2943 0f2a 02       		.uleb128 0x2
 2944 0f2b 74       		.byte	0x74
 2945 0f2c 00       		.sleb128 0
 2946 0f2d 00       		.byte	0
 2947 0f2e 29       		.uleb128 0x29
 2948 0f2f 4E000000 		.4byte	.LVL21
 2949 0f33 95110000 		.4byte	0x1195
 2950 0f37 2A       		.uleb128 0x2a
 2951 0f38 01       		.uleb128 0x1
 2952 0f39 50       		.byte	0x50
 2953 0f3a 03       		.uleb128 0x3
 2954 0f3b 0A       		.byte	0xa
ARM GAS  /tmp/cccegR9C.s 			page 53


 2955 0f3c D007     		.2byte	0x7d0
 2956 0f3e 00       		.byte	0
 2957 0f3f 00       		.byte	0
 2958 0f40 32       		.uleb128 0x32
 2959 0f41 E8000000 		.4byte	.Ldebug_ranges0+0xe8
 2960 0f45 EC0F0000 		.4byte	0xfec
 2961 0f49 26       		.uleb128 0x26
 2962 0f4a 6900     		.ascii	"i\000"
 2963 0f4c 01       		.byte	0x1
 2964 0f4d 4A       		.byte	0x4a
 2965 0f4e A2000000 		.4byte	0xa2
 2966 0f52 CE030000 		.4byte	.LLST19
 2967 0f56 31       		.uleb128 0x31
 2968 0f57 00010000 		.4byte	.Ldebug_ranges0+0x100
 2969 0f5b 23       		.uleb128 0x23
 2970 0f5c 84040000 		.4byte	.LASF139
 2971 0f60 01       		.byte	0x1
 2972 0f61 4C       		.byte	0x4c
 2973 0f62 CA000000 		.4byte	0xca
 2974 0f66 2F       		.uleb128 0x2f
 2975 0f67 6C080000 		.4byte	0x86c
 2976 0f6b 5E000000 		.4byte	.LBB165
 2977 0f6f 18010000 		.4byte	.Ldebug_ranges0+0x118
 2978 0f73 01       		.byte	0x1
 2979 0f74 4C       		.byte	0x4c
 2980 0f75 AD0F0000 		.4byte	0xfad
 2981 0f79 38       		.uleb128 0x38
 2982 0f7a 7C080000 		.4byte	0x87c
 2983 0f7e 12040000 		.4byte	.LLST20
 2984 0f82 38       		.uleb128 0x38
 2985 0f83 87080000 		.4byte	0x887
 2986 0f87 29040000 		.4byte	.LLST21
 2987 0f8b 31       		.uleb128 0x31
 2988 0f8c 18010000 		.4byte	.Ldebug_ranges0+0x118
 2989 0f90 3D       		.uleb128 0x3d
 2990 0f91 92080000 		.4byte	0x892
 2991 0f95 3D040000 		.4byte	.LLST22
 2992 0f99 3D       		.uleb128 0x3d
 2993 0f9a 9B080000 		.4byte	0x89b
 2994 0f9e 5D040000 		.4byte	.LLST23
 2995 0fa2 3D       		.uleb128 0x3d
 2996 0fa3 A4080000 		.4byte	0x8a4
 2997 0fa7 5D040000 		.4byte	.LLST23
 2998 0fab 00       		.byte	0
 2999 0fac 00       		.byte	0
 3000 0fad 32       		.uleb128 0x32
 3001 0fae 30010000 		.4byte	.Ldebug_ranges0+0x130
 3002 0fb2 DA0F0000 		.4byte	0xfda
 3003 0fb6 26       		.uleb128 0x26
 3004 0fb7 6900     		.ascii	"i\000"
 3005 0fb9 01       		.byte	0x1
 3006 0fba 4D       		.byte	0x4d
 3007 0fbb A2000000 		.4byte	0xa2
 3008 0fbf 92040000 		.4byte	.LLST25
 3009 0fc3 29       		.uleb128 0x29
 3010 0fc4 A0000000 		.4byte	.LVL28
 3011 0fc8 FA080000 		.4byte	0x8fa
ARM GAS  /tmp/cccegR9C.s 			page 54


 3012 0fcc 2A       		.uleb128 0x2a
 3013 0fcd 01       		.uleb128 0x1
 3014 0fce 51       		.byte	0x51
 3015 0fcf 02       		.uleb128 0x2
 3016 0fd0 74       		.byte	0x74
 3017 0fd1 00       		.sleb128 0
 3018 0fd2 2A       		.uleb128 0x2a
 3019 0fd3 01       		.uleb128 0x1
 3020 0fd4 50       		.byte	0x50
 3021 0fd5 02       		.uleb128 0x2
 3022 0fd6 7B       		.byte	0x7b
 3023 0fd7 7F       		.sleb128 -1
 3024 0fd8 00       		.byte	0
 3025 0fd9 00       		.byte	0
 3026 0fda 29       		.uleb128 0x29
 3027 0fdb AA000000 		.4byte	.LVL29
 3028 0fdf 95110000 		.4byte	0x1195
 3029 0fe3 2A       		.uleb128 0x2a
 3030 0fe4 01       		.uleb128 0x1
 3031 0fe5 50       		.byte	0x50
 3032 0fe6 02       		.uleb128 0x2
 3033 0fe7 08       		.byte	0x8
 3034 0fe8 64       		.byte	0x64
 3035 0fe9 00       		.byte	0
 3036 0fea 00       		.byte	0
 3037 0feb 00       		.byte	0
 3038 0fec 35       		.uleb128 0x35
 3039 0fed 38000000 		.4byte	.LVL17
 3040 0ff1 BC110000 		.4byte	0x11bc
 3041 0ff5 FF0F0000 		.4byte	0xfff
 3042 0ff9 2A       		.uleb128 0x2a
 3043 0ffa 01       		.uleb128 0x1
 3044 0ffb 50       		.byte	0x50
 3045 0ffc 01       		.uleb128 0x1
 3046 0ffd 30       		.byte	0x30
 3047 0ffe 00       		.byte	0
 3048 0fff 29       		.uleb128 0x29
 3049 1000 5A000000 		.4byte	.LVL22
 3050 1004 95110000 		.4byte	0x1195
 3051 1008 2A       		.uleb128 0x2a
 3052 1009 01       		.uleb128 0x1
 3053 100a 50       		.byte	0x50
 3054 100b 03       		.uleb128 0x3
 3055 100c 0A       		.byte	0xa
 3056 100d 1027     		.2byte	0x2710
 3057 100f 00       		.byte	0
 3058 1010 00       		.byte	0
 3059 1011 28       		.uleb128 0x28
 3060 1012 24000000 		.4byte	.LVL14
 3061 1016 8A110000 		.4byte	0x118a
 3062 101a 35       		.uleb128 0x35
 3063 101b B4000000 		.4byte	.LVL32
 3064 101f 95110000 		.4byte	0x1195
 3065 1023 2D100000 		.4byte	0x102d
 3066 1027 2A       		.uleb128 0x2a
 3067 1028 01       		.uleb128 0x1
 3068 1029 50       		.byte	0x50
ARM GAS  /tmp/cccegR9C.s 			page 55


 3069 102a 01       		.uleb128 0x1
 3070 102b 3A       		.byte	0x3a
 3071 102c 00       		.byte	0
 3072 102d 28       		.uleb128 0x28
 3073 102e B8000000 		.4byte	.LVL33
 3074 1032 8A110000 		.4byte	0x118a
 3075 1036 35       		.uleb128 0x35
 3076 1037 30020000 		.4byte	.LVL74
 3077 103b 95110000 		.4byte	0x1195
 3078 103f 49100000 		.4byte	0x1049
 3079 1043 2A       		.uleb128 0x2a
 3080 1044 01       		.uleb128 0x1
 3081 1045 50       		.byte	0x50
 3082 1046 01       		.uleb128 0x1
 3083 1047 3A       		.byte	0x3a
 3084 1048 00       		.byte	0
 3085 1049 35       		.uleb128 0x35
 3086 104a 66020000 		.4byte	.LVL85
 3087 104e 95110000 		.4byte	0x1195
 3088 1052 5C100000 		.4byte	0x105c
 3089 1056 2A       		.uleb128 0x2a
 3090 1057 01       		.uleb128 0x1
 3091 1058 50       		.byte	0x50
 3092 1059 01       		.uleb128 0x1
 3093 105a 3A       		.byte	0x3a
 3094 105b 00       		.byte	0
 3095 105c 35       		.uleb128 0x35
 3096 105d 2A030000 		.4byte	.LVL99
 3097 1061 95110000 		.4byte	0x1195
 3098 1065 6F100000 		.4byte	0x106f
 3099 1069 2A       		.uleb128 0x2a
 3100 106a 01       		.uleb128 0x1
 3101 106b 50       		.byte	0x50
 3102 106c 01       		.uleb128 0x1
 3103 106d 3A       		.byte	0x3a
 3104 106e 00       		.byte	0
 3105 106f 29       		.uleb128 0x29
 3106 1070 98030000 		.4byte	.LVL109
 3107 1074 95110000 		.4byte	0x1195
 3108 1078 2A       		.uleb128 0x2a
 3109 1079 01       		.uleb128 0x1
 3110 107a 50       		.byte	0x50
 3111 107b 01       		.uleb128 0x1
 3112 107c 3A       		.byte	0x3a
 3113 107d 00       		.byte	0
 3114 107e 00       		.byte	0
 3115 107f 00       		.byte	0
 3116 1080 3E       		.uleb128 0x3e
 3117 1081 AE040000 		.4byte	.LASF150
 3118 1085 01       		.byte	0x1
 3119 1086 2A       		.byte	0x2a
 3120 1087 00000000 		.4byte	.LFB256
 3121 108b 34000000 		.4byte	.LFE256-.LFB256
 3122 108f 01       		.uleb128 0x1
 3123 1090 9C       		.byte	0x9c
 3124 1091 C5100000 		.4byte	0x10c5
 3125 1095 29       		.uleb128 0x29
ARM GAS  /tmp/cccegR9C.s 			page 56


 3126 1096 1E000000 		.4byte	.LVL110
 3127 109a F6110000 		.4byte	0x11f6
 3128 109e 2A       		.uleb128 0x2a
 3129 109f 01       		.uleb128 0x1
 3130 10a0 53       		.byte	0x53
 3131 10a1 05       		.uleb128 0x5
 3132 10a2 03       		.byte	0x3
 3133 10a3 00000000 		.4byte	led_thread
 3134 10a7 2A       		.uleb128 0x2a
 3135 10a8 01       		.uleb128 0x1
 3136 10a9 52       		.byte	0x52
 3137 10aa 01       		.uleb128 0x1
 3138 10ab 32       		.byte	0x32
 3139 10ac 2A       		.uleb128 0x2a
 3140 10ad 01       		.uleb128 0x1
 3141 10ae 51       		.byte	0x51
 3142 10af 03       		.uleb128 0x3
 3143 10b0 0A       		.byte	0xa
 3144 10b1 9805     		.2byte	0x598
 3145 10b3 2A       		.uleb128 0x2a
 3146 10b4 01       		.uleb128 0x1
 3147 10b5 50       		.byte	0x50
 3148 10b6 05       		.uleb128 0x5
 3149 10b7 03       		.byte	0x3
 3150 10b8 00000000 		.4byte	.LANCHOR2
 3151 10bc 2A       		.uleb128 0x2a
 3152 10bd 02       		.uleb128 0x2
 3153 10be 7D       		.byte	0x7d
 3154 10bf 00       		.sleb128 0
 3155 10c0 02       		.uleb128 0x2
 3156 10c1 74       		.byte	0x74
 3157 10c2 00       		.sleb128 0
 3158 10c3 00       		.byte	0
 3159 10c4 00       		.byte	0
 3160 10c5 3E       		.uleb128 0x3e
 3161 10c6 02040000 		.4byte	.LASF151
 3162 10ca 01       		.byte	0x1
 3163 10cb 30       		.byte	0x30
 3164 10cc 00000000 		.4byte	.LFB257
 3165 10d0 0C000000 		.4byte	.LFE257-.LFB257
 3166 10d4 01       		.uleb128 0x1
 3167 10d5 9C       		.byte	0x9c
 3168 10d6 E8100000 		.4byte	0x10e8
 3169 10da 3F       		.uleb128 0x3f
 3170 10db 39010000 		.4byte	.LASF152
 3171 10df 01       		.byte	0x1
 3172 10e0 30       		.byte	0x30
 3173 10e1 BB070000 		.4byte	0x7bb
 3174 10e5 01       		.uleb128 0x1
 3175 10e6 50       		.byte	0x50
 3176 10e7 00       		.byte	0
 3177 10e8 3E       		.uleb128 0x3e
 3178 10e9 49080000 		.4byte	.LASF153
 3179 10ed 01       		.byte	0x1
 3180 10ee 34       		.byte	0x34
 3181 10ef 00000000 		.4byte	.LFB258
 3182 10f3 0C000000 		.4byte	.LFE258-.LFB258
ARM GAS  /tmp/cccegR9C.s 			page 57


 3183 10f7 01       		.uleb128 0x1
 3184 10f8 9C       		.byte	0x9c
 3185 10f9 0B110000 		.4byte	0x110b
 3186 10fd 3F       		.uleb128 0x3f
 3187 10fe 20060000 		.4byte	.LASF154
 3188 1102 01       		.byte	0x1
 3189 1103 34       		.byte	0x34
 3190 1104 7A070000 		.4byte	0x77a
 3191 1108 01       		.uleb128 0x1
 3192 1109 50       		.byte	0x50
 3193 110a 00       		.byte	0
 3194 110b 15       		.uleb128 0x15
 3195 110c 9E040000 		.4byte	0x49e
 3196 1110 1B110000 		.4byte	0x111b
 3197 1114 16       		.uleb128 0x16
 3198 1115 8C040000 		.4byte	0x48c
 3199 1119 B2       		.byte	0xb2
 3200 111a 00       		.byte	0
 3201 111b 33       		.uleb128 0x33
 3202 111c AC080000 		.4byte	.LASF155
 3203 1120 01       		.byte	0x1
 3204 1121 20       		.byte	0x20
 3205 1122 0B110000 		.4byte	0x110b
 3206 1126 05       		.uleb128 0x5
 3207 1127 03       		.byte	0x3
 3208 1128 00000000 		.4byte	led_thread_wa
 3209 112c 33       		.uleb128 0x33
 3210 112d 76010000 		.4byte	.LASF156
 3211 1131 01       		.byte	0x1
 3212 1132 21       		.byte	0x21
 3213 1133 3D110000 		.4byte	0x113d
 3214 1137 05       		.uleb128 0x5
 3215 1138 03       		.byte	0x3
 3216 1139 00000000 		.4byte	state
 3217 113d 05       		.uleb128 0x5
 3218 113e BB070000 		.4byte	0x7bb
 3219 1142 33       		.uleb128 0x33
 3220 1143 11070000 		.4byte	.LASF157
 3221 1147 01       		.byte	0x1
 3222 1148 22       		.byte	0x22
 3223 1149 53110000 		.4byte	0x1153
 3224 114d 05       		.uleb128 0x5
 3225 114e 03       		.byte	0x3
 3226 114f 00000000 		.4byte	reverse_leds
 3227 1153 05       		.uleb128 0x5
 3228 1154 7A070000 		.4byte	0x77a
 3229 1158 40       		.uleb128 0x40
 3230 1159 D2000000 		.4byte	.LASF158
 3231 115d 13       		.byte	0x13
 3232 115e A706     		.2byte	0x6a7
 3233 1160 EB000000 		.4byte	0xeb
 3234 1164 41       		.uleb128 0x41
 3235 1165 636800   		.ascii	"ch\000"
 3236 1168 0A       		.byte	0xa
 3237 1169 0902     		.2byte	0x209
 3238 116b 25040000 		.4byte	0x425
 3239 116f 15       		.uleb128 0x15
ARM GAS  /tmp/cccegR9C.s 			page 58


 3240 1170 B4000000 		.4byte	0xb4
 3241 1174 7A110000 		.4byte	0x117a
 3242 1178 42       		.uleb128 0x42
 3243 1179 00       		.byte	0
 3244 117a 43       		.uleb128 0x43
 3245 117b 1B050000 		.4byte	.LASF159
 3246 117f 14       		.byte	0x14
 3247 1180 55       		.byte	0x55
 3248 1181 85110000 		.4byte	0x1185
 3249 1185 05       		.uleb128 0x5
 3250 1186 6F110000 		.4byte	0x116f
 3251 118a 44       		.uleb128 0x44
 3252 118b 11080000 		.4byte	.LASF168
 3253 118f 14       		.byte	0x14
 3254 1190 22       		.byte	0x22
 3255 1191 6F070000 		.4byte	0x76f
 3256 1195 45       		.uleb128 0x45
 3257 1196 BF070000 		.4byte	.LASF160
 3258 119a 10       		.byte	0x10
 3259 119b 96       		.byte	0x96
 3260 119c A6110000 		.4byte	0x11a6
 3261 11a0 0D       		.uleb128 0xd
 3262 11a1 53010000 		.4byte	0x153
 3263 11a5 00       		.byte	0
 3264 11a6 45       		.uleb128 0x45
 3265 11a7 19040000 		.4byte	.LASF161
 3266 11ab 15       		.byte	0x15
 3267 11ac 46       		.byte	0x46
 3268 11ad BC110000 		.4byte	0x11bc
 3269 11b1 0D       		.uleb128 0xd
 3270 11b2 A2000000 		.4byte	0xa2
 3271 11b6 0D       		.uleb128 0xd
 3272 11b7 CA000000 		.4byte	0xca
 3273 11bb 00       		.byte	0
 3274 11bc 45       		.uleb128 0x45
 3275 11bd D0040000 		.4byte	.LASF162
 3276 11c1 15       		.byte	0x15
 3277 11c2 49       		.byte	0x49
 3278 11c3 CD110000 		.4byte	0x11cd
 3279 11c7 0D       		.uleb128 0xd
 3280 11c8 CA000000 		.4byte	0xca
 3281 11cc 00       		.byte	0
 3282 11cd 46       		.uleb128 0x46
 3283 11ce AB010000 		.4byte	.LASF169
 3284 11d2 16       		.byte	0x16
 3285 11d3 20       		.byte	0x20
 3286 11d4 25000000 		.4byte	0x25
 3287 11d8 F6110000 		.4byte	0x11f6
 3288 11dc 0D       		.uleb128 0xd
 3289 11dd 25000000 		.4byte	0x25
 3290 11e1 0D       		.uleb128 0xd
 3291 11e2 25000000 		.4byte	0x25
 3292 11e6 0D       		.uleb128 0xd
 3293 11e7 25000000 		.4byte	0x25
 3294 11eb 0D       		.uleb128 0xd
 3295 11ec 25000000 		.4byte	0x25
 3296 11f0 0D       		.uleb128 0xd
ARM GAS  /tmp/cccegR9C.s 			page 59


 3297 11f1 25000000 		.4byte	0x25
 3298 11f5 00       		.byte	0
 3299 11f6 47       		.uleb128 0x47
 3300 11f7 95040000 		.4byte	.LASF163
 3301 11fb 10       		.byte	0x10
 3302 11fc 89       		.byte	0x89
 3303 11fd 79020000 		.4byte	0x279
 3304 1201 0D       		.uleb128 0xd
 3305 1202 56030000 		.4byte	0x356
 3306 1206 0D       		.uleb128 0xd
 3307 1207 E0000000 		.4byte	0xe0
 3308 120b 0D       		.uleb128 0xd
 3309 120c 27010000 		.4byte	0x127
 3310 1210 0D       		.uleb128 0xd
 3311 1211 20070000 		.4byte	0x720
 3312 1215 0D       		.uleb128 0xd
 3313 1216 56030000 		.4byte	0x356
 3314 121a 00       		.byte	0
 3315 121b 00       		.byte	0
 3316              		.section	.debug_abbrev,"",%progbits
 3317              	.Ldebug_abbrev0:
 3318 0000 01       		.uleb128 0x1
 3319 0001 11       		.uleb128 0x11
 3320 0002 01       		.byte	0x1
 3321 0003 25       		.uleb128 0x25
 3322 0004 0E       		.uleb128 0xe
 3323 0005 13       		.uleb128 0x13
 3324 0006 0B       		.uleb128 0xb
 3325 0007 03       		.uleb128 0x3
 3326 0008 0E       		.uleb128 0xe
 3327 0009 1B       		.uleb128 0x1b
 3328 000a 0E       		.uleb128 0xe
 3329 000b 55       		.uleb128 0x55
 3330 000c 17       		.uleb128 0x17
 3331 000d 11       		.uleb128 0x11
 3332 000e 01       		.uleb128 0x1
 3333 000f 10       		.uleb128 0x10
 3334 0010 17       		.uleb128 0x17
 3335 0011 00       		.byte	0
 3336 0012 00       		.byte	0
 3337 0013 02       		.uleb128 0x2
 3338 0014 24       		.uleb128 0x24
 3339 0015 00       		.byte	0
 3340 0016 0B       		.uleb128 0xb
 3341 0017 0B       		.uleb128 0xb
 3342 0018 3E       		.uleb128 0x3e
 3343 0019 0B       		.uleb128 0xb
 3344 001a 03       		.uleb128 0x3
 3345 001b 0E       		.uleb128 0xe
 3346 001c 00       		.byte	0
 3347 001d 00       		.byte	0
 3348 001e 03       		.uleb128 0x3
 3349 001f 16       		.uleb128 0x16
 3350 0020 00       		.byte	0
 3351 0021 03       		.uleb128 0x3
 3352 0022 0E       		.uleb128 0xe
 3353 0023 3A       		.uleb128 0x3a
ARM GAS  /tmp/cccegR9C.s 			page 60


 3354 0024 0B       		.uleb128 0xb
 3355 0025 3B       		.uleb128 0x3b
 3356 0026 0B       		.uleb128 0xb
 3357 0027 49       		.uleb128 0x49
 3358 0028 13       		.uleb128 0x13
 3359 0029 00       		.byte	0
 3360 002a 00       		.byte	0
 3361 002b 04       		.uleb128 0x4
 3362 002c 24       		.uleb128 0x24
 3363 002d 00       		.byte	0
 3364 002e 0B       		.uleb128 0xb
 3365 002f 0B       		.uleb128 0xb
 3366 0030 3E       		.uleb128 0x3e
 3367 0031 0B       		.uleb128 0xb
 3368 0032 03       		.uleb128 0x3
 3369 0033 08       		.uleb128 0x8
 3370 0034 00       		.byte	0
 3371 0035 00       		.byte	0
 3372 0036 05       		.uleb128 0x5
 3373 0037 35       		.uleb128 0x35
 3374 0038 00       		.byte	0
 3375 0039 49       		.uleb128 0x49
 3376 003a 13       		.uleb128 0x13
 3377 003b 00       		.byte	0
 3378 003c 00       		.byte	0
 3379 003d 06       		.uleb128 0x6
 3380 003e 13       		.uleb128 0x13
 3381 003f 01       		.byte	0x1
 3382 0040 03       		.uleb128 0x3
 3383 0041 0E       		.uleb128 0xe
 3384 0042 0B       		.uleb128 0xb
 3385 0043 0B       		.uleb128 0xb
 3386 0044 3A       		.uleb128 0x3a
 3387 0045 0B       		.uleb128 0xb
 3388 0046 3B       		.uleb128 0x3b
 3389 0047 0B       		.uleb128 0xb
 3390 0048 01       		.uleb128 0x1
 3391 0049 13       		.uleb128 0x13
 3392 004a 00       		.byte	0
 3393 004b 00       		.byte	0
 3394 004c 07       		.uleb128 0x7
 3395 004d 0D       		.uleb128 0xd
 3396 004e 00       		.byte	0
 3397 004f 03       		.uleb128 0x3
 3398 0050 0E       		.uleb128 0xe
 3399 0051 3A       		.uleb128 0x3a
 3400 0052 0B       		.uleb128 0xb
 3401 0053 3B       		.uleb128 0x3b
 3402 0054 0B       		.uleb128 0xb
 3403 0055 49       		.uleb128 0x49
 3404 0056 13       		.uleb128 0x13
 3405 0057 38       		.uleb128 0x38
 3406 0058 0B       		.uleb128 0xb
 3407 0059 00       		.byte	0
 3408 005a 00       		.byte	0
 3409 005b 08       		.uleb128 0x8
 3410 005c 0D       		.uleb128 0xd
ARM GAS  /tmp/cccegR9C.s 			page 61


 3411 005d 00       		.byte	0
 3412 005e 03       		.uleb128 0x3
 3413 005f 08       		.uleb128 0x8
 3414 0060 3A       		.uleb128 0x3a
 3415 0061 0B       		.uleb128 0xb
 3416 0062 3B       		.uleb128 0x3b
 3417 0063 05       		.uleb128 0x5
 3418 0064 49       		.uleb128 0x49
 3419 0065 13       		.uleb128 0x13
 3420 0066 38       		.uleb128 0x38
 3421 0067 0B       		.uleb128 0xb
 3422 0068 00       		.byte	0
 3423 0069 00       		.byte	0
 3424 006a 09       		.uleb128 0x9
 3425 006b 0D       		.uleb128 0xd
 3426 006c 00       		.byte	0
 3427 006d 03       		.uleb128 0x3
 3428 006e 0E       		.uleb128 0xe
 3429 006f 3A       		.uleb128 0x3a
 3430 0070 0B       		.uleb128 0xb
 3431 0071 3B       		.uleb128 0x3b
 3432 0072 05       		.uleb128 0x5
 3433 0073 49       		.uleb128 0x49
 3434 0074 13       		.uleb128 0x13
 3435 0075 38       		.uleb128 0x38
 3436 0076 0B       		.uleb128 0xb
 3437 0077 00       		.byte	0
 3438 0078 00       		.byte	0
 3439 0079 0A       		.uleb128 0xa
 3440 007a 0F       		.uleb128 0xf
 3441 007b 00       		.byte	0
 3442 007c 0B       		.uleb128 0xb
 3443 007d 0B       		.uleb128 0xb
 3444 007e 49       		.uleb128 0x49
 3445 007f 13       		.uleb128 0x13
 3446 0080 00       		.byte	0
 3447 0081 00       		.byte	0
 3448 0082 0B       		.uleb128 0xb
 3449 0083 13       		.uleb128 0x13
 3450 0084 01       		.byte	0x1
 3451 0085 03       		.uleb128 0x3
 3452 0086 0E       		.uleb128 0xe
 3453 0087 0B       		.uleb128 0xb
 3454 0088 0B       		.uleb128 0xb
 3455 0089 3A       		.uleb128 0x3a
 3456 008a 0B       		.uleb128 0xb
 3457 008b 3B       		.uleb128 0x3b
 3458 008c 05       		.uleb128 0x5
 3459 008d 01       		.uleb128 0x1
 3460 008e 13       		.uleb128 0x13
 3461 008f 00       		.byte	0
 3462 0090 00       		.byte	0
 3463 0091 0C       		.uleb128 0xc
 3464 0092 15       		.uleb128 0x15
 3465 0093 01       		.byte	0x1
 3466 0094 27       		.uleb128 0x27
 3467 0095 19       		.uleb128 0x19
ARM GAS  /tmp/cccegR9C.s 			page 62


 3468 0096 01       		.uleb128 0x1
 3469 0097 13       		.uleb128 0x13
 3470 0098 00       		.byte	0
 3471 0099 00       		.byte	0
 3472 009a 0D       		.uleb128 0xd
 3473 009b 05       		.uleb128 0x5
 3474 009c 00       		.byte	0
 3475 009d 49       		.uleb128 0x49
 3476 009e 13       		.uleb128 0x13
 3477 009f 00       		.byte	0
 3478 00a0 00       		.byte	0
 3479 00a1 0E       		.uleb128 0xe
 3480 00a2 0F       		.uleb128 0xf
 3481 00a3 00       		.byte	0
 3482 00a4 0B       		.uleb128 0xb
 3483 00a5 0B       		.uleb128 0xb
 3484 00a6 00       		.byte	0
 3485 00a7 00       		.byte	0
 3486 00a8 0F       		.uleb128 0xf
 3487 00a9 13       		.uleb128 0x13
 3488 00aa 01       		.byte	0x1
 3489 00ab 03       		.uleb128 0x3
 3490 00ac 0E       		.uleb128 0xe
 3491 00ad 0B       		.uleb128 0xb
 3492 00ae 05       		.uleb128 0x5
 3493 00af 3A       		.uleb128 0x3a
 3494 00b0 0B       		.uleb128 0xb
 3495 00b1 3B       		.uleb128 0x3b
 3496 00b2 05       		.uleb128 0x5
 3497 00b3 01       		.uleb128 0x1
 3498 00b4 13       		.uleb128 0x13
 3499 00b5 00       		.byte	0
 3500 00b6 00       		.byte	0
 3501 00b7 10       		.uleb128 0x10
 3502 00b8 0D       		.uleb128 0xd
 3503 00b9 00       		.byte	0
 3504 00ba 03       		.uleb128 0x3
 3505 00bb 08       		.uleb128 0x8
 3506 00bc 3A       		.uleb128 0x3a
 3507 00bd 0B       		.uleb128 0xb
 3508 00be 3B       		.uleb128 0x3b
 3509 00bf 0B       		.uleb128 0xb
 3510 00c0 49       		.uleb128 0x49
 3511 00c1 13       		.uleb128 0x13
 3512 00c2 38       		.uleb128 0x38
 3513 00c3 0B       		.uleb128 0xb
 3514 00c4 00       		.byte	0
 3515 00c5 00       		.byte	0
 3516 00c6 11       		.uleb128 0x11
 3517 00c7 13       		.uleb128 0x13
 3518 00c8 01       		.byte	0x1
 3519 00c9 0B       		.uleb128 0xb
 3520 00ca 0B       		.uleb128 0xb
 3521 00cb 3A       		.uleb128 0x3a
 3522 00cc 0B       		.uleb128 0xb
 3523 00cd 3B       		.uleb128 0x3b
 3524 00ce 0B       		.uleb128 0xb
ARM GAS  /tmp/cccegR9C.s 			page 63


 3525 00cf 01       		.uleb128 0x1
 3526 00d0 13       		.uleb128 0x13
 3527 00d1 00       		.byte	0
 3528 00d2 00       		.byte	0
 3529 00d3 12       		.uleb128 0x12
 3530 00d4 17       		.uleb128 0x17
 3531 00d5 01       		.byte	0x1
 3532 00d6 0B       		.uleb128 0xb
 3533 00d7 0B       		.uleb128 0xb
 3534 00d8 3A       		.uleb128 0x3a
 3535 00d9 0B       		.uleb128 0xb
 3536 00da 3B       		.uleb128 0x3b
 3537 00db 0B       		.uleb128 0xb
 3538 00dc 01       		.uleb128 0x1
 3539 00dd 13       		.uleb128 0x13
 3540 00de 00       		.byte	0
 3541 00df 00       		.byte	0
 3542 00e0 13       		.uleb128 0x13
 3543 00e1 0D       		.uleb128 0xd
 3544 00e2 00       		.byte	0
 3545 00e3 03       		.uleb128 0x3
 3546 00e4 0E       		.uleb128 0xe
 3547 00e5 3A       		.uleb128 0x3a
 3548 00e6 0B       		.uleb128 0xb
 3549 00e7 3B       		.uleb128 0x3b
 3550 00e8 05       		.uleb128 0x5
 3551 00e9 49       		.uleb128 0x49
 3552 00ea 13       		.uleb128 0x13
 3553 00eb 00       		.byte	0
 3554 00ec 00       		.byte	0
 3555 00ed 14       		.uleb128 0x14
 3556 00ee 26       		.uleb128 0x26
 3557 00ef 00       		.byte	0
 3558 00f0 49       		.uleb128 0x49
 3559 00f1 13       		.uleb128 0x13
 3560 00f2 00       		.byte	0
 3561 00f3 00       		.byte	0
 3562 00f4 15       		.uleb128 0x15
 3563 00f5 01       		.uleb128 0x1
 3564 00f6 01       		.byte	0x1
 3565 00f7 49       		.uleb128 0x49
 3566 00f8 13       		.uleb128 0x13
 3567 00f9 01       		.uleb128 0x1
 3568 00fa 13       		.uleb128 0x13
 3569 00fb 00       		.byte	0
 3570 00fc 00       		.byte	0
 3571 00fd 16       		.uleb128 0x16
 3572 00fe 21       		.uleb128 0x21
 3573 00ff 00       		.byte	0
 3574 0100 49       		.uleb128 0x49
 3575 0101 13       		.uleb128 0x13
 3576 0102 2F       		.uleb128 0x2f
 3577 0103 0B       		.uleb128 0xb
 3578 0104 00       		.byte	0
 3579 0105 00       		.byte	0
 3580 0106 17       		.uleb128 0x17
 3581 0107 04       		.uleb128 0x4
ARM GAS  /tmp/cccegR9C.s 			page 64


 3582 0108 01       		.byte	0x1
 3583 0109 0B       		.uleb128 0xb
 3584 010a 0B       		.uleb128 0xb
 3585 010b 3A       		.uleb128 0x3a
 3586 010c 0B       		.uleb128 0xb
 3587 010d 3B       		.uleb128 0x3b
 3588 010e 0B       		.uleb128 0xb
 3589 010f 01       		.uleb128 0x1
 3590 0110 13       		.uleb128 0x13
 3591 0111 00       		.byte	0
 3592 0112 00       		.byte	0
 3593 0113 18       		.uleb128 0x18
 3594 0114 28       		.uleb128 0x28
 3595 0115 00       		.byte	0
 3596 0116 03       		.uleb128 0x3
 3597 0117 0E       		.uleb128 0xe
 3598 0118 1C       		.uleb128 0x1c
 3599 0119 0D       		.uleb128 0xd
 3600 011a 00       		.byte	0
 3601 011b 00       		.byte	0
 3602 011c 19       		.uleb128 0x19
 3603 011d 04       		.uleb128 0x4
 3604 011e 01       		.byte	0x1
 3605 011f 0B       		.uleb128 0xb
 3606 0120 0B       		.uleb128 0xb
 3607 0121 3A       		.uleb128 0x3a
 3608 0122 0B       		.uleb128 0xb
 3609 0123 3B       		.uleb128 0x3b
 3610 0124 05       		.uleb128 0x5
 3611 0125 01       		.uleb128 0x1
 3612 0126 13       		.uleb128 0x13
 3613 0127 00       		.byte	0
 3614 0128 00       		.byte	0
 3615 0129 1A       		.uleb128 0x1a
 3616 012a 16       		.uleb128 0x16
 3617 012b 00       		.byte	0
 3618 012c 03       		.uleb128 0x3
 3619 012d 0E       		.uleb128 0xe
 3620 012e 3A       		.uleb128 0x3a
 3621 012f 0B       		.uleb128 0xb
 3622 0130 3B       		.uleb128 0x3b
 3623 0131 05       		.uleb128 0x5
 3624 0132 49       		.uleb128 0x49
 3625 0133 13       		.uleb128 0x13
 3626 0134 00       		.byte	0
 3627 0135 00       		.byte	0
 3628 0136 1B       		.uleb128 0x1b
 3629 0137 2E       		.uleb128 0x2e
 3630 0138 01       		.byte	0x1
 3631 0139 03       		.uleb128 0x3
 3632 013a 0E       		.uleb128 0xe
 3633 013b 3A       		.uleb128 0x3a
 3634 013c 0B       		.uleb128 0xb
 3635 013d 3B       		.uleb128 0x3b
 3636 013e 05       		.uleb128 0x5
 3637 013f 27       		.uleb128 0x27
 3638 0140 19       		.uleb128 0x19
ARM GAS  /tmp/cccegR9C.s 			page 65


 3639 0141 20       		.uleb128 0x20
 3640 0142 0B       		.uleb128 0xb
 3641 0143 01       		.uleb128 0x1
 3642 0144 13       		.uleb128 0x13
 3643 0145 00       		.byte	0
 3644 0146 00       		.byte	0
 3645 0147 1C       		.uleb128 0x1c
 3646 0148 05       		.uleb128 0x5
 3647 0149 00       		.byte	0
 3648 014a 03       		.uleb128 0x3
 3649 014b 0E       		.uleb128 0xe
 3650 014c 3A       		.uleb128 0x3a
 3651 014d 0B       		.uleb128 0xb
 3652 014e 3B       		.uleb128 0x3b
 3653 014f 05       		.uleb128 0x5
 3654 0150 49       		.uleb128 0x49
 3655 0151 13       		.uleb128 0x13
 3656 0152 00       		.byte	0
 3657 0153 00       		.byte	0
 3658 0154 1D       		.uleb128 0x1d
 3659 0155 2E       		.uleb128 0x2e
 3660 0156 00       		.byte	0
 3661 0157 03       		.uleb128 0x3
 3662 0158 0E       		.uleb128 0xe
 3663 0159 3A       		.uleb128 0x3a
 3664 015a 0B       		.uleb128 0xb
 3665 015b 3B       		.uleb128 0x3b
 3666 015c 05       		.uleb128 0x5
 3667 015d 27       		.uleb128 0x27
 3668 015e 19       		.uleb128 0x19
 3669 015f 20       		.uleb128 0x20
 3670 0160 0B       		.uleb128 0xb
 3671 0161 00       		.byte	0
 3672 0162 00       		.byte	0
 3673 0163 1E       		.uleb128 0x1e
 3674 0164 2E       		.uleb128 0x2e
 3675 0165 00       		.byte	0
 3676 0166 03       		.uleb128 0x3
 3677 0167 0E       		.uleb128 0xe
 3678 0168 3A       		.uleb128 0x3a
 3679 0169 0B       		.uleb128 0xb
 3680 016a 3B       		.uleb128 0x3b
 3681 016b 0B       		.uleb128 0xb
 3682 016c 27       		.uleb128 0x27
 3683 016d 19       		.uleb128 0x19
 3684 016e 49       		.uleb128 0x49
 3685 016f 13       		.uleb128 0x13
 3686 0170 20       		.uleb128 0x20
 3687 0171 0B       		.uleb128 0xb
 3688 0172 00       		.byte	0
 3689 0173 00       		.byte	0
 3690 0174 1F       		.uleb128 0x1f
 3691 0175 34       		.uleb128 0x34
 3692 0176 00       		.byte	0
 3693 0177 03       		.uleb128 0x3
 3694 0178 0E       		.uleb128 0xe
 3695 0179 49       		.uleb128 0x49
ARM GAS  /tmp/cccegR9C.s 			page 66


 3696 017a 13       		.uleb128 0x13
 3697 017b 34       		.uleb128 0x34
 3698 017c 19       		.uleb128 0x19
 3699 017d 1C       		.uleb128 0x1c
 3700 017e 0E       		.uleb128 0xe
 3701 017f 00       		.byte	0
 3702 0180 00       		.byte	0
 3703 0181 20       		.uleb128 0x20
 3704 0182 2E       		.uleb128 0x2e
 3705 0183 01       		.byte	0x1
 3706 0184 03       		.uleb128 0x3
 3707 0185 0E       		.uleb128 0xe
 3708 0186 3A       		.uleb128 0x3a
 3709 0187 0B       		.uleb128 0xb
 3710 0188 3B       		.uleb128 0x3b
 3711 0189 0B       		.uleb128 0xb
 3712 018a 27       		.uleb128 0x27
 3713 018b 19       		.uleb128 0x19
 3714 018c 20       		.uleb128 0x20
 3715 018d 0B       		.uleb128 0xb
 3716 018e 01       		.uleb128 0x1
 3717 018f 13       		.uleb128 0x13
 3718 0190 00       		.byte	0
 3719 0191 00       		.byte	0
 3720 0192 21       		.uleb128 0x21
 3721 0193 05       		.uleb128 0x5
 3722 0194 00       		.byte	0
 3723 0195 03       		.uleb128 0x3
 3724 0196 0E       		.uleb128 0xe
 3725 0197 3A       		.uleb128 0x3a
 3726 0198 0B       		.uleb128 0xb
 3727 0199 3B       		.uleb128 0x3b
 3728 019a 0B       		.uleb128 0xb
 3729 019b 49       		.uleb128 0x49
 3730 019c 13       		.uleb128 0x13
 3731 019d 00       		.byte	0
 3732 019e 00       		.byte	0
 3733 019f 22       		.uleb128 0x22
 3734 01a0 2E       		.uleb128 0x2e
 3735 01a1 01       		.byte	0x1
 3736 01a2 03       		.uleb128 0x3
 3737 01a3 0E       		.uleb128 0xe
 3738 01a4 3A       		.uleb128 0x3a
 3739 01a5 0B       		.uleb128 0xb
 3740 01a6 3B       		.uleb128 0x3b
 3741 01a7 0B       		.uleb128 0xb
 3742 01a8 27       		.uleb128 0x27
 3743 01a9 19       		.uleb128 0x19
 3744 01aa 49       		.uleb128 0x49
 3745 01ab 13       		.uleb128 0x13
 3746 01ac 20       		.uleb128 0x20
 3747 01ad 0B       		.uleb128 0xb
 3748 01ae 01       		.uleb128 0x1
 3749 01af 13       		.uleb128 0x13
 3750 01b0 00       		.byte	0
 3751 01b1 00       		.byte	0
 3752 01b2 23       		.uleb128 0x23
ARM GAS  /tmp/cccegR9C.s 			page 67


 3753 01b3 34       		.uleb128 0x34
 3754 01b4 00       		.byte	0
 3755 01b5 03       		.uleb128 0x3
 3756 01b6 0E       		.uleb128 0xe
 3757 01b7 3A       		.uleb128 0x3a
 3758 01b8 0B       		.uleb128 0xb
 3759 01b9 3B       		.uleb128 0x3b
 3760 01ba 0B       		.uleb128 0xb
 3761 01bb 49       		.uleb128 0x49
 3762 01bc 13       		.uleb128 0x13
 3763 01bd 00       		.byte	0
 3764 01be 00       		.byte	0
 3765 01bf 24       		.uleb128 0x24
 3766 01c0 34       		.uleb128 0x34
 3767 01c1 00       		.byte	0
 3768 01c2 03       		.uleb128 0x3
 3769 01c3 08       		.uleb128 0x8
 3770 01c4 3A       		.uleb128 0x3a
 3771 01c5 0B       		.uleb128 0xb
 3772 01c6 3B       		.uleb128 0x3b
 3773 01c7 0B       		.uleb128 0xb
 3774 01c8 49       		.uleb128 0x49
 3775 01c9 13       		.uleb128 0x13
 3776 01ca 00       		.byte	0
 3777 01cb 00       		.byte	0
 3778 01cc 25       		.uleb128 0x25
 3779 01cd 2E       		.uleb128 0x2e
 3780 01ce 01       		.byte	0x1
 3781 01cf 03       		.uleb128 0x3
 3782 01d0 0E       		.uleb128 0xe
 3783 01d1 3A       		.uleb128 0x3a
 3784 01d2 0B       		.uleb128 0xb
 3785 01d3 3B       		.uleb128 0x3b
 3786 01d4 0B       		.uleb128 0xb
 3787 01d5 27       		.uleb128 0x27
 3788 01d6 19       		.uleb128 0x19
 3789 01d7 11       		.uleb128 0x11
 3790 01d8 01       		.uleb128 0x1
 3791 01d9 12       		.uleb128 0x12
 3792 01da 06       		.uleb128 0x6
 3793 01db 40       		.uleb128 0x40
 3794 01dc 18       		.uleb128 0x18
 3795 01dd 9742     		.uleb128 0x2117
 3796 01df 19       		.uleb128 0x19
 3797 01e0 01       		.uleb128 0x1
 3798 01e1 13       		.uleb128 0x13
 3799 01e2 00       		.byte	0
 3800 01e3 00       		.byte	0
 3801 01e4 26       		.uleb128 0x26
 3802 01e5 34       		.uleb128 0x34
 3803 01e6 00       		.byte	0
 3804 01e7 03       		.uleb128 0x3
 3805 01e8 08       		.uleb128 0x8
 3806 01e9 3A       		.uleb128 0x3a
 3807 01ea 0B       		.uleb128 0xb
 3808 01eb 3B       		.uleb128 0x3b
 3809 01ec 0B       		.uleb128 0xb
ARM GAS  /tmp/cccegR9C.s 			page 68


 3810 01ed 49       		.uleb128 0x49
 3811 01ee 13       		.uleb128 0x13
 3812 01ef 02       		.uleb128 0x2
 3813 01f0 17       		.uleb128 0x17
 3814 01f1 00       		.byte	0
 3815 01f2 00       		.byte	0
 3816 01f3 27       		.uleb128 0x27
 3817 01f4 34       		.uleb128 0x34
 3818 01f5 00       		.byte	0
 3819 01f6 03       		.uleb128 0x3
 3820 01f7 0E       		.uleb128 0xe
 3821 01f8 3A       		.uleb128 0x3a
 3822 01f9 0B       		.uleb128 0xb
 3823 01fa 3B       		.uleb128 0x3b
 3824 01fb 0B       		.uleb128 0xb
 3825 01fc 49       		.uleb128 0x49
 3826 01fd 13       		.uleb128 0x13
 3827 01fe 02       		.uleb128 0x2
 3828 01ff 17       		.uleb128 0x17
 3829 0200 00       		.byte	0
 3830 0201 00       		.byte	0
 3831 0202 28       		.uleb128 0x28
 3832 0203 898201   		.uleb128 0x4109
 3833 0206 00       		.byte	0
 3834 0207 11       		.uleb128 0x11
 3835 0208 01       		.uleb128 0x1
 3836 0209 31       		.uleb128 0x31
 3837 020a 13       		.uleb128 0x13
 3838 020b 00       		.byte	0
 3839 020c 00       		.byte	0
 3840 020d 29       		.uleb128 0x29
 3841 020e 898201   		.uleb128 0x4109
 3842 0211 01       		.byte	0x1
 3843 0212 11       		.uleb128 0x11
 3844 0213 01       		.uleb128 0x1
 3845 0214 31       		.uleb128 0x31
 3846 0215 13       		.uleb128 0x13
 3847 0216 00       		.byte	0
 3848 0217 00       		.byte	0
 3849 0218 2A       		.uleb128 0x2a
 3850 0219 8A8201   		.uleb128 0x410a
 3851 021c 00       		.byte	0
 3852 021d 02       		.uleb128 0x2
 3853 021e 18       		.uleb128 0x18
 3854 021f 9142     		.uleb128 0x2111
 3855 0221 18       		.uleb128 0x18
 3856 0222 00       		.byte	0
 3857 0223 00       		.byte	0
 3858 0224 2B       		.uleb128 0x2b
 3859 0225 05       		.uleb128 0x5
 3860 0226 00       		.byte	0
 3861 0227 03       		.uleb128 0x3
 3862 0228 08       		.uleb128 0x8
 3863 0229 3A       		.uleb128 0x3a
 3864 022a 0B       		.uleb128 0xb
 3865 022b 3B       		.uleb128 0x3b
 3866 022c 0B       		.uleb128 0xb
ARM GAS  /tmp/cccegR9C.s 			page 69


 3867 022d 49       		.uleb128 0x49
 3868 022e 13       		.uleb128 0x13
 3869 022f 02       		.uleb128 0x2
 3870 0230 17       		.uleb128 0x17
 3871 0231 00       		.byte	0
 3872 0232 00       		.byte	0
 3873 0233 2C       		.uleb128 0x2c
 3874 0234 05       		.uleb128 0x5
 3875 0235 00       		.byte	0
 3876 0236 03       		.uleb128 0x3
 3877 0237 0E       		.uleb128 0xe
 3878 0238 3A       		.uleb128 0x3a
 3879 0239 0B       		.uleb128 0xb
 3880 023a 3B       		.uleb128 0x3b
 3881 023b 0B       		.uleb128 0xb
 3882 023c 49       		.uleb128 0x49
 3883 023d 13       		.uleb128 0x13
 3884 023e 02       		.uleb128 0x2
 3885 023f 17       		.uleb128 0x17
 3886 0240 00       		.byte	0
 3887 0241 00       		.byte	0
 3888 0242 2D       		.uleb128 0x2d
 3889 0243 898201   		.uleb128 0x4109
 3890 0246 01       		.byte	0x1
 3891 0247 11       		.uleb128 0x11
 3892 0248 01       		.uleb128 0x1
 3893 0249 9542     		.uleb128 0x2115
 3894 024b 19       		.uleb128 0x19
 3895 024c 31       		.uleb128 0x31
 3896 024d 13       		.uleb128 0x13
 3897 024e 01       		.uleb128 0x1
 3898 024f 13       		.uleb128 0x13
 3899 0250 00       		.byte	0
 3900 0251 00       		.byte	0
 3901 0252 2E       		.uleb128 0x2e
 3902 0253 898201   		.uleb128 0x4109
 3903 0256 00       		.byte	0
 3904 0257 11       		.uleb128 0x11
 3905 0258 01       		.uleb128 0x1
 3906 0259 9542     		.uleb128 0x2115
 3907 025b 19       		.uleb128 0x19
 3908 025c 31       		.uleb128 0x31
 3909 025d 13       		.uleb128 0x13
 3910 025e 00       		.byte	0
 3911 025f 00       		.byte	0
 3912 0260 2F       		.uleb128 0x2f
 3913 0261 1D       		.uleb128 0x1d
 3914 0262 01       		.byte	0x1
 3915 0263 31       		.uleb128 0x31
 3916 0264 13       		.uleb128 0x13
 3917 0265 52       		.uleb128 0x52
 3918 0266 01       		.uleb128 0x1
 3919 0267 55       		.uleb128 0x55
 3920 0268 17       		.uleb128 0x17
 3921 0269 58       		.uleb128 0x58
 3922 026a 0B       		.uleb128 0xb
 3923 026b 59       		.uleb128 0x59
ARM GAS  /tmp/cccegR9C.s 			page 70


 3924 026c 0B       		.uleb128 0xb
 3925 026d 01       		.uleb128 0x1
 3926 026e 13       		.uleb128 0x13
 3927 026f 00       		.byte	0
 3928 0270 00       		.byte	0
 3929 0271 30       		.uleb128 0x30
 3930 0272 05       		.uleb128 0x5
 3931 0273 00       		.byte	0
 3932 0274 31       		.uleb128 0x31
 3933 0275 13       		.uleb128 0x13
 3934 0276 02       		.uleb128 0x2
 3935 0277 18       		.uleb128 0x18
 3936 0278 00       		.byte	0
 3937 0279 00       		.byte	0
 3938 027a 31       		.uleb128 0x31
 3939 027b 0B       		.uleb128 0xb
 3940 027c 01       		.byte	0x1
 3941 027d 55       		.uleb128 0x55
 3942 027e 17       		.uleb128 0x17
 3943 027f 00       		.byte	0
 3944 0280 00       		.byte	0
 3945 0281 32       		.uleb128 0x32
 3946 0282 0B       		.uleb128 0xb
 3947 0283 01       		.byte	0x1
 3948 0284 55       		.uleb128 0x55
 3949 0285 17       		.uleb128 0x17
 3950 0286 01       		.uleb128 0x1
 3951 0287 13       		.uleb128 0x13
 3952 0288 00       		.byte	0
 3953 0289 00       		.byte	0
 3954 028a 33       		.uleb128 0x33
 3955 028b 34       		.uleb128 0x34
 3956 028c 00       		.byte	0
 3957 028d 03       		.uleb128 0x3
 3958 028e 0E       		.uleb128 0xe
 3959 028f 3A       		.uleb128 0x3a
 3960 0290 0B       		.uleb128 0xb
 3961 0291 3B       		.uleb128 0x3b
 3962 0292 0B       		.uleb128 0xb
 3963 0293 49       		.uleb128 0x49
 3964 0294 13       		.uleb128 0x13
 3965 0295 02       		.uleb128 0x2
 3966 0296 18       		.uleb128 0x18
 3967 0297 00       		.byte	0
 3968 0298 00       		.byte	0
 3969 0299 34       		.uleb128 0x34
 3970 029a 0B       		.uleb128 0xb
 3971 029b 01       		.byte	0x1
 3972 029c 11       		.uleb128 0x11
 3973 029d 01       		.uleb128 0x1
 3974 029e 12       		.uleb128 0x12
 3975 029f 06       		.uleb128 0x6
 3976 02a0 01       		.uleb128 0x1
 3977 02a1 13       		.uleb128 0x13
 3978 02a2 00       		.byte	0
 3979 02a3 00       		.byte	0
 3980 02a4 35       		.uleb128 0x35
ARM GAS  /tmp/cccegR9C.s 			page 71


 3981 02a5 898201   		.uleb128 0x4109
 3982 02a8 01       		.byte	0x1
 3983 02a9 11       		.uleb128 0x11
 3984 02aa 01       		.uleb128 0x1
 3985 02ab 31       		.uleb128 0x31
 3986 02ac 13       		.uleb128 0x13
 3987 02ad 01       		.uleb128 0x1
 3988 02ae 13       		.uleb128 0x13
 3989 02af 00       		.byte	0
 3990 02b0 00       		.byte	0
 3991 02b1 36       		.uleb128 0x36
 3992 02b2 34       		.uleb128 0x34
 3993 02b3 00       		.byte	0
 3994 02b4 31       		.uleb128 0x31
 3995 02b5 13       		.uleb128 0x13
 3996 02b6 00       		.byte	0
 3997 02b7 00       		.byte	0
 3998 02b8 37       		.uleb128 0x37
 3999 02b9 1D       		.uleb128 0x1d
 4000 02ba 01       		.byte	0x1
 4001 02bb 31       		.uleb128 0x31
 4002 02bc 13       		.uleb128 0x13
 4003 02bd 52       		.uleb128 0x52
 4004 02be 01       		.uleb128 0x1
 4005 02bf 55       		.uleb128 0x55
 4006 02c0 17       		.uleb128 0x17
 4007 02c1 58       		.uleb128 0x58
 4008 02c2 0B       		.uleb128 0xb
 4009 02c3 59       		.uleb128 0x59
 4010 02c4 05       		.uleb128 0x5
 4011 02c5 00       		.byte	0
 4012 02c6 00       		.byte	0
 4013 02c7 38       		.uleb128 0x38
 4014 02c8 05       		.uleb128 0x5
 4015 02c9 00       		.byte	0
 4016 02ca 31       		.uleb128 0x31
 4017 02cb 13       		.uleb128 0x13
 4018 02cc 02       		.uleb128 0x2
 4019 02cd 17       		.uleb128 0x17
 4020 02ce 00       		.byte	0
 4021 02cf 00       		.byte	0
 4022 02d0 39       		.uleb128 0x39
 4023 02d1 1D       		.uleb128 0x1d
 4024 02d2 00       		.byte	0
 4025 02d3 31       		.uleb128 0x31
 4026 02d4 13       		.uleb128 0x13
 4027 02d5 11       		.uleb128 0x11
 4028 02d6 01       		.uleb128 0x1
 4029 02d7 12       		.uleb128 0x12
 4030 02d8 06       		.uleb128 0x6
 4031 02d9 58       		.uleb128 0x58
 4032 02da 0B       		.uleb128 0xb
 4033 02db 59       		.uleb128 0x59
 4034 02dc 0B       		.uleb128 0xb
 4035 02dd 00       		.byte	0
 4036 02de 00       		.byte	0
 4037 02df 3A       		.uleb128 0x3a
ARM GAS  /tmp/cccegR9C.s 			page 72


 4038 02e0 1D       		.uleb128 0x1d
 4039 02e1 01       		.byte	0x1
 4040 02e2 31       		.uleb128 0x31
 4041 02e3 13       		.uleb128 0x13
 4042 02e4 11       		.uleb128 0x11
 4043 02e5 01       		.uleb128 0x1
 4044 02e6 12       		.uleb128 0x12
 4045 02e7 06       		.uleb128 0x6
 4046 02e8 58       		.uleb128 0x58
 4047 02e9 0B       		.uleb128 0xb
 4048 02ea 59       		.uleb128 0x59
 4049 02eb 0B       		.uleb128 0xb
 4050 02ec 00       		.byte	0
 4051 02ed 00       		.byte	0
 4052 02ee 3B       		.uleb128 0x3b
 4053 02ef 0B       		.uleb128 0xb
 4054 02f0 01       		.byte	0x1
 4055 02f1 11       		.uleb128 0x11
 4056 02f2 01       		.uleb128 0x1
 4057 02f3 12       		.uleb128 0x12
 4058 02f4 06       		.uleb128 0x6
 4059 02f5 00       		.byte	0
 4060 02f6 00       		.byte	0
 4061 02f7 3C       		.uleb128 0x3c
 4062 02f8 1D       		.uleb128 0x1d
 4063 02f9 01       		.byte	0x1
 4064 02fa 31       		.uleb128 0x31
 4065 02fb 13       		.uleb128 0x13
 4066 02fc 11       		.uleb128 0x11
 4067 02fd 01       		.uleb128 0x1
 4068 02fe 12       		.uleb128 0x12
 4069 02ff 06       		.uleb128 0x6
 4070 0300 58       		.uleb128 0x58
 4071 0301 0B       		.uleb128 0xb
 4072 0302 59       		.uleb128 0x59
 4073 0303 05       		.uleb128 0x5
 4074 0304 00       		.byte	0
 4075 0305 00       		.byte	0
 4076 0306 3D       		.uleb128 0x3d
 4077 0307 34       		.uleb128 0x34
 4078 0308 00       		.byte	0
 4079 0309 31       		.uleb128 0x31
 4080 030a 13       		.uleb128 0x13
 4081 030b 02       		.uleb128 0x2
 4082 030c 17       		.uleb128 0x17
 4083 030d 00       		.byte	0
 4084 030e 00       		.byte	0
 4085 030f 3E       		.uleb128 0x3e
 4086 0310 2E       		.uleb128 0x2e
 4087 0311 01       		.byte	0x1
 4088 0312 3F       		.uleb128 0x3f
 4089 0313 19       		.uleb128 0x19
 4090 0314 03       		.uleb128 0x3
 4091 0315 0E       		.uleb128 0xe
 4092 0316 3A       		.uleb128 0x3a
 4093 0317 0B       		.uleb128 0xb
 4094 0318 3B       		.uleb128 0x3b
ARM GAS  /tmp/cccegR9C.s 			page 73


 4095 0319 0B       		.uleb128 0xb
 4096 031a 27       		.uleb128 0x27
 4097 031b 19       		.uleb128 0x19
 4098 031c 11       		.uleb128 0x11
 4099 031d 01       		.uleb128 0x1
 4100 031e 12       		.uleb128 0x12
 4101 031f 06       		.uleb128 0x6
 4102 0320 40       		.uleb128 0x40
 4103 0321 18       		.uleb128 0x18
 4104 0322 9742     		.uleb128 0x2117
 4105 0324 19       		.uleb128 0x19
 4106 0325 01       		.uleb128 0x1
 4107 0326 13       		.uleb128 0x13
 4108 0327 00       		.byte	0
 4109 0328 00       		.byte	0
 4110 0329 3F       		.uleb128 0x3f
 4111 032a 05       		.uleb128 0x5
 4112 032b 00       		.byte	0
 4113 032c 03       		.uleb128 0x3
 4114 032d 0E       		.uleb128 0xe
 4115 032e 3A       		.uleb128 0x3a
 4116 032f 0B       		.uleb128 0xb
 4117 0330 3B       		.uleb128 0x3b
 4118 0331 0B       		.uleb128 0xb
 4119 0332 49       		.uleb128 0x49
 4120 0333 13       		.uleb128 0x13
 4121 0334 02       		.uleb128 0x2
 4122 0335 18       		.uleb128 0x18
 4123 0336 00       		.byte	0
 4124 0337 00       		.byte	0
 4125 0338 40       		.uleb128 0x40
 4126 0339 34       		.uleb128 0x34
 4127 033a 00       		.byte	0
 4128 033b 03       		.uleb128 0x3
 4129 033c 0E       		.uleb128 0xe
 4130 033d 3A       		.uleb128 0x3a
 4131 033e 0B       		.uleb128 0xb
 4132 033f 3B       		.uleb128 0x3b
 4133 0340 05       		.uleb128 0x5
 4134 0341 49       		.uleb128 0x49
 4135 0342 13       		.uleb128 0x13
 4136 0343 3F       		.uleb128 0x3f
 4137 0344 19       		.uleb128 0x19
 4138 0345 3C       		.uleb128 0x3c
 4139 0346 19       		.uleb128 0x19
 4140 0347 00       		.byte	0
 4141 0348 00       		.byte	0
 4142 0349 41       		.uleb128 0x41
 4143 034a 34       		.uleb128 0x34
 4144 034b 00       		.byte	0
 4145 034c 03       		.uleb128 0x3
 4146 034d 08       		.uleb128 0x8
 4147 034e 3A       		.uleb128 0x3a
 4148 034f 0B       		.uleb128 0xb
 4149 0350 3B       		.uleb128 0x3b
 4150 0351 05       		.uleb128 0x5
 4151 0352 49       		.uleb128 0x49
ARM GAS  /tmp/cccegR9C.s 			page 74


 4152 0353 13       		.uleb128 0x13
 4153 0354 3F       		.uleb128 0x3f
 4154 0355 19       		.uleb128 0x19
 4155 0356 3C       		.uleb128 0x3c
 4156 0357 19       		.uleb128 0x19
 4157 0358 00       		.byte	0
 4158 0359 00       		.byte	0
 4159 035a 42       		.uleb128 0x42
 4160 035b 21       		.uleb128 0x21
 4161 035c 00       		.byte	0
 4162 035d 00       		.byte	0
 4163 035e 00       		.byte	0
 4164 035f 43       		.uleb128 0x43
 4165 0360 34       		.uleb128 0x34
 4166 0361 00       		.byte	0
 4167 0362 03       		.uleb128 0x3
 4168 0363 0E       		.uleb128 0xe
 4169 0364 3A       		.uleb128 0x3a
 4170 0365 0B       		.uleb128 0xb
 4171 0366 3B       		.uleb128 0x3b
 4172 0367 0B       		.uleb128 0xb
 4173 0368 49       		.uleb128 0x49
 4174 0369 13       		.uleb128 0x13
 4175 036a 3F       		.uleb128 0x3f
 4176 036b 19       		.uleb128 0x19
 4177 036c 3C       		.uleb128 0x3c
 4178 036d 19       		.uleb128 0x19
 4179 036e 00       		.byte	0
 4180 036f 00       		.byte	0
 4181 0370 44       		.uleb128 0x44
 4182 0371 2E       		.uleb128 0x2e
 4183 0372 00       		.byte	0
 4184 0373 3F       		.uleb128 0x3f
 4185 0374 19       		.uleb128 0x19
 4186 0375 03       		.uleb128 0x3
 4187 0376 0E       		.uleb128 0xe
 4188 0377 3A       		.uleb128 0x3a
 4189 0378 0B       		.uleb128 0xb
 4190 0379 3B       		.uleb128 0x3b
 4191 037a 0B       		.uleb128 0xb
 4192 037b 27       		.uleb128 0x27
 4193 037c 19       		.uleb128 0x19
 4194 037d 49       		.uleb128 0x49
 4195 037e 13       		.uleb128 0x13
 4196 037f 3C       		.uleb128 0x3c
 4197 0380 19       		.uleb128 0x19
 4198 0381 00       		.byte	0
 4199 0382 00       		.byte	0
 4200 0383 45       		.uleb128 0x45
 4201 0384 2E       		.uleb128 0x2e
 4202 0385 01       		.byte	0x1
 4203 0386 3F       		.uleb128 0x3f
 4204 0387 19       		.uleb128 0x19
 4205 0388 03       		.uleb128 0x3
 4206 0389 0E       		.uleb128 0xe
 4207 038a 3A       		.uleb128 0x3a
 4208 038b 0B       		.uleb128 0xb
ARM GAS  /tmp/cccegR9C.s 			page 75


 4209 038c 3B       		.uleb128 0x3b
 4210 038d 0B       		.uleb128 0xb
 4211 038e 27       		.uleb128 0x27
 4212 038f 19       		.uleb128 0x19
 4213 0390 3C       		.uleb128 0x3c
 4214 0391 19       		.uleb128 0x19
 4215 0392 01       		.uleb128 0x1
 4216 0393 13       		.uleb128 0x13
 4217 0394 00       		.byte	0
 4218 0395 00       		.byte	0
 4219 0396 46       		.uleb128 0x46
 4220 0397 2E       		.uleb128 0x2e
 4221 0398 01       		.byte	0x1
 4222 0399 3F       		.uleb128 0x3f
 4223 039a 19       		.uleb128 0x19
 4224 039b 03       		.uleb128 0x3
 4225 039c 0E       		.uleb128 0xe
 4226 039d 3A       		.uleb128 0x3a
 4227 039e 0B       		.uleb128 0xb
 4228 039f 3B       		.uleb128 0x3b
 4229 03a0 0B       		.uleb128 0xb
 4230 03a1 27       		.uleb128 0x27
 4231 03a2 19       		.uleb128 0x19
 4232 03a3 49       		.uleb128 0x49
 4233 03a4 13       		.uleb128 0x13
 4234 03a5 3C       		.uleb128 0x3c
 4235 03a6 19       		.uleb128 0x19
 4236 03a7 01       		.uleb128 0x1
 4237 03a8 13       		.uleb128 0x13
 4238 03a9 00       		.byte	0
 4239 03aa 00       		.byte	0
 4240 03ab 47       		.uleb128 0x47
 4241 03ac 2E       		.uleb128 0x2e
 4242 03ad 01       		.byte	0x1
 4243 03ae 3F       		.uleb128 0x3f
 4244 03af 19       		.uleb128 0x19
 4245 03b0 03       		.uleb128 0x3
 4246 03b1 0E       		.uleb128 0xe
 4247 03b2 3A       		.uleb128 0x3a
 4248 03b3 0B       		.uleb128 0xb
 4249 03b4 3B       		.uleb128 0x3b
 4250 03b5 0B       		.uleb128 0xb
 4251 03b6 27       		.uleb128 0x27
 4252 03b7 19       		.uleb128 0x19
 4253 03b8 49       		.uleb128 0x49
 4254 03b9 13       		.uleb128 0x13
 4255 03ba 3C       		.uleb128 0x3c
 4256 03bb 19       		.uleb128 0x19
 4257 03bc 00       		.byte	0
 4258 03bd 00       		.byte	0
 4259 03be 00       		.byte	0
 4260              		.section	.debug_loc,"",%progbits
 4261              	.Ldebug_loc0:
 4262              	.LLST0:
 4263 0000 08000000 		.4byte	.LVL0
 4264 0004 16000000 		.4byte	.LVL2
 4265 0008 0100     		.2byte	0x1
ARM GAS  /tmp/cccegR9C.s 			page 76


 4266 000a 53       		.byte	0x53
 4267 000b 00000000 		.4byte	0
 4268 000f 00000000 		.4byte	0
 4269              	.LLST1:
 4270 0013 12000000 		.4byte	.LVL1
 4271 0017 30000000 		.4byte	.LVL5
 4272 001b 0100     		.2byte	0x1
 4273 001d 57       		.byte	0x57
 4274 001e 00000000 		.4byte	0
 4275 0022 00000000 		.4byte	0
 4276              	.LLST2:
 4277 0026 00000000 		.4byte	.LVL6
 4278 002a 0C000000 		.4byte	.LVL7
 4279 002e 0100     		.2byte	0x1
 4280 0030 50       		.byte	0x50
 4281 0031 0C000000 		.4byte	.LVL7
 4282 0035 0F000000 		.4byte	.LVL8-1
 4283 0039 0300     		.2byte	0x3
 4284 003b 70       		.byte	0x70
 4285 003c 72       		.sleb128 -14
 4286 003d 9F       		.byte	0x9f
 4287 003e 0F000000 		.4byte	.LVL8-1
 4288 0042 10000000 		.4byte	.LVL8
 4289 0046 0400     		.2byte	0x4
 4290 0048 F3       		.byte	0xf3
 4291 0049 01       		.uleb128 0x1
 4292 004a 50       		.byte	0x50
 4293 004b 9F       		.byte	0x9f
 4294 004c 10000000 		.4byte	.LVL8
 4295 0050 12000000 		.4byte	.LVL9
 4296 0054 0100     		.2byte	0x1
 4297 0056 50       		.byte	0x50
 4298 0057 12000000 		.4byte	.LVL9
 4299 005b 15000000 		.4byte	.LVL10-1
 4300 005f 0300     		.2byte	0x3
 4301 0061 70       		.byte	0x70
 4302 0062 0E       		.sleb128 14
 4303 0063 9F       		.byte	0x9f
 4304 0064 15000000 		.4byte	.LVL10-1
 4305 0068 16000000 		.4byte	.LVL10
 4306 006c 0400     		.2byte	0x4
 4307 006e F3       		.byte	0xf3
 4308 006f 01       		.uleb128 0x1
 4309 0070 50       		.byte	0x50
 4310 0071 9F       		.byte	0x9f
 4311 0072 16000000 		.4byte	.LVL10
 4312 0076 19000000 		.4byte	.LVL11-1
 4313 007a 0100     		.2byte	0x1
 4314 007c 50       		.byte	0x50
 4315 007d 19000000 		.4byte	.LVL11-1
 4316 0081 20000000 		.4byte	.LFE262
 4317 0085 0400     		.2byte	0x4
 4318 0087 F3       		.byte	0xf3
 4319 0088 01       		.uleb128 0x1
 4320 0089 50       		.byte	0x50
 4321 008a 9F       		.byte	0x9f
 4322 008b 00000000 		.4byte	0
ARM GAS  /tmp/cccegR9C.s 			page 77


 4323 008f 00000000 		.4byte	0
 4324              	.LLST3:
 4325 0093 00000000 		.4byte	.LVL6
 4326 0097 0F000000 		.4byte	.LVL8-1
 4327 009b 0100     		.2byte	0x1
 4328 009d 51       		.byte	0x51
 4329 009e 0F000000 		.4byte	.LVL8-1
 4330 00a2 10000000 		.4byte	.LVL8
 4331 00a6 0400     		.2byte	0x4
 4332 00a8 F3       		.byte	0xf3
 4333 00a9 01       		.uleb128 0x1
 4334 00aa 51       		.byte	0x51
 4335 00ab 9F       		.byte	0x9f
 4336 00ac 10000000 		.4byte	.LVL8
 4337 00b0 15000000 		.4byte	.LVL10-1
 4338 00b4 0100     		.2byte	0x1
 4339 00b6 51       		.byte	0x51
 4340 00b7 15000000 		.4byte	.LVL10-1
 4341 00bb 16000000 		.4byte	.LVL10
 4342 00bf 0400     		.2byte	0x4
 4343 00c1 F3       		.byte	0xf3
 4344 00c2 01       		.uleb128 0x1
 4345 00c3 51       		.byte	0x51
 4346 00c4 9F       		.byte	0x9f
 4347 00c5 16000000 		.4byte	.LVL10
 4348 00c9 19000000 		.4byte	.LVL11-1
 4349 00cd 0100     		.2byte	0x1
 4350 00cf 51       		.byte	0x51
 4351 00d0 19000000 		.4byte	.LVL11-1
 4352 00d4 20000000 		.4byte	.LFE262
 4353 00d8 0400     		.2byte	0x4
 4354 00da F3       		.byte	0xf3
 4355 00db 01       		.uleb128 0x1
 4356 00dc 51       		.byte	0x51
 4357 00dd 9F       		.byte	0x9f
 4358 00de 00000000 		.4byte	0
 4359 00e2 00000000 		.4byte	0
 4360              	.LLST4:
 4361 00e6 00000000 		.4byte	.LVL12
 4362 00ea 23000000 		.4byte	.LVL14-1
 4363 00ee 0100     		.2byte	0x1
 4364 00f0 50       		.byte	0x50
 4365 00f1 23000000 		.4byte	.LVL14-1
 4366 00f5 9A030000 		.4byte	.LFE259
 4367 00f9 0400     		.2byte	0x4
 4368 00fb F3       		.byte	0xf3
 4369 00fc 01       		.uleb128 0x1
 4370 00fd 50       		.byte	0x50
 4371 00fe 9F       		.byte	0x9f
 4372 00ff 00000000 		.4byte	0
 4373 0103 00000000 		.4byte	0
 4374              	.LLST5:
 4375 0107 1E000000 		.4byte	.LVL13
 4376 010b 32000000 		.4byte	.LVL15
 4377 010f 0600     		.2byte	0x6
 4378 0111 9E       		.byte	0x9e
 4379 0112 04       		.uleb128 0x4
ARM GAS  /tmp/cccegR9C.s 			page 78


 4380 0113 00000000 		.4byte	0
 4381 0117 B2020000 		.4byte	.LVL89
 4382 011b C0020000 		.4byte	.LVL90
 4383 011f 0200     		.2byte	0x2
 4384 0121 90       		.byte	0x90
 4385 0122 40       		.uleb128 0x40
 4386 0123 00000000 		.4byte	0
 4387 0127 00000000 		.4byte	0
 4388              	.LLST6:
 4389 012b 24000000 		.4byte	.LVL14
 4390 012f 34000000 		.4byte	.LVL16
 4391 0133 0100     		.2byte	0x1
 4392 0135 50       		.byte	0x50
 4393 0136 B8000000 		.4byte	.LVL33
 4394 013a DE000000 		.4byte	.LVL37
 4395 013e 0100     		.2byte	0x1
 4396 0140 50       		.byte	0x50
 4397 0141 6E010000 		.4byte	.LVL52
 4398 0145 70010000 		.4byte	.LVL53
 4399 0149 0100     		.2byte	0x1
 4400 014b 50       		.byte	0x50
 4401 014c 08020000 		.4byte	.LVL68
 4402 0150 0A020000 		.4byte	.LVL69
 4403 0154 0100     		.2byte	0x1
 4404 0156 50       		.byte	0x50
 4405 0157 32020000 		.4byte	.LVL75
 4406 015b 34020000 		.4byte	.LVL76
 4407 015f 0100     		.2byte	0x1
 4408 0161 50       		.byte	0x50
 4409 0162 56020000 		.4byte	.LVL81
 4410 0166 58020000 		.4byte	.LVL82
 4411 016a 0100     		.2byte	0x1
 4412 016c 50       		.byte	0x50
 4413 016d 68020000 		.4byte	.LVL86
 4414 0171 72020000 		.4byte	.LVL87
 4415 0175 0100     		.2byte	0x1
 4416 0177 50       		.byte	0x50
 4417 0178 8C030000 		.4byte	.LVL106
 4418 017c 8E030000 		.4byte	.LVL107
 4419 0180 0100     		.2byte	0x1
 4420 0182 50       		.byte	0x50
 4421 0183 00000000 		.4byte	0
 4422 0187 00000000 		.4byte	0
 4423              	.LLST7:
 4424 018b C8000000 		.4byte	.LVL35
 4425 018f 16010000 		.4byte	.LVL42
 4426 0193 0100     		.2byte	0x1
 4427 0195 54       		.byte	0x54
 4428 0196 6E010000 		.4byte	.LVL52
 4429 019a A8010000 		.4byte	.LVL58
 4430 019e 0100     		.2byte	0x1
 4431 01a0 54       		.byte	0x54
 4432 01a1 08020000 		.4byte	.LVL68
 4433 01a5 0A020000 		.4byte	.LVL69
 4434 01a9 0100     		.2byte	0x1
 4435 01ab 54       		.byte	0x54
 4436 01ac 32020000 		.4byte	.LVL75
ARM GAS  /tmp/cccegR9C.s 			page 79


 4437 01b0 34020000 		.4byte	.LVL76
 4438 01b4 0100     		.2byte	0x1
 4439 01b6 54       		.byte	0x54
 4440 01b7 56020000 		.4byte	.LVL81
 4441 01bb 72020000 		.4byte	.LVL87
 4442 01bf 0100     		.2byte	0x1
 4443 01c1 54       		.byte	0x54
 4444 01c2 8C030000 		.4byte	.LVL106
 4445 01c6 9A030000 		.4byte	.LFE259
 4446 01ca 0100     		.2byte	0x1
 4447 01cc 54       		.byte	0x54
 4448 01cd 00000000 		.4byte	0
 4449 01d1 00000000 		.4byte	0
 4450              	.LLST8:
 4451 01d5 DE000000 		.4byte	.LVL37
 4452 01d9 FC000000 		.4byte	.LVL39
 4453 01dd 0100     		.2byte	0x1
 4454 01df 56       		.byte	0x56
 4455 01e0 FC000000 		.4byte	.LVL39
 4456 01e4 00010000 		.4byte	.LVL40
 4457 01e8 0300     		.2byte	0x3
 4458 01ea 76       		.byte	0x76
 4459 01eb 7F       		.sleb128 -1
 4460 01ec 9F       		.byte	0x9f
 4461 01ed 00010000 		.4byte	.LVL40
 4462 01f1 06010000 		.4byte	.LVL41
 4463 01f5 0100     		.2byte	0x1
 4464 01f7 56       		.byte	0x56
 4465 01f8 00000000 		.4byte	0
 4466 01fc 00000000 		.4byte	0
 4467              	.LLST9:
 4468 0200 18010000 		.4byte	.LVL43
 4469 0204 38010000 		.4byte	.LVL47
 4470 0208 0300     		.2byte	0x3
 4471 020a 08       		.byte	0x8
 4472 020b 20       		.byte	0x20
 4473 020c 9F       		.byte	0x9f
 4474 020d 3C010000 		.4byte	.LVL48
 4475 0211 6E010000 		.4byte	.LVL52
 4476 0215 0300     		.2byte	0x3
 4477 0217 08       		.byte	0x8
 4478 0218 20       		.byte	0x20
 4479 0219 9F       		.byte	0x9f
 4480 021a 00000000 		.4byte	0
 4481 021e 00000000 		.4byte	0
 4482              	.LLST10:
 4483 0222 18010000 		.4byte	.LVL43
 4484 0226 38010000 		.4byte	.LVL47
 4485 022a 0200     		.2byte	0x2
 4486 022c 30       		.byte	0x30
 4487 022d 9F       		.byte	0x9f
 4488 022e 48010000 		.4byte	.LVL49
 4489 0232 6E010000 		.4byte	.LVL52
 4490 0236 0200     		.2byte	0x2
 4491 0238 30       		.byte	0x30
 4492 0239 9F       		.byte	0x9f
 4493 023a 00000000 		.4byte	0
ARM GAS  /tmp/cccegR9C.s 			page 80


 4494 023e 00000000 		.4byte	0
 4495              	.LLST11:
 4496 0242 70010000 		.4byte	.LVL53
 4497 0246 8E010000 		.4byte	.LVL55
 4498 024a 0100     		.2byte	0x1
 4499 024c 56       		.byte	0x56
 4500 024d 8E010000 		.4byte	.LVL55
 4501 0251 92010000 		.4byte	.LVL56
 4502 0255 0300     		.2byte	0x3
 4503 0257 76       		.byte	0x76
 4504 0258 7F       		.sleb128 -1
 4505 0259 9F       		.byte	0x9f
 4506 025a 92010000 		.4byte	.LVL56
 4507 025e 98010000 		.4byte	.LVL57
 4508 0262 0100     		.2byte	0x1
 4509 0264 56       		.byte	0x56
 4510 0265 00000000 		.4byte	0
 4511 0269 00000000 		.4byte	0
 4512              	.LLST12:
 4513 026d AA010000 		.4byte	.LVL59
 4514 0271 CE010000 		.4byte	.LVL63
 4515 0275 0300     		.2byte	0x3
 4516 0277 08       		.byte	0x8
 4517 0278 20       		.byte	0x20
 4518 0279 9F       		.byte	0x9f
 4519 027a D2010000 		.4byte	.LVL64
 4520 027e 08020000 		.4byte	.LVL68
 4521 0282 0300     		.2byte	0x3
 4522 0284 08       		.byte	0x8
 4523 0285 20       		.byte	0x20
 4524 0286 9F       		.byte	0x9f
 4525 0287 00000000 		.4byte	0
 4526 028b 00000000 		.4byte	0
 4527              	.LLST13:
 4528 028f AA010000 		.4byte	.LVL59
 4529 0293 CE010000 		.4byte	.LVL63
 4530 0297 0200     		.2byte	0x2
 4531 0299 30       		.byte	0x30
 4532 029a 9F       		.byte	0x9f
 4533 029b E0010000 		.4byte	.LVL65
 4534 029f 08020000 		.4byte	.LVL68
 4535 02a3 0200     		.2byte	0x2
 4536 02a5 30       		.byte	0x30
 4537 02a6 9F       		.byte	0x9f
 4538 02a7 00000000 		.4byte	0
 4539 02ab 00000000 		.4byte	0
 4540              	.LLST14:
 4541 02af 0A020000 		.4byte	.LVL69
 4542 02b3 1E020000 		.4byte	.LVL71
 4543 02b7 0100     		.2byte	0x1
 4544 02b9 54       		.byte	0x54
 4545 02ba 1E020000 		.4byte	.LVL71
 4546 02be 22020000 		.4byte	.LVL72
 4547 02c2 0300     		.2byte	0x3
 4548 02c4 74       		.byte	0x74
 4549 02c5 7F       		.sleb128 -1
 4550 02c6 9F       		.byte	0x9f
ARM GAS  /tmp/cccegR9C.s 			page 81


 4551 02c7 22020000 		.4byte	.LVL72
 4552 02cb 2A020000 		.4byte	.LVL73
 4553 02cf 0100     		.2byte	0x1
 4554 02d1 54       		.byte	0x54
 4555 02d2 00000000 		.4byte	0
 4556 02d6 00000000 		.4byte	0
 4557              	.LLST15:
 4558 02da 34020000 		.4byte	.LVL76
 4559 02de 48020000 		.4byte	.LVL78
 4560 02e2 0100     		.2byte	0x1
 4561 02e4 54       		.byte	0x54
 4562 02e5 48020000 		.4byte	.LVL78
 4563 02e9 4C020000 		.4byte	.LVL79
 4564 02ed 0300     		.2byte	0x3
 4565 02ef 74       		.byte	0x74
 4566 02f0 7F       		.sleb128 -1
 4567 02f1 9F       		.byte	0x9f
 4568 02f2 4C020000 		.4byte	.LVL79
 4569 02f6 56020000 		.4byte	.LVL81
 4570 02fa 0100     		.2byte	0x1
 4571 02fc 54       		.byte	0x54
 4572 02fd 00000000 		.4byte	0
 4573 0301 00000000 		.4byte	0
 4574              	.LLST16:
 4575 0305 B2020000 		.4byte	.LVL89
 4576 0309 C0020000 		.4byte	.LVL90
 4577 030d 0200     		.2byte	0x2
 4578 030f 30       		.byte	0x30
 4579 0310 9F       		.byte	0x9f
 4580 0311 C0020000 		.4byte	.LVL90
 4581 0315 D1020000 		.4byte	.LVL91-1
 4582 0319 0100     		.2byte	0x1
 4583 031b 50       		.byte	0x50
 4584 031c D1020000 		.4byte	.LVL91-1
 4585 0320 06030000 		.4byte	.LVL96
 4586 0324 0100     		.2byte	0x1
 4587 0326 5B       		.byte	0x5b
 4588 0327 06030000 		.4byte	.LVL96
 4589 032b 0E030000 		.4byte	.LVL97
 4590 032f 0300     		.2byte	0x3
 4591 0331 7B       		.byte	0x7b
 4592 0332 7F       		.sleb128 -1
 4593 0333 9F       		.byte	0x9f
 4594 0334 0E030000 		.4byte	.LVL97
 4595 0338 64030000 		.4byte	.LVL100
 4596 033c 0100     		.2byte	0x1
 4597 033e 5B       		.byte	0x5b
 4598 033f 64030000 		.4byte	.LVL100
 4599 0343 6B030000 		.4byte	.LVL101-1
 4600 0347 0100     		.2byte	0x1
 4601 0349 50       		.byte	0x50
 4602 034a 6B030000 		.4byte	.LVL101-1
 4603 034e 78030000 		.4byte	.LVL103
 4604 0352 0100     		.2byte	0x1
 4605 0354 5B       		.byte	0x5b
 4606 0355 78030000 		.4byte	.LVL103
 4607 0359 7F030000 		.4byte	.LVL104-1
ARM GAS  /tmp/cccegR9C.s 			page 82


 4608 035d 0100     		.2byte	0x1
 4609 035f 50       		.byte	0x50
 4610 0360 7F030000 		.4byte	.LVL104-1
 4611 0364 8C030000 		.4byte	.LVL106
 4612 0368 0100     		.2byte	0x1
 4613 036a 5B       		.byte	0x5b
 4614 036b 00000000 		.4byte	0
 4615 036f 00000000 		.4byte	0
 4616              	.LLST17:
 4617 0373 5A000000 		.4byte	.LVL22
 4618 0377 6C000000 		.4byte	.LVL23
 4619 037b 0600     		.2byte	0x6
 4620 037d 9E       		.byte	0x9e
 4621 037e 04       		.uleb128 0x4
 4622 037f 0000803F 		.4byte	0x3f800000
 4623 0383 6C000000 		.4byte	.LVL23
 4624 0387 AE000000 		.4byte	.LVL31
 4625 038b 0200     		.2byte	0x2
 4626 038d 90       		.byte	0x90
 4627 038e 50       		.uleb128 0x50
 4628 038f 00000000 		.4byte	0
 4629 0393 00000000 		.4byte	0
 4630              	.LLST18:
 4631 0397 38000000 		.4byte	.LVL17
 4632 039b 3A000000 		.4byte	.LVL18
 4633 039f 0200     		.2byte	0x2
 4634 03a1 30       		.byte	0x30
 4635 03a2 9F       		.byte	0x9f
 4636 03a3 3A000000 		.4byte	.LVL18
 4637 03a7 46000000 		.4byte	.LVL20
 4638 03ab 0100     		.2byte	0x1
 4639 03ad 54       		.byte	0x54
 4640 03ae 46000000 		.4byte	.LVL20
 4641 03b2 4E000000 		.4byte	.LVL21
 4642 03b6 0300     		.2byte	0x3
 4643 03b8 74       		.byte	0x74
 4644 03b9 7F       		.sleb128 -1
 4645 03ba 9F       		.byte	0x9f
 4646 03bb 4E000000 		.4byte	.LVL21
 4647 03bf 6C000000 		.4byte	.LVL23
 4648 03c3 0100     		.2byte	0x1
 4649 03c5 54       		.byte	0x54
 4650 03c6 00000000 		.4byte	0
 4651 03ca 00000000 		.4byte	0
 4652              	.LLST19:
 4653 03ce 5A000000 		.4byte	.LVL22
 4654 03d2 6C000000 		.4byte	.LVL23
 4655 03d6 0200     		.2byte	0x2
 4656 03d8 30       		.byte	0x30
 4657 03d9 9F       		.byte	0x9f
 4658 03da 6C000000 		.4byte	.LVL23
 4659 03de AA000000 		.4byte	.LVL29
 4660 03e2 0600     		.2byte	0x6
 4661 03e4 08       		.byte	0x8
 4662 03e5 32       		.byte	0x32
 4663 03e6 76       		.byte	0x76
 4664 03e7 00       		.sleb128 0
ARM GAS  /tmp/cccegR9C.s 			page 83


 4665 03e8 1C       		.byte	0x1c
 4666 03e9 9F       		.byte	0x9f
 4667 03ea AA000000 		.4byte	.LVL29
 4668 03ee AC000000 		.4byte	.LVL30
 4669 03f2 0600     		.2byte	0x6
 4670 03f4 08       		.byte	0x8
 4671 03f5 33       		.byte	0x33
 4672 03f6 76       		.byte	0x76
 4673 03f7 00       		.sleb128 0
 4674 03f8 1C       		.byte	0x1c
 4675 03f9 9F       		.byte	0x9f
 4676 03fa AC000000 		.4byte	.LVL30
 4677 03fe AE000000 		.4byte	.LVL31
 4678 0402 0600     		.2byte	0x6
 4679 0404 08       		.byte	0x8
 4680 0405 32       		.byte	0x32
 4681 0406 76       		.byte	0x76
 4682 0407 00       		.sleb128 0
 4683 0408 1C       		.byte	0x1c
 4684 0409 9F       		.byte	0x9f
 4685 040a 00000000 		.4byte	0
 4686 040e 00000000 		.4byte	0
 4687              	.LLST20:
 4688 0412 70000000 		.4byte	.LVL24
 4689 0416 AE000000 		.4byte	.LVL31
 4690 041a 0500     		.2byte	0x5
 4691 041c 08       		.byte	0x8
 4692 041d FF       		.byte	0xff
 4693 041e 40       		.byte	0x40
 4694 041f 24       		.byte	0x24
 4695 0420 9F       		.byte	0x9f
 4696 0421 00000000 		.4byte	0
 4697 0425 00000000 		.4byte	0
 4698              	.LLST21:
 4699 0429 70000000 		.4byte	.LVL24
 4700 042d AE000000 		.4byte	.LVL31
 4701 0431 0200     		.2byte	0x2
 4702 0433 90       		.byte	0x90
 4703 0434 50       		.uleb128 0x50
 4704 0435 00000000 		.4byte	0
 4705 0439 00000000 		.4byte	0
 4706              	.LLST22:
 4707 043d 70000000 		.4byte	.LVL24
 4708 0441 AE000000 		.4byte	.LVL31
 4709 0445 0E00     		.2byte	0xe
 4710 0447 F5       		.byte	0xf5
 4711 0448 50       		.uleb128 0x50
 4712 0449 25       		.uleb128 0x25
 4713 044a F4       		.byte	0xf4
 4714 044b 25       		.uleb128 0x25
 4715 044c 04       		.byte	0x4
 4716 044d 00007F43 		.4byte	0x437f0000
 4717 0451 1E       		.byte	0x1e
 4718 0452 F7       		.byte	0xf7
 4719 0453 2C       		.uleb128 0x2c
 4720 0454 9F       		.byte	0x9f
 4721 0455 00000000 		.4byte	0
ARM GAS  /tmp/cccegR9C.s 			page 84


 4722 0459 00000000 		.4byte	0
 4723              	.LLST23:
 4724 045d 70000000 		.4byte	.LVL24
 4725 0461 88000000 		.4byte	.LVL25
 4726 0465 0200     		.2byte	0x2
 4727 0467 30       		.byte	0x30
 4728 0468 9F       		.byte	0x9f
 4729 0469 88000000 		.4byte	.LVL25
 4730 046d 94000000 		.4byte	.LVL26
 4731 0471 0100     		.2byte	0x1
 4732 0473 54       		.byte	0x54
 4733 0474 94000000 		.4byte	.LVL26
 4734 0478 AE000000 		.4byte	.LVL31
 4735 047c 0C00     		.2byte	0xc
 4736 047e F5       		.byte	0xf5
 4737 047f 50       		.uleb128 0x50
 4738 0480 25       		.uleb128 0x25
 4739 0481 F5       		.byte	0xf5
 4740 0482 52       		.uleb128 0x52
 4741 0483 25       		.uleb128 0x25
 4742 0484 1E       		.byte	0x1e
 4743 0485 F7       		.byte	0xf7
 4744 0486 25       		.uleb128 0x25
 4745 0487 F7       		.byte	0xf7
 4746 0488 2C       		.uleb128 0x2c
 4747 0489 9F       		.byte	0x9f
 4748 048a 00000000 		.4byte	0
 4749 048e 00000000 		.4byte	0
 4750              	.LLST25:
 4751 0492 94000000 		.4byte	.LVL26
 4752 0496 9C000000 		.4byte	.LVL27
 4753 049a 0100     		.2byte	0x1
 4754 049c 5B       		.byte	0x5b
 4755 049d 9C000000 		.4byte	.LVL27
 4756 04a1 9F000000 		.4byte	.LVL28-1
 4757 04a5 0100     		.2byte	0x1
 4758 04a7 50       		.byte	0x50
 4759 04a8 9F000000 		.4byte	.LVL28-1
 4760 04ac A0000000 		.4byte	.LVL28
 4761 04b0 0300     		.2byte	0x3
 4762 04b2 7B       		.byte	0x7b
 4763 04b3 7F       		.sleb128 -1
 4764 04b4 9F       		.byte	0x9f
 4765 04b5 A0000000 		.4byte	.LVL28
 4766 04b9 AE000000 		.4byte	.LVL31
 4767 04bd 0100     		.2byte	0x1
 4768 04bf 5B       		.byte	0x5b
 4769 04c0 00000000 		.4byte	0
 4770 04c4 00000000 		.4byte	0
 4771              		.section	.debug_aranges,"",%progbits
 4772 0000 44000000 		.4byte	0x44
 4773 0004 0200     		.2byte	0x2
 4774 0006 00000000 		.4byte	.Ldebug_info0
 4775 000a 04       		.byte	0x4
 4776 000b 00       		.byte	0
 4777 000c 0000     		.2byte	0
 4778 000e 0000     		.2byte	0
ARM GAS  /tmp/cccegR9C.s 			page 85


 4779 0010 00000000 		.4byte	.LFB261
 4780 0014 38000000 		.4byte	.LFE261-.LFB261
 4781 0018 00000000 		.4byte	.LFB262
 4782 001c 20000000 		.4byte	.LFE262-.LFB262
 4783 0020 00000000 		.4byte	.LFB259
 4784 0024 9A030000 		.4byte	.LFE259-.LFB259
 4785 0028 00000000 		.4byte	.LFB256
 4786 002c 34000000 		.4byte	.LFE256-.LFB256
 4787 0030 00000000 		.4byte	.LFB257
 4788 0034 0C000000 		.4byte	.LFE257-.LFB257
 4789 0038 00000000 		.4byte	.LFB258
 4790 003c 0C000000 		.4byte	.LFE258-.LFB258
 4791 0040 00000000 		.4byte	0
 4792 0044 00000000 		.4byte	0
 4793              		.section	.debug_ranges,"",%progbits
 4794              	.Ldebug_ranges0:
 4795 0000 04000000 		.4byte	.LBB110
 4796 0004 14000000 		.4byte	.LBE110
 4797 0008 1C000000 		.4byte	.LBB177
 4798 000c 1E000000 		.4byte	.LBE177
 4799 0010 00000000 		.4byte	0
 4800 0014 00000000 		.4byte	0
 4801 0018 14000000 		.4byte	.LBB113
 4802 001c 18000000 		.4byte	.LBE113
 4803 0020 20000000 		.4byte	.LBB178
 4804 0024 9A030000 		.4byte	.LBE178
 4805 0028 00000000 		.4byte	0
 4806 002c 00000000 		.4byte	0
 4807 0030 14000000 		.4byte	.LBB114
 4808 0034 18000000 		.4byte	.LBE114
 4809 0038 24000000 		.4byte	.LBB160
 4810 003c 2C000000 		.4byte	.LBE160
 4811 0040 BE000000 		.4byte	.LBB173
 4812 0044 2A020000 		.4byte	.LBE173
 4813 0048 32020000 		.4byte	.LBB174
 4814 004c 60020000 		.4byte	.LBE174
 4815 0050 68020000 		.4byte	.LBB175
 4816 0054 24030000 		.4byte	.LBE175
 4817 0058 64030000 		.4byte	.LBB176
 4818 005c 92030000 		.4byte	.LBE176
 4819 0060 00000000 		.4byte	0
 4820 0064 00000000 		.4byte	0
 4821 0068 14010000 		.4byte	.LBB116
 4822 006c 18010000 		.4byte	.LBE116
 4823 0070 40010000 		.4byte	.LBB134
 4824 0074 4C010000 		.4byte	.LBE134
 4825 0078 00000000 		.4byte	0
 4826 007c 00000000 		.4byte	0
 4827 0080 14010000 		.4byte	.LBB118
 4828 0084 18010000 		.4byte	.LBE118
 4829 0088 40010000 		.4byte	.LBB125
 4830 008c 44010000 		.4byte	.LBE125
 4831 0090 00000000 		.4byte	0
 4832 0094 00000000 		.4byte	0
 4833 0098 A6010000 		.4byte	.LBB136
 4834 009c AA010000 		.4byte	.LBE136
 4835 00a0 D8010000 		.4byte	.LBB154
ARM GAS  /tmp/cccegR9C.s 			page 86


 4836 00a4 E4010000 		.4byte	.LBE154
 4837 00a8 00000000 		.4byte	0
 4838 00ac 00000000 		.4byte	0
 4839 00b0 A6010000 		.4byte	.LBB138
 4840 00b4 AA010000 		.4byte	.LBE138
 4841 00b8 D8010000 		.4byte	.LBB145
 4842 00bc DC010000 		.4byte	.LBE145
 4843 00c0 00000000 		.4byte	0
 4844 00c4 00000000 		.4byte	0
 4845 00c8 B6020000 		.4byte	.LBB157
 4846 00cc BC020000 		.4byte	.LBE157
 4847 00d0 C0020000 		.4byte	.LBB158
 4848 00d4 18030000 		.4byte	.LBE158
 4849 00d8 64030000 		.4byte	.LBB159
 4850 00dc 8C030000 		.4byte	.LBE159
 4851 00e0 00000000 		.4byte	0
 4852 00e4 00000000 		.4byte	0
 4853 00e8 5A000000 		.4byte	.LBB163
 4854 00ec 66000000 		.4byte	.LBE163
 4855 00f0 6C000000 		.4byte	.LBB172
 4856 00f4 AE000000 		.4byte	.LBE172
 4857 00f8 00000000 		.4byte	0
 4858 00fc 00000000 		.4byte	0
 4859 0100 5A000000 		.4byte	.LBB164
 4860 0104 66000000 		.4byte	.LBE164
 4861 0108 6C000000 		.4byte	.LBB171
 4862 010c AA000000 		.4byte	.LBE171
 4863 0110 00000000 		.4byte	0
 4864 0114 00000000 		.4byte	0
 4865 0118 5E000000 		.4byte	.LBB165
 4866 011c 66000000 		.4byte	.LBE165
 4867 0120 74000000 		.4byte	.LBB169
 4868 0124 94000000 		.4byte	.LBE169
 4869 0128 00000000 		.4byte	0
 4870 012c 00000000 		.4byte	0
 4871 0130 70000000 		.4byte	.LBB168
 4872 0134 74000000 		.4byte	.LBE168
 4873 0138 94000000 		.4byte	.LBB170
 4874 013c A4000000 		.4byte	.LBE170
 4875 0140 00000000 		.4byte	0
 4876 0144 00000000 		.4byte	0
 4877 0148 00000000 		.4byte	.LFB261
 4878 014c 38000000 		.4byte	.LFE261
 4879 0150 00000000 		.4byte	.LFB262
 4880 0154 20000000 		.4byte	.LFE262
 4881 0158 00000000 		.4byte	.LFB259
 4882 015c 9A030000 		.4byte	.LFE259
 4883 0160 00000000 		.4byte	.LFB256
 4884 0164 34000000 		.4byte	.LFE256
 4885 0168 00000000 		.4byte	.LFB257
 4886 016c 0C000000 		.4byte	.LFE257
 4887 0170 00000000 		.4byte	.LFB258
 4888 0174 0C000000 		.4byte	.LFE258
 4889 0178 00000000 		.4byte	0
 4890 017c 00000000 		.4byte	0
 4891              		.section	.debug_line,"",%progbits
 4892              	.Ldebug_line0:
ARM GAS  /tmp/cccegR9C.s 			page 87


 4893 0000 3F040000 		.section	.debug_str,"MS",%progbits,1
 4893      02002702 
 4893      00000201 
 4893      FB0E0D00 
 4893      01010101 
 4894              	.LASF107:
 4895 0000 7466756E 		.ascii	"tfunc_t\000"
 4895      635F7400 
 4896              	.LASF140:
 4897 0008 7363616C 		.ascii	"scale\000"
 4897      6500
 4898              	.LASF57:
 4899 000e 72656164 		.ascii	"ready_list_t\000"
 4899      795F6C69 
 4899      73745F74 
 4899      00
 4900              	.LASF20:
 4901 001b 73697A65 		.ascii	"size_t\000"
 4901      5F7400
 4902              	.LASF92:
 4903 0022 7264796D 		.ascii	"rdymsg\000"
 4903      736700
 4904              	.LASF126:
 4905 0029 4C45445F 		.ascii	"LED_EXT_STATE\000"
 4905      4558545F 
 4905      53544154 
 4905      4500
 4906              	.LASF19:
 4907 0037 75696E74 		.ascii	"uint64_t\000"
 4907      36345F74 
 4907      00
 4908              	.LASF110:
 4909 0040 4641554C 		.ascii	"FAULT_CODE_OVER_VOLTAGE\000"
 4909      545F434F 
 4909      44455F4F 
 4909      5645525F 
 4909      564F4C54 
 4910              	.LASF5:
 4911 0058 5F5F7569 		.ascii	"__uint8_t\000"
 4911      6E74385F 
 4911      7400
 4912              	.LASF89:
 4913 0062 706F7274 		.ascii	"port_intctx\000"
 4913      5F696E74 
 4913      63747800 
 4914              	.LASF82:
 4915 006e 76746C69 		.ascii	"vtlist\000"
 4915      737400
 4916              	.LASF112:
 4917 0075 4641554C 		.ascii	"FAULT_CODE_DRV\000"
 4917      545F434F 
 4917      44455F44 
 4917      525600
 4918              	.LASF127:
 4919 0084 706F7274 		.ascii	"port_lock\000"
 4919      5F6C6F63 
 4919      6B00
ARM GAS  /tmp/cccegR9C.s 			page 88


 4920              	.LASF118:
 4921 008e 4C45445F 		.ascii	"LED_EXT_OFF\000"
 4921      4558545F 
 4921      4F464600 
 4922              	.LASF14:
 4923 009a 6C6F6E67 		.ascii	"long long unsigned int\000"
 4923      206C6F6E 
 4923      6720756E 
 4923      7369676E 
 4923      65642069 
 4924              	.LASF83:
 4925 00b1 6D61696E 		.ascii	"mainthread\000"
 4925      74687265 
 4925      616400
 4926              	.LASF73:
 4927 00bc 76697274 		.ascii	"virtual_timers_list_t\000"
 4927      75616C5F 
 4927      74696D65 
 4927      72735F6C 
 4927      6973745F 
 4928              	.LASF158:
 4929 00d2 49544D5F 		.ascii	"ITM_RxBuffer\000"
 4929      52784275 
 4929      66666572 
 4929      00
 4930              	.LASF56:
 4931 00df 63685F74 		.ascii	"ch_threads_queue\000"
 4931      68726561 
 4931      64735F71 
 4931      75657565 
 4931      00
 4932              	.LASF111:
 4933 00f0 4641554C 		.ascii	"FAULT_CODE_UNDER_VOLTAGE\000"
 4933      545F434F 
 4933      44455F55 
 4933      4E444552 
 4933      5F564F4C 
 4934              	.LASF34:
 4935 0109 705F7072 		.ascii	"p_prio\000"
 4935      696F00
 4936              	.LASF165:
 4937 0110 6C65645F 		.ascii	"led_external.c\000"
 4937      65787465 
 4937      726E616C 
 4937      2E6300
 4938              	.LASF12:
 4939 011f 6C6F6E67 		.ascii	"long long int\000"
 4939      206C6F6E 
 4939      6720696E 
 4939      7400
 4940              	.LASF2:
 4941 012d 7369676E 		.ascii	"signed char\000"
 4941      65642063 
 4941      68617200 
 4942              	.LASF152:
 4943 0139 6E65775F 		.ascii	"new_state\000"
 4943      73746174 
ARM GAS  /tmp/cccegR9C.s 			page 89


 4943      6500
 4944              	.LASF50:
 4945 0143 705F6D70 		.ascii	"p_mpool\000"
 4945      6F6F6C00 
 4946              	.LASF103:
 4947 014b 6D5F7175 		.ascii	"m_queue\000"
 4947      65756500 
 4948              	.LASF146:
 4949 0153 6661756C 		.ascii	"fault\000"
 4949      7400
 4950              	.LASF128:
 4951 0159 706F7274 		.ascii	"port_unlock\000"
 4951      5F756E6C 
 4951      6F636B00 
 4952              	.LASF25:
 4953 0165 74736C69 		.ascii	"tslices_t\000"
 4953      6365735F 
 4953      7400
 4954              	.LASF94:
 4955 016f 77746F62 		.ascii	"wtobjp\000"
 4955      6A7000
 4956              	.LASF156:
 4957 0176 73746174 		.ascii	"state\000"
 4957      6500
 4958              	.LASF80:
 4959 017c 63685F73 		.ascii	"ch_system\000"
 4959      79737465 
 4959      6D00
 4960              	.LASF9:
 4961 0186 6C6F6E67 		.ascii	"long int\000"
 4961      20696E74 
 4961      00
 4962              	.LASF113:
 4963 018f 4641554C 		.ascii	"FAULT_CODE_ABS_OVER_CURRENT\000"
 4963      545F434F 
 4963      44455F41 
 4963      42535F4F 
 4963      5645525F 
 4964              	.LASF169:
 4965 01ab 7574696C 		.ascii	"utils_map\000"
 4965      735F6D61 
 4965      7000
 4966              	.LASF124:
 4967 01b5 4C45445F 		.ascii	"LED_EXT_BRAKE_TURN_RIGHT\000"
 4967      4558545F 
 4967      4252414B 
 4967      455F5455 
 4967      524E5F52 
 4968              	.LASF16:
 4969 01ce 75696E74 		.ascii	"uint16_t\000"
 4969      31365F74 
 4969      00
 4970              	.LASF164:
 4971 01d7 474E5520 		.ascii	"GNU C 4.8.4 20141219 (release) -mcpu=cortex-m4 -mfl"
 4971      4320342E 
 4971      382E3420 
 4971      32303134 
ARM GAS  /tmp/cccegR9C.s 			page 90


 4971      31323139 
 4972 020a 6F61742D 		.ascii	"oat-abi=hard -mfpu=fpv4-sp-d16 -mno-thumb-interwork"
 4972      6162693D 
 4972      68617264 
 4972      202D6D66 
 4972      70753D66 
 4973 023d 202D6D74 		.ascii	" -mthumb -ggdb -O2 -std=gnu99 -fomit-frame-pointer "
 4973      68756D62 
 4973      202D6767 
 4973      6462202D 
 4973      4F32202D 
 4974 0270 2D66616C 		.ascii	"-falign-functions=16 -ffunction-sections -fdata-sec"
 4974      69676E2D 
 4974      66756E63 
 4974      74696F6E 
 4974      733D3136 
 4975 02a3 74696F6E 		.ascii	"tions -fno-common -fsingle-precision-constant\000"
 4975      73202D66 
 4975      6E6F2D63 
 4975      6F6D6D6F 
 4975      6E202D66 
 4976              	.LASF23:
 4977 02d1 74737461 		.ascii	"tstate_t\000"
 4977      74655F74 
 4977      00
 4978              	.LASF36:
 4979 02da 705F6E65 		.ascii	"p_newer\000"
 4979      77657200 
 4980              	.LASF100:
 4981 02e2 735F7175 		.ascii	"s_queue\000"
 4981      65756500 
 4982              	.LASF93:
 4983 02ea 65786974 		.ascii	"exitcode\000"
 4983      636F6465 
 4983      00
 4984              	.LASF62:
 4985 02f3 725F6E65 		.ascii	"r_newer\000"
 4985      77657200 
 4986              	.LASF86:
 4987 02fb 72656761 		.ascii	"regarm_t\000"
 4987      726D5F74 
 4987      00
 4988              	.LASF69:
 4989 0304 76745F70 		.ascii	"vt_prev\000"
 4989      72657600 
 4990              	.LASF166:
 4991 030c 2F686F6D 		.ascii	"/home/taylor/Programming/VESC/firmware\000"
 4991      652F7461 
 4991      796C6F72 
 4991      2F50726F 
 4991      6772616D 
 4992              	.LASF108:
 4993 0333 6D757465 		.ascii	"mutex_t\000"
 4993      785F7400 
 4994              	.LASF133:
 4995 033b 76616C75 		.ascii	"value\000"
 4995      6500
ARM GAS  /tmp/cccegR9C.s 			page 91


 4996              	.LASF84:
 4997 0341 69646C65 		.ascii	"idle_thread_wa\000"
 4997      5F746872 
 4997      6561645F 
 4997      776100
 4998              	.LASF74:
 4999 0350 63685F76 		.ascii	"ch_virtual_timers_list\000"
 4999      69727475 
 4999      616C5F74 
 4999      696D6572 
 4999      735F6C69 
 5000              	.LASF29:
 5001 0367 636E745F 		.ascii	"cnt_t\000"
 5001      7400
 5002              	.LASF167:
 5003 036d 63685654 		.ascii	"chVTGetSystemTimeX\000"
 5003      47657453 
 5003      79737465 
 5003      6D54696D 
 5003      655800
 5004              	.LASF1:
 5005 0380 756E7369 		.ascii	"unsigned int\000"
 5005      676E6564 
 5005      20696E74 
 5005      00
 5006              	.LASF68:
 5007 038d 76745F6E 		.ascii	"vt_next\000"
 5007      65787400 
 5008              	.LASF43:
 5009 0395 705F7469 		.ascii	"p_time\000"
 5009      6D6500
 5010              	.LASF96:
 5011 039c 77747365 		.ascii	"wtsemp\000"
 5011      6D7000
 5012              	.LASF70:
 5013 03a3 76745F64 		.ascii	"vt_delta\000"
 5013      656C7461 
 5013      00
 5014              	.LASF76:
 5015 03ac 73797374 		.ascii	"system_debug_t\000"
 5015      656D5F64 
 5015      65627567 
 5015      5F7400
 5016              	.LASF145:
 5017 03bb 62617474 		.ascii	"batt_level\000"
 5017      5F6C6576 
 5017      656C00
 5018              	.LASF101:
 5019 03c6 735F636E 		.ascii	"s_cnt\000"
 5019      7400
 5020              	.LASF134:
 5021 03cc 6E616D65 		.ascii	"name\000"
 5021      00
 5022              	.LASF88:
 5023 03d1 636F6E74 		.ascii	"context\000"
 5023      65787400 
 5024              	.LASF114:
ARM GAS  /tmp/cccegR9C.s 			page 92


 5025 03d9 4641554C 		.ascii	"FAULT_CODE_OVER_TEMP_FET\000"
 5025      545F434F 
 5025      44455F4F 
 5025      5645525F 
 5025      54454D50 
 5026              	.LASF53:
 5027 03f2 63685F74 		.ascii	"ch_thread\000"
 5027      68726561 
 5027      6400
 5028              	.LASF27:
 5029 03fc 6D73675F 		.ascii	"msg_t\000"
 5029      7400
 5030              	.LASF151:
 5031 0402 6C65645F 		.ascii	"led_external_set_state\000"
 5031      65787465 
 5031      726E616C 
 5031      5F736574 
 5031      5F737461 
 5032              	.LASF161:
 5033 0419 77733238 		.ascii	"ws2811_set_led_color\000"
 5033      31315F73 
 5033      65745F6C 
 5033      65645F63 
 5033      6F6C6F72 
 5034              	.LASF79:
 5035 042e 63685F73 		.ascii	"ch_system_t\000"
 5035      79737465 
 5035      6D5F7400 
 5036              	.LASF142:
 5037 043a 77616974 		.ascii	"wait_for_state_change\000"
 5037      5F666F72 
 5037      5F737461 
 5037      74655F63 
 5037      68616E67 
 5038              	.LASF22:
 5039 0450 746D6F64 		.ascii	"tmode_t\000"
 5039      655F7400 
 5040              	.LASF136:
 5041 0458 73797374 		.ascii	"systime\000"
 5041      696D6500 
 5042              	.LASF58:
 5043 0460 63685F72 		.ascii	"ch_ready_list\000"
 5043      65616479 
 5043      5F6C6973 
 5043      7400
 5044              	.LASF28:
 5045 046e 6576656E 		.ascii	"eventmask_t\000"
 5045      746D6173 
 5045      6B5F7400 
 5046              	.LASF8:
 5047 047a 5F5F696E 		.ascii	"__int32_t\000"
 5047      7433325F 
 5047      7400
 5048              	.LASF139:
 5049 0484 636F6C6F 		.ascii	"color\000"
 5049      7200
 5050              	.LASF87:
ARM GAS  /tmp/cccegR9C.s 			page 93


 5051 048a 73746B61 		.ascii	"stkalign_t\000"
 5051      6C69676E 
 5051      5F7400
 5052              	.LASF163:
 5053 0495 63685468 		.ascii	"chThdCreateStatic\000"
 5053      64437265 
 5053      61746553 
 5053      74617469 
 5053      6300
 5054              	.LASF60:
 5055 04a7 725F7072 		.ascii	"r_prio\000"
 5055      696F00
 5056              	.LASF150:
 5057 04ae 6C65645F 		.ascii	"led_external_init\000"
 5057      65787465 
 5057      726E616C 
 5057      5F696E69 
 5057      7400
 5058              	.LASF33:
 5059 04c0 705F7072 		.ascii	"p_prev\000"
 5059      657600
 5060              	.LASF147:
 5061 04c7 7265645F 		.ascii	"red_weak\000"
 5061      7765616B 
 5061      00
 5062              	.LASF162:
 5063 04d0 77733238 		.ascii	"ws2811_set_all\000"
 5063      31315F73 
 5063      65745F61 
 5063      6C6C00
 5064              	.LASF51:
 5065 04df 74687265 		.ascii	"thread_reference_t\000"
 5065      61645F72 
 5065      65666572 
 5065      656E6365 
 5065      5F7400
 5066              	.LASF141:
 5067 04f2 72657665 		.ascii	"reversed\000"
 5067      72736564 
 5067      00
 5068              	.LASF95:
 5069 04fb 77747472 		.ascii	"wttrp\000"
 5069      7000
 5070              	.LASF149:
 5071 0501 7265765F 		.ascii	"rev_last\000"
 5071      6C617374 
 5071      00
 5072              	.LASF91:
 5073 050a 746D5F63 		.ascii	"tm_calibration_t\000"
 5073      616C6962 
 5073      72617469 
 5073      6F6E5F74 
 5073      00
 5074              	.LASF159:
 5075 051b 4144435F 		.ascii	"ADC_Value\000"
 5075      56616C75 
 5075      6500
ARM GAS  /tmp/cccegR9C.s 			page 94


 5076              	.LASF37:
 5077 0525 705F6F6C 		.ascii	"p_older\000"
 5077      64657200 
 5078              	.LASF61:
 5079 052d 725F6374 		.ascii	"r_ctx\000"
 5079      7800
 5080              	.LASF109:
 5081 0533 4641554C 		.ascii	"FAULT_CODE_NONE\000"
 5081      545F434F 
 5081      44455F4E 
 5081      4F4E4500 
 5082              	.LASF71:
 5083 0543 76745F66 		.ascii	"vt_func\000"
 5083      756E6300 
 5084              	.LASF137:
 5085 054b 63685654 		.ascii	"chVTGetSystemTime\000"
 5085      47657453 
 5085      79737465 
 5085      6D54696D 
 5085      6500
 5086              	.LASF64:
 5087 055d 725F6375 		.ascii	"r_current\000"
 5087      7272656E 
 5087      7400
 5088              	.LASF63:
 5089 0567 725F6F6C 		.ascii	"r_older\000"
 5089      64657200 
 5090              	.LASF115:
 5091 056f 4641554C 		.ascii	"FAULT_CODE_OVER_TEMP_MOTOR\000"
 5091      545F434F 
 5091      44455F4F 
 5091      5645525F 
 5091      54454D50 
 5092              	.LASF13:
 5093 058a 5F5F7569 		.ascii	"__uint64_t\000"
 5093      6E743634 
 5093      5F7400
 5094              	.LASF0:
 5095 0595 666C6F61 		.ascii	"float\000"
 5095      7400
 5096              	.LASF24:
 5097 059b 74726566 		.ascii	"trefs_t\000"
 5097      735F7400 
 5098              	.LASF121:
 5099 05a3 4C45445F 		.ascii	"LED_EXT_TURN_LEFT\000"
 5099      4558545F 
 5099      5455524E 
 5099      5F4C4546 
 5099      5400
 5100              	.LASF66:
 5101 05b5 76697274 		.ascii	"virtual_timer_t\000"
 5101      75616C5F 
 5101      74696D65 
 5101      725F7400 
 5102              	.LASF119:
 5103 05c5 4C45445F 		.ascii	"LED_EXT_NORMAL\000"
 5103      4558545F 
ARM GAS  /tmp/cccegR9C.s 			page 95


 5103      4E4F524D 
 5103      414C00
 5104              	.LASF26:
 5105 05d4 74707269 		.ascii	"tprio_t\000"
 5105      6F5F7400 
 5106              	.LASF123:
 5107 05dc 4C45445F 		.ascii	"LED_EXT_BRAKE_TURN_LEFT\000"
 5107      4558545F 
 5107      4252414B 
 5107      455F5455 
 5107      524E5F4C 
 5108              	.LASF77:
 5109 05f4 63685F73 		.ascii	"ch_system_debug\000"
 5109      79737465 
 5109      6D5F6465 
 5109      62756700 
 5110              	.LASF117:
 5111 0604 5F426F6F 		.ascii	"_Bool\000"
 5111      6C00
 5112              	.LASF17:
 5113 060a 696E7433 		.ascii	"int32_t\000"
 5113      325F7400 
 5114              	.LASF3:
 5115 0612 756E7369 		.ascii	"unsigned char\000"
 5115      676E6564 
 5115      20636861 
 5115      7200
 5116              	.LASF154:
 5117 0620 6E657773 		.ascii	"newstate\000"
 5117      74617465 
 5117      00
 5118              	.LASF39:
 5119 0629 705F7374 		.ascii	"p_state\000"
 5119      61746500 
 5120              	.LASF48:
 5121 0631 705F6D74 		.ascii	"p_mtxlist\000"
 5121      786C6973 
 5121      7400
 5122              	.LASF4:
 5123 063b 73686F72 		.ascii	"short int\000"
 5123      7420696E 
 5123      7400
 5124              	.LASF42:
 5125 0645 705F7072 		.ascii	"p_preempt\000"
 5125      65656D70 
 5125      7400
 5126              	.LASF98:
 5127 064f 65776D61 		.ascii	"ewmask\000"
 5127      736B00
 5128              	.LASF32:
 5129 0656 705F6E65 		.ascii	"p_next\000"
 5129      787400
 5130              	.LASF40:
 5131 065d 705F666C 		.ascii	"p_flags\000"
 5131      61677300 
 5132              	.LASF135:
 5133 0665 5F5F6675 		.ascii	"__func__\000"
ARM GAS  /tmp/cccegR9C.s 			page 96


 5133      6E635F5F 
 5133      00
 5134              	.LASF120:
 5135 066e 4C45445F 		.ascii	"LED_EXT_BRAKE\000"
 5135      4558545F 
 5135      4252414B 
 5135      4500
 5136              	.LASF129:
 5137 067c 63685379 		.ascii	"chSysLock\000"
 5137      734C6F63 
 5137      6B00
 5138              	.LASF55:
 5139 0686 74687265 		.ascii	"threads_queue_t\000"
 5139      6164735F 
 5139      71756575 
 5139      655F7400 
 5140              	.LASF67:
 5141 0696 63685F76 		.ascii	"ch_virtual_timer\000"
 5141      69727475 
 5141      616C5F74 
 5141      696D6572 
 5141      00
 5142              	.LASF99:
 5143 06a7 63685F73 		.ascii	"ch_semaphore\000"
 5143      656D6170 
 5143      686F7265 
 5143      00
 5144              	.LASF47:
 5145 06b4 705F6570 		.ascii	"p_epending\000"
 5145      656E6469 
 5145      6E6700
 5146              	.LASF125:
 5147 06bf 4C45445F 		.ascii	"LED_EXT_BATT\000"
 5147      4558545F 
 5147      42415454 
 5147      00
 5148              	.LASF18:
 5149 06cc 75696E74 		.ascii	"uint32_t\000"
 5149      33325F74 
 5149      00
 5150              	.LASF97:
 5151 06d5 77746D74 		.ascii	"wtmtxp\000"
 5151      787000
 5152              	.LASF59:
 5153 06dc 725F7175 		.ascii	"r_queue\000"
 5153      65756500 
 5154              	.LASF75:
 5155 06e4 76745F73 		.ascii	"vt_systime\000"
 5155      79737469 
 5155      6D6500
 5156              	.LASF54:
 5157 06ef 63685F74 		.ascii	"ch_threads_list\000"
 5157      68726561 
 5157      64735F6C 
 5157      69737400 
 5158              	.LASF11:
 5159 06ff 6C6F6E67 		.ascii	"long unsigned int\000"
ARM GAS  /tmp/cccegR9C.s 			page 97


 5159      20756E73 
 5159      69676E65 
 5159      6420696E 
 5159      7400
 5160              	.LASF157:
 5161 0711 72657665 		.ascii	"reverse_leds\000"
 5161      7273655F 
 5161      6C656473 
 5161      00
 5162              	.LASF106:
 5163 071e 63686172 		.ascii	"char\000"
 5163      00
 5164              	.LASF6:
 5165 0723 5F5F7569 		.ascii	"__uint16_t\000"
 5165      6E743136 
 5165      5F7400
 5166              	.LASF31:
 5167 072e 74687265 		.ascii	"thread_t\000"
 5167      61645F74 
 5167      00
 5168              	.LASF105:
 5169 0737 6D5F6E65 		.ascii	"m_next\000"
 5169      787400
 5170              	.LASF30:
 5171 073e 73797374 		.ascii	"systime_t\000"
 5171      696D655F 
 5171      7400
 5172              	.LASF49:
 5173 0748 705F7265 		.ascii	"p_realprio\000"
 5173      616C7072 
 5173      696F00
 5174              	.LASF65:
 5175 0753 76746675 		.ascii	"vtfunc_t\000"
 5175      6E635F74 
 5175      00
 5176              	.LASF10:
 5177 075c 5F5F7569 		.ascii	"__uint32_t\000"
 5177      6E743332 
 5177      5F7400
 5178              	.LASF130:
 5179 0767 5F5F7365 		.ascii	"__set_BASEPRI\000"
 5179      745F4241 
 5179      53455052 
 5179      4900
 5180              	.LASF78:
 5181 0775 70616E69 		.ascii	"panic_msg\000"
 5181      635F6D73 
 5181      6700
 5182              	.LASF90:
 5183 077f 6F666673 		.ascii	"offset\000"
 5183      657400
 5184              	.LASF7:
 5185 0786 73686F72 		.ascii	"short unsigned int\000"
 5185      7420756E 
 5185      7369676E 
 5185      65642069 
 5185      6E7400
ARM GAS  /tmp/cccegR9C.s 			page 98


 5186              	.LASF21:
 5187 0799 7274636E 		.ascii	"rtcnt_t\000"
 5187      745F7400 
 5188              	.LASF138:
 5189 07a1 7363616C 		.ascii	"scale_color\000"
 5189      655F636F 
 5189      6C6F7200 
 5190              	.LASF45:
 5191 07ad 705F6D73 		.ascii	"p_msgqueue\000"
 5191      67717565 
 5191      756500
 5192              	.LASF72:
 5193 07b8 76745F70 		.ascii	"vt_par\000"
 5193      617200
 5194              	.LASF160:
 5195 07bf 63685468 		.ascii	"chThdSleep\000"
 5195      64536C65 
 5195      657000
 5196              	.LASF41:
 5197 07ca 705F7265 		.ascii	"p_refs\000"
 5197      667300
 5198              	.LASF144:
 5199 07d1 6C65645F 		.ascii	"led_thread\000"
 5199      74687265 
 5199      616400
 5200              	.LASF81:
 5201 07dc 726C6973 		.ascii	"rlist\000"
 5201      7400
 5202              	.LASF15:
 5203 07e2 75696E74 		.ascii	"uint8_t\000"
 5203      385F7400 
 5204              	.LASF85:
 5205 07ea 73697A65 		.ascii	"sizetype\000"
 5205      74797065 
 5205      00
 5206              	.LASF116:
 5207 07f3 6D635F66 		.ascii	"mc_fault_code\000"
 5207      61756C74 
 5207      5F636F64 
 5207      6500
 5208              	.LASF102:
 5209 0801 63685F6D 		.ascii	"ch_mutex\000"
 5209      75746578 
 5209      00
 5210              	.LASF38:
 5211 080a 705F6E61 		.ascii	"p_name\000"
 5211      6D6500
 5212              	.LASF168:
 5213 0811 6D635F69 		.ascii	"mc_interface_get_fault\000"
 5213      6E746572 
 5213      66616365 
 5213      5F676574 
 5213      5F666175 
 5214              	.LASF52:
 5215 0828 74687265 		.ascii	"threads_list_t\000"
 5215      6164735F 
 5215      6C697374 
ARM GAS  /tmp/cccegR9C.s 			page 99


 5215      5F7400
 5216              	.LASF131:
 5217 0837 63685379 		.ascii	"chSysUnlock\000"
 5217      73556E6C 
 5217      6F636B00 
 5218              	.LASF46:
 5219 0843 705F6D73 		.ascii	"p_msg\000"
 5219      6700
 5220              	.LASF153:
 5221 0849 6C65645F 		.ascii	"led_external_set_reversed\000"
 5221      65787465 
 5221      726E616C 
 5221      5F736574 
 5221      5F726576 
 5222              	.LASF148:
 5223 0863 73746174 		.ascii	"state_last\000"
 5223      655F6C61 
 5223      737400
 5224              	.LASF122:
 5225 086e 4C45445F 		.ascii	"LED_EXT_TURN_RIGHT\000"
 5225      4558545F 
 5225      5455524E 
 5225      5F524947 
 5225      485400
 5226              	.LASF132:
 5227 0881 63685265 		.ascii	"chRegSetThreadName\000"
 5227      67536574 
 5227      54687265 
 5227      61644E61 
 5227      6D6500
 5228              	.LASF143:
 5229 0894 7365745F 		.ascii	"set_led_wrapper\000"
 5229      6C65645F 
 5229      77726170 
 5229      70657200 
 5230              	.LASF104:
 5231 08a4 6D5F6F77 		.ascii	"m_owner\000"
 5231      6E657200 
 5232              	.LASF155:
 5233 08ac 6C65645F 		.ascii	"led_thread_wa\000"
 5233      74687265 
 5233      61645F77 
 5233      6100
 5234              	.LASF35:
 5235 08ba 705F6374 		.ascii	"p_ctx\000"
 5235      7800
 5236              	.LASF44:
 5237 08c0 705F7761 		.ascii	"p_waiting\000"
 5237      6974696E 
 5237      6700
 5238              		.ident	"GCC: (4.8.4-1+11-1) 4.8.4 20141219 (release)"
ARM GAS  /tmp/cccegR9C.s 			page 100


DEFINED SYMBOLS
                            *ABS*:0000000000000000 led_external.c
     /tmp/cccegR9C.s:21     .text.wait_for_state_change:0000000000000000 $t
     /tmp/cccegR9C.s:26     .text.wait_for_state_change:0000000000000000 wait_for_state_change
     /tmp/cccegR9C.s:83     .text.wait_for_state_change:0000000000000030 $d
     /tmp/cccegR9C.s:89     .text.set_led_wrapper:0000000000000000 $t
     /tmp/cccegR9C.s:94     .text.set_led_wrapper:0000000000000000 set_led_wrapper
     /tmp/cccegR9C.s:127    .text.set_led_wrapper:000000000000001c $d
     /tmp/cccegR9C.s:132    .text.led_thread:0000000000000000 $t
     /tmp/cccegR9C.s:137    .text.led_thread:0000000000000000 led_thread
     /tmp/cccegR9C.s:345    .text.led_thread:00000000000000d4 $d
     /tmp/cccegR9C.s:353    .text.led_thread:00000000000000dc $t
     /tmp/cccegR9C.s:844    .text.led_thread:000000000000032c $d
     /tmp/cccegR9C.s:863    .text.led_thread:0000000000000364 $t
     /tmp/cccegR9C.s:903    .text.led_external_init:0000000000000000 $t
     /tmp/cccegR9C.s:909    .text.led_external_init:0000000000000000 led_external_init
     /tmp/cccegR9C.s:948    .text.led_external_init:0000000000000024 $d
     /tmp/cccegR9C.s:956    .text.led_external_set_state:0000000000000000 $t
     /tmp/cccegR9C.s:962    .text.led_external_set_state:0000000000000000 led_external_set_state
     /tmp/cccegR9C.s:977    .text.led_external_set_state:0000000000000008 $d
     /tmp/cccegR9C.s:982    .text.led_external_set_reversed:0000000000000000 $t
     /tmp/cccegR9C.s:988    .text.led_external_set_reversed:0000000000000000 led_external_set_reversed
     /tmp/cccegR9C.s:1003   .text.led_external_set_reversed:0000000000000008 $d
     /tmp/cccegR9C.s:1011   .bss.reverse_leds:0000000000000000 reverse_leds
     /tmp/cccegR9C.s:1012   .bss.reverse_leds:0000000000000000 $d
     /tmp/cccegR9C.s:1017   .bss.state:0000000000000000 state
     /tmp/cccegR9C.s:1018   .bss.state:0000000000000000 $d
     /tmp/cccegR9C.s:1020   .rodata.str1.4:0000000000000000 $d
     /tmp/cccegR9C.s:1024   .bss.led_thread_wa:0000000000000000 $d
     /tmp/cccegR9C.s:1028   .bss.led_thread_wa:0000000000000000 led_thread_wa
                     .debug_frame:0000000000000010 $d
     /tmp/cccegR9C.s:88     .text.wait_for_state_change:0000000000000038 $t
     /tmp/cccegR9C.s:955    .text.led_external_init:0000000000000034 $t
     /tmp/cccegR9C.s:981    .text.led_external_set_state:000000000000000c $t
     /tmp/cccegR9C.s:1007   .text.led_external_set_reversed:000000000000000c $t

UNDEFINED SYMBOLS
mc_interface_get_fault
chThdSleep
ws2811_set_led_color
ws2811_set_all
utils_map
ADC_Value
ch
chThdCreateStatic
