ARM GAS  /tmp/cccegR9C.s 			page 1


   1              		.syntax unified
   2              		.cpu cortex-m4
   3              		.eabi_attribute 27, 3
   4              		.eabi_attribute 28, 1
   5              		.fpu fpv4-sp-d16
   6              		.eabi_attribute 20, 1
   7              		.eabi_attribute 21, 1
   8              		.eabi_attribute 23, 3
   9              		.eabi_attribute 24, 1
  10              		.eabi_attribute 25, 1
  11              		.eabi_attribute 26, 1
  12              		.eabi_attribute 30, 2
  13              		.eabi_attribute 34, 1
  14              		.eabi_attribute 18, 4
  15              		.thumb
  16              		.file	"led_external.c"
  17              		.text
  18              	.Ltext0:
  19              		.cfi_sections	.debug_frame
  20              		.section	.text.wait_for_state_change,"ax",%progbits
  21              		.align	2
  22              		.p2align 4,,15
  23              		.thumb
  24              		.thumb_func
  25              		.type	wait_for_state_change, %function
  26              	wait_for_state_change:
  27              	.LFB261:
  28              		.file 1 "led_external.c"
  29              		.loc 1 201 0
  30              		.cfi_startproc
  31              		@ args = 0, pretend = 0, frame = 0
  32              		@ frame_needed = 0, uses_anonymous_args = 0
  33 0000 F8B5     		push	{r3, r4, r5, r6, r7, lr}
  34              		.cfi_def_cfa_offset 24
  35              		.cfi_offset 3, -24
  36              		.cfi_offset 4, -20
  37              		.cfi_offset 5, -16
  38              		.cfi_offset 6, -12
  39              		.cfi_offset 7, -8
  40              		.cfi_offset 14, -4
  41              		.loc 1 202 0
  42 0002 0B4C     		ldr	r4, .L8
  43              		.loc 1 203 0
  44 0004 0B4D     		ldr	r5, .L8+4
  45              		.loc 1 202 0
  46 0006 2378     		ldrb	r3, [r4]	@ zero_extendqisi2
  47              	.LVL0:
  48              		.loc 1 203 0
  49 0008 2F78     		ldrb	r7, [r5]	@ zero_extendqisi2
  50              		.loc 1 204 0
  51 000a 2678     		ldrb	r6, [r4]	@ zero_extendqisi2
  52 000c F6B2     		uxtb	r6, r6
  53 000e 9E42     		cmp	r6, r3
  54              		.loc 1 203 0
  55 0010 FFB2     		uxtb	r7, r7
  56              	.LVL1:
  57              		.loc 1 204 0
ARM GAS  /tmp/cccegR9C.s 			page 2


  58 0012 09D0     		beq	.L5
  59 0014 0BE0     		b	.L1
  60              	.LVL2:
  61              	.L7:
  62 0016 FFF7FEFF 		bl	mc_interface_get_fault
  63              	.LVL3:
  64 001a 40B9     		cbnz	r0, .L1
  65              		.loc 1 205 0
  66 001c 6420     		movs	r0, #100
  67 001e FFF7FEFF 		bl	chThdSleep
  68              	.LVL4:
  69              		.loc 1 204 0
  70 0022 2378     		ldrb	r3, [r4]	@ zero_extendqisi2
  71 0024 B342     		cmp	r3, r6
  72 0026 02D1     		bne	.L1
  73              	.L5:
  74 0028 2B78     		ldrb	r3, [r5]	@ zero_extendqisi2
  75 002a 9F42     		cmp	r7, r3
  76 002c F3D0     		beq	.L7
  77              	.L1:
  78 002e F8BD     		pop	{r3, r4, r5, r6, r7, pc}
  79              	.LVL5:
  80              	.L9:
  81              		.align	2
  82              	.L8:
  83 0030 00000000 		.word	.LANCHOR0
  84 0034 00000000 		.word	.LANCHOR1
  85              		.cfi_endproc
  86              	.LFE261:
  87              		.size	wait_for_state_change, .-wait_for_state_change
  88 0038 AFF30080 		.section	.text.set_led_wrapper,"ax",%progbits
  88      AFF30080 
  89              		.align	2
  90              		.p2align 4,,15
  91              		.thumb
  92              		.thumb_func
  93              		.type	set_led_wrapper, %function
  94              	set_led_wrapper:
  95              	.LFB262:
  96              		.loc 1 209 0
  97              		.cfi_startproc
  98              		@ args = 0, pretend = 0, frame = 0
  99              		@ frame_needed = 0, uses_anonymous_args = 0
 100              		@ link register save eliminated.
 101              	.LVL6:
 102              		.loc 1 210 0
 103 0000 064B     		ldr	r3, .L13
 104 0002 1A78     		ldrb	r2, [r3]	@ zero_extendqisi2
 105 0004 3AB1     		cbz	r2, .L11
 106              		.loc 1 211 0
 107 0006 0D28     		cmp	r0, #13
 108 0008 02DC     		bgt	.L12
 109              		.loc 1 212 0
 110 000a 0E30     		adds	r0, r0, #14
 111              	.LVL7:
 112 000c FFF7FEBF 		b	ws2811_set_led_color
 113              	.LVL8:
ARM GAS  /tmp/cccegR9C.s 			page 3


 114              	.L12:
 115              		.loc 1 214 0
 116 0010 0E38     		subs	r0, r0, #14
 117              	.LVL9:
 118 0012 FFF7FEBF 		b	ws2811_set_led_color
 119              	.LVL10:
 120              	.L11:
 121              		.loc 1 217 0
 122 0016 FFF7FEBF 		b	ws2811_set_led_color
 123              	.LVL11:
 124              	.L14:
 125 001a 00BF     		.align	2
 126              	.L13:
 127 001c 00000000 		.word	.LANCHOR1
 128              		.cfi_endproc
 129              	.LFE262:
 130              		.size	set_led_wrapper, .-set_led_wrapper
 131              		.section	.text.led_thread,"ax",%progbits
 132              		.align	2
 133              		.p2align 4,,15
 134              		.thumb
 135              		.thumb_func
 136              		.type	led_thread, %function
 137              	led_thread:
 138              	.LFB259:
 139              		.loc 1 56 0
 140              		.cfi_startproc
 141              		@ args = 0, pretend = 0, frame = 8
 142              		@ frame_needed = 0, uses_anonymous_args = 0
 143              	.LVL12:
 144 0000 2DE9F04F 		push	{r4, r5, r6, r7, r8, r9, r10, fp, lr}
 145              		.cfi_def_cfa_offset 36
 146              		.cfi_offset 4, -36
 147              		.cfi_offset 5, -32
 148              		.cfi_offset 6, -28
 149              		.cfi_offset 7, -24
 150              		.cfi_offset 8, -20
 151              		.cfi_offset 9, -16
 152              		.cfi_offset 10, -12
 153              		.cfi_offset 11, -8
 154              		.cfi_offset 14, -4
 155              	.LBB110:
 156              	.LBB111:
 157              		.file 2 "ChibiOS_3.0.2/os/rt/include/chregistry.h"
 158              		.loc 2 135 0
 159 0004 DFF85093 		ldr	r9, .L78+44
 160 0008 C84A     		ldr	r2, .L78
 161 000a D9F81830 		ldr	r3, [r9, #24]
 162 000e C84F     		ldr	r7, .L78+4
 163 0010 DFF84883 		ldr	r8, .L78+48
 164              	.LBE111:
 165              	.LBE110:
 166              	.LBB113:
 167              	.LBB114:
 168              		.loc 1 144 0
 169 0014 DFF848A3 		ldr	r10, .L78+52
 170              	.LBE114:
ARM GAS  /tmp/cccegR9C.s 			page 4


 171              	.LBE113:
 172              		.loc 1 56 0
 173 0018 2DED068B 		fstmfdd	sp!, {d8, d9, d10}
 174              		.cfi_def_cfa_offset 60
 175              		.cfi_offset 80, -60
 176              		.cfi_offset 82, -52
 177              		.cfi_offset 84, -44
 178              	.LBB177:
 179              	.LBB112:
 180              		.loc 2 135 0
 181 001c 9A61     		str	r2, [r3, #24]
 182              	.LVL13:
 183              	.LBE112:
 184              	.LBE177:
 185              		.loc 1 56 0
 186 001e 83B0     		sub	sp, sp, #12
 187              		.cfi_def_cfa_offset 72
 188              	.LBB178:
 189              		.loc 1 63 0
 190 0020 FFF7FEFF 		bl	mc_interface_get_fault
 191              	.LVL14:
 192              	.LBB160:
 193              		.loc 1 157 0
 194 0024 DFEDC3AA 		flds	s21, .L78+8
 195 0028 9FEDC3AA 		flds	s20, .L78+12
 196              	.LBE160:
 197              		.loc 1 64 0
 198 002c 0546     		mov	r5, r0
 199 002e 0028     		cmp	r0, #0
 200 0030 45D0     		beq	.L16
 201              	.LVL15:
 202              	.L70:
 203              	.LBB161:
 204              		.loc 1 65 0
 205 0032 0020     		movs	r0, #0
 206              	.LVL16:
 207 0034 FFF7FEFF 		bl	ws2811_set_all
 208              	.LVL17:
 209              	.LBB162:
 210              		.loc 1 66 0
 211 0038 0024     		movs	r4, #0
 212              	.LVL18:
 213              	.L19:
 214              		.loc 1 67 0 discriminator 2
 215 003a 2046     		mov	r0, r4
 216 003c 4FF47F01 		mov	r1, #16711680
 217 0040 FFF7FEFF 		bl	set_led_wrapper
 218              	.LVL19:
 219              		.loc 1 66 0 discriminator 2
 220 0044 0134     		adds	r4, r4, #1
 221              	.LVL20:
 222              		.loc 1 68 0 discriminator 2
 223 0046 4FF4FA60 		mov	r0, #2000
 224 004a FFF7FEFF 		bl	chThdSleep
 225              	.LVL21:
 226              		.loc 1 66 0 discriminator 2
 227 004e A542     		cmp	r5, r4
ARM GAS  /tmp/cccegR9C.s 			page 5


 228 0050 F3DC     		bgt	.L19
 229              	.LBE162:
 230              		.loc 1 71 0
 231 0052 42F21070 		movw	r0, #10000
 232 0056 FFF7FEFF 		bl	chThdSleep
 233              	.LVL22:
 234              	.LBB163:
 235              	.LBB164:
 236              		.loc 1 75 0
 237 005a DFEDB89A 		flds	s19, .L78+16
 238              	.LBB165:
 239              	.LBB166:
 240              		.loc 1 195 0
 241 005e 9FEDB89A 		flds	s18, .L78+20
 242              		.loc 1 194 0
 243 0062 DFEDB88A 		flds	s17, .L78+24
 244              	.LBE166:
 245              	.LBE165:
 246              	.LBE164:
 247              	.LBE163:
 248              		.loc 1 71 0
 249 0066 3226     		movs	r6, #50
 250              		.loc 1 73 0
 251 0068 B7EE008A 		fconsts	s16, #112
 252              	.LVL23:
 253              	.L18:
 254              	.LBB172:
 255              	.LBB171:
 256              		.loc 1 75 0
 257 006c 38EE698A 		fsubs	s16, s16, s19
 258              	.LVL24:
 259              	.LBB168:
 260              		.loc 1 77 0
 261 0070 4FF0000B 		mov	fp, #0
 262              	.LBE168:
 263              	.LBB169:
 264              	.LBB167:
 265              		.loc 1 195 0
 266 0074 28EE097A 		fmuls	s14, s16, s18
 267              		.loc 1 194 0
 268 0078 68EE287A 		fmuls	s15, s16, s17
 269              		.loc 1 195 0
 270 007c BCEEC77A 		ftouizs	s14, s14
 271              		.loc 1 194 0
 272 0080 FCEEE77A 		ftouizs	s15, s15
 273              		.loc 1 195 0
 274 0084 17EE104A 		fmrs	r4, s14	@ int
 275              	.LVL25:
 276              		.loc 1 194 0
 277 0088 17EE902A 		fmrs	r2, s15	@ int
 278              		.loc 1 198 0
 279 008c 2102     		lsls	r1, r4, #8
 280 008e 41EA0242 		orr	r2, r1, r2, lsl #16
 281 0092 1443     		orrs	r4, r4, r2
 282              	.LVL26:
 283              	.L21:
 284              	.LBE167:
ARM GAS  /tmp/cccegR9C.s 			page 6


 285              	.LBE169:
 286              	.LBB170:
 287              		.loc 1 78 0 discriminator 2
 288 0094 5846     		mov	r0, fp
 289 0096 2146     		mov	r1, r4
 290              		.loc 1 77 0 discriminator 2
 291 0098 0BF1010B 		add	fp, fp, #1
 292              	.LVL27:
 293              		.loc 1 78 0 discriminator 2
 294 009c FFF7FEFF 		bl	set_led_wrapper
 295              	.LVL28:
 296              		.loc 1 77 0 discriminator 2
 297 00a0 5D45     		cmp	r5, fp
 298 00a2 F7DC     		bgt	.L21
 299              	.LBE170:
 300              		.loc 1 80 0
 301 00a4 6420     		movs	r0, #100
 302 00a6 FFF7FEFF 		bl	chThdSleep
 303              	.LVL29:
 304              	.LBE171:
 305              		.loc 1 74 0
 306 00aa 013E     		subs	r6, r6, #1
 307              	.LVL30:
 308 00ac DED1     		bne	.L18
 309              	.LVL31:
 310              	.L23:
 311              	.LBE172:
 312              	.LBE161:
 313              		.loc 1 185 0
 314 00ae 0A20     		movs	r0, #10
 315 00b0 FFF7FEFF 		bl	chThdSleep
 316              	.LVL32:
 317              	.L73:
 318              		.loc 1 63 0
 319 00b4 FFF7FEFF 		bl	mc_interface_get_fault
 320              	.LVL33:
 321              		.loc 1 64 0
 322 00b8 0546     		mov	r5, r0
 323 00ba 0028     		cmp	r0, #0
 324 00bc B9D1     		bne	.L70
 325              	.L16:
 326              	.LVL34:
 327              	.LBB173:
 328              		.loc 1 84 0
 329 00be 3C78     		ldrb	r4, [r7]	@ zero_extendqisi2
 330              		.loc 1 85 0
 331 00c0 98F80050 		ldrb	r5, [r8]	@ zero_extendqisi2
 332              		.loc 1 87 0
 333 00c4 3B78     		ldrb	r3, [r7]	@ zero_extendqisi2
 334              		.loc 1 84 0
 335 00c6 E4B2     		uxtb	r4, r4
 336              	.LVL35:
 337              		.loc 1 85 0
 338 00c8 EDB2     		uxtb	r5, r5
 339              	.LVL36:
 340              		.loc 1 87 0
 341 00ca 072B     		cmp	r3, #7
ARM GAS  /tmp/cccegR9C.s 			page 7


 342 00cc 00F25E81 		bhi	.L24
 343 00d0 DFE803F0 		tbb	[pc, r3]
 344              	.L26:
 345 00d4 C1       		.byte	(.L25-.L26)/2
 346 00d5 AF       		.byte	(.L27-.L26)/2
 347 00d6 9A       		.byte	(.L28-.L26)/2
 348 00d7 4D       		.byte	(.L29-.L26)/2
 349 00d8 04       		.byte	(.L30-.L26)/2
 350 00d9 4D       		.byte	(.L29-.L26)/2
 351 00da 04       		.byte	(.L30-.L26)/2
 352 00db CA       		.byte	(.L31-.L26)/2
 353              		.p2align 1
 354              	.L30:
 355 00dc 0026     		movs	r6, #0
 356              	.LVL37:
 357              	.L47:
 358              	.LBB115:
 359              		.loc 1 135 0
 360 00de 3B78     		ldrb	r3, [r7]	@ zero_extendqisi2
 361 00e0 042B     		cmp	r3, #4
 362              		.loc 1 138 0
 363 00e2 3046     		mov	r0, r6
 364 00e4 4FF47F01 		mov	r1, #16711680
 365              		.loc 1 136 0
 366 00e8 08BF     		it	eq
 367 00ea 4FF4FE01 		moveq	r1, #8323072
 368              		.loc 1 138 0
 369 00ee FFF7FEFF 		bl	set_led_wrapper
 370              	.LVL38:
 371              		.loc 1 140 0
 372 00f2 06F10E00 		add	r0, r6, #14
 373 00f6 6FF07F41 		mvn	r1, #-16777216
 374              		.loc 1 134 0
 375 00fa 0136     		adds	r6, r6, #1
 376              	.LVL39:
 377              		.loc 1 140 0
 378 00fc FFF7FEFF 		bl	set_led_wrapper
 379              	.LVL40:
 380              		.loc 1 134 0
 381 0100 0E2E     		cmp	r6, #14
 382 0102 ECD1     		bne	.L47
 383              	.LBE115:
 384              		.loc 1 143 0 discriminator 1
 385 0104 3E78     		ldrb	r6, [r7]	@ zero_extendqisi2
 386              	.LVL41:
 387 0106 F6B2     		uxtb	r6, r6
 388 0108 A642     		cmp	r6, r4
 389 010a D0D1     		bne	.L23
 390              		.loc 1 143 0 is_stmt 0
 391 010c 98F80030 		ldrb	r3, [r8]	@ zero_extendqisi2
 392 0110 9D42     		cmp	r5, r3
 393 0112 CCD1     		bne	.L23
 394              	.LBB116:
 395              	.LBB117:
 396              	.LBB118:
 397              	.LBB119:
 398              	.LBB120:
ARM GAS  /tmp/cccegR9C.s 			page 8


 399              	.LBB121:
 400              		.file 3 "ChibiOS_3.0.2/os/ext/CMSIS/include/core_cmFunc.h"
 401              		.loc 3 546 0 is_stmt 1
 402 0114 2024     		movs	r4, #32
 403              	.LVL42:
 404 0116 0FE0     		b	.L50
 405              	.LVL43:
 406              	.L71:
 407              	.LBE121:
 408              	.LBE120:
 409              	.LBE119:
 410              	.LBE118:
 411              	.LBE117:
 412              	.LBE116:
 413              		.loc 1 145 0
 414 0118 FFF7FEFF 		bl	set_led_wrapper
 415              	.LVL44:
 416              		.loc 1 146 0
 417 011c 1B20     		movs	r0, #27
 418 011e 8A49     		ldr	r1, .L78+28
 419 0120 FFF7FEFF 		bl	set_led_wrapper
 420              	.LVL45:
 421              	.L49:
 422              		.loc 1 151 0
 423 0124 6420     		movs	r0, #100
 424 0126 FFF7FEFF 		bl	chThdSleep
 425              	.LVL46:
 426              		.loc 1 143 0
 427 012a 3B78     		ldrb	r3, [r7]	@ zero_extendqisi2
 428 012c B342     		cmp	r3, r6
 429 012e BED1     		bne	.L23
 430              		.loc 1 143 0 is_stmt 0 discriminator 2
 431 0130 98F80030 		ldrb	r3, [r8]	@ zero_extendqisi2
 432 0134 9D42     		cmp	r5, r3
 433 0136 BAD1     		bne	.L23
 434              	.LVL47:
 435              	.L50:
 436              		.loc 1 143 0
 437 0138 FFF7FEFF 		bl	mc_interface_get_fault
 438              	.LVL48:
 439 013c 0028     		cmp	r0, #0
 440 013e B6D1     		bne	.L23
 441              	.LBB134:
 442              	.LBB133:
 443              	.LBB125:
 444              	.LBB124:
 445              	.LBB123:
 446              	.LBB122:
 447              		.loc 3 546 0 is_stmt 1
 448              	@ 546 "ChibiOS_3.0.2/os/ext/CMSIS/include/core_cmFunc.h" 1
 449 0140 84F31188 		MSR basepri, r4
 450              	@ 0 "" 2
 451              		.thumb
 452              	.LBE122:
 453              	.LBE123:
 454              	.LBE124:
 455              	.LBE125:
ARM GAS  /tmp/cccegR9C.s 			page 9


 456              	.LBB126:
 457              	.LBB127:
 458              		.file 4 "ChibiOS_3.0.2/os/rt/include/chvt.h"
 459              		.loc 4 231 0
 460 0144 D9F82830 		ldr	r3, [r9, #40]
 461              	.LVL49:
 462              	.LBE127:
 463              	.LBE126:
 464              	.LBB128:
 465              	.LBB129:
 466              	.LBB130:
 467              	.LBB131:
 468              	.LBB132:
 469              		.loc 3 546 0
 470              	@ 546 "ChibiOS_3.0.2/os/ext/CMSIS/include/core_cmFunc.h" 1
 471 0148 80F31188 		MSR basepri, r0
 472              	@ 0 "" 2
 473              		.thumb
 474              	.LBE132:
 475              	.LBE131:
 476              	.LBE130:
 477              	.LBE129:
 478              	.LBE128:
 479              	.LBE133:
 480              	.LBE134:
 481              		.loc 1 144 0
 482 014c AAFB0323 		umull	r2, r3, r10, r3
 483 0150 C3F30033 		ubfx	r3, r3, #12, #1
 484              		.loc 1 145 0
 485 0154 7C49     		ldr	r1, .L78+28
 486              		.loc 1 144 0
 487 0156 002B     		cmp	r3, #0
 488 0158 DED1     		bne	.L71
 489              		.loc 1 148 0
 490 015a 1946     		mov	r1, r3
 491 015c 0193     		str	r3, [sp, #4]
 492 015e FFF7FEFF 		bl	set_led_wrapper
 493              	.LVL50:
 494              		.loc 1 149 0
 495 0162 019B     		ldr	r3, [sp, #4]
 496 0164 1B20     		movs	r0, #27
 497 0166 1946     		mov	r1, r3
 498 0168 FFF7FEFF 		bl	set_led_wrapper
 499              	.LVL51:
 500 016c DAE7     		b	.L49
 501              	.LVL52:
 502              	.L29:
 503              		.loc 1 87 0
 504 016e 0026     		movs	r6, #0
 505              	.LVL53:
 506              	.L40:
 507              	.LBB135:
 508              		.loc 1 112 0
 509 0170 3B78     		ldrb	r3, [r7]	@ zero_extendqisi2
 510 0172 032B     		cmp	r3, #3
 511              		.loc 1 115 0
 512 0174 3046     		mov	r0, r6
ARM GAS  /tmp/cccegR9C.s 			page 10


 513 0176 4FF47F01 		mov	r1, #16711680
 514              		.loc 1 113 0
 515 017a 08BF     		it	eq
 516 017c 4FF4FE01 		moveq	r1, #8323072
 517              		.loc 1 115 0
 518 0180 FFF7FEFF 		bl	set_led_wrapper
 519              	.LVL54:
 520              		.loc 1 117 0
 521 0184 06F10E00 		add	r0, r6, #14
 522 0188 6FF07F41 		mvn	r1, #-16777216
 523              		.loc 1 111 0
 524 018c 0136     		adds	r6, r6, #1
 525              	.LVL55:
 526              		.loc 1 117 0
 527 018e FFF7FEFF 		bl	set_led_wrapper
 528              	.LVL56:
 529              		.loc 1 111 0
 530 0192 0E2E     		cmp	r6, #14
 531 0194 ECD1     		bne	.L40
 532              	.LBE135:
 533              		.loc 1 120 0 discriminator 1
 534 0196 3E78     		ldrb	r6, [r7]	@ zero_extendqisi2
 535              	.LVL57:
 536 0198 F6B2     		uxtb	r6, r6
 537 019a A642     		cmp	r6, r4
 538 019c 87D1     		bne	.L23
 539              		.loc 1 120 0 is_stmt 0
 540 019e 98F80030 		ldrb	r3, [r8]	@ zero_extendqisi2
 541 01a2 9D42     		cmp	r5, r3
 542 01a4 83D1     		bne	.L23
 543              	.LBB136:
 544              	.LBB137:
 545              	.LBB138:
 546              	.LBB139:
 547              	.LBB140:
 548              	.LBB141:
 549              		.loc 3 546 0 is_stmt 1
 550 01a6 2024     		movs	r4, #32
 551              	.LVL58:
 552 01a8 11E0     		b	.L43
 553              	.LVL59:
 554              	.L72:
 555              	.LBE141:
 556              	.LBE140:
 557              	.LBE139:
 558              	.LBE138:
 559              	.LBE137:
 560              	.LBE136:
 561              		.loc 1 122 0
 562 01aa FFF7FEFF 		bl	set_led_wrapper
 563              	.LVL60:
 564              		.loc 1 123 0
 565 01ae 0E20     		movs	r0, #14
 566 01b0 6549     		ldr	r1, .L78+28
 567 01b2 FFF7FEFF 		bl	set_led_wrapper
 568              	.LVL61:
 569              	.L42:
ARM GAS  /tmp/cccegR9C.s 			page 11


 570              		.loc 1 128 0
 571 01b6 6420     		movs	r0, #100
 572 01b8 FFF7FEFF 		bl	chThdSleep
 573              	.LVL62:
 574              		.loc 1 120 0
 575 01bc 3B78     		ldrb	r3, [r7]	@ zero_extendqisi2
 576 01be 9E42     		cmp	r6, r3
 577 01c0 7FF475AF 		bne	.L23
 578              		.loc 1 120 0 is_stmt 0 discriminator 2
 579 01c4 98F80030 		ldrb	r3, [r8]	@ zero_extendqisi2
 580 01c8 9D42     		cmp	r5, r3
 581 01ca 7FF470AF 		bne	.L23
 582              	.LVL63:
 583              	.L43:
 584              		.loc 1 120 0
 585 01ce FFF7FEFF 		bl	mc_interface_get_fault
 586              	.LVL64:
 587 01d2 0028     		cmp	r0, #0
 588 01d4 7FF46BAF 		bne	.L23
 589              	.LBB154:
 590              	.LBB153:
 591              	.LBB145:
 592              	.LBB144:
 593              	.LBB143:
 594              	.LBB142:
 595              		.loc 3 546 0 is_stmt 1
 596              	@ 546 "ChibiOS_3.0.2/os/ext/CMSIS/include/core_cmFunc.h" 1
 597 01d8 84F31188 		MSR basepri, r4
 598              	@ 0 "" 2
 599              		.thumb
 600              	.LBE142:
 601              	.LBE143:
 602              	.LBE144:
 603              	.LBE145:
 604              	.LBB146:
 605              	.LBB147:
 606              		.loc 4 231 0
 607 01dc D9F82830 		ldr	r3, [r9, #40]
 608              	.LVL65:
 609              	.LBE147:
 610              	.LBE146:
 611              	.LBB148:
 612              	.LBB149:
 613              	.LBB150:
 614              	.LBB151:
 615              	.LBB152:
 616              		.loc 3 546 0
 617              	@ 546 "ChibiOS_3.0.2/os/ext/CMSIS/include/core_cmFunc.h" 1
 618 01e0 80F31188 		MSR basepri, r0
 619              	@ 0 "" 2
 620              		.thumb
 621              	.LBE152:
 622              	.LBE151:
 623              	.LBE150:
 624              	.LBE149:
 625              	.LBE148:
 626              	.LBE153:
ARM GAS  /tmp/cccegR9C.s 			page 12


 627              	.LBE154:
 628              		.loc 1 121 0
 629 01e4 AAFB0323 		umull	r2, r3, r10, r3
 630 01e8 C3F30033 		ubfx	r3, r3, #12, #1
 631              		.loc 1 125 0
 632 01ec 0D20     		movs	r0, #13
 633              		.loc 1 122 0
 634 01ee 5649     		ldr	r1, .L78+28
 635              		.loc 1 121 0
 636 01f0 002B     		cmp	r3, #0
 637 01f2 DAD1     		bne	.L72
 638              		.loc 1 125 0
 639 01f4 1946     		mov	r1, r3
 640 01f6 0193     		str	r3, [sp, #4]
 641 01f8 FFF7FEFF 		bl	set_led_wrapper
 642              	.LVL66:
 643              		.loc 1 126 0
 644 01fc 019B     		ldr	r3, [sp, #4]
 645 01fe 0E20     		movs	r0, #14
 646 0200 1946     		mov	r1, r3
 647 0202 FFF7FEFF 		bl	set_led_wrapper
 648              	.LVL67:
 649 0206 D6E7     		b	.L42
 650              	.LVL68:
 651              	.L28:
 652              		.loc 1 87 0
 653 0208 0024     		movs	r4, #0
 654              	.LVL69:
 655              	.L36:
 656              	.LBB155:
 657              		.loc 1 103 0 discriminator 2
 658 020a 2046     		mov	r0, r4
 659 020c 4FF47F01 		mov	r1, #16711680
 660 0210 FFF7FEFF 		bl	set_led_wrapper
 661              	.LVL70:
 662              		.loc 1 104 0 discriminator 2
 663 0214 04F10E00 		add	r0, r4, #14
 664 0218 6FF07F41 		mvn	r1, #-16777216
 665              		.loc 1 102 0 discriminator 2
 666 021c 0134     		adds	r4, r4, #1
 667              	.LVL71:
 668              		.loc 1 104 0 discriminator 2
 669 021e FFF7FEFF 		bl	set_led_wrapper
 670              	.LVL72:
 671              		.loc 1 102 0 discriminator 2
 672 0222 0E2C     		cmp	r4, #14
 673 0224 F1D1     		bne	.L36
 674              	.LBE155:
 675              		.loc 1 98 0
 676 0226 FFF7FEFF 		bl	wait_for_state_change
 677              	.LVL73:
 678              	.L74:
 679              	.LBE173:
 680              		.loc 1 185 0
 681 022a 0A20     		movs	r0, #10
 682 022c FFF7FEFF 		bl	chThdSleep
 683              	.LVL74:
ARM GAS  /tmp/cccegR9C.s 			page 13


 684 0230 40E7     		b	.L73
 685              	.LVL75:
 686              	.L27:
 687              	.LBB174:
 688              		.loc 1 87 0
 689 0232 0024     		movs	r4, #0
 690              	.LVL76:
 691              	.L35:
 692              	.LBB156:
 693              		.loc 1 95 0 discriminator 2
 694 0234 2046     		mov	r0, r4
 695 0236 4FF4FE01 		mov	r1, #8323072
 696 023a FFF7FEFF 		bl	set_led_wrapper
 697              	.LVL77:
 698              		.loc 1 96 0 discriminator 2
 699 023e 04F10E00 		add	r0, r4, #14
 700 0242 6FF07F41 		mvn	r1, #-16777216
 701              		.loc 1 94 0 discriminator 2
 702 0246 0134     		adds	r4, r4, #1
 703              	.LVL78:
 704              		.loc 1 96 0 discriminator 2
 705 0248 FFF7FEFF 		bl	set_led_wrapper
 706              	.LVL79:
 707              		.loc 1 94 0 discriminator 2
 708 024c 0E2C     		cmp	r4, #14
 709 024e F1D1     		bne	.L35
 710              	.LBE156:
 711              		.loc 1 98 0
 712 0250 FFF7FEFF 		bl	wait_for_state_change
 713              	.LVL80:
 714 0254 E9E7     		b	.L74
 715              	.LVL81:
 716              	.L25:
 717              		.loc 1 89 0
 718 0256 0020     		movs	r0, #0
 719              	.LVL82:
 720 0258 FFF7FEFF 		bl	ws2811_set_all
 721              	.LVL83:
 722              		.loc 1 90 0
 723 025c FFF7FEFF 		bl	wait_for_state_change
 724              	.LVL84:
 725              	.LBE174:
 726              		.loc 1 185 0
 727 0260 0A20     		movs	r0, #10
 728 0262 FFF7FEFF 		bl	chThdSleep
 729              	.LVL85:
 730 0266 25E7     		b	.L73
 731              	.LVL86:
 732              	.L31:
 733              	.LBB175:
 734              		.loc 1 156 0 discriminator 1
 735 0268 3E78     		ldrb	r6, [r7]	@ zero_extendqisi2
 736 026a F6B2     		uxtb	r6, r6
 737 026c A642     		cmp	r6, r4
 738 026e 7FF41EAF 		bne	.L23
 739              	.LVL87:
 740              	.L68:
ARM GAS  /tmp/cccegR9C.s 			page 14


 741              		.loc 1 156 0 is_stmt 0
 742 0272 98F80030 		ldrb	r3, [r8]	@ zero_extendqisi2
 743 0276 9D42     		cmp	r5, r3
 744 0278 7FF419AF 		bne	.L23
 745 027c FFF7FEFF 		bl	mc_interface_get_fault
 746              	.LVL88:
 747 0280 0446     		mov	r4, r0
 748 0282 0028     		cmp	r0, #0
 749 0284 7FF413AF 		bne	.L23
 750              		.loc 1 157 0 is_stmt 1
 751 0288 304A     		ldr	r2, .L78+32
 752 028a 9FED311A 		flds	s2, .L78+36
 753 028e 138A     		ldrh	r3, [r2, #16]
 754 0290 DFED2B1A 		flds	s3, .L78+20
 755 0294 9BB2     		uxth	r3, r3
 756 0296 07EE103A 		fmsr	s14, r3	@ int
 757 029a B8EE470A 		fuitos	s0, s14
 758 029e F3EE0C0A 		fconsts	s1, #60
 759 02a2 20EE2A0A 		fmuls	s0, s0, s21
 760 02a6 B7EE002A 		fconsts	s4, #112
 761 02aa 20EE0A0A 		fmuls	s0, s0, s20
 762 02ae FFF7FEFF 		bl	utils_map
 763              	.LVL89:
 764 02b2 B2EE0C8A 		fconsts	s16, #44
 765              	.LBB157:
 766              		.loc 1 158 0
 767 02b6 A346     		mov	fp, r4
 768 02b8 20EE088A 		fmuls	s16, s0, s16
 769              	.LBE157:
 770              		.loc 1 157 0
 771 02bc 1B24     		movs	r4, #27
 772 02be 13E0     		b	.L57
 773              	.LVL90:
 774              	.L77:
 775              	.LBB158:
 776              		.loc 1 160 0
 777 02c0 BBF1030F 		cmp	fp, #3
 778 02c4 58DD     		ble	.L75
 779              		.loc 1 163 0
 780 02c6 BBF1080F 		cmp	fp, #8
 781 02ca 4BDC     		bgt	.L55
 782              		.loc 1 164 0
 783 02cc 2149     		ldr	r1, .L78+40
 784 02ce FFF7FEFF 		bl	set_led_wrapper
 785              	.LVL91:
 786              		.loc 1 165 0
 787 02d2 2046     		mov	r0, r4
 788 02d4 1F49     		ldr	r1, .L78+40
 789 02d6 FFF7FEFF 		bl	set_led_wrapper
 790              	.LVL92:
 791              	.L54:
 792              		.loc 1 158 0
 793 02da 0BF1010B 		add	fp, fp, #1
 794              	.LVL93:
 795 02de BBF10E0F 		cmp	fp, #14
 796 02e2 04F1FF34 		add	r4, r4, #-1
 797 02e6 17D0     		beq	.L76
ARM GAS  /tmp/cccegR9C.s 			page 15


 798              	.LVL94:
 799              	.L57:
 800              		.loc 1 159 0
 801 02e8 07EE10BA 		fmsr	s14, fp	@ int
 802 02ec F8EEC77A 		fsitos	s15, s14
 803              		.loc 1 161 0
 804 02f0 5846     		mov	r0, fp
 805              		.loc 1 159 0
 806 02f2 B4EEE78A 		fcmpes	s16, s15
 807 02f6 F1EE10FA 		fmstat
 808 02fa E1DC     		bgt	.L77
 809              		.loc 1 171 0
 810 02fc 0021     		movs	r1, #0
 811 02fe FFF7FEFF 		bl	set_led_wrapper
 812              	.LVL95:
 813              		.loc 1 158 0
 814 0302 0BF1010B 		add	fp, fp, #1
 815              	.LVL96:
 816              		.loc 1 172 0
 817 0306 2046     		mov	r0, r4
 818 0308 0021     		movs	r1, #0
 819 030a FFF7FEFF 		bl	set_led_wrapper
 820              	.LVL97:
 821              		.loc 1 158 0
 822 030e BBF10E0F 		cmp	fp, #14
 823 0312 04F1FF34 		add	r4, r4, #-1
 824 0316 E7D1     		bne	.L57
 825              	.L76:
 826              	.LBE158:
 827              		.loc 1 175 0
 828 0318 6420     		movs	r0, #100
 829 031a FFF7FEFF 		bl	chThdSleep
 830              	.LVL98:
 831              		.loc 1 156 0
 832 031e 3B78     		ldrb	r3, [r7]	@ zero_extendqisi2
 833 0320 B342     		cmp	r3, r6
 834 0322 A6D0     		beq	.L68
 835              	.LBE175:
 836              		.loc 1 185 0
 837 0324 0A20     		movs	r0, #10
 838 0326 FFF7FEFF 		bl	chThdSleep
 839              	.LVL99:
 840 032a C3E6     		b	.L73
 841              	.L79:
 842              		.align	2
 843              	.L78:
 844 032c 00000000 		.word	.LC0
 845 0330 00000000 		.word	.LANCHOR0
 846 0334 6740533A 		.word	978534503
 847 0338 74D19541 		.word	1100337524
 848 033c 0AD7A33C 		.word	1017370378
 849 0340 00000000 		.word	0
 850 0344 00007F43 		.word	1132396544
 851 0348 00A5FF00 		.word	16753920
 852 034c 00000000 		.word	ADC_Value
 853 0350 00000442 		.word	1107558400
 854 0354 00FFFF00 		.word	16776960
ARM GAS  /tmp/cccegR9C.s 			page 16


 855 0358 00000000 		.word	ch
 856 035c 00000000 		.word	.LANCHOR1
 857 0360 5917B7D1 		.word	-776530087
 858              	.LVL100:
 859              	.L55:
 860              	.LBB176:
 861              	.LBB159:
 862              		.loc 1 167 0
 863 0364 4FF47F41 		mov	r1, #65280
 864 0368 FFF7FEFF 		bl	set_led_wrapper
 865              	.LVL101:
 866              		.loc 1 168 0
 867 036c 2046     		mov	r0, r4
 868 036e 4FF47F41 		mov	r1, #65280
 869 0372 FFF7FEFF 		bl	set_led_wrapper
 870              	.LVL102:
 871 0376 B0E7     		b	.L54
 872              	.LVL103:
 873              	.L75:
 874              		.loc 1 161 0
 875 0378 4FF47F01 		mov	r1, #16711680
 876 037c FFF7FEFF 		bl	set_led_wrapper
 877              	.LVL104:
 878              		.loc 1 162 0
 879 0380 2046     		mov	r0, r4
 880 0382 4FF47F01 		mov	r1, #16711680
 881 0386 FFF7FEFF 		bl	set_led_wrapper
 882              	.LVL105:
 883 038a A6E7     		b	.L54
 884              	.LVL106:
 885              	.L24:
 886              	.LBE159:
 887              		.loc 1 180 0
 888 038c 6420     		movs	r0, #100
 889              	.LVL107:
 890 038e FFF7FEFF 		bl	chThdSleep
 891              	.LVL108:
 892              	.LBE176:
 893              		.loc 1 185 0
 894 0392 0A20     		movs	r0, #10
 895 0394 FFF7FEFF 		bl	chThdSleep
 896              	.LVL109:
 897 0398 8CE6     		b	.L73
 898              	.LBE178:
 899              		.cfi_endproc
 900              	.LFE259:
 901              		.size	led_thread, .-led_thread
 902              		.section	.text.led_external_init,"ax",%progbits
 903              		.align	2
 904              		.p2align 4,,15
 905              		.global	led_external_init
 906              		.thumb
 907              		.thumb_func
 908              		.type	led_external_init, %function
 909              	led_external_init:
 910              	.LFB256:
 911              		.loc 1 42 0
ARM GAS  /tmp/cccegR9C.s 			page 17


 912              		.cfi_startproc
 913              		@ args = 0, pretend = 0, frame = 0
 914              		@ frame_needed = 0, uses_anonymous_args = 0
 915 0000 70B5     		push	{r4, r5, r6, lr}
 916              		.cfi_def_cfa_offset 16
 917              		.cfi_offset 4, -16
 918              		.cfi_offset 5, -12
 919              		.cfi_offset 6, -8
 920              		.cfi_offset 14, -4
 921 0002 82B0     		sub	sp, sp, #8
 922              		.cfi_def_cfa_offset 24
 923              		.loc 1 43 0
 924 0004 0024     		movs	r4, #0
 925 0006 074E     		ldr	r6, .L81
 926              		.loc 1 44 0
 927 0008 074D     		ldr	r5, .L81+4
 928              		.loc 1 45 0
 929 000a 084B     		ldr	r3, .L81+8
 930 000c 0094     		str	r4, [sp]
 931 000e 4FF4B361 		mov	r1, #1432
 932 0012 0222     		movs	r2, #2
 933 0014 0648     		ldr	r0, .L81+12
 934              		.loc 1 43 0
 935 0016 3470     		strb	r4, [r6]
 936              		.loc 1 44 0
 937 0018 2C70     		strb	r4, [r5]
 938              		.loc 1 45 0
 939 001a FFF7FEFF 		bl	chThdCreateStatic
 940              	.LVL110:
 941              		.loc 1 46 0
 942 001e 02B0     		add	sp, sp, #8
 943              		@ sp needed
 944 0020 70BD     		pop	{r4, r5, r6, pc}
 945              	.L82:
 946 0022 00BF     		.align	2
 947              	.L81:
 948 0024 00000000 		.word	.LANCHOR1
 949 0028 00000000 		.word	.LANCHOR0
 950 002c 00000000 		.word	led_thread
 951 0030 00000000 		.word	.LANCHOR2
 952              		.cfi_endproc
 953              	.LFE256:
 954              		.size	led_external_init, .-led_external_init
 955 0034 AFF30080 		.section	.text.led_external_set_state,"ax",%progbits
 955      AFF30080 
 955      AFF30080 
 956              		.align	2
 957              		.p2align 4,,15
 958              		.global	led_external_set_state
 959              		.thumb
 960              		.thumb_func
 961              		.type	led_external_set_state, %function
 962              	led_external_set_state:
 963              	.LFB257:
 964              		.loc 1 48 0
 965              		.cfi_startproc
 966              		@ args = 0, pretend = 0, frame = 0
ARM GAS  /tmp/cccegR9C.s 			page 18


 967              		@ frame_needed = 0, uses_anonymous_args = 0
 968              		@ link register save eliminated.
 969              	.LVL111:
 970              		.loc 1 49 0
 971 0000 014B     		ldr	r3, .L84
 972 0002 1870     		strb	r0, [r3]
 973 0004 7047     		bx	lr
 974              	.L85:
 975 0006 00BF     		.align	2
 976              	.L84:
 977 0008 00000000 		.word	.LANCHOR0
 978              		.cfi_endproc
 979              	.LFE257:
 980              		.size	led_external_set_state, .-led_external_set_state
 981 000c AFF30080 		.section	.text.led_external_set_reversed,"ax",%progbits
 982              		.align	2
 983              		.p2align 4,,15
 984              		.global	led_external_set_reversed
 985              		.thumb
 986              		.thumb_func
 987              		.type	led_external_set_reversed, %function
 988              	led_external_set_reversed:
 989              	.LFB258:
 990              		.loc 1 52 0
 991              		.cfi_startproc
 992              		@ args = 0, pretend = 0, frame = 0
 993              		@ frame_needed = 0, uses_anonymous_args = 0
 994              		@ link register save eliminated.
 995              	.LVL112:
 996              		.loc 1 53 0
 997 0000 014B     		ldr	r3, .L87
 998 0002 1870     		strb	r0, [r3]
 999 0004 7047     		bx	lr
 1000              	.L88:
 1001 0006 00BF     		.align	2
 1002              	.L87:
 1003 0008 00000000 		.word	.LANCHOR1
 1004              		.cfi_endproc
 1005              	.LFE258:
 1006              		.size	led_external_set_reversed, .-led_external_set_reversed
 1007 000c AFF30080 		.section	.bss.reverse_leds,"aw",%nobits
 1008              		.set	.LANCHOR1,. + 0
 1009              		.type	reverse_leds, %object
 1010              		.size	reverse_leds, 1
 1011              	reverse_leds:
 1012 0000 00       		.space	1
 1013              		.section	.bss.state,"aw",%nobits
 1014              		.set	.LANCHOR0,. + 0
 1015              		.type	state, %object
 1016              		.size	state, 1
 1017              	state:
 1018 0000 00       		.space	1
 1019              		.section	.rodata.str1.4,"aMS",%progbits,1
 1020              		.align	2
 1021              	.LC0:
 1022 0000 4C454473 		.ascii	"LEDs External\000"
 1022      20457874 
ARM GAS  /tmp/cccegR9C.s 			page 19


 1022      65726E61 
 1022      6C00
 1023 000e 0000     		.section	.bss.led_thread_wa,"aw",%nobits
 1024              		.align	3
 1025              		.set	.LANCHOR2,. + 0
 1026              		.type	led_thread_wa, %object
 1027              		.size	led_thread_wa, 1432
 1028              	led_thread_wa:
 1029 0000 00000000 		.space	1432
 1029      00000000 
 1029      00000000 
 1029      00000000 
 1029      00000000 
 1030              		.text
 1031              	.Letext0:
 1032              		.file 5 "/usr/include/newlib/machine/_default_types.h"
 1033              		.file 6 "/usr/include/newlib/stdint.h"
 1034              		.file 7 "/usr/lib/gcc/arm-none-eabi/4.8/include/stddef.h"
 1035              		.file 8 "ChibiOS_3.0.2/os/rt/ports/ARMCMx/compilers/GCC/chtypes.h"
 1036              		.file 9 "ChibiOS_3.0.2/os/rt/include/chsystypes.h"
 1037              		.file 10 "ChibiOS_3.0.2/os/rt/include/chschd.h"
 1038              		.file 11 "ChibiOS_3.0.2/os/rt/ports/ARMCMx/chcore.h"
 1039              		.file 12 "ChibiOS_3.0.2/os/rt/ports/ARMCMx/chcore_v7m.h"
 1040              		.file 13 "ChibiOS_3.0.2/os/rt/include/chtm.h"
 1041              		.file 14 "ChibiOS_3.0.2/os/rt/include/chsem.h"
 1042              		.file 15 "ChibiOS_3.0.2/os/rt/include/chmtx.h"
 1043              		.file 16 "ChibiOS_3.0.2/os/rt/include/chthreads.h"
 1044              		.file 17 "datatypes.h"
 1045              		.file 18 "ChibiOS_3.0.2/os/rt/include/chsys.h"
 1046              		.file 19 "ChibiOS_3.0.2/os/ext/CMSIS/include/core_cm4.h"
 1047              		.file 20 "mc_interface.h"
 1048              		.file 21 "ws2811.h"
 1049              		.file 22 "utils.h"