ARM GAS  /tmp/ccf88qXK.s 			page 1


   1              		.syntax unified
   2              		.cpu cortex-m4
   3              		.eabi_attribute 27, 3
   4              		.eabi_attribute 28, 1
   5              		.fpu fpv4-sp-d16
   6              		.eabi_attribute 20, 1
   7              		.eabi_attribute 21, 1
   8              		.eabi_attribute 23, 3
   9              		.eabi_attribute 24, 1
  10              		.eabi_attribute 25, 1
  11              		.eabi_attribute 26, 1
  12              		.eabi_attribute 30, 2
  13              		.eabi_attribute 34, 1
  14              		.eabi_attribute 18, 4
  15              		.thumb
  16              		.file	"main.c"
  17              		.text
  18              	.Ltext0:
  19              		.cfi_sections	.debug_frame
  20              		.section	.text.timer_thread,"ax",%progbits
  21              		.align	2
  22              		.p2align 4,,15
  23              		.thumb
  24              		.thumb_func
  25              		.type	timer_thread, %function
  26              	timer_thread:
  27              	.LFB257:
  28              		.file 1 "main.c"
  29              		.loc 1 169 0
  30              		.cfi_startproc
  31              		@ Volatile: function does not return.
  32              		@ args = 0, pretend = 0, frame = 0
  33              		@ frame_needed = 0, uses_anonymous_args = 0
  34              	.LVL0:
  35 0000 08B5     		push	{r3, lr}
  36              		.cfi_def_cfa_offset 8
  37              		.cfi_offset 3, -8
  38              		.cfi_offset 14, -4
  39              	.LBB8:
  40              	.LBB9:
  41              		.file 2 "ChibiOS_3.0.2/os/rt/include/chregistry.h"
  42              		.loc 2 135 0
  43 0002 054B     		ldr	r3, .L4
  44 0004 054A     		ldr	r2, .L4+4
  45 0006 9B69     		ldr	r3, [r3, #24]
  46 0008 9A61     		str	r2, [r3, #24]
  47              	.LVL1:
  48              	.L2:
  49              	.LBE9:
  50              	.LBE8:
  51              		.loc 1 175 0 discriminator 1
  52 000a FFF7FEFF 		bl	packet_timerfunc
  53              	.LVL2:
  54              		.loc 1 176 0 discriminator 1
  55 000e 0A20     		movs	r0, #10
  56 0010 FFF7FEFF 		bl	chThdSleep
  57              	.LVL3:
ARM GAS  /tmp/ccf88qXK.s 			page 2


  58 0014 F9E7     		b	.L2
  59              	.L5:
  60 0016 00BF     		.align	2
  61              	.L4:
  62 0018 00000000 		.word	ch
  63 001c 00000000 		.word	.LC0
  64              		.cfi_endproc
  65              	.LFE257:
  66              		.size	timer_thread, .-timer_thread
  67              		.section	.text.periodic_thread,"ax",%progbits
  68              		.align	2
  69              		.p2align 4,,15
  70              		.thumb
  71              		.thumb_func
  72              		.type	periodic_thread, %function
  73              	periodic_thread:
  74              	.LFB256:
  75              		.loc 1 81 0
  76              		.cfi_startproc
  77              		@ args = 0, pretend = 0, frame = 0
  78              		@ frame_needed = 0, uses_anonymous_args = 0
  79              	.LVL4:
  80 0000 38B5     		push	{r3, r4, r5, lr}
  81              		.cfi_def_cfa_offset 16
  82              		.cfi_offset 3, -16
  83              		.cfi_offset 4, -12
  84              		.cfi_offset 5, -8
  85              		.cfi_offset 14, -4
  86              	.LBB10:
  87              	.LBB11:
  88              		.loc 2 135 0
  89 0002 464B     		ldr	r3, .L28
  90 0004 464A     		ldr	r2, .L28+4
  91 0006 9B69     		ldr	r3, [r3, #24]
  92              	.LBE11:
  93              	.LBE10:
  94              		.loc 1 81 0
  95 0008 2DED028B 		fstmfdd	sp!, {d8}
  96              		.cfi_def_cfa_offset 24
  97              		.cfi_offset 80, -24
  98              	.LBB13:
  99              	.LBB12:
 100              		.loc 2 135 0
 101 000c 9A61     		str	r2, [r3, #24]
 102              	.LVL5:
 103              	.L22:
 104              	.LBE12:
 105              	.LBE13:
 106              	.LBB14:
 107              		.loc 1 87 0
 108 000e FFF7FEFF 		bl	mc_interface_get_state
 109              	.LVL6:
 110 0012 0228     		cmp	r0, #2
 111              		.loc 1 88 0
 112 0014 08BF     		it	eq
 113 0016 B7EE000A 		fconstseq	s0, #112
 114 001a 4FF00000 		mov	r0, #0
ARM GAS  /tmp/ccf88qXK.s 			page 3


 115              		.loc 1 90 0
 116 001e 18BF     		it	ne
 117 0020 9FED400A 		fldsne	s0, .L28+8
 118 0024 FFF7FEFF 		bl	ledpwm_set_intensity
 119              	.LVL7:
 120              		.loc 1 93 0
 121 0028 FFF7FEFF 		bl	mc_interface_get_fault
 122              	.LVL8:
 123              		.loc 1 94 0
 124 002c 0546     		mov	r5, r0
 125 002e 78B3     		cbz	r0, .L9
 126              	.LVL9:
 127              	.LBB15:
 128              		.loc 1 95 0 discriminator 1
 129 0030 0024     		movs	r4, #0
 130              	.LVL10:
 131              	.L12:
 132              		.loc 1 96 0 discriminator 2
 133 0032 B7EE000A 		fconsts	s0, #112
 134 0036 0120     		movs	r0, #1
 135 0038 FFF7FEFF 		bl	ledpwm_set_intensity
 136              	.LVL11:
 137              		.loc 1 97 0 discriminator 2
 138 003c 40F6C410 		movw	r0, #2500
 139 0040 FFF7FEFF 		bl	chThdSleep
 140              	.LVL12:
 141              		.loc 1 98 0 discriminator 2
 142 0044 0120     		movs	r0, #1
 143 0046 9FED380A 		flds	s0, .L28+12
 144              		.loc 1 95 0 discriminator 2
 145 004a 0444     		add	r4, r4, r0
 146              	.LVL13:
 147              		.loc 1 98 0 discriminator 2
 148 004c FFF7FEFF 		bl	ledpwm_set_intensity
 149              	.LVL14:
 150              		.loc 1 99 0 discriminator 2
 151 0050 40F6C410 		movw	r0, #2500
 152 0054 FFF7FEFF 		bl	chThdSleep
 153              	.LVL15:
 154              		.loc 1 95 0 discriminator 2
 155 0058 AC42     		cmp	r4, r5
 156 005a EADB     		blt	.L12
 157              	.LBE15:
 158              		.loc 1 102 0
 159 005c 41F28830 		movw	r0, #5000
 160 0060 FFF7FEFF 		bl	chThdSleep
 161              	.LVL16:
 162              		.loc 1 107 0
 163 0064 FFF7FEFF 		bl	mc_interface_get_state
 164              	.LVL17:
 165 0068 0128     		cmp	r0, #1
 166 006a 1AD0     		beq	.L24
 167              	.LVL18:
 168              	.L13:
 169              		.loc 1 111 0
 170 006c FFF7FEFF 		bl	commands_get_disp_pos_mode
 171              	.LVL19:
ARM GAS  /tmp/ccf88qXK.s 			page 4


 172              		.loc 1 113 0
 173 0070 0428     		cmp	r0, #4
 174              		.loc 1 111 0
 175 0072 0446     		mov	r4, r0
 176              	.LVL20:
 177              		.loc 1 113 0
 178 0074 1ED0     		beq	.L15
 179              	.LVL21:
 180              	.L27:
 181 0076 0528     		cmp	r0, #5
 182 0078 3CD0     		beq	.L16
 183 007a 0328     		cmp	r0, #3
 184 007c 32D0     		beq	.L25
 185              		.loc 1 130 0
 186 007e FFF7FEFF 		bl	mc_interface_get_configuration
 187              	.LVL22:
 188 0082 8378     		ldrb	r3, [r0, #2]	@ zero_extendqisi2
 189 0084 022B     		cmp	r3, #2
 190 0086 1AD0     		beq	.L26
 191              	.L19:
 192              		.loc 1 145 0
 193 0088 6420     		movs	r0, #100
 194 008a FFF7FEFF 		bl	chThdSleep
 195              	.LVL23:
 196              	.LBE14:
 197              		.loc 1 166 0
 198 008e BEE7     		b	.L22
 199              	.LVL24:
 200              	.L9:
 201              	.LBB16:
 202              		.loc 1 104 0
 203 0090 0120     		movs	r0, #1
 204              	.LVL25:
 205 0092 9FED250A 		flds	s0, .L28+12
 206 0096 FFF7FEFF 		bl	ledpwm_set_intensity
 207              	.LVL26:
 208              		.loc 1 107 0
 209 009a FFF7FEFF 		bl	mc_interface_get_state
 210              	.LVL27:
 211 009e 0128     		cmp	r0, #1
 212 00a0 E4D1     		bne	.L13
 213              	.L24:
 214              		.loc 1 108 0
 215 00a2 FFF7FEFF 		bl	mcpwm_get_detect_pos
 216              	.LVL28:
 217 00a6 FFF7FEFF 		bl	commands_send_rotor_pos
 218              	.LVL29:
 219              		.loc 1 111 0
 220 00aa FFF7FEFF 		bl	commands_get_disp_pos_mode
 221              	.LVL30:
 222              		.loc 1 113 0
 223 00ae 0428     		cmp	r0, #4
 224              		.loc 1 111 0
 225 00b0 0446     		mov	r4, r0
 226              	.LVL31:
 227              		.loc 1 113 0
 228 00b2 E0D1     		bne	.L27
ARM GAS  /tmp/ccf88qXK.s 			page 5


 229              	.LVL32:
 230              	.L15:
 231              		.loc 1 119 0
 232 00b4 FFF7FEFF 		bl	mc_interface_get_pid_pos_now
 233              	.LVL33:
 234 00b8 FFF7FEFF 		bl	commands_send_rotor_pos
 235              	.LVL34:
 236              		.loc 1 120 0
 237 00bc 16E0     		b	.L18
 238              	.L26:
 239              		.loc 1 131 0
 240 00be 022C     		cmp	r4, #2
 241 00c0 27D0     		beq	.L20
 242 00c2 062C     		cmp	r4, #6
 243 00c4 E0D1     		bne	.L19
 244              		.loc 1 137 0
 245 00c6 FFF7FEFF 		bl	mcpwm_foc_get_phase_observer
 246              	.LVL35:
 247 00ca B0EE408A 		fcpys	s16, s0
 248 00ce FFF7FEFF 		bl	mcpwm_foc_get_phase_encoder
 249              	.LVL36:
 250 00d2 F0EE400A 		fcpys	s1, s0
 251 00d6 B0EE480A 		fcpys	s0, s16
 252 00da FFF7FEFF 		bl	utils_angle_difference
 253              	.LVL37:
 254 00de FFF7FEFF 		bl	commands_send_rotor_pos
 255              	.LVL38:
 256              		.loc 1 138 0
 257 00e2 D1E7     		b	.L19
 258              	.L25:
 259              		.loc 1 115 0
 260 00e4 FFF7FEFF 		bl	encoder_read_deg
 261              	.LVL39:
 262 00e8 FFF7FEFF 		bl	commands_send_rotor_pos
 263              	.LVL40:
 264              	.L18:
 265              		.loc 1 130 0
 266 00ec FFF7FEFF 		bl	mc_interface_get_configuration
 267              	.LVL41:
 268 00f0 8378     		ldrb	r3, [r0, #2]	@ zero_extendqisi2
 269 00f2 C9E7     		b	.L19
 270              	.L16:
 271              		.loc 1 123 0
 272 00f4 FFF7FEFF 		bl	mc_interface_get_pid_pos_set
 273              	.LVL42:
 274 00f8 B0EE408A 		fcpys	s16, s0
 275 00fc FFF7FEFF 		bl	mc_interface_get_pid_pos_now
 276              	.LVL43:
 277 0100 F0EE400A 		fcpys	s1, s0
 278 0104 B0EE480A 		fcpys	s0, s16
 279 0108 FFF7FEFF 		bl	utils_angle_difference
 280              	.LVL44:
 281 010c FFF7FEFF 		bl	commands_send_rotor_pos
 282              	.LVL45:
 283              		.loc 1 124 0
 284 0110 ECE7     		b	.L18
 285              	.L20:
ARM GAS  /tmp/ccf88qXK.s 			page 6


 286              		.loc 1 133 0
 287 0112 FFF7FEFF 		bl	mcpwm_foc_get_phase_observer
 288              	.LVL46:
 289 0116 FFF7FEFF 		bl	commands_send_rotor_pos
 290              	.LVL47:
 291              		.loc 1 134 0
 292 011a B5E7     		b	.L19
 293              	.L29:
 294              		.align	2
 295              	.L28:
 296 011c 00000000 		.word	ch
 297 0120 0C000000 		.word	.LC1
 298 0124 CDCC4C3E 		.word	1045220557
 299 0128 00000000 		.word	0
 300              	.LBE16:
 301              		.cfi_endproc
 302              	.LFE256:
 303              		.size	periodic_thread, .-periodic_thread
 304 012c AFF30080 		.section	.text.startup.main,"ax",%progbits
 305              		.align	2
 306              		.p2align 4,,15
 307              		.global	main
 308              		.thumb
 309              		.thumb_func
 310              		.type	main, %function
 311              	main:
 312              	.LFB258:
 313              		.loc 1 180 0
 314              		.cfi_startproc
 315              		@ args = 0, pretend = 0, frame = 576
 316              		@ frame_needed = 0, uses_anonymous_args = 0
 317 0000 10B5     		push	{r4, lr}
 318              		.cfi_def_cfa_offset 8
 319              		.cfi_offset 4, -8
 320              		.cfi_offset 14, -4
 321 0002 ADF5127D 		sub	sp, sp, #584
 322              		.cfi_def_cfa_offset 592
 323              		.loc 1 181 0
 324 0006 FFF7FEFF 		bl	halInit
 325              	.LVL48:
 326              		.loc 1 182 0
 327 000a FFF7FEFF 		bl	chSysInit
 328              	.LVL49:
 329              		.loc 1 191 0
 330 000e 42F21070 		movw	r0, #10000
 331 0012 FFF7FEFF 		bl	chThdSleep
 332              	.LVL50:
 333              		.loc 1 193 0
 334 0016 FFF7FEFF 		bl	hw_init_gpio
 335              	.LVL51:
 336              		.loc 1 194 0
 337 001a 1C4B     		ldr	r3, .L32
 338 001c 2021     		movs	r1, #32
 339              		.loc 1 195 0
 340 001e 1022     		movs	r2, #16
 341              		.loc 1 194 0
 342 0020 5983     		strh	r1, [r3, #26]	@ movhi
ARM GAS  /tmp/ccf88qXK.s 			page 7


 343              		.loc 1 195 0
 344 0022 5A83     		strh	r2, [r3, #26]	@ movhi
 345              		.loc 1 197 0
 346 0024 FFF7FEFF 		bl	conf_general_init
 347              	.LVL52:
 348              		.loc 1 198 0
 349 0028 FFF7FEFF 		bl	ledpwm_init
 350              	.LVL53:
 351              		.loc 1 201 0
 352 002c 35A8     		add	r0, sp, #212
 353 002e FFF7FEFF 		bl	conf_general_read_mc_configuration
 354              	.LVL54:
 355              		.loc 1 202 0
 356 0032 35A8     		add	r0, sp, #212
 357 0034 FFF7FEFF 		bl	mc_interface_init
 358              	.LVL55:
 359              		.loc 1 204 0
 360 0038 FFF7FEFF 		bl	commands_init
 361              	.LVL56:
 362              		.loc 1 205 0
 363 003c FFF7FEFF 		bl	comm_usb_init
 364              	.LVL57:
 365              		.loc 1 208 0
 366 0040 FFF7FEFF 		bl	comm_can_init
 367              	.LVL58:
 368              		.loc 1 212 0
 369 0044 03A8     		add	r0, sp, #12
 370 0046 FFF7FEFF 		bl	conf_general_read_app_configuration
 371              	.LVL59:
 372              		.loc 1 213 0
 373 004a 03A8     		add	r0, sp, #12
 374 004c FFF7FEFF 		bl	app_set_configuration
 375              	.LVL60:
 376              		.loc 1 250 0
 377 0050 0024     		movs	r4, #0
 378              		.loc 1 231 0
 379 0052 FFF7FEFF 		bl	timeout_init
 380              	.LVL61:
 381              		.loc 1 232 0
 382 0056 0498     		ldr	r0, [sp, #16]
 383 0058 9DED050A 		flds	s0, [sp, #20]
 384 005c FFF7FEFF 		bl	timeout_configure
 385              	.LVL62:
 386              		.loc 1 250 0
 387 0060 0B4B     		ldr	r3, .L32+4
 388 0062 0094     		str	r4, [sp]
 389 0064 4FF4B361 		mov	r1, #1432
 390 0068 4022     		movs	r2, #64
 391 006a 0A48     		ldr	r0, .L32+8
 392 006c FFF7FEFF 		bl	chThdCreateStatic
 393              	.LVL63:
 394              		.loc 1 251 0
 395 0070 0094     		str	r4, [sp]
 396 0072 0948     		ldr	r0, .L32+12
 397 0074 094B     		ldr	r3, .L32+16
 398 0076 4FF40671 		mov	r1, #536
 399 007a 4022     		movs	r2, #64
ARM GAS  /tmp/ccf88qXK.s 			page 8


 400 007c FFF7FEFF 		bl	chThdCreateStatic
 401              	.LVL64:
 402              	.L31:
 403              		.loc 1 314 0
 404 0080 6420     		movs	r0, #100
 405 0082 FFF7FEFF 		bl	chThdSleep
 406              	.LVL65:
 407              		.loc 1 316 0
 408 0086 FFF7FEFF 		bl	encoder_is_configured
 409              	.LVL66:
 410 008a F9E7     		b	.L31
 411              	.L33:
 412              		.align	2
 413              	.L32:
 414 008c 00080240 		.word	1073874944
 415 0090 00000000 		.word	periodic_thread
 416 0094 00000000 		.word	.LANCHOR0
 417 0098 00000000 		.word	.LANCHOR1
 418 009c 00000000 		.word	timer_thread
 419              		.cfi_endproc
 420              	.LFE258:
 421              		.size	main, .-main
 422              		.section	.bss.timer_thread_wa,"aw",%nobits
 423              		.align	3
 424              		.set	.LANCHOR1,. + 0
 425              		.type	timer_thread_wa, %object
 426              		.size	timer_thread_wa, 536
 427              	timer_thread_wa:
 428 0000 00000000 		.space	536
 428      00000000 
 428      00000000 
 428      00000000 
 428      00000000 
 429              		.section	.rodata.str1.4,"aMS",%progbits,1
 430              		.align	2
 431              	.LC0:
 432 0000 6D736563 		.ascii	"msec_timer\000"
 432      5F74696D 
 432      657200
 433 000b 00       		.space	1
 434              	.LC1:
 435 000c 4D61696E 		.ascii	"Main periodic\000"
 435      20706572 
 435      696F6469 
 435      6300
 436 001a 0000     		.section	.bss.periodic_thread_wa,"aw",%nobits
 437              		.align	3
 438              		.set	.LANCHOR0,. + 0
 439              		.type	periodic_thread_wa, %object
 440              		.size	periodic_thread_wa, 1432
 441              	periodic_thread_wa:
 442 0000 00000000 		.space	1432
 442      00000000 
 442      00000000 
 442      00000000 
 442      00000000 
 443              		.text
ARM GAS  /tmp/ccf88qXK.s 			page 9


 444              	.Letext0:
 445              		.file 3 "/usr/lib/gcc/arm-none-eabi/4.8/include/stddef.h"
 446              		.file 4 "/usr/include/newlib/machine/_default_types.h"
 447              		.file 5 "/usr/include/newlib/stdint.h"
 448              		.file 6 "ChibiOS_3.0.2/os/rt/ports/ARMCMx/compilers/GCC/chtypes.h"
 449              		.file 7 "ChibiOS_3.0.2/os/rt/include/chsystypes.h"
 450              		.file 8 "ChibiOS_3.0.2/os/rt/include/chschd.h"
 451              		.file 9 "ChibiOS_3.0.2/os/rt/ports/ARMCMx/chcore.h"
 452              		.file 10 "ChibiOS_3.0.2/os/rt/ports/ARMCMx/chcore_v7m.h"
 453              		.file 11 "ChibiOS_3.0.2/os/rt/include/chtm.h"
 454              		.file 12 "ChibiOS_3.0.2/os/rt/include/chsem.h"
 455              		.file 13 "ChibiOS_3.0.2/os/rt/include/chmtx.h"
 456              		.file 14 "ChibiOS_3.0.2/os/rt/include/chthreads.h"
 457              		.file 15 "./datatypes.h"
 458              		.file 16 "ChibiOS_3.0.2/os/hal/ports/STM32/LLD/GPIOv2/pal_lld.h"
 459              		.file 17 "ledpwm.h"
 460              		.file 18 "mc_interface.h"
 461              		.file 19 "commands.h"
 462              		.file 20 "mcpwm.h"
 463              		.file 21 "mcpwm_foc.h"
 464              		.file 22 "encoder.h"
 465              		.file 23 "packet.h"
 466              		.file 24 "ChibiOS_3.0.2/os/hal/include/hal.h"
 467              		.file 25 "ChibiOS_3.0.2/os/rt/include/chsys.h"
 468              		.file 26 "hwconf/hw.h"
 469              		.file 27 "./conf_general.h"
 470              		.file 28 "comm_usb.h"
 471              		.file 29 "comm_can.h"
 472              		.file 30 "applications/app.h"
 473              		.file 31 "timeout.h"
 474              		.file 32 "utils.h"
 475              		.file 33 "ChibiOS_3.0.2/os/ext/CMSIS/include/core_cm4.h"