ARM GAS  /tmp/ccB9RVXV.s 			page 1


   1              		.syntax unified
   2              		.cpu cortex-m4
   3              		.eabi_attribute 27, 3
   4              		.eabi_attribute 28, 1
   5              		.fpu fpv4-sp-d16
   6              		.eabi_attribute 20, 1
   7              		.eabi_attribute 21, 1
   8              		.eabi_attribute 23, 3
   9              		.eabi_attribute 24, 1
  10              		.eabi_attribute 25, 1
  11              		.eabi_attribute 26, 1
  12              		.eabi_attribute 30, 2
  13              		.eabi_attribute 34, 1
  14              		.eabi_attribute 18, 4
  15              		.thumb
  16              		.file	"mc_interface.c"
  17              		.text
  18              	.Ltext0:
  19              		.cfi_sections	.debug_frame
  20              		.section	.text.sample_send_thread,"ax",%progbits
  21              		.align	2
  22              		.p2align 4,,15
  23              		.thumb
  24              		.thumb_func
  25              		.type	sample_send_thread, %function
  26              	sample_send_thread:
  27              	.LFB311:
  28              		.file 1 "mc_interface.c"
  29              		.loc 1 1496 0
  30              		.cfi_startproc
  31              		@ args = 0, pretend = 0, frame = 48
  32              		@ frame_needed = 0, uses_anonymous_args = 0
  33              	.LVL0:
  34 0000 2DE9F04F 		push	{r4, r5, r6, r7, r8, r9, r10, fp, lr}
  35              		.cfi_def_cfa_offset 36
  36              		.cfi_offset 4, -36
  37              		.cfi_offset 5, -32
  38              		.cfi_offset 6, -28
  39              		.cfi_offset 7, -24
  40              		.cfi_offset 8, -20
  41              		.cfi_offset 9, -16
  42              		.cfi_offset 10, -12
  43              		.cfi_offset 11, -8
  44              		.cfi_offset 14, -4
  45              	.LBB109:
  46              	.LBB110:
  47              		.file 2 "ChibiOS_3.0.2/os/rt/include/chregistry.h"
  48              		.loc 2 135 0
  49 0004 764B     		ldr	r3, .L16
  50              	.LBE110:
  51              	.LBE109:
  52              		.loc 1 1501 0
  53 0006 774A     		ldr	r2, .L16+4
  54              	.LBB113:
  55              	.LBB111:
  56              		.loc 2 135 0
  57 0008 9B69     		ldr	r3, [r3, #24]
ARM GAS  /tmp/ccB9RVXV.s 			page 2


  58 000a 7749     		ldr	r1, .L16+8
  59 000c 774E     		ldr	r6, .L16+12
  60 000e DFF814B2 		ldr	fp, .L16+68
  61 0012 DFF814A2 		ldr	r10, .L16+72
  62              	.LBE111:
  63              	.LBE113:
  64              		.loc 1 1496 0
  65 0016 2DED068B 		fstmfdd	sp!, {d8, d9, d10}
  66              		.cfi_def_cfa_offset 60
  67              		.cfi_offset 80, -60
  68              		.cfi_offset 82, -52
  69              		.cfi_offset 84, -44
  70              	.LBB114:
  71              	.LBB115:
  72              	.LBB116:
  73              		.loc 1 1541 0
  74 001a DFED759A 		flds	s19, .L16+16
  75              		.loc 1 1543 0
  76 001e 9FED759A 		flds	s18, .L16+20
  77 0022 DFED758A 		flds	s17, .L16+24
  78 0026 9FED758A 		flds	s16, .L16+28
  79              	.LBE116:
  80              	.LBE115:
  81              	.LBE114:
  82              	.LBB122:
  83              	.LBB112:
  84              		.loc 2 135 0
  85 002a 9961     		str	r1, [r3, #24]
  86              	.LBE112:
  87              	.LBE122:
  88              		.loc 1 1496 0
  89 002c 8DB0     		sub	sp, sp, #52
  90              		.cfi_def_cfa_offset 112
  91              		.loc 1 1501 0
  92 002e 1360     		str	r3, [r2]
  93              	.LVL1:
  94              	.L13:
  95              	.LBB123:
  96              		.loc 1 1504 0
  97 0030 0120     		movs	r0, #1
  98 0032 FFF7FEFF 		bl	chEvtWaitAny
  99              	.LVL2:
 100              		.loc 1 1509 0
 101 0036 7249     		ldr	r1, .L16+32
 102 0038 0B78     		ldrb	r3, [r1]	@ zero_extendqisi2
 103 003a 013B     		subs	r3, r3, #1
 104 003c 052B     		cmp	r3, #5
 105 003e F7D8     		bhi	.L13
 106 0040 DFE803F0 		tbb	[pc, r3]
 107              	.L4:
 108 0044 C4       		.byte	(.L3-.L4)/2
 109 0045 C4       		.byte	(.L3-.L4)/2
 110 0046 03       		.byte	(.L5-.L4)/2
 111 0047 03       		.byte	(.L5-.L4)/2
 112 0048 03       		.byte	(.L5-.L4)/2
 113 0049 03       		.byte	(.L5-.L4)/2
 114              		.p2align 1
ARM GAS  /tmp/ccB9RVXV.s 			page 3


 115              	.L5:
 116              	.LVL3:
 117              		.loc 1 1520 0
 118 004a 6E49     		ldr	r1, .L16+36
 119 004c 0A68     		ldr	r2, [r1]
 120 004e 6E49     		ldr	r1, .L16+40
 121 0050 0B68     		ldr	r3, [r1]
 122              		.loc 1 1519 0
 123 0052 4FF4FA68 		mov	r8, #2000
 124              		.loc 1 1520 0
 125 0056 D31A     		subs	r3, r2, r3
 126              	.LVL4:
 127              	.L6:
 128              	.LBB120:
 129              	.LBB117:
 130              		.loc 1 1547 0
 131 0058 9FED6CAA 		flds	s20, .L16+44
 132 005c 9946     		mov	r9, r3
 133              	.LBE117:
 134              		.loc 1 1527 0
 135 005e 0027     		movs	r7, #0
 136              	.LVL5:
 137              	.L7:
 138              	.LBB118:
 139              		.loc 1 1532 0
 140 0060 B9F5FA6F 		cmp	r9, #2000
 141              		.loc 1 1530 0
 142 0064 4C46     		mov	r4, r9
 143              	.LVL6:
 144              		.loc 1 1532 0
 145 0066 04DB     		blt	.L9
 146              	.L10:
 147              		.loc 1 1533 0
 148 0068 A4F5FA64 		sub	r4, r4, #2000
 149              	.LVL7:
 150              		.loc 1 1532 0
 151 006c B4F5FA6F 		cmp	r4, #2000
 152 0070 FADA     		bge	.L10
 153              	.L9:
 154              		.loc 1 1536 0 discriminator 1
 155 0072 002C     		cmp	r4, #0
 156 0074 02DA     		bge	.L11
 157              	.L12:
 158              	.LVL8:
 159              		.loc 1 1536 0 is_stmt 0
 160 0076 14F5FA64 		adds	r4, r4, #2000
 161              	.LVL9:
 162 007a FCD4     		bmi	.L12
 163              	.L11:
 164              		.loc 1 1541 0 is_stmt 1
 165 007c 36F81430 		ldrh	r3, [r6, r4, lsl #1]
 166 0080 1BB2     		sxth	r3, r3
 167 0082 07EE903A 		fmsr	s15, r3	@ int
 168 0086 B8EEE70A 		fsitos	s0, s15
 169              		.loc 1 1540 0
 170 008a 0122     		movs	r2, #1
 171              		.loc 1 1542 0
ARM GAS  /tmp/ccB9RVXV.s 			page 4


 172 008c 04FA02F5 		lsl	r5, r4, r2
 173              		.loc 1 1540 0
 174 0090 1323     		movs	r3, #19
 175              		.loc 1 1541 0
 176 0092 20EE290A 		fmuls	s0, s0, s19
 177 0096 02A8     		add	r0, sp, #8
 178 0098 01A9     		add	r1, sp, #4
 179              		.loc 1 1540 0
 180 009a 0192     		str	r2, [sp, #4]
 181 009c 8DF80830 		strb	r3, [sp, #8]
 182              		.loc 1 1541 0
 183 00a0 FFF7FEFF 		bl	buffer_append_float32_auto
 184              	.LVL10:
 185              		.loc 1 1542 0
 186 00a4 7319     		adds	r3, r6, r5
 187 00a6 02A8     		add	r0, sp, #8
 188 00a8 B3F8A03F 		ldrh	r3, [r3, #4000]
 189 00ac 1BB2     		sxth	r3, r3
 190 00ae 07EE903A 		fmsr	s15, r3	@ int
 191 00b2 B8EEE70A 		fsitos	s0, s15
 192 00b6 01A9     		add	r1, sp, #4
 193 00b8 20EE290A 		fmuls	s0, s0, s19
 194 00bc FFF7FEFF 		bl	buffer_append_float32_auto
 195              	.LVL11:
 196              		.loc 1 1543 0
 197 00c0 0BEB0503 		add	r3, fp, r5
 198 00c4 02A8     		add	r0, sp, #8
 199 00c6 B3F8483E 		ldrh	r3, [r3, #3656]
 200 00ca 1BB2     		sxth	r3, r3
 201 00cc 07EE903A 		fmsr	s15, r3	@ int
 202 00d0 B8EEE70A 		fsitos	s0, s15
 203 00d4 01A9     		add	r1, sp, #4
 204 00d6 20EE090A 		fmuls	s0, s0, s18
 205              	.LBE118:
 206              		.loc 1 1527 0
 207 00da 0137     		adds	r7, r7, #1
 208              	.LVL12:
 209              	.LBB119:
 210              		.loc 1 1543 0
 211 00dc 20EE280A 		fmuls	s0, s0, s17
 212 00e0 09F10109 		add	r9, r9, #1
 213 00e4 20EE080A 		fmuls	s0, s0, s16
 214 00e8 FFF7FEFF 		bl	buffer_append_float32_auto
 215              	.LVL13:
 216              		.loc 1 1544 0
 217 00ec 0AEB0503 		add	r3, r10, r5
 218 00f0 02A8     		add	r0, sp, #8
 219 00f2 B3F8F03C 		ldrh	r3, [r3, #3312]
 220 00f6 1BB2     		sxth	r3, r3
 221 00f8 07EE903A 		fmsr	s15, r3	@ int
 222 00fc B8EEE70A 		fsitos	s0, s15
 223 0100 01A9     		add	r1, sp, #4
 224 0102 20EE090A 		fmuls	s0, s0, s18
 225 0106 20EE280A 		fmuls	s0, s0, s17
 226 010a 20EE080A 		fmuls	s0, s0, s16
 227 010e FFF7FEFF 		bl	buffer_append_float32_auto
 228              	.LVL14:
ARM GAS  /tmp/ccB9RVXV.s 			page 5


 229              		.loc 1 1545 0
 230 0112 3F4B     		ldr	r3, .L16+48
 231 0114 2B44     		add	r3, r3, r5
 232 0116 02A8     		add	r0, sp, #8
 233 0118 B3F8983B 		ldrh	r3, [r3, #2968]
 234 011c 1BB2     		sxth	r3, r3
 235 011e 07EE903A 		fmsr	s15, r3	@ int
 236 0122 B8EEE70A 		fsitos	s0, s15
 237 0126 01A9     		add	r1, sp, #4
 238 0128 20EE090A 		fmuls	s0, s0, s18
 239 012c 20EE280A 		fmuls	s0, s0, s17
 240 0130 20EE080A 		fmuls	s0, s0, s16
 241 0134 FFF7FEFF 		bl	buffer_append_float32_auto
 242              	.LVL15:
 243              		.loc 1 1546 0
 244 0138 364B     		ldr	r3, .L16+52
 245 013a 2B44     		add	r3, r3, r5
 246 013c 02A8     		add	r0, sp, #8
 247 013e B3F8403A 		ldrh	r3, [r3, #2624]
 248 0142 1BB2     		sxth	r3, r3
 249 0144 07EE903A 		fmsr	s15, r3	@ int
 250 0148 B8EEE70A 		fsitos	s0, s15
 251 014c 01A9     		add	r1, sp, #4
 252 014e 20EE090A 		fmuls	s0, s0, s18
 253 0152 20EE280A 		fmuls	s0, s0, s17
 254 0156 20EE080A 		fmuls	s0, s0, s16
 255 015a FFF7FEFF 		bl	buffer_append_float32_auto
 256              	.LVL16:
 257              		.loc 1 1547 0
 258 015e 2E4B     		ldr	r3, .L16+56
 259 0160 2B44     		add	r3, r3, r5
 260 0162 02A8     		add	r0, sp, #8
 261 0164 B3F8E838 		ldrh	r3, [r3, #2280]
 262 0168 1BB2     		sxth	r3, r3
 263 016a 07EE903A 		fmsr	s15, r3	@ int
 264 016e B8EEE70A 		fsitos	s0, s15
 265 0172 01A9     		add	r1, sp, #4
 266 0174 80EE0A0A 		fdivs	s0, s0, s20
 267 0178 FFF7FEFF 		bl	buffer_append_float32_auto
 268              	.LVL17:
 269              		.loc 1 1548 0
 270 017c 2749     		ldr	r1, .L16+60
 271 017e 0D44     		add	r5, r5, r1
 272 0180 02A8     		add	r0, sp, #8
 273 0182 B5F89037 		ldrh	r3, [r5, #1936]
 274 0186 1BB2     		sxth	r3, r3
 275 0188 01A9     		add	r1, sp, #4
 276 018a 07EE903A 		fmsr	s15, r3	@ int
 277 018e B8EEE70A 		fsitos	s0, s15
 278 0192 F2EE047A 		fconsts	s15, #36
 279 0196 20EE270A 		fmuls	s0, s0, s15
 280 019a FFF7FEFF 		bl	buffer_append_float32_auto
 281              	.LVL18:
 282              		.loc 1 1549 0
 283 019e 2049     		ldr	r1, .L16+64
 284 01a0 019B     		ldr	r3, [sp, #4]
 285 01a2 0C44     		add	r4, r4, r1
ARM GAS  /tmp/ccB9RVXV.s 			page 6


 286              	.LVL19:
 287 01a4 0CAA     		add	r2, sp, #48
 288 01a6 1A44     		add	r2, r2, r3
 289 01a8 94F83816 		ldrb	r1, [r4, #1592]	@ zero_extendqisi2
 290 01ac 02F8281C 		strb	r1, [r2, #-40]
 291              		.loc 1 1550 0
 292 01b0 0233     		adds	r3, r3, #2
 293 01b2 94F8084E 		ldrb	r4, [r4, #3592]	@ zero_extendqisi2
 294              	.LVL20:
 295 01b6 02F8274C 		strb	r4, [r2, #-39]
 296              		.loc 1 1552 0
 297 01ba 1946     		mov	r1, r3
 298 01bc 02A8     		add	r0, sp, #8
 299              		.loc 1 1550 0
 300 01be 0193     		str	r3, [sp, #4]
 301              		.loc 1 1552 0
 302 01c0 FFF7FEFF 		bl	commands_send_packet
 303              	.LVL21:
 304              	.LBE119:
 305              		.loc 1 1527 0
 306 01c4 B845     		cmp	r8, r7
 307 01c6 3FF74BAF 		bgt	.L7
 308 01ca 31E7     		b	.L13
 309              	.LVL22:
 310              	.L3:
 311              	.LBE120:
 312              		.loc 1 1512 0
 313 01cc 0E4B     		ldr	r3, .L16+40
 314 01ce D3F80080 		ldr	r8, [r3]
 315              	.LVL23:
 316              	.LBB121:
 317              		.loc 1 1527 0
 318 01d2 B8F1000F 		cmp	r8, #0
 319 01d6 C8BF     		it	gt
 320 01d8 0023     		movgt	r3, #0
 321 01da 3FF73DAF 		bgt	.L6
 322 01de 27E7     		b	.L13
 323              	.L17:
 324              		.align	2
 325              	.L16:
 326 01e0 00000000 		.word	ch
 327 01e4 00000000 		.word	.LANCHOR0
 328 01e8 00000000 		.word	.LC0
 329 01ec 00000000 		.word	.LANCHOR4
 330 01f0 500AA53D 		.word	1034226256
 331 01f4 00008039 		.word	964689920
 332 01f8 33335340 		.word	1079194419
 333 01fc 74D19541 		.word	1100337524
 334 0200 00000000 		.word	.LANCHOR1
 335 0204 00000000 		.word	.LANCHOR3
 336 0208 00000000 		.word	.LANCHOR2
 337 020c A48BC642 		.word	1120308132
 338 0210 E8320000 		.word	.LANCHOR7
 339 0214 E0430000 		.word	.LANCHOR8
 340 0218 D8540000 		.word	.LANCHOR9
 341 021c D0650000 		.word	.LANCHOR10
 342 0220 C8760000 		.word	.LANCHOR11
ARM GAS  /tmp/ccB9RVXV.s 			page 7


 343 0224 F8100000 		.word	.LANCHOR5
 344 0228 F0210000 		.word	.LANCHOR6
 345              	.LBE121:
 346              	.LBE123:
 347              		.cfi_endproc
 348              	.LFE311:
 349              		.size	sample_send_thread, .-sample_send_thread
 350 022c AFF30080 		.section	.text.mc_interface_init,"ax",%progbits
 351              		.align	2
 352              		.p2align 4,,15
 353              		.global	mc_interface_init
 354              		.thumb
 355              		.thumb_func
 356              		.type	mc_interface_init, %function
 357              	mc_interface_init:
 358              	.LFB256:
 359              		.loc 1 99 0
 360              		.cfi_startproc
 361              		@ args = 0, pretend = 0, frame = 0
 362              		@ frame_needed = 0, uses_anonymous_args = 0
 363              	.LVL24:
 364 0000 2DE9F04F 		push	{r4, r5, r6, r7, r8, r9, r10, fp, lr}
 365              		.cfi_def_cfa_offset 36
 366              		.cfi_offset 4, -36
 367              		.cfi_offset 5, -32
 368              		.cfi_offset 6, -28
 369              		.cfi_offset 7, -24
 370              		.cfi_offset 8, -20
 371              		.cfi_offset 9, -16
 372              		.cfi_offset 10, -12
 373              		.cfi_offset 11, -8
 374              		.cfi_offset 14, -4
 375              		.loc 1 100 0
 376 0004 4C4D     		ldr	r5, .L28
 377              		.loc 1 104 0
 378 0006 4D4F     		ldr	r7, .L28+4
 379              		.loc 1 105 0
 380 0008 DFF87091 		ldr	r9, .L28+68
 381              		.loc 1 107 0
 382 000c 4C4E     		ldr	r6, .L28+8
 383              		.loc 1 109 0
 384 000e DFF870B1 		ldr	fp, .L28+72
 385              		.loc 1 112 0
 386 0012 DFF870A1 		ldr	r10, .L28+76
 387              		.loc 1 113 0
 388 0016 DFF87081 		ldr	r8, .L28+80
 389              		.loc 1 99 0
 390 001a 83B0     		sub	sp, sp, #12
 391              		.cfi_def_cfa_offset 48
 392              		.loc 1 99 0
 393 001c 0146     		mov	r1, r0
 394              		.loc 1 100 0
 395 001e 4FF4BA72 		mov	r2, #372
 396 0022 2846     		mov	r0, r5
 397              	.LVL25:
 398 0024 FFF7FEFF 		bl	memcpy
 399              	.LVL26:
ARM GAS  /tmp/ccB9RVXV.s 			page 8


 400              		.loc 1 103 0
 401 0028 DFF860E1 		ldr	lr, .L28+84
 402              		.loc 1 106 0
 403 002c DFF860C1 		ldr	ip, .L28+88
 404              		.loc 1 108 0
 405 0030 4449     		ldr	r1, .L28+12
 406              		.loc 1 110 0
 407 0032 4548     		ldr	r0, .L28+16
 408              		.loc 1 111 0
 409 0034 454A     		ldr	r2, .L28+20
 410              		.loc 1 106 0
 411 0036 0023     		movs	r3, #0
 412              		.loc 1 101 0
 413 0038 0024     		movs	r4, #0
 414              		.loc 1 131 0
 415 003a 0094     		str	r4, [sp]
 416              		.loc 1 103 0
 417 003c CEF80040 		str	r4, [lr]
 418              		.loc 1 104 0
 419 0040 3C70     		strb	r4, [r7]
 420              		.loc 1 114 0
 421 0042 DFF850E1 		ldr	lr, .L28+92
 422              		.loc 1 105 0
 423 0046 89F80040 		strb	r4, [r9]
 424              		.loc 1 115 0
 425 004a 414F     		ldr	r7, .L28+24
 426              		.loc 1 106 0
 427 004c CCF80030 		str	r3, [ip]	@ float
 428              		.loc 1 116 0
 429 0050 DFF84491 		ldr	r9, .L28+96
 430              		.loc 1 107 0
 431 0054 3360     		str	r3, [r6]	@ float
 432              		.loc 1 117 0
 433 0056 DFF844C1 		ldr	ip, .L28+100
 434              		.loc 1 118 0
 435 005a 3E4E     		ldr	r6, .L28+28
 436              		.loc 1 108 0
 437 005c 0B60     		str	r3, [r1]	@ float
 438              		.loc 1 109 0
 439 005e CBF80030 		str	r3, [fp]	@ float
 440              		.loc 1 119 0
 441 0062 3D49     		ldr	r1, .L28+32
 442              		.loc 1 120 0
 443 0064 DFF838B1 		ldr	fp, .L28+104
 444              		.loc 1 110 0
 445 0068 0360     		str	r3, [r0]	@ float
 446              		.loc 1 111 0
 447 006a 1360     		str	r3, [r2]	@ float
 448              		.loc 1 121 0
 449 006c 3B48     		ldr	r0, .L28+36
 450              		.loc 1 112 0
 451 006e CAF80030 		str	r3, [r10]	@ float
 452              		.loc 1 123 0
 453 0072 3B4A     		ldr	r2, .L28+40
 454              		.loc 1 113 0
 455 0074 C8F80030 		str	r3, [r8]	@ float
 456              		.loc 1 124 0
ARM GAS  /tmp/ccB9RVXV.s 			page 9


 457 0078 DFF828A1 		ldr	r10, .L28+108
 458              		.loc 1 114 0
 459 007c CEF80030 		str	r3, [lr]	@ float
 460              		.loc 1 125 0
 461 0080 DFF82481 		ldr	r8, .L28+112
 462              		.loc 1 115 0
 463 0084 3B60     		str	r3, [r7]	@ float
 464              		.loc 1 126 0
 465 0086 DFF824E1 		ldr	lr, .L28+116
 466              		.loc 1 116 0
 467 008a C9F80030 		str	r3, [r9]	@ float
 468              		.loc 1 127 0
 469 008e 354F     		ldr	r7, .L28+44
 470              		.loc 1 117 0
 471 0090 CCF80030 		str	r3, [ip]	@ float
 472              		.loc 1 101 0
 473 0094 DFF81891 		ldr	r9, .L28+120
 474              		.loc 1 118 0
 475 0098 3360     		str	r3, [r6]	@ float
 476              		.loc 1 102 0
 477 009a DFF818C1 		ldr	ip, .L28+124
 478              		.loc 1 128 0
 479 009e 324E     		ldr	r6, .L28+48
 480              		.loc 1 119 0
 481 00a0 0B60     		str	r3, [r1]	@ float
 482              		.loc 1 120 0
 483 00a2 CBF80030 		str	r3, [fp]	@ float
 484              		.loc 1 123 0
 485 00a6 4FF47A71 		mov	r1, #1000
 486              		.loc 1 124 0
 487 00aa 4FF0010B 		mov	fp, #1
 488              		.loc 1 121 0
 489 00ae 0360     		str	r3, [r0]	@ float
 490              		.loc 1 102 0
 491 00b0 CCF80040 		str	r4, [ip]
 492              		.loc 1 123 0
 493 00b4 1160     		str	r1, [r2]
 494              		.loc 1 131 0
 495 00b6 2D4B     		ldr	r3, .L28+52
 496              		.loc 1 124 0
 497 00b8 CAF800B0 		str	fp, [r10]
 498              		.loc 1 131 0
 499 00bc 4FF4B361 		mov	r1, #1432
 500              		.loc 1 125 0
 501 00c0 C8F80040 		str	r4, [r8]
 502              		.loc 1 131 0
 503 00c4 4022     		movs	r2, #64
 504              		.loc 1 126 0
 505 00c6 CEF80040 		str	r4, [lr]
 506              		.loc 1 131 0
 507 00ca 2948     		ldr	r0, .L28+56
 508              		.loc 1 127 0
 509 00cc 3C70     		strb	r4, [r7]
 510              		.loc 1 101 0
 511 00ce 89F80040 		strb	r4, [r9]
 512              		.loc 1 128 0
 513 00d2 3470     		strb	r4, [r6]
ARM GAS  /tmp/ccB9RVXV.s 			page 10


 514              		.loc 1 131 0
 515 00d4 FFF7FEFF 		bl	chThdCreateStatic
 516              	.LVL27:
 517              		.loc 1 132 0
 518 00d8 264B     		ldr	r3, .L28+60
 519 00da 0094     		str	r4, [sp]
 520 00dc 2648     		ldr	r0, .L28+64
 521 00de 4FF4B361 		mov	r1, #1432
 522 00e2 3F22     		movs	r2, #63
 523 00e4 FFF7FEFF 		bl	chThdCreateStatic
 524              	.LVL28:
 525              		.loc 1 141 0
 526 00e8 95F85C31 		ldrb	r3, [r5, #348]	@ zero_extendqisi2
 527 00ec DBB2     		uxtb	r3, r3
 528 00ee 5B45     		cmp	r3, fp
 529 00f0 1CD0     		beq	.L20
 530 00f2 022B     		cmp	r3, #2
 531 00f4 0BD0     		beq	.L21
 532              	.L19:
 533              		.loc 1 156 0
 534 00f6 AB78     		ldrb	r3, [r5, #2]	@ zero_extendqisi2
 535 00f8 DBB2     		uxtb	r3, r3
 536 00fa 012B     		cmp	r3, #1
 537 00fc 0DD9     		bls	.L23
 538              	.L27:
 539 00fe 022B     		cmp	r3, #2
 540 0100 11D1     		bne	.L26
 541              		.loc 1 163 0
 542 0102 0D48     		ldr	r0, .L28
 543              		.loc 1 169 0
 544 0104 03B0     		add	sp, sp, #12
 545              		@ sp needed
 546 0106 BDE8F04F 		pop	{r4, r5, r6, r7, r8, r9, r10, fp, lr}
 547              		.loc 1 163 0
 548 010a FFF7FEBF 		b	mcpwm_foc_init
 549              	.LVL29:
 550              	.L21:
 551              		.loc 1 147 0
 552 010e FFF7FEFF 		bl	encoder_init_as5047p_spi
 553              	.LVL30:
 554              		.loc 1 156 0
 555 0112 AB78     		ldrb	r3, [r5, #2]	@ zero_extendqisi2
 556 0114 DBB2     		uxtb	r3, r3
 557 0116 012B     		cmp	r3, #1
 558 0118 F1D8     		bhi	.L27
 559              	.L23:
 560              		.loc 1 159 0
 561 011a 0748     		ldr	r0, .L28
 562              		.loc 1 169 0
 563 011c 03B0     		add	sp, sp, #12
 564              		@ sp needed
 565 011e BDE8F04F 		pop	{r4, r5, r6, r7, r8, r9, r10, fp, lr}
 566              		.loc 1 159 0
 567 0122 FFF7FEBF 		b	mcpwm_init
 568              	.LVL31:
 569              	.L26:
 570              		.loc 1 169 0
ARM GAS  /tmp/ccB9RVXV.s 			page 11


 571 0126 03B0     		add	sp, sp, #12
 572              		@ sp needed
 573 0128 BDE8F08F 		pop	{r4, r5, r6, r7, r8, r9, r10, fp, pc}
 574              	.L20:
 575              		.loc 1 143 0
 576 012c D5F85801 		ldr	r0, [r5, #344]
 577 0130 FFF7FEFF 		bl	encoder_init_abi
 578              	.LVL32:
 579              		.loc 1 144 0
 580 0134 DFE7     		b	.L19
 581              	.L29:
 582 0136 00BF     		.align	2
 583              	.L28:
 584 0138 00000000 		.word	.LANCHOR12
 585 013c 00000000 		.word	.LANCHOR16
 586 0140 00000000 		.word	.LANCHOR19
 587 0144 00000000 		.word	.LANCHOR20
 588 0148 00000000 		.word	.LANCHOR22
 589 014c 00000000 		.word	.LANCHOR23
 590 0150 00000000 		.word	.LANCHOR27
 591 0154 00000000 		.word	.LANCHOR30
 592 0158 00000000 		.word	.LANCHOR31
 593 015c 00000000 		.word	.LANCHOR33
 594 0160 00000000 		.word	.LANCHOR2
 595 0164 00000000 		.word	.LANCHOR36
 596 0168 00000000 		.word	.LANCHOR1
 597 016c 00000000 		.word	timer_thread
 598 0170 00000000 		.word	.LANCHOR37
 599 0174 00000000 		.word	sample_send_thread
 600 0178 00000000 		.word	.LANCHOR38
 601 017c 00000000 		.word	.LANCHOR17
 602 0180 00000000 		.word	.LANCHOR21
 603 0184 00000000 		.word	.LANCHOR24
 604 0188 00000000 		.word	.LANCHOR25
 605 018c 00000000 		.word	.LANCHOR15
 606 0190 00000000 		.word	.LANCHOR18
 607 0194 00000000 		.word	.LANCHOR26
 608 0198 00000000 		.word	.LANCHOR28
 609 019c 00000000 		.word	.LANCHOR29
 610 01a0 00000000 		.word	.LANCHOR32
 611 01a4 00000000 		.word	.LANCHOR34
 612 01a8 00000000 		.word	.LANCHOR35
 613 01ac 00000000 		.word	.LANCHOR3
 614 01b0 00000000 		.word	.LANCHOR13
 615 01b4 00000000 		.word	.LANCHOR14
 616              		.cfi_endproc
 617              	.LFE256:
 618              		.size	mc_interface_init, .-mc_interface_init
 619 01b8 AFF30080 		.section	.text.mc_interface_get_configuration,"ax",%progbits
 619      AFF30080 
 620              		.align	2
 621              		.p2align 4,,15
 622              		.global	mc_interface_get_configuration
 623              		.thumb
 624              		.thumb_func
 625              		.type	mc_interface_get_configuration, %function
 626              	mc_interface_get_configuration:
ARM GAS  /tmp/ccB9RVXV.s 			page 12


 627              	.LFB257:
 628              		.loc 1 171 0
 629              		.cfi_startproc
 630              		@ args = 0, pretend = 0, frame = 0
 631              		@ frame_needed = 0, uses_anonymous_args = 0
 632              		@ link register save eliminated.
 633              		.loc 1 173 0
 634 0000 0048     		ldr	r0, .L31
 635 0002 7047     		bx	lr
 636              	.L32:
 637              		.align	2
 638              	.L31:
 639 0004 00000000 		.word	.LANCHOR12
 640              		.cfi_endproc
 641              	.LFE257:
 642              		.size	mc_interface_get_configuration, .-mc_interface_get_configuration
 643 0008 AFF30080 		.section	.text.mc_interface_dccal_done,"ax",%progbits
 643      AFF30080 
 644              		.align	2
 645              		.p2align 4,,15
 646              		.global	mc_interface_dccal_done
 647              		.thumb
 648              		.thumb_func
 649              		.type	mc_interface_dccal_done, %function
 650              	mc_interface_dccal_done:
 651              	.LFB259:
 652              		.loc 1 234 0
 653              		.cfi_startproc
 654              		@ args = 0, pretend = 0, frame = 0
 655              		@ frame_needed = 0, uses_anonymous_args = 0
 656              		@ link register save eliminated.
 657              	.LVL33:
 658              		.loc 1 236 0
 659 0000 064B     		ldr	r3, .L39
 660 0002 9B78     		ldrb	r3, [r3, #2]	@ zero_extendqisi2
 661 0004 DBB2     		uxtb	r3, r3
 662 0006 012B     		cmp	r3, #1
 663 0008 05D9     		bls	.L35
 664 000a 022B     		cmp	r3, #2
 665 000c 01D1     		bne	.L38
 666              		.loc 1 243 0
 667 000e FFF7FEBF 		b	mcpwm_foc_is_dccal_done
 668              	.LVL34:
 669              	.L38:
 670              		.loc 1 251 0
 671 0012 0020     		movs	r0, #0
 672 0014 7047     		bx	lr
 673              	.L35:
 674              		.loc 1 239 0
 675 0016 FFF7FEBF 		b	mcpwm_is_dccal_done
 676              	.LVL35:
 677              	.L40:
 678 001a 00BF     		.align	2
 679              	.L39:
 680 001c 00000000 		.word	.LANCHOR12
 681              		.cfi_endproc
 682              	.LFE259:
ARM GAS  /tmp/ccB9RVXV.s 			page 13


 683              		.size	mc_interface_dccal_done, .-mc_interface_dccal_done
 684              		.section	.text.mc_interface_set_pwm_callback,"ax",%progbits
 685              		.align	2
 686              		.p2align 4,,15
 687              		.global	mc_interface_set_pwm_callback
 688              		.thumb
 689              		.thumb_func
 690              		.type	mc_interface_set_pwm_callback, %function
 691              	mc_interface_set_pwm_callback:
 692              	.LFB260:
 693              		.loc 1 259 0
 694              		.cfi_startproc
 695              		@ args = 0, pretend = 0, frame = 0
 696              		@ frame_needed = 0, uses_anonymous_args = 0
 697              		@ link register save eliminated.
 698              	.LVL36:
 699              		.loc 1 260 0
 700 0000 014B     		ldr	r3, .L42
 701 0002 1860     		str	r0, [r3]
 702 0004 7047     		bx	lr
 703              	.L43:
 704 0006 00BF     		.align	2
 705              	.L42:
 706 0008 00000000 		.word	.LANCHOR39
 707              		.cfi_endproc
 708              	.LFE260:
 709              		.size	mc_interface_set_pwm_callback, .-mc_interface_set_pwm_callback
 710 000c AFF30080 		.section	.text.mc_interface_lock,"ax",%progbits
 711              		.align	2
 712              		.p2align 4,,15
 713              		.global	mc_interface_lock
 714              		.thumb
 715              		.thumb_func
 716              		.type	mc_interface_lock, %function
 717              	mc_interface_lock:
 718              	.LFB261:
 719              		.loc 1 266 0
 720              		.cfi_startproc
 721              		@ args = 0, pretend = 0, frame = 0
 722              		@ frame_needed = 0, uses_anonymous_args = 0
 723              		@ link register save eliminated.
 724              		.loc 1 267 0
 725 0000 014B     		ldr	r3, .L45
 726 0002 0122     		movs	r2, #1
 727 0004 1A70     		strb	r2, [r3]
 728 0006 7047     		bx	lr
 729              	.L46:
 730              		.align	2
 731              	.L45:
 732 0008 00000000 		.word	.LANCHOR16
 733              		.cfi_endproc
 734              	.LFE261:
 735              		.size	mc_interface_lock, .-mc_interface_lock
 736 000c AFF30080 		.section	.text.mc_interface_unlock,"ax",%progbits
 737              		.align	2
 738              		.p2align 4,,15
 739              		.global	mc_interface_unlock
ARM GAS  /tmp/ccB9RVXV.s 			page 14


 740              		.thumb
 741              		.thumb_func
 742              		.type	mc_interface_unlock, %function
 743              	mc_interface_unlock:
 744              	.LFB262:
 745              		.loc 1 273 0
 746              		.cfi_startproc
 747              		@ args = 0, pretend = 0, frame = 0
 748              		@ frame_needed = 0, uses_anonymous_args = 0
 749              		@ link register save eliminated.
 750              		.loc 1 274 0
 751 0000 014B     		ldr	r3, .L48
 752 0002 0022     		movs	r2, #0
 753 0004 1A70     		strb	r2, [r3]
 754 0006 7047     		bx	lr
 755              	.L49:
 756              		.align	2
 757              	.L48:
 758 0008 00000000 		.word	.LANCHOR16
 759              		.cfi_endproc
 760              	.LFE262:
 761              		.size	mc_interface_unlock, .-mc_interface_unlock
 762 000c AFF30080 		.section	.text.mc_interface_lock_override_once,"ax",%progbits
 763              		.align	2
 764              		.p2align 4,,15
 765              		.global	mc_interface_lock_override_once
 766              		.thumb
 767              		.thumb_func
 768              		.type	mc_interface_lock_override_once, %function
 769              	mc_interface_lock_override_once:
 770              	.LFB263:
 771              		.loc 1 280 0
 772              		.cfi_startproc
 773              		@ args = 0, pretend = 0, frame = 0
 774              		@ frame_needed = 0, uses_anonymous_args = 0
 775              		@ link register save eliminated.
 776              		.loc 1 281 0
 777 0000 014B     		ldr	r3, .L51
 778 0002 0122     		movs	r2, #1
 779 0004 1A70     		strb	r2, [r3]
 780 0006 7047     		bx	lr
 781              	.L52:
 782              		.align	2
 783              	.L51:
 784 0008 00000000 		.word	.LANCHOR17
 785              		.cfi_endproc
 786              	.LFE263:
 787              		.size	mc_interface_lock_override_once, .-mc_interface_lock_override_once
 788 000c AFF30080 		.section	.text.mc_interface_get_fault,"ax",%progbits
 789              		.align	2
 790              		.p2align 4,,15
 791              		.global	mc_interface_get_fault
 792              		.thumb
 793              		.thumb_func
 794              		.type	mc_interface_get_fault, %function
 795              	mc_interface_get_fault:
 796              	.LFB264:
ARM GAS  /tmp/ccB9RVXV.s 			page 15


 797              		.loc 1 284 0
 798              		.cfi_startproc
 799              		@ args = 0, pretend = 0, frame = 0
 800              		@ frame_needed = 0, uses_anonymous_args = 0
 801              		@ link register save eliminated.
 802              		.loc 1 285 0
 803 0000 014B     		ldr	r3, .L54
 804              		.loc 1 286 0
 805 0002 1878     		ldrb	r0, [r3]	@ zero_extendqisi2
 806 0004 7047     		bx	lr
 807              	.L55:
 808 0006 00BF     		.align	2
 809              	.L54:
 810 0008 00000000 		.word	.LANCHOR13
 811              		.cfi_endproc
 812              	.LFE264:
 813              		.size	mc_interface_get_fault, .-mc_interface_get_fault
 814 000c AFF30080 		.section	.text.mc_interface_fault_to_string,"ax",%progbits
 815              		.align	2
 816              		.p2align 4,,15
 817              		.global	mc_interface_fault_to_string
 818              		.thumb
 819              		.thumb_func
 820              		.type	mc_interface_fault_to_string, %function
 821              	mc_interface_fault_to_string:
 822              	.LFB265:
 823              		.loc 1 288 0
 824              		.cfi_startproc
 825              		@ args = 0, pretend = 0, frame = 0
 826              		@ frame_needed = 0, uses_anonymous_args = 0
 827              		@ link register save eliminated.
 828              	.LVL37:
 829 0000 0628     		cmp	r0, #6
 830 0002 9ABF     		itte	ls
 831 0004 024B     		ldrls	r3, .L59
 832 0006 53F82000 		ldrls	r0, [r3, r0, lsl #2]
 833              	.LVL38:
 834              		.loc 1 288 0
 835 000a 0248     		ldrhi	r0, .L59+4
 836              		.loc 1 299 0
 837 000c 7047     		bx	lr
 838              	.L60:
 839 000e 00BF     		.align	2
 840              	.L59:
 841 0010 00000000 		.word	.LANCHOR40
 842 0014 10000000 		.word	.LC1
 843              		.cfi_endproc
 844              	.LFE265:
 845              		.size	mc_interface_fault_to_string, .-mc_interface_fault_to_string
 846 0018 AFF30080 		.section	.text.mc_interface_get_state,"ax",%progbits
 846      AFF30080 
 847              		.align	2
 848              		.p2align 4,,15
 849              		.global	mc_interface_get_state
 850              		.thumb
 851              		.thumb_func
 852              		.type	mc_interface_get_state, %function
ARM GAS  /tmp/ccB9RVXV.s 			page 16


 853              	mc_interface_get_state:
 854              	.LFB266:
 855              		.loc 1 301 0
 856              		.cfi_startproc
 857              		@ args = 0, pretend = 0, frame = 0
 858              		@ frame_needed = 0, uses_anonymous_args = 0
 859              		@ link register save eliminated.
 860              	.LVL39:
 861              		.loc 1 303 0
 862 0000 064B     		ldr	r3, .L67
 863 0002 9B78     		ldrb	r3, [r3, #2]	@ zero_extendqisi2
 864 0004 DBB2     		uxtb	r3, r3
 865 0006 012B     		cmp	r3, #1
 866 0008 05D9     		bls	.L63
 867 000a 022B     		cmp	r3, #2
 868 000c 01D1     		bne	.L66
 869              		.loc 1 310 0
 870 000e FFF7FEBF 		b	mcpwm_foc_get_state
 871              	.LVL40:
 872              	.L66:
 873              		.loc 1 318 0
 874 0012 0020     		movs	r0, #0
 875 0014 7047     		bx	lr
 876              	.L63:
 877              		.loc 1 306 0
 878 0016 FFF7FEBF 		b	mcpwm_get_state
 879              	.LVL41:
 880              	.L68:
 881 001a 00BF     		.align	2
 882              	.L67:
 883 001c 00000000 		.word	.LANCHOR12
 884              		.cfi_endproc
 885              	.LFE266:
 886              		.size	mc_interface_get_state, .-mc_interface_get_state
 887              		.section	.text.mc_interface_get_duty_cycle_set,"ax",%progbits
 888              		.align	2
 889              		.p2align 4,,15
 890              		.global	mc_interface_get_duty_cycle_set
 891              		.thumb
 892              		.thumb_func
 893              		.type	mc_interface_get_duty_cycle_set, %function
 894              	mc_interface_get_duty_cycle_set:
 895              	.LFB278:
 896              		.loc 1 501 0
 897              		.cfi_startproc
 898              		@ args = 0, pretend = 0, frame = 0
 899              		@ frame_needed = 0, uses_anonymous_args = 0
 900              	.LVL42:
 901 0000 10B5     		push	{r4, lr}
 902              		.cfi_def_cfa_offset 8
 903              		.cfi_offset 4, -8
 904              		.cfi_offset 14, -4
 905              		.loc 1 504 0
 906 0002 0E4C     		ldr	r4, .L77
 907 0004 A378     		ldrb	r3, [r4, #2]	@ zero_extendqisi2
 908 0006 DBB2     		uxtb	r3, r3
 909 0008 012B     		cmp	r3, #1
ARM GAS  /tmp/ccB9RVXV.s 			page 17


 910 000a 13D9     		bls	.L71
 911 000c 022B     		cmp	r3, #2
 912 000e 0ED0     		beq	.L72
 913              		.loc 1 502 0
 914 0010 9FED0B0A 		flds	s0, .L77+4
 915              	.LVL43:
 916              	.L70:
 917              		.loc 1 518 0
 918 0014 94F85D31 		ldrb	r3, [r4, #349]	@ zero_extendqisi2
 919 0018 B7EE007A 		fconsts	s14, #112
 920 001c 002B     		cmp	r3, #0
 921 001e FFEE007A 		fconsts	s15, #240
 922 0022 08BF     		it	eq
 923 0024 F0EE477A 		fcpyseq	s15, s14
 924              		.loc 1 519 0
 925 0028 27EE800A 		fmuls	s0, s15, s0
 926              	.LVL44:
 927 002c 10BD     		pop	{r4, pc}
 928              	.LVL45:
 929              	.L72:
 930              		.loc 1 511 0
 931 002e FFF7FEFF 		bl	mcpwm_foc_get_duty_cycle_set
 932              	.LVL46:
 933              		.loc 1 512 0
 934 0032 EFE7     		b	.L70
 935              	.LVL47:
 936              	.L71:
 937              		.loc 1 507 0
 938 0034 FFF7FEFF 		bl	mcpwm_get_duty_cycle_set
 939              	.LVL48:
 940              		.loc 1 508 0
 941 0038 ECE7     		b	.L70
 942              	.L78:
 943 003a 00BF     		.align	2
 944              	.L77:
 945 003c 00000000 		.word	.LANCHOR12
 946 0040 00000000 		.word	0
 947              		.cfi_endproc
 948              	.LFE278:
 949              		.size	mc_interface_get_duty_cycle_set, .-mc_interface_get_duty_cycle_set
 950 0044 AFF30080 		.section	.text.mc_interface_get_duty_cycle_now,"ax",%progbits
 950      AFF30080 
 950      AFF30080 
 951              		.align	2
 952              		.p2align 4,,15
 953              		.global	mc_interface_get_duty_cycle_now
 954              		.thumb
 955              		.thumb_func
 956              		.type	mc_interface_get_duty_cycle_now, %function
 957              	mc_interface_get_duty_cycle_now:
 958              	.LFB279:
 959              		.loc 1 521 0
 960              		.cfi_startproc
 961              		@ args = 0, pretend = 0, frame = 0
 962              		@ frame_needed = 0, uses_anonymous_args = 0
 963              	.LVL49:
 964 0000 10B5     		push	{r4, lr}
ARM GAS  /tmp/ccB9RVXV.s 			page 18


 965              		.cfi_def_cfa_offset 8
 966              		.cfi_offset 4, -8
 967              		.cfi_offset 14, -4
 968              		.loc 1 524 0
 969 0002 0E4C     		ldr	r4, .L87
 970 0004 A378     		ldrb	r3, [r4, #2]	@ zero_extendqisi2
 971 0006 DBB2     		uxtb	r3, r3
 972 0008 012B     		cmp	r3, #1
 973 000a 13D9     		bls	.L81
 974 000c 022B     		cmp	r3, #2
 975 000e 0ED0     		beq	.L82
 976              		.loc 1 522 0
 977 0010 9FED0B0A 		flds	s0, .L87+4
 978              	.LVL50:
 979              	.L80:
 980              		.loc 1 538 0
 981 0014 94F85D31 		ldrb	r3, [r4, #349]	@ zero_extendqisi2
 982 0018 B7EE007A 		fconsts	s14, #112
 983 001c 002B     		cmp	r3, #0
 984 001e FFEE007A 		fconsts	s15, #240
 985 0022 08BF     		it	eq
 986 0024 F0EE477A 		fcpyseq	s15, s14
 987              		.loc 1 539 0
 988 0028 27EE800A 		fmuls	s0, s15, s0
 989              	.LVL51:
 990 002c 10BD     		pop	{r4, pc}
 991              	.LVL52:
 992              	.L82:
 993              		.loc 1 531 0
 994 002e FFF7FEFF 		bl	mcpwm_foc_get_duty_cycle_now
 995              	.LVL53:
 996              		.loc 1 532 0
 997 0032 EFE7     		b	.L80
 998              	.LVL54:
 999              	.L81:
 1000              		.loc 1 527 0
 1001 0034 FFF7FEFF 		bl	mcpwm_get_duty_cycle_now
 1002              	.LVL55:
 1003              		.loc 1 528 0
 1004 0038 ECE7     		b	.L80
 1005              	.L88:
 1006 003a 00BF     		.align	2
 1007              	.L87:
 1008 003c 00000000 		.word	.LANCHOR12
 1009 0040 00000000 		.word	0
 1010              		.cfi_endproc
 1011              	.LFE279:
 1012              		.size	mc_interface_get_duty_cycle_now, .-mc_interface_get_duty_cycle_now
 1013 0044 AFF30080 		.section	.text.mc_interface_get_sampling_frequency_now,"ax",%progbits
 1013      AFF30080 
 1013      AFF30080 
 1014              		.align	2
 1015              		.p2align 4,,15
 1016              		.global	mc_interface_get_sampling_frequency_now
 1017              		.thumb
 1018              		.thumb_func
 1019              		.type	mc_interface_get_sampling_frequency_now, %function
ARM GAS  /tmp/ccB9RVXV.s 			page 19


 1020              	mc_interface_get_sampling_frequency_now:
 1021              	.LFB280:
 1022              		.loc 1 541 0
 1023              		.cfi_startproc
 1024              		@ args = 0, pretend = 0, frame = 0
 1025              		@ frame_needed = 0, uses_anonymous_args = 0
 1026              		@ link register save eliminated.
 1027              	.LVL56:
 1028              		.loc 1 544 0
 1029 0000 064B     		ldr	r3, .L95
 1030 0002 9B78     		ldrb	r3, [r3, #2]	@ zero_extendqisi2
 1031 0004 DBB2     		uxtb	r3, r3
 1032 0006 012B     		cmp	r3, #1
 1033 0008 06D9     		bls	.L91
 1034 000a 022B     		cmp	r3, #2
 1035 000c 01D1     		bne	.L94
 1036              		.loc 1 551 0
 1037 000e FFF7FEBF 		b	mcpwm_foc_get_sampling_frequency_now
 1038              	.LVL57:
 1039              	.L94:
 1040              		.loc 1 559 0
 1041 0012 9FED030A 		flds	s0, .L95+4
 1042 0016 7047     		bx	lr
 1043              	.L91:
 1044              		.loc 1 547 0
 1045 0018 FFF7FEBF 		b	mcpwm_get_switching_frequency_now
 1046              	.LVL58:
 1047              	.L96:
 1048              		.align	2
 1049              	.L95:
 1050 001c 00000000 		.word	.LANCHOR12
 1051 0020 00000000 		.word	0
 1052              		.cfi_endproc
 1053              	.LFE280:
 1054              		.size	mc_interface_get_sampling_frequency_now, .-mc_interface_get_sampling_frequency_now
 1055 0024 AFF30080 		.section	.text.mc_interface_get_rpm,"ax",%progbits
 1055      AFF30080 
 1055      AFF30080 
 1056              		.align	2
 1057              		.p2align 4,,15
 1058              		.global	mc_interface_get_rpm
 1059              		.thumb
 1060              		.thumb_func
 1061              		.type	mc_interface_get_rpm, %function
 1062              	mc_interface_get_rpm:
 1063              	.LFB281:
 1064              		.loc 1 561 0
 1065              		.cfi_startproc
 1066              		@ args = 0, pretend = 0, frame = 0
 1067              		@ frame_needed = 0, uses_anonymous_args = 0
 1068              	.LVL59:
 1069 0000 10B5     		push	{r4, lr}
 1070              		.cfi_def_cfa_offset 8
 1071              		.cfi_offset 4, -8
 1072              		.cfi_offset 14, -4
 1073              		.loc 1 564 0
 1074 0002 0E4C     		ldr	r4, .L105
ARM GAS  /tmp/ccB9RVXV.s 			page 20


 1075 0004 A378     		ldrb	r3, [r4, #2]	@ zero_extendqisi2
 1076 0006 DBB2     		uxtb	r3, r3
 1077 0008 012B     		cmp	r3, #1
 1078 000a 13D9     		bls	.L99
 1079 000c 022B     		cmp	r3, #2
 1080 000e 0ED0     		beq	.L100
 1081              		.loc 1 562 0
 1082 0010 9FED0B0A 		flds	s0, .L105+4
 1083              	.LVL60:
 1084              	.L98:
 1085              		.loc 1 578 0
 1086 0014 94F85D31 		ldrb	r3, [r4, #349]	@ zero_extendqisi2
 1087 0018 B7EE007A 		fconsts	s14, #112
 1088 001c 002B     		cmp	r3, #0
 1089 001e FFEE007A 		fconsts	s15, #240
 1090 0022 08BF     		it	eq
 1091 0024 F0EE477A 		fcpyseq	s15, s14
 1092              		.loc 1 579 0
 1093 0028 27EE800A 		fmuls	s0, s15, s0
 1094              	.LVL61:
 1095 002c 10BD     		pop	{r4, pc}
 1096              	.LVL62:
 1097              	.L100:
 1098              		.loc 1 571 0
 1099 002e FFF7FEFF 		bl	mcpwm_foc_get_rpm
 1100              	.LVL63:
 1101              		.loc 1 572 0
 1102 0032 EFE7     		b	.L98
 1103              	.LVL64:
 1104              	.L99:
 1105              		.loc 1 567 0
 1106 0034 FFF7FEFF 		bl	mcpwm_get_rpm
 1107              	.LVL65:
 1108              		.loc 1 568 0
 1109 0038 ECE7     		b	.L98
 1110              	.L106:
 1111 003a 00BF     		.align	2
 1112              	.L105:
 1113 003c 00000000 		.word	.LANCHOR12
 1114 0040 00000000 		.word	0
 1115              		.cfi_endproc
 1116              	.LFE281:
 1117              		.size	mc_interface_get_rpm, .-mc_interface_get_rpm
 1118 0044 AFF30080 		.section	.text.mc_interface_get_amp_hours,"ax",%progbits
 1118      AFF30080 
 1118      AFF30080 
 1119              		.align	2
 1120              		.p2align 4,,15
 1121              		.global	mc_interface_get_amp_hours
 1122              		.thumb
 1123              		.thumb_func
 1124              		.type	mc_interface_get_amp_hours, %function
 1125              	mc_interface_get_amp_hours:
 1126              	.LFB282:
 1127              		.loc 1 590 0
 1128              		.cfi_startproc
 1129              		@ args = 0, pretend = 0, frame = 0
ARM GAS  /tmp/ccB9RVXV.s 			page 21


 1130              		@ frame_needed = 0, uses_anonymous_args = 0
 1131              		@ link register save eliminated.
 1132              	.LVL66:
 1133              		.loc 1 591 0
 1134 0000 054B     		ldr	r3, .L112
 1135 0002 DFED067A 		flds	s15, .L112+4
 1136 0006 93ED000A 		flds	s0, [r3]
 1137 000a 80EE270A 		fdivs	s0, s0, s15
 1138              	.LVL67:
 1139              		.loc 1 593 0
 1140 000e 08B1     		cbz	r0, .L108
 1141              		.loc 1 594 0
 1142 0010 0022     		movs	r2, #0
 1143 0012 1A60     		str	r2, [r3]	@ float
 1144              	.L108:
 1145              		.loc 1 598 0
 1146 0014 7047     		bx	lr
 1147              	.L113:
 1148 0016 00BF     		.align	2
 1149              	.L112:
 1150 0018 00000000 		.word	.LANCHOR26
 1151 001c 00006145 		.word	1163984896
 1152              		.cfi_endproc
 1153              	.LFE282:
 1154              		.size	mc_interface_get_amp_hours, .-mc_interface_get_amp_hours
 1155              		.section	.text.mc_interface_get_amp_hours_charged,"ax",%progbits
 1156              		.align	2
 1157              		.p2align 4,,15
 1158              		.global	mc_interface_get_amp_hours_charged
 1159              		.thumb
 1160              		.thumb_func
 1161              		.type	mc_interface_get_amp_hours_charged, %function
 1162              	mc_interface_get_amp_hours_charged:
 1163              	.LFB283:
 1164              		.loc 1 609 0
 1165              		.cfi_startproc
 1166              		@ args = 0, pretend = 0, frame = 0
 1167              		@ frame_needed = 0, uses_anonymous_args = 0
 1168              		@ link register save eliminated.
 1169              	.LVL68:
 1170              		.loc 1 610 0
 1171 0000 054B     		ldr	r3, .L119
 1172 0002 DFED067A 		flds	s15, .L119+4
 1173 0006 93ED000A 		flds	s0, [r3]
 1174 000a 80EE270A 		fdivs	s0, s0, s15
 1175              	.LVL69:
 1176              		.loc 1 612 0
 1177 000e 08B1     		cbz	r0, .L115
 1178              		.loc 1 613 0
 1179 0010 0022     		movs	r2, #0
 1180 0012 1A60     		str	r2, [r3]	@ float
 1181              	.L115:
 1182              		.loc 1 617 0
 1183 0014 7047     		bx	lr
 1184              	.L120:
 1185 0016 00BF     		.align	2
 1186              	.L119:
ARM GAS  /tmp/ccB9RVXV.s 			page 22


 1187 0018 00000000 		.word	.LANCHOR27
 1188 001c 00006145 		.word	1163984896
 1189              		.cfi_endproc
 1190              	.LFE283:
 1191              		.size	mc_interface_get_amp_hours_charged, .-mc_interface_get_amp_hours_charged
 1192              		.section	.text.mc_interface_get_watt_hours,"ax",%progbits
 1193              		.align	2
 1194              		.p2align 4,,15
 1195              		.global	mc_interface_get_watt_hours
 1196              		.thumb
 1197              		.thumb_func
 1198              		.type	mc_interface_get_watt_hours, %function
 1199              	mc_interface_get_watt_hours:
 1200              	.LFB284:
 1201              		.loc 1 628 0
 1202              		.cfi_startproc
 1203              		@ args = 0, pretend = 0, frame = 0
 1204              		@ frame_needed = 0, uses_anonymous_args = 0
 1205              		@ link register save eliminated.
 1206              	.LVL70:
 1207              		.loc 1 629 0
 1208 0000 054B     		ldr	r3, .L126
 1209 0002 DFED067A 		flds	s15, .L126+4
 1210 0006 93ED000A 		flds	s0, [r3]
 1211 000a 80EE270A 		fdivs	s0, s0, s15
 1212              	.LVL71:
 1213              		.loc 1 631 0
 1214 000e 08B1     		cbz	r0, .L122
 1215              		.loc 1 632 0
 1216 0010 0022     		movs	r2, #0
 1217 0012 1A60     		str	r2, [r3]	@ float
 1218              	.L122:
 1219              		.loc 1 636 0
 1220 0014 7047     		bx	lr
 1221              	.L127:
 1222 0016 00BF     		.align	2
 1223              	.L126:
 1224 0018 00000000 		.word	.LANCHOR28
 1225 001c 00006145 		.word	1163984896
 1226              		.cfi_endproc
 1227              	.LFE284:
 1228              		.size	mc_interface_get_watt_hours, .-mc_interface_get_watt_hours
 1229              		.section	.text.mc_interface_get_watt_hours_charged,"ax",%progbits
 1230              		.align	2
 1231              		.p2align 4,,15
 1232              		.global	mc_interface_get_watt_hours_charged
 1233              		.thumb
 1234              		.thumb_func
 1235              		.type	mc_interface_get_watt_hours_charged, %function
 1236              	mc_interface_get_watt_hours_charged:
 1237              	.LFB285:
 1238              		.loc 1 647 0
 1239              		.cfi_startproc
 1240              		@ args = 0, pretend = 0, frame = 0
 1241              		@ frame_needed = 0, uses_anonymous_args = 0
 1242              		@ link register save eliminated.
 1243              	.LVL72:
ARM GAS  /tmp/ccB9RVXV.s 			page 23


 1244              		.loc 1 648 0
 1245 0000 054B     		ldr	r3, .L133
 1246 0002 DFED067A 		flds	s15, .L133+4
 1247 0006 93ED000A 		flds	s0, [r3]
 1248 000a 80EE270A 		fdivs	s0, s0, s15
 1249              	.LVL73:
 1250              		.loc 1 650 0
 1251 000e 08B1     		cbz	r0, .L129
 1252              		.loc 1 651 0
 1253 0010 0022     		movs	r2, #0
 1254 0012 1A60     		str	r2, [r3]	@ float
 1255              	.L129:
 1256              		.loc 1 655 0
 1257 0014 7047     		bx	lr
 1258              	.L134:
 1259 0016 00BF     		.align	2
 1260              	.L133:
 1261 0018 00000000 		.word	.LANCHOR29
 1262 001c 00006145 		.word	1163984896
 1263              		.cfi_endproc
 1264              	.LFE285:
 1265              		.size	mc_interface_get_watt_hours_charged, .-mc_interface_get_watt_hours_charged
 1266              		.section	.text.mc_interface_get_tot_current,"ax",%progbits
 1267              		.align	2
 1268              		.p2align 4,,15
 1269              		.global	mc_interface_get_tot_current
 1270              		.thumb
 1271              		.thumb_func
 1272              		.type	mc_interface_get_tot_current, %function
 1273              	mc_interface_get_tot_current:
 1274              	.LFB286:
 1275              		.loc 1 657 0
 1276              		.cfi_startproc
 1277              		@ args = 0, pretend = 0, frame = 0
 1278              		@ frame_needed = 0, uses_anonymous_args = 0
 1279              		@ link register save eliminated.
 1280              	.LVL74:
 1281              		.loc 1 660 0
 1282 0000 064B     		ldr	r3, .L141
 1283 0002 9B78     		ldrb	r3, [r3, #2]	@ zero_extendqisi2
 1284 0004 DBB2     		uxtb	r3, r3
 1285 0006 012B     		cmp	r3, #1
 1286 0008 06D9     		bls	.L137
 1287 000a 022B     		cmp	r3, #2
 1288 000c 01D1     		bne	.L140
 1289              		.loc 1 667 0
 1290 000e FFF7FEBF 		b	mcpwm_foc_get_tot_current
 1291              	.LVL75:
 1292              	.L140:
 1293              		.loc 1 675 0
 1294 0012 9FED030A 		flds	s0, .L141+4
 1295 0016 7047     		bx	lr
 1296              	.L137:
 1297              		.loc 1 663 0
 1298 0018 FFF7FEBF 		b	mcpwm_get_tot_current
 1299              	.LVL76:
 1300              	.L142:
ARM GAS  /tmp/ccB9RVXV.s 			page 24


 1301              		.align	2
 1302              	.L141:
 1303 001c 00000000 		.word	.LANCHOR12
 1304 0020 00000000 		.word	0
 1305              		.cfi_endproc
 1306              	.LFE286:
 1307              		.size	mc_interface_get_tot_current, .-mc_interface_get_tot_current
 1308 0024 AFF30080 		.section	.text.mc_interface_get_tot_current_filtered,"ax",%progbits
 1308      AFF30080 
 1308      AFF30080 
 1309              		.align	2
 1310              		.p2align 4,,15
 1311              		.global	mc_interface_get_tot_current_filtered
 1312              		.thumb
 1313              		.thumb_func
 1314              		.type	mc_interface_get_tot_current_filtered, %function
 1315              	mc_interface_get_tot_current_filtered:
 1316              	.LFB287:
 1317              		.loc 1 677 0
 1318              		.cfi_startproc
 1319              		@ args = 0, pretend = 0, frame = 0
 1320              		@ frame_needed = 0, uses_anonymous_args = 0
 1321              		@ link register save eliminated.
 1322              	.LVL77:
 1323              		.loc 1 680 0
 1324 0000 064B     		ldr	r3, .L149
 1325 0002 9B78     		ldrb	r3, [r3, #2]	@ zero_extendqisi2
 1326 0004 DBB2     		uxtb	r3, r3
 1327 0006 012B     		cmp	r3, #1
 1328 0008 06D9     		bls	.L145
 1329 000a 022B     		cmp	r3, #2
 1330 000c 01D1     		bne	.L148
 1331              		.loc 1 687 0
 1332 000e FFF7FEBF 		b	mcpwm_foc_get_tot_current_filtered
 1333              	.LVL78:
 1334              	.L148:
 1335              		.loc 1 695 0
 1336 0012 9FED030A 		flds	s0, .L149+4
 1337 0016 7047     		bx	lr
 1338              	.L145:
 1339              		.loc 1 683 0
 1340 0018 FFF7FEBF 		b	mcpwm_get_tot_current_filtered
 1341              	.LVL79:
 1342              	.L150:
 1343              		.align	2
 1344              	.L149:
 1345 001c 00000000 		.word	.LANCHOR12
 1346 0020 00000000 		.word	0
 1347              		.cfi_endproc
 1348              	.LFE287:
 1349              		.size	mc_interface_get_tot_current_filtered, .-mc_interface_get_tot_current_filtered
 1350 0024 AFF30080 		.section	.text.mc_interface_get_tot_current_directional,"ax",%progbits
 1350      AFF30080 
 1350      AFF30080 
 1351              		.align	2
 1352              		.p2align 4,,15
 1353              		.global	mc_interface_get_tot_current_directional
ARM GAS  /tmp/ccB9RVXV.s 			page 25


 1354              		.thumb
 1355              		.thumb_func
 1356              		.type	mc_interface_get_tot_current_directional, %function
 1357              	mc_interface_get_tot_current_directional:
 1358              	.LFB288:
 1359              		.loc 1 697 0
 1360              		.cfi_startproc
 1361              		@ args = 0, pretend = 0, frame = 0
 1362              		@ frame_needed = 0, uses_anonymous_args = 0
 1363              	.LVL80:
 1364 0000 10B5     		push	{r4, lr}
 1365              		.cfi_def_cfa_offset 8
 1366              		.cfi_offset 4, -8
 1367              		.cfi_offset 14, -4
 1368              		.loc 1 700 0
 1369 0002 0E4C     		ldr	r4, .L159
 1370 0004 A378     		ldrb	r3, [r4, #2]	@ zero_extendqisi2
 1371 0006 DBB2     		uxtb	r3, r3
 1372 0008 012B     		cmp	r3, #1
 1373 000a 13D9     		bls	.L153
 1374 000c 022B     		cmp	r3, #2
 1375 000e 0ED0     		beq	.L154
 1376              		.loc 1 698 0
 1377 0010 9FED0B0A 		flds	s0, .L159+4
 1378              	.LVL81:
 1379              	.L152:
 1380              		.loc 1 714 0
 1381 0014 94F85D31 		ldrb	r3, [r4, #349]	@ zero_extendqisi2
 1382 0018 B7EE007A 		fconsts	s14, #112
 1383 001c 002B     		cmp	r3, #0
 1384 001e FFEE007A 		fconsts	s15, #240
 1385 0022 08BF     		it	eq
 1386 0024 F0EE477A 		fcpyseq	s15, s14
 1387              		.loc 1 715 0
 1388 0028 27EE800A 		fmuls	s0, s15, s0
 1389              	.LVL82:
 1390 002c 10BD     		pop	{r4, pc}
 1391              	.LVL83:
 1392              	.L154:
 1393              		.loc 1 707 0
 1394 002e FFF7FEFF 		bl	mcpwm_foc_get_tot_current_directional
 1395              	.LVL84:
 1396              		.loc 1 708 0
 1397 0032 EFE7     		b	.L152
 1398              	.LVL85:
 1399              	.L153:
 1400              		.loc 1 703 0
 1401 0034 FFF7FEFF 		bl	mcpwm_get_tot_current_directional
 1402              	.LVL86:
 1403              		.loc 1 704 0
 1404 0038 ECE7     		b	.L152
 1405              	.L160:
 1406 003a 00BF     		.align	2
 1407              	.L159:
 1408 003c 00000000 		.word	.LANCHOR12
 1409 0040 00000000 		.word	0
 1410              		.cfi_endproc
ARM GAS  /tmp/ccB9RVXV.s 			page 26


 1411              	.LFE288:
 1412              		.size	mc_interface_get_tot_current_directional, .-mc_interface_get_tot_current_directional
 1413 0044 AFF30080 		.section	.text.mc_interface_get_tot_current_directional_filtered,"ax",%progbits
 1413      AFF30080 
 1413      AFF30080 
 1414              		.align	2
 1415              		.p2align 4,,15
 1416              		.global	mc_interface_get_tot_current_directional_filtered
 1417              		.thumb
 1418              		.thumb_func
 1419              		.type	mc_interface_get_tot_current_directional_filtered, %function
 1420              	mc_interface_get_tot_current_directional_filtered:
 1421              	.LFB289:
 1422              		.loc 1 717 0
 1423              		.cfi_startproc
 1424              		@ args = 0, pretend = 0, frame = 0
 1425              		@ frame_needed = 0, uses_anonymous_args = 0
 1426              	.LVL87:
 1427 0000 10B5     		push	{r4, lr}
 1428              		.cfi_def_cfa_offset 8
 1429              		.cfi_offset 4, -8
 1430              		.cfi_offset 14, -4
 1431              		.loc 1 720 0
 1432 0002 0E4C     		ldr	r4, .L169
 1433 0004 A378     		ldrb	r3, [r4, #2]	@ zero_extendqisi2
 1434 0006 DBB2     		uxtb	r3, r3
 1435 0008 012B     		cmp	r3, #1
 1436 000a 13D9     		bls	.L163
 1437 000c 022B     		cmp	r3, #2
 1438 000e 0ED0     		beq	.L164
 1439              		.loc 1 718 0
 1440 0010 9FED0B0A 		flds	s0, .L169+4
 1441              	.LVL88:
 1442              	.L162:
 1443              		.loc 1 734 0
 1444 0014 94F85D31 		ldrb	r3, [r4, #349]	@ zero_extendqisi2
 1445 0018 B7EE007A 		fconsts	s14, #112
 1446 001c 002B     		cmp	r3, #0
 1447 001e FFEE007A 		fconsts	s15, #240
 1448 0022 08BF     		it	eq
 1449 0024 F0EE477A 		fcpyseq	s15, s14
 1450              		.loc 1 735 0
 1451 0028 27EE800A 		fmuls	s0, s15, s0
 1452              	.LVL89:
 1453 002c 10BD     		pop	{r4, pc}
 1454              	.LVL90:
 1455              	.L164:
 1456              		.loc 1 727 0
 1457 002e FFF7FEFF 		bl	mcpwm_foc_get_tot_current_directional_filtered
 1458              	.LVL91:
 1459              		.loc 1 728 0
 1460 0032 EFE7     		b	.L162
 1461              	.LVL92:
 1462              	.L163:
 1463              		.loc 1 723 0
 1464 0034 FFF7FEFF 		bl	mcpwm_get_tot_current_directional_filtered
 1465              	.LVL93:
ARM GAS  /tmp/ccB9RVXV.s 			page 27


 1466              		.loc 1 724 0
 1467 0038 ECE7     		b	.L162
 1468              	.L170:
 1469 003a 00BF     		.align	2
 1470              	.L169:
 1471 003c 00000000 		.word	.LANCHOR12
 1472 0040 00000000 		.word	0
 1473              		.cfi_endproc
 1474              	.LFE289:
 1475              		.size	mc_interface_get_tot_current_directional_filtered, .-mc_interface_get_tot_current_directiona
 1476 0044 AFF30080 		.section	.text.mc_interface_get_tot_current_in,"ax",%progbits
 1476      AFF30080 
 1476      AFF30080 
 1477              		.align	2
 1478              		.p2align 4,,15
 1479              		.global	mc_interface_get_tot_current_in
 1480              		.thumb
 1481              		.thumb_func
 1482              		.type	mc_interface_get_tot_current_in, %function
 1483              	mc_interface_get_tot_current_in:
 1484              	.LFB290:
 1485              		.loc 1 737 0
 1486              		.cfi_startproc
 1487              		@ args = 0, pretend = 0, frame = 0
 1488              		@ frame_needed = 0, uses_anonymous_args = 0
 1489              		@ link register save eliminated.
 1490              	.LVL94:
 1491              		.loc 1 740 0
 1492 0000 064B     		ldr	r3, .L177
 1493 0002 9B78     		ldrb	r3, [r3, #2]	@ zero_extendqisi2
 1494 0004 DBB2     		uxtb	r3, r3
 1495 0006 012B     		cmp	r3, #1
 1496 0008 06D9     		bls	.L173
 1497 000a 022B     		cmp	r3, #2
 1498 000c 01D1     		bne	.L176
 1499              		.loc 1 747 0
 1500 000e FFF7FEBF 		b	mcpwm_foc_get_tot_current_in
 1501              	.LVL95:
 1502              	.L176:
 1503              		.loc 1 755 0
 1504 0012 9FED030A 		flds	s0, .L177+4
 1505 0016 7047     		bx	lr
 1506              	.L173:
 1507              		.loc 1 743 0
 1508 0018 FFF7FEBF 		b	mcpwm_get_tot_current_in
 1509              	.LVL96:
 1510              	.L178:
 1511              		.align	2
 1512              	.L177:
 1513 001c 00000000 		.word	.LANCHOR12
 1514 0020 00000000 		.word	0
 1515              		.cfi_endproc
 1516              	.LFE290:
 1517              		.size	mc_interface_get_tot_current_in, .-mc_interface_get_tot_current_in
 1518 0024 AFF30080 		.section	.text.mc_interface_get_tot_current_in_filtered,"ax",%progbits
 1518      AFF30080 
 1518      AFF30080 
ARM GAS  /tmp/ccB9RVXV.s 			page 28


 1519              		.align	2
 1520              		.p2align 4,,15
 1521              		.global	mc_interface_get_tot_current_in_filtered
 1522              		.thumb
 1523              		.thumb_func
 1524              		.type	mc_interface_get_tot_current_in_filtered, %function
 1525              	mc_interface_get_tot_current_in_filtered:
 1526              	.LFB291:
 1527              		.loc 1 757 0
 1528              		.cfi_startproc
 1529              		@ args = 0, pretend = 0, frame = 0
 1530              		@ frame_needed = 0, uses_anonymous_args = 0
 1531              		@ link register save eliminated.
 1532              	.LVL97:
 1533              		.loc 1 760 0
 1534 0000 064B     		ldr	r3, .L185
 1535 0002 9B78     		ldrb	r3, [r3, #2]	@ zero_extendqisi2
 1536 0004 DBB2     		uxtb	r3, r3
 1537 0006 012B     		cmp	r3, #1
 1538 0008 06D9     		bls	.L181
 1539 000a 022B     		cmp	r3, #2
 1540 000c 01D1     		bne	.L184
 1541              		.loc 1 767 0
 1542 000e FFF7FEBF 		b	mcpwm_foc_get_tot_current_in_filtered
 1543              	.LVL98:
 1544              	.L184:
 1545              		.loc 1 775 0
 1546 0012 9FED030A 		flds	s0, .L185+4
 1547 0016 7047     		bx	lr
 1548              	.L181:
 1549              		.loc 1 763 0
 1550 0018 FFF7FEBF 		b	mcpwm_get_tot_current_in_filtered
 1551              	.LVL99:
 1552              	.L186:
 1553              		.align	2
 1554              	.L185:
 1555 001c 00000000 		.word	.LANCHOR12
 1556 0020 00000000 		.word	0
 1557              		.cfi_endproc
 1558              	.LFE291:
 1559              		.size	mc_interface_get_tot_current_in_filtered, .-mc_interface_get_tot_current_in_filtered
 1560 0024 AFF30080 		.section	.text.mc_interface_get_tachometer_value,"ax",%progbits
 1560      AFF30080 
 1560      AFF30080 
 1561              		.align	2
 1562              		.p2align 4,,15
 1563              		.global	mc_interface_get_tachometer_value
 1564              		.thumb
 1565              		.thumb_func
 1566              		.type	mc_interface_get_tachometer_value, %function
 1567              	mc_interface_get_tachometer_value:
 1568              	.LFB292:
 1569              		.loc 1 777 0
 1570              		.cfi_startproc
 1571              		@ args = 0, pretend = 0, frame = 0
 1572              		@ frame_needed = 0, uses_anonymous_args = 0
 1573              	.LVL100:
ARM GAS  /tmp/ccB9RVXV.s 			page 29


 1574 0000 10B5     		push	{r4, lr}
 1575              		.cfi_def_cfa_offset 8
 1576              		.cfi_offset 4, -8
 1577              		.cfi_offset 14, -4
 1578              		.loc 1 780 0
 1579 0002 144C     		ldr	r4, .L195
 1580 0004 A378     		ldrb	r3, [r4, #2]	@ zero_extendqisi2
 1581 0006 DBB2     		uxtb	r3, r3
 1582 0008 012B     		cmp	r3, #1
 1583 000a 1BD9     		bls	.L189
 1584 000c 022B     		cmp	r3, #2
 1585 000e 12D0     		beq	.L190
 1586 0010 9FED117A 		flds	s14, .L195+4
 1587              	.LVL101:
 1588              	.L188:
 1589              		.loc 1 794 0
 1590 0014 94F85D31 		ldrb	r3, [r4, #349]	@ zero_extendqisi2
 1591 0018 F7EE006A 		fconsts	s13, #112
 1592 001c 002B     		cmp	r3, #0
 1593 001e FFEE007A 		fconsts	s15, #240
 1594 0022 08BF     		it	eq
 1595 0024 F0EE667A 		fcpyseq	s15, s13
 1596 0028 67EE877A 		fmuls	s15, s15, s14
 1597              		.loc 1 795 0
 1598 002c FDEEE77A 		ftosizs	s15, s15
 1599 0030 17EE900A 		fmrs	r0, s15	@ int
 1600 0034 10BD     		pop	{r4, pc}
 1601              	.LVL102:
 1602              	.L190:
 1603              		.loc 1 787 0
 1604 0036 FFF7FEFF 		bl	mcpwm_foc_get_tachometer_value
 1605              	.LVL103:
 1606 003a 07EE900A 		fmsr	s15, r0	@ int
 1607 003e B8EEE77A 		fsitos	s14, s15
 1608              		.loc 1 788 0
 1609 0042 E7E7     		b	.L188
 1610              	.LVL104:
 1611              	.L189:
 1612              		.loc 1 783 0
 1613 0044 FFF7FEFF 		bl	mcpwm_get_tachometer_value
 1614              	.LVL105:
 1615 0048 07EE900A 		fmsr	s15, r0	@ int
 1616 004c B8EEE77A 		fsitos	s14, s15
 1617              		.loc 1 784 0
 1618 0050 E0E7     		b	.L188
 1619              	.L196:
 1620 0052 00BF     		.align	2
 1621              	.L195:
 1622 0054 00000000 		.word	.LANCHOR12
 1623 0058 00000000 		.word	0
 1624              		.cfi_endproc
 1625              	.LFE292:
 1626              		.size	mc_interface_get_tachometer_value, .-mc_interface_get_tachometer_value
 1627 005c AFF30080 		.section	.text.mc_interface_fault_stop.part.1,"ax",%progbits
 1628              		.align	2
 1629              		.p2align 4,,15
 1630              		.thumb
ARM GAS  /tmp/ccB9RVXV.s 			page 30


 1631              		.thumb_func
 1632              		.type	mc_interface_fault_stop.part.1, %function
 1633              	mc_interface_fault_stop.part.1:
 1634              	.LFB313:
 1635              		.loc 1 991 0
 1636              		.cfi_startproc
 1637              		@ args = 0, pretend = 0, frame = 72
 1638              		@ frame_needed = 0, uses_anonymous_args = 0
 1639              	.LVL106:
 1640 0000 F0B5     		push	{r4, r5, r6, r7, lr}
 1641              		.cfi_def_cfa_offset 20
 1642              		.cfi_offset 4, -20
 1643              		.cfi_offset 5, -16
 1644              		.cfi_offset 6, -12
 1645              		.cfi_offset 7, -8
 1646              		.cfi_offset 14, -4
 1647 0002 93B0     		sub	sp, sp, #76
 1648              		.cfi_def_cfa_offset 96
 1649              		.loc 1 991 0
 1650 0004 0546     		mov	r5, r0
 1651              		.loc 1 997 0
 1652 0006 FFF7FEFF 		bl	mc_interface_dccal_done
 1653              	.LVL107:
 1654 000a 404C     		ldr	r4, .L206
 1655 000c 08B1     		cbz	r0, .L198
 1656 000e 2678     		ldrb	r6, [r4]	@ zero_extendqisi2
 1657 0010 A6B1     		cbz	r6, .L205
 1658              	.L198:
 1659              		.loc 1 1028 0
 1660 0012 3F4B     		ldr	r3, .L206+4
 1661 0014 3F4A     		ldr	r2, .L206+8
 1662 0016 D3F84C11 		ldr	r1, [r3, #332]
 1663              		.loc 1 1030 0
 1664 001a 9B78     		ldrb	r3, [r3, #2]	@ zero_extendqisi2
 1665              		.loc 1 1028 0
 1666 001c 1160     		str	r1, [r2]
 1667              		.loc 1 1030 0
 1668 001e DBB2     		uxtb	r3, r3
 1669 0020 012B     		cmp	r3, #1
 1670 0022 06D9     		bls	.L200
 1671 0024 022B     		cmp	r3, #2
 1672 0026 01D1     		bne	.L199
 1673              		.loc 1 1037 0
 1674 0028 FFF7FEFF 		bl	mcpwm_foc_stop_pwm
 1675              	.LVL108:
 1676              	.L199:
 1677              		.loc 1 1044 0
 1678 002c 2570     		strb	r5, [r4]
 1679              		.loc 1 1045 0
 1680 002e 13B0     		add	sp, sp, #76
 1681              		@ sp needed
 1682 0030 F0BD     		pop	{r4, r5, r6, r7, pc}
 1683              	.L200:
 1684              		.loc 1 1033 0
 1685 0032 FFF7FEFF 		bl	mcpwm_stop_pwm
 1686              	.LVL109:
 1687              		.loc 1 1044 0
ARM GAS  /tmp/ccB9RVXV.s 			page 31


 1688 0036 2570     		strb	r5, [r4]
 1689              		.loc 1 1045 0
 1690 0038 13B0     		add	sp, sp, #76
 1691              		@ sp needed
 1692 003a F0BD     		pop	{r4, r5, r6, r7, pc}
 1693              	.L205:
 1694              	.LBB124:
 1695              		.loc 1 1000 0
 1696 003c FFF7FEFF 		bl	utils_sys_lock_cnt
 1697              	.LVL110:
 1698              		.loc 1 1001 0
 1699 0040 354A     		ldr	r2, .L206+12
 1700              		.loc 1 1002 0
 1701 0042 364B     		ldr	r3, .L206+16
 1702              		.loc 1 1001 0
 1703 0044 526B     		ldr	r2, [r2, #52]
 1704 0046 0192     		str	r2, [sp, #4]
 1705              		.loc 1 1002 0
 1706 0048 1A6C     		ldr	r2, [r3, #64]
 1707 004a 0292     		str	r2, [sp, #8]
 1708              		.loc 1 1003 0
 1709 004c DB6A     		ldr	r3, [r3, #44]
 1710 004e 0393     		str	r3, [sp, #12]
 1711              		.loc 1 1004 0
 1712 0050 FFF7FEFF 		bl	utils_sys_unlock_cnt
 1713              	.LVL111:
 1714              		.loc 1 1007 0
 1715 0054 8DF81050 		strb	r5, [sp, #16]
 1716              		.loc 1 1008 0
 1717 0058 FFF7FEFF 		bl	mc_interface_get_tot_current
 1718              	.LVL112:
 1719              		.loc 1 1010 0
 1720 005c 304F     		ldr	r7, .L206+20
 1721              		.loc 1 1008 0
 1722 005e 8DED050A 		fsts	s0, [sp, #20]
 1723              		.loc 1 1009 0
 1724 0062 FFF7FEFF 		bl	mc_interface_get_tot_current_filtered
 1725              	.LVL113:
 1726              		.loc 1 1010 0
 1727 0066 3B8A     		ldrh	r3, [r7, #16]
 1728 0068 9FED2E7A 		flds	s14, .L206+24
 1729 006c DFED2E7A 		flds	s15, .L206+28
 1730              		.loc 1 1009 0
 1731 0070 8DED060A 		fsts	s0, [sp, #24]
 1732              		.loc 1 1010 0
 1733 0074 9BB2     		uxth	r3, r3
 1734 0076 06EE103A 		fmsr	s12, r3	@ int
 1735 007a F8EE466A 		fuitos	s13, s12
 1736 007e 26EE877A 		fmuls	s14, s13, s14
 1737 0082 67EE277A 		fmuls	s15, s14, s15
 1738 0086 CDED077A 		fsts	s15, [sp, #28]
 1739              		.loc 1 1011 0
 1740 008a FFF7FEFF 		bl	mc_interface_get_duty_cycle_now
 1741              	.LVL114:
 1742 008e 8DED080A 		fsts	s0, [sp, #32]
 1743              		.loc 1 1012 0
 1744 0092 FFF7FEFF 		bl	mc_interface_get_rpm
ARM GAS  /tmp/ccB9RVXV.s 			page 32


 1745              	.LVL115:
 1746              		.loc 1 1013 0
 1747 0096 3046     		mov	r0, r6
 1748              		.loc 1 1012 0
 1749 0098 8DED090A 		fsts	s0, [sp, #36]
 1750              		.loc 1 1013 0
 1751 009c FFF7FEFF 		bl	mc_interface_get_tachometer_value
 1752              	.LVL116:
 1753              		.loc 1 1014 0
 1754 00a0 224B     		ldr	r3, .L206+32
 1755              		.loc 1 1013 0
 1756 00a2 0A90     		str	r0, [sp, #40]
 1757              		.loc 1 1014 0
 1758 00a4 1868     		ldr	r0, [r3]
 1759              		.loc 1 1015 0
 1760 00a6 0199     		ldr	r1, [sp, #4]
 1761              		.loc 1 1016 0
 1762 00a8 029A     		ldr	r2, [sp, #8]
 1763              		.loc 1 1017 0
 1764 00aa 039B     		ldr	r3, [sp, #12]
 1765              		.loc 1 1015 0
 1766 00ac 0C91     		str	r1, [sp, #48]
 1767              		.loc 1 1016 0
 1768 00ae 0D92     		str	r2, [sp, #52]
 1769              		.loc 1 1017 0
 1770 00b0 0E93     		str	r3, [sp, #56]
 1771              		.loc 1 1014 0
 1772 00b2 0B90     		str	r0, [sp, #44]
 1773              		.loc 1 1018 0
 1774 00b4 FFF7FEFF 		bl	mcpwm_get_comm_step
 1775              	.LVL117:
 1776              		.loc 1 1019 0
 1777 00b8 7B89     		ldrh	r3, [r7, #10]
 1778 00ba 9FED1D7A 		flds	s14, .L206+36
 1779 00be DFED1D7A 		flds	s15, .L206+40
 1780              		.loc 1 1018 0
 1781 00c2 0F90     		str	r0, [sp, #60]
 1782              		.loc 1 1019 0
 1783 00c4 9BB2     		uxth	r3, r3
 1784 00c6 06EE903A 		fmsr	s13, r3	@ int
 1785 00ca B8EEE60A 		fsitos	s0, s13
 1786 00ce 87EE000A 		fdivs	s0, s14, s0
 1787 00d2 30EE670A 		fsubs	s0, s0, s15
 1788 00d6 80EE270A 		fdivs	s0, s0, s15
 1789 00da FFF7FEFF 		bl	logf
 1790              	.LVL118:
 1791              		.loc 1 1025 0
 1792 00de 04A8     		add	r0, sp, #16
 1793              		.loc 1 1019 0
 1794 00e0 DFED156A 		flds	s13, .L206+44
 1795 00e4 9FED157A 		flds	s14, .L206+48
 1796 00e8 DFED157A 		flds	s15, .L206+52
 1797 00ec 80EE260A 		fdivs	s0, s0, s13
 1798 00f0 B7EE006A 		fconsts	s12, #112
 1799 00f4 30EE077A 		fadds	s14, s0, s14
 1800 00f8 86EE077A 		fdivs	s14, s12, s14
 1801 00fc 77EE677A 		fsubs	s15, s14, s15
ARM GAS  /tmp/ccB9RVXV.s 			page 33


 1802 0100 CDED107A 		fsts	s15, [sp, #64]
 1803              		.loc 1 1025 0
 1804 0104 FFF7FEFF 		bl	terminal_add_fault_data
 1805              	.LVL119:
 1806 0108 83E7     		b	.L198
 1807              	.L207:
 1808 010a 00BF     		.align	2
 1809              	.L206:
 1810 010c 00000000 		.word	.LANCHOR13
 1811 0110 00000000 		.word	.LANCHOR12
 1812 0114 00000000 		.word	.LANCHOR14
 1813 0118 00040140 		.word	1073808384
 1814 011c 00000140 		.word	1073807360
 1815 0120 00000000 		.word	.LANCHOR41
 1816 0124 6740533A 		.word	978534503
 1817 0128 74D19541 		.word	1100337524
 1818 012c 00000000 		.word	.LANCHOR15
 1819 0130 3C361C4C 		.word	1276917308
 1820 0134 00401C46 		.word	1176256512
 1821 0138 00A05645 		.word	1163304960
 1822 013c 0FCF5B3B 		.word	995872527
 1823 0140 33938843 		.word	1133024051
 1824              	.LBE124:
 1825              		.cfi_endproc
 1826              	.LFE313:
 1827              		.size	mc_interface_fault_stop.part.1, .-mc_interface_fault_stop.part.1
 1828 0144 AFF30080 		.section	.text.update_override_limits.constprop.2,"ax",%progbits
 1828      AFF30080 
 1828      AFF30080 
 1829              		.align	2
 1830              		.p2align 4,,15
 1831              		.thumb
 1832              		.thumb_func
 1833              		.type	update_override_limits.constprop.2, %function
 1834              	update_override_limits.constprop.2:
 1835              	.LFB314:
 1836              		.loc 1 1301 0
 1837              		.cfi_startproc
 1838              		@ args = 0, pretend = 0, frame = 0
 1839              		@ frame_needed = 0, uses_anonymous_args = 0
 1840              	.LVL120:
 1841 0000 F8B5     		push	{r3, r4, r5, r6, r7, lr}
 1842              		.cfi_def_cfa_offset 24
 1843              		.cfi_offset 3, -24
 1844              		.cfi_offset 4, -20
 1845              		.cfi_offset 5, -16
 1846              		.cfi_offset 6, -12
 1847              		.cfi_offset 7, -8
 1848              		.cfi_offset 14, -4
 1849              		.loc 1 1302 0
 1850 0002 E14F     		ldr	r7, .L314
 1851 0004 9FEDE17A 		flds	s14, .L314+4
 1852 0008 3B8A     		ldrh	r3, [r7, #16]
 1853              		.loc 1 1305 0
 1854 000a E14D     		ldr	r5, .L314+8
 1855              		.loc 1 1302 0
 1856 000c DFEDE17A 		flds	s15, .L314+12
ARM GAS  /tmp/ccB9RVXV.s 			page 34


 1857              		.loc 1 1306 0
 1858 0010 E14E     		ldr	r6, .L314+16
 1859 0012 E24C     		ldr	r4, .L314+20
 1860              		.loc 1 1302 0
 1861 0014 9BB2     		uxth	r3, r3
 1862 0016 06EE903A 		fmsr	s13, r3	@ int
 1863              		.loc 1 1301 0
 1864 001a 2DED0A8B 		fstmfdd	sp!, {d8, d9, d10, d11, d12}
 1865              		.cfi_def_cfa_offset 64
 1866              		.cfi_offset 80, -64
 1867              		.cfi_offset 82, -56
 1868              		.cfi_offset 84, -48
 1869              		.cfi_offset 86, -40
 1870              		.cfi_offset 88, -32
 1871              		.loc 1 1302 0
 1872 001e F8EE668A 		fuitos	s17, s13
 1873              		.loc 1 1305 0
 1874 0022 9FEDDF8A 		flds	s16, .L314+24
 1875 0026 9FEDDFBA 		flds	s22, .L314+28
 1876 002a DFEDDFAA 		flds	s21, .L314+32
 1877 002e 9FEDDFAA 		flds	s20, .L314+36
 1878              		.loc 1 1302 0
 1879 0032 68EE878A 		fmuls	s17, s17, s14
 1880              		.loc 1 1305 0
 1881 0036 F7EE009A 		fconsts	s19, #112
 1882              		.loc 1 1302 0
 1883 003a 68EEA78A 		fmuls	s17, s17, s15
 1884              	.LVL121:
 1885              		.loc 1 1303 0
 1886 003e FFF7FEFF 		bl	mc_interface_get_rpm
 1887              	.LVL122:
 1888              		.loc 1 1305 0
 1889 0042 D5ED00BA 		flds	s23, [r5]
 1890 0046 95ED00CA 		flds	s24, [r5]
 1891 004a 7B89     		ldrh	r3, [r7, #10]
 1892 004c DFEDD87A 		flds	s15, .L314+40
 1893 0050 9BB2     		uxth	r3, r3
 1894 0052 07EE103A 		fmsr	s14, r3	@ int
 1895              		.loc 1 1303 0
 1896 0056 B0EE409A 		fcpys	s18, s0
 1897              	.LVL123:
 1898              		.loc 1 1305 0
 1899 005a B8EEC70A 		fsitos	s0, s14
 1900              	.LVL124:
 1901 005e 87EE800A 		fdivs	s0, s15, s0
 1902 0062 30EE480A 		fsubs	s0, s0, s16
 1903 0066 80EE080A 		fdivs	s0, s0, s16
 1904 006a FFF7FEFF 		bl	logf
 1905              	.LVL125:
 1906 006e 9FEDD17A 		flds	s14, .L314+44
 1907              		.loc 1 1306 0
 1908 0072 DFEDD17A 		flds	s15, .L314+48
 1909              		.loc 1 1305 0
 1910 0076 80EE070A 		fdivs	s0, s0, s14
 1911 007a 30EE0B7A 		fadds	s14, s0, s22
 1912 007e 89EE877A 		fdivs	s14, s19, s14
 1913 0082 37EE6A7A 		fsubs	s14, s14, s21
ARM GAS  /tmp/ccB9RVXV.s 			page 35


 1914 0086 3CEE47CA 		fsubs	s24, s24, s14
 1915 008a ECEE4ABA 		vfms.f32	s23, s24, s20
 1916 008e C5ED00BA 		fsts	s23, [r5]
 1917              		.loc 1 1306 0
 1918 0092 D6ED00BA 		flds	s23, [r6]
 1919 0096 96ED00CA 		flds	s24, [r6]
 1920 009a FB8A     		ldrh	r3, [r7, #22]
 1921 009c 9BB2     		uxth	r3, r3
 1922 009e 06EE903A 		fmsr	s13, r3	@ int
 1923 00a2 B8EE660A 		fuitos	s0, s13
 1924 00a6 87EE800A 		fdivs	s0, s15, s0
 1925 00aa 30EE690A 		fsubs	s0, s0, s19
 1926 00ae 88EE000A 		fdivs	s0, s16, s0
 1927 00b2 80EE080A 		fdivs	s0, s0, s16
 1928 00b6 FFF7FEFF 		bl	logf
 1929              	.LVL126:
 1930 00ba D4ED5C7A 		flds	s15, [r4, #368]
 1931 00be 80EE270A 		fdivs	s0, s0, s15
 1932 00c2 30EE0BBA 		fadds	s22, s0, s22
 1933 00c6 C9EE8B9A 		fdivs	s19, s19, s22
 1934 00ca 79EEEAAA 		fsubs	s21, s19, s21
 1935 00ce 3CEE6ACA 		fsubs	s24, s24, s21
 1936 00d2 ECEE4ABA 		vfms.f32	s23, s24, s20
 1937 00d6 C6ED00BA 		fsts	s23, [r6]
 1938              	.LVL127:
 1939              		.loc 1 1311 0
 1940 00da 94ED107A 		flds	s14, [r4, #64]
 1941 00de D5ED007A 		flds	s15, [r5]
 1942 00e2 B4EEE77A 		fcmpes	s14, s15
 1943 00e6 F1EE10FA 		fmstat
 1944 00ea 40F3F880 		ble	.L292
 1945              		.loc 1 1312 0
 1946 00ee D4ED029A 		flds	s19, [r4, #8]
 1947              	.LVL128:
 1948              		.loc 1 1313 0
 1949 00f2 94ED01CA 		flds	s24, [r4, #4]
 1950              	.LVL129:
 1951              	.L211:
 1952              		.loc 1 1338 0
 1953 00f6 94ED127A 		flds	s14, [r4, #72]
 1954 00fa D6ED007A 		flds	s15, [r6]
 1955 00fe A74B     		ldr	r3, .L314+20
 1956 0100 A54A     		ldr	r2, .L314+16
 1957 0102 B4EEE77A 		fcmpes	s14, s15
 1958 0106 F1EE10FA 		fmstat
 1959 010a 40F32681 		ble	.L296
 1960              		.loc 1 1339 0
 1961 010e 93ED028A 		flds	s16, [r3, #8]
 1962              	.LVL130:
 1963              		.loc 1 1340 0
 1964 0112 D3ED01BA 		flds	s23, [r3, #4]
 1965              	.LVL131:
 1966              	.L226:
 1967              		.loc 1 1364 0
 1968 0116 94ED140A 		flds	s0, [r4, #80]
 1969 011a DFEDA90A 		flds	s1, .L314+56
 1970 011e D4ED101A 		flds	s3, [r4, #64]
ARM GAS  /tmp/ccB9RVXV.s 			page 36


 1971 0122 9E4F     		ldr	r7, .L314+20
 1972 0124 B7EE001A 		fconsts	s2, #112
 1973 0128 B3EE092A 		fconsts	s4, #57
 1974 012c FFF7FEFF 		bl	utils_map
 1975              	.LVL132:
 1976              		.loc 1 1365 0
 1977 0130 DFEDA30A 		flds	s1, .L314+56
 1978              		.loc 1 1364 0
 1979 0134 F0EE40AA 		fcpys	s21, s0
 1980              	.LVL133:
 1981              		.loc 1 1365 0
 1982 0138 B7EE001A 		fconsts	s2, #112
 1983 013c 94ED140A 		flds	s0, [r4, #80]
 1984              	.LVL134:
 1985 0140 D4ED111A 		flds	s3, [r4, #68]
 1986 0144 B3EE092A 		fconsts	s4, #57
 1987 0148 FFF7FEFF 		bl	utils_map
 1988              	.LVL135:
 1989              		.loc 1 1366 0
 1990 014c DFED9C0A 		flds	s1, .L314+56
 1991 0150 B7EE001A 		fconsts	s2, #112
 1992 0154 B3EE092A 		fconsts	s4, #57
 1993              		.loc 1 1365 0
 1994 0158 F0EE40CA 		fcpys	s25, s0
 1995              	.LVL136:
 1996              		.loc 1 1366 0
 1997 015c 94ED140A 		flds	s0, [r4, #80]
 1998              	.LVL137:
 1999 0160 D4ED121A 		flds	s3, [r4, #72]
 2000 0164 FFF7FEFF 		bl	utils_map
 2001              	.LVL138:
 2002              		.loc 1 1367 0
 2003 0168 DFED950A 		flds	s1, .L314+56
 2004              		.loc 1 1366 0
 2005 016c B0EE40AA 		fcpys	s20, s0
 2006              	.LVL139:
 2007              		.loc 1 1367 0
 2008 0170 B7EE001A 		fconsts	s2, #112
 2009 0174 94ED140A 		flds	s0, [r4, #80]
 2010              	.LVL140:
 2011 0178 D4ED131A 		flds	s3, [r4, #76]
 2012 017c B3EE092A 		fconsts	s4, #57
 2013 0180 FFF7FEFF 		bl	utils_map
 2014              	.LVL141:
 2015              		.loc 1 1370 0
 2016 0184 D5ED007A 		flds	s15, [r5]
 2017 0188 814B     		ldr	r3, .L314+8
 2018 018a F4EEE7AA 		fcmpes	s21, s15
 2019 018e F1EE10FA 		fmstat
 2020              		.loc 1 1367 0
 2021 0192 B0EE40BA 		fcpys	s22, s0
 2022              	.LVL142:
 2023              		.loc 1 1370 0
 2024 0196 40F3D580 		ble	.L300
 2025              		.loc 1 1371 0
 2026 019a D7ED01AA 		flds	s21, [r7, #4]
 2027              	.LVL143:
ARM GAS  /tmp/ccB9RVXV.s 			page 37


 2028              	.L241:
 2029              		.loc 1 1380 0
 2030 019e D6ED007A 		flds	s15, [r6]
 2031 01a2 7D4B     		ldr	r3, .L314+16
 2032 01a4 B4EEE7AA 		fcmpes	s20, s15
 2033 01a8 F1EE10FA 		fmstat
 2034 01ac 40F3BF80 		ble	.L301
 2035              		.loc 1 1381 0
 2036 01b0 94ED01AA 		flds	s20, [r4, #4]
 2037              	.LVL144:
 2038              	.L244:
 2039              		.loc 1 1391 0
 2040 01b4 94ED077A 		flds	s14, [r4, #28]
 2041 01b8 D4ED087A 		flds	s15, [r4, #32]
 2042 01bc 774B     		ldr	r3, .L314+20
 2043              		.loc 1 1392 0
 2044 01be 94ED071A 		flds	s2, [r4, #28]
 2045              		.loc 1 1391 0
 2046 01c2 67EE270A 		fmuls	s1, s14, s15
 2047              	.LVL145:
 2048              		.loc 1 1393 0
 2049 01c6 B4EEE09A 		fcmpes	s18, s1
 2050 01ca F1EE10FA 		fmstat
 2051 01ce 40F1A580 		bpl	.L302
 2052              		.loc 1 1394 0
 2053 01d2 93ED01BA 		flds	s22, [r3, #4]
 2054              	.LVL146:
 2055              	.L247:
 2056              		.loc 1 1403 0
 2057 01d6 94ED067A 		flds	s14, [r4, #24]
 2058 01da D4ED087A 		flds	s15, [r4, #32]
 2059 01de 6F4B     		ldr	r3, .L314+20
 2060              		.loc 1 1404 0
 2061 01e0 94ED061A 		flds	s2, [r4, #24]
 2062              		.loc 1 1403 0
 2063 01e4 67EE270A 		fmuls	s1, s14, s15
 2064              	.LVL147:
 2065              		.loc 1 1405 0
 2066 01e8 B4EEE09A 		fcmpes	s18, s1
 2067 01ec F1EE10FA 		fmstat
 2068 01f0 40F38B80 		ble	.L303
 2069              		.loc 1 1406 0
 2070 01f4 93ED019A 		flds	s18, [r3, #4]
 2071              	.LVL148:
 2072              	.L250:
 2073              		.loc 1 1413 0
 2074 01f8 F0EE6B0A 		fcpys	s1, s23
 2075 01fc B0EE4C0A 		fcpys	s0, s24
 2076 0200 FFF7FEFF 		bl	utils_min_abs
 2077              	.LVL149:
 2078              		.loc 1 1414 0
 2079 0204 F0EE480A 		fcpys	s1, s16
 2080              		.loc 1 1413 0
 2081 0208 F0EE40BA 		fcpys	s23, s0
 2082              	.LVL150:
 2083              		.loc 1 1414 0
 2084 020c B0EE690A 		fcpys	s0, s19
ARM GAS  /tmp/ccB9RVXV.s 			page 38


 2085              	.LVL151:
 2086 0210 FFF7FEFF 		bl	utils_min_abs
 2087              	.LVL152:
 2088              		.loc 1 1416 0
 2089 0214 F0EE4B0A 		fcpys	s1, s22
 2090              		.loc 1 1414 0
 2091 0218 B0EE408A 		fcpys	s16, s0
 2092              	.LVL153:
 2093              		.loc 1 1416 0
 2094 021c B0EE6B0A 		fcpys	s0, s23
 2095              	.LVL154:
 2096 0220 FFF7FEFF 		bl	utils_min_abs
 2097              	.LVL155:
 2098              		.loc 1 1417 0
 2099 0224 F0EE490A 		fcpys	s1, s18
 2100 0228 FFF7FEFF 		bl	utils_min_abs
 2101              	.LVL156:
 2102              		.loc 1 1418 0
 2103 022c F0EE6A0A 		fcpys	s1, s21
 2104 0230 FFF7FEFF 		bl	utils_min_abs
 2105              	.LVL157:
 2106              		.loc 1 1419 0
 2107 0234 F0EE4A0A 		fcpys	s1, s20
 2108 0238 FFF7FEFF 		bl	utils_min_abs
 2109              	.LVL158:
 2110              		.loc 1 1421 0
 2111 023c D4ED507A 		flds	s15, [r4, #320]
 2112 0240 564B     		ldr	r3, .L314+20
 2113 0242 B4EEE70A 		fcmpes	s0, s15
 2114 0246 F1EE10FA 		fmstat
 2115              		.loc 1 1422 0
 2116 024a 48BF     		it	mi
 2117 024c 93ED500A 		fldsmi	s0, [r3, #320]
 2118              	.LVL159:
 2119              		.loc 1 1425 0
 2120 0250 D4ED507A 		flds	s15, [r4, #320]
 2121 0254 514B     		ldr	r3, .L314+20
 2122 0256 F1EE677A 		fnegs	s15, s15
 2123 025a B4EEE78A 		fcmpes	s16, s15
 2124 025e F1EE10FA 		fmstat
 2125              		.loc 1 1426 0
 2126 0262 C8BF     		it	gt
 2127 0264 93ED508A 		fldsgt	s16, [r3, #320]
 2128              	.LVL160:
 2129              		.loc 1 1429 0
 2130 0268 84ED190A 		fsts	s0, [r4, #100]
 2131              		.loc 1 1426 0
 2132 026c C8BF     		it	gt
 2133 026e B1EE488A 		fnegsgt	s16, s16
 2134              	.LVL161:
 2135              		.loc 1 1430 0
 2136 0272 84ED1A8A 		fsts	s16, [r4, #104]
 2137              	.LVL162:
 2138              		.loc 1 1434 0
 2139 0276 D4ED0D7A 		flds	s15, [r4, #52]
 2140              		.loc 1 1429 0
 2141 027a 484B     		ldr	r3, .L314+20
ARM GAS  /tmp/ccB9RVXV.s 			page 39


 2142              		.loc 1 1434 0
 2143 027c F4EEE78A 		fcmpes	s17, s15
 2144 0280 F1EE10FA 		fmstat
 2145 0284 00F34081 		bgt	.L305
 2146              		.loc 1 1436 0
 2147 0288 D3ED0E7A 		flds	s15, [r3, #56]
 2148 028c F4EEE78A 		fcmpes	s17, s15
 2149 0290 F1EE10FA 		fmstat
 2150 0294 40F12981 		bpl	.L306
 2151              		.loc 1 1437 0
 2152 0298 DFED490A 		flds	s1, .L314+56
 2153              	.LVL163:
 2154              	.L257:
 2155              		.loc 1 1444 0
 2156 029c 94ED170A 		flds	s0, [r4, #92]
 2157              	.LVL164:
 2158              		.loc 1 1445 0
 2159 02a0 94ED188A 		flds	s16, [r4, #96]
 2160              	.LVL165:
 2161 02a4 88EE288A 		fdivs	s16, s16, s17
 2162              	.LVL166:
 2163              		.loc 1 1447 0
 2164 02a8 80EE280A 		fdivs	s0, s0, s17
 2165              	.LVL167:
 2166 02ac FFF7FEFF 		bl	utils_min_abs
 2167              	.LVL168:
 2168 02b0 F0EE400A 		fcpys	s1, s0
 2169              	.LVL169:
 2170              		.loc 1 1450 0
 2171 02b4 94ED030A 		flds	s0, [r4, #12]
 2172              	.LVL170:
 2173 02b8 FFF7FEFF 		bl	utils_min_abs
 2174              	.LVL171:
 2175 02bc 84ED1B0A 		fsts	s0, [r4, #108]
 2176              		.loc 1 1451 0
 2177 02c0 F0EE480A 		fcpys	s1, s16
 2178 02c4 94ED040A 		flds	s0, [r4, #16]
 2179 02c8 FFF7FEFF 		bl	utils_min_abs
 2180              	.LVL172:
 2181              		.loc 1 1473 0
 2182 02cc BDEC0A8B 		fldmfdd	sp!, {d8-d12}
 2183              	.LVL173:
 2184              		.loc 1 1451 0
 2185 02d0 84ED1C0A 		fsts	s0, [r4, #112]
 2186              		.loc 1 1471 0
 2187 02d4 636E     		ldr	r3, [r4, #100]	@ float
 2188 02d6 6367     		str	r3, [r4, #116]	@ float
 2189              		.loc 1 1472 0
 2190 02d8 A36E     		ldr	r3, [r4, #104]	@ float
 2191 02da A367     		str	r3, [r4, #120]	@ float
 2192              		.loc 1 1473 0
 2193 02dc F8BD     		pop	{r3, r4, r5, r6, r7, pc}
 2194              	.LVL174:
 2195              	.L292:
 2196              		.loc 1 1314 0
 2197 02de 94ED117A 		flds	s14, [r4, #68]
 2198 02e2 D5ED007A 		flds	s15, [r5]
ARM GAS  /tmp/ccB9RVXV.s 			page 40


 2199 02e6 B4EEE77A 		fcmpes	s14, s15
 2200 02ea F1EE10FA 		fmstat
 2201 02ee 69D5     		bpl	.L293
 2202              	.LVL175:
 2203              	.LBB125:
 2204              	.LBB126:
 2205              		.loc 1 992 0
 2206 02f0 324B     		ldr	r3, .L314+52
 2207 02f2 1B78     		ldrb	r3, [r3]	@ zero_extendqisi2
 2208 02f4 052B     		cmp	r3, #5
 2209 02f6 00F05A81 		beq	.L307
 2210              	.LBE126:
 2211              	.LBE125:
 2212              		.loc 1 1315 0
 2213 02fa DFED319A 		flds	s19, .L314+56
 2214              	.LBB131:
 2215              	.LBB127:
 2216 02fe 0520     		movs	r0, #5
 2217              	.LBE127:
 2218              	.LBE131:
 2219              		.loc 1 1316 0
 2220 0300 B0EE69CA 		fcpys	s24, s19
 2221              	.LBB132:
 2222              	.LBB128:
 2223 0304 FFF7FEFF 		bl	mc_interface_fault_stop.part.1
 2224              	.LVL176:
 2225 0308 F5E6     		b	.L211
 2226              	.LVL177:
 2227              	.L303:
 2228              	.LBE128:
 2229              	.LBE132:
 2230              		.loc 1 1407 0
 2231 030a B4EEC19A 		fcmpes	s18, s2
 2232 030e F1EE10FA 		fmstat
 2233 0312 40F1FC80 		bpl	.L308
 2234              		.loc 1 1408 0
 2235 0316 9FED2A9A 		flds	s18, .L314+56
 2236              	.LVL178:
 2237 031a 6DE7     		b	.L250
 2238              	.LVL179:
 2239              	.L302:
 2240              		.loc 1 1395 0
 2241 031c B4EEC19A 		fcmpes	s18, s2
 2242 0320 F1EE10FA 		fmstat
 2243 0324 40F3FE80 		ble	.L309
 2244              		.loc 1 1396 0
 2245 0328 9FED25BA 		flds	s22, .L314+56
 2246              	.LVL180:
 2247 032c 53E7     		b	.L247
 2248              	.LVL181:
 2249              	.L301:
 2250              		.loc 1 1382 0
 2251 032e D3ED007A 		flds	s15, [r3]
 2252 0332 B4EEE7BA 		fcmpes	s22, s15
 2253 0336 F1EE10FA 		fmstat
 2254 033a 40F1FE80 		bpl	.L310
 2255              		.loc 1 1383 0
ARM GAS  /tmp/ccB9RVXV.s 			page 41


 2256 033e 9FED20AA 		flds	s20, .L314+56
 2257              	.LVL182:
 2258 0342 37E7     		b	.L244
 2259              	.LVL183:
 2260              	.L300:
 2261              		.loc 1 1372 0
 2262 0344 D3ED007A 		flds	s15, [r3]
 2263 0348 F4EEE7CA 		fcmpes	s25, s15
 2264 034c F1EE10FA 		fmstat
 2265 0350 40F10281 		bpl	.L311
 2266              		.loc 1 1373 0
 2267 0354 DFED1AAA 		flds	s21, .L314+56
 2268              	.LVL184:
 2269 0358 21E7     		b	.L241
 2270              	.LVL185:
 2271              	.L296:
 2272              		.loc 1 1341 0
 2273 035a 93ED137A 		flds	s14, [r3, #76]
 2274 035e D2ED007A 		flds	s15, [r2]
 2275 0362 B4EEE77A 		fcmpes	s14, s15
 2276 0366 F1EE10FA 		fmstat
 2277 036a 7CD5     		bpl	.L297
 2278              	.LVL186:
 2279              	.LBB133:
 2280              	.LBB134:
 2281              		.loc 1 992 0
 2282 036c 134A     		ldr	r2, .L314+52
 2283 036e 1278     		ldrb	r2, [r2]	@ zero_extendqisi2
 2284 0370 062A     		cmp	r2, #6
 2285 0372 00F01381 		beq	.L312
 2286              	.LBE134:
 2287              	.LBE133:
 2288              		.loc 1 1342 0
 2289 0376 9FED128A 		flds	s16, .L314+56
 2290              	.LBB139:
 2291              	.LBB135:
 2292 037a 0620     		movs	r0, #6
 2293              	.LBE135:
 2294              	.LBE139:
 2295              		.loc 1 1343 0
 2296 037c F0EE48BA 		fcpys	s23, s16
 2297              	.LBB140:
 2298              	.LBB136:
 2299 0380 FFF7FEFF 		bl	mc_interface_fault_stop.part.1
 2300              	.LVL187:
 2301 0384 C7E6     		b	.L226
 2302              	.L315:
 2303 0386 00BF     		.align	2
 2304              	.L314:
 2305 0388 00000000 		.word	.LANCHOR41
 2306 038c 6740533A 		.word	978534503
 2307 0390 00000000 		.word	.LANCHOR32
 2308 0394 74D19541 		.word	1100337524
 2309 0398 00000000 		.word	.LANCHOR33
 2310 039c 00000000 		.word	.LANCHOR12
 2311 03a0 00401C46 		.word	1176256512
 2312 03a4 0FCF5B3B 		.word	995872527
ARM GAS  /tmp/ccB9RVXV.s 			page 42


 2313 03a8 33938843 		.word	1133024051
 2314 03ac CDCCCC3D 		.word	1036831949
 2315 03b0 3C361C4C 		.word	1276917308
 2316 03b4 00A05645 		.word	1163304960
 2317 03b8 00F07F45 		.word	1166012416
 2318 03bc 00000000 		.word	.LANCHOR13
 2319 03c0 00000000 		.word	0
 2320              	.LVL188:
 2321              	.L293:
 2322              	.LBE136:
 2323              	.LBE140:
 2324              	.LBB141:
 2325              		.loc 1 1319 0
 2326 03c4 D4ED011A 		flds	s3, [r4, #4]
 2327              		.loc 1 1320 0
 2328 03c8 D4ED027A 		flds	s15, [r4, #8]
 2329              		.loc 1 1324 0
 2330 03cc 1FED042A 		flds	s4, .L314+56
 2331 03d0 7E4F     		ldr	r7, .L316
 2332              		.loc 1 1319 0
 2333 03d2 F0EEE11A 		fabss	s3, s3
 2334              	.LVL189:
 2335              		.loc 1 1320 0
 2336 03d6 F0EEE77A 		fabss	s15, s15
 2337 03da F4EEE71A 		fcmpes	s3, s15
 2338 03de F1EE10FA 		fmstat
 2339              		.loc 1 1321 0
 2340 03e2 48BF     		it	mi
 2341 03e4 D4ED021A 		fldsmi	s3, [r4, #8]
 2342              	.LVL190:
 2343              		.loc 1 1324 0
 2344 03e8 95ED000A 		flds	s0, [r5]
 2345 03ec D4ED100A 		flds	s1, [r4, #64]
 2346 03f0 94ED111A 		flds	s2, [r4, #68]
 2347              		.loc 1 1321 0
 2348 03f4 48BF     		it	mi
 2349 03f6 F0EEE11A 		fabssmi	s3, s3
 2350              	.LVL191:
 2351              		.loc 1 1324 0
 2352 03fa FFF7FEFF 		bl	utils_map
 2353              	.LVL192:
 2354              		.loc 1 1326 0
 2355 03fe D4ED017A 		flds	s15, [r4, #4]
 2356 0402 F0EEE77A 		fabss	s15, s15
 2357 0406 B4EEE70A 		fcmpes	s0, s15
 2358 040a F1EE10FA 		fmstat
 2359 040e 40F1B280 		bpl	.L294
 2360              		.loc 1 1327 0
 2361 0412 D7ED017A 		flds	s15, [r7, #4]
 2362 0416 F5EEC07A 		fcmpezs	s15
 2363 041a F1EE10FA 		fmstat
 2364 041e BFEE00CA 		fconsts	s24, #240
 2365 0422 F7EE007A 		fconsts	s15, #112
 2366 0426 58BF     		it	pl
 2367 0428 B0EE67CA 		fcpyspl	s24, s15
 2368 042c 20EE0CCA 		fmuls	s24, s0, s24
 2369              	.LVL193:
ARM GAS  /tmp/ccB9RVXV.s 			page 43


 2370              	.L217:
 2371              		.loc 1 1330 0
 2372 0430 D4ED027A 		flds	s15, [r4, #8]
 2373 0434 654B     		ldr	r3, .L316
 2374 0436 F0EEE77A 		fabss	s15, s15
 2375 043a B4EEE70A 		fcmpes	s0, s15
 2376 043e F1EE10FA 		fmstat
 2377 0442 40F1C080 		bpl	.L295
 2378              		.loc 1 1331 0
 2379 0446 D3ED027A 		flds	s15, [r3, #8]
 2380 044a F5EEC07A 		fcmpezs	s15
 2381 044e F1EE10FA 		fmstat
 2382 0452 FFEE009A 		fconsts	s19, #240
 2383 0456 F7EE007A 		fconsts	s15, #112
 2384 045a 58BF     		it	pl
 2385 045c F0EE679A 		fcpyspl	s19, s15
 2386 0460 60EE299A 		fmuls	s19, s0, s19
 2387              	.LVL194:
 2388 0464 47E6     		b	.L211
 2389              	.LVL195:
 2390              	.L297:
 2391              	.LBE141:
 2392              	.LBB142:
 2393              		.loc 1 1346 0
 2394 0466 D3ED011A 		flds	s3, [r3, #4]
 2395              		.loc 1 1347 0
 2396 046a D3ED027A 		flds	s15, [r3, #8]
 2397              		.loc 1 1351 0
 2398 046e 9FED582A 		flds	s4, .L316+4
 2399 0472 564F     		ldr	r7, .L316
 2400              		.loc 1 1346 0
 2401 0474 F0EEE11A 		fabss	s3, s3
 2402              	.LVL196:
 2403              		.loc 1 1347 0
 2404 0478 F0EEE77A 		fabss	s15, s15
 2405 047c F4EEE71A 		fcmpes	s3, s15
 2406 0480 F1EE10FA 		fmstat
 2407              		.loc 1 1348 0
 2408 0484 48BF     		it	mi
 2409 0486 D3ED021A 		fldsmi	s3, [r3, #8]
 2410              	.LVL197:
 2411              		.loc 1 1351 0
 2412 048a 96ED000A 		flds	s0, [r6]
 2413 048e D4ED120A 		flds	s1, [r4, #72]
 2414 0492 94ED131A 		flds	s2, [r4, #76]
 2415              		.loc 1 1348 0
 2416 0496 48BF     		it	mi
 2417 0498 F0EEE11A 		fabssmi	s3, s3
 2418              	.LVL198:
 2419              		.loc 1 1351 0
 2420 049c FFF7FEFF 		bl	utils_map
 2421              	.LVL199:
 2422              		.loc 1 1353 0
 2423 04a0 D4ED017A 		flds	s15, [r4, #4]
 2424 04a4 F0EEE77A 		fabss	s15, s15
 2425 04a8 B4EEE70A 		fcmpes	s0, s15
 2426 04ac F1EE10FA 		fmstat
ARM GAS  /tmp/ccB9RVXV.s 			page 44


 2427 04b0 64D4     		bmi	.L313
 2428              	.LBE142:
 2429              		.loc 1 1336 0
 2430 04b2 DFED47BA 		flds	s23, .L316+4
 2431              	.LVL200:
 2432              	.L232:
 2433              	.LBB143:
 2434              		.loc 1 1357 0
 2435 04b6 D4ED027A 		flds	s15, [r4, #8]
 2436 04ba 444B     		ldr	r3, .L316
 2437 04bc F0EEE77A 		fabss	s15, s15
 2438 04c0 B4EEE70A 		fcmpes	s0, s15
 2439 04c4 F1EE10FA 		fmstat
 2440 04c8 7AD5     		bpl	.L299
 2441              		.loc 1 1358 0
 2442 04ca D3ED027A 		flds	s15, [r3, #8]
 2443 04ce F5EEC07A 		fcmpezs	s15
 2444 04d2 F1EE10FA 		fmstat
 2445 04d6 BFEE008A 		fconsts	s16, #240
 2446 04da F7EE007A 		fconsts	s15, #112
 2447 04de 58BF     		it	pl
 2448 04e0 B0EE678A 		fcpyspl	s16, s15
 2449 04e4 20EE088A 		fmuls	s16, s0, s16
 2450              	.LVL201:
 2451 04e8 15E6     		b	.L226
 2452              	.LVL202:
 2453              	.L306:
 2454              	.LBE143:
 2455              		.loc 1 1439 0
 2456 04ea D3ED0D0A 		flds	s1, [r3, #52]
 2457 04ee 9FED382A 		flds	s4, .L316+4
 2458 04f2 93ED0E1A 		flds	s2, [r3, #56]
 2459 04f6 D3ED031A 		flds	s3, [r3, #12]
 2460 04fa B0EE680A 		fcpys	s0, s17
 2461              	.LVL203:
 2462 04fe FFF7FEFF 		bl	utils_map
 2463              	.LVL204:
 2464 0502 F0EE400A 		fcpys	s1, s0
 2465              	.LVL205:
 2466 0506 C9E6     		b	.L257
 2467              	.LVL206:
 2468              	.L305:
 2469              		.loc 1 1435 0
 2470 0508 D3ED030A 		flds	s1, [r3, #12]
 2471              	.LVL207:
 2472 050c C6E6     		b	.L257
 2473              	.LVL208:
 2474              	.L308:
 2475              		.loc 1 1410 0
 2476 050e B0EE490A 		fcpys	s0, s18
 2477 0512 D3ED011A 		flds	s3, [r3, #4]
 2478 0516 9FED2E2A 		flds	s4, .L316+4
 2479 051a FFF7FEFF 		bl	utils_map
 2480              	.LVL209:
 2481 051e B0EE409A 		fcpys	s18, s0
 2482              	.LVL210:
 2483 0522 69E6     		b	.L250
ARM GAS  /tmp/ccB9RVXV.s 			page 45


 2484              	.LVL211:
 2485              	.L309:
 2486              		.loc 1 1398 0
 2487 0524 D3ED011A 		flds	s3, [r3, #4]
 2488 0528 9FED292A 		flds	s4, .L316+4
 2489 052c B0EE490A 		fcpys	s0, s18
 2490 0530 FFF7FEFF 		bl	utils_map
 2491              	.LVL212:
 2492 0534 B0EE40BA 		fcpys	s22, s0
 2493              	.LVL213:
 2494 0538 4DE6     		b	.L247
 2495              	.LVL214:
 2496              	.L310:
 2497              		.loc 1 1385 0
 2498 053a 93ED000A 		flds	s0, [r3]
 2499 053e 9FED242A 		flds	s4, .L316+4
 2500 0542 D4ED011A 		flds	s3, [r4, #4]
 2501 0546 F0EE4A0A 		fcpys	s1, s20
 2502 054a B0EE4B1A 		fcpys	s2, s22
 2503 054e FFF7FEFF 		bl	utils_map
 2504              	.LVL215:
 2505 0552 B0EE40AA 		fcpys	s20, s0
 2506              	.LVL216:
 2507 0556 2DE6     		b	.L244
 2508              	.LVL217:
 2509              	.L311:
 2510              		.loc 1 1375 0
 2511 0558 93ED000A 		flds	s0, [r3]
 2512              	.LVL218:
 2513 055c 9FED1C2A 		flds	s4, .L316+4
 2514 0560 D7ED011A 		flds	s3, [r7, #4]
 2515 0564 F0EE6A0A 		fcpys	s1, s21
 2516 0568 B0EE6C1A 		fcpys	s2, s25
 2517 056c FFF7FEFF 		bl	utils_map
 2518              	.LVL219:
 2519 0570 F0EE40AA 		fcpys	s21, s0
 2520              	.LVL220:
 2521 0574 13E6     		b	.L241
 2522              	.LVL221:
 2523              	.L294:
 2524              		.loc 1 1309 0
 2525 0576 9FED16CA 		flds	s24, .L316+4
 2526 057a 59E7     		b	.L217
 2527              	.LVL222:
 2528              	.L313:
 2529              	.LBB144:
 2530              		.loc 1 1354 0
 2531 057c D7ED017A 		flds	s15, [r7, #4]
 2532 0580 F5EEC07A 		fcmpezs	s15
 2533 0584 F1EE10FA 		fmstat
 2534 0588 FFEE00BA 		fconsts	s23, #240
 2535 058c F7EE007A 		fconsts	s15, #112
 2536 0590 58BF     		it	pl
 2537 0592 F0EE67BA 		fcpyspl	s23, s15
 2538 0596 60EE2BBA 		fmuls	s23, s0, s23
 2539              	.LVL223:
 2540 059a 8CE7     		b	.L232
ARM GAS  /tmp/ccB9RVXV.s 			page 46


 2541              	.LVL224:
 2542              	.L312:
 2543              	.LBE144:
 2544              	.LBB145:
 2545              	.LBB137:
 2546              		.loc 1 993 0
 2547 059c 0D4A     		ldr	r2, .L316+8
 2548              	.LBE137:
 2549              	.LBE145:
 2550              		.loc 1 1342 0
 2551 059e 9FED0C8A 		flds	s16, .L316+4
 2552              	.LBB146:
 2553              	.LBB138:
 2554              		.loc 1 993 0
 2555 05a2 D3F84C31 		ldr	r3, [r3, #332]
 2556 05a6 1360     		str	r3, [r2]
 2557              	.LBE138:
 2558              	.LBE146:
 2559              		.loc 1 1343 0
 2560 05a8 F0EE48BA 		fcpys	s23, s16
 2561 05ac B3E5     		b	.L226
 2562              	.LVL225:
 2563              	.L307:
 2564              	.LBB147:
 2565              	.LBB129:
 2566              		.loc 1 993 0
 2567 05ae 094B     		ldr	r3, .L316+8
 2568              	.LBE129:
 2569              	.LBE147:
 2570              		.loc 1 1315 0
 2571 05b0 DFED079A 		flds	s19, .L316+4
 2572              	.LBB148:
 2573              	.LBB130:
 2574              		.loc 1 993 0
 2575 05b4 D4F84C21 		ldr	r2, [r4, #332]
 2576 05b8 1A60     		str	r2, [r3]
 2577              	.LBE130:
 2578              	.LBE148:
 2579              		.loc 1 1316 0
 2580 05ba B0EE69CA 		fcpys	s24, s19
 2581 05be 9AE5     		b	.L211
 2582              	.LVL226:
 2583              	.L299:
 2584              		.loc 1 1337 0
 2585 05c0 9FED038A 		flds	s16, .L316+4
 2586 05c4 A7E5     		b	.L226
 2587              	.LVL227:
 2588              	.L295:
 2589              		.loc 1 1310 0
 2590 05c6 DFED029A 		flds	s19, .L316+4
 2591 05ca 94E5     		b	.L211
 2592              	.L317:
 2593              		.align	2
 2594              	.L316:
 2595 05cc 00000000 		.word	.LANCHOR12
 2596 05d0 00000000 		.word	0
 2597 05d4 00000000 		.word	.LANCHOR14
ARM GAS  /tmp/ccB9RVXV.s 			page 47


 2598              		.cfi_endproc
 2599              	.LFE314:
 2600              		.size	update_override_limits.constprop.2, .-update_override_limits.constprop.2
 2601 05d8 AFF30080 		.section	.text.mc_interface_set_configuration,"ax",%progbits
 2601      AFF30080 
 2602              		.align	2
 2603              		.p2align 4,,15
 2604              		.global	mc_interface_set_configuration
 2605              		.thumb
 2606              		.thumb_func
 2607              		.type	mc_interface_set_configuration, %function
 2608              	mc_interface_set_configuration:
 2609              	.LFB258:
 2610              		.loc 1 175 0
 2611              		.cfi_startproc
 2612              		@ args = 0, pretend = 0, frame = 0
 2613              		@ frame_needed = 0, uses_anonymous_args = 0
 2614              	.LVL228:
 2615 0000 38B5     		push	{r3, r4, r5, lr}
 2616              		.cfi_def_cfa_offset 16
 2617              		.cfi_offset 3, -16
 2618              		.cfi_offset 4, -12
 2619              		.cfi_offset 5, -8
 2620              		.cfi_offset 14, -4
 2621              		.loc 1 177 0
 2622 0002 304D     		ldr	r5, .L340
 2623 0004 90F85C31 		ldrb	r3, [r0, #348]	@ zero_extendqisi2
 2624 0008 95F85C21 		ldrb	r2, [r5, #348]	@ zero_extendqisi2
 2625 000c 9A42     		cmp	r2, r3
 2626              		.loc 1 175 0
 2627 000e 0446     		mov	r4, r0
 2628              		.loc 1 177 0
 2629 0010 07D0     		beq	.L319
 2630              		.loc 1 178 0
 2631 0012 FFF7FEFF 		bl	encoder_deinit
 2632              	.LVL229:
 2633              		.loc 1 179 0
 2634 0016 94F85C31 		ldrb	r3, [r4, #348]	@ zero_extendqisi2
 2635 001a 012B     		cmp	r3, #1
 2636 001c 3FD0     		beq	.L320
 2637 001e 022B     		cmp	r3, #2
 2638 0020 32D0     		beq	.L321
 2639              	.L319:
 2640              		.loc 1 193 0
 2641 0022 012B     		cmp	r3, #1
 2642 0024 36D0     		beq	.L336
 2643              	.L322:
 2644              		.loc 1 203 0
 2645 0026 AB78     		ldrb	r3, [r5, #2]	@ zero_extendqisi2
 2646 0028 022B     		cmp	r3, #2
 2647 002a 1ED0     		beq	.L337
 2648              	.L323:
 2649              		.loc 1 208 0
 2650 002c AB78     		ldrb	r3, [r5, #2]	@ zero_extendqisi2
 2651 002e 022B     		cmp	r3, #2
 2652 0030 02D0     		beq	.L325
 2653              		.loc 1 209 0
ARM GAS  /tmp/ccB9RVXV.s 			page 48


 2654 0032 A378     		ldrb	r3, [r4, #2]	@ zero_extendqisi2
 2655 0034 022B     		cmp	r3, #2
 2656 0036 39D0     		beq	.L338
 2657              	.L325:
 2658              		.loc 1 214 0
 2659 0038 2146     		mov	r1, r4
 2660 003a 2248     		ldr	r0, .L340
 2661 003c 4FF4BA72 		mov	r2, #372
 2662 0040 FFF7FEFF 		bl	memcpy
 2663              	.LVL230:
 2664              	.L324:
 2665              		.loc 1 217 0
 2666 0044 FFF7FEFF 		bl	update_override_limits.constprop.2
 2667              	.LVL231:
 2668              		.loc 1 219 0
 2669 0048 AB78     		ldrb	r3, [r5, #2]	@ zero_extendqisi2
 2670 004a DBB2     		uxtb	r3, r3
 2671 004c 012B     		cmp	r3, #1
 2672 004e 07D9     		bls	.L327
 2673 0050 022B     		cmp	r3, #2
 2674 0052 04D1     		bne	.L339
 2675              		.loc 1 226 0
 2676 0054 1B48     		ldr	r0, .L340
 2677              		.loc 1 232 0
 2678 0056 BDE83840 		pop	{r3, r4, r5, lr}
 2679              	.LVL232:
 2680              		.loc 1 226 0
 2681 005a FFF7FEBF 		b	mcpwm_foc_set_configuration
 2682              	.LVL233:
 2683              	.L339:
 2684 005e 38BD     		pop	{r3, r4, r5, pc}
 2685              	.LVL234:
 2686              	.L327:
 2687              		.loc 1 222 0
 2688 0060 1848     		ldr	r0, .L340
 2689              		.loc 1 232 0
 2690 0062 BDE83840 		pop	{r3, r4, r5, lr}
 2691              	.LVL235:
 2692              		.loc 1 222 0
 2693 0066 FFF7FEBF 		b	mcpwm_set_configuration
 2694              	.LVL236:
 2695              	.L337:
 2696              		.loc 1 204 0
 2697 006a A378     		ldrb	r3, [r4, #2]	@ zero_extendqisi2
 2698 006c 022B     		cmp	r3, #2
 2699 006e DDD0     		beq	.L323
 2700              		.loc 1 205 0
 2701 0070 FFF7FEFF 		bl	mcpwm_foc_deinit
 2702              	.LVL237:
 2703              		.loc 1 206 0
 2704 0074 2146     		mov	r1, r4
 2705 0076 4FF4BA72 		mov	r2, #372
 2706 007a 1248     		ldr	r0, .L340
 2707 007c FFF7FEFF 		bl	memcpy
 2708              	.LVL238:
 2709              		.loc 1 207 0
 2710 0080 1048     		ldr	r0, .L340
ARM GAS  /tmp/ccB9RVXV.s 			page 49


 2711 0082 FFF7FEFF 		bl	mcpwm_init
 2712              	.LVL239:
 2713 0086 DDE7     		b	.L324
 2714              	.L321:
 2715              		.loc 1 185 0
 2716 0088 FFF7FEFF 		bl	encoder_init_as5047p_spi
 2717              	.LVL240:
 2718 008c 94F85C31 		ldrb	r3, [r4, #348]	@ zero_extendqisi2
 2719              		.loc 1 193 0
 2720 0090 012B     		cmp	r3, #1
 2721 0092 C8D1     		bne	.L322
 2722              	.L336:
 2723              		.loc 1 194 0
 2724 0094 D4F85801 		ldr	r0, [r4, #344]
 2725 0098 FFF7FEFF 		bl	encoder_set_counts
 2726              	.LVL241:
 2727 009c C3E7     		b	.L322
 2728              	.L320:
 2729              		.loc 1 181 0
 2730 009e D4F85801 		ldr	r0, [r4, #344]
 2731 00a2 FFF7FEFF 		bl	encoder_init_abi
 2732              	.LVL242:
 2733 00a6 94F85C31 		ldrb	r3, [r4, #348]	@ zero_extendqisi2
 2734              		.loc 1 182 0
 2735 00aa BAE7     		b	.L319
 2736              	.L338:
 2737              		.loc 1 210 0
 2738 00ac FFF7FEFF 		bl	mcpwm_deinit
 2739              	.LVL243:
 2740              		.loc 1 211 0
 2741 00b0 2146     		mov	r1, r4
 2742 00b2 4FF4BA72 		mov	r2, #372
 2743 00b6 0348     		ldr	r0, .L340
 2744 00b8 FFF7FEFF 		bl	memcpy
 2745              	.LVL244:
 2746              		.loc 1 212 0
 2747 00bc 0148     		ldr	r0, .L340
 2748 00be FFF7FEFF 		bl	mcpwm_foc_init
 2749              	.LVL245:
 2750 00c2 BFE7     		b	.L324
 2751              	.L341:
 2752              		.align	2
 2753              	.L340:
 2754 00c4 00000000 		.word	.LANCHOR12
 2755              		.cfi_endproc
 2756              	.LFE258:
 2757              		.size	mc_interface_set_configuration, .-mc_interface_set_configuration
 2758 00c8 AFF30080 		.section	.text.timer_thread,"ax",%progbits
 2758      AFF30080 
 2759              		.align	2
 2760              		.p2align 4,,15
 2761              		.thumb
 2762              		.thumb_func
 2763              		.type	timer_thread, %function
 2764              	timer_thread:
 2765              	.LFB310:
 2766              		.loc 1 1475 0
ARM GAS  /tmp/ccB9RVXV.s 			page 50


 2767              		.cfi_startproc
 2768              		@ args = 0, pretend = 0, frame = 0
 2769              		@ frame_needed = 0, uses_anonymous_args = 0
 2770              	.LVL246:
 2771              	.LBB149:
 2772              	.LBB150:
 2773              		.loc 2 135 0
 2774 0000 0E4B     		ldr	r3, .L350
 2775 0002 0F4A     		ldr	r2, .L350+4
 2776 0004 9B69     		ldr	r3, [r3, #24]
 2777              	.LBE150:
 2778              	.LBE149:
 2779              		.loc 1 1475 0
 2780 0006 2DE9F041 		push	{r4, r5, r6, r7, r8, lr}
 2781              		.cfi_def_cfa_offset 24
 2782              		.cfi_offset 4, -24
 2783              		.cfi_offset 5, -20
 2784              		.cfi_offset 6, -16
 2785              		.cfi_offset 7, -12
 2786              		.cfi_offset 8, -8
 2787              		.cfi_offset 14, -4
 2788 000a 0E4C     		ldr	r4, .L350+8
 2789 000c DFF83C80 		ldr	r8, .L350+16
 2790              		.loc 1 1485 0
 2791 0010 0D4E     		ldr	r6, .L350+12
 2792              	.LBB152:
 2793              	.LBB151:
 2794              		.loc 2 135 0
 2795 0012 9A61     		str	r2, [r3, #24]
 2796              	.LBE151:
 2797              	.LBE152:
 2798              		.loc 1 1482 0
 2799 0014 2546     		mov	r5, r4
 2800              		.loc 1 1486 0
 2801 0016 0027     		movs	r7, #0
 2802 0018 06E0     		b	.L345
 2803              	.LVL247:
 2804              	.L349:
 2805              		.loc 1 1483 0
 2806 001a 013B     		subs	r3, r3, #1
 2807 001c 2B60     		str	r3, [r5]
 2808              	.L344:
 2809              		.loc 1 1490 0
 2810 001e FFF7FEFF 		bl	update_override_limits.constprop.2
 2811              	.LVL248:
 2812              		.loc 1 1492 0
 2813 0022 0A20     		movs	r0, #10
 2814 0024 FFF7FEFF 		bl	chThdSleep
 2815              	.LVL249:
 2816              	.L345:
 2817              		.loc 1 1482 0
 2818 0028 2368     		ldr	r3, [r4]
 2819 002a 002B     		cmp	r3, #0
 2820 002c F5DC     		bgt	.L349
 2821              		.loc 1 1485 0
 2822 002e 3369     		ldr	r3, [r6, #16]
 2823 0030 DB04     		lsls	r3, r3, #19
ARM GAS  /tmp/ccB9RVXV.s 			page 51


 2824              		.loc 1 1486 0
 2825 0032 48BF     		it	mi
 2826 0034 88F80070 		strbmi	r7, [r8]
 2827 0038 F1E7     		b	.L344
 2828              	.L351:
 2829 003a 00BF     		.align	2
 2830              	.L350:
 2831 003c 00000000 		.word	ch
 2832 0040 20000000 		.word	.LC2
 2833 0044 00000000 		.word	.LANCHOR14
 2834 0048 00080240 		.word	1073874944
 2835 004c 00000000 		.word	.LANCHOR13
 2836              		.cfi_endproc
 2837              	.LFE310:
 2838              		.size	timer_thread, .-timer_thread
 2839              		.section	.text.mc_interface_get_tachometer_abs_value,"ax",%progbits
 2840              		.align	2
 2841              		.p2align 4,,15
 2842              		.global	mc_interface_get_tachometer_abs_value
 2843              		.thumb
 2844              		.thumb_func
 2845              		.type	mc_interface_get_tachometer_abs_value, %function
 2846              	mc_interface_get_tachometer_abs_value:
 2847              	.LFB293:
 2848              		.loc 1 797 0
 2849              		.cfi_startproc
 2850              		@ args = 0, pretend = 0, frame = 0
 2851              		@ frame_needed = 0, uses_anonymous_args = 0
 2852              		@ link register save eliminated.
 2853              	.LVL250:
 2854              		.loc 1 800 0
 2855 0000 064B     		ldr	r3, .L358
 2856 0002 9B78     		ldrb	r3, [r3, #2]	@ zero_extendqisi2
 2857 0004 DBB2     		uxtb	r3, r3
 2858 0006 012B     		cmp	r3, #1
 2859 0008 05D9     		bls	.L354
 2860 000a 022B     		cmp	r3, #2
 2861 000c 01D1     		bne	.L357
 2862              		.loc 1 807 0
 2863 000e FFF7FEBF 		b	mcpwm_foc_get_tachometer_abs_value
 2864              	.LVL251:
 2865              	.L357:
 2866              		.loc 1 815 0
 2867 0012 0020     		movs	r0, #0
 2868              	.LVL252:
 2869 0014 7047     		bx	lr
 2870              	.LVL253:
 2871              	.L354:
 2872              		.loc 1 803 0
 2873 0016 FFF7FEBF 		b	mcpwm_get_tachometer_abs_value
 2874              	.LVL254:
 2875              	.L359:
 2876 001a 00BF     		.align	2
 2877              	.L358:
 2878 001c 00000000 		.word	.LANCHOR12
 2879              		.cfi_endproc
 2880              	.LFE293:
ARM GAS  /tmp/ccB9RVXV.s 			page 52


 2881              		.size	mc_interface_get_tachometer_abs_value, .-mc_interface_get_tachometer_abs_value
 2882              		.section	.text.mc_interface_get_last_inj_adc_isr_duration,"ax",%progbits
 2883              		.align	2
 2884              		.p2align 4,,15
 2885              		.global	mc_interface_get_last_inj_adc_isr_duration
 2886              		.thumb
 2887              		.thumb_func
 2888              		.type	mc_interface_get_last_inj_adc_isr_duration, %function
 2889              	mc_interface_get_last_inj_adc_isr_duration:
 2890              	.LFB294:
 2891              		.loc 1 817 0
 2892              		.cfi_startproc
 2893              		@ args = 0, pretend = 0, frame = 0
 2894              		@ frame_needed = 0, uses_anonymous_args = 0
 2895              		@ link register save eliminated.
 2896              	.LVL255:
 2897              		.loc 1 820 0
 2898 0000 064B     		ldr	r3, .L366
 2899 0002 9B78     		ldrb	r3, [r3, #2]	@ zero_extendqisi2
 2900 0004 DBB2     		uxtb	r3, r3
 2901 0006 012B     		cmp	r3, #1
 2902 0008 06D9     		bls	.L362
 2903 000a 022B     		cmp	r3, #2
 2904 000c 01D1     		bne	.L365
 2905              		.loc 1 827 0
 2906 000e FFF7FEBF 		b	mcpwm_foc_get_last_inj_adc_isr_duration
 2907              	.LVL256:
 2908              	.L365:
 2909              		.loc 1 835 0
 2910 0012 9FED030A 		flds	s0, .L366+4
 2911 0016 7047     		bx	lr
 2912              	.L362:
 2913              		.loc 1 823 0
 2914 0018 FFF7FEBF 		b	mcpwm_get_last_inj_adc_isr_duration
 2915              	.LVL257:
 2916              	.L367:
 2917              		.align	2
 2918              	.L366:
 2919 001c 00000000 		.word	.LANCHOR12
 2920 0020 00000000 		.word	0
 2921              		.cfi_endproc
 2922              	.LFE294:
 2923              		.size	mc_interface_get_last_inj_adc_isr_duration, .-mc_interface_get_last_inj_adc_isr_duration
 2924 0024 AFF30080 		.section	.text.mc_interface_read_reset_avg_motor_current,"ax",%progbits
 2924      AFF30080 
 2924      AFF30080 
 2925              		.align	2
 2926              		.p2align 4,,15
 2927              		.global	mc_interface_read_reset_avg_motor_current
 2928              		.thumb
 2929              		.thumb_func
 2930              		.type	mc_interface_read_reset_avg_motor_current, %function
 2931              	mc_interface_read_reset_avg_motor_current:
 2932              	.LFB295:
 2933              		.loc 1 837 0
 2934              		.cfi_startproc
 2935              		@ args = 0, pretend = 0, frame = 0
ARM GAS  /tmp/ccB9RVXV.s 			page 53


 2936              		@ frame_needed = 0, uses_anonymous_args = 0
 2937              		@ link register save eliminated.
 2938              		.loc 1 838 0
 2939 0000 054A     		ldr	r2, .L369
 2940 0002 064B     		ldr	r3, .L369+4
 2941 0004 92ED000A 		flds	s0, [r2]
 2942 0008 D3ED007A 		flds	s15, [r3]
 2943              	.LVL258:
 2944              		.loc 1 839 0
 2945 000c 0021     		movs	r1, #0
 2946 000e 1160     		str	r1, [r2]	@ float
 2947              		.loc 1 842 0
 2948 0010 80EE270A 		fdivs	s0, s0, s15
 2949              	.LVL259:
 2950              		.loc 1 840 0
 2951 0014 1960     		str	r1, [r3]	@ float
 2952              		.loc 1 842 0
 2953 0016 7047     		bx	lr
 2954              	.L370:
 2955              		.align	2
 2956              	.L369:
 2957 0018 00000000 		.word	.LANCHOR18
 2958 001c 00000000 		.word	.LANCHOR20
 2959              		.cfi_endproc
 2960              	.LFE295:
 2961              		.size	mc_interface_read_reset_avg_motor_current, .-mc_interface_read_reset_avg_motor_current
 2962              		.section	.text.mc_interface_read_reset_avg_input_current,"ax",%progbits
 2963              		.align	2
 2964              		.p2align 4,,15
 2965              		.global	mc_interface_read_reset_avg_input_current
 2966              		.thumb
 2967              		.thumb_func
 2968              		.type	mc_interface_read_reset_avg_input_current, %function
 2969              	mc_interface_read_reset_avg_input_current:
 2970              	.LFB296:
 2971              		.loc 1 844 0
 2972              		.cfi_startproc
 2973              		@ args = 0, pretend = 0, frame = 0
 2974              		@ frame_needed = 0, uses_anonymous_args = 0
 2975              		@ link register save eliminated.
 2976              		.loc 1 845 0
 2977 0000 054A     		ldr	r2, .L372
 2978 0002 064B     		ldr	r3, .L372+4
 2979 0004 92ED000A 		flds	s0, [r2]
 2980 0008 D3ED007A 		flds	s15, [r3]
 2981              	.LVL260:
 2982              		.loc 1 846 0
 2983 000c 0021     		movs	r1, #0
 2984 000e 1160     		str	r1, [r2]	@ float
 2985              		.loc 1 849 0
 2986 0010 80EE270A 		fdivs	s0, s0, s15
 2987              	.LVL261:
 2988              		.loc 1 847 0
 2989 0014 1960     		str	r1, [r3]	@ float
 2990              		.loc 1 849 0
 2991 0016 7047     		bx	lr
 2992              	.L373:
ARM GAS  /tmp/ccB9RVXV.s 			page 54


 2993              		.align	2
 2994              	.L372:
 2995 0018 00000000 		.word	.LANCHOR19
 2996 001c 00000000 		.word	.LANCHOR21
 2997              		.cfi_endproc
 2998              	.LFE296:
 2999              		.size	mc_interface_read_reset_avg_input_current, .-mc_interface_read_reset_avg_input_current
 3000              		.section	.text.mc_interface_read_reset_avg_id,"ax",%progbits
 3001              		.align	2
 3002              		.p2align 4,,15
 3003              		.global	mc_interface_read_reset_avg_id
 3004              		.thumb
 3005              		.thumb_func
 3006              		.type	mc_interface_read_reset_avg_id, %function
 3007              	mc_interface_read_reset_avg_id:
 3008              	.LFB297:
 3009              		.loc 1 857 0
 3010              		.cfi_startproc
 3011              		@ args = 0, pretend = 0, frame = 0
 3012              		@ frame_needed = 0, uses_anonymous_args = 0
 3013              		@ link register save eliminated.
 3014              		.loc 1 858 0
 3015 0000 0C4A     		ldr	r2, .L377
 3016 0002 0D4B     		ldr	r3, .L377+4
 3017 0004 92ED007A 		flds	s14, [r2]
 3018 0008 D3ED007A 		flds	s15, [r3]
 3019              		.loc 1 861 0
 3020 000c 0B48     		ldr	r0, .L377+8
 3021              		.loc 1 858 0
 3022 000e C7EE277A 		fdivs	s15, s14, s15
 3023              	.LVL262:
 3024              		.loc 1 859 0
 3025 0012 0021     		movs	r1, #0
 3026 0014 1160     		str	r1, [r2]	@ float
 3027              		.loc 1 860 0
 3028 0016 1960     		str	r1, [r3]	@ float
 3029              		.loc 1 861 0
 3030 0018 90F85D31 		ldrb	r3, [r0, #349]	@ zero_extendqisi2
 3031 001c 002B     		cmp	r3, #0
 3032 001e BFEE007A 		fconsts	s14, #240
 3033 0022 B7EE000A 		fconsts	s0, #112
 3034 0026 18BF     		it	ne
 3035 0028 B0EE470A 		fcpysne	s0, s14
 3036              		.loc 1 862 0
 3037 002c 20EE270A 		fmuls	s0, s0, s15
 3038 0030 7047     		bx	lr
 3039              	.L378:
 3040 0032 00BF     		.align	2
 3041              	.L377:
 3042 0034 00000000 		.word	.LANCHOR22
 3043 0038 00000000 		.word	.LANCHOR24
 3044 003c 00000000 		.word	.LANCHOR12
 3045              		.cfi_endproc
 3046              	.LFE297:
 3047              		.size	mc_interface_read_reset_avg_id, .-mc_interface_read_reset_avg_id
 3048              		.section	.text.mc_interface_read_reset_avg_iq,"ax",%progbits
 3049              		.align	2
ARM GAS  /tmp/ccB9RVXV.s 			page 55


 3050              		.p2align 4,,15
 3051              		.global	mc_interface_read_reset_avg_iq
 3052              		.thumb
 3053              		.thumb_func
 3054              		.type	mc_interface_read_reset_avg_iq, %function
 3055              	mc_interface_read_reset_avg_iq:
 3056              	.LFB298:
 3057              		.loc 1 870 0
 3058              		.cfi_startproc
 3059              		@ args = 0, pretend = 0, frame = 0
 3060              		@ frame_needed = 0, uses_anonymous_args = 0
 3061              		@ link register save eliminated.
 3062              		.loc 1 871 0
 3063 0000 0C4A     		ldr	r2, .L382
 3064 0002 0D4B     		ldr	r3, .L382+4
 3065 0004 92ED007A 		flds	s14, [r2]
 3066 0008 D3ED007A 		flds	s15, [r3]
 3067              		.loc 1 874 0
 3068 000c 0B48     		ldr	r0, .L382+8
 3069              		.loc 1 871 0
 3070 000e C7EE277A 		fdivs	s15, s14, s15
 3071              	.LVL263:
 3072              		.loc 1 872 0
 3073 0012 0021     		movs	r1, #0
 3074 0014 1160     		str	r1, [r2]	@ float
 3075              		.loc 1 873 0
 3076 0016 1960     		str	r1, [r3]	@ float
 3077              		.loc 1 874 0
 3078 0018 90F85D31 		ldrb	r3, [r0, #349]	@ zero_extendqisi2
 3079 001c 002B     		cmp	r3, #0
 3080 001e BFEE007A 		fconsts	s14, #240
 3081 0022 B7EE000A 		fconsts	s0, #112
 3082 0026 18BF     		it	ne
 3083 0028 B0EE470A 		fcpysne	s0, s14
 3084              		.loc 1 875 0
 3085 002c 20EE270A 		fmuls	s0, s0, s15
 3086 0030 7047     		bx	lr
 3087              	.L383:
 3088 0032 00BF     		.align	2
 3089              	.L382:
 3090 0034 00000000 		.word	.LANCHOR23
 3091 0038 00000000 		.word	.LANCHOR25
 3092 003c 00000000 		.word	.LANCHOR12
 3093              		.cfi_endproc
 3094              	.LFE298:
 3095              		.size	mc_interface_read_reset_avg_iq, .-mc_interface_read_reset_avg_iq
 3096              		.section	.text.mc_interface_get_pid_pos_set,"ax",%progbits
 3097              		.align	2
 3098              		.p2align 4,,15
 3099              		.global	mc_interface_get_pid_pos_set
 3100              		.thumb
 3101              		.thumb_func
 3102              		.type	mc_interface_get_pid_pos_set, %function
 3103              	mc_interface_get_pid_pos_set:
 3104              	.LFB299:
 3105              		.loc 1 877 0
 3106              		.cfi_startproc
ARM GAS  /tmp/ccB9RVXV.s 			page 56


 3107              		@ args = 0, pretend = 0, frame = 0
 3108              		@ frame_needed = 0, uses_anonymous_args = 0
 3109              		@ link register save eliminated.
 3110              		.loc 1 878 0
 3111 0000 014B     		ldr	r3, .L385
 3112 0002 93ED000A 		flds	s0, [r3]
 3113              		.loc 1 879 0
 3114 0006 7047     		bx	lr
 3115              	.L386:
 3116              		.align	2
 3117              	.L385:
 3118 0008 00000000 		.word	.LANCHOR30
 3119              		.cfi_endproc
 3120              	.LFE299:
 3121              		.size	mc_interface_get_pid_pos_set, .-mc_interface_get_pid_pos_set
 3122 000c AFF30080 		.section	.text.mc_interface_get_pid_pos_now,"ax",%progbits
 3123              		.align	2
 3124              		.p2align 4,,15
 3125              		.global	mc_interface_get_pid_pos_now
 3126              		.thumb
 3127              		.thumb_func
 3128              		.type	mc_interface_get_pid_pos_now, %function
 3129              	mc_interface_get_pid_pos_now:
 3130              	.LFB300:
 3131              		.loc 1 881 0
 3132              		.cfi_startproc
 3133              		@ args = 0, pretend = 0, frame = 0
 3134              		@ frame_needed = 0, uses_anonymous_args = 0
 3135              	.LVL264:
 3136 0000 10B5     		push	{r4, lr}
 3137              		.cfi_def_cfa_offset 8
 3138              		.cfi_offset 4, -8
 3139              		.cfi_offset 14, -4
 3140              		.loc 1 884 0
 3141 0002 0E4C     		ldr	r4, .L395
 3142 0004 A378     		ldrb	r3, [r4, #2]	@ zero_extendqisi2
 3143 0006 DBB2     		uxtb	r3, r3
 3144 0008 012B     		cmp	r3, #1
 3145 000a 13D9     		bls	.L389
 3146 000c 022B     		cmp	r3, #2
 3147 000e 0ED0     		beq	.L390
 3148              		.loc 1 882 0
 3149 0010 9FED0B0A 		flds	s0, .L395+4
 3150              	.LVL265:
 3151              	.L388:
 3152              		.loc 1 898 0
 3153 0014 94F85D31 		ldrb	r3, [r4, #349]	@ zero_extendqisi2
 3154 0018 B7EE007A 		fconsts	s14, #112
 3155 001c 002B     		cmp	r3, #0
 3156 001e FFEE007A 		fconsts	s15, #240
 3157 0022 08BF     		it	eq
 3158 0024 F0EE477A 		fcpyseq	s15, s14
 3159              		.loc 1 899 0
 3160 0028 27EE800A 		fmuls	s0, s15, s0
 3161              	.LVL266:
 3162 002c 10BD     		pop	{r4, pc}
 3163              	.LVL267:
ARM GAS  /tmp/ccB9RVXV.s 			page 57


 3164              	.L390:
 3165              		.loc 1 891 0
 3166 002e FFF7FEFF 		bl	mcpwm_foc_get_pid_pos_now
 3167              	.LVL268:
 3168              		.loc 1 892 0
 3169 0032 EFE7     		b	.L388
 3170              	.LVL269:
 3171              	.L389:
 3172              		.loc 1 887 0
 3173 0034 FFF7FEFF 		bl	encoder_read_deg
 3174              	.LVL270:
 3175              		.loc 1 888 0
 3176 0038 ECE7     		b	.L388
 3177              	.L396:
 3178 003a 00BF     		.align	2
 3179              	.L395:
 3180 003c 00000000 		.word	.LANCHOR12
 3181 0040 00000000 		.word	0
 3182              		.cfi_endproc
 3183              	.LFE300:
 3184              		.size	mc_interface_get_pid_pos_now, .-mc_interface_get_pid_pos_now
 3185 0044 AFF30080 		.section	.text.mc_interface_get_last_sample_adc_isr_duration,"ax",%progbits
 3185      AFF30080 
 3185      AFF30080 
 3186              		.align	2
 3187              		.p2align 4,,15
 3188              		.global	mc_interface_get_last_sample_adc_isr_duration
 3189              		.thumb
 3190              		.thumb_func
 3191              		.type	mc_interface_get_last_sample_adc_isr_duration, %function
 3192              	mc_interface_get_last_sample_adc_isr_duration:
 3193              	.LFB301:
 3194              		.loc 1 901 0
 3195              		.cfi_startproc
 3196              		@ args = 0, pretend = 0, frame = 0
 3197              		@ frame_needed = 0, uses_anonymous_args = 0
 3198              		@ link register save eliminated.
 3199              		.loc 1 902 0
 3200 0000 014B     		ldr	r3, .L398
 3201 0002 93ED000A 		flds	s0, [r3]
 3202              		.loc 1 903 0
 3203 0006 7047     		bx	lr
 3204              	.L399:
 3205              		.align	2
 3206              	.L398:
 3207 0008 00000000 		.word	.LANCHOR31
 3208              		.cfi_endproc
 3209              	.LFE301:
 3210              		.size	mc_interface_get_last_sample_adc_isr_duration, .-mc_interface_get_last_sample_adc_isr_durati
 3211 000c AFF30080 		.section	.text.mc_interface_sample_print_data,"ax",%progbits
 3212              		.align	2
 3213              		.p2align 4,,15
 3214              		.global	mc_interface_sample_print_data
 3215              		.thumb
 3216              		.thumb_func
 3217              		.type	mc_interface_sample_print_data, %function
 3218              	mc_interface_sample_print_data:
ARM GAS  /tmp/ccB9RVXV.s 			page 58


 3219              	.LFB302:
 3220              		.loc 1 905 0
 3221              		.cfi_startproc
 3222              		@ args = 0, pretend = 0, frame = 0
 3223              		@ frame_needed = 0, uses_anonymous_args = 0
 3224              		@ link register save eliminated.
 3225              	.LVL271:
 3226 0000 B1F5FA6F 		cmp	r1, #2000
 3227 0004 28BF     		it	cs
 3228 0006 4FF4FA61 		movcs	r1, #2000
 3229              	.LVL272:
 3230              		.loc 1 910 0
 3231 000a 0728     		cmp	r0, #7
 3232              		.loc 1 905 0
 3233 000c 2DE9F001 		push	{r4, r5, r6, r7, r8}
 3234              		.cfi_def_cfa_offset 20
 3235              		.cfi_offset 4, -20
 3236              		.cfi_offset 5, -16
 3237              		.cfi_offset 6, -12
 3238              		.cfi_offset 7, -8
 3239              		.cfi_offset 8, -4
 3240              		.loc 1 910 0
 3241 0010 11D0     		beq	.L402
 3242              		.loc 1 914 0
 3243 0012 0C4E     		ldr	r6, .L403
 3244              		.loc 1 915 0
 3245 0014 0C4D     		ldr	r5, .L403+4
 3246              		.loc 1 916 0
 3247 0016 0D4C     		ldr	r4, .L403+8
 3248              		.loc 1 913 0
 3249 0018 DFF83CC0 		ldr	ip, .L403+20
 3250              		.loc 1 917 0
 3251 001c 0C4B     		ldr	r3, .L403+12
 3252              		.loc 1 913 0
 3253 001e 4FF0FF38 		mov	r8, #-1
 3254              		.loc 1 914 0
 3255 0022 0027     		movs	r7, #0
 3256              		.loc 1 913 0
 3257 0024 CCF80080 		str	r8, [ip]
 3258              		.loc 1 914 0
 3259 0028 3760     		str	r7, [r6]
 3260              		.loc 1 915 0
 3261 002a 2960     		str	r1, [r5]
 3262              		.loc 1 916 0
 3263 002c 2260     		str	r2, [r4]
 3264              		.loc 1 917 0
 3265 002e 1870     		strb	r0, [r3]
 3266              		.loc 1 919 0
 3267 0030 BDE8F001 		pop	{r4, r5, r6, r7, r8}
 3268 0034 7047     		bx	lr
 3269              	.L402:
 3270              		.loc 1 911 0
 3271 0036 074B     		ldr	r3, .L403+16
 3272 0038 0121     		movs	r1, #1
 3273              	.LVL273:
 3274 003a 1868     		ldr	r0, [r3]
 3275              	.LVL274:
ARM GAS  /tmp/ccB9RVXV.s 			page 59


 3276              		.loc 1 919 0
 3277 003c BDE8F001 		pop	{r4, r5, r6, r7, r8}
 3278              		.loc 1 911 0
 3279 0040 FFF7FEBF 		b	chEvtSignal
 3280              	.LVL275:
 3281              	.L404:
 3282              		.align	2
 3283              	.L403:
 3284 0044 00000000 		.word	.LANCHOR35
 3285 0048 00000000 		.word	.LANCHOR2
 3286 004c 00000000 		.word	.LANCHOR34
 3287 0050 00000000 		.word	.LANCHOR36
 3288 0054 00000000 		.word	.LANCHOR0
 3289 0058 00000000 		.word	.LANCHOR3
 3290              		.cfi_endproc
 3291              	.LFE302:
 3292              		.size	mc_interface_sample_print_data, .-mc_interface_sample_print_data
 3293 005c AFF30080 		.section	.text.mc_interface_temp_fet_filtered,"ax",%progbits
 3294              		.align	2
 3295              		.p2align 4,,15
 3296              		.global	mc_interface_temp_fet_filtered
 3297              		.thumb
 3298              		.thumb_func
 3299              		.type	mc_interface_temp_fet_filtered, %function
 3300              	mc_interface_temp_fet_filtered:
 3301              	.LFB303:
 3302              		.loc 1 928 0
 3303              		.cfi_startproc
 3304              		@ args = 0, pretend = 0, frame = 0
 3305              		@ frame_needed = 0, uses_anonymous_args = 0
 3306              		@ link register save eliminated.
 3307              		.loc 1 929 0
 3308 0000 014B     		ldr	r3, .L406
 3309 0002 93ED000A 		flds	s0, [r3]
 3310              		.loc 1 930 0
 3311 0006 7047     		bx	lr
 3312              	.L407:
 3313              		.align	2
 3314              	.L406:
 3315 0008 00000000 		.word	.LANCHOR32
 3316              		.cfi_endproc
 3317              	.LFE303:
 3318              		.size	mc_interface_temp_fet_filtered, .-mc_interface_temp_fet_filtered
 3319 000c AFF30080 		.section	.text.mc_interface_temp_motor_filtered,"ax",%progbits
 3320              		.align	2
 3321              		.p2align 4,,15
 3322              		.global	mc_interface_temp_motor_filtered
 3323              		.thumb
 3324              		.thumb_func
 3325              		.type	mc_interface_temp_motor_filtered, %function
 3326              	mc_interface_temp_motor_filtered:
 3327              	.LFB304:
 3328              		.loc 1 939 0
 3329              		.cfi_startproc
 3330              		@ args = 0, pretend = 0, frame = 0
 3331              		@ frame_needed = 0, uses_anonymous_args = 0
 3332              		@ link register save eliminated.
ARM GAS  /tmp/ccB9RVXV.s 			page 60


 3333              		.loc 1 940 0
 3334 0000 014B     		ldr	r3, .L409
 3335 0002 93ED000A 		flds	s0, [r3]
 3336              		.loc 1 941 0
 3337 0006 7047     		bx	lr
 3338              	.L410:
 3339              		.align	2
 3340              	.L409:
 3341 0008 00000000 		.word	.LANCHOR33
 3342              		.cfi_endproc
 3343              	.LFE304:
 3344              		.size	mc_interface_temp_motor_filtered, .-mc_interface_temp_motor_filtered
 3345 000c AFF30080 		.section	.text.mc_interface_try_input,"ax",%progbits
 3346              		.align	2
 3347              		.p2align 4,,15
 3348              		.global	mc_interface_try_input
 3349              		.thumb
 3350              		.thumb_func
 3351              		.type	mc_interface_try_input, %function
 3352              	mc_interface_try_input:
 3353              	.LFB305:
 3354              		.loc 1 953 0
 3355              		.cfi_startproc
 3356              		@ args = 0, pretend = 0, frame = 0
 3357              		@ frame_needed = 0, uses_anonymous_args = 0
 3358 0000 10B5     		push	{r4, lr}
 3359              		.cfi_def_cfa_offset 8
 3360              		.cfi_offset 4, -8
 3361              		.cfi_offset 14, -4
 3362              		.loc 1 955 0
 3363 0002 FFF7FEFF 		bl	mc_interface_get_state
 3364              	.LVL276:
 3365 0006 0128     		cmp	r0, #1
 3366 0008 24D0     		beq	.L426
 3367              		.loc 1 960 0
 3368 000a 164B     		ldr	r3, .L430
 3369 000c 1C68     		ldr	r4, [r3]
 3370              	.LVL277:
 3371              		.loc 1 962 0
 3372 000e 14B9     		cbnz	r4, .L413
 3373              		.loc 1 962 0 is_stmt 0 discriminator 1
 3374 0010 154B     		ldr	r3, .L430+4
 3375 0012 1B78     		ldrb	r3, [r3]	@ zero_extendqisi2
 3376 0014 63B9     		cbnz	r3, .L427
 3377              	.LVL278:
 3378              	.L413:
 3379              		.loc 1 970 0 is_stmt 1
 3380 0016 154B     		ldr	r3, .L430+8
 3381 0018 9B78     		ldrb	r3, [r3, #2]	@ zero_extendqisi2
 3382 001a DBB2     		uxtb	r3, r3
 3383 001c 012B     		cmp	r3, #1
 3384 001e 11D9     		bls	.L415
 3385              	.L429:
 3386 0020 022B     		cmp	r3, #2
 3387 0022 03D1     		bne	.L414
 3388              		.loc 1 979 0
 3389 0024 FFF7FEFF 		bl	mcpwm_foc_init_done
ARM GAS  /tmp/ccB9RVXV.s 			page 61


 3390              	.LVL279:
 3391 0028 00B9     		cbnz	r0, .L414
 3392              	.L417:
 3393              	.LVL280:
 3394              		.loc 1 974 0
 3395 002a 0124     		movs	r4, #1
 3396              	.LVL281:
 3397              	.L414:
 3398              		.loc 1 989 0
 3399 002c 2046     		mov	r0, r4
 3400 002e 10BD     		pop	{r4, pc}
 3401              	.LVL282:
 3402              	.L427:
 3403              		.loc 1 963 0
 3404 0030 0F4B     		ldr	r3, .L430+12
 3405 0032 1A78     		ldrb	r2, [r3]	@ zero_extendqisi2
 3406 0034 62B9     		cbnz	r2, .L428
 3407              		.loc 1 970 0
 3408 0036 0D4B     		ldr	r3, .L430+8
 3409 0038 9B78     		ldrb	r3, [r3, #2]	@ zero_extendqisi2
 3410 003a DBB2     		uxtb	r3, r3
 3411 003c 012B     		cmp	r3, #1
 3412              		.loc 1 964 0
 3413 003e 4FF00104 		mov	r4, #1
 3414              	.LVL283:
 3415              		.loc 1 970 0
 3416 0042 EDD8     		bhi	.L429
 3417              	.L415:
 3418              		.loc 1 973 0
 3419 0044 FFF7FEFF 		bl	mcpwm_init_done
 3420              	.LVL284:
 3421 0048 0028     		cmp	r0, #0
 3422 004a EED0     		beq	.L417
 3423              		.loc 1 989 0
 3424 004c 2046     		mov	r0, r4
 3425 004e 10BD     		pop	{r4, pc}
 3426              	.LVL285:
 3427              	.L428:
 3428              		.loc 1 966 0
 3429 0050 1C70     		strb	r4, [r3]
 3430 0052 E0E7     		b	.L413
 3431              	.LVL286:
 3432              	.L426:
 3433              		.loc 1 956 0
 3434 0054 FFF7FEFF 		bl	mcpwm_stop_pwm
 3435              	.LVL287:
 3436              		.loc 1 957 0
 3437 0058 024B     		ldr	r3, .L430
 3438 005a 4FF4FA74 		mov	r4, #500
 3439 005e 1C60     		str	r4, [r3]
 3440              	.LVL288:
 3441 0060 D9E7     		b	.L413
 3442              	.L431:
 3443 0062 00BF     		.align	2
 3444              	.L430:
 3445 0064 00000000 		.word	.LANCHOR14
 3446 0068 00000000 		.word	.LANCHOR16
ARM GAS  /tmp/ccB9RVXV.s 			page 62


 3447 006c 00000000 		.word	.LANCHOR12
 3448 0070 00000000 		.word	.LANCHOR17
 3449              		.cfi_endproc
 3450              	.LFE305:
 3451              		.size	mc_interface_try_input, .-mc_interface_try_input
 3452 0074 AFF30080 		.section	.text.mc_interface_set_duty,"ax",%progbits
 3452      AFF30080 
 3452      AFF30080 
 3453              		.align	2
 3454              		.p2align 4,,15
 3455              		.global	mc_interface_set_duty
 3456              		.thumb
 3457              		.thumb_func
 3458              		.type	mc_interface_set_duty, %function
 3459              	mc_interface_set_duty:
 3460              	.LFB267:
 3461              		.loc 1 320 0
 3462              		.cfi_startproc
 3463              		@ args = 0, pretend = 0, frame = 0
 3464              		@ frame_needed = 0, uses_anonymous_args = 0
 3465              	.LVL289:
 3466 0000 08B5     		push	{r3, lr}
 3467              		.cfi_def_cfa_offset 8
 3468              		.cfi_offset 3, -8
 3469              		.cfi_offset 14, -4
 3470 0002 2DED028B 		fstmfdd	sp!, {d8}
 3471              		.cfi_def_cfa_offset 16
 3472              		.cfi_offset 80, -16
 3473              		.loc 1 320 0
 3474 0006 B0EE408A 		fcpys	s16, s0
 3475              		.loc 1 321 0
 3476 000a FFF7FEFF 		bl	mc_interface_try_input
 3477              	.LVL290:
 3478 000e C0B9     		cbnz	r0, .L432
 3479              		.loc 1 325 0
 3480 0010 164B     		ldr	r3, .L440
 3481 0012 9A78     		ldrb	r2, [r3, #2]	@ zero_extendqisi2
 3482 0014 D2B2     		uxtb	r2, r2
 3483 0016 012A     		cmp	r2, #1
 3484 0018 16D9     		bls	.L434
 3485 001a 022A     		cmp	r2, #2
 3486 001c 11D1     		bne	.L432
 3487              		.loc 1 332 0
 3488 001e 93F85D31 		ldrb	r3, [r3, #349]	@ zero_extendqisi2
 3489 0022 B7EE000A 		fconsts	s0, #112
 3490 0026 002B     		cmp	r3, #0
 3491 0028 FFEE007A 		fconsts	s15, #240
 3492 002c 18BF     		it	ne
 3493 002e B0EE670A 		fcpysne	s0, s15
 3494 0032 20EE080A 		fmuls	s0, s0, s16
 3495              		.loc 1 338 0
 3496 0036 BDEC028B 		fldmfdd	sp!, {d8}
 3497              	.LVL291:
 3498 003a BDE80840 		pop	{r3, lr}
 3499              		.loc 1 332 0
 3500 003e FFF7FEBF 		b	mcpwm_foc_set_duty
 3501              	.LVL292:
ARM GAS  /tmp/ccB9RVXV.s 			page 63


 3502              	.L432:
 3503              		.loc 1 338 0
 3504 0042 BDEC028B 		fldmfdd	sp!, {d8}
 3505              	.LVL293:
 3506 0046 08BD     		pop	{r3, pc}
 3507              	.LVL294:
 3508              	.L434:
 3509              		.loc 1 328 0
 3510 0048 93F85D31 		ldrb	r3, [r3, #349]	@ zero_extendqisi2
 3511 004c B7EE000A 		fconsts	s0, #112
 3512 0050 002B     		cmp	r3, #0
 3513 0052 FFEE007A 		fconsts	s15, #240
 3514 0056 18BF     		it	ne
 3515 0058 B0EE670A 		fcpysne	s0, s15
 3516 005c 20EE080A 		fmuls	s0, s0, s16
 3517              		.loc 1 338 0
 3518 0060 BDEC028B 		fldmfdd	sp!, {d8}
 3519              	.LVL295:
 3520 0064 BDE80840 		pop	{r3, lr}
 3521              		.loc 1 328 0
 3522 0068 FFF7FEBF 		b	mcpwm_set_duty
 3523              	.LVL296:
 3524              	.L441:
 3525              		.align	2
 3526              	.L440:
 3527 006c 00000000 		.word	.LANCHOR12
 3528              		.cfi_endproc
 3529              	.LFE267:
 3530              		.size	mc_interface_set_duty, .-mc_interface_set_duty
 3531              		.section	.text.mc_interface_brake_now,"ax",%progbits
 3532              		.align	2
 3533              		.p2align 4,,15
 3534              		.global	mc_interface_brake_now
 3535              		.thumb
 3536              		.thumb_func
 3537              		.type	mc_interface_brake_now, %function
 3538              	mc_interface_brake_now:
 3539              	.LFB276:
 3540              		.loc 1 487 0
 3541              		.cfi_startproc
 3542              		@ args = 0, pretend = 0, frame = 0
 3543              		@ frame_needed = 0, uses_anonymous_args = 0
 3544              		@ link register save eliminated.
 3545              		.loc 1 488 0
 3546 0000 9FED010A 		flds	s0, .L443
 3547 0004 FFF7FEBF 		b	mc_interface_set_duty
 3548              	.LVL297:
 3549              	.L444:
 3550              		.align	2
 3551              	.L443:
 3552 0008 00000000 		.word	0
 3553              		.cfi_endproc
 3554              	.LFE276:
 3555              		.size	mc_interface_brake_now, .-mc_interface_brake_now
 3556 000c AFF30080 		.section	.text.mc_interface_set_duty_noramp,"ax",%progbits
 3557              		.align	2
 3558              		.p2align 4,,15
ARM GAS  /tmp/ccB9RVXV.s 			page 64


 3559              		.global	mc_interface_set_duty_noramp
 3560              		.thumb
 3561              		.thumb_func
 3562              		.type	mc_interface_set_duty_noramp, %function
 3563              	mc_interface_set_duty_noramp:
 3564              	.LFB268:
 3565              		.loc 1 340 0
 3566              		.cfi_startproc
 3567              		@ args = 0, pretend = 0, frame = 0
 3568              		@ frame_needed = 0, uses_anonymous_args = 0
 3569              	.LVL298:
 3570 0000 08B5     		push	{r3, lr}
 3571              		.cfi_def_cfa_offset 8
 3572              		.cfi_offset 3, -8
 3573              		.cfi_offset 14, -4
 3574 0002 2DED028B 		fstmfdd	sp!, {d8}
 3575              		.cfi_def_cfa_offset 16
 3576              		.cfi_offset 80, -16
 3577              		.loc 1 340 0
 3578 0006 B0EE408A 		fcpys	s16, s0
 3579              		.loc 1 341 0
 3580 000a FFF7FEFF 		bl	mc_interface_try_input
 3581              	.LVL299:
 3582 000e C0B9     		cbnz	r0, .L445
 3583              		.loc 1 345 0
 3584 0010 164B     		ldr	r3, .L453
 3585 0012 9A78     		ldrb	r2, [r3, #2]	@ zero_extendqisi2
 3586 0014 D2B2     		uxtb	r2, r2
 3587 0016 012A     		cmp	r2, #1
 3588 0018 16D9     		bls	.L447
 3589 001a 022A     		cmp	r2, #2
 3590 001c 11D1     		bne	.L445
 3591              		.loc 1 352 0
 3592 001e 93F85D31 		ldrb	r3, [r3, #349]	@ zero_extendqisi2
 3593 0022 B7EE000A 		fconsts	s0, #112
 3594 0026 002B     		cmp	r3, #0
 3595 0028 FFEE007A 		fconsts	s15, #240
 3596 002c 18BF     		it	ne
 3597 002e B0EE670A 		fcpysne	s0, s15
 3598 0032 20EE080A 		fmuls	s0, s0, s16
 3599              		.loc 1 358 0
 3600 0036 BDEC028B 		fldmfdd	sp!, {d8}
 3601              	.LVL300:
 3602 003a BDE80840 		pop	{r3, lr}
 3603              		.loc 1 352 0
 3604 003e FFF7FEBF 		b	mcpwm_foc_set_duty_noramp
 3605              	.LVL301:
 3606              	.L445:
 3607              		.loc 1 358 0
 3608 0042 BDEC028B 		fldmfdd	sp!, {d8}
 3609              	.LVL302:
 3610 0046 08BD     		pop	{r3, pc}
 3611              	.LVL303:
 3612              	.L447:
 3613              		.loc 1 348 0
 3614 0048 93F85D31 		ldrb	r3, [r3, #349]	@ zero_extendqisi2
 3615 004c B7EE000A 		fconsts	s0, #112
ARM GAS  /tmp/ccB9RVXV.s 			page 65


 3616 0050 002B     		cmp	r3, #0
 3617 0052 FFEE007A 		fconsts	s15, #240
 3618 0056 18BF     		it	ne
 3619 0058 B0EE670A 		fcpysne	s0, s15
 3620 005c 20EE080A 		fmuls	s0, s0, s16
 3621              		.loc 1 358 0
 3622 0060 BDEC028B 		fldmfdd	sp!, {d8}
 3623              	.LVL304:
 3624 0064 BDE80840 		pop	{r3, lr}
 3625              		.loc 1 348 0
 3626 0068 FFF7FEBF 		b	mcpwm_set_duty_noramp
 3627              	.LVL305:
 3628              	.L454:
 3629              		.align	2
 3630              	.L453:
 3631 006c 00000000 		.word	.LANCHOR12
 3632              		.cfi_endproc
 3633              	.LFE268:
 3634              		.size	mc_interface_set_duty_noramp, .-mc_interface_set_duty_noramp
 3635              		.section	.text.mc_interface_set_pid_speed,"ax",%progbits
 3636              		.align	2
 3637              		.p2align 4,,15
 3638              		.global	mc_interface_set_pid_speed
 3639              		.thumb
 3640              		.thumb_func
 3641              		.type	mc_interface_set_pid_speed, %function
 3642              	mc_interface_set_pid_speed:
 3643              	.LFB269:
 3644              		.loc 1 360 0
 3645              		.cfi_startproc
 3646              		@ args = 0, pretend = 0, frame = 0
 3647              		@ frame_needed = 0, uses_anonymous_args = 0
 3648              	.LVL306:
 3649 0000 08B5     		push	{r3, lr}
 3650              		.cfi_def_cfa_offset 8
 3651              		.cfi_offset 3, -8
 3652              		.cfi_offset 14, -4
 3653 0002 2DED028B 		fstmfdd	sp!, {d8}
 3654              		.cfi_def_cfa_offset 16
 3655              		.cfi_offset 80, -16
 3656              		.loc 1 360 0
 3657 0006 B0EE408A 		fcpys	s16, s0
 3658              		.loc 1 361 0
 3659 000a FFF7FEFF 		bl	mc_interface_try_input
 3660              	.LVL307:
 3661 000e C0B9     		cbnz	r0, .L455
 3662              		.loc 1 365 0
 3663 0010 164B     		ldr	r3, .L463
 3664 0012 9A78     		ldrb	r2, [r3, #2]	@ zero_extendqisi2
 3665 0014 D2B2     		uxtb	r2, r2
 3666 0016 012A     		cmp	r2, #1
 3667 0018 16D9     		bls	.L457
 3668 001a 022A     		cmp	r2, #2
 3669 001c 11D1     		bne	.L455
 3670              		.loc 1 372 0
 3671 001e 93F85D31 		ldrb	r3, [r3, #349]	@ zero_extendqisi2
 3672 0022 B7EE000A 		fconsts	s0, #112
ARM GAS  /tmp/ccB9RVXV.s 			page 66


 3673 0026 002B     		cmp	r3, #0
 3674 0028 FFEE007A 		fconsts	s15, #240
 3675 002c 18BF     		it	ne
 3676 002e B0EE670A 		fcpysne	s0, s15
 3677 0032 20EE080A 		fmuls	s0, s0, s16
 3678              		.loc 1 378 0
 3679 0036 BDEC028B 		fldmfdd	sp!, {d8}
 3680              	.LVL308:
 3681 003a BDE80840 		pop	{r3, lr}
 3682              		.loc 1 372 0
 3683 003e FFF7FEBF 		b	mcpwm_foc_set_pid_speed
 3684              	.LVL309:
 3685              	.L455:
 3686              		.loc 1 378 0
 3687 0042 BDEC028B 		fldmfdd	sp!, {d8}
 3688              	.LVL310:
 3689 0046 08BD     		pop	{r3, pc}
 3690              	.LVL311:
 3691              	.L457:
 3692              		.loc 1 368 0
 3693 0048 93F85D31 		ldrb	r3, [r3, #349]	@ zero_extendqisi2
 3694 004c B7EE000A 		fconsts	s0, #112
 3695 0050 002B     		cmp	r3, #0
 3696 0052 FFEE007A 		fconsts	s15, #240
 3697 0056 18BF     		it	ne
 3698 0058 B0EE670A 		fcpysne	s0, s15
 3699 005c 20EE080A 		fmuls	s0, s0, s16
 3700              		.loc 1 378 0
 3701 0060 BDEC028B 		fldmfdd	sp!, {d8}
 3702              	.LVL312:
 3703 0064 BDE80840 		pop	{r3, lr}
 3704              		.loc 1 368 0
 3705 0068 FFF7FEBF 		b	mcpwm_set_pid_speed
 3706              	.LVL313:
 3707              	.L464:
 3708              		.align	2
 3709              	.L463:
 3710 006c 00000000 		.word	.LANCHOR12
 3711              		.cfi_endproc
 3712              	.LFE269:
 3713              		.size	mc_interface_set_pid_speed, .-mc_interface_set_pid_speed
 3714              		.section	.text.mc_interface_set_pid_pos,"ax",%progbits
 3715              		.align	2
 3716              		.p2align 4,,15
 3717              		.global	mc_interface_set_pid_pos
 3718              		.thumb
 3719              		.thumb_func
 3720              		.type	mc_interface_set_pid_pos, %function
 3721              	mc_interface_set_pid_pos:
 3722              	.LFB270:
 3723              		.loc 1 380 0
 3724              		.cfi_startproc
 3725              		@ args = 0, pretend = 0, frame = 0
 3726              		@ frame_needed = 0, uses_anonymous_args = 0
 3727              	.LVL314:
 3728 0000 08B5     		push	{r3, lr}
 3729              		.cfi_def_cfa_offset 8
ARM GAS  /tmp/ccB9RVXV.s 			page 67


 3730              		.cfi_offset 3, -8
 3731              		.cfi_offset 14, -4
 3732 0002 2DED028B 		fstmfdd	sp!, {d8}
 3733              		.cfi_def_cfa_offset 16
 3734              		.cfi_offset 80, -16
 3735              		.loc 1 380 0
 3736 0006 B0EE408A 		fcpys	s16, s0
 3737              		.loc 1 381 0
 3738 000a FFF7FEFF 		bl	mc_interface_try_input
 3739              	.LVL315:
 3740 000e E8B9     		cbnz	r0, .L465
 3741              		.loc 1 385 0
 3742 0010 1A4B     		ldr	r3, .L473
 3743              		.loc 1 387 0
 3744 0012 1B4A     		ldr	r2, .L473+4
 3745              		.loc 1 385 0
 3746 0014 83ED008A 		fsts	s16, [r3]
 3747              		.loc 1 387 0
 3748 0018 9178     		ldrb	r1, [r2, #2]	@ zero_extendqisi2
 3749 001a C9B2     		uxtb	r1, r1
 3750 001c 0129     		cmp	r1, #1
 3751 001e 18D9     		bls	.L467
 3752 0020 0229     		cmp	r1, #2
 3753 0022 13D1     		bne	.L465
 3754              		.loc 1 400 0
 3755 0024 BDEC028B 		fldmfdd	sp!, {d8}
 3756              	.LVL316:
 3757              		.loc 1 394 0
 3758 0028 92F85D21 		ldrb	r2, [r2, #349]	@ zero_extendqisi2
 3759 002c D3ED007A 		flds	s15, [r3]
 3760 0030 002A     		cmp	r2, #0
 3761 0032 B7EE000A 		fconsts	s0, #112
 3762 0036 BFEE007A 		fconsts	s14, #240
 3763 003a 18BF     		it	ne
 3764 003c B0EE470A 		fcpysne	s0, s14
 3765 0040 20EE270A 		fmuls	s0, s0, s15
 3766              		.loc 1 400 0
 3767 0044 BDE80840 		pop	{r3, lr}
 3768              		.loc 1 394 0
 3769 0048 FFF7FEBF 		b	mcpwm_foc_set_pid_pos
 3770              	.LVL317:
 3771              	.L465:
 3772              		.loc 1 400 0
 3773 004c BDEC028B 		fldmfdd	sp!, {d8}
 3774              	.LVL318:
 3775 0050 08BD     		pop	{r3, pc}
 3776              	.LVL319:
 3777              	.L467:
 3778 0052 BDEC028B 		fldmfdd	sp!, {d8}
 3779              	.LVL320:
 3780              		.loc 1 390 0
 3781 0056 92F85D21 		ldrb	r2, [r2, #349]	@ zero_extendqisi2
 3782 005a D3ED007A 		flds	s15, [r3]
 3783 005e 002A     		cmp	r2, #0
 3784 0060 B7EE000A 		fconsts	s0, #112
 3785 0064 BFEE007A 		fconsts	s14, #240
 3786 0068 18BF     		it	ne
ARM GAS  /tmp/ccB9RVXV.s 			page 68


 3787 006a B0EE470A 		fcpysne	s0, s14
 3788 006e 20EE270A 		fmuls	s0, s0, s15
 3789              		.loc 1 400 0
 3790 0072 BDE80840 		pop	{r3, lr}
 3791              		.loc 1 390 0
 3792 0076 FFF7FEBF 		b	mcpwm_set_pid_pos
 3793              	.LVL321:
 3794              	.L474:
 3795 007a 00BF     		.align	2
 3796              	.L473:
 3797 007c 00000000 		.word	.LANCHOR30
 3798 0080 00000000 		.word	.LANCHOR12
 3799              		.cfi_endproc
 3800              	.LFE270:
 3801              		.size	mc_interface_set_pid_pos, .-mc_interface_set_pid_pos
 3802 0084 AFF30080 		.section	.text.mc_interface_set_current,"ax",%progbits
 3802      AFF30080 
 3802      AFF30080 
 3803              		.align	2
 3804              		.p2align 4,,15
 3805              		.global	mc_interface_set_current
 3806              		.thumb
 3807              		.thumb_func
 3808              		.type	mc_interface_set_current, %function
 3809              	mc_interface_set_current:
 3810              	.LFB271:
 3811              		.loc 1 402 0
 3812              		.cfi_startproc
 3813              		@ args = 0, pretend = 0, frame = 0
 3814              		@ frame_needed = 0, uses_anonymous_args = 0
 3815              	.LVL322:
 3816 0000 08B5     		push	{r3, lr}
 3817              		.cfi_def_cfa_offset 8
 3818              		.cfi_offset 3, -8
 3819              		.cfi_offset 14, -4
 3820 0002 2DED028B 		fstmfdd	sp!, {d8}
 3821              		.cfi_def_cfa_offset 16
 3822              		.cfi_offset 80, -16
 3823              		.loc 1 402 0
 3824 0006 B0EE408A 		fcpys	s16, s0
 3825              		.loc 1 403 0
 3826 000a FFF7FEFF 		bl	mc_interface_try_input
 3827              	.LVL323:
 3828 000e C0B9     		cbnz	r0, .L475
 3829              		.loc 1 407 0
 3830 0010 164B     		ldr	r3, .L483
 3831 0012 9A78     		ldrb	r2, [r3, #2]	@ zero_extendqisi2
 3832 0014 D2B2     		uxtb	r2, r2
 3833 0016 012A     		cmp	r2, #1
 3834 0018 16D9     		bls	.L477
 3835 001a 022A     		cmp	r2, #2
 3836 001c 11D1     		bne	.L475
 3837              		.loc 1 414 0
 3838 001e 93F85D31 		ldrb	r3, [r3, #349]	@ zero_extendqisi2
 3839 0022 B7EE000A 		fconsts	s0, #112
 3840 0026 002B     		cmp	r3, #0
 3841 0028 FFEE007A 		fconsts	s15, #240
ARM GAS  /tmp/ccB9RVXV.s 			page 69


 3842 002c 18BF     		it	ne
 3843 002e B0EE670A 		fcpysne	s0, s15
 3844 0032 20EE080A 		fmuls	s0, s0, s16
 3845              		.loc 1 420 0
 3846 0036 BDEC028B 		fldmfdd	sp!, {d8}
 3847              	.LVL324:
 3848 003a BDE80840 		pop	{r3, lr}
 3849              		.loc 1 414 0
 3850 003e FFF7FEBF 		b	mcpwm_foc_set_current
 3851              	.LVL325:
 3852              	.L475:
 3853              		.loc 1 420 0
 3854 0042 BDEC028B 		fldmfdd	sp!, {d8}
 3855              	.LVL326:
 3856 0046 08BD     		pop	{r3, pc}
 3857              	.LVL327:
 3858              	.L477:
 3859              	.LBB155:
 3860              	.LBB156:
 3861              		.loc 1 410 0
 3862 0048 93F85D31 		ldrb	r3, [r3, #349]	@ zero_extendqisi2
 3863 004c B7EE000A 		fconsts	s0, #112
 3864 0050 002B     		cmp	r3, #0
 3865 0052 FFEE007A 		fconsts	s15, #240
 3866 0056 18BF     		it	ne
 3867 0058 B0EE670A 		fcpysne	s0, s15
 3868 005c 28EE000A 		fmuls	s0, s16, s0
 3869              	.LBE156:
 3870              	.LBE155:
 3871              		.loc 1 420 0
 3872 0060 BDEC028B 		fldmfdd	sp!, {d8}
 3873              	.LVL328:
 3874 0064 BDE80840 		pop	{r3, lr}
 3875              	.LBB158:
 3876              	.LBB157:
 3877              		.loc 1 410 0
 3878 0068 FFF7FEBF 		b	mcpwm_set_current
 3879              	.LVL329:
 3880              	.L484:
 3881              		.align	2
 3882              	.L483:
 3883 006c 00000000 		.word	.LANCHOR12
 3884              	.LBE157:
 3885              	.LBE158:
 3886              		.cfi_endproc
 3887              	.LFE271:
 3888              		.size	mc_interface_set_current, .-mc_interface_set_current
 3889              		.section	.text.mc_interface_set_current_rel,"ax",%progbits
 3890              		.align	2
 3891              		.p2align 4,,15
 3892              		.global	mc_interface_set_current_rel
 3893              		.thumb
 3894              		.thumb_func
 3895              		.type	mc_interface_set_current_rel, %function
 3896              	mc_interface_set_current_rel:
 3897              	.LFB273:
 3898              		.loc 1 448 0
ARM GAS  /tmp/ccB9RVXV.s 			page 70


 3899              		.cfi_startproc
 3900              		@ args = 0, pretend = 0, frame = 0
 3901              		@ frame_needed = 0, uses_anonymous_args = 0
 3902              		@ link register save eliminated.
 3903              	.LVL330:
 3904              		.loc 1 449 0
 3905 0000 B5EEC00A 		fcmpezs	s0
 3906 0004 F1EE10FA 		fmstat
 3907              		.loc 1 450 0
 3908 0008 074B     		ldr	r3, .L490
 3909              		.loc 1 449 0
 3910 000a 05DD     		ble	.L489
 3911              		.loc 1 450 0
 3912 000c D3ED1D7A 		flds	s15, [r3, #116]
 3913 0010 27EE800A 		fmuls	s0, s15, s0
 3914              	.LVL331:
 3915 0014 FFF7FEBF 		b	mc_interface_set_current
 3916              	.LVL332:
 3917              	.L489:
 3918              		.loc 1 452 0
 3919 0018 D3ED1E7A 		flds	s15, [r3, #120]
 3920 001c F0EEE77A 		fabss	s15, s15
 3921 0020 27EE800A 		fmuls	s0, s15, s0
 3922              	.LVL333:
 3923 0024 FFF7FEBF 		b	mc_interface_set_current
 3924              	.LVL334:
 3925              	.L491:
 3926              		.align	2
 3927              	.L490:
 3928 0028 00000000 		.word	.LANCHOR12
 3929              		.cfi_endproc
 3930              	.LFE273:
 3931              		.size	mc_interface_set_current_rel, .-mc_interface_set_current_rel
 3932 002c AFF30080 		.section	.text.mc_interface_release_motor,"ax",%progbits
 3933              		.align	2
 3934              		.p2align 4,,15
 3935              		.global	mc_interface_release_motor
 3936              		.thumb
 3937              		.thumb_func
 3938              		.type	mc_interface_release_motor, %function
 3939              	mc_interface_release_motor:
 3940              	.LFB277:
 3941              		.loc 1 494 0
 3942              		.cfi_startproc
 3943              		@ args = 0, pretend = 0, frame = 0
 3944              		@ frame_needed = 0, uses_anonymous_args = 0
 3945              		@ link register save eliminated.
 3946              		.loc 1 495 0
 3947 0000 9FED010A 		flds	s0, .L493
 3948 0004 FFF7FEBF 		b	mc_interface_set_current
 3949              	.LVL335:
 3950              	.L494:
 3951              		.align	2
 3952              	.L493:
 3953 0008 00000000 		.word	0
 3954              		.cfi_endproc
 3955              	.LFE277:
ARM GAS  /tmp/ccB9RVXV.s 			page 71


 3956              		.size	mc_interface_release_motor, .-mc_interface_release_motor
 3957 000c AFF30080 		.section	.text.mc_interface_set_brake_current,"ax",%progbits
 3958              		.align	2
 3959              		.p2align 4,,15
 3960              		.global	mc_interface_set_brake_current
 3961              		.thumb
 3962              		.thumb_func
 3963              		.type	mc_interface_set_brake_current, %function
 3964              	mc_interface_set_brake_current:
 3965              	.LFB272:
 3966              		.loc 1 422 0
 3967              		.cfi_startproc
 3968              		@ args = 0, pretend = 0, frame = 0
 3969              		@ frame_needed = 0, uses_anonymous_args = 0
 3970              	.LVL336:
 3971 0000 08B5     		push	{r3, lr}
 3972              		.cfi_def_cfa_offset 8
 3973              		.cfi_offset 3, -8
 3974              		.cfi_offset 14, -4
 3975 0002 2DED028B 		fstmfdd	sp!, {d8}
 3976              		.cfi_def_cfa_offset 16
 3977              		.cfi_offset 80, -16
 3978              		.loc 1 422 0
 3979 0006 B0EE408A 		fcpys	s16, s0
 3980              		.loc 1 423 0
 3981 000a FFF7FEFF 		bl	mc_interface_try_input
 3982              	.LVL337:
 3983 000e C0B9     		cbnz	r0, .L495
 3984              		.loc 1 427 0
 3985 0010 164B     		ldr	r3, .L503
 3986 0012 9A78     		ldrb	r2, [r3, #2]	@ zero_extendqisi2
 3987 0014 D2B2     		uxtb	r2, r2
 3988 0016 012A     		cmp	r2, #1
 3989 0018 16D9     		bls	.L497
 3990 001a 022A     		cmp	r2, #2
 3991 001c 11D1     		bne	.L495
 3992              		.loc 1 434 0
 3993 001e 93F85D31 		ldrb	r3, [r3, #349]	@ zero_extendqisi2
 3994 0022 B7EE000A 		fconsts	s0, #112
 3995 0026 002B     		cmp	r3, #0
 3996 0028 FFEE007A 		fconsts	s15, #240
 3997 002c 18BF     		it	ne
 3998 002e B0EE670A 		fcpysne	s0, s15
 3999 0032 20EE080A 		fmuls	s0, s0, s16
 4000              		.loc 1 440 0
 4001 0036 BDEC028B 		fldmfdd	sp!, {d8}
 4002              	.LVL338:
 4003 003a BDE80840 		pop	{r3, lr}
 4004              		.loc 1 434 0
 4005 003e FFF7FEBF 		b	mcpwm_foc_set_brake_current
 4006              	.LVL339:
 4007              	.L495:
 4008              		.loc 1 440 0
 4009 0042 BDEC028B 		fldmfdd	sp!, {d8}
 4010              	.LVL340:
 4011 0046 08BD     		pop	{r3, pc}
 4012              	.LVL341:
ARM GAS  /tmp/ccB9RVXV.s 			page 72


 4013              	.L497:
 4014              		.loc 1 430 0
 4015 0048 93F85D31 		ldrb	r3, [r3, #349]	@ zero_extendqisi2
 4016 004c B7EE000A 		fconsts	s0, #112
 4017 0050 002B     		cmp	r3, #0
 4018 0052 FFEE007A 		fconsts	s15, #240
 4019 0056 18BF     		it	ne
 4020 0058 B0EE670A 		fcpysne	s0, s15
 4021 005c 20EE080A 		fmuls	s0, s0, s16
 4022              		.loc 1 440 0
 4023 0060 BDEC028B 		fldmfdd	sp!, {d8}
 4024              	.LVL342:
 4025 0064 BDE80840 		pop	{r3, lr}
 4026              		.loc 1 430 0
 4027 0068 FFF7FEBF 		b	mcpwm_set_brake_current
 4028              	.LVL343:
 4029              	.L504:
 4030              		.align	2
 4031              	.L503:
 4032 006c 00000000 		.word	.LANCHOR12
 4033              		.cfi_endproc
 4034              	.LFE272:
 4035              		.size	mc_interface_set_brake_current, .-mc_interface_set_brake_current
 4036              		.section	.text.mc_interface_set_brake_current_rel,"ax",%progbits
 4037              		.align	2
 4038              		.p2align 4,,15
 4039              		.global	mc_interface_set_brake_current_rel
 4040              		.thumb
 4041              		.thumb_func
 4042              		.type	mc_interface_set_brake_current_rel, %function
 4043              	mc_interface_set_brake_current_rel:
 4044              	.LFB274:
 4045              		.loc 1 462 0
 4046              		.cfi_startproc
 4047              		@ args = 0, pretend = 0, frame = 0
 4048              		@ frame_needed = 0, uses_anonymous_args = 0
 4049              		@ link register save eliminated.
 4050              	.LVL344:
 4051              		.loc 1 463 0
 4052 0000 034B     		ldr	r3, .L506
 4053 0002 D3ED1D7A 		flds	s15, [r3, #116]
 4054 0006 27EE800A 		fmuls	s0, s15, s0
 4055              	.LVL345:
 4056 000a FFF7FEBF 		b	mc_interface_set_brake_current
 4057              	.LVL346:
 4058              	.L507:
 4059 000e 00BF     		.align	2
 4060              	.L506:
 4061 0010 00000000 		.word	.LANCHOR12
 4062              		.cfi_endproc
 4063              	.LFE274:
 4064              		.size	mc_interface_set_brake_current_rel, .-mc_interface_set_brake_current_rel
 4065 0014 AFF30080 		.section	.text.mc_interface_set_handbrake,"ax",%progbits
 4065      AFF30080 
 4065      AFF30080 
 4066              		.align	2
 4067              		.p2align 4,,15
ARM GAS  /tmp/ccB9RVXV.s 			page 73


 4068              		.global	mc_interface_set_handbrake
 4069              		.thumb
 4070              		.thumb_func
 4071              		.type	mc_interface_set_handbrake, %function
 4072              	mc_interface_set_handbrake:
 4073              	.LFB275:
 4074              		.loc 1 466 0
 4075              		.cfi_startproc
 4076              		@ args = 0, pretend = 0, frame = 0
 4077              		@ frame_needed = 0, uses_anonymous_args = 0
 4078              	.LVL347:
 4079 0000 08B5     		push	{r3, lr}
 4080              		.cfi_def_cfa_offset 8
 4081              		.cfi_offset 3, -8
 4082              		.cfi_offset 14, -4
 4083 0002 2DED028B 		fstmfdd	sp!, {d8}
 4084              		.cfi_def_cfa_offset 16
 4085              		.cfi_offset 80, -16
 4086              		.loc 1 466 0
 4087 0006 B0EE408A 		fcpys	s16, s0
 4088              		.loc 1 467 0
 4089 000a FFF7FEFF 		bl	mc_interface_try_input
 4090              	.LVL348:
 4091 000e 70B9     		cbnz	r0, .L508
 4092              		.loc 1 471 0
 4093 0010 0C4B     		ldr	r3, .L512
 4094 0012 9B78     		ldrb	r3, [r3, #2]	@ zero_extendqisi2
 4095 0014 DBB2     		uxtb	r3, r3
 4096 0016 012B     		cmp	r3, #1
 4097 0018 0CD9     		bls	.L510
 4098 001a 022B     		cmp	r3, #2
 4099 001c 07D1     		bne	.L508
 4100              		.loc 1 479 0
 4101 001e B0EE480A 		fcpys	s0, s16
 4102              		.loc 1 485 0
 4103 0022 BDEC028B 		fldmfdd	sp!, {d8}
 4104              	.LVL349:
 4105 0026 BDE80840 		pop	{r3, lr}
 4106              		.loc 1 479 0
 4107 002a FFF7FEBF 		b	mcpwm_foc_set_handbrake
 4108              	.LVL350:
 4109              	.L508:
 4110              		.loc 1 485 0
 4111 002e BDEC028B 		fldmfdd	sp!, {d8}
 4112              	.LVL351:
 4113 0032 08BD     		pop	{r3, pc}
 4114              	.LVL352:
 4115              	.L510:
 4116              		.loc 1 475 0
 4117 0034 B0EE480A 		fcpys	s0, s16
 4118              		.loc 1 485 0
 4119 0038 BDEC028B 		fldmfdd	sp!, {d8}
 4120              	.LVL353:
 4121 003c BDE80840 		pop	{r3, lr}
 4122              		.loc 1 475 0
 4123 0040 FFF7FEBF 		b	mcpwm_set_brake_current
 4124              	.LVL354:
ARM GAS  /tmp/ccB9RVXV.s 			page 74


 4125              	.L513:
 4126              		.align	2
 4127              	.L512:
 4128 0044 00000000 		.word	.LANCHOR12
 4129              		.cfi_endproc
 4130              	.LFE275:
 4131              		.size	mc_interface_set_handbrake, .-mc_interface_set_handbrake
 4132 0048 AFF30080 		.section	.text.mc_interface_fault_stop,"ax",%progbits
 4132      AFF30080 
 4133              		.align	2
 4134              		.p2align 4,,15
 4135              		.global	mc_interface_fault_stop
 4136              		.thumb
 4137              		.thumb_func
 4138              		.type	mc_interface_fault_stop, %function
 4139              	mc_interface_fault_stop:
 4140              	.LFB306:
 4141              		.loc 1 991 0
 4142              		.cfi_startproc
 4143              		@ args = 0, pretend = 0, frame = 0
 4144              		@ frame_needed = 0, uses_anonymous_args = 0
 4145              		@ link register save eliminated.
 4146              	.LVL355:
 4147              		.loc 1 992 0
 4148 0000 054B     		ldr	r3, .L519
 4149 0002 1B78     		ldrb	r3, [r3]	@ zero_extendqisi2
 4150 0004 8342     		cmp	r3, r0
 4151 0006 01D0     		beq	.L518
 4152 0008 FFF7FEBF 		b	mc_interface_fault_stop.part.1
 4153              	.LVL356:
 4154              	.L518:
 4155              		.loc 1 993 0
 4156 000c 034A     		ldr	r2, .L519+4
 4157 000e 044B     		ldr	r3, .L519+8
 4158 0010 D2F84C21 		ldr	r2, [r2, #332]
 4159 0014 1A60     		str	r2, [r3]
 4160              		.loc 1 994 0
 4161 0016 7047     		bx	lr
 4162              	.L520:
 4163              		.align	2
 4164              	.L519:
 4165 0018 00000000 		.word	.LANCHOR13
 4166 001c 00000000 		.word	.LANCHOR12
 4167 0020 00000000 		.word	.LANCHOR14
 4168              		.cfi_endproc
 4169              	.LFE306:
 4170              		.size	mc_interface_fault_stop, .-mc_interface_fault_stop
 4171 0024 AFF30080 		.section	.text.mc_interface_mc_timer_isr,"ax",%progbits
 4171      AFF30080 
 4171      AFF30080 
 4172              		.align	2
 4173              		.p2align 4,,15
 4174              		.global	mc_interface_mc_timer_isr
 4175              		.thumb
 4176              		.thumb_func
 4177              		.type	mc_interface_mc_timer_isr, %function
 4178              	mc_interface_mc_timer_isr:
ARM GAS  /tmp/ccB9RVXV.s 			page 75


 4179              	.LFB307:
 4180              		.loc 1 1047 0
 4181              		.cfi_startproc
 4182              		@ args = 0, pretend = 0, frame = 0
 4183              		@ frame_needed = 0, uses_anonymous_args = 0
 4184 0000 2DE9F843 		push	{r3, r4, r5, r6, r7, r8, r9, lr}
 4185              		.cfi_def_cfa_offset 32
 4186              		.cfi_offset 3, -32
 4187              		.cfi_offset 4, -28
 4188              		.cfi_offset 5, -24
 4189              		.cfi_offset 6, -20
 4190              		.cfi_offset 7, -16
 4191              		.cfi_offset 8, -12
 4192              		.cfi_offset 9, -8
 4193              		.cfi_offset 14, -4
 4194              		.loc 1 1050 0
 4195 0004 7D4E     		ldr	r6, .L612
 4196              		.loc 1 1054 0
 4197 0006 7E4D     		ldr	r5, .L612+4
 4198              		.loc 1 1047 0
 4199 0008 2DED048B 		fstmfdd	sp!, {d8, d9}
 4200              		.cfi_def_cfa_offset 48
 4201              		.cfi_offset 80, -48
 4202              		.cfi_offset 82, -40
 4203              		.loc 1 1048 0
 4204 000c FFF7FEFF 		bl	ledpwm_update_pwm
 4205              	.LVL357:
 4206              		.loc 1 1050 0
 4207 0010 338A     		ldrh	r3, [r6, #16]
 4208 0012 DFED7C6A 		flds	s13, .L612+8
 4209 0016 9FED7C7A 		flds	s14, .L612+12
 4210              		.loc 1 1054 0
 4211 001a D5ED0B7A 		flds	s15, [r5, #44]
 4212              		.loc 1 1050 0
 4213 001e 9BB2     		uxth	r3, r3
 4214 0020 06EE103A 		fmsr	s12, r3	@ int
 4215 0024 B8EE469A 		fuitos	s18, s12
 4216 0028 29EE269A 		fmuls	s18, s18, s13
 4217 002c 29EE079A 		fmuls	s18, s18, s14
 4218              	.LVL358:
 4219              		.loc 1 1054 0
 4220 0030 B4EEE79A 		fcmpes	s18, s15
 4221 0034 F1EE10FA 		fmstat
 4222 0038 07D4     		bmi	.L522
 4223              		.loc 1 1055 0 discriminator 1
 4224 003a D5ED0C7A 		flds	s15, [r5, #48]
 4225              		.loc 1 1054 0 discriminator 1
 4226 003e B4EEE79A 		fcmpes	s18, s15
 4227 0042 F1EE10FA 		fmstat
 4228 0046 40F3AA81 		ble	.L589
 4229              	.L522:
 4230              		.loc 1 1056 0
 4231 004a 704A     		ldr	r2, .L612+16
 4232 004c 1368     		ldr	r3, [r2]
 4233 004e 0133     		adds	r3, r3, #1
 4234              		.loc 1 1058 0
 4235 0050 072B     		cmp	r3, #7
ARM GAS  /tmp/ccB9RVXV.s 			page 76


 4236              		.loc 1 1056 0
 4237 0052 1360     		str	r3, [r2]
 4238              		.loc 1 1058 0
 4239 0054 00F39381 		bgt	.L598
 4240              	.L525:
 4241              		.loc 1 1066 0
 4242 0058 FFF7FEFF 		bl	mc_interface_get_state
 4243              	.LVL359:
 4244              		.loc 1 1067 0
 4245 005c 6C4B     		ldr	r3, .L612+20
 4246              		.loc 1 1066 0
 4247 005e 0228     		cmp	r0, #2
 4248              		.loc 1 1067 0
 4249 0060 0ABF     		itet	eq
 4250 0062 1A68     		ldreq	r2, [r3]
 4251              		.loc 1 1069 0
 4252 0064 0022     		movne	r2, #0
 4253              		.loc 1 1067 0
 4254 0066 0132     		addeq	r2, r2, #1
 4255              		.loc 1 1069 0
 4256 0068 1A60     		str	r2, [r3]
 4257              		.loc 1 1072 0
 4258 006a 6A4B     		ldr	r3, .L612+24
 4259 006c 1B68     		ldr	r3, [r3]
 4260 006e 03B1     		cbz	r3, .L531
 4261              		.loc 1 1073 0
 4262 0070 9847     		blx	r3
 4263              	.LVL360:
 4264              	.L531:
 4265              		.loc 1 1076 0
 4266 0072 FFF7FEFF 		bl	mc_interface_get_tot_current_filtered
 4267              	.LVL361:
 4268 0076 F0EE408A 		fcpys	s17, s0
 4269              	.LVL362:
 4270              		.loc 1 1077 0
 4271 007a FFF7FEFF 		bl	mc_interface_get_tot_current_in_filtered
 4272              	.LVL363:
 4273              		.loc 1 1078 0
 4274 007e 6648     		ldr	r0, .L612+28
 4275              		.loc 1 1079 0
 4276 0080 6649     		ldr	r1, .L612+32
 4277              		.loc 1 1078 0
 4278 0082 D0ED007A 		flds	s15, [r0]
 4279              		.loc 1 1080 0
 4280 0086 664A     		ldr	r2, .L612+36
 4281              		.loc 1 1081 0
 4282 0088 664B     		ldr	r3, .L612+40
 4283              		.loc 1 1078 0
 4284 008a 77EEA87A 		fadds	s15, s15, s17
 4285              		.loc 1 1080 0
 4286 008e B7EE008A 		fconsts	s16, #112
 4287              		.loc 1 1078 0
 4288 0092 C0ED007A 		fsts	s15, [r0]
 4289              		.loc 1 1079 0
 4290 0096 D1ED007A 		flds	s15, [r1]
 4291 009a 77EE807A 		fadds	s15, s15, s0
 4292              		.loc 1 1077 0
ARM GAS  /tmp/ccB9RVXV.s 			page 77


 4293 009e F0EE409A 		fcpys	s19, s0
 4294              	.LVL364:
 4295              		.loc 1 1079 0
 4296 00a2 C1ED007A 		fsts	s15, [r1]
 4297              		.loc 1 1080 0
 4298 00a6 D2ED007A 		flds	s15, [r2]
 4299 00aa 77EE887A 		fadds	s15, s15, s16
 4300 00ae C2ED007A 		fsts	s15, [r2]
 4301              		.loc 1 1081 0
 4302 00b2 D3ED007A 		flds	s15, [r3]
 4303 00b6 77EE887A 		fadds	s15, s15, s16
 4304 00ba C3ED007A 		fsts	s15, [r3]
 4305              		.loc 1 1083 0
 4306 00be FFF7FEFF 		bl	mcpwm_foc_get_id
 4307              	.LVL365:
 4308 00c2 594B     		ldr	r3, .L612+44
 4309 00c4 D3ED007A 		flds	s15, [r3]
 4310 00c8 30EE270A 		fadds	s0, s0, s15
 4311 00cc 83ED000A 		fsts	s0, [r3]
 4312              		.loc 1 1084 0
 4313 00d0 FFF7FEFF 		bl	mcpwm_foc_get_iq
 4314              	.LVL366:
 4315 00d4 5549     		ldr	r1, .L612+48
 4316              		.loc 1 1085 0
 4317 00d6 564A     		ldr	r2, .L612+52
 4318              		.loc 1 1084 0
 4319 00d8 D1ED007A 		flds	s15, [r1]
 4320              		.loc 1 1086 0
 4321 00dc 554B     		ldr	r3, .L612+56
 4322              		.loc 1 1084 0
 4323 00de 30EE270A 		fadds	s0, s0, s15
 4324 00e2 81ED000A 		fsts	s0, [r1]
 4325              		.loc 1 1085 0
 4326 00e6 D2ED007A 		flds	s15, [r2]
 4327 00ea 77EE887A 		fadds	s15, s15, s16
 4328 00ee C2ED007A 		fsts	s15, [r2]
 4329              		.loc 1 1086 0
 4330 00f2 D3ED007A 		flds	s15, [r3]
 4331 00f6 37EE888A 		fadds	s16, s15, s16
 4332 00fa 83ED008A 		fsts	s16, [r3]
 4333              		.loc 1 1088 0
 4334 00fe FFF7FEFF 		bl	mc_interface_get_tot_current
 4335              	.LVL367:
 4336              		.loc 1 1090 0
 4337 0102 AB78     		ldrb	r3, [r5, #2]	@ zero_extendqisi2
 4338 0104 022B     		cmp	r3, #2
 4339              		.loc 1 1088 0
 4340 0106 B0EE408A 		fcpys	s16, s0
 4341              	.LVL368:
 4342              		.loc 1 1090 0
 4343 010a 00F0CE81 		beq	.L599
 4344              		.loc 1 1089 0
 4345 010e B0EE680A 		fcpys	s0, s17
 4346              	.LVL369:
 4347              	.L532:
 4348              		.loc 1 1097 0
 4349 0112 95F83C20 		ldrb	r2, [r5, #60]	@ zero_extendqisi2
ARM GAS  /tmp/ccB9RVXV.s 			page 78


 4350 0116 3A4B     		ldr	r3, .L612+4
 4351              		.loc 1 1098 0
 4352 0118 D3ED057A 		flds	s15, [r3, #20]
 4353              		.loc 1 1097 0
 4354 011c 002A     		cmp	r2, #0
 4355 011e 5DD0     		beq	.L533
 4356              		.loc 1 1098 0
 4357 0120 B0EEC00A 		fabss	s0, s0
 4358              	.LVL370:
 4359 0124 B4EEE70A 		fcmpes	s0, s15
 4360 0128 F1EE10FA 		fmstat
 4361 012c 5DDC     		bgt	.L594
 4362              	.LVL371:
 4363              	.L534:
 4364              		.loc 1 1108 0
 4365 012e 424B     		ldr	r3, .L612+60
 4366 0130 1B69     		ldr	r3, [r3, #16]
 4367 0132 DB04     		lsls	r3, r3, #19
 4368 0134 07D4     		bmi	.L538
 4369              	.LVL372:
 4370              	.LBB159:
 4371              	.LBB160:
 4372              		.loc 1 992 0
 4373 0136 414B     		ldr	r3, .L612+64
 4374 0138 1B78     		ldrb	r3, [r3]	@ zero_extendqisi2
 4375 013a 032B     		cmp	r3, #3
 4376 013c 00F0A281 		beq	.L600
 4377 0140 0320     		movs	r0, #3
 4378 0142 FFF7FEFF 		bl	mc_interface_fault_stop.part.1
 4379              	.LVL373:
 4380              	.L538:
 4381              	.LBE160:
 4382              	.LBE159:
 4383              		.loc 1 1113 0
 4384 0146 FFF7FEFF 		bl	mc_interface_get_sampling_frequency_now
 4385              	.LVL374:
 4386              		.loc 1 1114 0
 4387 014a F0EEE88A 		fabss	s17, s17
 4388              	.LVL375:
 4389 014e F7EE007A 		fconsts	s15, #112
 4390 0152 F4EEE78A 		fcmpes	s17, s15
 4391 0156 F1EE10FA 		fmstat
 4392              		.loc 1 1113 0
 4393 015a B0EE408A 		fcpys	s16, s0
 4394              	.LVL376:
 4395              		.loc 1 1114 0
 4396 015e 2FDD     		ble	.L541
 4397              	.LBB162:
 4398              		.loc 1 1120 0
 4399 0160 C7EE807A 		fdivs	s15, s15, s0
 4400 0164 364A     		ldr	r2, .L612+68
 4401              		.loc 1 1119 0
 4402 0166 374B     		ldr	r3, .L612+72
 4403 0168 C9EE809A 		fdivs	s19, s19, s0
 4404              	.LVL377:
 4405              		.loc 1 1120 0
 4406 016c D2ED006A 		flds	s13, [r2]
ARM GAS  /tmp/ccB9RVXV.s 			page 79


 4407              		.loc 1 1119 0
 4408 0170 93ED006A 		flds	s12, [r3]
 4409              		.loc 1 1122 0
 4410 0174 9FED347A 		flds	s14, .L612+76
 4411              		.loc 1 1120 0
 4412 0178 77EEA67A 		fadds	s15, s15, s13
 4413              		.loc 1 1119 0
 4414 017c 79EE869A 		fadds	s19, s19, s12
 4415              		.loc 1 1122 0
 4416 0180 F4EEC77A 		fcmpes	s15, s14
 4417 0184 F1EE10FA 		fmstat
 4418              		.loc 1 1119 0
 4419 0188 C3ED009A 		fsts	s19, [r3]
 4420              		.loc 1 1120 0
 4421 018c C2ED007A 		fsts	s15, [r2]
 4422              		.loc 1 1122 0
 4423 0190 16DB     		blt	.L541
 4424              		.loc 1 1123 0
 4425 0192 F5EEC09A 		fcmpezs	s19
 4426 0196 F1EE10FA 		fmstat
 4427 019a 40F38D81 		ble	.L590
 4428              		.loc 1 1124 0
 4429 019e 2B48     		ldr	r0, .L612+80
 4430              		.loc 1 1125 0
 4431 01a0 2B49     		ldr	r1, .L612+84
 4432              		.loc 1 1124 0
 4433 01a2 D0ED007A 		flds	s15, [r0]
 4434 01a6 79EEA77A 		fadds	s15, s19, s15
 4435 01aa C0ED007A 		fsts	s15, [r0]
 4436              		.loc 1 1125 0
 4437 01ae D1ED007A 		flds	s15, [r1]
 4438 01b2 E9EE297A 		vfma.f32	s15, s18, s19
 4439 01b6 C1ED007A 		fsts	s15, [r1]
 4440              	.L546:
 4441              		.loc 1 1131 0
 4442 01ba 0021     		movs	r1, #0
 4443 01bc 1160     		str	r1, [r2]	@ float
 4444              		.loc 1 1132 0
 4445 01be 1960     		str	r1, [r3]	@ float
 4446              	.L541:
 4447              	.LVL378:
 4448              	.LBE162:
 4449              		.loc 1 1138 0
 4450 01c0 244F     		ldr	r7, .L612+88
 4451 01c2 3B78     		ldrb	r3, [r7]	@ zero_extendqisi2
 4452 01c4 013B     		subs	r3, r3, #1
 4453 01c6 052B     		cmp	r3, #5
 4454 01c8 00F2D580 		bhi	.L521
 4455 01cc DFE813F0 		tbh	[pc, r3, lsl #1]
 4456              	.L549:
 4457 01d0 4400     		.2byte	(.L548-.L549)/2
 4458 01d2 2D01     		.2byte	(.L550-.L549)/2
 4459 01d4 1101     		.2byte	(.L551-.L549)/2
 4460 01d6 EB00     		.2byte	(.L552-.L549)/2
 4461 01d8 1101     		.2byte	(.L551-.L549)/2
 4462 01da EB00     		.2byte	(.L552-.L549)/2
 4463              	.LVL379:
ARM GAS  /tmp/ccB9RVXV.s 			page 80


 4464              		.p2align 1
 4465              	.L533:
 4466              		.loc 1 1102 0
 4467 01dc B0EEC88A 		fabss	s16, s16
 4468              	.LVL380:
 4469 01e0 B4EEE78A 		fcmpes	s16, s15
 4470 01e4 F1EE10FA 		fmstat
 4471 01e8 A1DD     		ble	.L534
 4472              	.LVL381:
 4473              	.L594:
 4474              	.LBB163:
 4475              	.LBB164:
 4476              		.loc 1 992 0
 4477 01ea 144A     		ldr	r2, .L612+64
 4478 01ec 1278     		ldrb	r2, [r2]	@ zero_extendqisi2
 4479 01ee 042A     		cmp	r2, #4
 4480 01f0 00F04381 		beq	.L601
 4481              	.LBE164:
 4482              	.LBE163:
 4483              	.LBB166:
 4484              	.LBB167:
 4485 01f4 0420     		movs	r0, #4
 4486 01f6 FFF7FEFF 		bl	mc_interface_fault_stop.part.1
 4487              	.LVL382:
 4488 01fa 98E7     		b	.L534
 4489              	.L613:
 4490              		.align	2
 4491              	.L612:
 4492 01fc 00000000 		.word	.LANCHOR41
 4493 0200 00000000 		.word	.LANCHOR12
 4494 0204 6740533A 		.word	978534503
 4495 0208 74D19541 		.word	1100337524
 4496 020c 00000000 		.word	.LANCHOR42
 4497 0210 00000000 		.word	.LANCHOR15
 4498 0214 00000000 		.word	.LANCHOR39
 4499 0218 00000000 		.word	.LANCHOR18
 4500 021c 00000000 		.word	.LANCHOR19
 4501 0220 00000000 		.word	.LANCHOR20
 4502 0224 00000000 		.word	.LANCHOR21
 4503 0228 00000000 		.word	.LANCHOR22
 4504 022c 00000000 		.word	.LANCHOR23
 4505 0230 00000000 		.word	.LANCHOR24
 4506 0234 00000000 		.word	.LANCHOR25
 4507 0238 00080240 		.word	1073874944
 4508 023c 00000000 		.word	.LANCHOR13
 4509 0240 00000000 		.word	.LANCHOR44
 4510 0244 00000000 		.word	.LANCHOR43
 4511 0248 0AD7233C 		.word	1008981770
 4512 024c 00000000 		.word	.LANCHOR26
 4513 0250 00000000 		.word	.LANCHOR28
 4514 0254 00000000 		.word	.LANCHOR36
 4515              	.LVL383:
 4516              	.L548:
 4517              	.LBE167:
 4518              	.LBE166:
 4519              		.loc 1 1140 0
 4520 0258 AC4C     		ldr	r4, .L614
ARM GAS  /tmp/ccB9RVXV.s 			page 81


 4521 025a AD4B     		ldr	r3, .L614+4
 4522 025c 2268     		ldr	r2, [r4]
 4523 025e 1B68     		ldr	r3, [r3]
 4524 0260 9A42     		cmp	r2, r3
 4525 0262 00F0F581 		beq	.L553
 4526              	.LVL384:
 4527              	.L564:
 4528              	.LBB168:
 4529              		.loc 1 1231 0
 4530 0266 AB4B     		ldr	r3, .L614+8
 4531              		.loc 1 1233 0
 4532 0268 AB49     		ldr	r1, .L614+12
 4533              		.loc 1 1231 0
 4534 026a 1A68     		ldr	r2, [r3]
 4535              		.loc 1 1233 0
 4536 026c 0968     		ldr	r1, [r1]
 4537              		.loc 1 1231 0
 4538 026e 0132     		adds	r2, r2, #1
 4539              		.loc 1 1233 0
 4540 0270 8A42     		cmp	r2, r1
 4541              		.loc 1 1231 0
 4542 0272 1A60     		str	r2, [r3]
 4543              		.loc 1 1233 0
 4544 0274 7FDB     		blt	.L521
 4545              	.LBB169:
 4546              		.loc 1 1236 0
 4547 0276 2168     		ldr	r1, [r4]
 4548 0278 A448     		ldr	r0, .L614
 4549              		.loc 1 1234 0
 4550 027a 0022     		movs	r2, #0
 4551              		.loc 1 1236 0
 4552 027c B1F5FA6F 		cmp	r1, #2000
 4553              		.loc 1 1237 0
 4554 0280 A8BF     		it	ge
 4555 0282 0260     		strge	r2, [r0]
 4556              		.loc 1 1234 0
 4557 0284 1A60     		str	r2, [r3]
 4558              		.loc 1 1241 0
 4559 0286 AB78     		ldrb	r3, [r5, #2]	@ zero_extendqisi2
 4560 0288 022B     		cmp	r3, #2
 4561 028a 00F0BF81 		beq	.L602
 4562              		.loc 1 1248 0
 4563 028e A34B     		ldr	r3, .L614+16
 4564              		.loc 1 1249 0
 4565 0290 A34D     		ldr	r5, .L614+20
 4566              		.loc 1 1248 0
 4567 0292 1F68     		ldr	r7, [r3]
 4568              		.loc 1 1249 0
 4569 0294 2368     		ldr	r3, [r4]
 4570 0296 2B44     		add	r3, r3, r5
 4571 0298 0022     		movs	r2, #0
 4572              		.loc 1 1248 0
 4573 029a BFB2     		uxth	r7, r7
 4574              	.LVL385:
 4575              		.loc 1 1249 0
 4576 029c 83F8082E 		strb	r2, [r3, #3592]
 4577              	.LVL386:
ARM GAS  /tmp/ccB9RVXV.s 			page 82


 4578              	.L568:
 4579              		.loc 1 1252 0
 4580 02a0 FFF7FEFF 		bl	mc_interface_get_state
 4581              	.LVL387:
 4582 02a4 0128     		cmp	r0, #1
 4583 02a6 00F06181 		beq	.L603
 4584              		.loc 1 1260 0
 4585 02aa 9E4A     		ldr	r2, .L614+24
 4586 02ac 2168     		ldr	r1, [r4]
 4587 02ae D2F80080 		ldr	r8, [r2]
 4588 02b2 9D4B     		ldr	r3, .L614+28
 4589              		.loc 1 1263 0
 4590 02b4 DFF8B0C2 		ldr	ip, .L614+92
 4591              		.loc 1 1264 0
 4592 02b8 DFF8A8E2 		ldr	lr, .L614+88
 4593              		.loc 1 1265 0
 4594 02bc 9B48     		ldr	r0, .L614+32
 4595              		.loc 1 1260 0
 4596 02be 1FFA88F8 		uxth	r8, r8
 4597 02c2 23F81180 		strh	r8, [r3, r1, lsl #1]	@ movhi
 4598              		.loc 1 1261 0
 4599 02c6 2168     		ldr	r1, [r4]
 4600 02c8 5268     		ldr	r2, [r2, #4]
 4601 02ca 03EB4103 		add	r3, r3, r1, lsl #1
 4602 02ce 92B2     		uxth	r2, r2
 4603 02d0 A3F8A02F 		strh	r2, [r3, #4000]	@ movhi
 4604              		.loc 1 1263 0
 4605 02d4 2268     		ldr	r2, [r4]
 4606 02d6 B188     		ldrh	r1, [r6, #4]
 4607 02d8 BBB2     		uxth	r3, r7
 4608 02da 0CEB4202 		add	r2, ip, r2, lsl #1
 4609 02de C91A     		subs	r1, r1, r3
 4610 02e0 89B2     		uxth	r1, r1
 4611 02e2 A2F8481E 		strh	r1, [r2, #3656]	@ movhi
 4612              		.loc 1 1264 0
 4613 02e6 2268     		ldr	r2, [r4]
 4614 02e8 7188     		ldrh	r1, [r6, #2]
 4615 02ea 0EEB4202 		add	r2, lr, r2, lsl #1
 4616 02ee C91A     		subs	r1, r1, r3
 4617 02f0 89B2     		uxth	r1, r1
 4618 02f2 A2F8F01C 		strh	r1, [r2, #3312]	@ movhi
 4619              		.loc 1 1265 0
 4620 02f6 2268     		ldr	r2, [r4]
 4621 02f8 3188     		ldrh	r1, [r6]
 4622 02fa 00EB4202 		add	r2, r0, r2, lsl #1
 4623 02fe CB1A     		subs	r3, r1, r3
 4624 0300 9BB2     		uxth	r3, r3
 4625 0302 A2F8983B 		strh	r3, [r2, #2968]	@ movhi
 4626              	.L570:
 4627              		.loc 1 1268 0
 4628 0306 2268     		ldr	r2, [r4]
 4629 0308 894B     		ldr	r3, .L614+36
 4630 030a 03EB4203 		add	r3, r3, r2, lsl #1
 4631 030e A3F8407A 		strh	r7, [r3, #2624]	@ movhi
 4632              		.loc 1 1269 0
 4633 0312 2668     		ldr	r6, [r4]
 4634 0314 FFF7FEFF 		bl	mc_interface_get_tot_current
ARM GAS  /tmp/ccB9RVXV.s 			page 83


 4635              	.LVL388:
 4636              		.loc 1 1270 0
 4637 0318 F2EE047A 		fconsts	s15, #36
 4638 031c 88EE278A 		fdivs	s16, s16, s15
 4639              	.LVL389:
 4640              		.loc 1 1269 0
 4641 0320 844A     		ldr	r2, .L614+40
 4642              		.loc 1 1270 0
 4643 0322 854B     		ldr	r3, .L614+44
 4644              		.loc 1 1269 0
 4645 0324 02EB4606 		add	r6, r2, r6, lsl #1
 4646 0328 DFED847A 		flds	s15, .L614+48
 4647 032c 20EE270A 		fmuls	s0, s0, s15
 4648              		.loc 1 1270 0
 4649 0330 BDEEC88A 		ftosizs	s16, s16
 4650              		.loc 1 1269 0
 4651 0334 BDEEC00A 		ftosizs	s0, s0
 4652              		.loc 1 1270 0
 4653 0338 18EE102A 		fmrs	r2, s16	@ int
 4654              		.loc 1 1269 0
 4655 033c 10EE101A 		fmrs	r1, s0	@ int
 4656 0340 89B2     		uxth	r1, r1
 4657 0342 A6F8E818 		strh	r1, [r6, #2280]	@ movhi
 4658              		.loc 1 1270 0
 4659 0346 2168     		ldr	r1, [r4]
 4660 0348 03EB4103 		add	r3, r3, r1, lsl #1
 4661 034c 92B2     		uxth	r2, r2
 4662 034e A3F89027 		strh	r2, [r3, #1936]	@ movhi
 4663              		.loc 1 1271 0
 4664 0352 2668     		ldr	r6, [r4]
 4665 0354 FFF7FEFF 		bl	mcpwm_get_comm_step
 4666              	.LVL390:
 4667 0358 0746     		mov	r7, r0
 4668              	.LVL391:
 4669 035a FFF7FEFF 		bl	mcpwm_read_hall_phase
 4670              	.LVL392:
 4671 035e 3544     		add	r5, r5, r6
 4672 0360 47EAC000 		orr	r0, r7, r0, lsl #3
 4673 0364 C7B2     		uxtb	r7, r0
 4674 0366 85F83876 		strb	r7, [r5, #1592]
 4675              		.loc 1 1273 0
 4676 036a 2268     		ldr	r2, [r4]
 4677              	.LBB170:
 4678              	.LBB171:
 4679              		.loc 1 902 0
 4680 036c 744B     		ldr	r3, .L614+52
 4681              	.LBE171:
 4682              	.LBE170:
 4683              		.loc 1 1273 0
 4684 036e 0132     		adds	r2, r2, #1
 4685 0370 2260     		str	r2, [r4]
 4686              	.LBB173:
 4687              	.LBB172:
 4688              		.loc 1 902 0
 4689 0372 1A68     		ldr	r2, [r3]	@ float
 4690              	.LBE172:
 4691              	.LBE173:
ARM GAS  /tmp/ccB9RVXV.s 			page 84


 4692              		.loc 1 1275 0
 4693 0374 1A60     		str	r2, [r3]	@ float
 4694              	.L521:
 4695              	.LBE169:
 4696              	.LBE168:
 4697              		.loc 1 1278 0
 4698 0376 BDEC048B 		fldmfdd	sp!, {d8-d9}
 4699              	.LVL393:
 4700 037a BDE8F883 		pop	{r3, r4, r5, r6, r7, r8, r9, pc}
 4701              	.LVL394:
 4702              	.L598:
 4703              		.loc 1 1059 0
 4704 037e D5ED0B7A 		flds	s15, [r5, #44]
 4705              	.LBB175:
 4706              	.LBB176:
 4707              		.loc 1 992 0
 4708 0382 704B     		ldr	r3, .L614+56
 4709              	.LBE176:
 4710              	.LBE175:
 4711              		.loc 1 1059 0
 4712 0384 B4EEE79A 		fcmpes	s18, s15
 4713 0388 F1EE10FA 		fmstat
 4714              	.LBB180:
 4715              	.LBB177:
 4716              		.loc 1 992 0
 4717 038c 1B78     		ldrb	r3, [r3]	@ zero_extendqisi2
 4718              	.LBE177:
 4719              	.LBE180:
 4720              		.loc 1 1059 0
 4721 038e 4CBF     		ite	mi
 4722 0390 0220     		movmi	r0, #2
 4723 0392 0120     		movpl	r0, #1
 4724              	.LVL395:
 4725              	.LBB181:
 4726              	.LBB178:
 4727              		.loc 1 992 0
 4728 0394 8342     		cmp	r3, r0
 4729 0396 7AD0     		beq	.L604
 4730 0398 FFF7FEFF 		bl	mc_interface_fault_stop.part.1
 4731              	.LVL396:
 4732 039c 5CE6     		b	.L525
 4733              	.L589:
 4734              	.LBE178:
 4735              	.LBE181:
 4736              		.loc 1 1063 0
 4737 039e 6A4B     		ldr	r3, .L614+60
 4738 03a0 0022     		movs	r2, #0
 4739 03a2 1A60     		str	r2, [r3]
 4740 03a4 58E6     		b	.L525
 4741              	.LVL397:
 4742              	.L552:
 4743              	.LBB182:
 4744              		.loc 1 1200 0
 4745 03a6 DFF8A481 		ldr	r8, .L614+64
 4746 03aa D8F80030 		ldr	r3, [r8]
 4747 03ae 002B     		cmp	r3, #0
 4748 03b0 78DB     		blt	.L576
ARM GAS  /tmp/ccB9RVXV.s 			page 85


 4749              		.loc 1 1201 0
 4750 03b2 574B     		ldr	r3, .L614+4
 4751 03b4 D8F80020 		ldr	r2, [r8]
 4752 03b8 1B68     		ldr	r3, [r3]
 4753              	.LVL398:
 4754              		.loc 1 1202 0
 4755 03ba D31A     		subs	r3, r2, r3
 4756              	.LVL399:
 4757 03bc 00F16F81 		bmi	.L605
 4758              	.LVL400:
 4759              	.L561:
 4760              		.loc 1 1207 0
 4761 03c0 524C     		ldr	r4, .L614
 4762 03c2 2268     		ldr	r2, [r4]
 4763 03c4 9A42     		cmp	r2, r3
 4764 03c6 00F08680 		beq	.L606
 4765              		.loc 1 1197 0
 4766 03ca 4FF00109 		mov	r9, #1
 4767              	.LVL401:
 4768              	.L562:
 4769              		.loc 1 1220 0
 4770 03ce 5D4B     		ldr	r3, .L614+56
 4771 03d0 1B78     		ldrb	r3, [r3]	@ zero_extendqisi2
 4772 03d2 33B1     		cbz	r3, .L557
 4773              	.LVL402:
 4774              	.L596:
 4775              		.loc 1 1220 0 is_stmt 0 discriminator 1
 4776 03d4 D8F80030 		ldr	r3, [r8]
 4777 03d8 5C4A     		ldr	r2, .L614+64
 4778 03da 002B     		cmp	r3, #0
 4779              		.loc 1 1221 0 is_stmt 1 discriminator 1
 4780 03dc BCBF     		itt	lt
 4781 03de 2368     		ldrlt	r3, [r4]
 4782 03e0 1360     		strlt	r3, [r2]
 4783              	.L557:
 4784              	.LVL403:
 4785              	.LBE182:
 4786              		.loc 1 1229 0
 4787 03e2 B9F1000F 		cmp	r9, #0
 4788 03e6 7FF43EAF 		bne	.L564
 4789              	.LVL404:
 4790              	.L609:
 4791              		.loc 1 1278 0
 4792 03ea BDEC048B 		fldmfdd	sp!, {d8-d9}
 4793              	.LVL405:
 4794 03ee BDE8F883 		pop	{r3, r4, r5, r6, r7, r8, r9, pc}
 4795              	.LVL406:
 4796              	.L551:
 4797              	.LBB193:
 4798              		.loc 1 1170 0
 4799 03f2 DFF85881 		ldr	r8, .L614+64
 4800 03f6 D8F80030 		ldr	r3, [r8]
 4801 03fa 002B     		cmp	r3, #0
 4802 03fc 4FDB     		blt	.L574
 4803              		.loc 1 1171 0
 4804 03fe 444B     		ldr	r3, .L614+4
 4805 0400 D8F80020 		ldr	r2, [r8]
ARM GAS  /tmp/ccB9RVXV.s 			page 86


 4806 0404 1B68     		ldr	r3, [r3]
 4807              	.LVL407:
 4808              		.loc 1 1172 0
 4809 0406 D31A     		subs	r3, r2, r3
 4810              	.LVL408:
 4811 0408 00F14C81 		bmi	.L607
 4812              	.LVL409:
 4813              	.L558:
 4814              		.loc 1 1177 0
 4815 040c 3F4C     		ldr	r4, .L614
 4816 040e 2268     		ldr	r2, [r4]
 4817 0410 9A42     		cmp	r2, r3
 4818 0412 6DD0     		beq	.L608
 4819              		.loc 1 1167 0
 4820 0414 4FF00109 		mov	r9, #1
 4821              	.LVL410:
 4822              	.L559:
 4823              		.loc 1 1190 0
 4824 0418 FFF7FEFF 		bl	mc_interface_get_state
 4825              	.LVL411:
 4826 041c 0228     		cmp	r0, #2
 4827 041e D9D0     		beq	.L596
 4828              	.LBE193:
 4829              		.loc 1 1229 0
 4830 0420 B9F1000F 		cmp	r9, #0
 4831 0424 7FF41FAF 		bne	.L564
 4832 0428 DFE7     		b	.L609
 4833              	.LVL412:
 4834              	.L550:
 4835              		.loc 1 1152 0
 4836 042a FFF7FEFF 		bl	mc_interface_get_state
 4837              	.LVL413:
 4838 042e 0228     		cmp	r0, #2
 4839 0430 364C     		ldr	r4, .L614
 4840 0432 31D0     		beq	.L573
 4841              		.loc 1 1152 0 is_stmt 0 discriminator 1
 4842 0434 2368     		ldr	r3, [r4]
 4843 0436 002B     		cmp	r3, #0
 4844 0438 D4BF     		ite	le
 4845 043a 4FF00009 		movle	r9, #0
 4846 043e 4FF00109 		movgt	r9, #1
 4847              	.L556:
 4848              	.LVL414:
 4849              		.loc 1 1156 0 is_stmt 1
 4850 0442 334B     		ldr	r3, .L614+4
 4851 0444 2268     		ldr	r2, [r4]
 4852 0446 1B68     		ldr	r3, [r3]
 4853 0448 9A42     		cmp	r2, r3
 4854 044a CAD1     		bne	.L557
 4855              		.loc 1 1157 0
 4856 044c 3A78     		ldrb	r2, [r7]	@ zero_extendqisi2
 4857 044e 404B     		ldr	r3, .L614+68
 4858 0450 D2B2     		uxtb	r2, r2
 4859              		.loc 1 1158 0
 4860 0452 4FF00008 		mov	r8, #0
 4861              		.loc 1 1157 0
 4862 0456 1A70     		strb	r2, [r3]
ARM GAS  /tmp/ccB9RVXV.s 			page 87


 4863              	.LBB204:
 4864              	.LBB205:
 4865              	.LBB206:
 4866              	.LBB207:
 4867              	.LBB208:
 4868              		.file 3 "ChibiOS_3.0.2/os/ext/CMSIS/include/core_cmFunc.h"
 4869              		.loc 3 546 0
 4870 0458 2023     		movs	r3, #32
 4871              	.LBE208:
 4872              	.LBE207:
 4873              	.LBE206:
 4874              	.LBE205:
 4875              	.LBE204:
 4876              		.loc 1 1158 0
 4877 045a 87F80080 		strb	r8, [r7]
 4878              	.LVL415:
 4879              	.LBB213:
 4880              	.LBB212:
 4881              	.LBB211:
 4882              	.LBB210:
 4883              	.LBB209:
 4884              		.loc 3 546 0
 4885              	@ 546 "ChibiOS_3.0.2/os/ext/CMSIS/include/core_cmFunc.h" 1
 4886 045e 83F31188 		MSR basepri, r3
 4887              	@ 0 "" 2
 4888              		.thumb
 4889              	.LBE209:
 4890              	.LBE210:
 4891              	.LBE211:
 4892              	.LBE212:
 4893              	.LBE213:
 4894              		.loc 1 1160 0
 4895 0462 3C4B     		ldr	r3, .L614+72
 4896 0464 0121     		movs	r1, #1
 4897 0466 1868     		ldr	r0, [r3]
 4898 0468 FFF7FEFF 		bl	chEvtSignalI
 4899              	.LVL416:
 4900              	.LBB214:
 4901              	.LBB215:
 4902              	.LBB216:
 4903              	.LBB217:
 4904              	.LBB218:
 4905              		.loc 3 546 0
 4906              	@ 546 "ChibiOS_3.0.2/os/ext/CMSIS/include/core_cmFunc.h" 1
 4907 046c 88F31188 		MSR basepri, r8
 4908              	@ 0 "" 2
 4909              		.thumb
 4910              	.LBE218:
 4911              	.LBE217:
 4912              	.LBE216:
 4913              	.LBE215:
 4914              	.LBE214:
 4915              		.loc 1 1229 0
 4916 0470 B9F1000F 		cmp	r9, #0
 4917 0474 7FF4F7AE 		bne	.L564
 4918 0478 B7E7     		b	.L609
 4919              	.LVL417:
ARM GAS  /tmp/ccB9RVXV.s 			page 88


 4920              	.L601:
 4921              	.LBB219:
 4922              	.LBB165:
 4923              		.loc 1 993 0
 4924 047a 374A     		ldr	r2, .L614+76
 4925 047c D3F84C31 		ldr	r3, [r3, #332]
 4926 0480 1360     		str	r3, [r2]
 4927 0482 54E6     		b	.L534
 4928              	.LVL418:
 4929              	.L600:
 4930              	.LBE165:
 4931              	.LBE219:
 4932              	.LBB220:
 4933              	.LBB161:
 4934 0484 344B     		ldr	r3, .L614+76
 4935 0486 D5F84C21 		ldr	r2, [r5, #332]
 4936 048a 1A60     		str	r2, [r3]
 4937 048c 5BE6     		b	.L538
 4938              	.LVL419:
 4939              	.L604:
 4940              	.LBE161:
 4941              	.LBE220:
 4942              	.LBB221:
 4943              	.LBB179:
 4944 048e 324B     		ldr	r3, .L614+76
 4945 0490 D5F84C21 		ldr	r2, [r5, #332]
 4946 0494 1A60     		str	r2, [r3]
 4947 0496 DFE5     		b	.L525
 4948              	.LVL420:
 4949              	.L573:
 4950              	.LBE179:
 4951              	.LBE221:
 4952              		.loc 1 1153 0
 4953 0498 4FF00109 		mov	r9, #1
 4954 049c D1E7     		b	.L556
 4955              	.LVL421:
 4956              	.L574:
 4957              	.LBB222:
 4958              		.loc 1 1169 0
 4959 049e 4FF0FF33 		mov	r3, #-1
 4960 04a2 B3E7     		b	.L558
 4961              	.LVL422:
 4962              	.L576:
 4963              	.LBE222:
 4964              	.LBB223:
 4965              		.loc 1 1199 0
 4966 04a4 4FF0FF33 		mov	r3, #-1
 4967 04a8 8AE7     		b	.L561
 4968              	.LVL423:
 4969              	.L599:
 4970              	.LBE223:
 4971              		.loc 1 1092 0
 4972 04aa FFF7FEFF 		bl	mcpwm_foc_get_abs_motor_current
 4973              	.LVL424:
 4974 04ae B0EE408A 		fcpys	s16, s0
 4975              	.LVL425:
 4976              		.loc 1 1093 0
ARM GAS  /tmp/ccB9RVXV.s 			page 89


 4977 04b2 FFF7FEFF 		bl	mcpwm_foc_get_abs_motor_current_filtered
 4978              	.LVL426:
 4979 04b6 2CE6     		b	.L532
 4980              	.LVL427:
 4981              	.L590:
 4982              	.LBB224:
 4983              		.loc 1 1127 0
 4984 04b8 2848     		ldr	r0, .L614+80
 4985              		.loc 1 1128 0
 4986 04ba 2949     		ldr	r1, .L614+84
 4987              		.loc 1 1127 0
 4988 04bc D0ED007A 		flds	s15, [r0]
 4989 04c0 77EEE97A 		fsubs	s15, s15, s19
 4990 04c4 C0ED007A 		fsts	s15, [r0]
 4991              		.loc 1 1128 0
 4992 04c8 D1ED007A 		flds	s15, [r1]
 4993 04cc E9EE697A 		vfms.f32	s15, s18, s19
 4994 04d0 C1ED007A 		fsts	s15, [r1]
 4995 04d4 71E6     		b	.L546
 4996              	.LVL428:
 4997              	.L606:
 4998              	.LBE224:
 4999              	.LBB225:
 5000              		.loc 1 1208 0
 5001 04d6 3A78     		ldrb	r2, [r7]	@ zero_extendqisi2
 5002 04d8 1D4B     		ldr	r3, .L614+68
 5003              	.LVL429:
 5004 04da D2B2     		uxtb	r2, r2
 5005 04dc 1A70     		strb	r2, [r3]
 5006              	.LVL430:
 5007              		.loc 1 1211 0
 5008 04de 3B78     		ldrb	r3, [r7]	@ zero_extendqisi2
 5009 04e0 042B     		cmp	r3, #4
 5010 04e2 00F0C480 		beq	.L610
 5011              	.LVL431:
 5012              	.L563:
 5013              		.loc 1 1217 0
 5014 04e6 4FF00009 		mov	r9, #0
 5015 04ea 87F80090 		strb	r9, [r7]
 5016 04ee 6EE7     		b	.L562
 5017              	.LVL432:
 5018              	.L608:
 5019              	.LBE225:
 5020              	.LBB226:
 5021              		.loc 1 1178 0
 5022 04f0 3A78     		ldrb	r2, [r7]	@ zero_extendqisi2
 5023 04f2 174B     		ldr	r3, .L614+68
 5024              	.LVL433:
 5025 04f4 D2B2     		uxtb	r2, r2
 5026 04f6 1A70     		strb	r2, [r3]
 5027              	.LVL434:
 5028              		.loc 1 1181 0
 5029 04f8 3B78     		ldrb	r3, [r7]	@ zero_extendqisi2
 5030 04fa 032B     		cmp	r3, #3
 5031 04fc 00F0C380 		beq	.L611
 5032              	.LVL435:
 5033              	.L560:
ARM GAS  /tmp/ccB9RVXV.s 			page 90


 5034              		.loc 1 1187 0
 5035 0500 4FF00009 		mov	r9, #0
 5036 0504 87F80090 		strb	r9, [r7]
 5037 0508 86E7     		b	.L559
 5038              	.L615:
 5039 050a 00BF     		.align	2
 5040              	.L614:
 5041 050c 00000000 		.word	.LANCHOR35
 5042 0510 00000000 		.word	.LANCHOR2
 5043 0514 00000000 		.word	.LANCHOR45
 5044 0518 00000000 		.word	.LANCHOR34
 5045 051c 00000000 		.word	mcpwm_vzero
 5046 0520 C8760000 		.word	.LANCHOR11
 5047 0524 00000000 		.word	.LANCHOR46
 5048 0528 00000000 		.word	.LANCHOR4
 5049 052c E8320000 		.word	.LANCHOR7
 5050 0530 E0430000 		.word	.LANCHOR8
 5051 0534 D8540000 		.word	.LANCHOR9
 5052 0538 D0650000 		.word	.LANCHOR10
 5053 053c A48BC642 		.word	1120308132
 5054 0540 00000000 		.word	.LANCHOR31
 5055 0544 00000000 		.word	.LANCHOR13
 5056 0548 00000000 		.word	.LANCHOR42
 5057 054c 00000000 		.word	.LANCHOR3
 5058 0550 00000000 		.word	.LANCHOR1
 5059 0554 00000000 		.word	.LANCHOR0
 5060 0558 00000000 		.word	.LANCHOR14
 5061 055c 00000000 		.word	.LANCHOR27
 5062 0560 00000000 		.word	.LANCHOR29
 5063 0564 F0210000 		.word	.LANCHOR6
 5064 0568 F8100000 		.word	.LANCHOR5
 5065              	.LVL436:
 5066              	.L603:
 5067              	.LBE226:
 5068              	.LBB227:
 5069              	.LBB174:
 5070              		.loc 1 1253 0
 5071 056c D4F80080 		ldr	r8, [r4]
 5072 0570 4E4E     		ldr	r6, .L616
 5073 0572 FFF7FEFF 		bl	mcpwm_get_comm_step
 5074              	.LVL437:
 5075 0576 4E4B     		ldr	r3, .L616+4
 5076 0578 0138     		subs	r0, r0, #1
 5077 057a 03EB8003 		add	r3, r3, r0, lsl #2
 5078 057e D3ED007A 		flds	s15, [r3]
 5079 0582 FDEEE77A 		ftosizs	s15, s15
 5080 0586 17EE903A 		fmrs	r3, s15	@ int
 5081 058a 9BB2     		uxth	r3, r3
 5082 058c 26F81830 		strh	r3, [r6, r8, lsl #1]	@ movhi
 5083              		.loc 1 1254 0
 5084 0590 D4F80080 		ldr	r8, [r4]
 5085 0594 FFF7FEFF 		bl	mcpwm_get_comm_step
 5086              	.LVL438:
 5087 0598 DFF83CC1 		ldr	ip, .L616+44
 5088              		.loc 1 1256 0
 5089 059c 454B     		ldr	r3, .L616+8
 5090 059e DFF83CE1 		ldr	lr, .L616+48
ARM GAS  /tmp/ccB9RVXV.s 			page 91


 5091              		.loc 1 1257 0
 5092 05a2 4549     		ldr	r1, .L616+12
 5093              		.loc 1 1258 0
 5094 05a4 454A     		ldr	r2, .L616+16
 5095              		.loc 1 1254 0
 5096 05a6 0138     		subs	r0, r0, #1
 5097 05a8 0CEB800C 		add	ip, ip, r0, lsl #2
 5098 05ac DCED007A 		flds	s15, [ip]
 5099 05b0 FDEEE77A 		ftosizs	s15, s15
 5100 05b4 06EB4806 		add	r6, r6, r8, lsl #1
 5101 05b8 17EE900A 		fmrs	r0, s15	@ int
 5102 05bc 80B2     		uxth	r0, r0
 5103 05be A6F8A00F 		strh	r0, [r6, #4000]	@ movhi
 5104              		.loc 1 1256 0
 5105 05c2 2668     		ldr	r6, [r4]
 5106 05c4 D3ED007A 		flds	s15, [r3]
 5107 05c8 FDEEE77A 		ftosizs	s15, s15
 5108 05cc 0EEB460E 		add	lr, lr, r6, lsl #1
 5109 05d0 17EE900A 		fmrs	r0, s15	@ int
 5110 05d4 80B2     		uxth	r0, r0
 5111 05d6 AEF8480E 		strh	r0, [lr, #3656]	@ movhi
 5112              		.loc 1 1257 0
 5113 05da 2668     		ldr	r6, [r4]
 5114 05dc D3ED017A 		flds	s15, [r3, #4]
 5115 05e0 FDEEE77A 		ftosizs	s15, s15
 5116 05e4 01EB4601 		add	r1, r1, r6, lsl #1
 5117 05e8 17EE900A 		fmrs	r0, s15	@ int
 5118 05ec 80B2     		uxth	r0, r0
 5119 05ee A1F8F00C 		strh	r0, [r1, #3312]	@ movhi
 5120              		.loc 1 1258 0
 5121 05f2 2168     		ldr	r1, [r4]
 5122 05f4 D3ED027A 		flds	s15, [r3, #8]
 5123 05f8 FDEEE77A 		ftosizs	s15, s15
 5124 05fc 02EB4102 		add	r2, r2, r1, lsl #1
 5125 0600 17EE903A 		fmrs	r3, s15	@ int
 5126 0604 9BB2     		uxth	r3, r3
 5127 0606 A2F8983B 		strh	r3, [r2, #2968]	@ movhi
 5128 060a 7CE6     		b	.L570
 5129              	.LVL439:
 5130              	.L602:
 5131              		.loc 1 1242 0
 5132 060c B188     		ldrh	r1, [r6, #4]
 5133 060e 7288     		ldrh	r2, [r6, #2]
 5134 0610 3788     		ldrh	r7, [r6]
 5135 0612 2B4B     		ldr	r3, .L616+20
 5136              		.loc 1 1243 0
 5137 0614 D4F80080 		ldr	r8, [r4]
 5138 0618 2A4D     		ldr	r5, .L616+24
 5139              		.loc 1 1242 0
 5140 061a 92B2     		uxth	r2, r2
 5141 061c 12FA81F2 		uxtah	r2, r2, r1
 5142 0620 12FA87F7 		uxtah	r7, r2, r7
 5143 0624 83FB0727 		smull	r2, r7, r3, r7
 5144              		.loc 1 1243 0
 5145 0628 FFF7FEFF 		bl	mcpwm_foc_get_phase
 5146              	.LVL440:
 5147 062c 9FED267A 		flds	s14, .L616+28
ARM GAS  /tmp/ccB9RVXV.s 			page 92


 5148 0630 DFED267A 		flds	s15, .L616+32
 5149 0634 80EE070A 		fdivs	s0, s0, s14
 5150 0638 A844     		add	r8, r8, r5
 5151              		.loc 1 1242 0
 5152 063a BFB2     		uxth	r7, r7
 5153              	.LVL441:
 5154              		.loc 1 1243 0
 5155 063c 60EE277A 		fmuls	s15, s0, s15
 5156 0640 FCEEE77A 		ftouizs	s15, s15
 5157 0644 17EE903A 		fmrs	r3, s15	@ int
 5158 0648 DBB2     		uxtb	r3, r3
 5159 064a 88F8083E 		strb	r3, [r8, #3592]
 5160 064e 27E6     		b	.L568
 5161              	.LVL442:
 5162              	.L553:
 5163              	.LBE174:
 5164              	.LBE227:
 5165              		.loc 1 1142 0
 5166 0650 1F4A     		ldr	r2, .L616+36
 5167              		.loc 1 1141 0
 5168 0652 0024     		movs	r4, #0
 5169              		.loc 1 1142 0
 5170 0654 0121     		movs	r1, #1
 5171              		.loc 1 1141 0
 5172 0656 3C70     		strb	r4, [r7]
 5173              	.LBB228:
 5174              	.LBB229:
 5175              	.LBB230:
 5176              	.LBB231:
 5177              	.LBB232:
 5178              		.loc 3 546 0
 5179 0658 2023     		movs	r3, #32
 5180              	.LBE232:
 5181              	.LBE231:
 5182              	.LBE230:
 5183              	.LBE229:
 5184              	.LBE228:
 5185              		.loc 1 1142 0
 5186 065a 1170     		strb	r1, [r2]
 5187              	.LVL443:
 5188              	.LBB237:
 5189              	.LBB236:
 5190              	.LBB235:
 5191              	.LBB234:
 5192              	.LBB233:
 5193              		.loc 3 546 0
 5194              	@ 546 "ChibiOS_3.0.2/os/ext/CMSIS/include/core_cmFunc.h" 1
 5195 065c 83F31188 		MSR basepri, r3
 5196              	@ 0 "" 2
 5197              		.thumb
 5198              	.LBE233:
 5199              	.LBE234:
 5200              	.LBE235:
 5201              	.LBE236:
 5202              	.LBE237:
 5203              		.loc 1 1144 0
 5204 0660 1C4B     		ldr	r3, .L616+40
ARM GAS  /tmp/ccB9RVXV.s 			page 93


 5205 0662 1868     		ldr	r0, [r3]
 5206 0664 FFF7FEFF 		bl	chEvtSignalI
 5207              	.LVL444:
 5208              	.LBB238:
 5209              	.LBB239:
 5210              	.LBB240:
 5211              	.LBB241:
 5212              	.LBB242:
 5213              		.loc 3 546 0
 5214              	@ 546 "ChibiOS_3.0.2/os/ext/CMSIS/include/core_cmFunc.h" 1
 5215 0668 84F31188 		MSR basepri, r4
 5216              	@ 0 "" 2
 5217              		.thumb
 5218 066c 83E6     		b	.L521
 5219              	.LVL445:
 5220              	.L610:
 5221              	.LBE242:
 5222              	.LBE241:
 5223              	.LBE240:
 5224              	.LBE239:
 5225              	.LBE238:
 5226              	.LBB243:
 5227              	.LBB183:
 5228              	.LBB184:
 5229              	.LBB185:
 5230              	.LBB186:
 5231              	.LBB187:
 5232 066e 2023     		movs	r3, #32
 5233              	@ 546 "ChibiOS_3.0.2/os/ext/CMSIS/include/core_cmFunc.h" 1
 5234 0670 83F31188 		MSR basepri, r3
 5235              	@ 0 "" 2
 5236              		.thumb
 5237              	.LBE187:
 5238              	.LBE186:
 5239              	.LBE185:
 5240              	.LBE184:
 5241              	.LBE183:
 5242              		.loc 1 1213 0
 5243 0674 174B     		ldr	r3, .L616+40
 5244 0676 0121     		movs	r1, #1
 5245 0678 1868     		ldr	r0, [r3]
 5246 067a FFF7FEFF 		bl	chEvtSignalI
 5247              	.LVL446:
 5248              	.LBB188:
 5249              	.LBB189:
 5250              	.LBB190:
 5251              	.LBB191:
 5252              	.LBB192:
 5253              		.loc 3 546 0
 5254 067e 0023     		movs	r3, #0
 5255              	@ 546 "ChibiOS_3.0.2/os/ext/CMSIS/include/core_cmFunc.h" 1
 5256 0680 83F31188 		MSR basepri, r3
 5257              	@ 0 "" 2
 5258              		.thumb
 5259 0684 2FE7     		b	.L563
 5260              	.LVL447:
 5261              	.L611:
ARM GAS  /tmp/ccB9RVXV.s 			page 94


 5262              	.LBE192:
 5263              	.LBE191:
 5264              	.LBE190:
 5265              	.LBE189:
 5266              	.LBE188:
 5267              	.LBE243:
 5268              	.LBB244:
 5269              	.LBB194:
 5270              	.LBB195:
 5271              	.LBB196:
 5272              	.LBB197:
 5273              	.LBB198:
 5274 0686 2023     		movs	r3, #32
 5275              	@ 546 "ChibiOS_3.0.2/os/ext/CMSIS/include/core_cmFunc.h" 1
 5276 0688 83F31188 		MSR basepri, r3
 5277              	@ 0 "" 2
 5278              		.thumb
 5279              	.LBE198:
 5280              	.LBE197:
 5281              	.LBE196:
 5282              	.LBE195:
 5283              	.LBE194:
 5284              		.loc 1 1183 0
 5285 068c 114B     		ldr	r3, .L616+40
 5286 068e 0121     		movs	r1, #1
 5287 0690 1868     		ldr	r0, [r3]
 5288 0692 FFF7FEFF 		bl	chEvtSignalI
 5289              	.LVL448:
 5290              	.LBB199:
 5291              	.LBB200:
 5292              	.LBB201:
 5293              	.LBB202:
 5294              	.LBB203:
 5295              		.loc 3 546 0
 5296 0696 0023     		movs	r3, #0
 5297              	@ 546 "ChibiOS_3.0.2/os/ext/CMSIS/include/core_cmFunc.h" 1
 5298 0698 83F31188 		MSR basepri, r3
 5299              	@ 0 "" 2
 5300              		.thumb
 5301 069c 30E7     		b	.L560
 5302              	.LVL449:
 5303              	.L605:
 5304              	.LBE203:
 5305              	.LBE202:
 5306              	.LBE201:
 5307              	.LBE200:
 5308              	.LBE199:
 5309              	.LBE244:
 5310              	.LBB245:
 5311              		.loc 1 1203 0
 5312 069e 03F5FA63 		add	r3, r3, #2000
 5313              	.LVL450:
 5314 06a2 8DE6     		b	.L561
 5315              	.LVL451:
 5316              	.L607:
 5317              	.LBE245:
 5318              	.LBB246:
ARM GAS  /tmp/ccB9RVXV.s 			page 95


 5319              		.loc 1 1173 0
 5320 06a4 03F5FA63 		add	r3, r3, #2000
 5321              	.LVL452:
 5322 06a8 B0E6     		b	.L558
 5323              	.L617:
 5324 06aa 00BF     		.align	2
 5325              	.L616:
 5326 06ac 00000000 		.word	.LANCHOR4
 5327 06b0 00000000 		.word	mcpwm_detect_currents
 5328 06b4 00000000 		.word	mcpwm_detect_voltages
 5329 06b8 F0210000 		.word	.LANCHOR6
 5330 06bc E8320000 		.word	.LANCHOR7
 5331 06c0 56555555 		.word	1431655766
 5332 06c4 C8760000 		.word	.LANCHOR11
 5333 06c8 0000B443 		.word	1135869952
 5334 06cc 00007A43 		.word	1132068864
 5335 06d0 00000000 		.word	.LANCHOR1
 5336 06d4 00000000 		.word	.LANCHOR0
 5337 06d8 00000000 		.word	mcpwm_detect_currents_diff
 5338 06dc F8100000 		.word	.LANCHOR5
 5339              	.LBE246:
 5340              		.cfi_endproc
 5341              	.LFE307:
 5342              		.size	mc_interface_mc_timer_isr, .-mc_interface_mc_timer_isr
 5343              		.section	.text.mc_interface_adc_inj_int_handler,"ax",%progbits
 5344              		.align	2
 5345              		.p2align 4,,15
 5346              		.global	mc_interface_adc_inj_int_handler
 5347              		.thumb
 5348              		.thumb_func
 5349              		.type	mc_interface_adc_inj_int_handler, %function
 5350              	mc_interface_adc_inj_int_handler:
 5351              	.LFB308:
 5352              		.loc 1 1280 0
 5353              		.cfi_startproc
 5354              		@ args = 0, pretend = 0, frame = 0
 5355              		@ frame_needed = 0, uses_anonymous_args = 0
 5356              		@ link register save eliminated.
 5357              		.loc 1 1281 0
 5358 0000 034B     		ldr	r3, .L622
 5359 0002 9B78     		ldrb	r3, [r3, #2]	@ zero_extendqisi2
 5360 0004 012B     		cmp	r3, #1
 5361 0006 00D9     		bls	.L621
 5362 0008 7047     		bx	lr
 5363              	.L621:
 5364              		.loc 1 1284 0
 5365 000a FFF7FEBF 		b	mcpwm_adc_inj_int_handler
 5366              	.LVL453:
 5367              	.L623:
 5368 000e 00BF     		.align	2
 5369              	.L622:
 5370 0010 00000000 		.word	.LANCHOR12
 5371              		.cfi_endproc
 5372              	.LFE308:
 5373              		.size	mc_interface_adc_inj_int_handler, .-mc_interface_adc_inj_int_handler
 5374              		.global	ADC_curr_norm_value
 5375              		.global	ADC_Value
ARM GAS  /tmp/ccB9RVXV.s 			page 96


 5376 0014 AFF30080 		.section	.bss.m_sample_trigger,"aw",%nobits
 5376      AFF30080 
 5376      AFF30080 
 5377              		.align	2
 5378              		.set	.LANCHOR3,. + 0
 5379              		.type	m_sample_trigger, %object
 5380              		.size	m_sample_trigger, 4
 5381              	m_sample_trigger:
 5382 0000 00000000 		.space	4
 5383              		.section	.bss.a.10716,"aw",%nobits
 5384              		.align	2
 5385              		.set	.LANCHOR45,. + 0
 5386              		.type	a.10716, %object
 5387              		.size	a.10716, 4
 5388              	a.10716:
 5389 0000 00000000 		.space	4
 5390              		.section	.bss.m_sample_int,"aw",%nobits
 5391              		.align	2
 5392              		.set	.LANCHOR34,. + 0
 5393              		.type	m_sample_int, %object
 5394              		.size	m_sample_int, 4
 5395              	m_sample_int:
 5396 0000 00000000 		.space	4
 5397              		.section	.bss.curr_diff_sum.10703,"aw",%nobits
 5398              		.align	2
 5399              		.set	.LANCHOR43,. + 0
 5400              		.type	curr_diff_sum.10703, %object
 5401              		.size	curr_diff_sum.10703, 4
 5402              	curr_diff_sum.10703:
 5403 0000 00000000 		.space	4
 5404              		.section	.bss.m_watt_seconds_charged,"aw",%nobits
 5405              		.align	2
 5406              		.set	.LANCHOR29,. + 0
 5407              		.type	m_watt_seconds_charged, %object
 5408              		.size	m_watt_seconds_charged, 4
 5409              	m_watt_seconds_charged:
 5410 0000 00000000 		.space	4
 5411              		.section	.ram4,"aw",%progbits
 5412              		.align	2
 5413              		.set	.LANCHOR4,. + 0
 5414              		.set	.LANCHOR5,. + 4344
 5415              		.set	.LANCHOR6,. + 8688
 5416              		.set	.LANCHOR7,. + 13032
 5417              		.set	.LANCHOR8,. + 17376
 5418              		.set	.LANCHOR9,. + 21720
 5419              		.set	.LANCHOR10,. + 26064
 5420              		.set	.LANCHOR11,. + 30408
 5421              		.type	m_curr0_samples, %object
 5422              		.size	m_curr0_samples, 4000
 5423              	m_curr0_samples:
 5424 0000 00000000 		.space	4000
 5424      00000000 
 5424      00000000 
 5424      00000000 
 5424      00000000 
 5425              		.type	m_curr1_samples, %object
 5426              		.size	m_curr1_samples, 4000
ARM GAS  /tmp/ccB9RVXV.s 			page 97


 5427              	m_curr1_samples:
 5428 0fa0 00000000 		.space	4000
 5428      00000000 
 5428      00000000 
 5428      00000000 
 5428      00000000 
 5429              		.type	m_ph1_samples, %object
 5430              		.size	m_ph1_samples, 4000
 5431              	m_ph1_samples:
 5432 1f40 00000000 		.space	4000
 5432      00000000 
 5432      00000000 
 5432      00000000 
 5432      00000000 
 5433              		.type	m_ph2_samples, %object
 5434              		.size	m_ph2_samples, 4000
 5435              	m_ph2_samples:
 5436 2ee0 00000000 		.space	4000
 5436      00000000 
 5436      00000000 
 5436      00000000 
 5436      00000000 
 5437              		.type	m_ph3_samples, %object
 5438              		.size	m_ph3_samples, 4000
 5439              	m_ph3_samples:
 5440 3e80 00000000 		.space	4000
 5440      00000000 
 5440      00000000 
 5440      00000000 
 5440      00000000 
 5441              		.type	m_vzero_samples, %object
 5442              		.size	m_vzero_samples, 4000
 5443              	m_vzero_samples:
 5444 4e20 00000000 		.space	4000
 5444      00000000 
 5444      00000000 
 5444      00000000 
 5444      00000000 
 5445              		.type	m_curr_fir_samples, %object
 5446              		.size	m_curr_fir_samples, 4000
 5447              	m_curr_fir_samples:
 5448 5dc0 00000000 		.space	4000
 5448      00000000 
 5448      00000000 
 5448      00000000 
 5448      00000000 
 5449              		.type	m_f_sw_samples, %object
 5450              		.size	m_f_sw_samples, 4000
 5451              	m_f_sw_samples:
 5452 6d60 00000000 		.space	4000
 5452      00000000 
 5452      00000000 
 5452      00000000 
 5452      00000000 
 5453              		.type	m_status_samples, %object
 5454              		.size	m_status_samples, 2000
 5455              	m_status_samples:
ARM GAS  /tmp/ccB9RVXV.s 			page 98


 5456 7d00 00000000 		.space	2000
 5456      00000000 
 5456      00000000 
 5456      00000000 
 5456      00000000 
 5457              		.type	m_phase_samples, %object
 5458              		.size	m_phase_samples, 2000
 5459              	m_phase_samples:
 5460 84d0 00000000 		.space	2000
 5460      00000000 
 5460      00000000 
 5460      00000000 
 5460      00000000 
 5461              		.section	.bss.m_motor_iq_sum,"aw",%nobits
 5462              		.align	2
 5463              		.set	.LANCHOR23,. + 0
 5464              		.type	m_motor_iq_sum, %object
 5465              		.size	m_motor_iq_sum, 4
 5466              	m_motor_iq_sum:
 5467 0000 00000000 		.space	4
 5468              		.section	.bss.m_motor_id_sum,"aw",%nobits
 5469              		.align	2
 5470              		.set	.LANCHOR22,. + 0
 5471              		.type	m_motor_id_sum, %object
 5472              		.size	m_motor_id_sum, 4
 5473              	m_motor_id_sum:
 5474 0000 00000000 		.space	4
 5475              		.section	.bss.ADC_Value,"aw",%nobits
 5476              		.align	2
 5477              		.set	.LANCHOR41,. + 0
 5478              		.type	ADC_Value, %object
 5479              		.size	ADC_Value, 24
 5480              	ADC_Value:
 5481 0000 00000000 		.space	24
 5481      00000000 
 5481      00000000 
 5481      00000000 
 5481      00000000 
 5482              		.section	.bss.m_motor_current_iterations,"aw",%nobits
 5483              		.align	2
 5484              		.set	.LANCHOR20,. + 0
 5485              		.type	m_motor_current_iterations, %object
 5486              		.size	m_motor_current_iterations, 4
 5487              	m_motor_current_iterations:
 5488 0000 00000000 		.space	4
 5489              		.section	.bss.m_last_adc_duration_sample,"aw",%nobits
 5490              		.align	2
 5491              		.set	.LANCHOR31,. + 0
 5492              		.type	m_last_adc_duration_sample, %object
 5493              		.size	m_last_adc_duration_sample, 4
 5494              	m_last_adc_duration_sample:
 5495 0000 00000000 		.space	4
 5496              		.section	.bss.m_motor_iq_iterations,"aw",%nobits
 5497              		.align	2
 5498              		.set	.LANCHOR25,. + 0
 5499              		.type	m_motor_iq_iterations, %object
 5500              		.size	m_motor_iq_iterations, 4
ARM GAS  /tmp/ccB9RVXV.s 			page 99


 5501              	m_motor_iq_iterations:
 5502 0000 00000000 		.space	4
 5503              		.section	.bss.m_amp_seconds_charged,"aw",%nobits
 5504              		.align	2
 5505              		.set	.LANCHOR27,. + 0
 5506              		.type	m_amp_seconds_charged, %object
 5507              		.size	m_amp_seconds_charged, 4
 5508              	m_amp_seconds_charged:
 5509 0000 00000000 		.space	4
 5510              		.section	.bss.pwn_done_func,"aw",%nobits
 5511              		.align	2
 5512              		.set	.LANCHOR39,. + 0
 5513              		.type	pwn_done_func, %object
 5514              		.size	pwn_done_func, 4
 5515              	pwn_done_func:
 5516 0000 00000000 		.space	4
 5517              		.section	.bss.m_input_current_sum,"aw",%nobits
 5518              		.align	2
 5519              		.set	.LANCHOR19,. + 0
 5520              		.type	m_input_current_sum, %object
 5521              		.size	m_input_current_sum, 4
 5522              	m_input_current_sum:
 5523 0000 00000000 		.space	4
 5524              		.section	.bss.curr_diff_samples.10704,"aw",%nobits
 5525              		.align	2
 5526              		.set	.LANCHOR44,. + 0
 5527              		.type	curr_diff_samples.10704, %object
 5528              		.size	curr_diff_samples.10704, 4
 5529              	curr_diff_samples.10704:
 5530 0000 00000000 		.space	4
 5531              		.section	.bss.m_sample_len,"aw",%nobits
 5532              		.align	2
 5533              		.set	.LANCHOR2,. + 0
 5534              		.type	m_sample_len, %object
 5535              		.size	m_sample_len, 4
 5536              	m_sample_len:
 5537 0000 00000000 		.space	4
 5538              		.section	.bss.m_conf,"aw",%nobits
 5539              		.align	2
 5540              		.set	.LANCHOR12,. + 0
 5541              		.type	m_conf, %object
 5542              		.size	m_conf, 372
 5543              	m_conf:
 5544 0000 00000000 		.space	372
 5544      00000000 
 5544      00000000 
 5544      00000000 
 5544      00000000 
 5545              		.section	.bss.m_fault_now,"aw",%nobits
 5546              		.set	.LANCHOR13,. + 0
 5547              		.type	m_fault_now, %object
 5548              		.size	m_fault_now, 1
 5549              	m_fault_now:
 5550 0000 00       		.space	1
 5551              		.section	.bss.sample_send_tp,"aw",%nobits
 5552              		.align	2
 5553              		.set	.LANCHOR0,. + 0
ARM GAS  /tmp/ccB9RVXV.s 			page 100


 5554              		.type	sample_send_tp, %object
 5555              		.size	sample_send_tp, 4
 5556              	sample_send_tp:
 5557 0000 00000000 		.space	4
 5558              		.section	.rodata.str1.4,"aMS",%progbits,1
 5559              		.align	2
 5560              	.LC0:
 5561 0000 53616D70 		.ascii	"SampleSender\000"
 5561      6C655365 
 5561      6E646572 
 5561      00
 5562 000d 000000   		.space	3
 5563              	.LC1:
 5564 0010 4641554C 		.ascii	"FAULT_UNKNOWN\000"
 5564      545F554E 
 5564      4B4E4F57 
 5564      4E00
 5565 001e 0000     		.space	2
 5566              	.LC2:
 5567 0020 6D636966 		.ascii	"mcif timer\000"
 5567      2074696D 
 5567      657200
 5568 002b 00       		.space	1
 5569              	.LC3:
 5570 002c 4641554C 		.ascii	"FAULT_CODE_NONE\000"
 5570      545F434F 
 5570      44455F4E 
 5570      4F4E4500 
 5571              	.LC4:
 5572 003c 4641554C 		.ascii	"FAULT_CODE_OVER_VOLTAGE\000"
 5572      545F434F 
 5572      44455F4F 
 5572      5645525F 
 5572      564F4C54 
 5573              	.LC5:
 5574 0054 4641554C 		.ascii	"FAULT_CODE_UNDER_VOLTAGE\000"
 5574      545F434F 
 5574      44455F55 
 5574      4E444552 
 5574      5F564F4C 
 5575 006d 000000   		.space	3
 5576              	.LC6:
 5577 0070 4641554C 		.ascii	"FAULT_CODE_DRV\000"
 5577      545F434F 
 5577      44455F44 
 5577      525600
 5578 007f 00       		.space	1
 5579              	.LC7:
 5580 0080 4641554C 		.ascii	"FAULT_CODE_ABS_OVER_CURRENT\000"
 5580      545F434F 
 5580      44455F41 
 5580      42535F4F 
 5580      5645525F 
 5581              	.LC8:
 5582 009c 4641554C 		.ascii	"FAULT_CODE_OVER_TEMP_FET\000"
 5582      545F434F 
 5582      44455F4F 
ARM GAS  /tmp/ccB9RVXV.s 			page 101


 5582      5645525F 
 5582      54454D50 
 5583 00b5 000000   		.space	3
 5584              	.LC9:
 5585 00b8 4641554C 		.ascii	"FAULT_CODE_OVER_TEMP_MOTOR\000"
 5585      545F434F 
 5585      44455F4F 
 5585      5645525F 
 5585      54454D50 
 5586 00d3 00       		.section	.bss.m_cycles_running,"aw",%nobits
 5587              		.align	2
 5588              		.set	.LANCHOR15,. + 0
 5589              		.type	m_cycles_running, %object
 5590              		.size	m_cycles_running, 4
 5591              	m_cycles_running:
 5592 0000 00000000 		.space	4
 5593              		.section	.rodata.CSWTCH.191,"a",%progbits
 5594              		.align	2
 5595              		.set	.LANCHOR40,. + 0
 5596              		.type	CSWTCH.191, %object
 5597              		.size	CSWTCH.191, 28
 5598              	CSWTCH.191:
 5599 0000 2C000000 		.word	.LC3
 5600 0004 3C000000 		.word	.LC4
 5601 0008 54000000 		.word	.LC5
 5602 000c 70000000 		.word	.LC6
 5603 0010 80000000 		.word	.LC7
 5604 0014 9C000000 		.word	.LC8
 5605 0018 B8000000 		.word	.LC9
 5606              		.section	.bss.m_temp_fet,"aw",%nobits
 5607              		.align	2
 5608              		.set	.LANCHOR32,. + 0
 5609              		.type	m_temp_fet, %object
 5610              		.size	m_temp_fet, 4
 5611              	m_temp_fet:
 5612 0000 00000000 		.space	4
 5613              		.section	.bss.m_motor_id_iterations,"aw",%nobits
 5614              		.align	2
 5615              		.set	.LANCHOR24,. + 0
 5616              		.type	m_motor_id_iterations, %object
 5617              		.size	m_motor_id_iterations, 4
 5618              	m_motor_id_iterations:
 5619 0000 00000000 		.space	4
 5620              		.section	.bss.m_motor_current_sum,"aw",%nobits
 5621              		.align	2
 5622              		.set	.LANCHOR18,. + 0
 5623              		.type	m_motor_current_sum, %object
 5624              		.size	m_motor_current_sum, 4
 5625              	m_motor_current_sum:
 5626 0000 00000000 		.space	4
 5627              		.section	.bss.m_input_current_iterations,"aw",%nobits
 5628              		.align	2
 5629              		.set	.LANCHOR21,. + 0
 5630              		.type	m_input_current_iterations, %object
 5631              		.size	m_input_current_iterations, 4
 5632              	m_input_current_iterations:
 5633 0000 00000000 		.space	4
ARM GAS  /tmp/ccB9RVXV.s 			page 102


 5634              		.section	.bss.m_amp_seconds,"aw",%nobits
 5635              		.align	2
 5636              		.set	.LANCHOR26,. + 0
 5637              		.type	m_amp_seconds, %object
 5638              		.size	m_amp_seconds, 4
 5639              	m_amp_seconds:
 5640 0000 00000000 		.space	4
 5641              		.section	.bss.sample_send_thread_wa,"aw",%nobits
 5642              		.align	3
 5643              		.set	.LANCHOR38,. + 0
 5644              		.type	sample_send_thread_wa, %object
 5645              		.size	sample_send_thread_wa, 1432
 5646              	sample_send_thread_wa:
 5647 0000 00000000 		.space	1432
 5647      00000000 
 5647      00000000 
 5647      00000000 
 5647      00000000 
 5648              		.section	.bss.m_ignore_iterations,"aw",%nobits
 5649              		.align	2
 5650              		.set	.LANCHOR14,. + 0
 5651              		.type	m_ignore_iterations, %object
 5652              		.size	m_ignore_iterations, 4
 5653              	m_ignore_iterations:
 5654 0000 00000000 		.space	4
 5655              		.section	.bss.m_sample_mode_last,"aw",%nobits
 5656              		.set	.LANCHOR1,. + 0
 5657              		.type	m_sample_mode_last, %object
 5658              		.size	m_sample_mode_last, 1
 5659              	m_sample_mode_last:
 5660 0000 00       		.space	1
 5661              		.section	.bss.wrong_voltage_iterations.10697,"aw",%nobits
 5662              		.align	2
 5663              		.set	.LANCHOR42,. + 0
 5664              		.type	wrong_voltage_iterations.10697, %object
 5665              		.size	wrong_voltage_iterations.10697, 4
 5666              	wrong_voltage_iterations.10697:
 5667 0000 00000000 		.space	4
 5668              		.section	.bss.m_lock_enabled,"aw",%nobits
 5669              		.set	.LANCHOR16,. + 0
 5670              		.type	m_lock_enabled, %object
 5671              		.size	m_lock_enabled, 1
 5672              	m_lock_enabled:
 5673 0000 00       		.space	1
 5674              		.section	.bss.m_lock_override_once,"aw",%nobits
 5675              		.set	.LANCHOR17,. + 0
 5676              		.type	m_lock_override_once, %object
 5677              		.size	m_lock_override_once, 1
 5678              	m_lock_override_once:
 5679 0000 00       		.space	1
 5680              		.section	.bss.m_watt_seconds,"aw",%nobits
 5681              		.align	2
 5682              		.set	.LANCHOR28,. + 0
 5683              		.type	m_watt_seconds, %object
 5684              		.size	m_watt_seconds, 4
 5685              	m_watt_seconds:
 5686 0000 00000000 		.space	4
ARM GAS  /tmp/ccB9RVXV.s 			page 103


 5687              		.section	.bss.ADC_curr_norm_value,"aw",%nobits
 5688              		.align	2
 5689              		.set	.LANCHOR46,. + 0
 5690              		.type	ADC_curr_norm_value, %object
 5691              		.size	ADC_curr_norm_value, 12
 5692              	ADC_curr_norm_value:
 5693 0000 00000000 		.space	12
 5693      00000000 
 5693      00000000 
 5694              		.section	.bss.m_position_set,"aw",%nobits
 5695              		.align	2
 5696              		.set	.LANCHOR30,. + 0
 5697              		.type	m_position_set, %object
 5698              		.size	m_position_set, 4
 5699              	m_position_set:
 5700 0000 00000000 		.space	4
 5701              		.section	.bss.m_sample_now,"aw",%nobits
 5702              		.align	2
 5703              		.set	.LANCHOR35,. + 0
 5704              		.type	m_sample_now, %object
 5705              		.size	m_sample_now, 4
 5706              	m_sample_now:
 5707 0000 00000000 		.space	4
 5708              		.section	.bss.timer_thread_wa,"aw",%nobits
 5709              		.align	3
 5710              		.set	.LANCHOR37,. + 0
 5711              		.type	timer_thread_wa, %object
 5712              		.size	timer_thread_wa, 1432
 5713              	timer_thread_wa:
 5714 0000 00000000 		.space	1432
 5714      00000000 
 5714      00000000 
 5714      00000000 
 5714      00000000 
 5715              		.section	.bss.m_sample_mode,"aw",%nobits
 5716              		.set	.LANCHOR36,. + 0
 5717              		.type	m_sample_mode, %object
 5718              		.size	m_sample_mode, 1
 5719              	m_sample_mode:
 5720 0000 00       		.space	1
 5721              		.section	.bss.m_temp_motor,"aw",%nobits
 5722              		.align	2
 5723              		.set	.LANCHOR33,. + 0
 5724              		.type	m_temp_motor, %object
 5725              		.size	m_temp_motor, 4
 5726              	m_temp_motor:
 5727 0000 00000000 		.space	4
 5728              		.text
 5729              	.Letext0:
 5730              		.file 4 "/usr/include/newlib/machine/_default_types.h"
 5731              		.file 5 "/usr/include/newlib/stdint.h"
 5732              		.file 6 "/usr/lib/gcc/arm-none-eabi/4.8/include/stddef.h"
 5733              		.file 7 "ChibiOS_3.0.2/os/rt/ports/ARMCMx/compilers/GCC/chtypes.h"
 5734              		.file 8 "ChibiOS_3.0.2/os/rt/include/chsystypes.h"
 5735              		.file 9 "ChibiOS_3.0.2/os/rt/include/chschd.h"
 5736              		.file 10 "ChibiOS_3.0.2/os/ext/CMSIS/ST/stm32f407xx.h"
 5737              		.file 11 "ChibiOS_3.0.2/os/rt/ports/ARMCMx/chcore.h"
ARM GAS  /tmp/ccB9RVXV.s 			page 104


 5738              		.file 12 "ChibiOS_3.0.2/os/rt/ports/ARMCMx/chcore_v7m.h"
 5739              		.file 13 "ChibiOS_3.0.2/os/rt/include/chtm.h"
 5740              		.file 14 "ChibiOS_3.0.2/os/rt/include/chsem.h"
 5741              		.file 15 "ChibiOS_3.0.2/os/rt/include/chmtx.h"
 5742              		.file 16 "ChibiOS_3.0.2/os/rt/include/chthreads.h"
 5743              		.file 17 "datatypes.h"
 5744              		.file 18 "ChibiOS_3.0.2/os/hal/ports/STM32/LLD/GPIOv2/pal_lld.h"
 5745              		.file 19 "ChibiOS_3.0.2/os/rt/include/chsys.h"
 5746              		.file 20 "ChibiOS_3.0.2/os/ext/CMSIS/include/core_cm4.h"
 5747              		.file 21 "mcpwm.h"
 5748              		.file 22 "buffer.h"
 5749              		.file 23 "commands.h"
 5750              		.file 24 "ChibiOS_3.0.2/os/rt/include/chevents.h"
 5751              		.file 25 "mcpwm_foc.h"
 5752              		.file 26 "encoder.h"
 5753              		.file 27 "utils.h"
 5754              		.file 28 "/usr/include/newlib/math.h"
 5755              		.file 29 "terminal.h"
 5756              		.file 30 "ledpwm.h"