ARM GAS  /tmp/ccB9RVXV.s 			page 1


   1              		.syntax unified
   2              		.cpu cortex-m4
   3              		.eabi_attribute 27, 3
   4              		.eabi_attribute 28, 1
   5              		.fpu fpv4-sp-d16
   6              		.eabi_attribute 20, 1
   7              		.eabi_attribute 21, 1
   8              		.eabi_attribute 23, 3
   9              		.eabi_attribute 24, 1
  10              		.eabi_attribute 25, 1
  11              		.eabi_attribute 26, 1
  12              		.eabi_attribute 30, 2
  13              		.eabi_attribute 34, 1
  14              		.eabi_attribute 18, 4
  15              		.thumb
  16              		.file	"mc_interface.c"
  17              		.text
  18              	.Ltext0:
  19              		.cfi_sections	.debug_frame
  20              		.section	.text.sample_send_thread,"ax",%progbits
  21              		.align	2
  22              		.p2align 4,,15
  23              		.thumb
  24              		.thumb_func
  25              		.type	sample_send_thread, %function
  26              	sample_send_thread:
  27              	.LFB311:
  28              		.file 1 "mc_interface.c"
  29              		.loc 1 1496 0
  30              		.cfi_startproc
  31              		@ args = 0, pretend = 0, frame = 48
  32              		@ frame_needed = 0, uses_anonymous_args = 0
  33              	.LVL0:
  34 0000 2DE9F04F 		push	{r4, r5, r6, r7, r8, r9, r10, fp, lr}
  35              		.cfi_def_cfa_offset 36
  36              		.cfi_offset 4, -36
  37              		.cfi_offset 5, -32
  38              		.cfi_offset 6, -28
  39              		.cfi_offset 7, -24
  40              		.cfi_offset 8, -20
  41              		.cfi_offset 9, -16
  42              		.cfi_offset 10, -12
  43              		.cfi_offset 11, -8
  44              		.cfi_offset 14, -4
  45              	.LBB109:
  46              	.LBB110:
  47              		.file 2 "ChibiOS_3.0.2/os/rt/include/chregistry.h"
  48              		.loc 2 135 0
  49 0004 764B     		ldr	r3, .L16
  50              	.LBE110:
  51              	.LBE109:
  52              		.loc 1 1501 0
  53 0006 774A     		ldr	r2, .L16+4
  54              	.LBB113:
  55              	.LBB111:
  56              		.loc 2 135 0
  57 0008 9B69     		ldr	r3, [r3, #24]
ARM GAS  /tmp/ccB9RVXV.s 			page 2


  58 000a 7749     		ldr	r1, .L16+8
  59 000c 774E     		ldr	r6, .L16+12
  60 000e DFF814B2 		ldr	fp, .L16+68
  61 0012 DFF814A2 		ldr	r10, .L16+72
  62              	.LBE111:
  63              	.LBE113:
  64              		.loc 1 1496 0
  65 0016 2DED068B 		fstmfdd	sp!, {d8, d9, d10}
  66              		.cfi_def_cfa_offset 60
  67              		.cfi_offset 80, -60
  68              		.cfi_offset 82, -52
  69              		.cfi_offset 84, -44
  70              	.LBB114:
  71              	.LBB115:
  72              	.LBB116:
  73              		.loc 1 1541 0
  74 001a DFED759A 		flds	s19, .L16+16
  75              		.loc 1 1543 0
  76 001e 9FED759A 		flds	s18, .L16+20
  77 0022 DFED758A 		flds	s17, .L16+24
  78 0026 9FED758A 		flds	s16, .L16+28
  79              	.LBE116:
  80              	.LBE115:
  81              	.LBE114:
  82              	.LBB122:
  83              	.LBB112:
  84              		.loc 2 135 0
  85 002a 9961     		str	r1, [r3, #24]
  86              	.LBE112:
  87              	.LBE122:
  88              		.loc 1 1496 0
  89 002c 8DB0     		sub	sp, sp, #52
  90              		.cfi_def_cfa_offset 112
  91              		.loc 1 1501 0
  92 002e 1360     		str	r3, [r2]
  93              	.LVL1:
  94              	.L13:
  95              	.LBB123:
  96              		.loc 1 1504 0
  97 0030 0120     		movs	r0, #1
  98 0032 FFF7FEFF 		bl	chEvtWaitAny
  99              	.LVL2:
 100              		.loc 1 1509 0
 101 0036 7249     		ldr	r1, .L16+32
 102 0038 0B78     		ldrb	r3, [r1]	@ zero_extendqisi2
 103 003a 013B     		subs	r3, r3, #1
 104 003c 052B     		cmp	r3, #5
 105 003e F7D8     		bhi	.L13
 106 0040 DFE803F0 		tbb	[pc, r3]
 107              	.L4:
 108 0044 C4       		.byte	(.L3-.L4)/2
 109 0045 C4       		.byte	(.L3-.L4)/2
 110 0046 03       		.byte	(.L5-.L4)/2
 111 0047 03       		.byte	(.L5-.L4)/2
 112 0048 03       		.byte	(.L5-.L4)/2
 113 0049 03       		.byte	(.L5-.L4)/2
 114              		.p2align 1
ARM GAS  /tmp/ccB9RVXV.s 			page 3


 115              	.L5:
 116              	.LVL3:
 117              		.loc 1 1520 0
 118 004a 6E49     		ldr	r1, .L16+36
 119 004c 0A68     		ldr	r2, [r1]
 120 004e 6E49     		ldr	r1, .L16+40
 121 0050 0B68     		ldr	r3, [r1]
 122              		.loc 1 1519 0
 123 0052 4FF4FA68 		mov	r8, #2000
 124              		.loc 1 1520 0
 125 0056 D31A     		subs	r3, r2, r3
 126              	.LVL4:
 127              	.L6:
 128              	.LBB120:
 129              	.LBB117:
 130              		.loc 1 1547 0
 131 0058 9FED6CAA 		flds	s20, .L16+44
 132 005c 9946     		mov	r9, r3
 133              	.LBE117:
 134              		.loc 1 1527 0
 135 005e 0027     		movs	r7, #0
 136              	.LVL5:
 137              	.L7:
 138              	.LBB118:
 139              		.loc 1 1532 0
 140 0060 B9F5FA6F 		cmp	r9, #2000
 141              		.loc 1 1530 0
 142 0064 4C46     		mov	r4, r9
 143              	.LVL6:
 144              		.loc 1 1532 0
 145 0066 04DB     		blt	.L9
 146              	.L10:
 147              		.loc 1 1533 0
 148 0068 A4F5FA64 		sub	r4, r4, #2000
 149              	.LVL7:
 150              		.loc 1 1532 0
 151 006c B4F5FA6F 		cmp	r4, #2000
 152 0070 FADA     		bge	.L10
 153              	.L9:
 154              		.loc 1 1536 0 discriminator 1
 155 0072 002C     		cmp	r4, #0
 156 0074 02DA     		bge	.L11
 157              	.L12:
 158              	.LVL8:
 159              		.loc 1 1536 0 is_stmt 0
 160 0076 14F5FA64 		adds	r4, r4, #2000
 161              	.LVL9:
 162 007a FCD4     		bmi	.L12
 163              	.L11:
 164              		.loc 1 1541 0 is_stmt 1
 165 007c 36F81430 		ldrh	r3, [r6, r4, lsl #1]
 166 0080 1BB2     		sxth	r3, r3
 167 0082 07EE903A 		fmsr	s15, r3	@ int
 168 0086 B8EEE70A 		fsitos	s0, s15
 169              		.loc 1 1540 0
 170 008a 0122     		movs	r2, #1
 171              		.loc 1 1542 0
ARM GAS  /tmp/ccB9RVXV.s 			page 4


 172 008c 04FA02F5 		lsl	r5, r4, r2
 173              		.loc 1 1540 0
 174 0090 1323     		movs	r3, #19
 175              		.loc 1 1541 0
 176 0092 20EE290A 		fmuls	s0, s0, s19
 177 0096 02A8     		add	r0, sp, #8
 178 0098 01A9     		add	r1, sp, #4
 179              		.loc 1 1540 0
 180 009a 0192     		str	r2, [sp, #4]
 181 009c 8DF80830 		strb	r3, [sp, #8]
 182              		.loc 1 1541 0
 183 00a0 FFF7FEFF 		bl	buffer_append_float32_auto
 184              	.LVL10:
 185              		.loc 1 1542 0
 186 00a4 7319     		adds	r3, r6, r5
 187 00a6 02A8     		add	r0, sp, #8
 188 00a8 B3F8A03F 		ldrh	r3, [r3, #4000]
 189 00ac 1BB2     		sxth	r3, r3
 190 00ae 07EE903A 		fmsr	s15, r3	@ int
 191 00b2 B8EEE70A 		fsitos	s0, s15
 192 00b6 01A9     		add	r1, sp, #4
 193 00b8 20EE290A 		fmuls	s0, s0, s19
 194 00bc FFF7FEFF 		bl	buffer_append_float32_auto
 195              	.LVL11:
 196              		.loc 1 1543 0
 197 00c0 0BEB0503 		add	r3, fp, r5
 198 00c4 02A8     		add	r0, sp, #8
 199 00c6 B3F8483E 		ldrh	r3, [r3, #3656]
 200 00ca 1BB2     		sxth	r3, r3
 201 00cc 07EE903A 		fmsr	s15, r3	@ int
 202 00d0 B8EEE70A 		fsitos	s0, s15
 203 00d4 01A9     		add	r1, sp, #4
 204 00d6 20EE090A 		fmuls	s0, s0, s18
 205              	.LBE118:
 206              		.loc 1 1527 0
 207 00da 0137     		adds	r7, r7, #1
 208              	.LVL12:
 209              	.LBB119:
 210              		.loc 1 1543 0
 211 00dc 20EE280A 		fmuls	s0, s0, s17
 212 00e0 09F10109 		add	r9, r9, #1
 213 00e4 20EE080A 		fmuls	s0, s0, s16
 214 00e8 FFF7FEFF 		bl	buffer_append_float32_auto
 215              	.LVL13:
 216              		.loc 1 1544 0
 217 00ec 0AEB0503 		add	r3, r10, r5
 218 00f0 02A8     		add	r0, sp, #8
 219 00f2 B3F8F03C 		ldrh	r3, [r3, #3312]
 220 00f6 1BB2     		sxth	r3, r3
 221 00f8 07EE903A 		fmsr	s15, r3	@ int
 222 00fc B8EEE70A 		fsitos	s0, s15
 223 0100 01A9     		add	r1, sp, #4
 224 0102 20EE090A 		fmuls	s0, s0, s18
 225 0106 20EE280A 		fmuls	s0, s0, s17
 226 010a 20EE080A 		fmuls	s0, s0, s16
 227 010e FFF7FEFF 		bl	buffer_append_float32_auto
 228              	.LVL14:
ARM GAS  /tmp/ccB9RVXV.s 			page 5


 229              		.loc 1 1545 0
 230 0112 3F4B     		ldr	r3, .L16+48
 231 0114 2B44     		add	r3, r3, r5
 232 0116 02A8     		add	r0, sp, #8
 233 0118 B3F8983B 		ldrh	r3, [r3, #2968]
 234 011c 1BB2     		sxth	r3, r3
 235 011e 07EE903A 		fmsr	s15, r3	@ int
 236 0122 B8EEE70A 		fsitos	s0, s15
 237 0126 01A9     		add	r1, sp, #4
 238 0128 20EE090A 		fmuls	s0, s0, s18
 239 012c 20EE280A 		fmuls	s0, s0, s17
 240 0130 20EE080A 		fmuls	s0, s0, s16
 241 0134 FFF7FEFF 		bl	buffer_append_float32_auto
 242              	.LVL15:
 243              		.loc 1 1546 0
 244 0138 364B     		ldr	r3, .L16+52
 245 013a 2B44     		add	r3, r3, r5
 246 013c 02A8     		add	r0, sp, #8
 247 013e B3F8403A 		ldrh	r3, [r3, #2624]
 248 0142 1BB2     		sxth	r3, r3
 249 0144 07EE903A 		fmsr	s15, r3	@ int
 250 0148 B8EEE70A 		fsitos	s0, s15
 251 014c 01A9     		add	r1, sp, #4
 252 014e 20EE090A 		fmuls	s0, s0, s18
 253 0152 20EE280A 		fmuls	s0, s0, s17
 254 0156 20EE080A 		fmuls	s0, s0, s16
 255 015a FFF7FEFF 		bl	buffer_append_float32_auto
 256              	.LVL16:
 257              		.loc 1 1547 0
 258 015e 2E4B     		ldr	r3, .L16+56
 259 0160 2B44     		add	r3, r3, r5
 260 0162 02A8     		add	r0, sp, #8
 261 0164 B3F8E838 		ldrh	r3, [r3, #2280]
 262 0168 1BB2     		sxth	r3, r3
 263 016a 07EE903A 		fmsr	s15, r3	@ int
 264 016e B8EEE70A 		fsitos	s0, s15
 265 0172 01A9     		add	r1, sp, #4
 266 0174 80EE0A0A 		fdivs	s0, s0, s20
 267 0178 FFF7FEFF 		bl	buffer_append_float32_auto
 268              	.LVL17:
 269              		.loc 1 1548 0
 270 017c 2749     		ldr	r1, .L16+60
 271 017e 0D44     		add	r5, r5, r1
 272 0180 02A8     		add	r0, sp, #8
 273 0182 B5F89037 		ldrh	r3, [r5, #1936]
 274 0186 1BB2     		sxth	r3, r3
 275 0188 01A9     		add	r1, sp, #4
 276 018a 07EE903A 		fmsr	s15, r3	@ int
 277 018e B8EEE70A 		fsitos	s0, s15
 278 0192 F2EE047A 		fconsts	s15, #36
 279 0196 20EE270A 		fmuls	s0, s0, s15
 280 019a FFF7FEFF 		bl	buffer_append_float32_auto
 281              	.LVL18:
 282              		.loc 1 1549 0
 283 019e 2049     		ldr	r1, .L16+64
 284 01a0 019B     		ldr	r3, [sp, #4]
 285 01a2 0C44     		add	r4, r4, r1
ARM GAS  /tmp/ccB9RVXV.s 			page 6


 286              	.LVL19:
 287 01a4 0CAA     		add	r2, sp, #48
 288 01a6 1A44     		add	r2, r2, r3
 289 01a8 94F83816 		ldrb	r1, [r4, #1592]	@ zero_extendqisi2
 290 01ac 02F8281C 		strb	r1, [r2, #-40]
 291              		.loc 1 1550 0
 292 01b0 0233     		adds	r3, r3, #2
 293 01b2 94F8084E 		ldrb	r4, [r4, #3592]	@ zero_extendqisi2
 294              	.LVL20:
 295 01b6 02F8274C 		strb	r4, [r2, #-39]
 296              		.loc 1 1552 0
 297 01ba 1946     		mov	r1, r3
 298 01bc 02A8     		add	r0, sp, #8
 299              		.loc 1 1550 0
 300 01be 0193     		str	r3, [sp, #4]
 301              		.loc 1 1552 0
 302 01c0 FFF7FEFF 		bl	commands_send_packet
 303              	.LVL21:
 304              	.LBE119:
 305              		.loc 1 1527 0
 306 01c4 B845     		cmp	r8, r7
 307 01c6 3FF74BAF 		bgt	.L7
 308 01ca 31E7     		b	.L13
 309              	.LVL22:
 310              	.L3:
 311              	.LBE120:
 312              		.loc 1 1512 0
 313 01cc 0E4B     		ldr	r3, .L16+40
 314 01ce D3F80080 		ldr	r8, [r3]
 315              	.LVL23:
 316              	.LBB121:
 317              		.loc 1 1527 0
 318 01d2 B8F1000F 		cmp	r8, #0
 319 01d6 C8BF     		it	gt
 320 01d8 0023     		movgt	r3, #0
 321 01da 3FF73DAF 		bgt	.L6
 322 01de 27E7     		b	.L13
 323              	.L17:
 324              		.align	2
 325              	.L16:
 326 01e0 00000000 		.word	ch
 327 01e4 00000000 		.word	.LANCHOR0
 328 01e8 00000000 		.word	.LC0
 329 01ec 00000000 		.word	.LANCHOR4
 330 01f0 500AA53D 		.word	1034226256
 331 01f4 00008039 		.word	964689920
 332 01f8 33335340 		.word	1079194419
 333 01fc 74D19541 		.word	1100337524
 334 0200 00000000 		.word	.LANCHOR1
 335 0204 00000000 		.word	.LANCHOR3
 336 0208 00000000 		.word	.LANCHOR2
 337 020c A48BC642 		.word	1120308132
 338 0210 E8320000 		.word	.LANCHOR7
 339 0214 E0430000 		.word	.LANCHOR8
 340 0218 D8540000 		.word	.LANCHOR9
 341 021c D0650000 		.word	.LANCHOR10
 342 0220 C8760000 		.word	.LANCHOR11
ARM GAS  /tmp/ccB9RVXV.s 			page 7


 343 0224 F8100000 		.word	.LANCHOR5
 344 0228 F0210000 		.word	.LANCHOR6
 345              	.LBE121:
 346              	.LBE123:
 347              		.cfi_endproc
 348              	.LFE311:
 349              		.size	sample_send_thread, .-sample_send_thread
 350 022c AFF30080 		.section	.text.mc_interface_init,"ax",%progbits
 351              		.align	2
 352              		.p2align 4,,15
 353              		.global	mc_interface_init
 354              		.thumb
 355              		.thumb_func
 356              		.type	mc_interface_init, %function
 357              	mc_interface_init:
 358              	.LFB256:
 359              		.loc 1 99 0
 360              		.cfi_startproc
 361              		@ args = 0, pretend = 0, frame = 0
 362              		@ frame_needed = 0, uses_anonymous_args = 0
 363              	.LVL24:
 364 0000 2DE9F04F 		push	{r4, r5, r6, r7, r8, r9, r10, fp, lr}
 365              		.cfi_def_cfa_offset 36
 366              		.cfi_offset 4, -36
 367              		.cfi_offset 5, -32
 368              		.cfi_offset 6, -28
 369              		.cfi_offset 7, -24
 370              		.cfi_offset 8, -20
 371              		.cfi_offset 9, -16
 372              		.cfi_offset 10, -12
 373              		.cfi_offset 11, -8
 374              		.cfi_offset 14, -4
 375              		.loc 1 100 0
 376 0004 4C4D     		ldr	r5, .L28
 377              		.loc 1 104 0
 378 0006 4D4F     		ldr	r7, .L28+4
 379              		.loc 1 105 0
 380 0008 DFF87091 		ldr	r9, .L28+68
 381              		.loc 1 107 0
 382 000c 4C4E     		ldr	r6, .L28+8
 383              		.loc 1 109 0
 384 000e DFF870B1 		ldr	fp, .L28+72
 385              		.loc 1 112 0
 386 0012 DFF870A1 		ldr	r10, .L28+76
 387              		.loc 1 113 0
 388 0016 DFF87081 		ldr	r8, .L28+80
 389              		.loc 1 99 0
 390 001a 83B0     		sub	sp, sp, #12
 391              		.cfi_def_cfa_offset 48
 392              		.loc 1 99 0
 393 001c 0146     		mov	r1, r0
 394              		.loc 1 100 0
 395 001e 4FF4BA72 		mov	r2, #372
 396 0022 2846     		mov	r0, r5
 397              	.LVL25:
 398 0024 FFF7FEFF 		bl	memcpy
 399              	.LVL26:
ARM GAS  /tmp/ccB9RVXV.s 			page 8


 400              		.loc 1 103 0
 401 0028 DFF860E1 		ldr	lr, .L28+84
 402              		.loc 1 106 0
 403 002c DFF860C1 		ldr	ip, .L28+88
 404              		.loc 1 108 0
 405 0030 4449     		ldr	r1, .L28+12
 406              		.loc 1 110 0
 407 0032 4548     		ldr	r0, .L28+16
 408              		.loc 1 111 0
 409 0034 454A     		ldr	r2, .L28+20
 410              		.loc 1 106 0
 411 0036 0023     		movs	r3, #0
 412              		.loc 1 101 0
 413 0038 0024     		movs	r4, #0
 414              		.loc 1 131 0
 415 003a 0094     		str	r4, [sp]
 416              		.loc 1 103 0
 417 003c CEF80040 		str	r4, [lr]
 418              		.loc 1 104 0
 419 0040 3C70     		strb	r4, [r7]
 420              		.loc 1 114 0
 421 0042 DFF850E1 		ldr	lr, .L28+92
 422              		.loc 1 105 0
 423 0046 89F80040 		strb	r4, [r9]
 424              		.loc 1 115 0
 425 004a 414F     		ldr	r7, .L28+24
 426              		.loc 1 106 0
 427 004c CCF80030 		str	r3, [ip]	@ float
 428              		.loc 1 116 0
 429 0050 DFF84491 		ldr	r9, .L28+96
 430              		.loc 1 107 0
 431 0054 3360     		str	r3, [r6]	@ float
 432              		.loc 1 117 0
 433 0056 DFF844C1 		ldr	ip, .L28+100
 434              		.loc 1 118 0
 435 005a 3E4E     		ldr	r6, .L28+28
 436              		.loc 1 108 0
 437 005c 0B60     		str	r3, [r1]	@ float
 438              		.loc 1 109 0
 439 005e CBF80030 		str	r3, [fp]	@ float
 440              		.loc 1 119 0
 441 0062 3D49     		ldr	r1, .L28+32
 442              		.loc 1 120 0
 443 0064 DFF838B1 		ldr	fp, .L28+104
 444              		.loc 1 110 0
 445 0068 0360     		str	r3, [r0]	@ float
 446              		.loc 1 111 0
 447 006a 1360     		str	r3, [r2]	@ float
 448              		.loc 1 121 0
 449 006c 3B48     		ldr	r0, .L28+36
 450              		.loc 1 112 0
 451 006e CAF80030 		str	r3, [r10]	@ float
 452              		.loc 1 123 0
 453 0072 3B4A     		ldr	r2, .L28+40
 454              		.loc 1 113 0
 455 0074 C8F80030 		str	r3, [r8]	@ float
 456              		.loc 1 124 0
ARM GAS  /tmp/ccB9RVXV.s 			page 9


 457 0078 DFF828A1 		ldr	r10, .L28+108
 458              		.loc 1 114 0
 459 007c CEF80030 		str	r3, [lr]	@ float
 460              		.loc 1 125 0
 461 0080 DFF82481 		ldr	r8, .L28+112
 462              		.loc 1 115 0
 463 0084 3B60     		str	r3, [r7]	@ float
 464              		.loc 1 126 0
 465 0086 DFF824E1 		ldr	lr, .L28+116
 466              		.loc 1 116 0
 467 008a C9F80030 		str	r3, [r9]	@ float
 468              		.loc 1 127 0
 469 008e 354F     		ldr	r7, .L28+44
 470              		.loc 1 117 0
 471 0090 CCF80030 		str	r3, [ip]	@ float
 472              		.loc 1 101 0
 473 0094 DFF81891 		ldr	r9, .L28+120
 474              		.loc 1 118 0
 475 0098 3360     		str	r3, [r6]	@ float
 476              		.loc 1 102 0
 477 009a DFF818C1 		ldr	ip, .L28+124
 478              		.loc 1 128 0
 479 009e 324E     		ldr	r6, .L28+48
 480              		.loc 1 119 0
 481 00a0 0B60     		str	r3, [r1]	@ float
 482              		.loc 1 120 0
 483 00a2 CBF80030 		str	r3, [fp]	@ float
 484              		.loc 1 123 0
 485 00a6 4FF47A71 		mov	r1, #1000
 486              		.loc 1 124 0
 487 00aa 4FF0010B 		mov	fp, #1
 488              		.loc 1 121 0
 489 00ae 0360     		str	r3, [r0]	@ float
 490              		.loc 1 102 0
 491 00b0 CCF80040 		str	r4, [ip]
 492              		.loc 1 123 0
 493 00b4 1160     		str	r1, [r2]
 494              		.loc 1 131 0
 495 00b6 2D4B     		ldr	r3, .L28+52
 496              		.loc 1 124 0
 497 00b8 CAF800B0 		str	fp, [r10]
 498              		.loc 1 131 0
 499 00bc 4FF4B361 		mov	r1, #1432
 500              		.loc 1 125 0
 501 00c0 C8F80040 		str	r4, [r8]
 502              		.loc 1 131 0
 503 00c4 4022     		movs	r2, #64
 504              		.loc 1 126 0
 505 00c6 CEF80040 		str	r4, [lr]
 506              		.loc 1 131 0
 507 00ca 2948     		ldr	r0, .L28+56
 508              		.loc 1 127 0
 509 00cc 3C70     		strb	r4, [r7]
 510              		.loc 1 101 0
 511 00ce 89F80040 		strb	r4, [r9]
 512              		.loc 1 128 0
 513 00d2 3470     		strb	r4, [r6]
ARM GAS  /tmp/ccB9RVXV.s 			page 10


 514              		.loc 1 131 0
 515 00d4 FFF7FEFF 		bl	chThdCreateStatic
 516              	.LVL27:
 517              		.loc 1 132 0
 518 00d8 264B     		ldr	r3, .L28+60
 519 00da 0094     		str	r4, [sp]
 520 00dc 2648     		ldr	r0, .L28+64
 521 00de 4FF4B361 		mov	r1, #1432
 522 00e2 3F22     		movs	r2, #63
 523 00e4 FFF7FEFF 		bl	chThdCreateStatic
 524              	.LVL28:
 525              		.loc 1 141 0
 526 00e8 95F85C31 		ldrb	r3, [r5, #348]	@ zero_extendqisi2
 527 00ec DBB2     		uxtb	r3, r3
 528 00ee 5B45     		cmp	r3, fp
 529 00f0 1CD0     		beq	.L20
 530 00f2 022B     		cmp	r3, #2
 531 00f4 0BD0     		beq	.L21
 532              	.L19:
 533              		.loc 1 156 0
 534 00f6 AB78     		ldrb	r3, [r5, #2]	@ zero_extendqisi2
 535 00f8 DBB2     		uxtb	r3, r3
 536 00fa 012B     		cmp	r3, #1
 537 00fc 0DD9     		bls	.L23
 538              	.L27:
 539 00fe 022B     		cmp	r3, #2
 540 0100 11D1     		bne	.L26
 541              		.loc 1 163 0
 542 0102 0D48     		ldr	r0, .L28
 543              		.loc 1 169 0
 544 0104 03B0     		add	sp, sp, #12
 545              		@ sp needed
 546 0106 BDE8F04F 		pop	{r4, r5, r6, r7, r8, r9, r10, fp, lr}
 547              		.loc 1 163 0
 548 010a FFF7FEBF 		b	mcpwm_foc_init
 549              	.LVL29:
 550              	.L21:
 551              		.loc 1 147 0
 552 010e FFF7FEFF 		bl	encoder_init_as5047p_spi
 553              	.LVL30:
 554              		.loc 1 156 0
 555 0112 AB78     		ldrb	r3, [r5, #2]	@ zero_extendqisi2
 556 0114 DBB2     		uxtb	r3, r3
 557 0116 012B     		cmp	r3, #1
 558 0118 F1D8     		bhi	.L27
 559              	.L23:
 560              		.loc 1 159 0
 561 011a 0748     		ldr	r0, .L28
 562              		.loc 1 169 0
 563 011c 03B0     		add	sp, sp, #12
 564              		@ sp needed
 565 011e BDE8F04F 		pop	{r4, r5, r6, r7, r8, r9, r10, fp, lr}
 566              		.loc 1 159 0
 567 0122 FFF7FEBF 		b	mcpwm_init
 568              	.LVL31:
 569              	.L26:
 570              		.loc 1 169 0
ARM GAS  /tmp/ccB9RVXV.s 			page 11


 571 0126 03B0     		add	sp, sp, #12
 572              		@ sp needed
 573 0128 BDE8F08F 		pop	{r4, r5, r6, r7, r8, r9, r10, fp, pc}
 574              	.L20:
 575              		.loc 1 143 0
 576 012c D5F85801 		ldr	r0, [r5, #344]
 577 0130 FFF7FEFF 		bl	encoder_init_abi
 578              	.LVL32:
 579              		.loc 1 144 0
 580 0134 DFE7     		b	.L19
 581              	.L29:
 582 0136 00BF     		.align	2
 583              	.L28:
 584 0138 00000000 		.word	.LANCHOR12
 585 013c 00000000 		.word	.LANCHOR16
 586 0140 00000000 		.word	.LANCHOR19
 587 0144 00000000 		.word	.LANCHOR20
 588 0148 00000000 		.word	.LANCHOR22
 589 014c 00000000 		.word	.LANCHOR23
 590 0150 00000000 		.word	.LANCHOR27
 591 0154 00000000 		.word	.LANCHOR30
 592 0158 00000000 		.word	.LANCHOR31
 593 015c 00000000 		.word	.LANCHOR33
 594 0160 00000000 		.word	.LANCHOR2
 595 0164 00000000 		.word	.LANCHOR36
 596 0168 00000000 		.word	.LANCHOR1
 597 016c 00000000 		.word	timer_thread
 598 0170 00000000 		.word	.LANCHOR37
 599 0174 00000000 		.word	sample_send_thread
 600 0178 00000000 		.word	.LANCHOR38
 601 017c 00000000 		.word	.LANCHOR17
 602 0180 00000000 		.word	.LANCHOR21
 603 0184 00000000 		.word	.LANCHOR24
 604 0188 00000000 		.word	.LANCHOR25
 605 018c 00000000 		.word	.LANCHOR15
 606 0190 00000000 		.word	.LANCHOR18
 607 0194 00000000 		.word	.LANCHOR26
 608 0198 00000000 		.word	.LANCHOR28
 609 019c 00000000 		.word	.LANCHOR29
 610 01a0 00000000 		.word	.LANCHOR32
 611 01a4 00000000 		.word	.LANCHOR34
 612 01a8 00000000 		.word	.LANCHOR35
 613 01ac 00000000 		.word	.LANCHOR3
 614 01b0 00000000 		.word	.LANCHOR13
 615 01b4 00000000 		.word	.LANCHOR14
 616              		.cfi_endproc
 617              	.LFE256:
 618              		.size	mc_interface_init, .-mc_interface_init
 619 01b8 AFF30080 		.section	.text.mc_interface_get_configuration,"ax",%progbits
 619      AFF30080 
 620              		.align	2
 621              		.p2align 4,,15
 622              		.global	mc_interface_get_configuration
 623              		.thumb
 624              		.thumb_func
 625              		.type	mc_interface_get_configuration, %function
 626              	mc_interface_get_configuration:
ARM GAS  /tmp/ccB9RVXV.s 			page 12


 627              	.LFB257:
 628              		.loc 1 171 0
 629              		.cfi_startproc
 630              		@ args = 0, pretend = 0, frame = 0
 631              		@ frame_needed = 0, uses_anonymous_args = 0
 632              		@ link register save eliminated.
 633              		.loc 1 173 0
 634 0000 0048     		ldr	r0, .L31
 635 0002 7047     		bx	lr
 636              	.L32:
 637              		.align	2
 638              	.L31:
 639 0004 00000000 		.word	.LANCHOR12
 640              		.cfi_endproc
 641              	.LFE257:
 642              		.size	mc_interface_get_configuration, .-mc_interface_get_configuration
 643 0008 AFF30080 		.section	.text.mc_interface_dccal_done,"ax",%progbits
 643      AFF30080 
 644              		.align	2
 645              		.p2align 4,,15
 646              		.global	mc_interface_dccal_done
 647              		.thumb
 648              		.thumb_func
 649              		.type	mc_interface_dccal_done, %function
 650              	mc_interface_dccal_done:
 651              	.LFB259:
 652              		.loc 1 234 0
 653              		.cfi_startproc
 654              		@ args = 0, pretend = 0, frame = 0
 655              		@ frame_needed = 0, uses_anonymous_args = 0
 656              		@ link register save eliminated.
 657              	.LVL33:
 658              		.loc 1 236 0
 659 0000 064B     		ldr	r3, .L39
 660 0002 9B78     		ldrb	r3, [r3, #2]	@ zero_extendqisi2
 661 0004 DBB2     		uxtb	r3, r3
 662 0006 012B     		cmp	r3, #1
 663 0008 05D9     		bls	.L35
 664 000a 022B     		cmp	r3, #2
 665 000c 01D1     		bne	.L38
 666              		.loc 1 243 0
 667 000e FFF7FEBF 		b	mcpwm_foc_is_dccal_done
 668              	.LVL34:
 669              	.L38:
 670              		.loc 1 251 0
 671 0012 0020     		movs	r0, #0
 672 0014 7047     		bx	lr
 673              	.L35:
 674              		.loc 1 239 0
 675 0016 FFF7FEBF 		b	mcpwm_is_dccal_done
 676              	.LVL35:
 677              	.L40:
 678 001a 00BF     		.align	2
 679              	.L39:
 680 001c 00000000 		.word	.LANCHOR12
 681              		.cfi_endproc
 682              	.LFE259:
ARM GAS  /tmp/ccB9RVXV.s 			page 13


 683              		.size	mc_interface_dccal_done, .-mc_interface_dccal_done
 684              		.section	.text.mc_interface_set_pwm_callback,"ax",%progbits
 685              		.align	2
 686              		.p2align 4,,15
 687              		.global	mc_interface_set_pwm_callback
 688              		.thumb
 689              		.thumb_func
 690              		.type	mc_interface_set_pwm_callback, %function
 691              	mc_interface_set_pwm_callback:
 692              	.LFB260:
 693              		.loc 1 259 0
 694              		.cfi_startproc
 695              		@ args = 0, pretend = 0, frame = 0
 696              		@ frame_needed = 0, uses_anonymous_args = 0
 697              		@ link register save eliminated.
 698              	.LVL36:
 699              		.loc 1 260 0
 700 0000 014B     		ldr	r3, .L42
 701 0002 1860     		str	r0, [r3]
 702 0004 7047     		bx	lr
 703              	.L43:
 704 0006 00BF     		.align	2
 705              	.L42:
 706 0008 00000000 		.word	.LANCHOR39
 707              		.cfi_endproc
 708              	.LFE260:
 709              		.size	mc_interface_set_pwm_callback, .-mc_interface_set_pwm_callback
 710 000c AFF30080 		.section	.text.mc_interface_lock,"ax",%progbits
 711              		.align	2
 712              		.p2align 4,,15
 713              		.global	mc_interface_lock
 714              		.thumb
 715              		.thumb_func
 716              		.type	mc_interface_lock, %function
 717              	mc_interface_lock:
 718              	.LFB261:
 719              		.loc 1 266 0
 720              		.cfi_startproc
 721              		@ args = 0, pretend = 0, frame = 0
 722              		@ frame_needed = 0, uses_anonymous_args = 0
 723              		@ link register save eliminated.
 724              		.loc 1 267 0
 725 0000 014B     		ldr	r3, .L45
 726 0002 0122     		movs	r2, #1
 727 0004 1A70     		strb	r2, [r3]
 728 0006 7047     		bx	lr
 729              	.L46:
 730              		.align	2
 731              	.L45:
 732 0008 00000000 		.word	.LANCHOR16
 733              		.cfi_endproc
 734              	.LFE261:
 735              		.size	mc_interface_lock, .-mc_interface_lock
 736 000c AFF30080 		.section	.text.mc_interface_unlock,"ax",%progbits
 737              		.align	2
 738              		.p2align 4,,15
 739              		.global	mc_interface_unlock
ARM GAS  /tmp/ccB9RVXV.s 			page 14


 740              		.thumb
 741              		.thumb_func
 742              		.type	mc_interface_unlock, %function
 743              	mc_interface_unlock:
 744              	.LFB262:
 745              		.loc 1 273 0
 746              		.cfi_startproc
 747              		@ args = 0, pretend = 0, frame = 0
 748              		@ frame_needed = 0, uses_anonymous_args = 0
 749              		@ link register save eliminated.
 750              		.loc 1 274 0
 751 0000 014B     		ldr	r3, .L48
 752 0002 0022     		movs	r2, #0
 753 0004 1A70     		strb	r2, [r3]
 754 0006 7047     		bx	lr
 755              	.L49:
 756              		.align	2
 757              	.L48:
 758 0008 00000000 		.word	.LANCHOR16
 759              		.cfi_endproc
 760              	.LFE262:
 761              		.size	mc_interface_unlock, .-mc_interface_unlock
 762 000c AFF30080 		.section	.text.mc_interface_lock_override_once,"ax",%progbits
 763              		.align	2
 764              		.p2align 4,,15
 765              		.global	mc_interface_lock_override_once
 766              		.thumb
 767              		.thumb_func
 768              		.type	mc_interface_lock_override_once, %function
 769              	mc_interface_lock_override_once:
 770              	.LFB263:
 771              		.loc 1 280 0
 772              		.cfi_startproc
 773              		@ args = 0, pretend = 0, frame = 0
 774              		@ frame_needed = 0, uses_anonymous_args = 0
 775              		@ link register save eliminated.
 776              		.loc 1 281 0
 777 0000 014B     		ldr	r3, .L51
 778 0002 0122     		movs	r2, #1
 779 0004 1A70     		strb	r2, [r3]
 780 0006 7047     		bx	lr
 781              	.L52:
 782              		.align	2
 783              	.L51:
 784 0008 00000000 		.word	.LANCHOR17
 785              		.cfi_endproc
 786              	.LFE263:
 787              		.size	mc_interface_lock_override_once, .-mc_interface_lock_override_once
 788 000c AFF30080 		.section	.text.mc_interface_get_fault,"ax",%progbits
 789              		.align	2
 790              		.p2align 4,,15
 791              		.global	mc_interface_get_fault
 792              		.thumb
 793              		.thumb_func
 794              		.type	mc_interface_get_fault, %function
 795              	mc_interface_get_fault:
 796              	.LFB264:
ARM GAS  /tmp/ccB9RVXV.s 			page 15


 797              		.loc 1 284 0
 798              		.cfi_startproc
 799              		@ args = 0, pretend = 0, frame = 0
 800              		@ frame_needed = 0, uses_anonymous_args = 0
 801              		@ link register save eliminated.
 802              		.loc 1 285 0
 803 0000 014B     		ldr	r3, .L54
 804              		.loc 1 286 0
 805 0002 1878     		ldrb	r0, [r3]	@ zero_extendqisi2
 806 0004 7047     		bx	lr
 807              	.L55:
 808 0006 00BF     		.align	2
 809              	.L54:
 810 0008 00000000 		.word	.LANCHOR13
 811              		.cfi_endproc
 812              	.LFE264:
 813              		.size	mc_interface_get_fault, .-mc_interface_get_fault
 814 000c AFF30080 		.section	.text.mc_interface_fault_to_string,"ax",%progbits
 815              		.align	2
 816              		.p2align 4,,15
 817              		.global	mc_interface_fault_to_string
 818              		.thumb
 819              		.thumb_func
 820              		.type	mc_interface_fault_to_string, %function
 821              	mc_interface_fault_to_string:
 822              	.LFB265:
 823              		.loc 1 288 0
 824              		.cfi_startproc
 825              		@ args = 0, pretend = 0, frame = 0
 826              		@ frame_needed = 0, uses_anonymous_args = 0
 827              		@ link register save eliminated.
 828              	.LVL37:
 829 0000 0628     		cmp	r0, #6
 830 0002 9ABF     		itte	ls
 831 0004 024B     		ldrls	r3, .L59
 832 0006 53F82000 		ldrls	r0, [r3, r0, lsl #2]
 833              	.LVL38:
 834              		.loc 1 288 0
 835 000a 0248     		ldrhi	r0, .L59+4
 836              		.loc 1 299 0
 837 000c 7047     		bx	lr
 838              	.L60:
 839 000e 00BF     		.align	2
 840              	.L59:
 841 0010 00000000 		.word	.LANCHOR40
 842 0014 10000000 		.word	.LC1
 843              		.cfi_endproc
 844              	.LFE265:
 845              		.size	mc_interface_fault_to_string, .-mc_interface_fault_to_string
 846 0018 AFF30080 		.section	.text.mc_interface_get_state,"ax",%progbits
 846      AFF30080 
 847              		.align	2
 848              		.p2align 4,,15
 849              		.global	mc_interface_get_state
 850              		.thumb
 851              		.thumb_func
 852              		.type	mc_interface_get_state, %function
ARM GAS  /tmp/ccB9RVXV.s 			page 16


 853              	mc_interface_get_state:
 854              	.LFB266:
 855              		.loc 1 301 0
 856              		.cfi_startproc
 857              		@ args = 0, pretend = 0, frame = 0
 858              		@ frame_needed = 0, uses_anonymous_args = 0
 859              		@ link register save eliminated.
 860              	.LVL39:
 861              		.loc 1 303 0
 862 0000 064B     		ldr	r3, .L67
 863 0002 9B78     		ldrb	r3, [r3, #2]	@ zero_extendqisi2
 864 0004 DBB2     		uxtb	r3, r3
 865 0006 012B     		cmp	r3, #1
 866 0008 05D9     		bls	.L63
 867 000a 022B     		cmp	r3, #2
 868 000c 01D1     		bne	.L66
 869              		.loc 1 310 0
 870 000e FFF7FEBF 		b	mcpwm_foc_get_state
 871              	.LVL40:
 872              	.L66:
 873              		.loc 1 318 0
 874 0012 0020     		movs	r0, #0
 875 0014 7047     		bx	lr
 876              	.L63:
 877              		.loc 1 306 0
 878 0016 FFF7FEBF 		b	mcpwm_get_state
 879              	.LVL41:
 880              	.L68:
 881 001a 00BF     		.align	2
 882              	.L67:
 883 001c 00000000 		.word	.LANCHOR12
 884              		.cfi_endproc
 885              	.LFE266:
 886              		.size	mc_interface_get_state, .-mc_interface_get_state
 887              		.section	.text.mc_interface_get_duty_cycle_set,"ax",%progbits
 888              		.align	2
 889              		.p2align 4,,15
 890              		.global	mc_interface_get_duty_cycle_set
 891              		.thumb
 892              		.thumb_func
 893              		.type	mc_interface_get_duty_cycle_set, %function
 894              	mc_interface_get_duty_cycle_set:
 895              	.LFB278:
 896              		.loc 1 501 0
 897              		.cfi_startproc
 898              		@ args = 0, pretend = 0, frame = 0
 899              		@ frame_needed = 0, uses_anonymous_args = 0
 900              	.LVL42:
 901 0000 10B5     		push	{r4, lr}
 902              		.cfi_def_cfa_offset 8
 903              		.cfi_offset 4, -8
 904              		.cfi_offset 14, -4
 905              		.loc 1 504 0
 906 0002 0E4C     		ldr	r4, .L77
 907 0004 A378     		ldrb	r3, [r4, #2]	@ zero_extendqisi2
 908 0006 DBB2     		uxtb	r3, r3
 909 0008 012B     		cmp	r3, #1
ARM GAS  /tmp/ccB9RVXV.s 			page 17


 910 000a 13D9     		bls	.L71
 911 000c 022B     		cmp	r3, #2
 912 000e 0ED0     		beq	.L72
 913              		.loc 1 502 0
 914 0010 9FED0B0A 		flds	s0, .L77+4
 915              	.LVL43:
 916              	.L70:
 917              		.loc 1 518 0
 918 0014 94F85D31 		ldrb	r3, [r4, #349]	@ zero_extendqisi2
 919 0018 B7EE007A 		fconsts	s14, #112
 920 001c 002B     		cmp	r3, #0
 921 001e FFEE007A 		fconsts	s15, #240
 922 0022 08BF     		it	eq
 923 0024 F0EE477A 		fcpyseq	s15, s14
 924              		.loc 1 519 0
 925 0028 27EE800A 		fmuls	s0, s15, s0
 926              	.LVL44:
 927 002c 10BD     		pop	{r4, pc}
 928              	.LVL45:
 929              	.L72:
 930              		.loc 1 511 0
 931 002e FFF7FEFF 		bl	mcpwm_foc_get_duty_cycle_set
 932              	.LVL46:
 933              		.loc 1 512 0
 934 0032 EFE7     		b	.L70
 935              	.LVL47:
 936              	.L71:
 937              		.loc 1 507 0
 938 0034 FFF7FEFF 		bl	mcpwm_get_duty_cycle_set
 939              	.LVL48:
 940              		.loc 1 508 0
 941 0038 ECE7     		b	.L70
 942              	.L78:
 943 003a 00BF     		.align	2
 944              	.L77:
 945 003c 00000000 		.word	.LANCHOR12
 946 0040 00000000 		.word	0
 947              		.cfi_endproc
 948              	.LFE278:
 949              		.size	mc_interface_get_duty_cycle_set, .-mc_interface_get_duty_cycle_set
 950 0044 AFF30080 		.section	.text.mc_interface_get_duty_cycle_now,"ax",%progbits
 950      AFF30080 
 950      AFF30080 
 951              		.align	2
 952              		.p2align 4,,15
 953              		.global	mc_interface_get_duty_cycle_now
 954              		.thumb
 955              		.thumb_func
 956              		.type	mc_interface_get_duty_cycle_now, %function
 957              	mc_interface_get_duty_cycle_now:
 958              	.LFB279:
 959              		.loc 1 521 0
 960              		.cfi_startproc
 961              		@ args = 0, pretend = 0, frame = 0
 962              		@ frame_needed = 0, uses_anonymous_args = 0
 963              	.LVL49:
 964 0000 10B5     		push	{r4, lr}
ARM GAS  /tmp/ccB9RVXV.s 			page 18


 965              		.cfi_def_cfa_offset 8
 966              		.cfi_offset 4, -8
 967              		.cfi_offset 14, -4
 968              		.loc 1 524 0
 969 0002 0E4C     		ldr	r4, .L87
 970 0004 A378     		ldrb	r3, [r4, #2]	@ zero_extendqisi2
 971 0006 DBB2     		uxtb	r3, r3
 972 0008 012B     		cmp	r3, #1
 973 000a 13D9     		bls	.L81
 974 000c 022B     		cmp	r3, #2
 975 000e 0ED0     		beq	.L82
 976              		.loc 1 522 0
 977 0010 9FED0B0A 		flds	s0, .L87+4
 978              	.LVL50:
 979              	.L80:
 980              		.loc 1 538 0
 981 0014 94F85D31 		ldrb	r3, [r4, #349]	@ zero_extendqisi2
 982 0018 B7EE007A 		fconsts	s14, #112
 983 001c 002B     		cmp	r3, #0
 984 001e FFEE007A 		fconsts	s15, #240
 985 0022 08BF     		it	eq
 986 0024 F0EE477A 		fcpyseq	s15, s14
 987              		.loc 1 539 0
 988 0028 27EE800A 		fmuls	s0, s15, s0
 989              	.LVL51:
 990 002c 10BD     		pop	{r4, pc}
 991              	.LVL52:
 992              	.L82:
 993              		.loc 1 531 0
 994 002e FFF7FEFF 		bl	mcpwm_foc_get_duty_cycle_now
 995              	.LVL53:
 996              		.loc 1 532 0
 997 0032 EFE7     		b	.L80
 998              	.LVL54:
 999              	.L81:
 1000              		.loc 1 527 0
 1001 0034 FFF7FEFF 		bl	mcpwm_get_duty_cycle_now
 1002              	.LVL55:
 1003              		.loc 1 528 0
 1004 0038 ECE7     		b	.L80
 1005              	.L88:
 1006 003a 00BF     		.align	2
 1007              	.L87:
 1008 003c 00000000 		.word	.LANCHOR12
 1009 0040 00000000 		.word	0
 1010              		.cfi_endproc
 1011              	.LFE279:
 1012              		.size	mc_interface_get_duty_cycle_now, .-mc_interface_get_duty_cycle_now
 1013 0044 AFF30080 		.section	.text.mc_interface_get_sampling_frequency_now,"ax",%progbits
 1013      AFF30080 
 1013      AFF30080 
 1014              		.align	2
 1015              		.p2align 4,,15
 1016              		.global	mc_interface_get_sampling_frequency_now
 1017              		.thumb
 1018              		.thumb_func
 1019              		.type	mc_interface_get_sampling_frequency_now, %function
ARM GAS  /tmp/ccB9RVXV.s 			page 19


 1020              	mc_interface_get_sampling_frequency_now:
 1021              	.LFB280:
 1022              		.loc 1 541 0
 1023              		.cfi_startproc
 1024              		@ args = 0, pretend = 0, frame = 0
 1025              		@ frame_needed = 0, uses_anonymous_args = 0
 1026              		@ link register save eliminated.
 1027              	.LVL56:
 1028              		.loc 1 544 0
 1029 0000 064B     		ldr	r3, .L95
 1030 0002 9B78     		ldrb	r3, [r3, #2]	@ zero_extendqisi2
 1031 0004 DBB2     		uxtb	r3, r3
 1032 0006 012B     		cmp	r3, #1
 1033 0008 06D9     		bls	.L91
 1034 000a 022B     		cmp	r3, #2
 1035 000c 01D1     		bne	.L94
 1036              		.loc 1 551 0
 1037 000e FFF7FEBF 		b	mcpwm_foc_get_sampling_frequency_now
 1038              	.LVL57:
 1039              	.L94:
 1040              		.loc 1 559 0
 1041 0012 9FED030A 		flds	s0, .L95+4
 1042 0016 7047     		bx	lr
 1043              	.L91:
 1044              		.loc 1 547 0
 1045 0018 FFF7FEBF 		b	mcpwm_get_switching_frequency_now
 1046              	.LVL58:
 1047              	.L96:
 1048              		.align	2
 1049              	.L95:
 1050 001c 00000000 		.word	.LANCHOR12
 1051 0020 00000000 		.word	0
 1052              		.cfi_endproc
 1053              	.LFE280:
 1054              		.size	mc_interface_get_sampling_frequency_now, .-mc_interface_get_sampling_frequency_now
 1055 0024 AFF30080 		.section	.text.mc_interface_get_rpm,"ax",%progbits
 1055      AFF30080 
 1055      AFF30080 
 1056              		.align	2
 1057              		.p2align 4,,15
 1058              		.global	mc_interface_get_rpm
 1059              		.thumb
 1060              		.thumb_func
 1061              		.type	mc_interface_get_rpm, %function
 1062              	mc_interface_get_rpm:
 1063              	.LFB281:
 1064              		.loc 1 561 0
 1065              		.cfi_startproc
 1066              		@ args = 0, pretend = 0, frame = 0
 1067              		@ frame_needed = 0, uses_anonymous_args = 0
 1068              	.LVL59:
 1069 0000 10B5     		push	{r4, lr}
 1070              		.cfi_def_cfa_offset 8
 1071              		.cfi_offset 4, -8
 1072              		.cfi_offset 14, -4
 1073              		.loc 1 564 0
 1074 0002 0E4C     		ldr	r4, .L105
ARM GAS  /tmp/ccB9RVXV.s 			page 20


 1075 0004 A378     		ldrb	r3, [r4, #2]	@ zero_extendqisi2
 1076 0006 DBB2     		uxtb	r3, r3
 1077 0008 012B     		cmp	r3, #1
 1078 000a 13D9     		bls	.L99
 1079 000c 022B     		cmp	r3, #2
 1080 000e 0ED0     		beq	.L100
 1081              		.loc 1 562 0
 1082 0010 9FED0B0A 		flds	s0, .L105+4
 1083              	.LVL60:
 1084              	.L98:
 1085              		.loc 1 578 0
 1086 0014 94F85D31 		ldrb	r3, [r4, #349]	@ zero_extendqisi2
 1087 0018 B7EE007A 		fconsts	s14, #112
 1088 001c 002B     		cmp	r3, #0
 1089 001e FFEE007A 		fconsts	s15, #240
 1090 0022 08BF     		it	eq
 1091 0024 F0EE477A 		fcpyseq	s15, s14
 1092              		.loc 1 579 0
 1093 0028 27EE800A 		fmuls	s0, s15, s0
 1094              	.LVL61:
 1095 002c 10BD     		pop	{r4, pc}
 1096              	.LVL62:
 1097              	.L100:
 1098              		.loc 1 571 0
 1099 002e FFF7FEFF 		bl	mcpwm_foc_get_rpm
 1100              	.LVL63:
 1101              		.loc 1 572 0
 1102 0032 EFE7     		b	.L98
 1103              	.LVL64:
 1104              	.L99:
 1105              		.loc 1 567 0
 1106 0034 FFF7FEFF 		bl	mcpwm_get_rpm
 1107              	.LVL65:
 1108              		.loc 1 568 0
 1109 0038 ECE7     		b	.L98
 1110              	.L106:
 1111 003a 00BF     		.align	2
 1112              	.L105:
 1113 003c 00000000 		.word	.LANCHOR12
 1114 0040 00000000 		.word	0
 1115              		.cfi_endproc
 1116              	.LFE281:
 1117              		.size	mc_interface_get_rpm, .-mc_interface_get_rpm
 1118 0044 AFF30080 		.section	.text.mc_interface_get_amp_hours,"ax",%progbits
 1118      AFF30080 
 1118      AFF30080 
 1119              		.align	2
 1120              		.p2align 4,,15
 1121              		.global	mc_interface_get_amp_hours
 1122              		.thumb
 1123              		.thumb_func
 1124              		.type	mc_interface_get_amp_hours, %function
 1125              	mc_interface_get_amp_hours:
 1126              	.LFB282:
 1127              		.loc 1 590 0
 1128              		.cfi_startproc
 1129              		@ args = 0, pretend = 0, frame = 0
ARM GAS  /tmp/ccB9RVXV.s 			page 21


 1130              		@ frame_needed = 0, uses_anonymous_args = 0
 1131              		@ link register save eliminated.
 1132              	.LVL66:
 1133              		.loc 1 591 0
 1134 0000 054B     		ldr	r3, .L112
 1135 0002 DFED067A 		flds	s15, .L112+4
 1136 0006 93ED000A 		flds	s0, [r3]
 1137 000a 80EE270A 		fdivs	s0, s0, s15
 1138              	.LVL67:
 1139              		.loc 1 593 0
 1140 000e 08B1     		cbz	r0, .L108
 1141              		.loc 1 594 0
 1142 0010 0022     		movs	r2, #0
 1143 0012 1A60     		str	r2, [r3]	@ float
 1144              	.L108:
 1145              		.loc 1 598 0
 1146 0014 7047     		bx	lr
 1147              	.L113:
 1148 0016 00BF     		.align	2
 1149              	.L112:
 1150 0018 00000000 		.word	.LANCHOR26
 1151 001c 00006145 		.word	1163984896
 1152              		.cfi_endproc
 1153              	.LFE282:
 1154              		.size	mc_interface_get_amp_hours, .-mc_interface_get_amp_hours
 1155              		.section	.text.mc_interface_get_amp_hours_charged,"ax",%progbits
 1156              		.align	2
 1157              		.p2align 4,,15
 1158              		.global	mc_interface_get_amp_hours_charged
 1159              		.thumb
 1160              		.thumb_func
 1161              		.type	mc_interface_get_amp_hours_charged, %function
 1162              	mc_interface_get_amp_hours_charged:
 1163              	.LFB283:
 1164              		.loc 1 609 0
 1165              		.cfi_startproc
 1166              		@ args = 0, pretend = 0, frame = 0
 1167              		@ frame_needed = 0, uses_anonymous_args = 0
 1168              		@ link register save eliminated.
 1169              	.LVL68:
 1170              		.loc 1 610 0
 1171 0000 054B     		ldr	r3, .L119
 1172 0002 DFED067A 		flds	s15, .L119+4
 1173 0006 93ED000A 		flds	s0, [r3]
 1174 000a 80EE270A 		fdivs	s0, s0, s15
 1175              	.LVL69:
 1176              		.loc 1 612 0
 1177 000e 08B1     		cbz	r0, .L115
 1178              		.loc 1 613 0
 1179 0010 0022     		movs	r2, #0
 1180 0012 1A60     		str	r2, [r3]	@ float
 1181              	.L115:
 1182              		.loc 1 617 0
 1183 0014 7047     		bx	lr
 1184              	.L120:
 1185 0016 00BF     		.align	2
 1186              	.L119:
ARM GAS  /tmp/ccB9RVXV.s 			page 22


 1187 0018 00000000 		.word	.LANCHOR27
 1188 001c 00006145 		.word	1163984896
 1189              		.cfi_endproc
 1190              	.LFE283:
 1191              		.size	mc_interface_get_amp_hours_charged, .-mc_interface_get_amp_hours_charged
 1192              		.section	.text.mc_interface_get_watt_hours,"ax",%progbits
 1193              		.align	2
 1194              		.p2align 4,,15
 1195              		.global	mc_interface_get_watt_hours
 1196              		.thumb
 1197              		.thumb_func
 1198              		.type	mc_interface_get_watt_hours, %function
 1199              	mc_interface_get_watt_hours:
 1200              	.LFB284:
 1201              		.loc 1 628 0
 1202              		.cfi_startproc
 1203              		@ args = 0, pretend = 0, frame = 0
 1204              		@ frame_needed = 0, uses_anonymous_args = 0
 1205              		@ link register save eliminated.
 1206              	.LVL70:
 1207              		.loc 1 629 0
 1208 0000 054B     		ldr	r3, .L126
 1209 0002 DFED067A 		flds	s15, .L126+4
 1210 0006 93ED000A 		flds	s0, [r3]
 1211 000a 80EE270A 		fdivs	s0, s0, s15
 1212              	.LVL71:
 1213              		.loc 1 631 0
 1214 000e 08B1     		cbz	r0, .L122
 1215              		.loc 1 632 0
 1216 0010 0022     		movs	r2, #0
 1217 0012 1A60     		str	r2, [r3]	@ float
 1218              	.L122:
 1219              		.loc 1 636 0
 1220 0014 7047     		bx	lr
 1221              	.L127:
 1222 0016 00BF     		.align	2
 1223              	.L126:
 1224 0018 00000000 		.word	.LANCHOR28
 1225 001c 00006145 		.word	1163984896
 1226              		.cfi_endproc
 1227              	.LFE284:
 1228              		.size	mc_interface_get_watt_hours, .-mc_interface_get_watt_hours
 1229              		.section	.text.mc_interface_get_watt_hours_charged,"ax",%progbits
 1230              		.align	2
 1231              		.p2align 4,,15
 1232              		.global	mc_interface_get_watt_hours_charged
 1233              		.thumb
 1234              		.thumb_func
 1235              		.type	mc_interface_get_watt_hours_charged, %function
 1236              	mc_interface_get_watt_hours_charged:
 1237              	.LFB285:
 1238              		.loc 1 647 0
 1239              		.cfi_startproc
 1240              		@ args = 0, pretend = 0, frame = 0
 1241              		@ frame_needed = 0, uses_anonymous_args = 0
 1242              		@ link register save eliminated.
 1243              	.LVL72:
ARM GAS  /tmp/ccB9RVXV.s 			page 23


 1244              		.loc 1 648 0
 1245 0000 054B     		ldr	r3, .L133
 1246 0002 DFED067A 		flds	s15, .L133+4
 1247 0006 93ED000A 		flds	s0, [r3]
 1248 000a 80EE270A 		fdivs	s0, s0, s15
 1249              	.LVL73:
 1250              		.loc 1 650 0
 1251 000e 08B1     		cbz	r0, .L129
 1252              		.loc 1 651 0
 1253 0010 0022     		movs	r2, #0
 1254 0012 1A60     		str	r2, [r3]	@ float
 1255              	.L129:
 1256              		.loc 1 655 0
 1257 0014 7047     		bx	lr
 1258              	.L134:
 1259 0016 00BF     		.align	2
 1260              	.L133:
 1261 0018 00000000 		.word	.LANCHOR29
 1262 001c 00006145 		.word	1163984896
 1263              		.cfi_endproc
 1264              	.LFE285:
 1265              		.size	mc_interface_get_watt_hours_charged, .-mc_interface_get_watt_hours_charged
 1266              		.section	.text.mc_interface_get_tot_current,"ax",%progbits
 1267              		.align	2
 1268              		.p2align 4,,15
 1269              		.global	mc_interface_get_tot_current
 1270              		.thumb
 1271              		.thumb_func
 1272              		.type	mc_interface_get_tot_current, %function
 1273              	mc_interface_get_tot_current:
 1274              	.LFB286:
 1275              		.loc 1 657 0
 1276              		.cfi_startproc
 1277              		@ args = 0, pretend = 0, frame = 0
 1278              		@ frame_needed = 0, uses_anonymous_args = 0
 1279              		@ link register save eliminated.
 1280              	.LVL74:
 1281              		.loc 1 660 0
 1282 0000 064B     		ldr	r3, .L141
 1283 0002 9B78     		ldrb	r3, [r3, #2]	@ zero_extendqisi2
 1284 0004 DBB2     		uxtb	r3, r3
 1285 0006 012B     		cmp	r3, #1
 1286 0008 06D9     		bls	.L137
 1287 000a 022B     		cmp	r3, #2
 1288 000c 01D1     		bne	.L140
 1289              		.loc 1 667 0
 1290 000e FFF7FEBF 		b	mcpwm_foc_get_tot_current
 1291              	.LVL75:
 1292              	.L140:
 1293              		.loc 1 675 0
 1294 0012 9FED030A 		flds	s0, .L141+4
 1295 0016 7047     		bx	lr
 1296              	.L137:
 1297              		.loc 1 663 0
 1298 0018 FFF7FEBF 		b	mcpwm_get_tot_current
 1299              	.LVL76:
 1300              	.L142:
ARM GAS  /tmp/ccB9RVXV.s 			page 24


 1301              		.align	2
 1302              	.L141:
 1303 001c 00000000 		.word	.LANCHOR12
 1304 0020 00000000 		.word	0
 1305              		.cfi_endproc
 1306              	.LFE286:
 1307              		.size	mc_interface_get_tot_current, .-mc_interface_get_tot_current
 1308 0024 AFF30080 		.section	.text.mc_interface_get_tot_current_filtered,"ax",%progbits
 1308      AFF30080 
 1308      AFF30080 
 1309              		.align	2
 1310              		.p2align 4,,15
 1311              		.global	mc_interface_get_tot_current_filtered
 1312              		.thumb
 1313              		.thumb_func
 1314              		.type	mc_interface_get_tot_current_filtered, %function
 1315              	mc_interface_get_tot_current_filtered:
 1316              	.LFB287:
 1317              		.loc 1 677 0
 1318              		.cfi_startproc
 1319              		@ args = 0, pretend = 0, frame = 0
 1320              		@ frame_needed = 0, uses_anonymous_args = 0
 1321              		@ link register save eliminated.
 1322              	.LVL77:
 1323              		.loc 1 680 0
 1324 0000 064B     		ldr	r3, .L149
 1325 0002 9B78     		ldrb	r3, [r3, #2]	@ zero_extendqisi2
 1326 0004 DBB2     		uxtb	r3, r3
 1327 0006 012B     		cmp	r3, #1
 1328 0008 06D9     		bls	.L145
 1329 000a 022B     		cmp	r3, #2
 1330 000c 01D1     		bne	.L148
 1331              		.loc 1 687 0
 1332 000e FFF7FEBF 		b	mcpwm_foc_get_tot_current_filtered
 1333              	.LVL78:
 1334              	.L148:
 1335              		.loc 1 695 0
 1336 0012 9FED030A 		flds	s0, .L149+4
 1337 0016 7047     		bx	lr
 1338              	.L145:
 1339              		.loc 1 683 0
 1340 0018 FFF7FEBF 		b	mcpwm_get_tot_current_filtered
 1341              	.LVL79:
 1342              	.L150:
 1343              		.align	2
 1344              	.L149:
 1345 001c 00000000 		.word	.LANCHOR12
 1346 0020 00000000 		.word	0
 1347              		.cfi_endproc
 1348              	.LFE287:
 1349              		.size	mc_interface_get_tot_current_filtered, .-mc_interface_get_tot_current_filtered
 1350 0024 AFF30080 		.section	.text.mc_interface_get_tot_current_directional,"ax",%progbits
 1350      AFF30080 
 1350      AFF30080 
 1351              		.align	2
 1352              		.p2align 4,,15
 1353              		.global	mc_interface_get_tot_current_directional
ARM GAS  /tmp/ccB9RVXV.s 			page 25


 1354              		.thumb
 1355              		.thumb_func
 1356              		.type	mc_interface_get_tot_current_directional, %function
 1357              	mc_interface_get_tot_current_directional:
 1358              	.LFB288:
 1359              		.loc 1 697 0
 1360              		.cfi_startproc
 1361              		@ args = 0, pretend = 0, frame = 0
 1362              		@ frame_needed = 0, uses_anonymous_args = 0
 1363              	.LVL80:
 1364 0000 10B5     		push	{r4, lr}
 1365              		.cfi_def_cfa_offset 8
 1366              		.cfi_offset 4, -8
 1367              		.cfi_offset 14, -4
 1368              		.loc 1 700 0
 1369 0002 0E4C     		ldr	r4, .L159
 1370 0004 A378     		ldrb	r3, [r4, #2]	@ zero_extendqisi2
 1371 0006 DBB2     		uxtb	r3, r3
 1372 0008 012B     		cmp	r3, #1
 1373 000a 13D9     		bls	.L153
 1374 000c 022B     		cmp	r3, #2
 1375 000e 0ED0     		beq	.L154
 1376              		.loc 1 698 0
 1377 0010 9FED0B0A 		flds	s0, .L159+4
 1378              	.LVL81:
 1379              	.L152:
 1380              		.loc 1 714 0
 1381 0014 94F85D31 		ldrb	r3, [r4, #349]	@ zero_extendqisi2
 1382 0018 B7EE007A 		fconsts	s14, #112
 1383 001c 002B     		cmp	r3, #0
 1384 001e FFEE007A 		fconsts	s15, #240
 1385 0022 08BF     		it	eq
 1386 0024 F0EE477A 		fcpyseq	s15, s14
 1387              		.loc 1 715 0
 1388 0028 27EE800A 		fmuls	s0, s15, s0
 1389              	.LVL82:
 1390 002c 10BD     		pop	{r4, pc}
 1391              	.LVL83:
 1392              	.L154:
 1393              		.loc 1 707 0
 1394 002e FFF7FEFF 		bl	mcpwm_foc_get_tot_current_directional
 1395              	.LVL84:
 1396              		.loc 1 708 0
 1397 0032 EFE7     		b	.L152
 1398              	.LVL85:
 1399              	.L153:
 1400              		.loc 1 703 0
 1401 0034 FFF7FEFF 		bl	mcpwm_get_tot_current_directional
 1402              	.LVL86:
 1403              		.loc 1 704 0
 1404 0038 ECE7     		b	.L152
 1405              	.L160:
 1406 003a 00BF     		.align	2
 1407              	.L159:
 1408 003c 00000000 		.word	.LANCHOR12
 1409 0040 00000000 		.word	0
 1410              		.cfi_endproc
ARM GAS  /tmp/ccB9RVXV.s 			page 26


 1411              	.LFE288:
 1412              		.size	mc_interface_get_tot_current_directional, .-mc_interface_get_tot_current_directional
 1413 0044 AFF30080 		.section	.text.mc_interface_get_tot_current_directional_filtered,"ax",%progbits
 1413      AFF30080 
 1413      AFF30080 
 1414              		.align	2
 1415              		.p2align 4,,15
 1416              		.global	mc_interface_get_tot_current_directional_filtered
 1417              		.thumb
 1418              		.thumb_func
 1419              		.type	mc_interface_get_tot_current_directional_filtered, %function
 1420              	mc_interface_get_tot_current_directional_filtered:
 1421              	.LFB289:
 1422              		.loc 1 717 0
 1423              		.cfi_startproc
 1424              		@ args = 0, pretend = 0, frame = 0
 1425              		@ frame_needed = 0, uses_anonymous_args = 0
 1426              	.LVL87:
 1427 0000 10B5     		push	{r4, lr}
 1428              		.cfi_def_cfa_offset 8
 1429              		.cfi_offset 4, -8
 1430              		.cfi_offset 14, -4
 1431              		.loc 1 720 0
 1432 0002 0E4C     		ldr	r4, .L169
 1433 0004 A378     		ldrb	r3, [r4, #2]	@ zero_extendqisi2
 1434 0006 DBB2     		uxtb	r3, r3
 1435 0008 012B     		cmp	r3, #1
 1436 000a 13D9     		bls	.L163
 1437 000c 022B     		cmp	r3, #2
 1438 000e 0ED0     		beq	.L164
 1439              		.loc 1 718 0
 1440 0010 9FED0B0A 		flds	s0, .L169+4
 1441              	.LVL88:
 1442              	.L162:
 1443              		.loc 1 734 0
 1444 0014 94F85D31 		ldrb	r3, [r4, #349]	@ zero_extendqisi2
 1445 0018 B7EE007A 		fconsts	s14, #112
 1446 001c 002B     		cmp	r3, #0
 1447 001e FFEE007A 		fconsts	s15, #240
 1448 0022 08BF     		it	eq
 1449 0024 F0EE477A 		fcpyseq	s15, s14
 1450              		.loc 1 735 0
 1451 0028 27EE800A 		fmuls	s0, s15, s0
 1452              	.LVL89:
 1453 002c 10BD     		pop	{r4, pc}
 1454              	.LVL90:
 1455              	.L164:
 1456              		.loc 1 727 0
 1457 002e FFF7FEFF 		bl	mcpwm_foc_get_tot_current_directional_filtered
 1458              	.LVL91:
 1459              		.loc 1 728 0
 1460 0032 EFE7     		b	.L162
 1461              	.LVL92:
 1462              	.L163:
 1463              		.loc 1 723 0
 1464 0034 FFF7FEFF 		bl	mcpwm_get_tot_current_directional_filtered
 1465              	.LVL93:
ARM GAS  /tmp/ccB9RVXV.s 			page 27


 1466              		.loc 1 724 0
 1467 0038 ECE7     		b	.L162
 1468              	.L170:
 1469 003a 00BF     		.align	2
 1470              	.L169:
 1471 003c 00000000 		.word	.LANCHOR12
 1472 0040 00000000 		.word	0
 1473              		.cfi_endproc
 1474              	.LFE289:
 1475              		.size	mc_interface_get_tot_current_directional_filtered, .-mc_interface_get_tot_current_directiona
 1476 0044 AFF30080 		.section	.text.mc_interface_get_tot_current_in,"ax",%progbits
 1476      AFF30080 
 1476      AFF30080 
 1477              		.align	2
 1478              		.p2align 4,,15
 1479              		.global	mc_interface_get_tot_current_in
 1480              		.thumb
 1481              		.thumb_func
 1482              		.type	mc_interface_get_tot_current_in, %function
 1483              	mc_interface_get_tot_current_in:
 1484              	.LFB290:
 1485              		.loc 1 737 0
 1486              		.cfi_startproc
 1487              		@ args = 0, pretend = 0, frame = 0
 1488              		@ frame_needed = 0, uses_anonymous_args = 0
 1489              		@ link register save eliminated.
 1490              	.LVL94:
 1491              		.loc 1 740 0
 1492 0000 064B     		ldr	r3, .L177
 1493 0002 9B78     		ldrb	r3, [r3, #2]	@ zero_extendqisi2
 1494 0004 DBB2     		uxtb	r3, r3
 1495 0006 012B     		cmp	r3, #1
 1496 0008 06D9     		bls	.L173
 1497 000a 022B     		cmp	r3, #2
 1498 000c 01D1     		bne	.L176
 1499              		.loc 1 747 0
 1500 000e FFF7FEBF 		b	mcpwm_foc_get_tot_current_in
 1501              	.LVL95:
 1502              	.L176:
 1503              		.loc 1 755 0
 1504 0012 9FED030A 		flds	s0, .L177+4
 1505 0016 7047     		bx	lr
 1506              	.L173:
 1507              		.loc 1 743 0
 1508 0018 FFF7FEBF 		b	mcpwm_get_tot_current_in
 1509              	.LVL96:
 1510              	.L178:
 1511              		.align	2
 1512              	.L177:
 1513 001c 00000000 		.word	.LANCHOR12
 1514 0020 00000000 		.word	0
 1515              		.cfi_endproc
 1516              	.LFE290:
 1517              		.size	mc_interface_get_tot_current_in, .-mc_interface_get_tot_current_in
 1518 0024 AFF30080 		.section	.text.mc_interface_get_tot_current_in_filtered,"ax",%progbits
 1518      AFF30080 
 1518      AFF30080 
ARM GAS  /tmp/ccB9RVXV.s 			page 28


 1519              		.align	2
 1520              		.p2align 4,,15
 1521              		.global	mc_interface_get_tot_current_in_filtered
 1522              		.thumb
 1523              		.thumb_func
 1524              		.type	mc_interface_get_tot_current_in_filtered, %function
 1525              	mc_interface_get_tot_current_in_filtered:
 1526              	.LFB291:
 1527              		.loc 1 757 0
 1528              		.cfi_startproc
 1529              		@ args = 0, pretend = 0, frame = 0
 1530              		@ frame_needed = 0, uses_anonymous_args = 0
 1531              		@ link register save eliminated.
 1532              	.LVL97:
 1533              		.loc 1 760 0
 1534 0000 064B     		ldr	r3, .L185
 1535 0002 9B78     		ldrb	r3, [r3, #2]	@ zero_extendqisi2
 1536 0004 DBB2     		uxtb	r3, r3
 1537 0006 012B     		cmp	r3, #1
 1538 0008 06D9     		bls	.L181
 1539 000a 022B     		cmp	r3, #2
 1540 000c 01D1     		bne	.L184
 1541              		.loc 1 767 0
 1542 000e FFF7FEBF 		b	mcpwm_foc_get_tot_current_in_filtered
 1543              	.LVL98:
 1544              	.L184:
 1545              		.loc 1 775 0
 1546 0012 9FED030A 		flds	s0, .L185+4
 1547 0016 7047     		bx	lr
 1548              	.L181:
 1549              		.loc 1 763 0
 1550 0018 FFF7FEBF 		b	mcpwm_get_tot_current_in_filtered
 1551              	.LVL99:
 1552              	.L186:
 1553              		.align	2
 1554              	.L185:
 1555 001c 00000000 		.word	.LANCHOR12
 1556 0020 00000000 		.word	0
 1557              		.cfi_endproc
 1558              	.LFE291:
 1559              		.size	mc_interface_get_tot_current_in_filtered, .-mc_interface_get_tot_current_in_filtered
 1560 0024 AFF30080 		.section	.text.mc_interface_get_tachometer_value,"ax",%progbits
 1560      AFF30080 
 1560      AFF30080 
 1561              		.align	2
 1562              		.p2align 4,,15
 1563              		.global	mc_interface_get_tachometer_value
 1564              		.thumb
 1565              		.thumb_func
 1566              		.type	mc_interface_get_tachometer_value, %function
 1567              	mc_interface_get_tachometer_value:
 1568              	.LFB292:
 1569              		.loc 1 777 0
 1570              		.cfi_startproc
 1571              		@ args = 0, pretend = 0, frame = 0
 1572              		@ frame_needed = 0, uses_anonymous_args = 0
 1573              	.LVL100:
ARM GAS  /tmp/ccB9RVXV.s 			page 29


 1574 0000 10B5     		push	{r4, lr}
 1575              		.cfi_def_cfa_offset 8
 1576              		.cfi_offset 4, -8
 1577              		.cfi_offset 14, -4
 1578              		.loc 1 780 0
 1579 0002 144C     		ldr	r4, .L195
 1580 0004 A378     		ldrb	r3, [r4, #2]	@ zero_extendqisi2
 1581 0006 DBB2     		uxtb	r3, r3
 1582 0008 012B     		cmp	r3, #1
 1583 000a 1BD9     		bls	.L189
 1584 000c 022B     		cmp	r3, #2
 1585 000e 12D0     		beq	.L190
 1586 0010 9FED117A 		flds	s14, .L195+4
 1587              	.LVL101:
 1588              	.L188:
 1589              		.loc 1 794 0
 1590 0014 94F85D31 		ldrb	r3, [r4, #349]	@ zero_extendqisi2
 1591 0018 F7EE006A 		fconsts	s13, #112
 1592 001c 002B     		cmp	r3, #0
 1593 001e FFEE007A 		fconsts	s15, #240
 1594 0022 08BF     		it	eq
 1595 0024 F0EE667A 		fcpyseq	s15, s13
 1596 0028 67EE877A 		fmuls	s15, s15, s14
 1597              		.loc 1 795 0
 1598 002c FDEEE77A 		ftosizs	s15, s15
 1599 0030 17EE900A 		fmrs	r0, s15	@ int
 1600 0034 10BD     		pop	{r4, pc}
 1601              	.LVL102:
 1602              	.L190:
 1603              		.loc 1 787 0
 1604 0036 FFF7FEFF 		bl	mcpwm_foc_get_tachometer_value
 1605              	.LVL103:
 1606 003a 07EE900A 		fmsr	s15, r0	@ int
 1607 003e B8EEE77A 		fsitos	s14, s15
 1608              		.loc 1 788 0
 1609 0042 E7E7     		b	.L188
 1610              	.LVL104:
 1611              	.L189:
 1612              		.loc 1 783 0
 1613 0044 FFF7FEFF 		bl	mcpwm_get_tachometer_value
 1614              	.LVL105:
 1615 0048 07EE900A 		fmsr	s15, r0	@ int
 1616 004c B8EEE77A 		fsitos	s14, s15
 1617              		.loc 1 784 0
 1618 0050 E0E7     		b	.L188
 1619              	.L196:
 1620 0052 00BF     		.align	2
 1621              	.L195:
 1622 0054 00000000 		.word	.LANCHOR12
 1623 0058 00000000 		.word	0
 1624              		.cfi_endproc
 1625              	.LFE292:
 1626              		.size	mc_interface_get_tachometer_value, .-mc_interface_get_tachometer_value
 1627 005c AFF30080 		.section	.text.mc_interface_fault_stop.part.1,"ax",%progbits
 1628              		.align	2
 1629              		.p2align 4,,15
 1630              		.thumb
ARM GAS  /tmp/ccB9RVXV.s 			page 30


 1631              		.thumb_func
 1632              		.type	mc_interface_fault_stop.part.1, %function
 1633              	mc_interface_fault_stop.part.1:
 1634              	.LFB313:
 1635              		.loc 1 991 0
 1636              		.cfi_startproc
 1637              		@ args = 0, pretend = 0, frame = 72
 1638              		@ frame_needed = 0, uses_anonymous_args = 0
 1639              	.LVL106:
 1640 0000 F0B5     		push	{r4, r5, r6, r7, lr}
 1641              		.cfi_def_cfa_offset 20
 1642              		.cfi_offset 4, -20
 1643              		.cfi_offset 5, -16
 1644              		.cfi_offset 6, -12
 1645              		.cfi_offset 7, -8
 1646              		.cfi_offset 14, -4
 1647 0002 93B0     		sub	sp, sp, #76
 1648              		.cfi_def_cfa_offset 96
 1649              		.loc 1 991 0
 1650 0004 0546     		mov	r5, r0
 1651              		.loc 1 997 0
 1652 0006 FFF7FEFF 		bl	mc_interface_dccal_done
 1653              	.LVL107:
 1654 000a 404C     		ldr	r4, .L206
 1655 000c 08B1     		cbz	r0, .L198
 1656 000e 2678     		ldrb	r6, [r4]	@ zero_extendqisi2
 1657 0010 A6B1     		cbz	r6, .L205
 1658              	.L198:
 1659              		.loc 1 1028 0
 1660 0012 3F4B     		ldr	r3, .L206+4
 1661 0014 3F4A     		ldr	r2, .L206+8
 1662 0016 D3F84C11 		ldr	r1, [r3, #332]
 1663              		.loc 1 1030 0
 1664 001a 9B78     		ldrb	r3, [r3, #2]	@ zero_extendqisi2
 1665              		.loc 1 1028 0
 1666 001c 1160     		str	r1, [r2]
 1667              		.loc 1 1030 0
 1668 001e DBB2     		uxtb	r3, r3
 1669 0020 012B     		cmp	r3, #1
 1670 0022 06D9     		bls	.L200
 1671 0024 022B     		cmp	r3, #2
 1672 0026 01D1     		bne	.L199
 1673              		.loc 1 1037 0
 1674 0028 FFF7FEFF 		bl	mcpwm_foc_stop_pwm
 1675              	.LVL108:
 1676              	.L199:
 1677              		.loc 1 1044 0
 1678 002c 2570     		strb	r5, [r4]
 1679              		.loc 1 1045 0
 1680 002e 13B0     		add	sp, sp, #76
 1681              		@ sp needed
 1682 0030 F0BD     		pop	{r4, r5, r6, r7, pc}
 1683              	.L200:
 1684              		.loc 1 1033 0
 1685 0032 FFF7FEFF 		bl	mcpwm_stop_pwm
 1686              	.LVL109:
 1687              		.loc 1 1044 0
ARM GAS  /tmp/ccB9RVXV.s 			page 31


 1688 0036 2570     		strb	r5, [r4]
 1689              		.loc 1 1045 0
 1690 0038 13B0     		add	sp, sp, #76
 1691              		@ sp needed
 1692 003a F0BD     		pop	{r4, r5, r6, r7, pc}
 1693              	.L205:
 1694              	.LBB124:
 1695              		.loc 1 1000 0
 1696 003c FFF7FEFF 		bl	utils_sys_lock_cnt
 1697              	.LVL110:
 1698              		.loc 1 1001 0
 1699 0040 354A     		ldr	r2, .L206+12
 1700              		.loc 1 1002 0
 1701 0042 364B     		ldr	r3, .L206+16
 1702              		.loc 1 1001 0
 1703 0044 526B     		ldr	r2, [r2, #52]
 1704 0046 0192     		str	r2, [sp, #4]
 1705              		.loc 1 1002 0
 1706 0048 1A6C     		ldr	r2, [r3, #64]
 1707 004a 0292     		str	r2, [sp, #8]
 1708              		.loc 1 1003 0
 1709 004c DB6A     		ldr	r3, [r3, #44]
 1710 004e 0393     		str	r3, [sp, #12]
 1711              		.loc 1 1004 0
 1712 0050 FFF7FEFF 		bl	utils_sys_unlock_cnt
 1713              	.LVL111:
 1714              		.loc 1 1007 0
 1715 0054 8DF81050 		strb	r5, [sp, #16]
 1716              		.loc 1 1008 0
 1717 0058 FFF7FEFF 		bl	mc_interface_get_tot_current
 1718              	.LVL112:
 1719              		.loc 1 1010 0
 1720 005c 304F     		ldr	r7, .L206+20
 1721              		.loc 1 1008 0
 1722 005e 8DED050A 		fsts	s0, [sp, #20]
 1723              		.loc 1 1009 0
 1724 0062 FFF7FEFF 		bl	mc_interface_get_tot_current_filtered
 1725              	.LVL113:
 1726              		.loc 1 1010 0
 1727 0066 3B8A     		ldrh	r3, [r7, #16]
 1728 0068 9FED2E7A 		flds	s14, .L206+24
 1729 006c DFED2E7A 		flds	s15, .L206+28
 1730              		.loc 1 1009 0
 1731 0070 8DED060A 		fsts	s0, [sp, #24]
 1732              		.loc 1 1010 0
 1733 0074 9BB2     		uxth	r3, r3
 1734 0076 06EE103A 		fmsr	s12, r3	@ int
 1735 007a F8EE466A 		fuitos	s13, s12
 1736 007e 26EE877A 		fmuls	s14, s13, s14
 1737 0082 67EE277A 		fmuls	s15, s14, s15
 1738 0086 CDED077A 		fsts	s15, [sp, #28]
 1739              		.loc 1 1011 0
 1740 008a FFF7FEFF 		bl	mc_interface_get_duty_cycle_now
 1741              	.LVL114:
 1742 008e 8DED080A 		fsts	s0, [sp, #32]
 1743              		.loc 1 1012 0
 1744 0092 FFF7FEFF 		bl	mc_interface_get_rpm
ARM GAS  /tmp/ccB9RVXV.s 			page 32


 1745              	.LVL115:
 1746              		.loc 1 1013 0
 1747 0096 3046     		mov	r0, r6
 1748              		.loc 1 1012 0
 1749 0098 8DED090A 		fsts	s0, [sp, #36]
 1750              		.loc 1 1013 0
 1751 009c FFF7FEFF 		bl	mc_interface_get_tachometer_value
 1752              	.LVL116:
 1753              		.loc 1 1014 0
 1754 00a0 224B     		ldr	r3, .L206+32
 1755              		.loc 1 1013 0
 1756 00a2 0A90     		str	r0, [sp, #40]
 1757              		.loc 1 1014 0
 1758 00a4 1868     		ldr	r0, [r3]
 1759              		.loc 1 1015 0
 1760 00a6 0199     		ldr	r1, [sp, #4]
 1761              		.loc 1 1016 0
 1762 00a8 029A     		ldr	r2, [sp, #8]
 1763              		.loc 1 1017 0
 1764 00aa 039B     		ldr	r3, [sp, #12]
 1765              		.loc 1 1015 0
 1766 00ac 0C91     		str	r1, [sp, #48]
 1767              		.loc 1 1016 0
 1768 00ae 0D92     		str	r2, [sp, #52]
 1769              		.loc 1 1017 0
 1770 00b0 0E93     		str	r3, [sp, #56]
 1771              		.loc 1 1014 0
 1772 00b2 0B90     		str	r0, [sp, #44]
 1773              		.loc 1 1018 0
 1774 00b4 FFF7FEFF 		bl	mcpwm_get_comm_step
 1775              	.LVL117:
 1776              		.loc 1 1019 0
 1777 00b8 7B89     		ldrh	r3, [r7, #10]
 1778 00ba 9FED1D7A 		flds	s14, .L206+36
 1779 00be DFED1D7A 		flds	s15, .L206+40
 1780              		.loc 1 1018 0
 1781 00c2 0F90     		str	r0, [sp, #60]
 1782              		.loc 1 1019 0
 1783 00c4 9BB2     		uxth	r3, r3
 1784 00c6 06EE903A 		fmsr	s13, r3	@ int
 1785 00ca B8EEE60A 		fsitos	s0, s13
 1786 00ce 87EE000A 		fdivs	s0, s14, s0
 1787 00d2 30EE670A 		fsubs	s0, s0, s15
 1788 00d6 80EE270A 		fdivs	s0, s0, s15
 1789 00da FFF7FEFF 		bl	logf
 1790              	.LVL118:
 1791              		.loc 1 1025 0
 1792 00de 04A8     		add	r0, sp, #16
 1793              		.loc 1 1019 0
 1794 00e0 DFED156A 		flds	s13, .L206+44
 1795 00e4 9FED157A 		flds	s14, .L206+48
 1796 00e8 DFED157A 		flds	s15, .L206+52
 1797 00ec 80EE260A 		fdivs	s0, s0, s13
 1798 00f0 B7EE006A 		fconsts	s12, #112
 1799 00f4 30EE077A 		fadds	s14, s0, s14
 1800 00f8 86EE077A 		fdivs	s14, s12, s14
 1801 00fc 77EE677A 		fsubs	s15, s14, s15
ARM GAS  /tmp/ccB9RVXV.s 			page 33


 1802 0100 CDED107A 		fsts	s15, [sp, #64]
 1803              		.loc 1 1025 0
 1804 0104 FFF7FEFF 		bl	terminal_add_fault_data
 1805              	.LVL119:
 1806 0108 83E7     		b	.L198
 1807              	.L207:
 1808 010a 00BF     		.align	2
 1809              	.L206:
 1810 010c 00000000 		.word	.LANCHOR13
 1811 0110 00000000 		.word	.LANCHOR12
 1812 0114 00000000 		.word	.LANCHOR14
 1813 0118 00040140 		.word	1073808384
 1814 011c 00000140 		.word	1073807360
 1815 0120 00000000 		.word	.LANCHOR41
 1816 0124 6740533A 		.word	978534503
 1817 0128 74D19541 		.word	1100337524
 1818 012c 00000000 		.word	.LANCHOR15
 1819 0130 3C361C4C 		.word	1276917308
 1820 0134 00401C46 		.word	1176256512
 1821 0138 00A05645 		.word	1163304960
 1822 013c 0FCF5B3B 		.word	995872527
 1823 0140 33938843 		.word	1133024051
 1824              	.LBE124:
 1825              		.cfi_endproc
 1826              	.LFE313:
 1827              		.size	mc_interface_fault_stop.part.1, .-mc_interface_fault_stop.part.1
 1828 0144 AFF30080 		.section	.text.update_override_limits.constprop.2,"ax",%progbits
 1828      AFF30080 
 1828      AFF30080 
 1829              		.align	2
 1830              		.p2align 4,,15
 1831              		.thumb
 1832              		.thumb_func
 1833              		.type	update_override_limits.constprop.2, %function
 1834              	update_override_limits.constprop.2:
 1835              	.LFB314:
 1836              		.loc 1 1301 0
 1837              		.cfi_startproc
 1838              		@ args = 0, pretend = 0, frame = 0
 1839              		@ frame_needed = 0, uses_anonymous_args = 0
 1840              	.LVL120:
 1841 0000 F8B5     		push	{r3, r4, r5, r6, r7, lr}
 1842              		.cfi_def_cfa_offset 24
 1843              		.cfi_offset 3, -24
 1844              		.cfi_offset 4, -20
 1845              		.cfi_offset 5, -16
 1846              		.cfi_offset 6, -12
 1847              		.cfi_offset 7, -8
 1848              		.cfi_offset 14, -4
 1849              		.loc 1 1302 0
 1850 0002 E14F     		ldr	r7, .L314
 1851 0004 9FEDE17A 		flds	s14, .L314+4
 1852 0008 3B8A     		ldrh	r3, [r7, #16]
 1853              		.loc 1 1305 0
 1854 000a E14D     		ldr	r5, .L314+8
 1855              		.loc 1 1302 0
 1856 000c DFEDE17A 		flds	s15, .L314+12
ARM GAS  /tmp/ccB9RVXV.s 			page 34


 1857              		.loc 1 1306 0
 1858 0010 E14E     		ldr	r6, .L314+16
 1859 0012 E24C     		ldr	r4, .L314+20
 1860              		.loc 1 1302 0
 1861 0014 9BB2     		uxth	r3, r3
 1862 0016 06EE903A 		fmsr	s13, r3	@ int
 1863              		.loc 1 1301 0
 1864 001a 2DED0A8B 		fstmfdd	sp!, {d8, d9, d10, d11, d12}
 1865              		.cfi_def_cfa_offset 64
 1866              		.cfi_offset 80, -64
 1867              		.cfi_offset 82, -56
 1868              		.cfi_offset 84, -48
 1869              		.cfi_offset 86, -40
 1870              		.cfi_offset 88, -32
 1871              		.loc 1 1302 0
 1872 001e F8EE668A 		fuitos	s17, s13
 1873              		.loc 1 1305 0
 1874 0022 9FEDDF8A 		flds	s16, .L314+24
 1875 0026 9FEDDFBA 		flds	s22, .L314+28
 1876 002a DFEDDFAA 		flds	s21, .L314+32
 1877 002e 9FEDDFAA 		flds	s20, .L314+36
 1878              		.loc 1 1302 0
 1879 0032 68EE878A 		fmuls	s17, s17, s14
 1880              		.loc 1 1305 0
 1881 0036 F7EE009A 		fconsts	s19, #112
 1882              		.loc 1 1302 0
 1883 003a 68EEA78A 		fmuls	s17, s17, s15
 1884              	.LVL121:
 1885              		.loc 1 1303 0
 1886 003e FFF7FEFF 		bl	mc_interface_get_rpm
 1887              	.LVL122:
 1888              		.loc 1 1305 0
 1889 0042 D5ED00BA 		flds	s23, [r5]
 1890 0046 95ED00CA 		flds	s24, [r5]
 1891 004a 7B89     		ldrh	r3, [r7, #10]
 1892 004c DFEDD87A 		flds	s15, .L314+40
 1893 0050 9BB2     		uxth	r3, r3
 1894 0052 07EE103A 		fmsr	s14, r3	@ int
 1895              		.loc 1 1303 0
 1896 0056 B0EE409A 		fcpys	s18, s0
 1897              	.LVL123:
 1898              		.loc 1 1305 0
 1899 005a B8EEC70A 		fsitos	s0, s14
 1900              	.LVL124:
 1901 005e 87EE800A 		fdivs	s0, s15, s0
 1902 0062 30EE480A 		fsubs	s0, s0, s16
 1903 0066 80EE080A 		fdivs	s0, s0, s16
 1904 006a FFF7FEFF 		bl	logf
 1905              	.LVL125:
 1906 006e 9FEDD17A 		flds	s14, .L314+44
 1907              		.loc 1 1306 0
 1908 0072 DFEDD17A 		flds	s15, .L314+48
 1909              		.loc 1 1305 0
 1910 0076 80EE070A 		fdivs	s0, s0, s14
 1911 007a 30EE0B7A 		fadds	s14, s0, s22
 1912 007e 89EE877A 		fdivs	s14, s19, s14
 1913 0082 37EE6A7A 		fsubs	s14, s14, s21
ARM GAS  /tmp/ccB9RVXV.s 			page 35


 1914 0086 3CEE47CA 		fsubs	s24, s24, s14
 1915 008a ECEE4ABA 		vfms.f32	s23, s24, s20
 1916 008e C5ED00BA 		fsts	s23, [r5]
 1917              		.loc 1 1306 0
 1918 0092 D6ED00BA 		flds	s23, [r6]
 1919 0096 96ED00CA 		flds	s24, [r6]
 1920 009a FB8A     		ldrh	r3, [r7, #22]
 1921 009c 9BB2     		uxth	r3, r3
 1922 009e 06EE903A 		fmsr	s13, r3	@ int
 1923 00a2 B8EE660A 		fuitos	s0, s13
 1924 00a6 87EE800A 		fdivs	s0, s15, s0
 1925 00aa 30EE690A 		fsubs	s0, s0, s19
 1926 00ae 88EE000A 		fdivs	s0, s16, s0
 1927 00b2 80EE080A 		fdivs	s0, s0, s16
 1928 00b6 FFF7FEFF 		bl	logf
 1929              	.LVL126:
 1930 00ba D4ED5C7A 		flds	s15, [r4, #368]
 1931 00be 80EE270A 		fdivs	s0, s0, s15
 1932 00c2 30EE0BBA 		fadds	s22, s0, s22
 1933 00c6 C9EE8B9A 		fdivs	s19, s19, s22
 1934 00ca 79EEEAAA 		fsubs	s21, s19, s21
 1935 00ce 3CEE6ACA 		fsubs	s24, s24, s21
 1936 00d2 ECEE4ABA 		vfms.f32	s23, s24, s20
 1937 00d6 C6ED00BA 		fsts	s23, [r6]
 1938              	.LVL127:
 1939              		.loc 1 1311 0
 1940 00da 94ED107A 		flds	s14, [r4, #64]
 1941 00de D5ED007A 		flds	s15, [r5]
 1942 00e2 B4EEE77A 		fcmpes	s14, s15
 1943 00e6 F1EE10FA 		fmstat
 1944 00ea 40F3F880 		ble	.L292
 1945              		.loc 1 1312 0
 1946 00ee D4ED029A 		flds	s19, [r4, #8]
 1947              	.LVL128:
 1948              		.loc 1 1313 0
 1949 00f2 94ED01CA 		flds	s24, [r4, #4]
 1950              	.LVL129:
 1951              	.L211:
 1952              		.loc 1 1338 0
 1953 00f6 94ED127A 		flds	s14, [r4, #72]
 1954 00fa D6ED007A 		flds	s15, [r6]
 1955 00fe A74B     		ldr	r3, .L314+20
 1956 0100 A54A     		ldr	r2, .L314+16
 1957 0102 B4EEE77A 		fcmpes	s14, s15
 1958 0106 F1EE10FA 		fmstat
 1959 010a 40F32681 		ble	.L296
 1960              		.loc 1 1339 0
 1961 010e 93ED028A 		flds	s16, [r3, #8]
 1962              	.LVL130:
 1963              		.loc 1 1340 0
 1964 0112 D3ED01BA 		flds	s23, [r3, #4]
 1965              	.LVL131:
 1966              	.L226:
 1967              		.loc 1 1364 0
 1968 0116 94ED140A 		flds	s0, [r4, #80]
 1969 011a DFEDA90A 		flds	s1, .L314+56
 1970 011e D4ED101A 		flds	s3, [r4, #64]
ARM GAS  /tmp/ccB9RVXV.s 			page 36


 1971 0122 9E4F     		ldr	r7, .L314+20
 1972 0124 B7EE001A 		fconsts	s2, #112
 1973 0128 B3EE092A 		fconsts	s4, #57
 1974 012c FFF7FEFF 		bl	utils_map
 1975              	.LVL132:
 1976              		.loc 1 1365 0
 1977 0130 DFEDA30A 		flds	s1, .L314+56
 1978              		.loc 1 1364 0
 1979 0134 F0EE40AA 		fcpys	s21, s0
 1980              	.LVL133:
 1981              		.loc 1 1365 0
 1982 0138 B7EE001A 		fconsts	s2, #112
 1983 013c 94ED140A 		flds	s0, [r4, #80]
 1984              	.LVL134:
 1985 0140 D4ED111A 		flds	s3, [r4, #68]
 1986 0144 B3EE092A 		fconsts	s4, #57
 1987 0148 FFF7FEFF 		bl	utils_map
 1988              	.LVL135:
 1989              		.loc 1 1366 0
 1990 014c DFED9C0A 		flds	s1, .L314+56
 1991 0150 B7EE001A 		fconsts	s2, #112
 1992 0154 B3EE092A 		fconsts	s4, #57
 1993              		.loc 1 1365 0
 1994 0158 F0EE40CA 		fcpys	s25, s0
 1995              	.LVL136:
 1996              		.loc 1 1366 0
 1997 015c 94ED140A 		flds	s0, [r4, #80]
 1998              	.LVL137:
 1999 0160 D4ED121A 		flds	s3, [r4, #72]
 2000 0164 FFF7FEFF 		bl	utils_map
 2001              	.LVL138:
 2002              		.loc 1 1367 0
 2003 0168 DFED950A 		flds	s1, .L314+56
 2004              		.loc 1 1366 0
 2005 016c B0EE40AA 		fcpys	s20, s0
 2006              	.LVL139:
 2007              		.loc 1 1367 0
 2008 0170 B7EE001A 		fconsts	s2, #112
 2009 0174 94ED140A 		flds	s0, [r4, #80]
 2010              	.LVL140:
 2011 0178 D4ED131A 		flds	s3, [r4, #76]
 2012 017c B3EE092A 		fconsts	s4, #57
 2013 0180 FFF7FEFF 		bl	utils_map
 2014              	.LVL141:
 2015              		.loc 1 1370 0
 2016 0184 D5ED007A 		flds	s15, [r5]
 2017 0188 814B     		ldr	r3, .L314+8
 2018 018a F4EEE7AA 		fcmpes	s21, s15
 2019 018e F1EE10FA 		fmstat
 2020              		.loc 1 1367 0
 2021 0192 B0EE40BA 		fcpys	s22, s0
 2022              	.LVL142:
 2023              		.loc 1 1370 0
 2024 0196 40F3D580 		ble	.L300
 2025              		.loc 1 1371 0
 2026 019a D7ED01AA 		flds	s21, [r7, #4]
 2027              	.LVL143:
ARM GAS  /tmp/ccB9RVXV.s 			page 37


 2028              	.L241:
 2029              		.loc 1 1380 0
 2030 019e D6ED007A 		flds	s15, [r6]
 2031 01a2 7D4B     		ldr	r3, .L314+16
 2032 01a4 B4EEE7AA 		fcmpes	s20, s15
 2033 01a8 F1EE10FA 		fmstat
 2034 01ac 40F3BF80 		ble	.L301
 2035              		.loc 1 1381 0
 2036 01b0 94ED01AA 		flds	s20, [r4, #4]
 2037              	.LVL144:
 2038              	.L244:
 2039              		.loc 1 1391 0
 2040 01b4 94ED077A 		flds	s14, [r4, #28]
 2041 01b8 D4ED087A 		flds	s15, [r4, #32]
 2042 01bc 774B     		ldr	r3, .L314+20
 2043              		.loc 1 1392 0
 2044 01be 94ED071A 		flds	s2, [r4, #28]
 2045              		.loc 1 1391 0
 2046 01c2 67EE270A 		fmuls	s1, s14, s15
 2047              	.LVL145:
 2048              		.loc 1 1393 0
 2049 01c6 B4EEE09A 		fcmpes	s18, s1
 2050 01ca F1EE10FA 		fmstat
 2051 01ce 40F1A580 		bpl	.L302
 2052              		.loc 1 1394 0
 2053 01d2 93ED01BA 		flds	s22, [r3, #4]
 2054              	.LVL146:
 2055              	.L247:
 2056              		.loc 1 1403 0
 2057 01d6 94ED067A 		flds	s14, [r4, #24]
 2058 01da D4ED087A 		flds	s15, [r4, #32]
 2059 01de 6F4B     		ldr	r3, .L314+20
 2060              		.loc 1 1404 0
 2061 01e0 94ED061A 		flds	s2, [r4, #24]
 2062              		.loc 1 1403 0
 2063 01e4 67EE270A 		fmuls	s1, s14, s15
 2064              	.LVL147:
 2065              		.loc 1 1405 0
 2066 01e8 B4EEE09A 		fcmpes	s18, s1
 2067 01ec F1EE10FA 		fmstat
 2068 01f0 40F38B80 		ble	.L303
 2069              		.loc 1 1406 0
 2070 01f4 93ED019A 		flds	s18, [r3, #4]
 2071              	.LVL148:
 2072              	.L250:
 2073              		.loc 1 1413 0
 2074 01f8 F0EE6B0A 		fcpys	s1, s23
 2075 01fc B0EE4C0A 		fcpys	s0, s24
 2076 0200 FFF7FEFF 		bl	utils_min_abs
 2077              	.LVL149:
 2078              		.loc 1 1414 0
 2079 0204 F0EE480A 		fcpys	s1, s16
 2080              		.loc 1 1413 0
 2081 0208 F0EE40BA 		fcpys	s23, s0
 2082              	.LVL150:
 2083              		.loc 1 1414 0
 2084 020c B0EE690A 		fcpys	s0, s19
ARM GAS  /tmp/ccB9RVXV.s 			page 38


 2085              	.LVL151:
 2086 0210 FFF7FEFF 		bl	utils_min_abs
 2087              	.LVL152:
 2088              		.loc 1 1416 0
 2089 0214 F0EE4B0A 		fcpys	s1, s22
 2090              		.loc 1 1414 0
 2091 0218 B0EE408A 		fcpys	s16, s0
 2092              	.LVL153:
 2093              		.loc 1 1416 0
 2094 021c B0EE6B0A 		fcpys	s0, s23
 2095              	.LVL154:
 2096 0220 FFF7FEFF 		bl	utils_min_abs
 2097              	.LVL155:
 2098              		.loc 1 1417 0
 2099 0224 F0EE490A 		fcpys	s1, s18
 2100 0228 FFF7FEFF 		bl	utils_min_abs
 2101              	.LVL156:
 2102              		.loc 1 1418 0
 2103 022c F0EE6A0A 		fcpys	s1, s21
 2104 0230 FFF7FEFF 		bl	utils_min_abs
 2105              	.LVL157:
 2106              		.loc 1 1419 0
 2107 0234 F0EE4A0A 		fcpys	s1, s20
 2108 0238 FFF7FEFF 		bl	utils_min_abs
 2109              	.LVL158:
 2110              		.loc 1 1421 0
 2111 023c D4ED507A 		flds	s15, [r4, #320]
 2112 0240 564B     		ldr	r3, .L314+20
 2113 0242 B4EEE70A 		fcmpes	s0, s15
 2114 0246 F1EE10FA 		fmstat
 2115              		.loc 1 1422 0
 2116 024a 48BF     		it	mi
 2117 024c 93ED500A 		fldsmi	s0, [r3, #320]
 2118              	.LVL159:
 2119              		.loc 1 1425 0
 2120 0250 D4ED507A 		flds	s15, [r4, #320]
 2121 0254 514B     		ldr	r3, .L314+20
 2122 0256 F1EE677A 		fnegs	s15, s15
 2123 025a B4EEE78A 		fcmpes	s16, s15
 2124 025e F1EE10FA 		fmstat
 2125              		.loc 1 1426 0
 2126 0262 C8BF     		it	gt
 2127 0264 93ED508A 		fldsgt	s16, [r3, #320]
 2128              	.LVL160:
 2129              		.loc 1 1429 0
 2130 0268 84ED190A 		fsts	s0, [r4, #100]
 2131              		.loc 1 1426 0
 2132 026c C8BF     		it	gt
 2133 026e B1EE488A 		fnegsgt	s16, s16
 2134              	.LVL161:
 2135              		.loc 1 1430 0
 2136 0272 84ED1A8A 		fsts	s16, [r4, #104]
 2137              	.LVL162:
 2138              		.loc 1 1434 0
 2139 0276 D4ED0D7A 		flds	s15, [r4, #52]
 2140              		.loc 1 1429 0
 2141 027a 484B     		ldr	r3, .L314+20
ARM GAS  /tmp/ccB9RVXV.s 			page 39


 2142              		.loc 1 1434 0
 2143 027c F4EEE78A 		fcmpes	s17, s15
 2144 0280 F1EE10FA 		fmstat
 2145 0284 00F34081 		bgt	.L305
 2146              		.loc 1 1436 0
 2147 0288 D3ED0E7A 		flds	s15, [r3, #56]
 2148 028c F4EEE78A 		fcmpes	s17, s15
 2149 0290 F1EE10FA 		fmstat
 2150 0294 40F12981 		bpl	.L306
 2151              		.loc 1 1437 0
 2152 0298 DFED490A 		flds	s1, .L314+56
 2153              	.LVL163:
 2154              	.L257:
 2155              		.loc 1 1444 0
 2156 029c 94ED170A 		flds	s0, [r4, #92]
 2157              	.LVL164:
 2158              		.loc 1 1445 0
 2159 02a0 94ED188A 		flds	s16, [r4, #96]
 2160              	.LVL165:
 2161 02a4 88EE288A 		fdivs	s16, s16, s17
 2162              	.LVL166:
 2163              		.loc 1 1447 0
 2164 02a8 80EE280A 		fdivs	s0, s0, s17
 2165              	.LVL167:
 2166 02ac FFF7FEFF 		bl	utils_min_abs
 2167              	.LVL168:
 2168 02b0 F0EE400A 		fcpys	s1, s0
 2169              	.LVL169:
 2170              		.loc 1 1450 0
 2171 02b4 94ED030A 		flds	s0, [r4, #12]
 2172              	.LVL170:
 2173 02b8 FFF7FEFF 		bl	utils_min_abs
 2174              	.LVL171:
 2175 02bc 84ED1B0A 		fsts	s0, [r4, #108]
 2176              		.loc 1 1451 0
 2177 02c0 F0EE480A 		fcpys	s1, s16
 2178 02c4 94ED040A 		flds	s0, [r4, #16]
 2179 02c8 FFF7FEFF 		bl	utils_min_abs
 2180              	.LVL172:
 2181              		.loc 1 1473 0
 2182 02cc BDEC0A8B 		fldmfdd	sp!, {d8-d12}
 2183              	.LVL173:
 2184              		.loc 1 1451 0
 2185 02d0 84ED1C0A 		fsts	s0, [r4, #112]
 2186              		.loc 1 1471 0
 2187 02d4 636E     		ldr	r3, [r4, #100]	@ float
 2188 02d6 6367     		str	r3, [r4, #116]	@ float
 2189              		.loc 1 1472 0
 2190 02d8 A36E     		ldr	r3, [r4, #104]	@ float
 2191 02da A367     		str	r3, [r4, #120]	@ float
 2192              		.loc 1 1473 0
 2193 02dc F8BD     		pop	{r3, r4, r5, r6, r7, pc}
 2194              	.LVL174:
 2195              	.L292:
 2196              		.loc 1 1314 0
 2197 02de 94ED117A 		flds	s14, [r4, #68]
 2198 02e2 D5ED007A 		flds	s15, [r5]
ARM GAS  /tmp/ccB9RVXV.s 			page 40


 2199 02e6 B4EEE77A 		fcmpes	s14, s15
 2200 02ea F1EE10FA 		fmstat
 2201 02ee 69D5     		bpl	.L293
 2202              	.LVL175:
 2203              	.LBB125:
 2204              	.LBB126:
 2205              		.loc 1 992 0
 2206 02f0 324B     		ldr	r3, .L314+52
 2207 02f2 1B78     		ldrb	r3, [r3]	@ zero_extendqisi2
 2208 02f4 052B     		cmp	r3, #5
 2209 02f6 00F05A81 		beq	.L307
 2210              	.LBE126:
 2211              	.LBE125:
 2212              		.loc 1 1315 0
 2213 02fa DFED319A 		flds	s19, .L314+56
 2214              	.LBB131:
 2215              	.LBB127:
 2216 02fe 0520     		movs	r0, #5
 2217              	.LBE127:
 2218              	.LBE131:
 2219              		.loc 1 1316 0
 2220 0300 B0EE69CA 		fcpys	s24, s19
 2221              	.LBB132:
 2222              	.LBB128:
 2223 0304 FFF7FEFF 		bl	mc_interface_fault_stop.part.1
 2224              	.LVL176:
 2225 0308 F5E6     		b	.L211
 2226              	.LVL177:
 2227              	.L303:
 2228              	.LBE128:
 2229              	.LBE132:
 2230              		.loc 1 1407 0
 2231 030a B4EEC19A 		fcmpes	s18, s2
 2232 030e F1EE10FA 		fmstat
 2233 0312 40F1FC80 		bpl	.L308
 2234              		.loc 1 1408 0
 2235 0316 9FED2A9A 		flds	s18, .L314+56
 2236              	.LVL178:
 2237 031a 6DE7     		b	.L250
 2238              	.LVL179:
 2239              	.L302:
 2240              		.loc 1 1395 0
 2241 031c B4EEC19A 		fcmpes	s18, s2
 2242 0320 F1EE10FA 		fmstat
 2243 0324 40F3FE80 		ble	.L309
 2244              		.loc 1 1396 0
 2245 0328 9FED25BA 		flds	s22, .L314+56
 2246              	.LVL180:
 2247 032c 53E7     		b	.L247
 2248              	.LVL181:
 2249              	.L301:
 2250              		.loc 1 1382 0
 2251 032e D3ED007A 		flds	s15, [r3]
 2252 0332 B4EEE7BA 		fcmpes	s22, s15
 2253 0336 F1EE10FA 		fmstat
 2254 033a 40F1FE80 		bpl	.L310
 2255              		.loc 1 1383 0
ARM GAS  /tmp/ccB9RVXV.s 			page 41


 2256 033e 9FED20AA 		flds	s20, .L314+56
 2257              	.LVL182:
 2258 0342 37E7     		b	.L244
 2259              	.LVL183:
 2260              	.L300:
 2261              		.loc 1 1372 0
 2262 0344 D3ED007A 		flds	s15, [r3]
 2263 0348 F4EEE7CA 		fcmpes	s25, s15
 2264 034c F1EE10FA 		fmstat
 2265 0350 40F10281 		bpl	.L311
 2266              		.loc 1 1373 0
 2267 0354 DFED1AAA 		flds	s21, .L314+56
 2268              	.LVL184:
 2269 0358 21E7     		b	.L241
 2270              	.LVL185:
 2271              	.L296:
 2272              		.loc 1 1341 0
 2273 035a 93ED137A 		flds	s14, [r3, #76]
 2274 035e D2ED007A 		flds	s15, [r2]
 2275 0362 B4EEE77A 		fcmpes	s14, s15
 2276 0366 F1EE10FA 		fmstat
 2277 036a 7CD5     		bpl	.L297
 2278              	.LVL186:
 2279              	.LBB133:
 2280              	.LBB134:
 2281              		.loc 1 992 0
 2282 036c 134A     		ldr	r2, .L314+52
 2283 036e 1278     		ldrb	r2, [r2]	@ zero_extendqisi2
 2284 0370 062A     		cmp	r2, #6
 2285 0372 00F01381 		beq	.L312
 2286              	.LBE134:
 2287              	.LBE133:
 2288              		.loc 1 1342 0
 2289 0376 9FED128A 		flds	s16, .L314+56
 2290              	.LBB139:
 2291              	.LBB135:
 2292 037a 0620     		movs	r0, #6
 2293              	.LBE135:
 2294              	.LBE139:
 2295              		.loc 1 1343 0
 2296 037c F0EE48BA 		fcpys	s23, s16
 2297              	.LBB140:
 2298              	.LBB136:
 2299 0380 FFF7FEFF 		bl	mc_interface_fault_stop.part.1
 2300              	.LVL187:
 2301 0384 C7E6     		b	.L226
 2302              	.L315:
 2303 0386 00BF     		.align	2
 2304              	.L314:
 2305 0388 00000000 		.word	.LANCHOR41
 2306 038c 6740533A 		.word	978534503
 2307 0390 00000000 		.word	.LANCHOR32
 2308 0394 74D19541 		.word	1100337524
 2309 0398 00000000 		.word	.LANCHOR33
 2310 039c 00000000 		.word	.LANCHOR12
 2311 03a0 00401C46 		.word	1176256512
 2312 03a4 0FCF5B3B 		.word	995872527
ARM GAS  /tmp/ccB9RVXV.s 			page 42


 2313 03a8 33938843 		.word	1133024051
 2314 03ac CDCCCC3D 		.word	1036831949
 2315 03b0 3C361C4C 		.word	1276917308
 2316 03b4 00A05645 		.word	1163304960
 2317 03b8 00F07F45 		.word	1166012416
 2318 03bc 00000000 		.word	.LANCHOR13
 2319 03c0 00000000 		.word	0
 2320              	.LVL188:
 2321              	.L293:
 2322              	.LBE136:
 2323              	.LBE140:
 2324              	.LBB141:
 2325              		.loc 1 1319 0
 2326 03c4 D4ED011A 		flds	s3, [r4, #4]
 2327              		.loc 1 1320 0
 2328 03c8 D4ED027A 		flds	s15, [r4, #8]
 2329              		.loc 1 1324 0
 2330 03cc 1FED042A 		flds	s4, .L314+56
 2331 03d0 7E4F     		ldr	r7, .L316
 2332              		.loc 1 1319 0
 2333 03d2 F0EEE11A 		fabss	s3, s3
 2334              	.LVL189:
 2335              		.loc 1 1320 0
 2336 03d6 F0EEE77A 		fabss	s15, s15
 2337 03da F4EEE71A 		fcmpes	s3, s15
 2338 03de F1EE10FA 		fmstat
 2339              		.loc 1 1321 0
 2340 03e2 48BF     		it	mi
 2341 03e4 D4ED021A 		fldsmi	s3, [r4, #8]
 2342              	.LVL190:
 2343              		.loc 1 1324 0
 2344 03e8 95ED000A 		flds	s0, [r5]
 2345 03ec D4ED100A 		flds	s1, [r4, #64]
 2346 03f0 94ED111A 		flds	s2, [r4, #68]
 2347              		.loc 1 1321 0
 2348 03f4 48BF     		it	mi
 2349 03f6 F0EEE11A 		fabssmi	s3, s3
 2350              	.LVL191:
 2351              		.loc 1 1324 0
 2352 03fa FFF7FEFF 		bl	utils_map
 2353              	.LVL192:
 2354              		.loc 1 1326 0
 2355 03fe D4ED017A 		flds	s15, [r4, #4]
 2356 0402 F0EEE77A 		fabss	s15, s15
 2357 0406 B4EEE70A 		fcmpes	s0, s15
 2358 040a F1EE10FA 		fmstat
 2359 040e 40F1B280 		bpl	.L294
 2360              		.loc 1 1327 0
 2361 0412 D7ED017A 		flds	s15, [r7, #4]
 2362 0416 F5EEC07A 		fcmpezs	s15
 2363 041a F1EE10FA 		fmstat
 2364 041e BFEE00CA 		fconsts	s24, #240
 2365 0422 F7EE007A 		fconsts	s15, #112
 2366 0426 58BF     		it	pl
 2367 0428 B0EE67CA 		fcpyspl	s24, s15
 2368 042c 20EE0CCA 		fmuls	s24, s0, s24
 2369              	.LVL193:
ARM GAS  /tmp/ccB9RVXV.s 			page 43


 2370              	.L217:
 2371              		.loc 1 1330 0
 2372 0430 D4ED027A 		flds	s15, [r4, #8]
 2373 0434 654B     		ldr	r3, .L316
 2374 0436 F0EEE77A 		fabss	s15, s15
 2375 043a B4EEE70A 		fcmpes	s0, s15
 2376 043e F1EE10FA 		fmstat
 2377 0442 40F1C080 		bpl	.L295
 2378              		.loc 1 1331 0
 2379 0446 D3ED027A 		flds	s15, [r3, #8]
 2380 044a F5EEC07A 		fcmpezs	s15
 2381 044e F1EE10FA 		fmstat
 2382 0452 FFEE009A 		fconsts	s19, #240
 2383 0456 F7EE007A 		fconsts	s15, #112
 2384 045a 58BF     		it	pl
 2385 045c F0EE679A 		fcpyspl	s19, s15
 2386 0460 60EE299A 		fmuls	s19, s0, s19
 2387              	.LVL194:
 2388 0464 47E6     		b	.L211
 2389              	.LVL195:
 2390              	.L297:
 2391              	.LBE141:
 2392              	.LBB142:
 2393              		.loc 1 1346 0
 2394 0466 D3ED011A 		flds	s3, [r3, #4]
 2395              		.loc 1 1347 0
 2396 046a D3ED027A 		flds	s15, [r3, #8]
 2397              		.loc 1 1351 0
 2398 046e 9FED582A 		flds	s4, .L316+4
 2399 0472 564F     		ldr	r7, .L316
 2400              		.loc 1 1346 0
 2401 0474 F0EEE11A 		fabss	s3, s3
 2402              	.LVL196:
 2403              		.loc 1 1347 0
 2404 0478 F0EEE77A 		fabss	s15, s15
 2405 047c F4EEE71A 		fcmpes	s3, s15
 2406 0480 F1EE10FA 		fmstat
 2407              		.loc 1 1348 0
 2408 0484 48BF     		it	mi
 2409 0486 D3ED021A 		fldsmi	s3, [r3, #8]
 2410              	.LVL197:
 2411              		.loc 1 1351 0
 2412 048a 96ED000A 		flds	s0, [r6]
 2413 048e D4ED120A 		flds	s1, [r4, #72]
 2414 0492 94ED131A 		flds	s2, [r4, #76]
 2415              		.loc 1 1348 0
 2416 0496 48BF     		it	mi
 2417 0498 F0EEE11A 		fabssmi	s3, s3
 2418              	.LVL198:
 2419              		.loc 1 1351 0
 2420 049c FFF7FEFF 		bl	utils_map
 2421              	.LVL199:
 2422              		.loc 1 1353 0
 2423 04a0 D4ED017A 		flds	s15, [r4, #4]
 2424 04a4 F0EEE77A 		fabss	s15, s15
 2425 04a8 B4EEE70A 		fcmpes	s0, s15
 2426 04ac F1EE10FA 		fmstat
ARM GAS  /tmp/ccB9RVXV.s 			page 44


 2427 04b0 64D4     		bmi	.L313
 2428              	.LBE142:
 2429              		.loc 1 1336 0
 2430 04b2 DFED47BA 		flds	s23, .L316+4
 2431              	.LVL200:
 2432              	.L232:
 2433              	.LBB143:
 2434              		.loc 1 1357 0
 2435 04b6 D4ED027A 		flds	s15, [r4, #8]
 2436 04ba 444B     		ldr	r3, .L316
 2437 04bc F0EEE77A 		fabss	s15, s15
 2438 04c0 B4EEE70A 		fcmpes	s0, s15
 2439 04c4 F1EE10FA 		fmstat
 2440 04c8 7AD5     		bpl	.L299
 2441              		.loc 1 1358 0
 2442 04ca D3ED027A 		flds	s15, [r3, #8]
 2443 04ce F5EEC07A 		fcmpezs	s15
 2444 04d2 F1EE10FA 		fmstat
 2445 04d6 BFEE008A 		fconsts	s16, #240
 2446 04da F7EE007A 		fconsts	s15, #112
 2447 04de 58BF     		it	pl
 2448 04e0 B0EE678A 		fcpyspl	s16, s15
 2449 04e4 20EE088A 		fmuls	s16, s0, s16
 2450              	.LVL201:
 2451 04e8 15E6     		b	.L226
 2452              	.LVL202:
 2453              	.L306:
 2454              	.LBE143:
 2455              		.loc 1 1439 0
 2456 04ea D3ED0D0A 		flds	s1, [r3, #52]
 2457 04ee 9FED382A 		flds	s4, .L316+4
 2458 04f2 93ED0E1A 		flds	s2, [r3, #56]
 2459 04f6 D3ED031A 		flds	s3, [r3, #12]
 2460 04fa B0EE680A 		fcpys	s0, s17
 2461              	.LVL203:
 2462 04fe FFF7FEFF 		bl	utils_map
 2463              	.LVL204:
 2464 0502 F0EE400A 		fcpys	s1, s0
 2465              	.LVL205:
 2466 0506 C9E6     		b	.L257
 2467              	.LVL206:
 2468              	.L305:
 2469              		.loc 1 1435 0
 2470 0508 D3ED030A 		flds	s1, [r3, #12]
 2471              	.LVL207:
 2472 050c C6E6     		b	.L257
 2473              	.LVL208:
 2474              	.L308:
 2475              		.loc 1 1410 0
 2476 050e B0EE490A 		fcpys	s0, s18
 2477 0512 D3ED011A 		flds	s3, [r3, #4]
 2478 0516 9FED2E2A 		flds	s4, .L316+4
 2479 051a FFF7FEFF 		bl	utils_map
 2480              	.LVL209:
 2481 051e B0EE409A 		fcpys	s18, s0
 2482              	.LVL210:
 2483 0522 69E6     		b	.L250
ARM GAS  /tmp/ccB9RVXV.s 			page 45


 2484              	.LVL211:
 2485              	.L309:
 2486              		.loc 1 1398 0
 2487 0524 D3ED011A 		flds	s3, [r3, #4]
 2488 0528 9FED292A 		flds	s4, .L316+4
 2489 052c B0EE490A 		fcpys	s0, s18
 2490 0530 FFF7FEFF 		bl	utils_map
 2491              	.LVL212:
 2492 0534 B0EE40BA 		fcpys	s22, s0
 2493              	.LVL213:
 2494 0538 4DE6     		b	.L247
 2495              	.LVL214:
 2496              	.L310:
 2497              		.loc 1 1385 0
 2498 053a 93ED000A 		flds	s0, [r3]
 2499 053e 9FED242A 		flds	s4, .L316+4
 2500 0542 D4ED011A 		flds	s3, [r4, #4]
 2501 0546 F0EE4A0A 		fcpys	s1, s20
 2502 054a B0EE4B1A 		fcpys	s2, s22
 2503 054e FFF7FEFF 		bl	utils_map
 2504              	.LVL215:
 2505 0552 B0EE40AA 		fcpys	s20, s0
 2506              	.LVL216:
 2507 0556 2DE6     		b	.L244
 2508              	.LVL217:
 2509              	.L311:
 2510              		.loc 1 1375 0
 2511 0558 93ED000A 		flds	s0, [r3]
 2512              	.LVL218:
 2513 055c 9FED1C2A 		flds	s4, .L316+4
 2514 0560 D7ED011A 		flds	s3, [r7, #4]
 2515 0564 F0EE6A0A 		fcpys	s1, s21
 2516 0568 B0EE6C1A 		fcpys	s2, s25
 2517 056c FFF7FEFF 		bl	utils_map
 2518              	.LVL219:
 2519 0570 F0EE40AA 		fcpys	s21, s0
 2520              	.LVL220:
 2521 0574 13E6     		b	.L241
 2522              	.LVL221:
 2523              	.L294:
 2524              		.loc 1 1309 0
 2525 0576 9FED16CA 		flds	s24, .L316+4
 2526 057a 59E7     		b	.L217
 2527              	.LVL222:
 2528              	.L313:
 2529              	.LBB144:
 2530              		.loc 1 1354 0
 2531 057c D7ED017A 		flds	s15, [r7, #4]
 2532 0580 F5EEC07A 		fcmpezs	s15
 2533 0584 F1EE10FA 		fmstat
 2534 0588 FFEE00BA 		fconsts	s23, #240
 2535 058c F7EE007A 		fconsts	s15, #112
 2536 0590 58BF     		it	pl
 2537 0592 F0EE67BA 		fcpyspl	s23, s15
 2538 0596 60EE2BBA 		fmuls	s23, s0, s23
 2539              	.LVL223:
 2540 059a 8CE7     		b	.L232
ARM GAS  /tmp/ccB9RVXV.s 			page 46


 2541              	.LVL224:
 2542              	.L312:
 2543              	.LBE144:
 2544              	.LBB145:
 2545              	.LBB137:
 2546              		.loc 1 993 0
 2547 059c 0D4A     		ldr	r2, .L316+8
 2548              	.LBE137:
 2549              	.LBE145:
 2550              		.loc 1 1342 0
 2551 059e 9FED0C8A 		flds	s16, .L316+4
 2552              	.LBB146:
 2553              	.LBB138:
 2554              		.loc 1 993 0
 2555 05a2 D3F84C31 		ldr	r3, [r3, #332]
 2556 05a6 1360     		str	r3, [r2]
 2557              	.LBE138:
 2558              	.LBE146:
 2559              		.loc 1 1343 0
 2560 05a8 F0EE48BA 		fcpys	s23, s16
 2561 05ac B3E5     		b	.L226
 2562              	.LVL225:
 2563              	.L307:
 2564              	.LBB147:
 2565              	.LBB129:
 2566              		.loc 1 993 0
 2567 05ae 094B     		ldr	r3, .L316+8
 2568              	.LBE129:
 2569              	.LBE147:
 2570              		.loc 1 1315 0
 2571 05b0 DFED079A 		flds	s19, .L316+4
 2572              	.LBB148:
 2573              	.LBB130:
 2574              		.loc 1 993 0
 2575 05b4 D4F84C21 		ldr	r2, [r4, #332]
 2576 05b8 1A60     		str	r2, [r3]
 2577              	.LBE130:
 2578              	.LBE148:
 2579              		.loc 1 1316 0
 2580 05ba B0EE69CA 		fcpys	s24, s19
 2581 05be 9AE5     		b	.L211
 2582              	.LVL226:
 2583              	.L299:
 2584              		.loc 1 1337 0
 2585 05c0 9FED038A 		flds	s16, .L316+4
 2586 05c4 A7E5     		b	.L226
 2587              	.LVL227:
 2588              	.L295:
 2589              		.loc 1 1310 0
 2590 05c6 DFED029A 		flds	s19, .L316+4
 2591 05ca 94E5     		b	.L211
 2592              	.L317:
 2593              		.align	2
 2594              	.L316:
 2595 05cc 00000000 		.word	.LANCHOR12
 2596 05d0 00000000 		.word	0
 2597 05d4 00000000 		.word	.LANCHOR14
ARM GAS  /tmp/ccB9RVXV.s 			page 47


 2598              		.cfi_endproc
 2599              	.LFE314:
 2600              		.size	update_override_limits.constprop.2, .-update_override_limits.constprop.2
 2601 05d8 AFF30080 		.section	.text.mc_interface_set_configuration,"ax",%progbits
 2601      AFF30080 
 2602              		.align	2
 2603              		.p2align 4,,15
 2604              		.global	mc_interface_set_configuration
 2605              		.thumb
 2606              		.thumb_func
 2607              		.type	mc_interface_set_configuration, %function
 2608              	mc_interface_set_configuration:
 2609              	.LFB258:
 2610              		.loc 1 175 0
 2611              		.cfi_startproc
 2612              		@ args = 0, pretend = 0, frame = 0
 2613              		@ frame_needed = 0, uses_anonymous_args = 0
 2614              	.LVL228:
 2615 0000 38B5     		push	{r3, r4, r5, lr}
 2616              		.cfi_def_cfa_offset 16
 2617              		.cfi_offset 3, -16
 2618              		.cfi_offset 4, -12
 2619              		.cfi_offset 5, -8
 2620              		.cfi_offset 14, -4
 2621              		.loc 1 177 0
 2622 0002 304D     		ldr	r5, .L340
 2623 0004 90F85C31 		ldrb	r3, [r0, #348]	@ zero_extendqisi2
 2624 0008 95F85C21 		ldrb	r2, [r5, #348]	@ zero_extendqisi2
 2625 000c 9A42     		cmp	r2, r3
 2626              		.loc 1 175 0
 2627 000e 0446     		mov	r4, r0
 2628              		.loc 1 177 0
 2629 0010 07D0     		beq	.L319
 2630              		.loc 1 178 0
 2631 0012 FFF7FEFF 		bl	encoder_deinit
 2632              	.LVL229:
 2633              		.loc 1 179 0
 2634 0016 94F85C31 		ldrb	r3, [r4, #348]	@ zero_extendqisi2
 2635 001a 012B     		cmp	r3, #1
 2636 001c 3FD0     		beq	.L320
 2637 001e 022B     		cmp	r3, #2
 2638 0020 32D0     		beq	.L321
 2639              	.L319:
 2640              		.loc 1 193 0
 2641 0022 012B     		cmp	r3, #1
 2642 0024 36D0     		beq	.L336
 2643              	.L322:
 2644              		.loc 1 203 0
 2645 0026 AB78     		ldrb	r3, [r5, #2]	@ zero_extendqisi2
 2646 0028 022B     		cmp	r3, #2
 2647 002a 1ED0     		beq	.L337
 2648              	.L323:
 2649              		.loc 1 208 0
 2650 002c AB78     		ldrb	r3, [r5, #2]	@ zero_extendqisi2
 2651 002e 022B     		cmp	r3, #2
 2652 0030 02D0     		beq	.L325
 2653              		.loc 1 209 0
ARM GAS  /tmp/ccB9RVXV.s 			page 48


 2654 0032 A378     		ldrb	r3, [r4, #2]	@ zero_extendqisi2
 2655 0034 022B     		cmp	r3, #2
 2656 0036 39D0     		beq	.L338
 2657              	.L325:
 2658              		.loc 1 214 0
 2659 0038 2146     		mov	r1, r4
 2660 003a 2248     		ldr	r0, .L340
 2661 003c 4FF4BA72 		mov	r2, #372
 2662 0040 FFF7FEFF 		bl	memcpy
 2663              	.LVL230:
 2664              	.L324:
 2665              		.loc 1 217 0
 2666 0044 FFF7FEFF 		bl	update_override_limits.constprop.2
 2667              	.LVL231:
 2668              		.loc 1 219 0
 2669 0048 AB78     		ldrb	r3, [r5, #2]	@ zero_extendqisi2
 2670 004a DBB2     		uxtb	r3, r3
 2671 004c 012B     		cmp	r3, #1
 2672 004e 07D9     		bls	.L327
 2673 0050 022B     		cmp	r3, #2
 2674 0052 04D1     		bne	.L339
 2675              		.loc 1 226 0
 2676 0054 1B48     		ldr	r0, .L340
 2677              		.loc 1 232 0
 2678 0056 BDE83840 		pop	{r3, r4, r5, lr}
 2679              	.LVL232:
 2680              		.loc 1 226 0
 2681 005a FFF7FEBF 		b	mcpwm_foc_set_configuration
 2682              	.LVL233:
 2683              	.L339:
 2684 005e 38BD     		pop	{r3, r4, r5, pc}
 2685              	.LVL234:
 2686              	.L327:
 2687              		.loc 1 222 0
 2688 0060 1848     		ldr	r0, .L340
 2689              		.loc 1 232 0
 2690 0062 BDE83840 		pop	{r3, r4, r5, lr}
 2691              	.LVL235:
 2692              		.loc 1 222 0
 2693 0066 FFF7FEBF 		b	mcpwm_set_configuration
 2694              	.LVL236:
 2695              	.L337:
 2696              		.loc 1 204 0
 2697 006a A378     		ldrb	r3, [r4, #2]	@ zero_extendqisi2
 2698 006c 022B     		cmp	r3, #2
 2699 006e DDD0     		beq	.L323
 2700              		.loc 1 205 0
 2701 0070 FFF7FEFF 		bl	mcpwm_foc_deinit
 2702              	.LVL237:
 2703              		.loc 1 206 0
 2704 0074 2146     		mov	r1, r4
 2705 0076 4FF4BA72 		mov	r2, #372
 2706 007a 1248     		ldr	r0, .L340
 2707 007c FFF7FEFF 		bl	memcpy
 2708              	.LVL238:
 2709              		.loc 1 207 0
 2710 0080 1048     		ldr	r0, .L340
ARM GAS  /tmp/ccB9RVXV.s 			page 49


 2711 0082 FFF7FEFF 		bl	mcpwm_init
 2712              	.LVL239:
 2713 0086 DDE7     		b	.L324
 2714              	.L321:
 2715              		.loc 1 185 0
 2716 0088 FFF7FEFF 		bl	encoder_init_as5047p_spi
 2717              	.LVL240:
 2718 008c 94F85C31 		ldrb	r3, [r4, #348]	@ zero_extendqisi2
 2719              		.loc 1 193 0
 2720 0090 012B     		cmp	r3, #1
 2721 0092 C8D1     		bne	.L322
 2722              	.L336:
 2723              		.loc 1 194 0
 2724 0094 D4F85801 		ldr	r0, [r4, #344]
 2725 0098 FFF7FEFF 		bl	encoder_set_counts
 2726              	.LVL241:
 2727 009c C3E7     		b	.L322
 2728              	.L320:
 2729              		.loc 1 181 0
 2730 009e D4F85801 		ldr	r0, [r4, #344]
 2731 00a2 FFF7FEFF 		bl	encoder_init_abi
 2732              	.LVL242:
 2733 00a6 94F85C31 		ldrb	r3, [r4, #348]	@ zero_extendqisi2
 2734              		.loc 1 182 0
 2735 00aa BAE7     		b	.L319
 2736              	.L338:
 2737              		.loc 1 210 0
 2738 00ac FFF7FEFF 		bl	mcpwm_deinit
 2739              	.LVL243:
 2740              		.loc 1 211 0
 2741 00b0 2146     		mov	r1, r4
 2742 00b2 4FF4BA72 		mov	r2, #372
 2743 00b6 0348     		ldr	r0, .L340
 2744 00b8 FFF7FEFF 		bl	memcpy
 2745              	.LVL244:
 2746              		.loc 1 212 0
 2747 00bc 0148     		ldr	r0, .L340
 2748 00be FFF7FEFF 		bl	mcpwm_foc_init
 2749              	.LVL245:
 2750 00c2 BFE7     		b	.L324
 2751              	.L341:
 2752              		.align	2
 2753              	.L340:
 2754 00c4 00000000 		.word	.LANCHOR12
 2755              		.cfi_endproc
 2756              	.LFE258:
 2757              		.size	mc_interface_set_configuration, .-mc_interface_set_configuration
 2758 00c8 AFF30080 		.section	.text.timer_thread,"ax",%progbits
 2758      AFF30080 
 2759              		.align	2
 2760              		.p2align 4,,15
 2761              		.thumb
 2762              		.thumb_func
 2763              		.type	timer_thread, %function
 2764              	timer_thread:
 2765              	.LFB310:
 2766              		.loc 1 1475 0
ARM GAS  /tmp/ccB9RVXV.s 			page 50


 2767              		.cfi_startproc
 2768              		@ args = 0, pretend = 0, frame = 0
 2769              		@ frame_needed = 0, uses_anonymous_args = 0
 2770              	.LVL246:
 2771              	.LBB149:
 2772              	.LBB150:
 2773              		.loc 2 135 0
 2774 0000 0E4B     		ldr	r3, .L350
 2775 0002 0F4A     		ldr	r2, .L350+4
 2776 0004 9B69     		ldr	r3, [r3, #24]
 2777              	.LBE150:
 2778              	.LBE149:
 2779              		.loc 1 1475 0
 2780 0006 2DE9F041 		push	{r4, r5, r6, r7, r8, lr}
 2781              		.cfi_def_cfa_offset 24
 2782              		.cfi_offset 4, -24
 2783              		.cfi_offset 5, -20
 2784              		.cfi_offset 6, -16
 2785              		.cfi_offset 7, -12
 2786              		.cfi_offset 8, -8
 2787              		.cfi_offset 14, -4
 2788 000a 0E4C     		ldr	r4, .L350+8
 2789 000c DFF83C80 		ldr	r8, .L350+16
 2790              		.loc 1 1485 0
 2791 0010 0D4E     		ldr	r6, .L350+12
 2792              	.LBB152:
 2793              	.LBB151:
 2794              		.loc 2 135 0
 2795 0012 9A61     		str	r2, [r3, #24]
 2796              	.LBE151:
 2797              	.LBE152:
 2798              		.loc 1 1482 0
 2799 0014 2546     		mov	r5, r4
 2800              		.loc 1 1486 0
 2801 0016 0027     		movs	r7, #0
 2802 0018 06E0     		b	.L345
 2803              	.LVL247:
 2804              	.L349:
 2805              		.loc 1 1483 0
 2806 001a 013B     		subs	r3, r3, #1
 2807 001c 2B60     		str	r3, [r5]
 2808              	.L344:
 2809              		.loc 1 1490 0
 2810 001e FFF7FEFF 		bl	update_override_limits.constprop.2
 2811              	.LVL248:
 2812              		.loc 1 1492 0
 2813 0022 0A20     		movs	r0, #10
 2814 0024 FFF7FEFF 		bl	chThdSleep
 2815              	.LVL249:
 2816              	.L345:
 2817              		.loc 1 1482 0
 2818 0028 2368     		ldr	r3, [r4]
 2819 002a 002B     		cmp	r3, #0
 2820 002c F5DC     		bgt	.L349
 2821              		.loc 1 1485 0
 2822 002e 3369     		ldr	r3, [r6, #16]
 2823 0030 DB04     		lsls	r3, r3, #19
ARM GAS  /tmp/ccB9RVXV.s 			page 51


 2824              		.loc 1 1486 0
 2825 0032 48BF     		it	mi
 2826 0034 88F80070 		strbmi	r7, [r8]
 2827 0038 F1E7     		b	.L344
 2828              	.L351:
 2829 003a 00BF     		.align	2
 2830              	.L350:
 2831 003c 00000000 		.word	ch
 2832 0040 20000000 		.word	.LC2
 2833 0044 00000000 		.word	.LANCHOR14
 2834 0048 00080240 		.word	1073874944
 2835 004c 00000000 		.word	.LANCHOR13
 2836              		.cfi_endproc
 2837              	.LFE310:
 2838              		.size	timer_thread, .-timer_thread
 2839              		.section	.text.mc_interface_get_tachometer_abs_value,"ax",%progbits
 2840              		.align	2
 2841              		.p2align 4,,15
 2842              		.global	mc_interface_get_tachometer_abs_value
 2843              		.thumb
 2844              		.thumb_func
 2845              		.type	mc_interface_get_tachometer_abs_value, %function
 2846              	mc_interface_get_tachometer_abs_value:
 2847              	.LFB293:
 2848              		.loc 1 797 0
 2849              		.cfi_startproc
 2850              		@ args = 0, pretend = 0, frame = 0
 2851              		@ frame_needed = 0, uses_anonymous_args = 0
 2852              		@ link register save eliminated.
 2853              	.LVL250:
 2854              		.loc 1 800 0
 2855 0000 064B     		ldr	r3, .L358
 2856 0002 9B78     		ldrb	r3, [r3, #2]	@ zero_extendqisi2
 2857 0004 DBB2     		uxtb	r3, r3
 2858 0006 012B     		cmp	r3, #1
 2859 0008 05D9     		bls	.L354
 2860 000a 022B     		cmp	r3, #2
 2861 000c 01D1     		bne	.L357
 2862              		.loc 1 807 0
 2863 000e FFF7FEBF 		b	mcpwm_foc_get_tachometer_abs_value
 2864              	.LVL251:
 2865              	.L357:
 2866              		.loc 1 815 0
 2867 0012 0020     		movs	r0, #0
 2868              	.LVL252:
 2869 0014 7047     		bx	lr
 2870              	.LVL253:
 2871              	.L354:
 2872              		.loc 1 803 0
 2873 0016 FFF7FEBF 		b	mcpwm_get_tachometer_abs_value
 2874              	.LVL254:
 2875              	.L359:
 2876 001a 00BF     		.align	2
 2877              	.L358:
 2878 001c 00000000 		.word	.LANCHOR12
 2879              		.cfi_endproc
 2880              	.LFE293:
ARM GAS  /tmp/ccB9RVXV.s 			page 52


 2881              		.size	mc_interface_get_tachometer_abs_value, .-mc_interface_get_tachometer_abs_value
 2882              		.section	.text.mc_interface_get_last_inj_adc_isr_duration,"ax",%progbits
 2883              		.align	2
 2884              		.p2align 4,,15
 2885              		.global	mc_interface_get_last_inj_adc_isr_duration
 2886              		.thumb
 2887              		.thumb_func
 2888              		.type	mc_interface_get_last_inj_adc_isr_duration, %function
 2889              	mc_interface_get_last_inj_adc_isr_duration:
 2890              	.LFB294:
 2891              		.loc 1 817 0
 2892              		.cfi_startproc
 2893              		@ args = 0, pretend = 0, frame = 0
 2894              		@ frame_needed = 0, uses_anonymous_args = 0
 2895              		@ link register save eliminated.
 2896              	.LVL255:
 2897              		.loc 1 820 0
 2898 0000 064B     		ldr	r3, .L366
 2899 0002 9B78     		ldrb	r3, [r3, #2]	@ zero_extendqisi2
 2900 0004 DBB2     		uxtb	r3, r3
 2901 0006 012B     		cmp	r3, #1
 2902 0008 06D9     		bls	.L362
 2903 000a 022B     		cmp	r3, #2
 2904 000c 01D1     		bne	.L365
 2905              		.loc 1 827 0
 2906 000e FFF7FEBF 		b	mcpwm_foc_get_last_inj_adc_isr_duration
 2907              	.LVL256:
 2908              	.L365:
 2909              		.loc 1 835 0
 2910 0012 9FED030A 		flds	s0, .L366+4
 2911 0016 7047     		bx	lr
 2912              	.L362:
 2913              		.loc 1 823 0
 2914 0018 FFF7FEBF 		b	mcpwm_get_last_inj_adc_isr_duration
 2915              	.LVL257:
 2916              	.L367:
 2917              		.align	2
 2918              	.L366:
 2919 001c 00000000 		.word	.LANCHOR12
 2920 0020 00000000 		.word	0
 2921              		.cfi_endproc
 2922              	.LFE294:
 2923              		.size	mc_interface_get_last_inj_adc_isr_duration, .-mc_interface_get_last_inj_adc_isr_duration
 2924 0024 AFF30080 		.section	.text.mc_interface_read_reset_avg_motor_current,"ax",%progbits
 2924      AFF30080 
 2924      AFF30080 
 2925              		.align	2
 2926              		.p2align 4,,15
 2927              		.global	mc_interface_read_reset_avg_motor_current
 2928              		.thumb
 2929              		.thumb_func
 2930              		.type	mc_interface_read_reset_avg_motor_current, %function
 2931              	mc_interface_read_reset_avg_motor_current:
 2932              	.LFB295:
 2933              		.loc 1 837 0
 2934              		.cfi_startproc
 2935              		@ args = 0, pretend = 0, frame = 0
ARM GAS  /tmp/ccB9RVXV.s 			page 53


 2936              		@ frame_needed = 0, uses_anonymous_args = 0
 2937              		@ link register save eliminated.
 2938              		.loc 1 838 0
 2939 0000 054A     		ldr	r2, .L369
 2940 0002 064B     		ldr	r3, .L369+4
 2941 0004 92ED000A 		flds	s0, [r2]
 2942 0008 D3ED007A 		flds	s15, [r3]
 2943              	.LVL258:
 2944              		.loc 1 839 0
 2945 000c 0021     		movs	r1, #0
 2946 000e 1160     		str	r1, [r2]	@ float
 2947              		.loc 1 842 0
 2948 0010 80EE270A 		fdivs	s0, s0, s15
 2949              	.LVL259:
 2950              		.loc 1 840 0
 2951 0014 1960     		str	r1, [r3]	@ float
 2952              		.loc 1 842 0
 2953 0016 7047     		bx	lr
 2954              	.L370:
 2955              		.align	2
 2956              	.L369:
 2957 0018 00000000 		.word	.LANCHOR18
 2958 001c 00000000 		.word	.LANCHOR20
 2959              		.cfi_endproc
 2960              	.LFE295:
 2961              		.size	mc_interface_read_reset_avg_motor_current, .-mc_interface_read_reset_avg_motor_current
 2962              		.section	.text.mc_interface_read_reset_avg_input_current,"ax",%progbits
 2963              		.align	2
 2964              		.p2align 4,,15
 2965              		.global	mc_interface_read_reset_avg_input_current
 2966              		.thumb
 2967              		.thumb_func
 2968              		.type	mc_interface_read_reset_avg_input_current, %function
 2969              	mc_interface_read_reset_avg_input_current:
 2970              	.LFB296:
 2971              		.loc 1 844 0
 2972              		.cfi_startproc
 2973              		@ args = 0, pretend = 0, frame = 0
 2974              		@ frame_needed = 0, uses_anonymous_args = 0
 2975              		@ link register save eliminated.
 2976              		.loc 1 845 0
 2977 0000 054A     		ldr	r2, .L372
 2978 0002 064B     		ldr	r3, .L372+4
 2979 0004 92ED000A 		flds	s0, [r2]
 2980 0008 D3ED007A 		flds	s15, [r3]
 2981              	.LVL260:
 2982              		.loc 1 846 0
 2983 000c 0021     		movs	r1, #0
 2984 000e 1160     		str	r1, [r2]	@ float
 2985              		.loc 1 849 0
 2986 0010 80EE270A 		fdivs	s0, s0, s15
 2987              	.LVL261:
 2988              		.loc 1 847 0
 2989 0014 1960     		str	r1, [r3]	@ float
 2990              		.loc 1 849 0
 2991 0016 7047     		bx	lr
 2992              	.L373:
ARM GAS  /tmp/ccB9RVXV.s 			page 54


 2993              		.align	2
 2994              	.L372:
 2995 0018 00000000 		.word	.LANCHOR19
 2996 001c 00000000 		.word	.LANCHOR21
 2997              		.cfi_endproc
 2998              	.LFE296:
 2999              		.size	mc_interface_read_reset_avg_input_current, .-mc_interface_read_reset_avg_input_current
 3000              		.section	.text.mc_interface_read_reset_avg_id,"ax",%progbits
 3001              		.align	2
 3002              		.p2align 4,,15
 3003              		.global	mc_interface_read_reset_avg_id
 3004              		.thumb
 3005              		.thumb_func
 3006              		.type	mc_interface_read_reset_avg_id, %function
 3007              	mc_interface_read_reset_avg_id:
 3008              	.LFB297:
 3009              		.loc 1 857 0
 3010              		.cfi_startproc
 3011              		@ args = 0, pretend = 0, frame = 0
 3012              		@ frame_needed = 0, uses_anonymous_args = 0
 3013              		@ link register save eliminated.
 3014              		.loc 1 858 0
 3015 0000 0C4A     		ldr	r2, .L377
 3016 0002 0D4B     		ldr	r3, .L377+4
 3017 0004 92ED007A 		flds	s14, [r2]
 3018 0008 D3ED007A 		flds	s15, [r3]
 3019              		.loc 1 861 0
 3020 000c 0B48     		ldr	r0, .L377+8
 3021              		.loc 1 858 0
 3022 000e C7EE277A 		fdivs	s15, s14, s15
 3023              	.LVL262:
 3024              		.loc 1 859 0
 3025 0012 0021     		movs	r1, #0
 3026 0014 1160     		str	r1, [r2]	@ float
 3027              		.loc 1 860 0
 3028 0016 1960     		str	r1, [r3]	@ float
 3029              		.loc 1 861 0
 3030 0018 90F85D31 		ldrb	r3, [r0, #349]	@ zero_extendqisi2
 3031 001c 002B     		cmp	r3, #0
 3032 001e BFEE007A 		fconsts	s14, #240
 3033 0022 B7EE000A 		fconsts	s0, #112
 3034 0026 18BF     		it	ne
 3035 0028 B0EE470A 		fcpysne	s0, s14
 3036              		.loc 1 862 0
 3037 002c 20EE270A 		fmuls	s0, s0, s15
 3038 0030 7047     		bx	lr
 3039              	.L378:
 3040 0032 00BF     		.align	2
 3041              	.L377:
 3042 0034 00000000 		.word	.LANCHOR22
 3043 0038 00000000 		.word	.LANCHOR24
 3044 003c 00000000 		.word	.LANCHOR12
 3045              		.cfi_endproc
 3046              	.LFE297:
 3047              		.size	mc_interface_read_reset_avg_id, .-mc_interface_read_reset_avg_id
 3048              		.section	.text.mc_interface_read_reset_avg_iq,"ax",%progbits
 3049              		.align	2
ARM GAS  /tmp/ccB9RVXV.s 			page 55


 3050              		.p2align 4,,15
 3051              		.global	mc_interface_read_reset_avg_iq
 3052              		.thumb
 3053              		.thumb_func
 3054              		.type	mc_interface_read_reset_avg_iq, %function
 3055              	mc_interface_read_reset_avg_iq:
 3056              	.LFB298:
 3057              		.loc 1 870 0
 3058              		.cfi_startproc
 3059              		@ args = 0, pretend = 0, frame = 0
 3060              		@ frame_needed = 0, uses_anonymous_args = 0
 3061              		@ link register save eliminated.
 3062              		.loc 1 871 0
 3063 0000 0C4A     		ldr	r2, .L382
 3064 0002 0D4B     		ldr	r3, .L382+4
 3065 0004 92ED007A 		flds	s14, [r2]
 3066 0008 D3ED007A 		flds	s15, [r3]
 3067              		.loc 1 874 0
 3068 000c 0B48     		ldr	r0, .L382+8
 3069              		.loc 1 871 0
 3070 000e C7EE277A 		fdivs	s15, s14, s15
 3071              	.LVL263:
 3072              		.loc 1 872 0
 3073 0012 0021     		movs	r1, #0
 3074 0014 1160     		str	r1, [r2]	@ float
 3075              		.loc 1 873 0
 3076 0016 1960     		str	r1, [r3]	@ float
 3077              		.loc 1 874 0
 3078 0018 90F85D31 		ldrb	r3, [r0, #349]	@ zero_extendqisi2
 3079 001c 002B     		cmp	r3, #0
 3080 001e BFEE007A 		fconsts	s14, #240
 3081 0022 B7EE000A 		fconsts	s0, #112
 3082 0026 18BF     		it	ne
 3083 0028 B0EE470A 		fcpysne	s0, s14
 3084              		.loc 1 875 0
 3085 002c 20EE270A 		fmuls	s0, s0, s15
 3086 0030 7047     		bx	lr
 3087              	.L383:
 3088 0032 00BF     		.align	2
 3089              	.L382:
 3090 0034 00000000 		.word	.LANCHOR23
 3091 0038 00000000 		.word	.LANCHOR25
 3092 003c 00000000 		.word	.LANCHOR12
 3093              		.cfi_endproc
 3094              	.LFE298:
 3095              		.size	mc_interface_read_reset_avg_iq, .-mc_interface_read_reset_avg_iq
 3096              		.section	.text.mc_interface_get_pid_pos_set,"ax",%progbits
 3097              		.align	2
 3098              		.p2align 4,,15
 3099              		.global	mc_interface_get_pid_pos_set
 3100              		.thumb
 3101              		.thumb_func
 3102              		.type	mc_interface_get_pid_pos_set, %function
 3103              	mc_interface_get_pid_pos_set:
 3104              	.LFB299:
 3105              		.loc 1 877 0
 3106              		.cfi_startproc
ARM GAS  /tmp/ccB9RVXV.s 			page 56


 3107              		@ args = 0, pretend = 0, frame = 0
 3108              		@ frame_needed = 0, uses_anonymous_args = 0
 3109              		@ link register save eliminated.
 3110              		.loc 1 878 0
 3111 0000 014B     		ldr	r3, .L385
 3112 0002 93ED000A 		flds	s0, [r3]
 3113              		.loc 1 879 0
 3114 0006 7047     		bx	lr
 3115              	.L386:
 3116              		.align	2
 3117              	.L385:
 3118 0008 00000000 		.word	.LANCHOR30
 3119              		.cfi_endproc
 3120              	.LFE299:
 3121              		.size	mc_interface_get_pid_pos_set, .-mc_interface_get_pid_pos_set
 3122 000c AFF30080 		.section	.text.mc_interface_get_pid_pos_now,"ax",%progbits
 3123              		.align	2
 3124              		.p2align 4,,15
 3125              		.global	mc_interface_get_pid_pos_now
 3126              		.thumb
 3127              		.thumb_func
 3128              		.type	mc_interface_get_pid_pos_now, %function
 3129              	mc_interface_get_pid_pos_now:
 3130              	.LFB300:
 3131              		.loc 1 881 0
 3132              		.cfi_startproc
 3133              		@ args = 0, pretend = 0, frame = 0
 3134              		@ frame_needed = 0, uses_anonymous_args = 0
 3135              	.LVL264:
 3136 0000 10B5     		push	{r4, lr}
 3137              		.cfi_def_cfa_offset 8
 3138              		.cfi_offset 4, -8
 3139              		.cfi_offset 14, -4
 3140              		.loc 1 884 0
 3141 0002 0E4C     		ldr	r4, .L395
 3142 0004 A378     		ldrb	r3, [r4, #2]	@ zero_extendqisi2
 3143 0006 DBB2     		uxtb	r3, r3
 3144 0008 012B     		cmp	r3, #1
 3145 000a 13D9     		bls	.L389
 3146 000c 022B     		cmp	r3, #2
 3147 000e 0ED0     		beq	.L390
 3148              		.loc 1 882 0
 3149 0010 9FED0B0A 		flds	s0, .L395+4
 3150              	.LVL265:
 3151              	.L388:
 3152              		.loc 1 898 0
 3153 0014 94F85D31 		ldrb	r3, [r4, #349]	@ zero_extendqisi2
 3154 0018 B7EE007A 		fconsts	s14, #112
 3155 001c 002B     		cmp	r3, #0
 3156 001e FFEE007A 		fconsts	s15, #240
 3157 0022 08BF     		it	eq
 3158 0024 F0EE477A 		fcpyseq	s15, s14
 3159              		.loc 1 899 0
 3160 0028 27EE800A 		fmuls	s0, s15, s0
 3161              	.LVL266:
 3162 002c 10BD     		pop	{r4, pc}
 3163              	.LVL267:
ARM GAS  /tmp/ccB9RVXV.s 			page 57


 3164              	.L390:
 3165              		.loc 1 891 0
 3166 002e FFF7FEFF 		bl	mcpwm_foc_get_pid_pos_now
 3167              	.LVL268:
 3168              		.loc 1 892 0
 3169 0032 EFE7     		b	.L388
 3170              	.LVL269:
 3171              	.L389:
 3172              		.loc 1 887 0
 3173 0034 FFF7FEFF 		bl	encoder_read_deg
 3174              	.LVL270:
 3175              		.loc 1 888 0
 3176 0038 ECE7     		b	.L388
 3177              	.L396:
 3178 003a 00BF     		.align	2
 3179              	.L395:
 3180 003c 00000000 		.word	.LANCHOR12
 3181 0040 00000000 		.word	0
 3182              		.cfi_endproc
 3183              	.LFE300:
 3184              		.size	mc_interface_get_pid_pos_now, .-mc_interface_get_pid_pos_now
 3185 0044 AFF30080 		.section	.text.mc_interface_get_last_sample_adc_isr_duration,"ax",%progbits
 3185      AFF30080 
 3185      AFF30080 
 3186              		.align	2
 3187              		.p2align 4,,15
 3188              		.global	mc_interface_get_last_sample_adc_isr_duration
 3189              		.thumb
 3190              		.thumb_func
 3191              		.type	mc_interface_get_last_sample_adc_isr_duration, %function
 3192              	mc_interface_get_last_sample_adc_isr_duration:
 3193              	.LFB301:
 3194              		.loc 1 901 0
 3195              		.cfi_startproc
 3196              		@ args = 0, pretend = 0, frame = 0
 3197              		@ frame_needed = 0, uses_anonymous_args = 0
 3198              		@ link register save eliminated.
 3199              		.loc 1 902 0
 3200 0000 014B     		ldr	r3, .L398
 3201 0002 93ED000A 		flds	s0, [r3]
 3202              		.loc 1 903 0
 3203 0006 7047     		bx	lr
 3204              	.L399:
 3205              		.align	2
 3206              	.L398:
 3207 0008 00000000 		.word	.LANCHOR31
 3208              		.cfi_endproc
 3209              	.LFE301:
 3210              		.size	mc_interface_get_last_sample_adc_isr_duration, .-mc_interface_get_last_sample_adc_isr_durati
 3211 000c AFF30080 		.section	.text.mc_interface_sample_print_data,"ax",%progbits
 3212              		.align	2
 3213              		.p2align 4,,15
 3214              		.global	mc_interface_sample_print_data
 3215              		.thumb
 3216              		.thumb_func
 3217              		.type	mc_interface_sample_print_data, %function
 3218              	mc_interface_sample_print_data:
ARM GAS  /tmp/ccB9RVXV.s 			page 58


 3219              	.LFB302:
 3220              		.loc 1 905 0
 3221              		.cfi_startproc
 3222              		@ args = 0, pretend = 0, frame = 0
 3223              		@ frame_needed = 0, uses_anonymous_args = 0
 3224              		@ link register save eliminated.
 3225              	.LVL271:
 3226 0000 B1F5FA6F 		cmp	r1, #2000
 3227 0004 28BF     		it	cs
 3228 0006 4FF4FA61 		movcs	r1, #2000
 3229              	.LVL272:
 3230              		.loc 1 910 0
 3231 000a 0728     		cmp	r0, #7
 3232              		.loc 1 905 0
 3233 000c 2DE9F001 		push	{r4, r5, r6, r7, r8}
 3234              		.cfi_def_cfa_offset 20
 3235              		.cfi_offset 4, -20
 3236              		.cfi_offset 5, -16
 3237              		.cfi_offset 6, -12
 3238              		.cfi_offset 7, -8
 3239              		.cfi_offset 8, -4
 3240              		.loc 1 910 0
 3241 0010 11D0     		beq	.L402
 3242              		.loc 1 914 0
 3243 0012 0C4E     		ldr	r6, .L403
 3244              		.loc 1 915 0
 3245 0014 0C4D     		ldr	r5, .L403+4
 3246              		.loc 1 916 0
 3247 0016 0D4C     		ldr	r4, .L403+8
 3248              		.loc 1 913 0
 3249 0018 DFF83CC0 		ldr	ip, .L403+20
 3250              		.loc 1 917 0
 3251 001c 0C4B     		ldr	r3, .L403+12
 3252              		.loc 1 913 0
 3253 001e 4FF0FF38 		mov	r8, #-1
 3254              		.loc 1 914 0
 3255 0022 0027     		movs	r7, #0
 3256              		.loc 1 913 0
 3257 0024 CCF80080 		str	r8, [ip]
 3258              		.loc 1 914 0
 3259 0028 3760     		str	r7, [r6]
 3260              		.loc 1 915 0
 3261 002a 2960     		str	r1, [r5]
 3262              		.loc 1 916 0
 3263 002c 2260     		str	r2, [r4]
 3264              		.loc 1 917 0
 3265 002e 1870     		strb	r0, [r3]
 3266              		.loc 1 919 0
 3267 0030 BDE8F001 		pop	{r4, r5, r6, r7, r8}
 3268 0034 7047     		bx	lr
 3269              	.L402:
 3270              		.loc 1 911 0
 3271 0036 074B     		ldr	r3, .L403+16
 3272 0038 0121     		movs	r1, #1
 3273              	.LVL273:
 3274 003a 1868     		ldr	r0, [r3]
 3275              	.LVL274:
ARM GAS  /tmp/ccB9RVXV.s 			page 59


 3276              		.loc 1 919 0
 3277 003c BDE8F001 		pop	{r4, r5, r6, r7, r8}
 3278              		.loc 1 911 0
 3279 0040 FFF7FEBF 		b	chEvtSignal
 3280              	.LVL275:
 3281              	.L404:
 3282              		.align	2
 3283              	.L403:
 3284 0044 00000000 		.word	.LANCHOR35
 3285 0048 00000000 		.word	.LANCHOR2
 3286 004c 00000000 		.word	.LANCHOR34
 3287 0050 00000000 		.word	.LANCHOR36
 3288 0054 00000000 		.word	.LANCHOR0
 3289 0058 00000000 		.word	.LANCHOR3
 3290              		.cfi_endproc
 3291              	.LFE302:
 3292              		.size	mc_interface_sample_print_data, .-mc_interface_sample_print_data
 3293 005c AFF30080 		.section	.text.mc_interface_temp_fet_filtered,"ax",%progbits
 3294              		.align	2
 3295              		.p2align 4,,15
 3296              		.global	mc_interface_temp_fet_filtered
 3297              		.thumb
 3298              		.thumb_func
 3299              		.type	mc_interface_temp_fet_filtered, %function
 3300              	mc_interface_temp_fet_filtered:
 3301              	.LFB303:
 3302              		.loc 1 928 0
 3303              		.cfi_startproc
 3304              		@ args = 0, pretend = 0, frame = 0
 3305              		@ frame_needed = 0, uses_anonymous_args = 0
 3306              		@ link register save eliminated.
 3307              		.loc 1 929 0
 3308 0000 014B     		ldr	r3, .L406
 3309 0002 93ED000A 		flds	s0, [r3]
 3310              		.loc 1 930 0
 3311 0006 7047     		bx	lr
 3312              	.L407:
 3313              		.align	2
 3314              	.L406:
 3315 0008 00000000 		.word	.LANCHOR32
 3316              		.cfi_endproc
 3317              	.LFE303:
 3318              		.size	mc_interface_temp_fet_filtered, .-mc_interface_temp_fet_filtered
 3319 000c AFF30080 		.section	.text.mc_interface_temp_motor_filtered,"ax",%progbits
 3320              		.align	2
 3321              		.p2align 4,,15
 3322              		.global	mc_interface_temp_motor_filtered
 3323              		.thumb
 3324              		.thumb_func
 3325              		.type	mc_interface_temp_motor_filtered, %function
 3326              	mc_interface_temp_motor_filtered:
 3327              	.LFB304:
 3328              		.loc 1 939 0
 3329              		.cfi_startproc
 3330              		@ args = 0, pretend = 0, frame = 0
 3331              		@ frame_needed = 0, uses_anonymous_args = 0
 3332              		@ link register save eliminated.
ARM GAS  /tmp/ccB9RVXV.s 			page 60


 3333              		.loc 1 940 0
 3334 0000 014B     		ldr	r3, .L409
 3335 0002 93ED000A 		flds	s0, [r3]
 3336              		.loc 1 941 0
 3337 0006 7047     		bx	lr
 3338              	.L410:
 3339              		.align	2
 3340              	.L409:
 3341 0008 00000000 		.word	.LANCHOR33
 3342              		.cfi_endproc
 3343              	.LFE304:
 3344              		.size	mc_interface_temp_motor_filtered, .-mc_interface_temp_motor_filtered
 3345 000c AFF30080 		.section	.text.mc_interface_try_input,"ax",%progbits
 3346              		.align	2
 3347              		.p2align 4,,15
 3348              		.global	mc_interface_try_input
 3349              		.thumb
 3350              		.thumb_func
 3351              		.type	mc_interface_try_input, %function
 3352              	mc_interface_try_input:
 3353              	.LFB305:
 3354              		.loc 1 953 0
 3355              		.cfi_startproc
 3356              		@ args = 0, pretend = 0, frame = 0
 3357              		@ frame_needed = 0, uses_anonymous_args = 0
 3358 0000 10B5     		push	{r4, lr}
 3359              		.cfi_def_cfa_offset 8
 3360              		.cfi_offset 4, -8
 3361              		.cfi_offset 14, -4
 3362              		.loc 1 955 0
 3363 0002 FFF7FEFF 		bl	mc_interface_get_state
 3364              	.LVL276:
 3365 0006 0128     		cmp	r0, #1
 3366 0008 24D0     		beq	.L426
 3367              		.loc 1 960 0
 3368 000a 164B     		ldr	r3, .L430
 3369 000c 1C68     		ldr	r4, [r3]
 3370              	.LVL277:
 3371              		.loc 1 962 0
 3372 000e 14B9     		cbnz	r4, .L413
 3373              		.loc 1 962 0 is_stmt 0 discriminator 1
 3374 0010 154B     		ldr	r3, .L430+4
 3375 0012 1B78     		ldrb	r3, [r3]	@ zero_extendqisi2
 3376 0014 63B9     		cbnz	r3, .L427
 3377              	.LVL278:
 3378              	.L413:
 3379              		.loc 1 970 0 is_stmt 1
 3380 0016 154B     		ldr	r3, .L430+8
 3381 0018 9B78     		ldrb	r3, [r3, #2]	@ zero_extendqisi2
 3382 001a DBB2     		uxtb	r3, r3
 3383 001c 012B     		cmp	r3, #1
 3384 001e 11D9     		bls	.L415
 3385              	.L429:
 3386 0020 022B     		cmp	r3, #2
 3387 0022 03D1     		bne	.L414
 3388              		.loc 1 979 0
 3389 0024 FFF7FEFF 		bl	mcpwm_foc_init_done
ARM GAS  /tmp/ccB9RVXV.s 			page 61


 3390              	.LVL279:
 3391 0028 00B9     		cbnz	r0, .L414
 3392              	.L417:
 3393              	.LVL280:
 3394              		.loc 1 974 0
 3395 002a 0124     		movs	r4, #1
 3396              	.LVL281:
 3397              	.L414:
 3398              		.loc 1 989 0
 3399 002c 2046     		mov	r0, r4
 3400 002e 10BD     		pop	{r4, pc}
 3401              	.LVL282:
 3402              	.L427:
 3403              		.loc 1 963 0
 3404 0030 0F4B     		ldr	r3, .L430+12
 3405 0032 1A78     		ldrb	r2, [r3]	@ zero_extendqisi2
 3406 0034 62B9     		cbnz	r2, .L428
 3407              		.loc 1 970 0
 3408 0036 0D4B     		ldr	r3, .L430+8
 3409 0038 9B78     		ldrb	r3, [r3, #2]	@ zero_extendqisi2
 3410 003a DBB2     		uxtb	r3, r3
 3411 003c 012B     		cmp	r3, #1
 3412              		.loc 1 964 0
 3413 003e 4FF00104 		mov	r4, #1
 3414              	.LVL283:
 3415              		.loc 1 970 0
 3416 0042 EDD8     		bhi	.L429
 3417              	.L415:
 3418              		.loc 1 973 0
 3419 0044 FFF7FEFF 		bl	mcpwm_init_done
 3420              	.LVL284:
 3421 0048 0028     		cmp	r0, #0
 3422 004a EED0     		beq	.L417
 3423              		.loc 1 989 0
 3424 004c 2046     		mov	r0, r4
 3425 004e 10BD     		pop	{r4, pc}
 3426              	.LVL285:
 3427              	.L428:
 3428              		.loc 1 966 0
 3429 0050 1C70     		strb	r4, [r3]
 3430 0052 E0E7     		b	.L413
 3431              	.LVL286:
 3432              	.L426:
 3433              		.loc 1 956 0
 3434 0054 FFF7FEFF 		bl	mcpwm_stop_pwm
 3435              	.LVL287:
 3436              		.loc 1 957 0
 3437 0058 024B     		ldr	r3, .L430
 3438 005a 4FF4FA74 		mov	r4, #500
 3439 005e 1C60     		str	r4, [r3]
 3440              	.LVL288:
 3441 0060 D9E7     		b	.L413
 3442              	.L431:
 3443 0062 00BF     		.align	2
 3444              	.L430:
 3445 0064 00000000 		.word	.LANCHOR14
 3446 0068 00000000 		.word	.LANCHOR16
ARM GAS  /tmp/ccB9RVXV.s 			page 62


 3447 006c 00000000 		.word	.LANCHOR12
 3448 0070 00000000 		.word	.LANCHOR17
 3449              		.cfi_endproc
 3450              	.LFE305:
 3451              		.size	mc_interface_try_input, .-mc_interface_try_input
 3452 0074 AFF30080 		.section	.text.mc_interface_set_duty,"ax",%progbits
 3452      AFF30080 
 3452      AFF30080 
 3453              		.align	2
 3454              		.p2align 4,,15
 3455              		.global	mc_interface_set_duty
 3456              		.thumb
 3457              		.thumb_func
 3458              		.type	mc_interface_set_duty, %function
 3459              	mc_interface_set_duty:
 3460              	.LFB267:
 3461              		.loc 1 320 0
 3462              		.cfi_startproc
 3463              		@ args = 0, pretend = 0, frame = 0
 3464              		@ frame_needed = 0, uses_anonymous_args = 0
 3465              	.LVL289:
 3466 0000 08B5     		push	{r3, lr}
 3467              		.cfi_def_cfa_offset 8
 3468              		.cfi_offset 3, -8
 3469              		.cfi_offset 14, -4
 3470 0002 2DED028B 		fstmfdd	sp!, {d8}
 3471              		.cfi_def_cfa_offset 16
 3472              		.cfi_offset 80, -16
 3473              		.loc 1 320 0
 3474 0006 B0EE408A 		fcpys	s16, s0
 3475              		.loc 1 321 0
 3476 000a FFF7FEFF 		bl	mc_interface_try_input
 3477              	.LVL290:
 3478 000e C0B9     		cbnz	r0, .L432
 3479              		.loc 1 325 0
 3480 0010 164B     		ldr	r3, .L440
 3481 0012 9A78     		ldrb	r2, [r3, #2]	@ zero_extendqisi2
 3482 0014 D2B2     		uxtb	r2, r2
 3483 0016 012A     		cmp	r2, #1
 3484 0018 16D9     		bls	.L434
 3485 001a 022A     		cmp	r2, #2
 3486 001c 11D1     		bne	.L432
 3487              		.loc 1 332 0
 3488 001e 93F85D31 		ldrb	r3, [r3, #349]	@ zero_extendqisi2
 3489 0022 B7EE000A 		fconsts	s0, #112
 3490 0026 002B     		cmp	r3, #0
 3491 0028 FFEE007A 		fconsts	s15, #240
 3492 002c 18BF     		it	ne
 3493 002e B0EE670A 		fcpysne	s0, s15
 3494 0032 20EE080A 		fmuls	s0, s0, s16
 3495              		.loc 1 338 0
 3496 0036 BDEC028B 		fldmfdd	sp!, {d8}
 3497              	.LVL291:
 3498 003a BDE80840 		pop	{r3, lr}
 3499              		.loc 1 332 0
 3500 003e FFF7FEBF 		b	mcpwm_foc_set_duty
 3501              	.LVL292:
ARM GAS  /tmp/ccB9RVXV.s 			page 63


 3502              	.L432:
 3503              		.loc 1 338 0
 3504 0042 BDEC028B 		fldmfdd	sp!, {d8}
 3505              	.LVL293:
 3506 0046 08BD     		pop	{r3, pc}
 3507              	.LVL294:
 3508              	.L434:
 3509              		.loc 1 328 0
 3510 0048 93F85D31 		ldrb	r3, [r3, #349]	@ zero_extendqisi2
 3511 004c B7EE000A 		fconsts	s0, #112
 3512 0050 002B     		cmp	r3, #0
 3513 0052 FFEE007A 		fconsts	s15, #240
 3514 0056 18BF     		it	ne
 3515 0058 B0EE670A 		fcpysne	s0, s15
 3516 005c 20EE080A 		fmuls	s0, s0, s16
 3517              		.loc 1 338 0
 3518 0060 BDEC028B 		fldmfdd	sp!, {d8}
 3519              	.LVL295:
 3520 0064 BDE80840 		pop	{r3, lr}
 3521              		.loc 1 328 0
 3522 0068 FFF7FEBF 		b	mcpwm_set_duty
 3523              	.LVL296:
 3524              	.L441:
 3525              		.align	2
 3526              	.L440:
 3527 006c 00000000 		.word	.LANCHOR12
 3528              		.cfi_endproc
 3529              	.LFE267:
 3530              		.size	mc_interface_set_duty, .-mc_interface_set_duty
 3531              		.section	.text.mc_interface_brake_now,"ax",%progbits
 3532              		.align	2
 3533              		.p2align 4,,15
 3534              		.global	mc_interface_brake_now
 3535              		.thumb
 3536              		.thumb_func
 3537              		.type	mc_interface_brake_now, %function
 3538              	mc_interface_brake_now:
 3539              	.LFB276:
 3540              		.loc 1 487 0
 3541              		.cfi_startproc
 3542              		@ args = 0, pretend = 0, frame = 0
 3543              		@ frame_needed = 0, uses_anonymous_args = 0
 3544              		@ link register save eliminated.
 3545              		.loc 1 488 0
 3546 0000 9FED010A 		flds	s0, .L443
 3547 0004 FFF7FEBF 		b	mc_interface_set_duty
 3548              	.LVL297:
 3549              	.L444:
 3550              		.align	2
 3551              	.L443:
 3552 0008 00000000 		.word	0
 3553              		.cfi_endproc
 3554              	.LFE276:
 3555              		.size	mc_interface_brake_now, .-mc_interface_brake_now
 3556 000c AFF30080 		.section	.text.mc_interface_set_duty_noramp,"ax",%progbits
 3557              		.align	2
 3558              		.p2align 4,,15
ARM GAS  /tmp/ccB9RVXV.s 			page 64


 3559              		.global	mc_interface_set_duty_noramp
 3560              		.thumb
 3561              		.thumb_func
 3562              		.type	mc_interface_set_duty_noramp, %function
 3563              	mc_interface_set_duty_noramp:
 3564              	.LFB268:
 3565              		.loc 1 340 0
 3566              		.cfi_startproc
 3567              		@ args = 0, pretend = 0, frame = 0
 3568              		@ frame_needed = 0, uses_anonymous_args = 0
 3569              	.LVL298:
 3570 0000 08B5     		push	{r3, lr}
 3571              		.cfi_def_cfa_offset 8
 3572              		.cfi_offset 3, -8
 3573              		.cfi_offset 14, -4
 3574 0002 2DED028B 		fstmfdd	sp!, {d8}
 3575              		.cfi_def_cfa_offset 16
 3576              		.cfi_offset 80, -16
 3577              		.loc 1 340 0
 3578 0006 B0EE408A 		fcpys	s16, s0
 3579              		.loc 1 341 0
 3580 000a FFF7FEFF 		bl	mc_interface_try_input
 3581              	.LVL299:
 3582 000e C0B9     		cbnz	r0, .L445
 3583              		.loc 1 345 0
 3584 0010 164B     		ldr	r3, .L453
 3585 0012 9A78     		ldrb	r2, [r3, #2]	@ zero_extendqisi2
 3586 0014 D2B2     		uxtb	r2, r2
 3587 0016 012A     		cmp	r2, #1
 3588 0018 16D9     		bls	.L447
 3589 001a 022A     		cmp	r2, #2
 3590 001c 11D1     		bne	.L445
 3591              		.loc 1 352 0
 3592 001e 93F85D31 		ldrb	r3, [r3, #349]	@ zero_extendqisi2
 3593 0022 B7EE000A 		fconsts	s0, #112
 3594 0026 002B     		cmp	r3, #0
 3595 0028 FFEE007A 		fconsts	s15, #240
 3596 002c 18BF     		it	ne
 3597 002e B0EE670A 		fcpysne	s0, s15
 3598 0032 20EE080A 		fmuls	s0, s0, s16
 3599              		.loc 1 358 0
 3600 0036 BDEC028B 		fldmfdd	sp!, {d8}
 3601              	.LVL300:
 3602 003a BDE80840 		pop	{r3, lr}
 3603              		.loc 1 352 0
 3604 003e FFF7FEBF 		b	mcpwm_foc_set_duty_noramp
 3605              	.LVL301:
 3606              	.L445:
 3607              		.loc 1 358 0
 3608 0042 BDEC028B 		fldmfdd	sp!, {d8}
 3609              	.LVL302:
 3610 0046 08BD     		pop	{r3, pc}
 3611              	.LVL303:
 3612              	.L447:
 3613              		.loc 1 348 0
 3614 0048 93F85D31 		ldrb	r3, [r3, #349]	@ zero_extendqisi2
 3615 004c B7EE000A 		fconsts	s0, #112
ARM GAS  /tmp/ccB9RVXV.s 			page 65


 3616 0050 002B     		cmp	r3, #0
 3617 0052 FFEE007A 		fconsts	s15, #240
 3618 0056 18BF     		it	ne
 3619 0058 B0EE670A 		fcpysne	s0, s15
 3620 005c 20EE080A 		fmuls	s0, s0, s16
 3621              		.loc 1 358 0
 3622 0060 BDEC028B 		fldmfdd	sp!, {d8}
 3623              	.LVL304:
 3624 0064 BDE80840 		pop	{r3, lr}
 3625              		.loc 1 348 0
 3626 0068 FFF7FEBF 		b	mcpwm_set_duty_noramp
 3627              	.LVL305:
 3628              	.L454:
 3629              		.align	2
 3630              	.L453:
 3631 006c 00000000 		.word	.LANCHOR12
 3632              		.cfi_endproc
 3633              	.LFE268:
 3634              		.size	mc_interface_set_duty_noramp, .-mc_interface_set_duty_noramp
 3635              		.section	.text.mc_interface_set_pid_speed,"ax",%progbits
 3636              		.align	2
 3637              		.p2align 4,,15
 3638              		.global	mc_interface_set_pid_speed
 3639              		.thumb
 3640              		.thumb_func
 3641              		.type	mc_interface_set_pid_speed, %function
 3642              	mc_interface_set_pid_speed:
 3643              	.LFB269:
 3644              		.loc 1 360 0
 3645              		.cfi_startproc
 3646              		@ args = 0, pretend = 0, frame = 0
 3647              		@ frame_needed = 0, uses_anonymous_args = 0
 3648              	.LVL306:
 3649 0000 08B5     		push	{r3, lr}
 3650              		.cfi_def_cfa_offset 8
 3651              		.cfi_offset 3, -8
 3652              		.cfi_offset 14, -4
 3653 0002 2DED028B 		fstmfdd	sp!, {d8}
 3654              		.cfi_def_cfa_offset 16
 3655              		.cfi_offset 80, -16
 3656              		.loc 1 360 0
 3657 0006 B0EE408A 		fcpys	s16, s0
 3658              		.loc 1 361 0
 3659 000a FFF7FEFF 		bl	mc_interface_try_input
 3660              	.LVL307:
 3661 000e C0B9     		cbnz	r0, .L455
 3662              		.loc 1 365 0
 3663 0010 164B     		ldr	r3, .L463
 3664 0012 9A78     		ldrb	r2, [r3, #2]	@ zero_extendqisi2
 3665 0014 D2B2     		uxtb	r2, r2
 3666 0016 012A     		cmp	r2, #1
 3667 0018 16D9     		bls	.L457
 3668 001a 022A     		cmp	r2, #2
 3669 001c 11D1     		bne	.L455
 3670              		.loc 1 372 0
 3671 001e 93F85D31 		ldrb	r3, [r3, #349]	@ zero_extendqisi2
 3672 0022 B7EE000A 		fconsts	s0, #112
ARM GAS  /tmp/ccB9RVXV.s 			page 66


 3673 0026 002B     		cmp	r3, #0
 3674 0028 FFEE007A 		fconsts	s15, #240
 3675 002c 18BF     		it	ne
 3676 002e B0EE670A 		fcpysne	s0, s15
 3677 0032 20EE080A 		fmuls	s0, s0, s16
 3678              		.loc 1 378 0
 3679 0036 BDEC028B 		fldmfdd	sp!, {d8}
 3680              	.LVL308:
 3681 003a BDE80840 		pop	{r3, lr}
 3682              		.loc 1 372 0
 3683 003e FFF7FEBF 		b	mcpwm_foc_set_pid_speed
 3684              	.LVL309:
 3685              	.L455:
 3686              		.loc 1 378 0
 3687 0042 BDEC028B 		fldmfdd	sp!, {d8}
 3688              	.LVL310:
 3689 0046 08BD     		pop	{r3, pc}
 3690              	.LVL311:
 3691              	.L457:
 3692              		.loc 1 368 0
 3693 0048 93F85D31 		ldrb	r3, [r3, #349]	@ zero_extendqisi2
 3694 004c B7EE000A 		fconsts	s0, #112
 3695 0050 002B     		cmp	r3, #0
 3696 0052 FFEE007A 		fconsts	s15, #240
 3697 0056 18BF     		it	ne
 3698 0058 B0EE670A 		fcpysne	s0, s15
 3699 005c 20EE080A 		fmuls	s0, s0, s16
 3700              		.loc 1 378 0
 3701 0060 BDEC028B 		fldmfdd	sp!, {d8}
 3702              	.LVL312:
 3703 0064 BDE80840 		pop	{r3, lr}
 3704              		.loc 1 368 0
 3705 0068 FFF7FEBF 		b	mcpwm_set_pid_speed
 3706              	.LVL313:
 3707              	.L464:
 3708              		.align	2
 3709              	.L463:
 3710 006c 00000000 		.word	.LANCHOR12
 3711              		.cfi_endproc
 3712              	.LFE269:
 3713              		.size	mc_interface_set_pid_speed, .-mc_interface_set_pid_speed
 3714              		.section	.text.mc_interface_set_pid_pos,"ax",%progbits
 3715              		.align	2
 3716              		.p2align 4,,15
 3717              		.global	mc_interface_set_pid_pos
 3718              		.thumb
 3719              		.thumb_func
 3720              		.type	mc_interface_set_pid_pos, %function
 3721              	mc_interface_set_pid_pos:
 3722              	.LFB270:
 3723              		.loc 1 380 0
 3724              		.cfi_startproc
 3725              		@ args = 0, pretend = 0, frame = 0
 3726              		@ frame_needed = 0, uses_anonymous_args = 0
 3727              	.LVL314:
 3728 0000 08B5     		push	{r3, lr}
 3729              		.cfi_def_cfa_offset 8
ARM GAS  /tmp/ccB9RVXV.s 			page 67


 3730              		.cfi_offset 3, -8
 3731              		.cfi_offset 14, -4
 3732 0002 2DED028B 		fstmfdd	sp!, {d8}
 3733              		.cfi_def_cfa_offset 16
 3734              		.cfi_offset 80, -16
 3735              		.loc 1 380 0
 3736 0006 B0EE408A 		fcpys	s16, s0
 3737              		.loc 1 381 0
 3738 000a FFF7FEFF 		bl	mc_interface_try_input
 3739              	.LVL315:
 3740 000e E8B9     		cbnz	r0, .L465
 3741              		.loc 1 385 0
 3742 0010 1A4B     		ldr	r3, .L473
 3743              		.loc 1 387 0
 3744 0012 1B4A     		ldr	r2, .L473+4
 3745              		.loc 1 385 0
 3746 0014 83ED008A 		fsts	s16, [r3]
 3747              		.loc 1 387 0
 3748 0018 9178     		ldrb	r1, [r2, #2]	@ zero_extendqisi2
 3749 001a C9B2     		uxtb	r1, r1
 3750 001c 0129     		cmp	r1, #1
 3751 001e 18D9     		bls	.L467
 3752 0020 0229     		cmp	r1, #2
 3753 0022 13D1     		bne	.L465
 3754              		.loc 1 400 0
 3755 0024 BDEC028B 		fldmfdd	sp!, {d8}
 3756              	.LVL316:
 3757              		.loc 1 394 0
 3758 0028 92F85D21 		ldrb	r2, [r2, #349]	@ zero_extendqisi2
 3759 002c D3ED007A 		flds	s15, [r3]
 3760 0030 002A     		cmp	r2, #0
 3761 0032 B7EE000A 		fconsts	s0, #112
 3762 0036 BFEE007A 		fconsts	s14, #240
 3763 003a 18BF     		it	ne
 3764 003c B0EE470A 		fcpysne	s0, s14
 3765 0040 20EE270A 		fmuls	s0, s0, s15
 3766              		.loc 1 400 0
 3767 0044 BDE80840 		pop	{r3, lr}
 3768              		.loc 1 394 0
 3769 0048 FFF7FEBF 		b	mcpwm_foc_set_pid_pos
 3770              	.LVL317:
 3771              	.L465:
 3772              		.loc 1 400 0
 3773 004c BDEC028B 		fldmfdd	sp!, {d8}
 3774              	.LVL318:
 3775 0050 08BD     		pop	{r3, pc}
 3776              	.LVL319:
 3777              	.L467:
 3778 0052 BDEC028B 		fldmfdd	sp!, {d8}
 3779              	.LVL320:
 3780              		.loc 1 390 0
 3781 0056 92F85D21 		ldrb	r2, [r2, #349]	@ zero_extendqisi2
 3782 005a D3ED007A 		flds	s15, [r3]
 3783 005e 002A     		cmp	r2, #0
 3784 0060 B7EE000A 		fconsts	s0, #112
 3785 0064 BFEE007A 		fconsts	s14, #240
 3786 0068 18BF     		it	ne
ARM GAS  /tmp/ccB9RVXV.s 			page 68


 3787 006a B0EE470A 		fcpysne	s0, s14
 3788 006e 20EE270A 		fmuls	s0, s0, s15
 3789              		.loc 1 400 0
 3790 0072 BDE80840 		pop	{r3, lr}
 3791              		.loc 1 390 0
 3792 0076 FFF7FEBF 		b	mcpwm_set_pid_pos
 3793              	.LVL321:
 3794              	.L474:
 3795 007a 00BF     		.align	2
 3796              	.L473:
 3797 007c 00000000 		.word	.LANCHOR30
 3798 0080 00000000 		.word	.LANCHOR12
 3799              		.cfi_endproc
 3800              	.LFE270:
 3801              		.size	mc_interface_set_pid_pos, .-mc_interface_set_pid_pos
 3802 0084 AFF30080 		.section	.text.mc_interface_set_current,"ax",%progbits
 3802      AFF30080 
 3802      AFF30080 
 3803              		.align	2
 3804              		.p2align 4,,15
 3805              		.global	mc_interface_set_current
 3806              		.thumb
 3807              		.thumb_func
 3808              		.type	mc_interface_set_current, %function
 3809              	mc_interface_set_current:
 3810              	.LFB271:
 3811              		.loc 1 402 0
 3812              		.cfi_startproc
 3813              		@ args = 0, pretend = 0, frame = 0
 3814              		@ frame_needed = 0, uses_anonymous_args = 0
 3815              	.LVL322:
 3816 0000 08B5     		push	{r3, lr}
 3817              		.cfi_def_cfa_offset 8
 3818              		.cfi_offset 3, -8
 3819              		.cfi_offset 14, -4
 3820 0002 2DED028B 		fstmfdd	sp!, {d8}
 3821              		.cfi_def_cfa_offset 16
 3822              		.cfi_offset 80, -16
 3823              		.loc 1 402 0
 3824 0006 B0EE408A 		fcpys	s16, s0
 3825              		.loc 1 403 0
 3826 000a FFF7FEFF 		bl	mc_interface_try_input
 3827              	.LVL323:
 3828 000e C0B9     		cbnz	r0, .L475
 3829              		.loc 1 407 0
 3830 0010 164B     		ldr	r3, .L483
 3831 0012 9A78     		ldrb	r2, [r3, #2]	@ zero_extendqisi2
 3832 0014 D2B2     		uxtb	r2, r2
 3833 0016 012A     		cmp	r2, #1
 3834 0018 16D9     		bls	.L477
 3835 001a 022A     		cmp	r2, #2
 3836 001c 11D1     		bne	.L475
 3837              		.loc 1 414 0
 3838 001e 93F85D31 		ldrb	r3, [r3, #349]	@ zero_extendqisi2
 3839 0022 B7EE000A 		fconsts	s0, #112
 3840 0026 002B     		cmp	r3, #0
 3841 0028 FFEE007A 		fconsts	s15, #240
ARM GAS  /tmp/ccB9RVXV.s 			page 69


 3842 002c 18BF     		it	ne
 3843 002e B0EE670A 		fcpysne	s0, s15
 3844 0032 20EE080A 		fmuls	s0, s0, s16
 3845              		.loc 1 420 0
 3846 0036 BDEC028B 		fldmfdd	sp!, {d8}
 3847              	.LVL324:
 3848 003a BDE80840 		pop	{r3, lr}
 3849              		.loc 1 414 0
 3850 003e FFF7FEBF 		b	mcpwm_foc_set_current
 3851              	.LVL325:
 3852              	.L475:
 3853              		.loc 1 420 0
 3854 0042 BDEC028B 		fldmfdd	sp!, {d8}
 3855              	.LVL326:
 3856 0046 08BD     		pop	{r3, pc}
 3857              	.LVL327:
 3858              	.L477:
 3859              	.LBB155:
 3860              	.LBB156:
 3861              		.loc 1 410 0
 3862 0048 93F85D31 		ldrb	r3, [r3, #349]	@ zero_extendqisi2
 3863 004c B7EE000A 		fconsts	s0, #112
 3864 0050 002B     		cmp	r3, #0
 3865 0052 FFEE007A 		fconsts	s15, #240
 3866 0056 18BF     		it	ne
 3867 0058 B0EE670A 		fcpysne	s0, s15
 3868 005c 28EE000A 		fmuls	s0, s16, s0
 3869              	.LBE156:
 3870              	.LBE155:
 3871              		.loc 1 420 0
 3872 0060 BDEC028B 		fldmfdd	sp!, {d8}
 3873              	.LVL328:
 3874 0064 BDE80840 		pop	{r3, lr}
 3875              	.LBB158:
 3876              	.LBB157:
 3877              		.loc 1 410 0
 3878 0068 FFF7FEBF 		b	mcpwm_set_current
 3879              	.LVL329:
 3880              	.L484:
 3881              		.align	2
 3882              	.L483:
 3883 006c 00000000 		.word	.LANCHOR12
 3884              	.LBE157:
 3885              	.LBE158:
 3886              		.cfi_endproc
 3887              	.LFE271:
 3888              		.size	mc_interface_set_current, .-mc_interface_set_current
 3889              		.section	.text.mc_interface_set_current_rel,"ax",%progbits
 3890              		.align	2
 3891              		.p2align 4,,15
 3892              		.global	mc_interface_set_current_rel
 3893              		.thumb
 3894              		.thumb_func
 3895              		.type	mc_interface_set_current_rel, %function
 3896              	mc_interface_set_current_rel:
 3897              	.LFB273:
 3898              		.loc 1 448 0
ARM GAS  /tmp/ccB9RVXV.s 			page 70


 3899              		.cfi_startproc
 3900              		@ args = 0, pretend = 0, frame = 0
 3901              		@ frame_needed = 0, uses_anonymous_args = 0
 3902              		@ link register save eliminated.
 3903              	.LVL330:
 3904              		.loc 1 449 0
 3905 0000 B5EEC00A 		fcmpezs	s0
 3906 0004 F1EE10FA 		fmstat
 3907              		.loc 1 450 0
 3908 0008 074B     		ldr	r3, .L490
 3909              		.loc 1 449 0
 3910 000a 05DD     		ble	.L489
 3911              		.loc 1 450 0
 3912 000c D3ED1D7A 		flds	s15, [r3, #116]
 3913 0010 27EE800A 		fmuls	s0, s15, s0
 3914              	.LVL331:
 3915 0014 FFF7FEBF 		b	mc_interface_set_current
 3916              	.LVL332:
 3917              	.L489:
 3918              		.loc 1 452 0
 3919 0018 D3ED1E7A 		flds	s15, [r3, #120]
 3920 001c F0EEE77A 		fabss	s15, s15
 3921 0020 27EE800A 		fmuls	s0, s15, s0
 3922              	.LVL333:
 3923 0024 FFF7FEBF 		b	mc_interface_set_current
 3924              	.LVL334:
 3925              	.L491:
 3926              		.align	2
 3927              	.L490:
 3928 0028 00000000 		.word	.LANCHOR12
 3929              		.cfi_endproc
 3930              	.LFE273:
 3931              		.size	mc_interface_set_current_rel, .-mc_interface_set_current_rel
 3932 002c AFF30080 		.section	.text.mc_interface_release_motor,"ax",%progbits
 3933              		.align	2
 3934              		.p2align 4,,15
 3935              		.global	mc_interface_release_motor
 3936              		.thumb
 3937              		.thumb_func
 3938              		.type	mc_interface_release_motor, %function
 3939              	mc_interface_release_motor:
 3940              	.LFB277:
 3941              		.loc 1 494 0
 3942              		.cfi_startproc
 3943              		@ args = 0, pretend = 0, frame = 0
 3944              		@ frame_needed = 0, uses_anonymous_args = 0
 3945              		@ link register save eliminated.
 3946              		.loc 1 495 0
 3947 0000 9FED010A 		flds	s0, .L493
 3948 0004 FFF7FEBF 		b	mc_interface_set_current
 3949              	.LVL335:
 3950              	.L494:
 3951              		.align	2
 3952              	.L493:
 3953 0008 00000000 		.word	0
 3954              		.cfi_endproc
 3955              	.LFE277:
ARM GAS  /tmp/ccB9RVXV.s 			page 71


 3956              		.size	mc_interface_release_motor, .-mc_interface_release_motor
 3957 000c AFF30080 		.section	.text.mc_interface_set_brake_current,"ax",%progbits
 3958              		.align	2
 3959              		.p2align 4,,15
 3960              		.global	mc_interface_set_brake_current
 3961              		.thumb
 3962              		.thumb_func
 3963              		.type	mc_interface_set_brake_current, %function
 3964              	mc_interface_set_brake_current:
 3965              	.LFB272:
 3966              		.loc 1 422 0
 3967              		.cfi_startproc
 3968              		@ args = 0, pretend = 0, frame = 0
 3969              		@ frame_needed = 0, uses_anonymous_args = 0
 3970              	.LVL336:
 3971 0000 08B5     		push	{r3, lr}
 3972              		.cfi_def_cfa_offset 8
 3973              		.cfi_offset 3, -8
 3974              		.cfi_offset 14, -4
 3975 0002 2DED028B 		fstmfdd	sp!, {d8}
 3976              		.cfi_def_cfa_offset 16
 3977              		.cfi_offset 80, -16
 3978              		.loc 1 422 0
 3979 0006 B0EE408A 		fcpys	s16, s0
 3980              		.loc 1 423 0
 3981 000a FFF7FEFF 		bl	mc_interface_try_input
 3982              	.LVL337:
 3983 000e C0B9     		cbnz	r0, .L495
 3984              		.loc 1 427 0
 3985 0010 164B     		ldr	r3, .L503
 3986 0012 9A78     		ldrb	r2, [r3, #2]	@ zero_extendqisi2
 3987 0014 D2B2     		uxtb	r2, r2
 3988 0016 012A     		cmp	r2, #1
 3989 0018 16D9     		bls	.L497
 3990 001a 022A     		cmp	r2, #2
 3991 001c 11D1     		bne	.L495
 3992              		.loc 1 434 0
 3993 001e 93F85D31 		ldrb	r3, [r3, #349]	@ zero_extendqisi2
 3994 0022 B7EE000A 		fconsts	s0, #112
 3995 0026 002B     		cmp	r3, #0
 3996 0028 FFEE007A 		fconsts	s15, #240
 3997 002c 18BF     		it	ne
 3998 002e B0EE670A 		fcpysne	s0, s15
 3999 0032 20EE080A 		fmuls	s0, s0, s16
 4000              		.loc 1 440 0
 4001 0036 BDEC028B 		fldmfdd	sp!, {d8}
 4002              	.LVL338:
 4003 003a BDE80840 		pop	{r3, lr}
 4004              		.loc 1 434 0
 4005 003e FFF7FEBF 		b	mcpwm_foc_set_brake_current
 4006              	.LVL339:
 4007              	.L495:
 4008              		.loc 1 440 0
 4009 0042 BDEC028B 		fldmfdd	sp!, {d8}
 4010              	.LVL340:
 4011 0046 08BD     		pop	{r3, pc}
 4012              	.LVL341:
ARM GAS  /tmp/ccB9RVXV.s 			page 72


 4013              	.L497:
 4014              		.loc 1 430 0
 4015 0048 93F85D31 		ldrb	r3, [r3, #349]	@ zero_extendqisi2
 4016 004c B7EE000A 		fconsts	s0, #112
 4017 0050 002B     		cmp	r3, #0
 4018 0052 FFEE007A 		fconsts	s15, #240
 4019 0056 18BF     		it	ne
 4020 0058 B0EE670A 		fcpysne	s0, s15
 4021 005c 20EE080A 		fmuls	s0, s0, s16
 4022              		.loc 1 440 0
 4023 0060 BDEC028B 		fldmfdd	sp!, {d8}
 4024              	.LVL342:
 4025 0064 BDE80840 		pop	{r3, lr}
 4026              		.loc 1 430 0
 4027 0068 FFF7FEBF 		b	mcpwm_set_brake_current
 4028              	.LVL343:
 4029              	.L504:
 4030              		.align	2
 4031              	.L503:
 4032 006c 00000000 		.word	.LANCHOR12
 4033              		.cfi_endproc
 4034              	.LFE272:
 4035              		.size	mc_interface_set_brake_current, .-mc_interface_set_brake_current
 4036              		.section	.text.mc_interface_set_brake_current_rel,"ax",%progbits
 4037              		.align	2
 4038              		.p2align 4,,15
 4039              		.global	mc_interface_set_brake_current_rel
 4040              		.thumb
 4041              		.thumb_func
 4042              		.type	mc_interface_set_brake_current_rel, %function
 4043              	mc_interface_set_brake_current_rel:
 4044              	.LFB274:
 4045              		.loc 1 462 0
 4046              		.cfi_startproc
 4047              		@ args = 0, pretend = 0, frame = 0
 4048              		@ frame_needed = 0, uses_anonymous_args = 0
 4049              		@ link register save eliminated.
 4050              	.LVL344:
 4051              		.loc 1 463 0
 4052 0000 034B     		ldr	r3, .L506
 4053 0002 D3ED1D7A 		flds	s15, [r3, #116]
 4054 0006 27EE800A 		fmuls	s0, s15, s0
 4055              	.LVL345:
 4056 000a FFF7FEBF 		b	mc_interface_set_brake_current
 4057              	.LVL346:
 4058              	.L507:
 4059 000e 00BF     		.align	2
 4060              	.L506:
 4061 0010 00000000 		.word	.LANCHOR12
 4062              		.cfi_endproc
 4063              	.LFE274:
 4064              		.size	mc_interface_set_brake_current_rel, .-mc_interface_set_brake_current_rel
 4065 0014 AFF30080 		.section	.text.mc_interface_set_handbrake,"ax",%progbits
 4065      AFF30080 
 4065      AFF30080 
 4066              		.align	2
 4067              		.p2align 4,,15
ARM GAS  /tmp/ccB9RVXV.s 			page 73


 4068              		.global	mc_interface_set_handbrake
 4069              		.thumb
 4070              		.thumb_func
 4071              		.type	mc_interface_set_handbrake, %function
 4072              	mc_interface_set_handbrake:
 4073              	.LFB275:
 4074              		.loc 1 466 0
 4075              		.cfi_startproc
 4076              		@ args = 0, pretend = 0, frame = 0
 4077              		@ frame_needed = 0, uses_anonymous_args = 0
 4078              	.LVL347:
 4079 0000 08B5     		push	{r3, lr}
 4080              		.cfi_def_cfa_offset 8
 4081              		.cfi_offset 3, -8
 4082              		.cfi_offset 14, -4
 4083 0002 2DED028B 		fstmfdd	sp!, {d8}
 4084              		.cfi_def_cfa_offset 16
 4085              		.cfi_offset 80, -16
 4086              		.loc 1 466 0
 4087 0006 B0EE408A 		fcpys	s16, s0
 4088              		.loc 1 467 0
 4089 000a FFF7FEFF 		bl	mc_interface_try_input
 4090              	.LVL348:
 4091 000e 70B9     		cbnz	r0, .L508
 4092              		.loc 1 471 0
 4093 0010 0C4B     		ldr	r3, .L512
 4094 0012 9B78     		ldrb	r3, [r3, #2]	@ zero_extendqisi2
 4095 0014 DBB2     		uxtb	r3, r3
 4096 0016 012B     		cmp	r3, #1
 4097 0018 0CD9     		bls	.L510
 4098 001a 022B     		cmp	r3, #2
 4099 001c 07D1     		bne	.L508
 4100              		.loc 1 479 0
 4101 001e B0EE480A 		fcpys	s0, s16
 4102              		.loc 1 485 0
 4103 0022 BDEC028B 		fldmfdd	sp!, {d8}
 4104              	.LVL349:
 4105 0026 BDE80840 		pop	{r3, lr}
 4106              		.loc 1 479 0
 4107 002a FFF7FEBF 		b	mcpwm_foc_set_handbrake
 4108              	.LVL350:
 4109              	.L508:
 4110              		.loc 1 485 0
 4111 002e BDEC028B 		fldmfdd	sp!, {d8}
 4112              	.LVL351:
 4113 0032 08BD     		pop	{r3, pc}
 4114              	.LVL352:
 4115              	.L510:
 4116              		.loc 1 475 0
 4117 0034 B0EE480A 		fcpys	s0, s16
 4118              		.loc 1 485 0
 4119 0038 BDEC028B 		fldmfdd	sp!, {d8}
 4120              	.LVL353:
 4121 003c BDE80840 		pop	{r3, lr}
 4122              		.loc 1 475 0
 4123 0040 FFF7FEBF 		b	mcpwm_set_brake_current
 4124              	.LVL354:
ARM GAS  /tmp/ccB9RVXV.s 			page 74


 4125              	.L513:
 4126              		.align	2
 4127              	.L512:
 4128 0044 00000000 		.word	.LANCHOR12
 4129              		.cfi_endproc
 4130              	.LFE275:
 4131              		.size	mc_interface_set_handbrake, .-mc_interface_set_handbrake
 4132 0048 AFF30080 		.section	.text.mc_interface_fault_stop,"ax",%progbits
 4132      AFF30080 
 4133              		.align	2
 4134              		.p2align 4,,15
 4135              		.global	mc_interface_fault_stop
 4136              		.thumb
 4137              		.thumb_func
 4138              		.type	mc_interface_fault_stop, %function
 4139              	mc_interface_fault_stop:
 4140              	.LFB306:
 4141              		.loc 1 991 0
 4142              		.cfi_startproc
 4143              		@ args = 0, pretend = 0, frame = 0
 4144              		@ frame_needed = 0, uses_anonymous_args = 0
 4145              		@ link register save eliminated.
 4146              	.LVL355:
 4147              		.loc 1 992 0
 4148 0000 054B     		ldr	r3, .L519
 4149 0002 1B78     		ldrb	r3, [r3]	@ zero_extendqisi2
 4150 0004 8342     		cmp	r3, r0
 4151 0006 01D0     		beq	.L518
 4152 0008 FFF7FEBF 		b	mc_interface_fault_stop.part.1
 4153              	.LVL356:
 4154              	.L518:
 4155              		.loc 1 993 0
 4156 000c 034A     		ldr	r2, .L519+4
 4157 000e 044B     		ldr	r3, .L519+8
 4158 0010 D2F84C21 		ldr	r2, [r2, #332]
 4159 0014 1A60     		str	r2, [r3]
 4160              		.loc 1 994 0
 4161 0016 7047     		bx	lr
 4162              	.L520:
 4163              		.align	2
 4164              	.L519:
 4165 0018 00000000 		.word	.LANCHOR13
 4166 001c 00000000 		.word	.LANCHOR12
 4167 0020 00000000 		.word	.LANCHOR14
 4168              		.cfi_endproc
 4169              	.LFE306:
 4170              		.size	mc_interface_fault_stop, .-mc_interface_fault_stop
 4171 0024 AFF30080 		.section	.text.mc_interface_mc_timer_isr,"ax",%progbits
 4171      AFF30080 
 4171      AFF30080 
 4172              		.align	2
 4173              		.p2align 4,,15
 4174              		.global	mc_interface_mc_timer_isr
 4175              		.thumb
 4176              		.thumb_func
 4177              		.type	mc_interface_mc_timer_isr, %function
 4178              	mc_interface_mc_timer_isr:
ARM GAS  /tmp/ccB9RVXV.s 			page 75


 4179              	.LFB307:
 4180              		.loc 1 1047 0
 4181              		.cfi_startproc
 4182              		@ args = 0, pretend = 0, frame = 0
 4183              		@ frame_needed = 0, uses_anonymous_args = 0
 4184 0000 2DE9F843 		push	{r3, r4, r5, r6, r7, r8, r9, lr}
 4185              		.cfi_def_cfa_offset 32
 4186              		.cfi_offset 3, -32
 4187              		.cfi_offset 4, -28
 4188              		.cfi_offset 5, -24
 4189              		.cfi_offset 6, -20
 4190              		.cfi_offset 7, -16
 4191              		.cfi_offset 8, -12
 4192              		.cfi_offset 9, -8
 4193              		.cfi_offset 14, -4
 4194              		.loc 1 1050 0
 4195 0004 7D4E     		ldr	r6, .L612
 4196              		.loc 1 1054 0
 4197 0006 7E4D     		ldr	r5, .L612+4
 4198              		.loc 1 1047 0
 4199 0008 2DED048B 		fstmfdd	sp!, {d8, d9}
 4200              		.cfi_def_cfa_offset 48
 4201              		.cfi_offset 80, -48
 4202              		.cfi_offset 82, -40
 4203              		.loc 1 1048 0
 4204 000c FFF7FEFF 		bl	ledpwm_update_pwm
 4205              	.LVL357:
 4206              		.loc 1 1050 0
 4207 0010 338A     		ldrh	r3, [r6, #16]
 4208 0012 DFED7C6A 		flds	s13, .L612+8
 4209 0016 9FED7C7A 		flds	s14, .L612+12
 4210              		.loc 1 1054 0
 4211 001a D5ED0B7A 		flds	s15, [r5, #44]
 4212              		.loc 1 1050 0
 4213 001e 9BB2     		uxth	r3, r3
 4214 0020 06EE103A 		fmsr	s12, r3	@ int
 4215 0024 B8EE469A 		fuitos	s18, s12
 4216 0028 29EE269A 		fmuls	s18, s18, s13
 4217 002c 29EE079A 		fmuls	s18, s18, s14
 4218              	.LVL358:
 4219              		.loc 1 1054 0
 4220 0030 B4EEE79A 		fcmpes	s18, s15
 4221 0034 F1EE10FA 		fmstat
 4222 0038 07D4     		bmi	.L522
 4223              		.loc 1 1055 0 discriminator 1
 4224 003a D5ED0C7A 		flds	s15, [r5, #48]
 4225              		.loc 1 1054 0 discriminator 1
 4226 003e B4EEE79A 		fcmpes	s18, s15
 4227 0042 F1EE10FA 		fmstat
 4228 0046 40F3AA81 		ble	.L589
 4229              	.L522:
 4230              		.loc 1 1056 0
 4231 004a 704A     		ldr	r2, .L612+16
 4232 004c 1368     		ldr	r3, [r2]
 4233 004e 0133     		adds	r3, r3, #1
 4234              		.loc 1 1058 0
 4235 0050 072B     		cmp	r3, #7
ARM GAS  /tmp/ccB9RVXV.s 			page 76


 4236              		.loc 1 1056 0
 4237 0052 1360     		str	r3, [r2]
 4238              		.loc 1 1058 0
 4239 0054 00F39381 		bgt	.L598
 4240              	.L525:
 4241              		.loc 1 1066 0
 4242 0058 FFF7FEFF 		bl	mc_interface_get_state
 4243              	.LVL359:
 4244              		.loc 1 1067 0
 4245 005c 6C4B     		ldr	r3, .L612+20
 4246              		.loc 1 1066 0
 4247 005e 0228     		cmp	r0, #2
 4248              		.loc 1 1067 0
 4249 0060 0ABF     		itet	eq
 4250 0062 1A68     		ldreq	r2, [r3]
 4251              		.loc 1 1069 0
 4252 0064 0022     		movne	r2, #0
 4253              		.loc 1 1067 0
 4254 0066 0132     		addeq	r2, r2, #1
 4255              		.loc 1 1069 0
 4256 0068 1A60     		str	r2, [r3]
 4257              		.loc 1 1072 0
 4258 006a 6A4B     		ldr	r3, .L612+24
 4259 006c 1B68     		ldr	r3, [r3]
 4260 006e 03B1     		cbz	r3, .L531
 4261              		.loc 1 1073 0
 4262 0070 9847     		blx	r3
 4263              	.LVL360:
 4264              	.L531:
 4265              		.loc 1 1076 0
 4266 0072 FFF7FEFF 		bl	mc_interface_get_tot_current_filtered
 4267              	.LVL361:
 4268 0076 F0EE408A 		fcpys	s17, s0
 4269              	.LVL362:
 4270              		.loc 1 1077 0
 4271 007a FFF7FEFF 		bl	mc_interface_get_tot_current_in_filtered
 4272              	.LVL363:
 4273              		.loc 1 1078 0
 4274 007e 6648     		ldr	r0, .L612+28
 4275              		.loc 1 1079 0
 4276 0080 6649     		ldr	r1, .L612+32
 4277              		.loc 1 1078 0
 4278 0082 D0ED007A 		flds	s15, [r0]
 4279              		.loc 1 1080 0
 4280 0086 664A     		ldr	r2, .L612+36
 4281              		.loc 1 1081 0
 4282 0088 664B     		ldr	r3, .L612+40
 4283              		.loc 1 1078 0
 4284 008a 77EEA87A 		fadds	s15, s15, s17
 4285              		.loc 1 1080 0
 4286 008e B7EE008A 		fconsts	s16, #112
 4287              		.loc 1 1078 0
 4288 0092 C0ED007A 		fsts	s15, [r0]
 4289              		.loc 1 1079 0
 4290 0096 D1ED007A 		flds	s15, [r1]
 4291 009a 77EE807A 		fadds	s15, s15, s0
 4292              		.loc 1 1077 0
ARM GAS  /tmp/ccB9RVXV.s 			page 77


 4293 009e F0EE409A 		fcpys	s19, s0
 4294              	.LVL364:
 4295              		.loc 1 1079 0
 4296 00a2 C1ED007A 		fsts	s15, [r1]
 4297              		.loc 1 1080 0
 4298 00a6 D2ED007A 		flds	s15, [r2]
 4299 00aa 77EE887A 		fadds	s15, s15, s16
 4300 00ae C2ED007A 		fsts	s15, [r2]
 4301              		.loc 1 1081 0
 4302 00b2 D3ED007A 		flds	s15, [r3]
 4303 00b6 77EE887A 		fadds	s15, s15, s16
 4304 00ba C3ED007A 		fsts	s15, [r3]
 4305              		.loc 1 1083 0
 4306 00be FFF7FEFF 		bl	mcpwm_foc_get_id
 4307              	.LVL365:
 4308 00c2 594B     		ldr	r3, .L612+44
 4309 00c4 D3ED007A 		flds	s15, [r3]
 4310 00c8 30EE270A 		fadds	s0, s0, s15
 4311 00cc 83ED000A 		fsts	s0, [r3]
 4312              		.loc 1 1084 0
 4313 00d0 FFF7FEFF 		bl	mcpwm_foc_get_iq
 4314              	.LVL366:
 4315 00d4 5549     		ldr	r1, .L612+48
 4316              		.loc 1 1085 0
 4317 00d6 564A     		ldr	r2, .L612+52
 4318              		.loc 1 1084 0
 4319 00d8 D1ED007A 		flds	s15, [r1]
 4320              		.loc 1 1086 0
 4321 00dc 554B     		ldr	r3, .L612+56
 4322              		.loc 1 1084 0
 4323 00de 30EE270A 		fadds	s0, s0, s15
 4324 00e2 81ED000A 		fsts	s0, [r1]
 4325              		.loc 1 1085 0
 4326 00e6 D2ED007A 		flds	s15, [r2]
 4327 00ea 77EE887A 		fadds	s15, s15, s16
 4328 00ee C2ED007A 		fsts	s15, [r2]
 4329              		.loc 1 1086 0
 4330 00f2 D3ED007A 		flds	s15, [r3]
 4331 00f6 37EE888A 		fadds	s16, s15, s16
 4332 00fa 83ED008A 		fsts	s16, [r3]
 4333              		.loc 1 1088 0
 4334 00fe FFF7FEFF 		bl	mc_interface_get_tot_current
 4335              	.LVL367:
 4336              		.loc 1 1090 0
 4337 0102 AB78     		ldrb	r3, [r5, #2]	@ zero_extendqisi2
 4338 0104 022B     		cmp	r3, #2
 4339              		.loc 1 1088 0
 4340 0106 B0EE408A 		fcpys	s16, s0
 4341              	.LVL368:
 4342              		.loc 1 1090 0
 4343 010a 00F0CE81 		beq	.L599
 4344              		.loc 1 1089 0
 4345 010e B0EE680A 		fcpys	s0, s17
 4346              	.LVL369:
 4347              	.L532:
 4348              		.loc 1 1097 0
 4349 0112 95F83C20 		ldrb	r2, [r5, #60]	@ zero_extendqisi2
ARM GAS  /tmp/ccB9RVXV.s 			page 78


 4350 0116 3A4B     		ldr	r3, .L612+4
 4351              		.loc 1 1098 0
 4352 0118 D3ED057A 		flds	s15, [r3, #20]
 4353              		.loc 1 1097 0
 4354 011c 002A     		cmp	r2, #0
 4355 011e 5DD0     		beq	.L533
 4356              		.loc 1 1098 0
 4357 0120 B0EEC00A 		fabss	s0, s0
 4358              	.LVL370:
 4359 0124 B4EEE70A 		fcmpes	s0, s15
 4360 0128 F1EE10FA 		fmstat
 4361 012c 5DDC     		bgt	.L594
 4362              	.LVL371:
 4363              	.L534:
 4364              		.loc 1 1108 0
 4365 012e 424B     		ldr	r3, .L612+60
 4366 0130 1B69     		ldr	r3, [r3, #16]
 4367 0132 DB04     		lsls	r3, r3, #19
 4368 0134 07D4     		bmi	.L538
 4369              	.LVL372:
 4370              	.LBB159:
 4371              	.LBB160:
 4372              		.loc 1 992 0
 4373 0136 414B     		ldr	r3, .L612+64
 4374 0138 1B78     		ldrb	r3, [r3]	@ zero_extendqisi2
 4375 013a 032B     		cmp	r3, #3
 4376 013c 00F0A281 		beq	.L600
 4377 0140 0320     		movs	r0, #3
 4378 0142 FFF7FEFF 		bl	mc_interface_fault_stop.part.1
 4379              	.LVL373:
 4380              	.L538:
 4381              	.LBE160:
 4382              	.LBE159:
 4383              		.loc 1 1113 0
 4384 0146 FFF7FEFF 		bl	mc_interface_get_sampling_frequency_now
 4385              	.LVL374:
 4386              		.loc 1 1114 0
 4387 014a F0EEE88A 		fabss	s17, s17
 4388              	.LVL375:
 4389 014e F7EE007A 		fconsts	s15, #112
 4390 0152 F4EEE78A 		fcmpes	s17, s15
 4391 0156 F1EE10FA 		fmstat
 4392              		.loc 1 1113 0
 4393 015a B0EE408A 		fcpys	s16, s0
 4394              	.LVL376:
 4395              		.loc 1 1114 0
 4396 015e 2FDD     		ble	.L541
 4397              	.LBB162:
 4398              		.loc 1 1120 0
 4399 0160 C7EE807A 		fdivs	s15, s15, s0
 4400 0164 364A     		ldr	r2, .L612+68
 4401              		.loc 1 1119 0
 4402 0166 374B     		ldr	r3, .L612+72
 4403 0168 C9EE809A 		fdivs	s19, s19, s0
 4404              	.LVL377:
 4405              		.loc 1 1120 0
 4406 016c D2ED006A 		flds	s13, [r2]
ARM GAS  /tmp/ccB9RVXV.s 			page 79


 4407              		.loc 1 1119 0
 4408 0170 93ED006A 		flds	s12, [r3]
 4409              		.loc 1 1122 0
 4410 0174 9FED347A 		flds	s14, .L612+76
 4411              		.loc 1 1120 0
 4412 0178 77EEA67A 		fadds	s15, s15, s13
 4413              		.loc 1 1119 0
 4414 017c 79EE869A 		fadds	s19, s19, s12
 4415              		.loc 1 1122 0
 4416 0180 F4EEC77A 		fcmpes	s15, s14
 4417 0184 F1EE10FA 		fmstat
 4418              		.loc 1 1119 0
 4419 0188 C3ED009A 		fsts	s19, [r3]
 4420              		.loc 1 1120 0
 4421 018c C2ED007A 		fsts	s15, [r2]
 4422              		.loc 1 1122 0
 4423 0190 16DB     		blt	.L541
 4424              		.loc 1 1123 0
 4425 0192 F5EEC09A 		fcmpezs	s19
 4426 0196 F1EE10FA 		fmstat
 4427 019a 40F38D81 		ble	.L590
 4428              		.loc 1 1124 0
 4429 019e 2B48     		ldr	r0, .L612+80
 4430              		.loc 1 1125 0
 4431 01a0 2B49     		ldr	r1, .L612+84
 4432              		.loc 1 1124 0
 4433 01a2 D0ED007A 		flds	s15, [r0]
 4434 01a6 79EEA77A 		fadds	s15, s19, s15
 4435 01aa C0ED007A 		fsts	s15, [r0]
 4436              		.loc 1 1125 0
 4437 01ae D1ED007A 		flds	s15, [r1]
 4438 01b2 E9EE297A 		vfma.f32	s15, s18, s19
 4439 01b6 C1ED007A 		fsts	s15, [r1]
 4440              	.L546:
 4441              		.loc 1 1131 0
 4442 01ba 0021     		movs	r1, #0
 4443 01bc 1160     		str	r1, [r2]	@ float
 4444              		.loc 1 1132 0
 4445 01be 1960     		str	r1, [r3]	@ float
 4446              	.L541:
 4447              	.LVL378:
 4448              	.LBE162:
 4449              		.loc 1 1138 0
 4450 01c0 244F     		ldr	r7, .L612+88
 4451 01c2 3B78     		ldrb	r3, [r7]	@ zero_extendqisi2
 4452 01c4 013B     		subs	r3, r3, #1
 4453 01c6 052B     		cmp	r3, #5
 4454 01c8 00F2D580 		bhi	.L521
 4455 01cc DFE813F0 		tbh	[pc, r3, lsl #1]
 4456              	.L549:
 4457 01d0 4400     		.2byte	(.L548-.L549)/2
 4458 01d2 2D01     		.2byte	(.L550-.L549)/2
 4459 01d4 1101     		.2byte	(.L551-.L549)/2
 4460 01d6 EB00     		.2byte	(.L552-.L549)/2
 4461 01d8 1101     		.2byte	(.L551-.L549)/2
 4462 01da EB00     		.2byte	(.L552-.L549)/2
 4463              	.LVL379:
ARM GAS  /tmp/ccB9RVXV.s 			page 80


 4464              		.p2align 1
 4465              	.L533:
 4466              		.loc 1 1102 0
 4467 01dc B0EEC88A 		fabss	s16, s16
 4468              	.LVL380:
 4469 01e0 B4EEE78A 		fcmpes	s16, s15
 4470 01e4 F1EE10FA 		fmstat
 4471 01e8 A1DD     		ble	.L534
 4472              	.LVL381:
 4473              	.L594:
 4474              	.LBB163:
 4475              	.LBB164:
 4476              		.loc 1 992 0
 4477 01ea 144A     		ldr	r2, .L612+64
 4478 01ec 1278     		ldrb	r2, [r2]	@ zero_extendqisi2
 4479 01ee 042A     		cmp	r2, #4
 4480 01f0 00F04381 		beq	.L601
 4481              	.LBE164:
 4482              	.LBE163:
 4483              	.LBB166:
 4484              	.LBB167:
 4485 01f4 0420     		movs	r0, #4
 4486 01f6 FFF7FEFF 		bl	mc_interface_fault_stop.part.1
 4487              	.LVL382:
 4488 01fa 98E7     		b	.L534
 4489              	.L613:
 4490              		.align	2
 4491              	.L612:
 4492 01fc 00000000 		.word	.LANCHOR41
 4493 0200 00000000 		.word	.LANCHOR12
 4494 0204 6740533A 		.word	978534503
 4495 0208 74D19541 		.word	1100337524
 4496 020c 00000000 		.word	.LANCHOR42
 4497 0210 00000000 		.word	.LANCHOR15
 4498 0214 00000000 		.word	.LANCHOR39
 4499 0218 00000000 		.word	.LANCHOR18
 4500 021c 00000000 		.word	.LANCHOR19
 4501 0220 00000000 		.word	.LANCHOR20
 4502 0224 00000000 		.word	.LANCHOR21
 4503 0228 00000000 		.word	.LANCHOR22
 4504 022c 00000000 		.word	.LANCHOR23
 4505 0230 00000000 		.word	.LANCHOR24
 4506 0234 00000000 		.word	.LANCHOR25
 4507 0238 00080240 		.word	1073874944
 4508 023c 00000000 		.word	.LANCHOR13
 4509 0240 00000000 		.word	.LANCHOR44
 4510 0244 00000000 		.word	.LANCHOR43
 4511 0248 0AD7233C 		.word	1008981770
 4512 024c 00000000 		.word	.LANCHOR26
 4513 0250 00000000 		.word	.LANCHOR28
 4514 0254 00000000 		.word	.LANCHOR36
 4515              	.LVL383:
 4516              	.L548:
 4517              	.LBE167:
 4518              	.LBE166:
 4519              		.loc 1 1140 0
 4520 0258 AC4C     		ldr	r4, .L614
ARM GAS  /tmp/ccB9RVXV.s 			page 81


 4521 025a AD4B     		ldr	r3, .L614+4
 4522 025c 2268     		ldr	r2, [r4]
 4523 025e 1B68     		ldr	r3, [r3]
 4524 0260 9A42     		cmp	r2, r3
 4525 0262 00F0F581 		beq	.L553
 4526              	.LVL384:
 4527              	.L564:
 4528              	.LBB168:
 4529              		.loc 1 1231 0
 4530 0266 AB4B     		ldr	r3, .L614+8
 4531              		.loc 1 1233 0
 4532 0268 AB49     		ldr	r1, .L614+12
 4533              		.loc 1 1231 0
 4534 026a 1A68     		ldr	r2, [r3]
 4535              		.loc 1 1233 0
 4536 026c 0968     		ldr	r1, [r1]
 4537              		.loc 1 1231 0
 4538 026e 0132     		adds	r2, r2, #1
 4539              		.loc 1 1233 0
 4540 0270 8A42     		cmp	r2, r1
 4541              		.loc 1 1231 0
 4542 0272 1A60     		str	r2, [r3]
 4543              		.loc 1 1233 0
 4544 0274 7FDB     		blt	.L521
 4545              	.LBB169:
 4546              		.loc 1 1236 0
 4547 0276 2168     		ldr	r1, [r4]
 4548 0278 A448     		ldr	r0, .L614
 4549              		.loc 1 1234 0
 4550 027a 0022     		movs	r2, #0
 4551              		.loc 1 1236 0
 4552 027c B1F5FA6F 		cmp	r1, #2000
 4553              		.loc 1 1237 0
 4554 0280 A8BF     		it	ge
 4555 0282 0260     		strge	r2, [r0]
 4556              		.loc 1 1234 0
 4557 0284 1A60     		str	r2, [r3]
 4558              		.loc 1 1241 0
 4559 0286 AB78     		ldrb	r3, [r5, #2]	@ zero_extendqisi2
 4560 0288 022B     		cmp	r3, #2
 4561 028a 00F0BF81 		beq	.L602
 4562              		.loc 1 1248 0
 4563 028e A34B     		ldr	r3, .L614+16
 4564              		.loc 1 1249 0
 4565 0290 A34D     		ldr	r5, .L614+20
 4566              		.loc 1 1248 0
 4567 0292 1F68     		ldr	r7, [r3]
 4568              		.loc 1 1249 0
 4569 0294 2368     		ldr	r3, [r4]
 4570 0296 2B44     		add	r3, r3, r5
 4571 0298 0022     		movs	r2, #0
 4572              		.loc 1 1248 0
 4573 029a BFB2     		uxth	r7, r7
 4574              	.LVL385:
 4575              		.loc 1 1249 0
 4576 029c 83F8082E 		strb	r2, [r3, #3592]
 4577              	.LVL386:
ARM GAS  /tmp/ccB9RVXV.s 			page 82


 4578              	.L568:
 4579              		.loc 1 1252 0
 4580 02a0 FFF7FEFF 		bl	mc_interface_get_state
 4581              	.LVL387:
 4582 02a4 0128     		cmp	r0, #1
 4583 02a6 00F06181 		beq	.L603
 4584              		.loc 1 1260 0
 4585 02aa 9E4A     		ldr	r2, .L614+24
 4586 02ac 2168     		ldr	r1, [r4]
 4587 02ae D2F80080 		ldr	r8, [r2]
 4588 02b2 9D4B     		ldr	r3, .L614+28
 4589              		.loc 1 1263 0
 4590 02b4 DFF8B0C2 		ldr	ip, .L614+92
 4591              		.loc 1 1264 0
 4592 02b8 DFF8A8E2 		ldr	lr, .L614+88
 4593              		.loc 1 1265 0
 4594 02bc 9B48     		ldr	r0, .L614+32
 4595              		.loc 1 1260 0
 4596 02be 1FFA88F8 		uxth	r8, r8
 4597 02c2 23F81180 		strh	r8, [r3, r1, lsl #1]	@ movhi
 4598              		.loc 1 1261 0
 4599 02c6 2168     		ldr	r1, [r4]
 4600 02c8 5268     		ldr	r2, [r2, #4]
 4601 02ca 03EB4103 		add	r3, r3, r1, lsl #1
 4602 02ce 92B2     		uxth	r2, r2
 4603 02d0 A3F8A02F 		strh	r2, [r3, #4000]	@ movhi
 4604              		.loc 1 1263 0
 4605 02d4 2268     		ldr	r2, [r4]
 4606 02d6 B188     		ldrh	r1, [r6, #4]
 4607 02d8 BBB2     		uxth	r3, r7
 4608 02da 0CEB4202 		add	r2, ip, r2, lsl #1
 4609 02de C91A     		subs	r1, r1, r3
 4610 02e0 89B2     		uxth	r1, r1
 4611 02e2 A2F8481E 		strh	r1, [r2, #3656]	@ movhi
 4612              		.loc 1 1264 0
 4613 02e6 2268     		ldr	r2, [r4]
 4614 02e8 7188     		ldrh	r1, [r6, #2]
 4615 02ea 0EEB4202 		add	r2, lr, r2, lsl #1
 4616 02ee C91A     		subs	r1, r1, r3
 4617 02f0 89B2     		uxth	r1, r1
 4618 02f2 A2F8F01C 		strh	r1, [r2, #3312]	@ movhi
 4619              		.loc 1 1265 0
 4620 02f6 2268     		ldr	r2, [r4]
 4621 02f8 3188     		ldrh	r1, [r6]
 4622 02fa 00EB4202 		add	r2, r0, r2, lsl #1
 4623 02fe CB1A     		subs	r3, r1, r3
 4624 0300 9BB2     		uxth	r3, r3
 4625 0302 A2F8983B 		strh	r3, [r2, #2968]	@ movhi
 4626              	.L570:
 4627              		.loc 1 1268 0
 4628 0306 2268     		ldr	r2, [r4]
 4629 0308 894B     		ldr	r3, .L614+36
 4630 030a 03EB4203 		add	r3, r3, r2, lsl #1
 4631 030e A3F8407A 		strh	r7, [r3, #2624]	@ movhi
 4632              		.loc 1 1269 0
 4633 0312 2668     		ldr	r6, [r4]
 4634 0314 FFF7FEFF 		bl	mc_interface_get_tot_current
ARM GAS  /tmp/ccB9RVXV.s 			page 83


 4635              	.LVL388:
 4636              		.loc 1 1270 0
 4637 0318 F2EE047A 		fconsts	s15, #36
 4638 031c 88EE278A 		fdivs	s16, s16, s15
 4639              	.LVL389:
 4640              		.loc 1 1269 0
 4641 0320 844A     		ldr	r2, .L614+40
 4642              		.loc 1 1270 0
 4643 0322 854B     		ldr	r3, .L614+44
 4644              		.loc 1 1269 0
 4645 0324 02EB4606 		add	r6, r2, r6, lsl #1
 4646 0328 DFED847A 		flds	s15, .L614+48
 4647 032c 20EE270A 		fmuls	s0, s0, s15
 4648              		.loc 1 1270 0
 4649 0330 BDEEC88A 		ftosizs	s16, s16
 4650              		.loc 1 1269 0
 4651 0334 BDEEC00A 		ftosizs	s0, s0
 4652              		.loc 1 1270 0
 4653 0338 18EE102A 		fmrs	r2, s16	@ int
 4654              		.loc 1 1269 0
 4655 033c 10EE101A 		fmrs	r1, s0	@ int
 4656 0340 89B2     		uxth	r1, r1
 4657 0342 A6F8E818 		strh	r1, [r6, #2280]	@ movhi
 4658              		.loc 1 1270 0
 4659 0346 2168     		ldr	r1, [r4]
 4660 0348 03EB4103 		add	r3, r3, r1, lsl #1
 4661 034c 92B2     		uxth	r2, r2
 4662 034e A3F89027 		strh	r2, [r3, #1936]	@ movhi
 4663              		.loc 1 1271 0
 4664 0352 2668     		ldr	r6, [r4]
 4665 0354 FFF7FEFF 		bl	mcpwm_get_comm_step
 4666              	.LVL390:
 4667 0358 0746     		mov	r7, r0
 4668              	.LVL391:
 4669 035a FFF7FEFF 		bl	mcpwm_read_hall_phase
 4670              	.LVL392:
 4671 035e 3544     		add	r5, r5, r6
 4672 0360 47EAC000 		orr	r0, r7, r0, lsl #3
 4673 0364 C7B2     		uxtb	r7, r0
 4674 0366 85F83876 		strb	r7, [r5, #1592]
 4675              		.loc 1 1273 0
 4676 036a 2268     		ldr	r2, [r4]
 4677              	.LBB170:
 4678              	.LBB171:
 4679              		.loc 1 902 0
 4680 036c 744B     		ldr	r3, .L614+52
 4681              	.LBE171:
 4682              	.LBE170:
 4683              		.loc 1 1273 0
 4684 036e 0132     		adds	r2, r2, #1
 4685 0370 2260     		str	r2, [r4]
 4686              	.LBB173:
 4687              	.LBB172:
 4688              		.loc 1 902 0
 4689 0372 1A68     		ldr	r2, [r3]	@ float
 4690              	.LBE172:
 4691              	.LBE173:
ARM GAS  /tmp/ccB9RVXV.s 			page 84


 4692              		.loc 1 1275 0
 4693 0374 1A60     		str	r2, [r3]	@ float
 4694              	.L521:
 4695              	.LBE169:
 4696              	.LBE168:
 4697              		.loc 1 1278 0
 4698 0376 BDEC048B 		fldmfdd	sp!, {d8-d9}
 4699              	.LVL393:
 4700 037a BDE8F883 		pop	{r3, r4, r5, r6, r7, r8, r9, pc}
 4701              	.LVL394:
 4702              	.L598:
 4703              		.loc 1 1059 0
 4704 037e D5ED0B7A 		flds	s15, [r5, #44]
 4705              	.LBB175:
 4706              	.LBB176:
 4707              		.loc 1 992 0
 4708 0382 704B     		ldr	r3, .L614+56
 4709              	.LBE176:
 4710              	.LBE175:
 4711              		.loc 1 1059 0
 4712 0384 B4EEE79A 		fcmpes	s18, s15
 4713 0388 F1EE10FA 		fmstat
 4714              	.LBB180:
 4715              	.LBB177:
 4716              		.loc 1 992 0
 4717 038c 1B78     		ldrb	r3, [r3]	@ zero_extendqisi2
 4718              	.LBE177:
 4719              	.LBE180:
 4720              		.loc 1 1059 0
 4721 038e 4CBF     		ite	mi
 4722 0390 0220     		movmi	r0, #2
 4723 0392 0120     		movpl	r0, #1
 4724              	.LVL395:
 4725              	.LBB181:
 4726              	.LBB178:
 4727              		.loc 1 992 0
 4728 0394 8342     		cmp	r3, r0
 4729 0396 7AD0     		beq	.L604
 4730 0398 FFF7FEFF 		bl	mc_interface_fault_stop.part.1
 4731              	.LVL396:
 4732 039c 5CE6     		b	.L525
 4733              	.L589:
 4734              	.LBE178:
 4735              	.LBE181:
 4736              		.loc 1 1063 0
 4737 039e 6A4B     		ldr	r3, .L614+60
 4738 03a0 0022     		movs	r2, #0
 4739 03a2 1A60     		str	r2, [r3]
 4740 03a4 58E6     		b	.L525
 4741              	.LVL397:
 4742              	.L552:
 4743              	.LBB182:
 4744              		.loc 1 1200 0
 4745 03a6 DFF8A481 		ldr	r8, .L614+64
 4746 03aa D8F80030 		ldr	r3, [r8]
 4747 03ae 002B     		cmp	r3, #0
 4748 03b0 78DB     		blt	.L576
ARM GAS  /tmp/ccB9RVXV.s 			page 85


 4749              		.loc 1 1201 0
 4750 03b2 574B     		ldr	r3, .L614+4
 4751 03b4 D8F80020 		ldr	r2, [r8]
 4752 03b8 1B68     		ldr	r3, [r3]
 4753              	.LVL398:
 4754              		.loc 1 1202 0
 4755 03ba D31A     		subs	r3, r2, r3
 4756              	.LVL399:
 4757 03bc 00F16F81 		bmi	.L605
 4758              	.LVL400:
 4759              	.L561:
 4760              		.loc 1 1207 0
 4761 03c0 524C     		ldr	r4, .L614
 4762 03c2 2268     		ldr	r2, [r4]
 4763 03c4 9A42     		cmp	r2, r3
 4764 03c6 00F08680 		beq	.L606
 4765              		.loc 1 1197 0
 4766 03ca 4FF00109 		mov	r9, #1
 4767              	.LVL401:
 4768              	.L562:
 4769              		.loc 1 1220 0
 4770 03ce 5D4B     		ldr	r3, .L614+56
 4771 03d0 1B78     		ldrb	r3, [r3]	@ zero_extendqisi2
 4772 03d2 33B1     		cbz	r3, .L557
 4773              	.LVL402:
 4774              	.L596:
 4775              		.loc 1 1220 0 is_stmt 0 discriminator 1
 4776 03d4 D8F80030 		ldr	r3, [r8]
 4777 03d8 5C4A     		ldr	r2, .L614+64
 4778 03da 002B     		cmp	r3, #0
 4779              		.loc 1 1221 0 is_stmt 1 discriminator 1
 4780 03dc BCBF     		itt	lt
 4781 03de 2368     		ldrlt	r3, [r4]
 4782 03e0 1360     		strlt	r3, [r2]
 4783              	.L557:
 4784              	.LVL403:
 4785              	.LBE182:
 4786              		.loc 1 1229 0
 4787 03e2 B9F1000F 		cmp	r9, #0
 4788 03e6 7FF43EAF 		bne	.L564
 4789              	.LVL404:
 4790              	.L609:
 4791              		.loc 1 1278 0
 4792 03ea BDEC048B 		fldmfdd	sp!, {d8-d9}
 4793              	.LVL405:
 4794 03ee BDE8F883 		pop	{r3, r4, r5, r6, r7, r8, r9, pc}
 4795              	.LVL406:
 4796              	.L551:
 4797              	.LBB193:
 4798              		.loc 1 1170 0
 4799 03f2 DFF85881 		ldr	r8, .L614+64
 4800 03f6 D8F80030 		ldr	r3, [r8]
 4801 03fa 002B     		cmp	r3, #0
 4802 03fc 4FDB     		blt	.L574
 4803              		.loc 1 1171 0
 4804 03fe 444B     		ldr	r3, .L614+4
 4805 0400 D8F80020 		ldr	r2, [r8]
ARM GAS  /tmp/ccB9RVXV.s 			page 86


 4806 0404 1B68     		ldr	r3, [r3]
 4807              	.LVL407:
 4808              		.loc 1 1172 0
 4809 0406 D31A     		subs	r3, r2, r3
 4810              	.LVL408:
 4811 0408 00F14C81 		bmi	.L607
 4812              	.LVL409:
 4813              	.L558:
 4814              		.loc 1 1177 0
 4815 040c 3F4C     		ldr	r4, .L614
 4816 040e 2268     		ldr	r2, [r4]
 4817 0410 9A42     		cmp	r2, r3
 4818 0412 6DD0     		beq	.L608
 4819              		.loc 1 1167 0
 4820 0414 4FF00109 		mov	r9, #1
 4821              	.LVL410:
 4822              	.L559:
 4823              		.loc 1 1190 0
 4824 0418 FFF7FEFF 		bl	mc_interface_get_state
 4825              	.LVL411:
 4826 041c 0228     		cmp	r0, #2
 4827 041e D9D0     		beq	.L596
 4828              	.LBE193:
 4829              		.loc 1 1229 0
 4830 0420 B9F1000F 		cmp	r9, #0
 4831 0424 7FF41FAF 		bne	.L564
 4832 0428 DFE7     		b	.L609
 4833              	.LVL412:
 4834              	.L550:
 4835              		.loc 1 1152 0
 4836 042a FFF7FEFF 		bl	mc_interface_get_state
 4837              	.LVL413:
 4838 042e 0228     		cmp	r0, #2
 4839 0430 364C     		ldr	r4, .L614
 4840 0432 31D0     		beq	.L573
 4841              		.loc 1 1152 0 is_stmt 0 discriminator 1
 4842 0434 2368     		ldr	r3, [r4]
 4843 0436 002B     		cmp	r3, #0
 4844 0438 D4BF     		ite	le
 4845 043a 4FF00009 		movle	r9, #0
 4846 043e 4FF00109 		movgt	r9, #1
 4847              	.L556:
 4848              	.LVL414:
 4849              		.loc 1 1156 0 is_stmt 1
 4850 0442 334B     		ldr	r3, .L614+4
 4851 0444 2268     		ldr	r2, [r4]
 4852 0446 1B68     		ldr	r3, [r3]
 4853 0448 9A42     		cmp	r2, r3
 4854 044a CAD1     		bne	.L557
 4855              		.loc 1 1157 0
 4856 044c 3A78     		ldrb	r2, [r7]	@ zero_extendqisi2
 4857 044e 404B     		ldr	r3, .L614+68
 4858 0450 D2B2     		uxtb	r2, r2
 4859              		.loc 1 1158 0
 4860 0452 4FF00008 		mov	r8, #0
 4861              		.loc 1 1157 0
 4862 0456 1A70     		strb	r2, [r3]
ARM GAS  /tmp/ccB9RVXV.s 			page 87


 4863              	.LBB204:
 4864              	.LBB205:
 4865              	.LBB206:
 4866              	.LBB207:
 4867              	.LBB208:
 4868              		.file 3 "ChibiOS_3.0.2/os/ext/CMSIS/include/core_cmFunc.h"
 4869              		.loc 3 546 0
 4870 0458 2023     		movs	r3, #32
 4871              	.LBE208:
 4872              	.LBE207:
 4873              	.LBE206:
 4874              	.LBE205:
 4875              	.LBE204:
 4876              		.loc 1 1158 0
 4877 045a 87F80080 		strb	r8, [r7]
 4878              	.LVL415:
 4879              	.LBB213:
 4880              	.LBB212:
 4881              	.LBB211:
 4882              	.LBB210:
 4883              	.LBB209:
 4884              		.loc 3 546 0
 4885              	@ 546 "ChibiOS_3.0.2/os/ext/CMSIS/include/core_cmFunc.h" 1
 4886 045e 83F31188 		MSR basepri, r3
 4887              	@ 0 "" 2
 4888              		.thumb
 4889              	.LBE209:
 4890              	.LBE210:
 4891              	.LBE211:
 4892              	.LBE212:
 4893              	.LBE213:
 4894              		.loc 1 1160 0
 4895 0462 3C4B     		ldr	r3, .L614+72
 4896 0464 0121     		movs	r1, #1
 4897 0466 1868     		ldr	r0, [r3]
 4898 0468 FFF7FEFF 		bl	chEvtSignalI
 4899              	.LVL416:
 4900              	.LBB214:
 4901              	.LBB215:
 4902              	.LBB216:
 4903              	.LBB217:
 4904              	.LBB218:
 4905              		.loc 3 546 0
 4906              	@ 546 "ChibiOS_3.0.2/os/ext/CMSIS/include/core_cmFunc.h" 1
 4907 046c 88F31188 		MSR basepri, r8
 4908              	@ 0 "" 2
 4909              		.thumb
 4910              	.LBE218:
 4911              	.LBE217:
 4912              	.LBE216:
 4913              	.LBE215:
 4914              	.LBE214:
 4915              		.loc 1 1229 0
 4916 0470 B9F1000F 		cmp	r9, #0
 4917 0474 7FF4F7AE 		bne	.L564
 4918 0478 B7E7     		b	.L609
 4919              	.LVL417:
ARM GAS  /tmp/ccB9RVXV.s 			page 88


 4920              	.L601:
 4921              	.LBB219:
 4922              	.LBB165:
 4923              		.loc 1 993 0
 4924 047a 374A     		ldr	r2, .L614+76
 4925 047c D3F84C31 		ldr	r3, [r3, #332]
 4926 0480 1360     		str	r3, [r2]
 4927 0482 54E6     		b	.L534
 4928              	.LVL418:
 4929              	.L600:
 4930              	.LBE165:
 4931              	.LBE219:
 4932              	.LBB220:
 4933              	.LBB161:
 4934 0484 344B     		ldr	r3, .L614+76
 4935 0486 D5F84C21 		ldr	r2, [r5, #332]
 4936 048a 1A60     		str	r2, [r3]
 4937 048c 5BE6     		b	.L538
 4938              	.LVL419:
 4939              	.L604:
 4940              	.LBE161:
 4941              	.LBE220:
 4942              	.LBB221:
 4943              	.LBB179:
 4944 048e 324B     		ldr	r3, .L614+76
 4945 0490 D5F84C21 		ldr	r2, [r5, #332]
 4946 0494 1A60     		str	r2, [r3]
 4947 0496 DFE5     		b	.L525
 4948              	.LVL420:
 4949              	.L573:
 4950              	.LBE179:
 4951              	.LBE221:
 4952              		.loc 1 1153 0
 4953 0498 4FF00109 		mov	r9, #1
 4954 049c D1E7     		b	.L556
 4955              	.LVL421:
 4956              	.L574:
 4957              	.LBB222:
 4958              		.loc 1 1169 0
 4959 049e 4FF0FF33 		mov	r3, #-1
 4960 04a2 B3E7     		b	.L558
 4961              	.LVL422:
 4962              	.L576:
 4963              	.LBE222:
 4964              	.LBB223:
 4965              		.loc 1 1199 0
 4966 04a4 4FF0FF33 		mov	r3, #-1
 4967 04a8 8AE7     		b	.L561
 4968              	.LVL423:
 4969              	.L599:
 4970              	.LBE223:
 4971              		.loc 1 1092 0
 4972 04aa FFF7FEFF 		bl	mcpwm_foc_get_abs_motor_current
 4973              	.LVL424:
 4974 04ae B0EE408A 		fcpys	s16, s0
 4975              	.LVL425:
 4976              		.loc 1 1093 0
ARM GAS  /tmp/ccB9RVXV.s 			page 89


 4977 04b2 FFF7FEFF 		bl	mcpwm_foc_get_abs_motor_current_filtered
 4978              	.LVL426:
 4979 04b6 2CE6     		b	.L532
 4980              	.LVL427:
 4981              	.L590:
 4982              	.LBB224:
 4983              		.loc 1 1127 0
 4984 04b8 2848     		ldr	r0, .L614+80
 4985              		.loc 1 1128 0
 4986 04ba 2949     		ldr	r1, .L614+84
 4987              		.loc 1 1127 0
 4988 04bc D0ED007A 		flds	s15, [r0]
 4989 04c0 77EEE97A 		fsubs	s15, s15, s19
 4990 04c4 C0ED007A 		fsts	s15, [r0]
 4991              		.loc 1 1128 0
 4992 04c8 D1ED007A 		flds	s15, [r1]
 4993 04cc E9EE697A 		vfms.f32	s15, s18, s19
 4994 04d0 C1ED007A 		fsts	s15, [r1]
 4995 04d4 71E6     		b	.L546
 4996              	.LVL428:
 4997              	.L606:
 4998              	.LBE224:
 4999              	.LBB225:
 5000              		.loc 1 1208 0
 5001 04d6 3A78     		ldrb	r2, [r7]	@ zero_extendqisi2
 5002 04d8 1D4B     		ldr	r3, .L614+68
 5003              	.LVL429:
 5004 04da D2B2     		uxtb	r2, r2
 5005 04dc 1A70     		strb	r2, [r3]
 5006              	.LVL430:
 5007              		.loc 1 1211 0
 5008 04de 3B78     		ldrb	r3, [r7]	@ zero_extendqisi2
 5009 04e0 042B     		cmp	r3, #4
 5010 04e2 00F0C480 		beq	.L610
 5011              	.LVL431:
 5012              	.L563:
 5013              		.loc 1 1217 0
 5014 04e6 4FF00009 		mov	r9, #0
 5015 04ea 87F80090 		strb	r9, [r7]
 5016 04ee 6EE7     		b	.L562
 5017              	.LVL432:
 5018              	.L608:
 5019              	.LBE225:
 5020              	.LBB226:
 5021              		.loc 1 1178 0
 5022 04f0 3A78     		ldrb	r2, [r7]	@ zero_extendqisi2
 5023 04f2 174B     		ldr	r3, .L614+68
 5024              	.LVL433:
 5025 04f4 D2B2     		uxtb	r2, r2
 5026 04f6 1A70     		strb	r2, [r3]
 5027              	.LVL434:
 5028              		.loc 1 1181 0
 5029 04f8 3B78     		ldrb	r3, [r7]	@ zero_extendqisi2
 5030 04fa 032B     		cmp	r3, #3
 5031 04fc 00F0C380 		beq	.L611
 5032              	.LVL435:
 5033              	.L560:
ARM GAS  /tmp/ccB9RVXV.s 			page 90


 5034              		.loc 1 1187 0
 5035 0500 4FF00009 		mov	r9, #0
 5036 0504 87F80090 		strb	r9, [r7]
 5037 0508 86E7     		b	.L559
 5038              	.L615:
 5039 050a 00BF     		.align	2
 5040              	.L614:
 5041 050c 00000000 		.word	.LANCHOR35
 5042 0510 00000000 		.word	.LANCHOR2
 5043 0514 00000000 		.word	.LANCHOR45
 5044 0518 00000000 		.word	.LANCHOR34
 5045 051c 00000000 		.word	mcpwm_vzero
 5046 0520 C8760000 		.word	.LANCHOR11
 5047 0524 00000000 		.word	.LANCHOR46
 5048 0528 00000000 		.word	.LANCHOR4
 5049 052c E8320000 		.word	.LANCHOR7
 5050 0530 E0430000 		.word	.LANCHOR8
 5051 0534 D8540000 		.word	.LANCHOR9
 5052 0538 D0650000 		.word	.LANCHOR10
 5053 053c A48BC642 		.word	1120308132
 5054 0540 00000000 		.word	.LANCHOR31
 5055 0544 00000000 		.word	.LANCHOR13
 5056 0548 00000000 		.word	.LANCHOR42
 5057 054c 00000000 		.word	.LANCHOR3
 5058 0550 00000000 		.word	.LANCHOR1
 5059 0554 00000000 		.word	.LANCHOR0
 5060 0558 00000000 		.word	.LANCHOR14
 5061 055c 00000000 		.word	.LANCHOR27
 5062 0560 00000000 		.word	.LANCHOR29
 5063 0564 F0210000 		.word	.LANCHOR6
 5064 0568 F8100000 		.word	.LANCHOR5
 5065              	.LVL436:
 5066              	.L603:
 5067              	.LBE226:
 5068              	.LBB227:
 5069              	.LBB174:
 5070              		.loc 1 1253 0
 5071 056c D4F80080 		ldr	r8, [r4]
 5072 0570 4E4E     		ldr	r6, .L616
 5073 0572 FFF7FEFF 		bl	mcpwm_get_comm_step
 5074              	.LVL437:
 5075 0576 4E4B     		ldr	r3, .L616+4
 5076 0578 0138     		subs	r0, r0, #1
 5077 057a 03EB8003 		add	r3, r3, r0, lsl #2
 5078 057e D3ED007A 		flds	s15, [r3]
 5079 0582 FDEEE77A 		ftosizs	s15, s15
 5080 0586 17EE903A 		fmrs	r3, s15	@ int
 5081 058a 9BB2     		uxth	r3, r3
 5082 058c 26F81830 		strh	r3, [r6, r8, lsl #1]	@ movhi
 5083              		.loc 1 1254 0
 5084 0590 D4F80080 		ldr	r8, [r4]
 5085 0594 FFF7FEFF 		bl	mcpwm_get_comm_step
 5086              	.LVL438:
 5087 0598 DFF83CC1 		ldr	ip, .L616+44
 5088              		.loc 1 1256 0
 5089 059c 454B     		ldr	r3, .L616+8
 5090 059e DFF83CE1 		ldr	lr, .L616+48
ARM GAS  /tmp/ccB9RVXV.s 			page 91


 5091              		.loc 1 1257 0
 5092 05a2 4549     		ldr	r1, .L616+12
 5093              		.loc 1 1258 0
 5094 05a4 454A     		ldr	r2, .L616+16
 5095              		.loc 1 1254 0
 5096 05a6 0138     		subs	r0, r0, #1
 5097 05a8 0CEB800C 		add	ip, ip, r0, lsl #2
 5098 05ac DCED007A 		flds	s15, [ip]
 5099 05b0 FDEEE77A 		ftosizs	s15, s15
 5100 05b4 06EB4806 		add	r6, r6, r8, lsl #1
 5101 05b8 17EE900A 		fmrs	r0, s15	@ int
 5102 05bc 80B2     		uxth	r0, r0
 5103 05be A6F8A00F 		strh	r0, [r6, #4000]	@ movhi
 5104              		.loc 1 1256 0
 5105 05c2 2668     		ldr	r6, [r4]
 5106 05c4 D3ED007A 		flds	s15, [r3]
 5107 05c8 FDEEE77A 		ftosizs	s15, s15
 5108 05cc 0EEB460E 		add	lr, lr, r6, lsl #1
 5109 05d0 17EE900A 		fmrs	r0, s15	@ int
 5110 05d4 80B2     		uxth	r0, r0
 5111 05d6 AEF8480E 		strh	r0, [lr, #3656]	@ movhi
 5112              		.loc 1 1257 0
 5113 05da 2668     		ldr	r6, [r4]
 5114 05dc D3ED017A 		flds	s15, [r3, #4]
 5115 05e0 FDEEE77A 		ftosizs	s15, s15
 5116 05e4 01EB4601 		add	r1, r1, r6, lsl #1
 5117 05e8 17EE900A 		fmrs	r0, s15	@ int
 5118 05ec 80B2     		uxth	r0, r0
 5119 05ee A1F8F00C 		strh	r0, [r1, #3312]	@ movhi
 5120              		.loc 1 1258 0
 5121 05f2 2168     		ldr	r1, [r4]
 5122 05f4 D3ED027A 		flds	s15, [r3, #8]
 5123 05f8 FDEEE77A 		ftosizs	s15, s15
 5124 05fc 02EB4102 		add	r2, r2, r1, lsl #1
 5125 0600 17EE903A 		fmrs	r3, s15	@ int
 5126 0604 9BB2     		uxth	r3, r3
 5127 0606 A2F8983B 		strh	r3, [r2, #2968]	@ movhi
 5128 060a 7CE6     		b	.L570
 5129              	.LVL439:
 5130              	.L602:
 5131              		.loc 1 1242 0
 5132 060c B188     		ldrh	r1, [r6, #4]
 5133 060e 7288     		ldrh	r2, [r6, #2]
 5134 0610 3788     		ldrh	r7, [r6]
 5135 0612 2B4B     		ldr	r3, .L616+20
 5136              		.loc 1 1243 0
 5137 0614 D4F80080 		ldr	r8, [r4]
 5138 0618 2A4D     		ldr	r5, .L616+24
 5139              		.loc 1 1242 0
 5140 061a 92B2     		uxth	r2, r2
 5141 061c 12FA81F2 		uxtah	r2, r2, r1
 5142 0620 12FA87F7 		uxtah	r7, r2, r7
 5143 0624 83FB0727 		smull	r2, r7, r3, r7
 5144              		.loc 1 1243 0
 5145 0628 FFF7FEFF 		bl	mcpwm_foc_get_phase
 5146              	.LVL440:
 5147 062c 9FED267A 		flds	s14, .L616+28
ARM GAS  /tmp/ccB9RVXV.s 			page 92


 5148 0630 DFED267A 		flds	s15, .L616+32
 5149 0634 80EE070A 		fdivs	s0, s0, s14
 5150 0638 A844     		add	r8, r8, r5
 5151              		.loc 1 1242 0
 5152 063a BFB2     		uxth	r7, r7
 5153              	.LVL441:
 5154              		.loc 1 1243 0
 5155 063c 60EE277A 		fmuls	s15, s0, s15
 5156 0640 FCEEE77A 		ftouizs	s15, s15
 5157 0644 17EE903A 		fmrs	r3, s15	@ int
 5158 0648 DBB2     		uxtb	r3, r3
 5159 064a 88F8083E 		strb	r3, [r8, #3592]
 5160 064e 27E6     		b	.L568
 5161              	.LVL442:
 5162              	.L553:
 5163              	.LBE174:
 5164              	.LBE227:
 5165              		.loc 1 1142 0
 5166 0650 1F4A     		ldr	r2, .L616+36
 5167              		.loc 1 1141 0
 5168 0652 0024     		movs	r4, #0
 5169              		.loc 1 1142 0
 5170 0654 0121     		movs	r1, #1
 5171              		.loc 1 1141 0
 5172 0656 3C70     		strb	r4, [r7]
 5173              	.LBB228:
 5174              	.LBB229:
 5175              	.LBB230:
 5176              	.LBB231:
 5177              	.LBB232:
 5178              		.loc 3 546 0
 5179 0658 2023     		movs	r3, #32
 5180              	.LBE232:
 5181              	.LBE231:
 5182              	.LBE230:
 5183              	.LBE229:
 5184              	.LBE228:
 5185              		.loc 1 1142 0
 5186 065a 1170     		strb	r1, [r2]
 5187              	.LVL443:
 5188              	.LBB237:
 5189              	.LBB236:
 5190              	.LBB235:
 5191              	.LBB234:
 5192              	.LBB233:
 5193              		.loc 3 546 0
 5194              	@ 546 "ChibiOS_3.0.2/os/ext/CMSIS/include/core_cmFunc.h" 1
 5195 065c 83F31188 		MSR basepri, r3
 5196              	@ 0 "" 2
 5197              		.thumb
 5198              	.LBE233:
 5199              	.LBE234:
 5200              	.LBE235:
 5201              	.LBE236:
 5202              	.LBE237:
 5203              		.loc 1 1144 0
 5204 0660 1C4B     		ldr	r3, .L616+40
ARM GAS  /tmp/ccB9RVXV.s 			page 93


 5205 0662 1868     		ldr	r0, [r3]
 5206 0664 FFF7FEFF 		bl	chEvtSignalI
 5207              	.LVL444:
 5208              	.LBB238:
 5209              	.LBB239:
 5210              	.LBB240:
 5211              	.LBB241:
 5212              	.LBB242:
 5213              		.loc 3 546 0
 5214              	@ 546 "ChibiOS_3.0.2/os/ext/CMSIS/include/core_cmFunc.h" 1
 5215 0668 84F31188 		MSR basepri, r4
 5216              	@ 0 "" 2
 5217              		.thumb
 5218 066c 83E6     		b	.L521
 5219              	.LVL445:
 5220              	.L610:
 5221              	.LBE242:
 5222              	.LBE241:
 5223              	.LBE240:
 5224              	.LBE239:
 5225              	.LBE238:
 5226              	.LBB243:
 5227              	.LBB183:
 5228              	.LBB184:
 5229              	.LBB185:
 5230              	.LBB186:
 5231              	.LBB187:
 5232 066e 2023     		movs	r3, #32
 5233              	@ 546 "ChibiOS_3.0.2/os/ext/CMSIS/include/core_cmFunc.h" 1
 5234 0670 83F31188 		MSR basepri, r3
 5235              	@ 0 "" 2
 5236              		.thumb
 5237              	.LBE187:
 5238              	.LBE186:
 5239              	.LBE185:
 5240              	.LBE184:
 5241              	.LBE183:
 5242              		.loc 1 1213 0
 5243 0674 174B     		ldr	r3, .L616+40
 5244 0676 0121     		movs	r1, #1
 5245 0678 1868     		ldr	r0, [r3]
 5246 067a FFF7FEFF 		bl	chEvtSignalI
 5247              	.LVL446:
 5248              	.LBB188:
 5249              	.LBB189:
 5250              	.LBB190:
 5251              	.LBB191:
 5252              	.LBB192:
 5253              		.loc 3 546 0
 5254 067e 0023     		movs	r3, #0
 5255              	@ 546 "ChibiOS_3.0.2/os/ext/CMSIS/include/core_cmFunc.h" 1
 5256 0680 83F31188 		MSR basepri, r3
 5257              	@ 0 "" 2
 5258              		.thumb
 5259 0684 2FE7     		b	.L563
 5260              	.LVL447:
 5261              	.L611:
ARM GAS  /tmp/ccB9RVXV.s 			page 94


 5262              	.LBE192:
 5263              	.LBE191:
 5264              	.LBE190:
 5265              	.LBE189:
 5266              	.LBE188:
 5267              	.LBE243:
 5268              	.LBB244:
 5269              	.LBB194:
 5270              	.LBB195:
 5271              	.LBB196:
 5272              	.LBB197:
 5273              	.LBB198:
 5274 0686 2023     		movs	r3, #32
 5275              	@ 546 "ChibiOS_3.0.2/os/ext/CMSIS/include/core_cmFunc.h" 1
 5276 0688 83F31188 		MSR basepri, r3
 5277              	@ 0 "" 2
 5278              		.thumb
 5279              	.LBE198:
 5280              	.LBE197:
 5281              	.LBE196:
 5282              	.LBE195:
 5283              	.LBE194:
 5284              		.loc 1 1183 0
 5285 068c 114B     		ldr	r3, .L616+40
 5286 068e 0121     		movs	r1, #1
 5287 0690 1868     		ldr	r0, [r3]
 5288 0692 FFF7FEFF 		bl	chEvtSignalI
 5289              	.LVL448:
 5290              	.LBB199:
 5291              	.LBB200:
 5292              	.LBB201:
 5293              	.LBB202:
 5294              	.LBB203:
 5295              		.loc 3 546 0
 5296 0696 0023     		movs	r3, #0
 5297              	@ 546 "ChibiOS_3.0.2/os/ext/CMSIS/include/core_cmFunc.h" 1
 5298 0698 83F31188 		MSR basepri, r3
 5299              	@ 0 "" 2
 5300              		.thumb
 5301 069c 30E7     		b	.L560
 5302              	.LVL449:
 5303              	.L605:
 5304              	.LBE203:
 5305              	.LBE202:
 5306              	.LBE201:
 5307              	.LBE200:
 5308              	.LBE199:
 5309              	.LBE244:
 5310              	.LBB245:
 5311              		.loc 1 1203 0
 5312 069e 03F5FA63 		add	r3, r3, #2000
 5313              	.LVL450:
 5314 06a2 8DE6     		b	.L561
 5315              	.LVL451:
 5316              	.L607:
 5317              	.LBE245:
 5318              	.LBB246:
ARM GAS  /tmp/ccB9RVXV.s 			page 95


 5319              		.loc 1 1173 0
 5320 06a4 03F5FA63 		add	r3, r3, #2000
 5321              	.LVL452:
 5322 06a8 B0E6     		b	.L558
 5323              	.L617:
 5324 06aa 00BF     		.align	2
 5325              	.L616:
 5326 06ac 00000000 		.word	.LANCHOR4
 5327 06b0 00000000 		.word	mcpwm_detect_currents
 5328 06b4 00000000 		.word	mcpwm_detect_voltages
 5329 06b8 F0210000 		.word	.LANCHOR6
 5330 06bc E8320000 		.word	.LANCHOR7
 5331 06c0 56555555 		.word	1431655766
 5332 06c4 C8760000 		.word	.LANCHOR11
 5333 06c8 0000B443 		.word	1135869952
 5334 06cc 00007A43 		.word	1132068864
 5335 06d0 00000000 		.word	.LANCHOR1
 5336 06d4 00000000 		.word	.LANCHOR0
 5337 06d8 00000000 		.word	mcpwm_detect_currents_diff
 5338 06dc F8100000 		.word	.LANCHOR5
 5339              	.LBE246:
 5340              		.cfi_endproc
 5341              	.LFE307:
 5342              		.size	mc_interface_mc_timer_isr, .-mc_interface_mc_timer_isr
 5343              		.section	.text.mc_interface_adc_inj_int_handler,"ax",%progbits
 5344              		.align	2
 5345              		.p2align 4,,15
 5346              		.global	mc_interface_adc_inj_int_handler
 5347              		.thumb
 5348              		.thumb_func
 5349              		.type	mc_interface_adc_inj_int_handler, %function
 5350              	mc_interface_adc_inj_int_handler:
 5351              	.LFB308:
 5352              		.loc 1 1280 0
 5353              		.cfi_startproc
 5354              		@ args = 0, pretend = 0, frame = 0
 5355              		@ frame_needed = 0, uses_anonymous_args = 0
 5356              		@ link register save eliminated.
 5357              		.loc 1 1281 0
 5358 0000 034B     		ldr	r3, .L622
 5359 0002 9B78     		ldrb	r3, [r3, #2]	@ zero_extendqisi2
 5360 0004 012B     		cmp	r3, #1
 5361 0006 00D9     		bls	.L621
 5362 0008 7047     		bx	lr
 5363              	.L621:
 5364              		.loc 1 1284 0
 5365 000a FFF7FEBF 		b	mcpwm_adc_inj_int_handler
 5366              	.LVL453:
 5367              	.L623:
 5368 000e 00BF     		.align	2
 5369              	.L622:
 5370 0010 00000000 		.word	.LANCHOR12
 5371              		.cfi_endproc
 5372              	.LFE308:
 5373              		.size	mc_interface_adc_inj_int_handler, .-mc_interface_adc_inj_int_handler
 5374              		.global	ADC_curr_norm_value
 5375              		.global	ADC_Value
ARM GAS  /tmp/ccB9RVXV.s 			page 96


 5376 0014 AFF30080 		.section	.bss.m_sample_trigger,"aw",%nobits
 5376      AFF30080 
 5376      AFF30080 
 5377              		.align	2
 5378              		.set	.LANCHOR3,. + 0
 5379              		.type	m_sample_trigger, %object
 5380              		.size	m_sample_trigger, 4
 5381              	m_sample_trigger:
 5382 0000 00000000 		.space	4
 5383              		.section	.bss.a.10716,"aw",%nobits
 5384              		.align	2
 5385              		.set	.LANCHOR45,. + 0
 5386              		.type	a.10716, %object
 5387              		.size	a.10716, 4
 5388              	a.10716:
 5389 0000 00000000 		.space	4
 5390              		.section	.bss.m_sample_int,"aw",%nobits
 5391              		.align	2
 5392              		.set	.LANCHOR34,. + 0
 5393              		.type	m_sample_int, %object
 5394              		.size	m_sample_int, 4
 5395              	m_sample_int:
 5396 0000 00000000 		.space	4
 5397              		.section	.bss.curr_diff_sum.10703,"aw",%nobits
 5398              		.align	2
 5399              		.set	.LANCHOR43,. + 0
 5400              		.type	curr_diff_sum.10703, %object
 5401              		.size	curr_diff_sum.10703, 4
 5402              	curr_diff_sum.10703:
 5403 0000 00000000 		.space	4
 5404              		.section	.bss.m_watt_seconds_charged,"aw",%nobits
 5405              		.align	2
 5406              		.set	.LANCHOR29,. + 0
 5407              		.type	m_watt_seconds_charged, %object
 5408              		.size	m_watt_seconds_charged, 4
 5409              	m_watt_seconds_charged:
 5410 0000 00000000 		.space	4
 5411              		.section	.ram4,"aw",%progbits
 5412              		.align	2
 5413              		.set	.LANCHOR4,. + 0
 5414              		.set	.LANCHOR5,. + 4344
 5415              		.set	.LANCHOR6,. + 8688
 5416              		.set	.LANCHOR7,. + 13032
 5417              		.set	.LANCHOR8,. + 17376
 5418              		.set	.LANCHOR9,. + 21720
 5419              		.set	.LANCHOR10,. + 26064
 5420              		.set	.LANCHOR11,. + 30408
 5421              		.type	m_curr0_samples, %object
 5422              		.size	m_curr0_samples, 4000
 5423              	m_curr0_samples:
 5424 0000 00000000 		.space	4000
 5424      00000000 
 5424      00000000 
 5424      00000000 
 5424      00000000 
 5425              		.type	m_curr1_samples, %object
 5426              		.size	m_curr1_samples, 4000
ARM GAS  /tmp/ccB9RVXV.s 			page 97


 5427              	m_curr1_samples:
 5428 0fa0 00000000 		.space	4000
 5428      00000000 
 5428      00000000 
 5428      00000000 
 5428      00000000 
 5429              		.type	m_ph1_samples, %object
 5430              		.size	m_ph1_samples, 4000
 5431              	m_ph1_samples:
 5432 1f40 00000000 		.space	4000
 5432      00000000 
 5432      00000000 
 5432      00000000 
 5432      00000000 
 5433              		.type	m_ph2_samples, %object
 5434              		.size	m_ph2_samples, 4000
 5435              	m_ph2_samples:
 5436 2ee0 00000000 		.space	4000
 5436      00000000 
 5436      00000000 
 5436      00000000 
 5436      00000000 
 5437              		.type	m_ph3_samples, %object
 5438              		.size	m_ph3_samples, 4000
 5439              	m_ph3_samples:
 5440 3e80 00000000 		.space	4000
 5440      00000000 
 5440      00000000 
 5440      00000000 
 5440      00000000 
 5441              		.type	m_vzero_samples, %object
 5442              		.size	m_vzero_samples, 4000
 5443              	m_vzero_samples:
 5444 4e20 00000000 		.space	4000
 5444      00000000 
 5444      00000000 
 5444      00000000 
 5444      00000000 
 5445              		.type	m_curr_fir_samples, %object
 5446              		.size	m_curr_fir_samples, 4000
 5447              	m_curr_fir_samples:
 5448 5dc0 00000000 		.space	4000
 5448      00000000 
 5448      00000000 
 5448      00000000 
 5448      00000000 
 5449              		.type	m_f_sw_samples, %object
 5450              		.size	m_f_sw_samples, 4000
 5451              	m_f_sw_samples:
 5452 6d60 00000000 		.space	4000
 5452      00000000 
 5452      00000000 
 5452      00000000 
 5452      00000000 
 5453              		.type	m_status_samples, %object
 5454              		.size	m_status_samples, 2000
 5455              	m_status_samples:
ARM GAS  /tmp/ccB9RVXV.s 			page 98


 5456 7d00 00000000 		.space	2000
 5456      00000000 
 5456      00000000 
 5456      00000000 
 5456      00000000 
 5457              		.type	m_phase_samples, %object
 5458              		.size	m_phase_samples, 2000
 5459              	m_phase_samples:
 5460 84d0 00000000 		.space	2000
 5460      00000000 
 5460      00000000 
 5460      00000000 
 5460      00000000 
 5461              		.section	.bss.m_motor_iq_sum,"aw",%nobits
 5462              		.align	2
 5463              		.set	.LANCHOR23,. + 0
 5464              		.type	m_motor_iq_sum, %object
 5465              		.size	m_motor_iq_sum, 4
 5466              	m_motor_iq_sum:
 5467 0000 00000000 		.space	4
 5468              		.section	.bss.m_motor_id_sum,"aw",%nobits
 5469              		.align	2
 5470              		.set	.LANCHOR22,. + 0
 5471              		.type	m_motor_id_sum, %object
 5472              		.size	m_motor_id_sum, 4
 5473              	m_motor_id_sum:
 5474 0000 00000000 		.space	4
 5475              		.section	.bss.ADC_Value,"aw",%nobits
 5476              		.align	2
 5477              		.set	.LANCHOR41,. + 0
 5478              		.type	ADC_Value, %object
 5479              		.size	ADC_Value, 24
 5480              	ADC_Value:
 5481 0000 00000000 		.space	24
 5481      00000000 
 5481      00000000 
 5481      00000000 
 5481      00000000 
 5482              		.section	.bss.m_motor_current_iterations,"aw",%nobits
 5483              		.align	2
 5484              		.set	.LANCHOR20,. + 0
 5485              		.type	m_motor_current_iterations, %object
 5486              		.size	m_motor_current_iterations, 4
 5487              	m_motor_current_iterations:
 5488 0000 00000000 		.space	4
 5489              		.section	.bss.m_last_adc_duration_sample,"aw",%nobits
 5490              		.align	2
 5491              		.set	.LANCHOR31,. + 0
 5492              		.type	m_last_adc_duration_sample, %object
 5493              		.size	m_last_adc_duration_sample, 4
 5494              	m_last_adc_duration_sample:
 5495 0000 00000000 		.space	4
 5496              		.section	.bss.m_motor_iq_iterations,"aw",%nobits
 5497              		.align	2
 5498              		.set	.LANCHOR25,. + 0
 5499              		.type	m_motor_iq_iterations, %object
 5500              		.size	m_motor_iq_iterations, 4
ARM GAS  /tmp/ccB9RVXV.s 			page 99


 5501              	m_motor_iq_iterations:
 5502 0000 00000000 		.space	4
 5503              		.section	.bss.m_amp_seconds_charged,"aw",%nobits
 5504              		.align	2
 5505              		.set	.LANCHOR27,. + 0
 5506              		.type	m_amp_seconds_charged, %object
 5507              		.size	m_amp_seconds_charged, 4
 5508              	m_amp_seconds_charged:
 5509 0000 00000000 		.space	4
 5510              		.section	.bss.pwn_done_func,"aw",%nobits
 5511              		.align	2
 5512              		.set	.LANCHOR39,. + 0
 5513              		.type	pwn_done_func, %object
 5514              		.size	pwn_done_func, 4
 5515              	pwn_done_func:
 5516 0000 00000000 		.space	4
 5517              		.section	.bss.m_input_current_sum,"aw",%nobits
 5518              		.align	2
 5519              		.set	.LANCHOR19,. + 0
 5520              		.type	m_input_current_sum, %object
 5521              		.size	m_input_current_sum, 4
 5522              	m_input_current_sum:
 5523 0000 00000000 		.space	4
 5524              		.section	.bss.curr_diff_samples.10704,"aw",%nobits
 5525              		.align	2
 5526              		.set	.LANCHOR44,. + 0
 5527              		.type	curr_diff_samples.10704, %object
 5528              		.size	curr_diff_samples.10704, 4
 5529              	curr_diff_samples.10704:
 5530 0000 00000000 		.space	4
 5531              		.section	.bss.m_sample_len,"aw",%nobits
 5532              		.align	2
 5533              		.set	.LANCHOR2,. + 0
 5534              		.type	m_sample_len, %object
 5535              		.size	m_sample_len, 4
 5536              	m_sample_len:
 5537 0000 00000000 		.space	4
 5538              		.section	.bss.m_conf,"aw",%nobits
 5539              		.align	2
 5540              		.set	.LANCHOR12,. + 0
 5541              		.type	m_conf, %object
 5542              		.size	m_conf, 372
 5543              	m_conf:
 5544 0000 00000000 		.space	372
 5544      00000000 
 5544      00000000 
 5544      00000000 
 5544      00000000 
 5545              		.section	.bss.m_fault_now,"aw",%nobits
 5546              		.set	.LANCHOR13,. + 0
 5547              		.type	m_fault_now, %object
 5548              		.size	m_fault_now, 1
 5549              	m_fault_now:
 5550 0000 00       		.space	1
 5551              		.section	.bss.sample_send_tp,"aw",%nobits
 5552              		.align	2
 5553              		.set	.LANCHOR0,. + 0
ARM GAS  /tmp/ccB9RVXV.s 			page 100


 5554              		.type	sample_send_tp, %object
 5555              		.size	sample_send_tp, 4
 5556              	sample_send_tp:
 5557 0000 00000000 		.space	4
 5558              		.section	.rodata.str1.4,"aMS",%progbits,1
 5559              		.align	2
 5560              	.LC0:
 5561 0000 53616D70 		.ascii	"SampleSender\000"
 5561      6C655365 
 5561      6E646572 
 5561      00
 5562 000d 000000   		.space	3
 5563              	.LC1:
 5564 0010 4641554C 		.ascii	"FAULT_UNKNOWN\000"
 5564      545F554E 
 5564      4B4E4F57 
 5564      4E00
 5565 001e 0000     		.space	2
 5566              	.LC2:
 5567 0020 6D636966 		.ascii	"mcif timer\000"
 5567      2074696D 
 5567      657200
 5568 002b 00       		.space	1
 5569              	.LC3:
 5570 002c 4641554C 		.ascii	"FAULT_CODE_NONE\000"
 5570      545F434F 
 5570      44455F4E 
 5570      4F4E4500 
 5571              	.LC4:
 5572 003c 4641554C 		.ascii	"FAULT_CODE_OVER_VOLTAGE\000"
 5572      545F434F 
 5572      44455F4F 
 5572      5645525F 
 5572      564F4C54 
 5573              	.LC5:
 5574 0054 4641554C 		.ascii	"FAULT_CODE_UNDER_VOLTAGE\000"
 5574      545F434F 
 5574      44455F55 
 5574      4E444552 
 5574      5F564F4C 
 5575 006d 000000   		.space	3
 5576              	.LC6:
 5577 0070 4641554C 		.ascii	"FAULT_CODE_DRV\000"
 5577      545F434F 
 5577      44455F44 
 5577      525600
 5578 007f 00       		.space	1
 5579              	.LC7:
 5580 0080 4641554C 		.ascii	"FAULT_CODE_ABS_OVER_CURRENT\000"
 5580      545F434F 
 5580      44455F41 
 5580      42535F4F 
 5580      5645525F 
 5581              	.LC8:
 5582 009c 4641554C 		.ascii	"FAULT_CODE_OVER_TEMP_FET\000"
 5582      545F434F 
 5582      44455F4F 
ARM GAS  /tmp/ccB9RVXV.s 			page 101


 5582      5645525F 
 5582      54454D50 
 5583 00b5 000000   		.space	3
 5584              	.LC9:
 5585 00b8 4641554C 		.ascii	"FAULT_CODE_OVER_TEMP_MOTOR\000"
 5585      545F434F 
 5585      44455F4F 
 5585      5645525F 
 5585      54454D50 
 5586 00d3 00       		.section	.bss.m_cycles_running,"aw",%nobits
 5587              		.align	2
 5588              		.set	.LANCHOR15,. + 0
 5589              		.type	m_cycles_running, %object
 5590              		.size	m_cycles_running, 4
 5591              	m_cycles_running:
 5592 0000 00000000 		.space	4
 5593              		.section	.rodata.CSWTCH.191,"a",%progbits
 5594              		.align	2
 5595              		.set	.LANCHOR40,. + 0
 5596              		.type	CSWTCH.191, %object
 5597              		.size	CSWTCH.191, 28
 5598              	CSWTCH.191:
 5599 0000 2C000000 		.word	.LC3
 5600 0004 3C000000 		.word	.LC4
 5601 0008 54000000 		.word	.LC5
 5602 000c 70000000 		.word	.LC6
 5603 0010 80000000 		.word	.LC7
 5604 0014 9C000000 		.word	.LC8
 5605 0018 B8000000 		.word	.LC9
 5606              		.section	.bss.m_temp_fet,"aw",%nobits
 5607              		.align	2
 5608              		.set	.LANCHOR32,. + 0
 5609              		.type	m_temp_fet, %object
 5610              		.size	m_temp_fet, 4
 5611              	m_temp_fet:
 5612 0000 00000000 		.space	4
 5613              		.section	.bss.m_motor_id_iterations,"aw",%nobits
 5614              		.align	2
 5615              		.set	.LANCHOR24,. + 0
 5616              		.type	m_motor_id_iterations, %object
 5617              		.size	m_motor_id_iterations, 4
 5618              	m_motor_id_iterations:
 5619 0000 00000000 		.space	4
 5620              		.section	.bss.m_motor_current_sum,"aw",%nobits
 5621              		.align	2
 5622              		.set	.LANCHOR18,. + 0
 5623              		.type	m_motor_current_sum, %object
 5624              		.size	m_motor_current_sum, 4
 5625              	m_motor_current_sum:
 5626 0000 00000000 		.space	4
 5627              		.section	.bss.m_input_current_iterations,"aw",%nobits
 5628              		.align	2
 5629              		.set	.LANCHOR21,. + 0
 5630              		.type	m_input_current_iterations, %object
 5631              		.size	m_input_current_iterations, 4
 5632              	m_input_current_iterations:
 5633 0000 00000000 		.space	4
ARM GAS  /tmp/ccB9RVXV.s 			page 102


 5634              		.section	.bss.m_amp_seconds,"aw",%nobits
 5635              		.align	2
 5636              		.set	.LANCHOR26,. + 0
 5637              		.type	m_amp_seconds, %object
 5638              		.size	m_amp_seconds, 4
 5639              	m_amp_seconds:
 5640 0000 00000000 		.space	4
 5641              		.section	.bss.sample_send_thread_wa,"aw",%nobits
 5642              		.align	3
 5643              		.set	.LANCHOR38,. + 0
 5644              		.type	sample_send_thread_wa, %object
 5645              		.size	sample_send_thread_wa, 1432
 5646              	sample_send_thread_wa:
 5647 0000 00000000 		.space	1432
 5647      00000000 
 5647      00000000 
 5647      00000000 
 5647      00000000 
 5648              		.section	.bss.m_ignore_iterations,"aw",%nobits
 5649              		.align	2
 5650              		.set	.LANCHOR14,. + 0
 5651              		.type	m_ignore_iterations, %object
 5652              		.size	m_ignore_iterations, 4
 5653              	m_ignore_iterations:
 5654 0000 00000000 		.space	4
 5655              		.section	.bss.m_sample_mode_last,"aw",%nobits
 5656              		.set	.LANCHOR1,. + 0
 5657              		.type	m_sample_mode_last, %object
 5658              		.size	m_sample_mode_last, 1
 5659              	m_sample_mode_last:
 5660 0000 00       		.space	1
 5661              		.section	.bss.wrong_voltage_iterations.10697,"aw",%nobits
 5662              		.align	2
 5663              		.set	.LANCHOR42,. + 0
 5664              		.type	wrong_voltage_iterations.10697, %object
 5665              		.size	wrong_voltage_iterations.10697, 4
 5666              	wrong_voltage_iterations.10697:
 5667 0000 00000000 		.space	4
 5668              		.section	.bss.m_lock_enabled,"aw",%nobits
 5669              		.set	.LANCHOR16,. + 0
 5670              		.type	m_lock_enabled, %object
 5671              		.size	m_lock_enabled, 1
 5672              	m_lock_enabled:
 5673 0000 00       		.space	1
 5674              		.section	.bss.m_lock_override_once,"aw",%nobits
 5675              		.set	.LANCHOR17,. + 0
 5676              		.type	m_lock_override_once, %object
 5677              		.size	m_lock_override_once, 1
 5678              	m_lock_override_once:
 5679 0000 00       		.space	1
 5680              		.section	.bss.m_watt_seconds,"aw",%nobits
 5681              		.align	2
 5682              		.set	.LANCHOR28,. + 0
 5683              		.type	m_watt_seconds, %object
 5684              		.size	m_watt_seconds, 4
 5685              	m_watt_seconds:
 5686 0000 00000000 		.space	4
ARM GAS  /tmp/ccB9RVXV.s 			page 103


 5687              		.section	.bss.ADC_curr_norm_value,"aw",%nobits
 5688              		.align	2
 5689              		.set	.LANCHOR46,. + 0
 5690              		.type	ADC_curr_norm_value, %object
 5691              		.size	ADC_curr_norm_value, 12
 5692              	ADC_curr_norm_value:
 5693 0000 00000000 		.space	12
 5693      00000000 
 5693      00000000 
 5694              		.section	.bss.m_position_set,"aw",%nobits
 5695              		.align	2
 5696              		.set	.LANCHOR30,. + 0
 5697              		.type	m_position_set, %object
 5698              		.size	m_position_set, 4
 5699              	m_position_set:
 5700 0000 00000000 		.space	4
 5701              		.section	.bss.m_sample_now,"aw",%nobits
 5702              		.align	2
 5703              		.set	.LANCHOR35,. + 0
 5704              		.type	m_sample_now, %object
 5705              		.size	m_sample_now, 4
 5706              	m_sample_now:
 5707 0000 00000000 		.space	4
 5708              		.section	.bss.timer_thread_wa,"aw",%nobits
 5709              		.align	3
 5710              		.set	.LANCHOR37,. + 0
 5711              		.type	timer_thread_wa, %object
 5712              		.size	timer_thread_wa, 1432
 5713              	timer_thread_wa:
 5714 0000 00000000 		.space	1432
 5714      00000000 
 5714      00000000 
 5714      00000000 
 5714      00000000 
 5715              		.section	.bss.m_sample_mode,"aw",%nobits
 5716              		.set	.LANCHOR36,. + 0
 5717              		.type	m_sample_mode, %object
 5718              		.size	m_sample_mode, 1
 5719              	m_sample_mode:
 5720 0000 00       		.space	1
 5721              		.section	.bss.m_temp_motor,"aw",%nobits
 5722              		.align	2
 5723              		.set	.LANCHOR33,. + 0
 5724              		.type	m_temp_motor, %object
 5725              		.size	m_temp_motor, 4
 5726              	m_temp_motor:
 5727 0000 00000000 		.space	4
 5728              		.text
 5729              	.Letext0:
 5730              		.file 4 "/usr/include/newlib/machine/_default_types.h"
 5731              		.file 5 "/usr/include/newlib/stdint.h"
 5732              		.file 6 "/usr/lib/gcc/arm-none-eabi/4.8/include/stddef.h"
 5733              		.file 7 "ChibiOS_3.0.2/os/rt/ports/ARMCMx/compilers/GCC/chtypes.h"
 5734              		.file 8 "ChibiOS_3.0.2/os/rt/include/chsystypes.h"
 5735              		.file 9 "ChibiOS_3.0.2/os/rt/include/chschd.h"
 5736              		.file 10 "ChibiOS_3.0.2/os/ext/CMSIS/ST/stm32f407xx.h"
 5737              		.file 11 "ChibiOS_3.0.2/os/rt/ports/ARMCMx/chcore.h"
ARM GAS  /tmp/ccB9RVXV.s 			page 104


 5738              		.file 12 "ChibiOS_3.0.2/os/rt/ports/ARMCMx/chcore_v7m.h"
 5739              		.file 13 "ChibiOS_3.0.2/os/rt/include/chtm.h"
 5740              		.file 14 "ChibiOS_3.0.2/os/rt/include/chsem.h"
 5741              		.file 15 "ChibiOS_3.0.2/os/rt/include/chmtx.h"
 5742              		.file 16 "ChibiOS_3.0.2/os/rt/include/chthreads.h"
 5743              		.file 17 "datatypes.h"
 5744              		.file 18 "ChibiOS_3.0.2/os/hal/ports/STM32/LLD/GPIOv2/pal_lld.h"
 5745              		.file 19 "ChibiOS_3.0.2/os/rt/include/chsys.h"
 5746              		.file 20 "ChibiOS_3.0.2/os/ext/CMSIS/include/core_cm4.h"
 5747              		.file 21 "mcpwm.h"
 5748              		.file 22 "buffer.h"
 5749              		.file 23 "commands.h"
 5750              		.file 24 "ChibiOS_3.0.2/os/rt/include/chevents.h"
 5751              		.file 25 "mcpwm_foc.h"
 5752              		.file 26 "encoder.h"
 5753              		.file 27 "utils.h"
 5754              		.file 28 "/usr/include/newlib/math.h"
 5755              		.file 29 "terminal.h"
 5756              		.file 30 "ledpwm.h"
 5757              		.section	.debug_info,"",%progbits
 5758              	.Ldebug_info0:
 5759 0000 87350000 		.4byte	0x3587
 5760 0004 0400     		.2byte	0x4
 5761 0006 00000000 		.4byte	.Ldebug_abbrev0
 5762 000a 04       		.byte	0x4
 5763 000b 01       		.uleb128 0x1
 5764 000c 040E0000 		.4byte	.LASF588
 5765 0010 01       		.byte	0x1
 5766 0011 880A0000 		.4byte	.LASF589
 5767 0015 EB1C0000 		.4byte	.LASF590
 5768 0019 78020000 		.4byte	.Ldebug_ranges0+0x278
 5769 001d 00000000 		.4byte	0
 5770 0021 00000000 		.4byte	.Ldebug_line0
 5771 0025 02       		.uleb128 0x2
 5772 0026 04       		.byte	0x4
 5773 0027 04       		.byte	0x4
 5774 0028 A9070000 		.4byte	.LASF0
 5775 002c 03       		.uleb128 0x3
 5776 002d 77260000 		.4byte	.LASF2
 5777 0031 04       		.byte	0x4
 5778 0032 1B       		.byte	0x1b
 5779 0033 37000000 		.4byte	0x37
 5780 0037 02       		.uleb128 0x2
 5781 0038 01       		.byte	0x1
 5782 0039 06       		.byte	0x6
 5783 003a 90140000 		.4byte	.LASF1
 5784 003e 03       		.uleb128 0x3
 5785 003f E4000000 		.4byte	.LASF3
 5786 0043 04       		.byte	0x4
 5787 0044 1D       		.byte	0x1d
 5788 0045 49000000 		.4byte	0x49
 5789 0049 02       		.uleb128 0x2
 5790 004a 01       		.byte	0x1
 5791 004b 08       		.byte	0x8
 5792 004c 4D070000 		.4byte	.LASF4
 5793 0050 03       		.uleb128 0x3
 5794 0051 F0050000 		.4byte	.LASF5
ARM GAS  /tmp/ccB9RVXV.s 			page 105


 5795 0055 04       		.byte	0x4
 5796 0056 29       		.byte	0x29
 5797 0057 5B000000 		.4byte	0x5b
 5798 005b 02       		.uleb128 0x2
 5799 005c 02       		.byte	0x2
 5800 005d 05       		.byte	0x5
 5801 005e 3A270000 		.4byte	.LASF6
 5802 0062 03       		.uleb128 0x3
 5803 0063 07060000 		.4byte	.LASF7
 5804 0067 04       		.byte	0x4
 5805 0068 2B       		.byte	0x2b
 5806 0069 6D000000 		.4byte	0x6d
 5807 006d 02       		.uleb128 0x2
 5808 006e 02       		.byte	0x2
 5809 006f 07       		.byte	0x7
 5810 0070 78140000 		.4byte	.LASF8
 5811 0074 03       		.uleb128 0x3
 5812 0075 DE1F0000 		.4byte	.LASF9
 5813 0079 04       		.byte	0x4
 5814 007a 3F       		.byte	0x3f
 5815 007b 7F000000 		.4byte	0x7f
 5816 007f 02       		.uleb128 0x2
 5817 0080 04       		.byte	0x4
 5818 0081 05       		.byte	0x5
 5819 0082 FE160000 		.4byte	.LASF10
 5820 0086 03       		.uleb128 0x3
 5821 0087 E81F0000 		.4byte	.LASF11
 5822 008b 04       		.byte	0x4
 5823 008c 41       		.byte	0x41
 5824 008d 91000000 		.4byte	0x91
 5825 0091 02       		.uleb128 0x2
 5826 0092 04       		.byte	0x4
 5827 0093 07       		.byte	0x7
 5828 0094 E3180000 		.4byte	.LASF12
 5829 0098 02       		.uleb128 0x2
 5830 0099 08       		.byte	0x8
 5831 009a 05       		.byte	0x5
 5832 009b C5240000 		.4byte	.LASF13
 5833 009f 03       		.uleb128 0x3
 5834 00a0 AA0F0000 		.4byte	.LASF14
 5835 00a4 04       		.byte	0x4
 5836 00a5 5B       		.byte	0x5b
 5837 00a6 AA000000 		.4byte	0xaa
 5838 00aa 02       		.uleb128 0x2
 5839 00ab 08       		.byte	0x8
 5840 00ac 07       		.byte	0x7
 5841 00ad 7B210000 		.4byte	.LASF15
 5842 00b1 04       		.uleb128 0x4
 5843 00b2 04       		.byte	0x4
 5844 00b3 05       		.byte	0x5
 5845 00b4 696E7400 		.ascii	"int\000"
 5846 00b8 02       		.uleb128 0x2
 5847 00b9 04       		.byte	0x4
 5848 00ba 07       		.byte	0x7
 5849 00bb 03270000 		.4byte	.LASF16
 5850 00bf 03       		.uleb128 0x3
 5851 00c0 3B130000 		.4byte	.LASF17
ARM GAS  /tmp/ccB9RVXV.s 			page 106


 5852 00c4 05       		.byte	0x5
 5853 00c5 29       		.byte	0x29
 5854 00c6 2C000000 		.4byte	0x2c
 5855 00ca 03       		.uleb128 0x3
 5856 00cb 200B0000 		.4byte	.LASF18
 5857 00cf 05       		.byte	0x5
 5858 00d0 2A       		.byte	0x2a
 5859 00d1 3E000000 		.4byte	0x3e
 5860 00d5 03       		.uleb128 0x3
 5861 00d6 70140000 		.4byte	.LASF19
 5862 00da 05       		.byte	0x5
 5863 00db 35       		.byte	0x35
 5864 00dc 50000000 		.4byte	0x50
 5865 00e0 03       		.uleb128 0x3
 5866 00e1 7F010000 		.4byte	.LASF20
 5867 00e5 05       		.byte	0x5
 5868 00e6 36       		.byte	0x36
 5869 00e7 62000000 		.4byte	0x62
 5870 00eb 03       		.uleb128 0x3
 5871 00ec 40030000 		.4byte	.LASF21
 5872 00f0 05       		.byte	0x5
 5873 00f1 41       		.byte	0x41
 5874 00f2 74000000 		.4byte	0x74
 5875 00f6 03       		.uleb128 0x3
 5876 00f7 3D180000 		.4byte	.LASF22
 5877 00fb 05       		.byte	0x5
 5878 00fc 42       		.byte	0x42
 5879 00fd 86000000 		.4byte	0x86
 5880 0101 03       		.uleb128 0x3
 5881 0102 D9080000 		.4byte	.LASF23
 5882 0106 05       		.byte	0x5
 5883 0107 4E       		.byte	0x4e
 5884 0108 9F000000 		.4byte	0x9f
 5885 010c 03       		.uleb128 0x3
 5886 010d B10A0000 		.4byte	.LASF24
 5887 0111 06       		.byte	0x6
 5888 0112 D4       		.byte	0xd4
 5889 0113 B8000000 		.4byte	0xb8
 5890 0117 05       		.uleb128 0x5
 5891 0118 EB000000 		.4byte	0xeb
 5892 011c 05       		.uleb128 0x5
 5893 011d F6000000 		.4byte	0xf6
 5894 0121 03       		.uleb128 0x3
 5895 0122 130A0000 		.4byte	.LASF25
 5896 0126 07       		.byte	0x7
 5897 0127 45       		.byte	0x45
 5898 0128 F6000000 		.4byte	0xf6
 5899 012c 03       		.uleb128 0x3
 5900 012d 99110000 		.4byte	.LASF26
 5901 0131 07       		.byte	0x7
 5902 0132 48       		.byte	0x48
 5903 0133 CA000000 		.4byte	0xca
 5904 0137 03       		.uleb128 0x3
 5905 0138 1E230000 		.4byte	.LASF27
 5906 013c 07       		.byte	0x7
 5907 013d 49       		.byte	0x49
 5908 013e CA000000 		.4byte	0xca
ARM GAS  /tmp/ccB9RVXV.s 			page 107


 5909 0142 03       		.uleb128 0x3
 5910 0143 CF100000 		.4byte	.LASF28
 5911 0147 07       		.byte	0x7
 5912 0148 4A       		.byte	0x4a
 5913 0149 CA000000 		.4byte	0xca
 5914 014d 03       		.uleb128 0x3
 5915 014e DD130000 		.4byte	.LASF29
 5916 0152 07       		.byte	0x7
 5917 0153 4B       		.byte	0x4b
 5918 0154 CA000000 		.4byte	0xca
 5919 0158 03       		.uleb128 0x3
 5920 0159 FB040000 		.4byte	.LASF30
 5921 015d 07       		.byte	0x7
 5922 015e 4C       		.byte	0x4c
 5923 015f F6000000 		.4byte	0xf6
 5924 0163 03       		.uleb128 0x3
 5925 0164 8B000000 		.4byte	.LASF31
 5926 0168 07       		.byte	0x7
 5927 0169 4D       		.byte	0x4d
 5928 016a EB000000 		.4byte	0xeb
 5929 016e 03       		.uleb128 0x3
 5930 016f B5180000 		.4byte	.LASF32
 5931 0173 07       		.byte	0x7
 5932 0174 4F       		.byte	0x4f
 5933 0175 F6000000 		.4byte	0xf6
 5934 0179 03       		.uleb128 0x3
 5935 017a DA1C0000 		.4byte	.LASF33
 5936 017e 07       		.byte	0x7
 5937 017f 51       		.byte	0x51
 5938 0180 EB000000 		.4byte	0xeb
 5939 0184 03       		.uleb128 0x3
 5940 0185 48030000 		.4byte	.LASF34
 5941 0189 08       		.byte	0x8
 5942 018a 33       		.byte	0x33
 5943 018b F6000000 		.4byte	0xf6
 5944 018f 03       		.uleb128 0x3
 5945 0190 20030000 		.4byte	.LASF35
 5946 0194 08       		.byte	0x8
 5947 0195 3F       		.byte	0x3f
 5948 0196 9A010000 		.4byte	0x19a
 5949 019a 06       		.uleb128 0x6
 5950 019b 9F070000 		.4byte	.LASF57
 5951 019f 48       		.byte	0x48
 5952 01a0 09       		.byte	0x9
 5953 01a1 C2       		.byte	0xc2
 5954 01a2 9F020000 		.4byte	0x29f
 5955 01a6 07       		.uleb128 0x7
 5956 01a7 84100000 		.4byte	.LASF36
 5957 01ab 09       		.byte	0x9
 5958 01ac C3       		.byte	0xc3
 5959 01ad AA020000 		.4byte	0x2aa
 5960 01b1 00       		.byte	0
 5961 01b2 07       		.uleb128 0x7
 5962 01b3 4D0B0000 		.4byte	.LASF37
 5963 01b7 09       		.byte	0x9
 5964 01b8 C5       		.byte	0xc5
 5965 01b9 AA020000 		.4byte	0x2aa
ARM GAS  /tmp/ccB9RVXV.s 			page 108


 5966 01bd 04       		.byte	0x4
 5967 01be 07       		.uleb128 0x7
 5968 01bf 670F0000 		.4byte	.LASF38
 5969 01c3 09       		.byte	0x9
 5970 01c4 C7       		.byte	0xc7
 5971 01c5 58010000 		.4byte	0x158
 5972 01c9 08       		.byte	0x8
 5973 01ca 07       		.uleb128 0x7
 5974 01cb 2E080000 		.4byte	.LASF39
 5975 01cf 09       		.byte	0x9
 5976 01d0 C8       		.byte	0xc8
 5977 01d1 FF050000 		.4byte	0x5ff
 5978 01d5 0C       		.byte	0xc
 5979 01d6 07       		.uleb128 0x7
 5980 01d7 1E020000 		.4byte	.LASF40
 5981 01db 09       		.byte	0x9
 5982 01dc CA       		.byte	0xca
 5983 01dd AA020000 		.4byte	0x2aa
 5984 01e1 10       		.byte	0x10
 5985 01e2 07       		.uleb128 0x7
 5986 01e3 EE250000 		.4byte	.LASF41
 5987 01e7 09       		.byte	0x9
 5988 01e8 CB       		.byte	0xcb
 5989 01e9 AA020000 		.4byte	0x2aa
 5990 01ed 14       		.byte	0x14
 5991 01ee 07       		.uleb128 0x7
 5992 01ef 90230000 		.4byte	.LASF42
 5993 01f3 09       		.byte	0x9
 5994 01f4 D2       		.byte	0xd2
 5995 01f5 44080000 		.4byte	0x844
 5996 01f9 18       		.byte	0x18
 5997 01fa 07       		.uleb128 0x7
 5998 01fb 2D280000 		.4byte	.LASF43
 5999 01ff 09       		.byte	0x9
 6000 0200 DD       		.byte	0xdd
 6001 0201 37010000 		.4byte	0x137
 6002 0205 1C       		.byte	0x1c
 6003 0206 07       		.uleb128 0x7
 6004 0207 93220000 		.4byte	.LASF44
 6005 020b 09       		.byte	0x9
 6006 020c E1       		.byte	0xe1
 6007 020d 2C010000 		.4byte	0x12c
 6008 0211 1D       		.byte	0x1d
 6009 0212 07       		.uleb128 0x7
 6010 0213 BC160000 		.4byte	.LASF45
 6011 0217 09       		.byte	0x9
 6012 0218 E6       		.byte	0xe6
 6013 0219 42010000 		.4byte	0x142
 6014 021d 1E       		.byte	0x1e
 6015 021e 07       		.uleb128 0x7
 6016 021f D3140000 		.4byte	.LASF46
 6017 0223 09       		.byte	0x9
 6018 0224 EC       		.byte	0xec
 6019 0225 4D010000 		.4byte	0x14d
 6020 0229 1F       		.byte	0x1f
 6021 022a 07       		.uleb128 0x7
 6022 022b E8140000 		.4byte	.LASF47
ARM GAS  /tmp/ccB9RVXV.s 			page 109


 6023 022f 09       		.byte	0x9
 6024 0230 F3       		.byte	0xf3
 6025 0231 56080000 		.4byte	0x856
 6026 0235 20       		.byte	0x20
 6027 0236 08       		.uleb128 0x8
 6028 0237 705F7500 		.ascii	"p_u\000"
 6029 023b 09       		.byte	0x9
 6030 023c 3101     		.2byte	0x131
 6031 023e 7F070000 		.4byte	0x77f
 6032 0242 24       		.byte	0x24
 6033 0243 09       		.uleb128 0x9
 6034 0244 35040000 		.4byte	.LASF48
 6035 0248 09       		.byte	0x9
 6036 0249 3601     		.2byte	0x136
 6037 024b B0020000 		.4byte	0x2b0
 6038 024f 28       		.byte	0x28
 6039 0250 09       		.uleb128 0x9
 6040 0251 98150000 		.4byte	.LASF49
 6041 0255 09       		.byte	0x9
 6042 0256 3C01     		.2byte	0x13c
 6043 0258 D4020000 		.4byte	0x2d4
 6044 025c 2C       		.byte	0x2c
 6045 025d 09       		.uleb128 0x9
 6046 025e 24060000 		.4byte	.LASF50
 6047 0262 09       		.byte	0x9
 6048 0263 4001     		.2byte	0x140
 6049 0265 63010000 		.4byte	0x163
 6050 0269 34       		.byte	0x34
 6051 026a 09       		.uleb128 0x9
 6052 026b 97200000 		.4byte	.LASF51
 6053 026f 09       		.byte	0x9
 6054 0270 4601     		.2byte	0x146
 6055 0272 6E010000 		.4byte	0x16e
 6056 0276 38       		.byte	0x38
 6057 0277 09       		.uleb128 0x9
 6058 0278 00230000 		.4byte	.LASF52
 6059 027c 09       		.byte	0x9
 6060 027d 4D01     		.2byte	0x14d
 6061 027f 3E080000 		.4byte	0x83e
 6062 0283 3C       		.byte	0x3c
 6063 0284 09       		.uleb128 0x9
 6064 0285 9E1E0000 		.4byte	.LASF53
 6065 0289 09       		.byte	0x9
 6066 028a 5101     		.2byte	0x151
 6067 028c 58010000 		.4byte	0x158
 6068 0290 40       		.byte	0x40
 6069 0291 09       		.uleb128 0x9
 6070 0292 D7100000 		.4byte	.LASF54
 6071 0296 09       		.byte	0x9
 6072 0297 5801     		.2byte	0x158
 6073 0299 87030000 		.4byte	0x387
 6074 029d 44       		.byte	0x44
 6075 029e 00       		.byte	0
 6076 029f 03       		.uleb128 0x3
 6077 02a0 18260000 		.4byte	.LASF55
 6078 02a4 08       		.byte	0x8
 6079 02a5 44       		.byte	0x44
ARM GAS  /tmp/ccB9RVXV.s 			page 110


 6080 02a6 AA020000 		.4byte	0x2aa
 6081 02aa 0A       		.uleb128 0xa
 6082 02ab 04       		.byte	0x4
 6083 02ac 8F010000 		.4byte	0x18f
 6084 02b0 03       		.uleb128 0x3
 6085 02b1 57040000 		.4byte	.LASF56
 6086 02b5 08       		.byte	0x8
 6087 02b6 49       		.byte	0x49
 6088 02b7 BB020000 		.4byte	0x2bb
 6089 02bb 06       		.uleb128 0x6
 6090 02bc 44280000 		.4byte	.LASF58
 6091 02c0 04       		.byte	0x4
 6092 02c1 09       		.byte	0x9
 6093 02c2 B0       		.byte	0xb0
 6094 02c3 D4020000 		.4byte	0x2d4
 6095 02c7 07       		.uleb128 0x7
 6096 02c8 84100000 		.4byte	.LASF36
 6097 02cc 09       		.byte	0x9
 6098 02cd B1       		.byte	0xb1
 6099 02ce AA020000 		.4byte	0x2aa
 6100 02d2 00       		.byte	0
 6101 02d3 00       		.byte	0
 6102 02d4 03       		.uleb128 0x3
 6103 02d5 71160000 		.4byte	.LASF59
 6104 02d9 08       		.byte	0x8
 6105 02da 50       		.byte	0x50
 6106 02db DF020000 		.4byte	0x2df
 6107 02df 06       		.uleb128 0x6
 6108 02e0 02020000 		.4byte	.LASF60
 6109 02e4 08       		.byte	0x8
 6110 02e5 09       		.byte	0x9
 6111 02e6 B7       		.byte	0xb7
 6112 02e7 04030000 		.4byte	0x304
 6113 02eb 07       		.uleb128 0x7
 6114 02ec 84100000 		.4byte	.LASF36
 6115 02f0 09       		.byte	0x9
 6116 02f1 B8       		.byte	0xb8
 6117 02f2 AA020000 		.4byte	0x2aa
 6118 02f6 00       		.byte	0
 6119 02f7 07       		.uleb128 0x7
 6120 02f8 4D0B0000 		.4byte	.LASF37
 6121 02fc 09       		.byte	0x9
 6122 02fd B9       		.byte	0xb9
 6123 02fe AA020000 		.4byte	0x2aa
 6124 0302 04       		.byte	0x4
 6125 0303 00       		.byte	0
 6126 0304 03       		.uleb128 0x3
 6127 0305 92070000 		.4byte	.LASF61
 6128 0309 08       		.byte	0x8
 6129 030a 57       		.byte	0x57
 6130 030b 0F030000 		.4byte	0x30f
 6131 030f 0B       		.uleb128 0xb
 6132 0310 AD1F0000 		.4byte	.LASF62
 6133 0314 1C       		.byte	0x1c
 6134 0315 09       		.byte	0x9
 6135 0316 9001     		.2byte	0x190
 6136 0318 6B030000 		.4byte	0x36b
ARM GAS  /tmp/ccB9RVXV.s 			page 111


 6137 031c 09       		.uleb128 0x9
 6138 031d E9190000 		.4byte	.LASF63
 6139 0321 09       		.byte	0x9
 6140 0322 9101     		.2byte	0x191
 6141 0324 D4020000 		.4byte	0x2d4
 6142 0328 00       		.byte	0
 6143 0329 09       		.uleb128 0x9
 6144 032a 42210000 		.4byte	.LASF64
 6145 032e 09       		.byte	0x9
 6146 032f 9201     		.2byte	0x192
 6147 0331 58010000 		.4byte	0x158
 6148 0335 08       		.byte	0x8
 6149 0336 09       		.uleb128 0x9
 6150 0337 C3090000 		.4byte	.LASF65
 6151 033b 09       		.byte	0x9
 6152 033c 9401     		.2byte	0x194
 6153 033e FF050000 		.4byte	0x5ff
 6154 0342 0C       		.byte	0xc
 6155 0343 09       		.uleb128 0x9
 6156 0344 62130000 		.4byte	.LASF66
 6157 0348 09       		.byte	0x9
 6158 0349 9701     		.2byte	0x197
 6159 034b AA020000 		.4byte	0x2aa
 6160 034f 10       		.byte	0x10
 6161 0350 09       		.uleb128 0x9
 6162 0351 450B0000 		.4byte	.LASF67
 6163 0355 09       		.byte	0x9
 6164 0356 9801     		.2byte	0x198
 6165 0358 AA020000 		.4byte	0x2aa
 6166 035c 14       		.byte	0x14
 6167 035d 09       		.uleb128 0x9
 6168 035e 59080000 		.4byte	.LASF68
 6169 0362 09       		.byte	0x9
 6170 0363 9B01     		.2byte	0x19b
 6171 0365 AA020000 		.4byte	0x2aa
 6172 0369 18       		.byte	0x18
 6173 036a 00       		.byte	0
 6174 036b 03       		.uleb128 0x3
 6175 036c 5E1E0000 		.4byte	.LASF69
 6176 0370 08       		.byte	0x8
 6177 0371 5C       		.byte	0x5c
 6178 0372 76030000 		.4byte	0x376
 6179 0376 0A       		.uleb128 0xa
 6180 0377 04       		.byte	0x4
 6181 0378 7C030000 		.4byte	0x37c
 6182 037c 0C       		.uleb128 0xc
 6183 037d 87030000 		.4byte	0x387
 6184 0381 0D       		.uleb128 0xd
 6185 0382 87030000 		.4byte	0x387
 6186 0386 00       		.byte	0
 6187 0387 0E       		.uleb128 0xe
 6188 0388 04       		.byte	0x4
 6189 0389 03       		.uleb128 0x3
 6190 038a B3090000 		.4byte	.LASF70
 6191 038e 08       		.byte	0x8
 6192 038f 61       		.byte	0x61
 6193 0390 94030000 		.4byte	0x394
ARM GAS  /tmp/ccB9RVXV.s 			page 112


 6194 0394 0B       		.uleb128 0xb
 6195 0395 82220000 		.4byte	.LASF71
 6196 0399 14       		.byte	0x14
 6197 039a 09       		.byte	0x9
 6198 039b 6B01     		.2byte	0x16b
 6199 039d E3030000 		.4byte	0x3e3
 6200 03a1 09       		.uleb128 0x9
 6201 03a2 C9090000 		.4byte	.LASF72
 6202 03a6 09       		.byte	0x9
 6203 03a7 6C01     		.2byte	0x16c
 6204 03a9 5B080000 		.4byte	0x85b
 6205 03ad 00       		.byte	0
 6206 03ae 09       		.uleb128 0x9
 6207 03af 33070000 		.4byte	.LASF73
 6208 03b3 09       		.byte	0x9
 6209 03b4 6D01     		.2byte	0x16d
 6210 03b6 5B080000 		.4byte	0x85b
 6211 03ba 04       		.byte	0x4
 6212 03bb 09       		.uleb128 0x9
 6213 03bc 24140000 		.4byte	.LASF74
 6214 03c0 09       		.byte	0x9
 6215 03c1 6E01     		.2byte	0x16e
 6216 03c3 84010000 		.4byte	0x184
 6217 03c7 08       		.byte	0x8
 6218 03c8 09       		.uleb128 0x9
 6219 03c9 1C220000 		.4byte	.LASF75
 6220 03cd 09       		.byte	0x9
 6221 03ce 6F01     		.2byte	0x16f
 6222 03d0 6B030000 		.4byte	0x36b
 6223 03d4 0C       		.byte	0xc
 6224 03d5 09       		.uleb128 0x9
 6225 03d6 34080000 		.4byte	.LASF76
 6226 03da 09       		.byte	0x9
 6227 03db 7101     		.2byte	0x171
 6228 03dd 87030000 		.4byte	0x387
 6229 03e1 10       		.byte	0x10
 6230 03e2 00       		.byte	0
 6231 03e3 03       		.uleb128 0x3
 6232 03e4 CA230000 		.4byte	.LASF77
 6233 03e8 08       		.byte	0x8
 6234 03e9 66       		.byte	0x66
 6235 03ea EE030000 		.4byte	0x3ee
 6236 03ee 0B       		.uleb128 0xb
 6237 03ef 29030000 		.4byte	.LASF78
 6238 03f3 10       		.byte	0x10
 6239 03f4 09       		.byte	0x9
 6240 03f5 7B01     		.2byte	0x17b
 6241 03f7 30040000 		.4byte	0x430
 6242 03fb 09       		.uleb128 0x9
 6243 03fc C9090000 		.4byte	.LASF72
 6244 0400 09       		.byte	0x9
 6245 0401 7C01     		.2byte	0x17c
 6246 0403 5B080000 		.4byte	0x85b
 6247 0407 00       		.byte	0
 6248 0408 09       		.uleb128 0x9
 6249 0409 33070000 		.4byte	.LASF73
 6250 040d 09       		.byte	0x9
ARM GAS  /tmp/ccB9RVXV.s 			page 113


 6251 040e 7E01     		.2byte	0x17e
 6252 0410 5B080000 		.4byte	0x85b
 6253 0414 04       		.byte	0x4
 6254 0415 09       		.uleb128 0x9
 6255 0416 24140000 		.4byte	.LASF74
 6256 041a 09       		.byte	0x9
 6257 041b 8001     		.2byte	0x180
 6258 041d 84010000 		.4byte	0x184
 6259 0421 08       		.byte	0x8
 6260 0422 09       		.uleb128 0x9
 6261 0423 28010000 		.4byte	.LASF79
 6262 0427 09       		.byte	0x9
 6263 0428 8201     		.2byte	0x182
 6264 042a 56080000 		.4byte	0x856
 6265 042e 0C       		.byte	0xc
 6266 042f 00       		.byte	0
 6267 0430 03       		.uleb128 0x3
 6268 0431 09080000 		.4byte	.LASF80
 6269 0435 08       		.byte	0x8
 6270 0436 6B       		.byte	0x6b
 6271 0437 3B040000 		.4byte	0x43b
 6272 043b 0B       		.uleb128 0xb
 6273 043c F31F0000 		.4byte	.LASF81
 6274 0440 04       		.byte	0x4
 6275 0441 09       		.byte	0x9
 6276 0442 A201     		.2byte	0x1a2
 6277 0444 56040000 		.4byte	0x456
 6278 0448 09       		.uleb128 0x9
 6279 0449 42130000 		.4byte	.LASF82
 6280 044d 09       		.byte	0x9
 6281 044e AA01     		.2byte	0x1aa
 6282 0450 61080000 		.4byte	0x861
 6283 0454 00       		.byte	0
 6284 0455 00       		.byte	0
 6285 0456 03       		.uleb128 0x3
 6286 0457 D8000000 		.4byte	.LASF83
 6287 045b 08       		.byte	0x8
 6288 045c 70       		.byte	0x70
 6289 045d 61040000 		.4byte	0x461
 6290 0461 0F       		.uleb128 0xf
 6291 0462 13160000 		.4byte	.LASF84
 6292 0466 5802     		.2byte	0x258
 6293 0468 09       		.byte	0x9
 6294 0469 C201     		.2byte	0x1c2
 6295 046b BD040000 		.4byte	0x4bd
 6296 046f 09       		.uleb128 0x9
 6297 0470 51040000 		.4byte	.LASF85
 6298 0474 09       		.byte	0x9
 6299 0475 C601     		.2byte	0x1c6
 6300 0477 04030000 		.4byte	0x304
 6301 047b 00       		.byte	0
 6302 047c 09       		.uleb128 0x9
 6303 047d 1A040000 		.4byte	.LASF86
 6304 0481 09       		.byte	0x9
 6305 0482 CA01     		.2byte	0x1ca
 6306 0484 E3030000 		.4byte	0x3e3
 6307 0488 1C       		.byte	0x1c
ARM GAS  /tmp/ccB9RVXV.s 			page 114


 6308 0489 08       		.uleb128 0x8
 6309 048a 64626700 		.ascii	"dbg\000"
 6310 048e 09       		.byte	0x9
 6311 048f CE01     		.2byte	0x1ce
 6312 0491 30040000 		.4byte	0x430
 6313 0495 2C       		.byte	0x2c
 6314 0496 09       		.uleb128 0x9
 6315 0497 16170000 		.4byte	.LASF87
 6316 049b 09       		.byte	0x9
 6317 049c D201     		.2byte	0x1d2
 6318 049e 8F010000 		.4byte	0x18f
 6319 04a2 30       		.byte	0x30
 6320 04a3 08       		.uleb128 0x8
 6321 04a4 746D00   		.ascii	"tm\000"
 6322 04a7 09       		.byte	0x9
 6323 04a8 D701     		.2byte	0x1d7
 6324 04aa 74070000 		.4byte	0x774
 6325 04ae 78       		.byte	0x78
 6326 04af 09       		.uleb128 0x9
 6327 04b0 06220000 		.4byte	.LASF88
 6328 04b4 09       		.byte	0x9
 6329 04b5 E301     		.2byte	0x1e3
 6330 04b7 66080000 		.4byte	0x866
 6331 04bb 80       		.byte	0x80
 6332 04bc 00       		.byte	0
 6333 04bd 02       		.uleb128 0x2
 6334 04be 04       		.byte	0x4
 6335 04bf 07       		.byte	0x7
 6336 04c0 2D140000 		.4byte	.LASF89
 6337 04c4 10       		.uleb128 0x10
 6338 04c5 54       		.byte	0x54
 6339 04c6 0A       		.byte	0xa
 6340 04c7 EC02     		.2byte	0x2ec
 6341 04c9 DD050000 		.4byte	0x5dd
 6342 04cd 08       		.uleb128 0x8
 6343 04ce 43523100 		.ascii	"CR1\000"
 6344 04d2 0A       		.byte	0xa
 6345 04d3 EE02     		.2byte	0x2ee
 6346 04d5 1C010000 		.4byte	0x11c
 6347 04d9 00       		.byte	0
 6348 04da 08       		.uleb128 0x8
 6349 04db 43523200 		.ascii	"CR2\000"
 6350 04df 0A       		.byte	0xa
 6351 04e0 EF02     		.2byte	0x2ef
 6352 04e2 1C010000 		.4byte	0x11c
 6353 04e6 04       		.byte	0x4
 6354 04e7 09       		.uleb128 0x9
 6355 04e8 24220000 		.4byte	.LASF90
 6356 04ec 0A       		.byte	0xa
 6357 04ed F002     		.2byte	0x2f0
 6358 04ef 1C010000 		.4byte	0x11c
 6359 04f3 08       		.byte	0x8
 6360 04f4 09       		.uleb128 0x9
 6361 04f5 29080000 		.4byte	.LASF91
 6362 04f9 0A       		.byte	0xa
 6363 04fa F102     		.2byte	0x2f1
 6364 04fc 1C010000 		.4byte	0x11c
ARM GAS  /tmp/ccB9RVXV.s 			page 115


 6365 0500 0C       		.byte	0xc
 6366 0501 08       		.uleb128 0x8
 6367 0502 535200   		.ascii	"SR\000"
 6368 0505 0A       		.byte	0xa
 6369 0506 F202     		.2byte	0x2f2
 6370 0508 1C010000 		.4byte	0x11c
 6371 050c 10       		.byte	0x10
 6372 050d 08       		.uleb128 0x8
 6373 050e 45475200 		.ascii	"EGR\000"
 6374 0512 0A       		.byte	0xa
 6375 0513 F302     		.2byte	0x2f3
 6376 0515 1C010000 		.4byte	0x11c
 6377 0519 14       		.byte	0x14
 6378 051a 09       		.uleb128 0x9
 6379 051b E4260000 		.4byte	.LASF92
 6380 051f 0A       		.byte	0xa
 6381 0520 F402     		.2byte	0x2f4
 6382 0522 1C010000 		.4byte	0x11c
 6383 0526 18       		.byte	0x18
 6384 0527 09       		.uleb128 0x9
 6385 0528 EA260000 		.4byte	.LASF93
 6386 052c 0A       		.byte	0xa
 6387 052d F502     		.2byte	0x2f5
 6388 052f 1C010000 		.4byte	0x11c
 6389 0533 1C       		.byte	0x1c
 6390 0534 09       		.uleb128 0x9
 6391 0535 7C050000 		.4byte	.LASF94
 6392 0539 0A       		.byte	0xa
 6393 053a F602     		.2byte	0x2f6
 6394 053c 1C010000 		.4byte	0x11c
 6395 0540 20       		.byte	0x20
 6396 0541 08       		.uleb128 0x8
 6397 0542 434E5400 		.ascii	"CNT\000"
 6398 0546 0A       		.byte	0xa
 6399 0547 F702     		.2byte	0x2f7
 6400 0549 1C010000 		.4byte	0x11c
 6401 054d 24       		.byte	0x24
 6402 054e 08       		.uleb128 0x8
 6403 054f 50534300 		.ascii	"PSC\000"
 6404 0553 0A       		.byte	0xa
 6405 0554 F802     		.2byte	0x2f8
 6406 0556 1C010000 		.4byte	0x11c
 6407 055a 28       		.byte	0x28
 6408 055b 08       		.uleb128 0x8
 6409 055c 41525200 		.ascii	"ARR\000"
 6410 0560 0A       		.byte	0xa
 6411 0561 F902     		.2byte	0x2f9
 6412 0563 1C010000 		.4byte	0x11c
 6413 0567 2C       		.byte	0x2c
 6414 0568 08       		.uleb128 0x8
 6415 0569 52435200 		.ascii	"RCR\000"
 6416 056d 0A       		.byte	0xa
 6417 056e FA02     		.2byte	0x2fa
 6418 0570 1C010000 		.4byte	0x11c
 6419 0574 30       		.byte	0x30
 6420 0575 09       		.uleb128 0x9
 6421 0576 5F0D0000 		.4byte	.LASF95
ARM GAS  /tmp/ccB9RVXV.s 			page 116


 6422 057a 0A       		.byte	0xa
 6423 057b FB02     		.2byte	0x2fb
 6424 057d 1C010000 		.4byte	0x11c
 6425 0581 34       		.byte	0x34
 6426 0582 09       		.uleb128 0x9
 6427 0583 640D0000 		.4byte	.LASF96
 6428 0587 0A       		.byte	0xa
 6429 0588 FC02     		.2byte	0x2fc
 6430 058a 1C010000 		.4byte	0x11c
 6431 058e 38       		.byte	0x38
 6432 058f 09       		.uleb128 0x9
 6433 0590 690D0000 		.4byte	.LASF97
 6434 0594 0A       		.byte	0xa
 6435 0595 FD02     		.2byte	0x2fd
 6436 0597 1C010000 		.4byte	0x11c
 6437 059b 3C       		.byte	0x3c
 6438 059c 09       		.uleb128 0x9
 6439 059d 6E0D0000 		.4byte	.LASF98
 6440 05a1 0A       		.byte	0xa
 6441 05a2 FE02     		.2byte	0x2fe
 6442 05a4 1C010000 		.4byte	0x11c
 6443 05a8 40       		.byte	0x40
 6444 05a9 09       		.uleb128 0x9
 6445 05aa 7A010000 		.4byte	.LASF99
 6446 05ae 0A       		.byte	0xa
 6447 05af FF02     		.2byte	0x2ff
 6448 05b1 1C010000 		.4byte	0x11c
 6449 05b5 44       		.byte	0x44
 6450 05b6 08       		.uleb128 0x8
 6451 05b7 44435200 		.ascii	"DCR\000"
 6452 05bb 0A       		.byte	0xa
 6453 05bc 0003     		.2byte	0x300
 6454 05be 1C010000 		.4byte	0x11c
 6455 05c2 48       		.byte	0x48
 6456 05c3 09       		.uleb128 0x9
 6457 05c4 0E160000 		.4byte	.LASF100
 6458 05c8 0A       		.byte	0xa
 6459 05c9 0103     		.2byte	0x301
 6460 05cb 1C010000 		.4byte	0x11c
 6461 05cf 4C       		.byte	0x4c
 6462 05d0 08       		.uleb128 0x8
 6463 05d1 4F5200   		.ascii	"OR\000"
 6464 05d4 0A       		.byte	0xa
 6465 05d5 0203     		.2byte	0x302
 6466 05d7 1C010000 		.4byte	0x11c
 6467 05db 50       		.byte	0x50
 6468 05dc 00       		.byte	0
 6469 05dd 11       		.uleb128 0x11
 6470 05de E4110000 		.4byte	.LASF101
 6471 05e2 0A       		.byte	0xa
 6472 05e3 0303     		.2byte	0x303
 6473 05e5 C4040000 		.4byte	0x4c4
 6474 05e9 03       		.uleb128 0x3
 6475 05ea AC180000 		.4byte	.LASF102
 6476 05ee 0B       		.byte	0xb
 6477 05ef 65       		.byte	0x65
 6478 05f0 87030000 		.4byte	0x387
ARM GAS  /tmp/ccB9RVXV.s 			page 117


 6479 05f4 03       		.uleb128 0x3
 6480 05f5 28070000 		.4byte	.LASF103
 6481 05f9 0B       		.byte	0xb
 6482 05fa 6D       		.byte	0x6d
 6483 05fb 01010000 		.4byte	0x101
 6484 05ff 06       		.uleb128 0x6
 6485 0600 AF170000 		.4byte	.LASF104
 6486 0604 04       		.byte	0x4
 6487 0605 0B       		.byte	0xb
 6488 0606 89       		.byte	0x89
 6489 0607 18060000 		.4byte	0x618
 6490 060b 12       		.uleb128 0x12
 6491 060c 72313300 		.ascii	"r13\000"
 6492 0610 0B       		.byte	0xb
 6493 0611 8A       		.byte	0x8a
 6494 0612 59070000 		.4byte	0x759
 6495 0616 00       		.byte	0
 6496 0617 00       		.byte	0
 6497 0618 06       		.uleb128 0x6
 6498 0619 00000000 		.4byte	.LASF105
 6499 061d 64       		.byte	0x64
 6500 061e 0C       		.byte	0xc
 6501 061f F4       		.byte	0xf4
 6502 0620 59070000 		.4byte	0x759
 6503 0624 12       		.uleb128 0x12
 6504 0625 73313600 		.ascii	"s16\000"
 6505 0629 0C       		.byte	0xc
 6506 062a F6       		.byte	0xf6
 6507 062b E9050000 		.4byte	0x5e9
 6508 062f 00       		.byte	0
 6509 0630 12       		.uleb128 0x12
 6510 0631 73313700 		.ascii	"s17\000"
 6511 0635 0C       		.byte	0xc
 6512 0636 F7       		.byte	0xf7
 6513 0637 E9050000 		.4byte	0x5e9
 6514 063b 04       		.byte	0x4
 6515 063c 12       		.uleb128 0x12
 6516 063d 73313800 		.ascii	"s18\000"
 6517 0641 0C       		.byte	0xc
 6518 0642 F8       		.byte	0xf8
 6519 0643 E9050000 		.4byte	0x5e9
 6520 0647 08       		.byte	0x8
 6521 0648 12       		.uleb128 0x12
 6522 0649 73313900 		.ascii	"s19\000"
 6523 064d 0C       		.byte	0xc
 6524 064e F9       		.byte	0xf9
 6525 064f E9050000 		.4byte	0x5e9
 6526 0653 0C       		.byte	0xc
 6527 0654 12       		.uleb128 0x12
 6528 0655 73323000 		.ascii	"s20\000"
 6529 0659 0C       		.byte	0xc
 6530 065a FA       		.byte	0xfa
 6531 065b E9050000 		.4byte	0x5e9
 6532 065f 10       		.byte	0x10
 6533 0660 12       		.uleb128 0x12
 6534 0661 73323100 		.ascii	"s21\000"
 6535 0665 0C       		.byte	0xc
ARM GAS  /tmp/ccB9RVXV.s 			page 118


 6536 0666 FB       		.byte	0xfb
 6537 0667 E9050000 		.4byte	0x5e9
 6538 066b 14       		.byte	0x14
 6539 066c 12       		.uleb128 0x12
 6540 066d 73323200 		.ascii	"s22\000"
 6541 0671 0C       		.byte	0xc
 6542 0672 FC       		.byte	0xfc
 6543 0673 E9050000 		.4byte	0x5e9
 6544 0677 18       		.byte	0x18
 6545 0678 12       		.uleb128 0x12
 6546 0679 73323300 		.ascii	"s23\000"
 6547 067d 0C       		.byte	0xc
 6548 067e FD       		.byte	0xfd
 6549 067f E9050000 		.4byte	0x5e9
 6550 0683 1C       		.byte	0x1c
 6551 0684 12       		.uleb128 0x12
 6552 0685 73323400 		.ascii	"s24\000"
 6553 0689 0C       		.byte	0xc
 6554 068a FE       		.byte	0xfe
 6555 068b E9050000 		.4byte	0x5e9
 6556 068f 20       		.byte	0x20
 6557 0690 12       		.uleb128 0x12
 6558 0691 73323500 		.ascii	"s25\000"
 6559 0695 0C       		.byte	0xc
 6560 0696 FF       		.byte	0xff
 6561 0697 E9050000 		.4byte	0x5e9
 6562 069b 24       		.byte	0x24
 6563 069c 08       		.uleb128 0x8
 6564 069d 73323600 		.ascii	"s26\000"
 6565 06a1 0C       		.byte	0xc
 6566 06a2 0001     		.2byte	0x100
 6567 06a4 E9050000 		.4byte	0x5e9
 6568 06a8 28       		.byte	0x28
 6569 06a9 08       		.uleb128 0x8
 6570 06aa 73323700 		.ascii	"s27\000"
 6571 06ae 0C       		.byte	0xc
 6572 06af 0101     		.2byte	0x101
 6573 06b1 E9050000 		.4byte	0x5e9
 6574 06b5 2C       		.byte	0x2c
 6575 06b6 08       		.uleb128 0x8
 6576 06b7 73323800 		.ascii	"s28\000"
 6577 06bb 0C       		.byte	0xc
 6578 06bc 0201     		.2byte	0x102
 6579 06be E9050000 		.4byte	0x5e9
 6580 06c2 30       		.byte	0x30
 6581 06c3 08       		.uleb128 0x8
 6582 06c4 73323900 		.ascii	"s29\000"
 6583 06c8 0C       		.byte	0xc
 6584 06c9 0301     		.2byte	0x103
 6585 06cb E9050000 		.4byte	0x5e9
 6586 06cf 34       		.byte	0x34
 6587 06d0 08       		.uleb128 0x8
 6588 06d1 73333000 		.ascii	"s30\000"
 6589 06d5 0C       		.byte	0xc
 6590 06d6 0401     		.2byte	0x104
 6591 06d8 E9050000 		.4byte	0x5e9
 6592 06dc 38       		.byte	0x38
ARM GAS  /tmp/ccB9RVXV.s 			page 119


 6593 06dd 08       		.uleb128 0x8
 6594 06de 73333100 		.ascii	"s31\000"
 6595 06e2 0C       		.byte	0xc
 6596 06e3 0501     		.2byte	0x105
 6597 06e5 E9050000 		.4byte	0x5e9
 6598 06e9 3C       		.byte	0x3c
 6599 06ea 08       		.uleb128 0x8
 6600 06eb 723400   		.ascii	"r4\000"
 6601 06ee 0C       		.byte	0xc
 6602 06ef 0701     		.2byte	0x107
 6603 06f1 E9050000 		.4byte	0x5e9
 6604 06f5 40       		.byte	0x40
 6605 06f6 08       		.uleb128 0x8
 6606 06f7 723500   		.ascii	"r5\000"
 6607 06fa 0C       		.byte	0xc
 6608 06fb 0801     		.2byte	0x108
 6609 06fd E9050000 		.4byte	0x5e9
 6610 0701 44       		.byte	0x44
 6611 0702 08       		.uleb128 0x8
 6612 0703 723600   		.ascii	"r6\000"
 6613 0706 0C       		.byte	0xc
 6614 0707 0901     		.2byte	0x109
 6615 0709 E9050000 		.4byte	0x5e9
 6616 070d 48       		.byte	0x48
 6617 070e 08       		.uleb128 0x8
 6618 070f 723700   		.ascii	"r7\000"
 6619 0712 0C       		.byte	0xc
 6620 0713 0A01     		.2byte	0x10a
 6621 0715 E9050000 		.4byte	0x5e9
 6622 0719 4C       		.byte	0x4c
 6623 071a 08       		.uleb128 0x8
 6624 071b 723800   		.ascii	"r8\000"
 6625 071e 0C       		.byte	0xc
 6626 071f 0B01     		.2byte	0x10b
 6627 0721 E9050000 		.4byte	0x5e9
 6628 0725 50       		.byte	0x50
 6629 0726 08       		.uleb128 0x8
 6630 0727 723900   		.ascii	"r9\000"
 6631 072a 0C       		.byte	0xc
 6632 072b 0C01     		.2byte	0x10c
 6633 072d E9050000 		.4byte	0x5e9
 6634 0731 54       		.byte	0x54
 6635 0732 08       		.uleb128 0x8
 6636 0733 72313000 		.ascii	"r10\000"
 6637 0737 0C       		.byte	0xc
 6638 0738 0D01     		.2byte	0x10d
 6639 073a E9050000 		.4byte	0x5e9
 6640 073e 58       		.byte	0x58
 6641 073f 08       		.uleb128 0x8
 6642 0740 72313100 		.ascii	"r11\000"
 6643 0744 0C       		.byte	0xc
 6644 0745 0E01     		.2byte	0x10e
 6645 0747 E9050000 		.4byte	0x5e9
 6646 074b 5C       		.byte	0x5c
 6647 074c 08       		.uleb128 0x8
 6648 074d 6C7200   		.ascii	"lr\000"
 6649 0750 0C       		.byte	0xc
ARM GAS  /tmp/ccB9RVXV.s 			page 120


 6650 0751 0F01     		.2byte	0x10f
 6651 0753 E9050000 		.4byte	0x5e9
 6652 0757 60       		.byte	0x60
 6653 0758 00       		.byte	0
 6654 0759 0A       		.uleb128 0xa
 6655 075a 04       		.byte	0x4
 6656 075b 18060000 		.4byte	0x618
 6657 075f 13       		.uleb128 0x13
 6658 0760 04       		.byte	0x4
 6659 0761 0D       		.byte	0xd
 6660 0762 38       		.byte	0x38
 6661 0763 74070000 		.4byte	0x774
 6662 0767 07       		.uleb128 0x7
 6663 0768 92210000 		.4byte	.LASF106
 6664 076c 0D       		.byte	0xd
 6665 076d 3C       		.byte	0x3c
 6666 076e 21010000 		.4byte	0x121
 6667 0772 00       		.byte	0
 6668 0773 00       		.byte	0
 6669 0774 03       		.uleb128 0x3
 6670 0775 4E260000 		.4byte	.LASF107
 6671 0779 0D       		.byte	0xd
 6672 077a 3D       		.byte	0x3d
 6673 077b 5F070000 		.4byte	0x75f
 6674 077f 14       		.uleb128 0x14
 6675 0780 04       		.byte	0x4
 6676 0781 09       		.byte	0x9
 6677 0782 FA       		.byte	0xfa
 6678 0783 DC070000 		.4byte	0x7dc
 6679 0787 15       		.uleb128 0x15
 6680 0788 1C0F0000 		.4byte	.LASF108
 6681 078c 09       		.byte	0x9
 6682 078d 0101     		.2byte	0x101
 6683 078f 63010000 		.4byte	0x163
 6684 0793 15       		.uleb128 0x15
 6685 0794 B80B0000 		.4byte	.LASF109
 6686 0798 09       		.byte	0x9
 6687 0799 0801     		.2byte	0x108
 6688 079b 63010000 		.4byte	0x163
 6689 079f 15       		.uleb128 0x15
 6690 07a0 7D1E0000 		.4byte	.LASF110
 6691 07a4 09       		.byte	0x9
 6692 07a5 0F01     		.2byte	0x10f
 6693 07a7 87030000 		.4byte	0x387
 6694 07ab 15       		.uleb128 0x15
 6695 07ac A9170000 		.4byte	.LASF111
 6696 07b0 09       		.byte	0x9
 6697 07b1 1601     		.2byte	0x116
 6698 07b3 DC070000 		.4byte	0x7dc
 6699 07b7 15       		.uleb128 0x15
 6700 07b8 EE000000 		.4byte	.LASF112
 6701 07bc 09       		.byte	0x9
 6702 07bd 1E01     		.2byte	0x11e
 6703 07bf 07080000 		.4byte	0x807
 6704 07c3 15       		.uleb128 0x15
 6705 07c4 BD1E0000 		.4byte	.LASF113
 6706 07c8 09       		.byte	0x9
ARM GAS  /tmp/ccB9RVXV.s 			page 121


 6707 07c9 2701     		.2byte	0x127
 6708 07cb 3E080000 		.4byte	0x83e
 6709 07cf 15       		.uleb128 0x15
 6710 07d0 9B220000 		.4byte	.LASF114
 6711 07d4 09       		.byte	0x9
 6712 07d5 2F01     		.2byte	0x12f
 6713 07d7 6E010000 		.4byte	0x16e
 6714 07db 00       		.byte	0
 6715 07dc 0A       		.uleb128 0xa
 6716 07dd 04       		.byte	0x4
 6717 07de 9F020000 		.4byte	0x29f
 6718 07e2 06       		.uleb128 0x6
 6719 07e3 4D160000 		.4byte	.LASF115
 6720 07e7 0C       		.byte	0xc
 6721 07e8 0E       		.byte	0xe
 6722 07e9 34       		.byte	0x34
 6723 07ea 07080000 		.4byte	0x807
 6724 07ee 07       		.uleb128 0x7
 6725 07ef 63240000 		.4byte	.LASF116
 6726 07f3 0E       		.byte	0xe
 6727 07f4 35       		.byte	0x35
 6728 07f5 D4020000 		.4byte	0x2d4
 6729 07f9 00       		.byte	0
 6730 07fa 07       		.uleb128 0x7
 6731 07fb 8C070000 		.4byte	.LASF117
 6732 07ff 0E       		.byte	0xe
 6733 0800 37       		.byte	0x37
 6734 0801 79010000 		.4byte	0x179
 6735 0805 08       		.byte	0x8
 6736 0806 00       		.byte	0
 6737 0807 0A       		.uleb128 0xa
 6738 0808 04       		.byte	0x4
 6739 0809 E2070000 		.4byte	0x7e2
 6740 080d 06       		.uleb128 0x6
 6741 080e 29090000 		.4byte	.LASF118
 6742 0812 10       		.byte	0x10
 6743 0813 0F       		.byte	0xf
 6744 0814 39       		.byte	0x39
 6745 0815 3E080000 		.4byte	0x83e
 6746 0819 07       		.uleb128 0x7
 6747 081a 21170000 		.4byte	.LASF119
 6748 081e 0F       		.byte	0xf
 6749 081f 3A       		.byte	0x3a
 6750 0820 D4020000 		.4byte	0x2d4
 6751 0824 00       		.byte	0
 6752 0825 07       		.uleb128 0x7
 6753 0826 B8150000 		.4byte	.LASF120
 6754 082a 0F       		.byte	0xf
 6755 082b 3C       		.byte	0x3c
 6756 082c AA020000 		.4byte	0x2aa
 6757 0830 08       		.byte	0x8
 6758 0831 07       		.uleb128 0x7
 6759 0832 44010000 		.4byte	.LASF121
 6760 0836 0F       		.byte	0xf
 6761 0837 3E       		.byte	0x3e
 6762 0838 8C080000 		.4byte	0x88c
 6763 083c 0C       		.byte	0xc
ARM GAS  /tmp/ccB9RVXV.s 			page 122


 6764 083d 00       		.byte	0
 6765 083e 0A       		.uleb128 0xa
 6766 083f 04       		.byte	0x4
 6767 0840 0D080000 		.4byte	0x80d
 6768 0844 0A       		.uleb128 0xa
 6769 0845 04       		.byte	0x4
 6770 0846 4A080000 		.4byte	0x84a
 6771 084a 16       		.uleb128 0x16
 6772 084b 4F080000 		.4byte	0x84f
 6773 084f 02       		.uleb128 0x2
 6774 0850 01       		.byte	0x1
 6775 0851 08       		.byte	0x8
 6776 0852 E4190000 		.4byte	.LASF122
 6777 0856 05       		.uleb128 0x5
 6778 0857 84010000 		.4byte	0x184
 6779 085b 0A       		.uleb128 0xa
 6780 085c 04       		.byte	0x4
 6781 085d 89030000 		.4byte	0x389
 6782 0861 05       		.uleb128 0x5
 6783 0862 44080000 		.4byte	0x844
 6784 0866 17       		.uleb128 0x17
 6785 0867 F4050000 		.4byte	0x5f4
 6786 086b 76080000 		.4byte	0x876
 6787 086f 18       		.uleb128 0x18
 6788 0870 BD040000 		.4byte	0x4bd
 6789 0874 3A       		.byte	0x3a
 6790 0875 00       		.byte	0
 6791 0876 03       		.uleb128 0x3
 6792 0877 D1050000 		.4byte	.LASF123
 6793 087b 10       		.byte	0x10
 6794 087c 34       		.byte	0x34
 6795 087d 76030000 		.4byte	0x376
 6796 0881 03       		.uleb128 0x3
 6797 0882 72200000 		.4byte	.LASF124
 6798 0886 0F       		.byte	0xf
 6799 0887 34       		.byte	0x34
 6800 0888 0D080000 		.4byte	0x80d
 6801 088c 0A       		.uleb128 0xa
 6802 088d 04       		.byte	0x4
 6803 088e 81080000 		.4byte	0x881
 6804 0892 0A       		.uleb128 0xa
 6805 0893 04       		.byte	0x4
 6806 0894 CA000000 		.4byte	0xca
 6807 0898 19       		.uleb128 0x19
 6808 0899 01       		.byte	0x1
 6809 089a 11       		.byte	0x11
 6810 089b 1C       		.byte	0x1c
 6811 089c B9080000 		.4byte	0x8b9
 6812 08a0 1A       		.uleb128 0x1a
 6813 08a1 97250000 		.4byte	.LASF125
 6814 08a5 00       		.sleb128 0
 6815 08a6 1A       		.uleb128 0x1a
 6816 08a7 9E020000 		.4byte	.LASF126
 6817 08ab 01       		.sleb128 1
 6818 08ac 1A       		.uleb128 0x1a
 6819 08ad A3120000 		.4byte	.LASF127
 6820 08b1 02       		.sleb128 2
ARM GAS  /tmp/ccB9RVXV.s 			page 123


 6821 08b2 1A       		.uleb128 0x1a
 6822 08b3 A2030000 		.4byte	.LASF128
 6823 08b7 03       		.sleb128 3
 6824 08b8 00       		.byte	0
 6825 08b9 03       		.uleb128 0x3
 6826 08ba 021B0000 		.4byte	.LASF129
 6827 08be 11       		.byte	0x11
 6828 08bf 21       		.byte	0x21
 6829 08c0 98080000 		.4byte	0x898
 6830 08c4 19       		.uleb128 0x19
 6831 08c5 01       		.byte	0x1
 6832 08c6 11       		.byte	0x11
 6833 08c7 23       		.byte	0x23
 6834 08c8 DF080000 		.4byte	0x8df
 6835 08cc 1A       		.uleb128 0x1a
 6836 08cd E0230000 		.4byte	.LASF130
 6837 08d1 00       		.sleb128 0
 6838 08d2 1A       		.uleb128 0x1a
 6839 08d3 69190000 		.4byte	.LASF131
 6840 08d7 01       		.sleb128 1
 6841 08d8 1A       		.uleb128 0x1a
 6842 08d9 B6030000 		.4byte	.LASF132
 6843 08dd 02       		.sleb128 2
 6844 08de 00       		.byte	0
 6845 08df 03       		.uleb128 0x3
 6846 08e0 C7030000 		.4byte	.LASF133
 6847 08e4 11       		.byte	0x11
 6848 08e5 27       		.byte	0x27
 6849 08e6 C4080000 		.4byte	0x8c4
 6850 08ea 19       		.uleb128 0x19
 6851 08eb 01       		.byte	0x1
 6852 08ec 11       		.byte	0x11
 6853 08ed 29       		.byte	0x29
 6854 08ee FF080000 		.4byte	0x8ff
 6855 08f2 1A       		.uleb128 0x1a
 6856 08f3 64170000 		.4byte	.LASF134
 6857 08f7 00       		.sleb128 0
 6858 08f8 1A       		.uleb128 0x1a
 6859 08f9 54280000 		.4byte	.LASF135
 6860 08fd 01       		.sleb128 1
 6861 08fe 00       		.byte	0
 6862 08ff 03       		.uleb128 0x3
 6863 0900 5A230000 		.4byte	.LASF136
 6864 0904 11       		.byte	0x11
 6865 0905 2C       		.byte	0x2c
 6866 0906 EA080000 		.4byte	0x8ea
 6867 090a 19       		.uleb128 0x19
 6868 090b 01       		.byte	0x1
 6869 090c 11       		.byte	0x11
 6870 090d 2E       		.byte	0x2e
 6871 090e 25090000 		.4byte	0x925
 6872 0912 1A       		.uleb128 0x1a
 6873 0913 961F0000 		.4byte	.LASF137
 6874 0917 00       		.sleb128 0
 6875 0918 1A       		.uleb128 0x1a
 6876 0919 4C090000 		.4byte	.LASF138
 6877 091d 01       		.sleb128 1
ARM GAS  /tmp/ccB9RVXV.s 			page 124


 6878 091e 1A       		.uleb128 0x1a
 6879 091f 1B0A0000 		.4byte	.LASF139
 6880 0923 02       		.sleb128 2
 6881 0924 00       		.byte	0
 6882 0925 03       		.uleb128 0x3
 6883 0926 EF160000 		.4byte	.LASF140
 6884 092a 11       		.byte	0x11
 6885 092b 32       		.byte	0x32
 6886 092c 0A090000 		.4byte	0x90a
 6887 0930 19       		.uleb128 0x19
 6888 0931 01       		.byte	0x1
 6889 0932 11       		.byte	0x11
 6890 0933 34       		.byte	0x34
 6891 0934 4B090000 		.4byte	0x94b
 6892 0938 1A       		.uleb128 0x1a
 6893 0939 A1160000 		.4byte	.LASF141
 6894 093d 00       		.sleb128 0
 6895 093e 1A       		.uleb128 0x1a
 6896 093f 81050000 		.4byte	.LASF142
 6897 0943 01       		.sleb128 1
 6898 0944 1A       		.uleb128 0x1a
 6899 0945 66210000 		.4byte	.LASF143
 6900 0949 02       		.sleb128 2
 6901 094a 00       		.byte	0
 6902 094b 03       		.uleb128 0x3
 6903 094c F0260000 		.4byte	.LASF144
 6904 0950 11       		.byte	0x11
 6905 0951 38       		.byte	0x38
 6906 0952 30090000 		.4byte	0x930
 6907 0956 19       		.uleb128 0x19
 6908 0957 01       		.byte	0x1
 6909 0958 11       		.byte	0x11
 6910 0959 3A       		.byte	0x3a
 6911 095a 71090000 		.4byte	0x971
 6912 095e 1A       		.uleb128 0x1a
 6913 095f B7270000 		.4byte	.LASF145
 6914 0963 00       		.sleb128 0
 6915 0964 1A       		.uleb128 0x1a
 6916 0965 82120000 		.4byte	.LASF146
 6917 0969 01       		.sleb128 1
 6918 096a 1A       		.uleb128 0x1a
 6919 096b 440D0000 		.4byte	.LASF147
 6920 096f 02       		.sleb128 2
 6921 0970 00       		.byte	0
 6922 0971 03       		.uleb128 0x3
 6923 0972 C41E0000 		.4byte	.LASF148
 6924 0976 11       		.byte	0x11
 6925 0977 3E       		.byte	0x3e
 6926 0978 56090000 		.4byte	0x956
 6927 097c 19       		.uleb128 0x19
 6928 097d 01       		.byte	0x1
 6929 097e 11       		.byte	0x11
 6930 097f 40       		.byte	0x40
 6931 0980 AF090000 		.4byte	0x9af
 6932 0984 1A       		.uleb128 0x1a
 6933 0985 211D0000 		.4byte	.LASF149
 6934 0989 00       		.sleb128 0
ARM GAS  /tmp/ccB9RVXV.s 			page 125


 6935 098a 1A       		.uleb128 0x1a
 6936 098b B70D0000 		.4byte	.LASF150
 6937 098f 01       		.sleb128 1
 6938 0990 1A       		.uleb128 0x1a
 6939 0991 491C0000 		.4byte	.LASF151
 6940 0995 02       		.sleb128 2
 6941 0996 1A       		.uleb128 0x1a
 6942 0997 19070000 		.4byte	.LASF152
 6943 099b 03       		.sleb128 3
 6944 099c 1A       		.uleb128 0x1a
 6945 099d 9E080000 		.4byte	.LASF153
 6946 09a1 04       		.sleb128 4
 6947 09a2 1A       		.uleb128 0x1a
 6948 09a3 82030000 		.4byte	.LASF154
 6949 09a7 05       		.sleb128 5
 6950 09a8 1A       		.uleb128 0x1a
 6951 09a9 66150000 		.4byte	.LASF155
 6952 09ad 06       		.sleb128 6
 6953 09ae 00       		.byte	0
 6954 09af 03       		.uleb128 0x3
 6955 09b0 72240000 		.4byte	.LASF156
 6956 09b4 11       		.byte	0x11
 6957 09b5 48       		.byte	0x48
 6958 09b6 7C090000 		.4byte	0x97c
 6959 09ba 19       		.uleb128 0x19
 6960 09bb 01       		.byte	0x1
 6961 09bc 11       		.byte	0x11
 6962 09bd 5F       		.byte	0x5f
 6963 09be D5090000 		.4byte	0x9d5
 6964 09c2 1A       		.uleb128 0x1a
 6965 09c3 81160000 		.4byte	.LASF157
 6966 09c7 00       		.sleb128 0
 6967 09c8 1A       		.uleb128 0x1a
 6968 09c9 730A0000 		.4byte	.LASF158
 6969 09cd 01       		.sleb128 1
 6970 09ce 1A       		.uleb128 0x1a
 6971 09cf E70A0000 		.4byte	.LASF159
 6972 09d3 02       		.sleb128 2
 6973 09d4 00       		.byte	0
 6974 09d5 03       		.uleb128 0x3
 6975 09d6 D3260000 		.4byte	.LASF160
 6976 09da 11       		.byte	0x11
 6977 09db 63       		.byte	0x63
 6978 09dc BA090000 		.4byte	0x9ba
 6979 09e0 19       		.uleb128 0x19
 6980 09e1 01       		.byte	0x1
 6981 09e2 11       		.byte	0x11
 6982 09e3 6F       		.byte	0x6f
 6983 09e4 010A0000 		.4byte	0xa01
 6984 09e8 1A       		.uleb128 0x1a
 6985 09e9 62030000 		.4byte	.LASF161
 6986 09ed 00       		.sleb128 0
 6987 09ee 1A       		.uleb128 0x1a
 6988 09ef 841E0000 		.4byte	.LASF162
 6989 09f3 01       		.sleb128 1
 6990 09f4 1A       		.uleb128 0x1a
 6991 09f5 D9050000 		.4byte	.LASF163
ARM GAS  /tmp/ccB9RVXV.s 			page 126


 6992 09f9 02       		.sleb128 2
 6993 09fa 1A       		.uleb128 0x1a
 6994 09fb 0B240000 		.4byte	.LASF164
 6995 09ff 03       		.sleb128 3
 6996 0a00 00       		.byte	0
 6997 0a01 03       		.uleb128 0x3
 6998 0a02 99190000 		.4byte	.LASF165
 6999 0a06 11       		.byte	0x11
 7000 0a07 74       		.byte	0x74
 7001 0a08 E0090000 		.4byte	0x9e0
 7002 0a0c 19       		.uleb128 0x19
 7003 0a0d 01       		.byte	0x1
 7004 0a0e 11       		.byte	0x11
 7005 0a0f 76       		.byte	0x76
 7006 0a10 450A0000 		.4byte	0xa45
 7007 0a14 1A       		.uleb128 0x1a
 7008 0a15 E01B0000 		.4byte	.LASF166
 7009 0a19 00       		.sleb128 0
 7010 0a1a 1A       		.uleb128 0x1a
 7011 0a1b D21E0000 		.4byte	.LASF167
 7012 0a1f 01       		.sleb128 1
 7013 0a20 1A       		.uleb128 0x1a
 7014 0a21 520F0000 		.4byte	.LASF168
 7015 0a25 02       		.sleb128 2
 7016 0a26 1A       		.uleb128 0x1a
 7017 0a27 1A1E0000 		.4byte	.LASF169
 7018 0a2b 03       		.sleb128 3
 7019 0a2c 1A       		.uleb128 0x1a
 7020 0a2d 030B0000 		.4byte	.LASF170
 7021 0a31 04       		.sleb128 4
 7022 0a32 1A       		.uleb128 0x1a
 7023 0a33 3E200000 		.4byte	.LASF171
 7024 0a37 05       		.sleb128 5
 7025 0a38 1A       		.uleb128 0x1a
 7026 0a39 3A1D0000 		.4byte	.LASF172
 7027 0a3d 06       		.sleb128 6
 7028 0a3e 1A       		.uleb128 0x1a
 7029 0a3f 61120000 		.4byte	.LASF173
 7030 0a43 07       		.sleb128 7
 7031 0a44 00       		.byte	0
 7032 0a45 03       		.uleb128 0x3
 7033 0a46 80240000 		.4byte	.LASF174
 7034 0a4a 11       		.byte	0x11
 7035 0a4b 7F       		.byte	0x7f
 7036 0a4c 0C0A0000 		.4byte	0xa0c
 7037 0a50 1B       		.uleb128 0x1b
 7038 0a51 7401     		.2byte	0x174
 7039 0a53 11       		.byte	0x11
 7040 0a54 88       		.byte	0x88
 7041 0a55 050F0000 		.4byte	0xf05
 7042 0a59 07       		.uleb128 0x7
 7043 0a5a FF100000 		.4byte	.LASF175
 7044 0a5e 11       		.byte	0x11
 7045 0a5f 8A       		.byte	0x8a
 7046 0a60 DF080000 		.4byte	0x8df
 7047 0a64 00       		.byte	0
 7048 0a65 07       		.uleb128 0x7
ARM GAS  /tmp/ccB9RVXV.s 			page 127


 7049 0a66 6E080000 		.4byte	.LASF176
 7050 0a6a 11       		.byte	0x11
 7051 0a6b 8B       		.byte	0x8b
 7052 0a6c FF080000 		.4byte	0x8ff
 7053 0a70 01       		.byte	0x1
 7054 0a71 07       		.uleb128 0x7
 7055 0a72 26110000 		.4byte	.LASF177
 7056 0a76 11       		.byte	0x11
 7057 0a77 8C       		.byte	0x8c
 7058 0a78 71090000 		.4byte	0x971
 7059 0a7c 02       		.byte	0x2
 7060 0a7d 07       		.uleb128 0x7
 7061 0a7e 8A1F0000 		.4byte	.LASF178
 7062 0a82 11       		.byte	0x11
 7063 0a83 8D       		.byte	0x8d
 7064 0a84 25090000 		.4byte	0x925
 7065 0a88 03       		.byte	0x3
 7066 0a89 07       		.uleb128 0x7
 7067 0a8a 30160000 		.4byte	.LASF179
 7068 0a8e 11       		.byte	0x11
 7069 0a8f 8F       		.byte	0x8f
 7070 0a90 25000000 		.4byte	0x25
 7071 0a94 04       		.byte	0x4
 7072 0a95 07       		.uleb128 0x7
 7073 0a96 FA1B0000 		.4byte	.LASF180
 7074 0a9a 11       		.byte	0x11
 7075 0a9b 90       		.byte	0x90
 7076 0a9c 25000000 		.4byte	0x25
 7077 0aa0 08       		.byte	0x8
 7078 0aa1 07       		.uleb128 0x7
 7079 0aa2 CE250000 		.4byte	.LASF181
 7080 0aa6 11       		.byte	0x11
 7081 0aa7 91       		.byte	0x91
 7082 0aa8 25000000 		.4byte	0x25
 7083 0aac 0C       		.byte	0xc
 7084 0aad 07       		.uleb128 0x7
 7085 0aae 69010000 		.4byte	.LASF182
 7086 0ab2 11       		.byte	0x11
 7087 0ab3 92       		.byte	0x92
 7088 0ab4 25000000 		.4byte	0x25
 7089 0ab8 10       		.byte	0x10
 7090 0ab9 07       		.uleb128 0x7
 7091 0aba 1E000000 		.4byte	.LASF183
 7092 0abe 11       		.byte	0x11
 7093 0abf 93       		.byte	0x93
 7094 0ac0 25000000 		.4byte	0x25
 7095 0ac4 14       		.byte	0x14
 7096 0ac5 07       		.uleb128 0x7
 7097 0ac6 13020000 		.4byte	.LASF184
 7098 0aca 11       		.byte	0x11
 7099 0acb 94       		.byte	0x94
 7100 0acc 25000000 		.4byte	0x25
 7101 0ad0 18       		.byte	0x18
 7102 0ad1 07       		.uleb128 0x7
 7103 0ad2 DD140000 		.4byte	.LASF185
 7104 0ad6 11       		.byte	0x11
 7105 0ad7 95       		.byte	0x95
ARM GAS  /tmp/ccB9RVXV.s 			page 128


 7106 0ad8 25000000 		.4byte	0x25
 7107 0adc 1C       		.byte	0x1c
 7108 0add 07       		.uleb128 0x7
 7109 0ade EC150000 		.4byte	.LASF186
 7110 0ae2 11       		.byte	0x11
 7111 0ae3 96       		.byte	0x96
 7112 0ae4 25000000 		.4byte	0x25
 7113 0ae8 20       		.byte	0x20
 7114 0ae9 07       		.uleb128 0x7
 7115 0aea 0C000000 		.4byte	.LASF187
 7116 0aee 11       		.byte	0x11
 7117 0aef 97       		.byte	0x97
 7118 0af0 25000000 		.4byte	0x25
 7119 0af4 24       		.byte	0x24
 7120 0af5 07       		.uleb128 0x7
 7121 0af6 25250000 		.4byte	.LASF188
 7122 0afa 11       		.byte	0x11
 7123 0afb 98       		.byte	0x98
 7124 0afc 25000000 		.4byte	0x25
 7125 0b00 28       		.byte	0x28
 7126 0b01 07       		.uleb128 0x7
 7127 0b02 A20C0000 		.4byte	.LASF189
 7128 0b06 11       		.byte	0x11
 7129 0b07 99       		.byte	0x99
 7130 0b08 25000000 		.4byte	0x25
 7131 0b0c 2C       		.byte	0x2c
 7132 0b0d 07       		.uleb128 0x7
 7133 0b0e AE0B0000 		.4byte	.LASF190
 7134 0b12 11       		.byte	0x11
 7135 0b13 9A       		.byte	0x9a
 7136 0b14 25000000 		.4byte	0x25
 7137 0b18 30       		.byte	0x30
 7138 0b19 07       		.uleb128 0x7
 7139 0b1a 580C0000 		.4byte	.LASF191
 7140 0b1e 11       		.byte	0x11
 7141 0b1f 9B       		.byte	0x9b
 7142 0b20 25000000 		.4byte	0x25
 7143 0b24 34       		.byte	0x34
 7144 0b25 07       		.uleb128 0x7
 7145 0b26 840C0000 		.4byte	.LASF192
 7146 0b2a 11       		.byte	0x11
 7147 0b2b 9C       		.byte	0x9c
 7148 0b2c 25000000 		.4byte	0x25
 7149 0b30 38       		.byte	0x38
 7150 0b31 07       		.uleb128 0x7
 7151 0b32 56010000 		.4byte	.LASF193
 7152 0b36 11       		.byte	0x11
 7153 0b37 9D       		.byte	0x9d
 7154 0b38 050F0000 		.4byte	0xf05
 7155 0b3c 3C       		.byte	0x3c
 7156 0b3d 07       		.uleb128 0x7
 7157 0b3e 18080000 		.4byte	.LASF194
 7158 0b42 11       		.byte	0x11
 7159 0b43 9E       		.byte	0x9e
 7160 0b44 25000000 		.4byte	0x25
 7161 0b48 40       		.byte	0x40
 7162 0b49 07       		.uleb128 0x7
ARM GAS  /tmp/ccB9RVXV.s 			page 129


 7163 0b4a D5020000 		.4byte	.LASF195
 7164 0b4e 11       		.byte	0x11
 7165 0b4f 9F       		.byte	0x9f
 7166 0b50 25000000 		.4byte	0x25
 7167 0b54 44       		.byte	0x44
 7168 0b55 07       		.uleb128 0x7
 7169 0b56 45100000 		.4byte	.LASF196
 7170 0b5a 11       		.byte	0x11
 7171 0b5b A0       		.byte	0xa0
 7172 0b5c 25000000 		.4byte	0x25
 7173 0b60 48       		.byte	0x48
 7174 0b61 07       		.uleb128 0x7
 7175 0b62 491F0000 		.4byte	.LASF197
 7176 0b66 11       		.byte	0x11
 7177 0b67 A1       		.byte	0xa1
 7178 0b68 25000000 		.4byte	0x25
 7179 0b6c 4C       		.byte	0x4c
 7180 0b6d 07       		.uleb128 0x7
 7181 0b6e 641A0000 		.4byte	.LASF198
 7182 0b72 11       		.byte	0x11
 7183 0b73 A2       		.byte	0xa2
 7184 0b74 25000000 		.4byte	0x25
 7185 0b78 50       		.byte	0x50
 7186 0b79 07       		.uleb128 0x7
 7187 0b7a B6260000 		.4byte	.LASF199
 7188 0b7e 11       		.byte	0x11
 7189 0b7f A3       		.byte	0xa3
 7190 0b80 25000000 		.4byte	0x25
 7191 0b84 54       		.byte	0x54
 7192 0b85 07       		.uleb128 0x7
 7193 0b86 300F0000 		.4byte	.LASF200
 7194 0b8a 11       		.byte	0x11
 7195 0b8b A4       		.byte	0xa4
 7196 0b8c 25000000 		.4byte	0x25
 7197 0b90 58       		.byte	0x58
 7198 0b91 07       		.uleb128 0x7
 7199 0b92 AF070000 		.4byte	.LASF201
 7200 0b96 11       		.byte	0x11
 7201 0b97 A5       		.byte	0xa5
 7202 0b98 25000000 		.4byte	0x25
 7203 0b9c 5C       		.byte	0x5c
 7204 0b9d 07       		.uleb128 0x7
 7205 0b9e 1A250000 		.4byte	.LASF202
 7206 0ba2 11       		.byte	0x11
 7207 0ba3 A6       		.byte	0xa6
 7208 0ba4 25000000 		.4byte	0x25
 7209 0ba8 60       		.byte	0x60
 7210 0ba9 07       		.uleb128 0x7
 7211 0baa 400A0000 		.4byte	.LASF203
 7212 0bae 11       		.byte	0x11
 7213 0baf A8       		.byte	0xa8
 7214 0bb0 25000000 		.4byte	0x25
 7215 0bb4 64       		.byte	0x64
 7216 0bb5 07       		.uleb128 0x7
 7217 0bb6 31110000 		.4byte	.LASF204
 7218 0bba 11       		.byte	0x11
 7219 0bbb A9       		.byte	0xa9
ARM GAS  /tmp/ccB9RVXV.s 			page 130


 7220 0bbc 25000000 		.4byte	0x25
 7221 0bc0 68       		.byte	0x68
 7222 0bc1 07       		.uleb128 0x7
 7223 0bc2 18210000 		.4byte	.LASF205
 7224 0bc6 11       		.byte	0x11
 7225 0bc7 AA       		.byte	0xaa
 7226 0bc8 25000000 		.4byte	0x25
 7227 0bcc 6C       		.byte	0x6c
 7228 0bcd 07       		.uleb128 0x7
 7229 0bce 80260000 		.4byte	.LASF206
 7230 0bd2 11       		.byte	0x11
 7231 0bd3 AB       		.byte	0xab
 7232 0bd4 25000000 		.4byte	0x25
 7233 0bd8 70       		.byte	0x70
 7234 0bd9 07       		.uleb128 0x7
 7235 0bda 771D0000 		.4byte	.LASF207
 7236 0bde 11       		.byte	0x11
 7237 0bdf AC       		.byte	0xac
 7238 0be0 25000000 		.4byte	0x25
 7239 0be4 74       		.byte	0x74
 7240 0be5 07       		.uleb128 0x7
 7241 0be6 870B0000 		.4byte	.LASF208
 7242 0bea 11       		.byte	0x11
 7243 0beb AD       		.byte	0xad
 7244 0bec 25000000 		.4byte	0x25
 7245 0bf0 78       		.byte	0x78
 7246 0bf1 07       		.uleb128 0x7
 7247 0bf2 530D0000 		.4byte	.LASF209
 7248 0bf6 11       		.byte	0x11
 7249 0bf7 AF       		.byte	0xaf
 7250 0bf8 25000000 		.4byte	0x25
 7251 0bfc 7C       		.byte	0x7c
 7252 0bfd 07       		.uleb128 0x7
 7253 0bfe 66040000 		.4byte	.LASF210
 7254 0c02 11       		.byte	0x11
 7255 0c03 B0       		.byte	0xb0
 7256 0c04 25000000 		.4byte	0x25
 7257 0c08 80       		.byte	0x80
 7258 0c09 07       		.uleb128 0x7
 7259 0c0a 40110000 		.4byte	.LASF211
 7260 0c0e 11       		.byte	0x11
 7261 0c0f B1       		.byte	0xb1
 7262 0c10 25000000 		.4byte	0x25
 7263 0c14 84       		.byte	0x84
 7264 0c15 07       		.uleb128 0x7
 7265 0c16 28130000 		.4byte	.LASF212
 7266 0c1a 11       		.byte	0x11
 7267 0c1b B2       		.byte	0xb2
 7268 0c1c 25000000 		.4byte	0x25
 7269 0c20 88       		.byte	0x88
 7270 0c21 07       		.uleb128 0x7
 7271 0c22 6D100000 		.4byte	.LASF213
 7272 0c26 11       		.byte	0x11
 7273 0c27 B3       		.byte	0xb3
 7274 0c28 25000000 		.4byte	0x25
 7275 0c2c 8C       		.byte	0x8c
 7276 0c2d 07       		.uleb128 0x7
ARM GAS  /tmp/ccB9RVXV.s 			page 131


 7277 0c2e 0A230000 		.4byte	.LASF214
 7278 0c32 11       		.byte	0x11
 7279 0c33 B4       		.byte	0xb4
 7280 0c34 25000000 		.4byte	0x25
 7281 0c38 90       		.byte	0x90
 7282 0c39 07       		.uleb128 0x7
 7283 0c3a 101A0000 		.4byte	.LASF215
 7284 0c3e 11       		.byte	0x11
 7285 0c3f B5       		.byte	0xb5
 7286 0c40 25000000 		.4byte	0x25
 7287 0c44 94       		.byte	0x94
 7288 0c45 07       		.uleb128 0x7
 7289 0c46 F0110000 		.4byte	.LASF216
 7290 0c4a 11       		.byte	0x11
 7291 0c4b B7       		.byte	0xb7
 7292 0c4c 0C0F0000 		.4byte	0xf0c
 7293 0c50 98       		.byte	0x98
 7294 0c51 07       		.uleb128 0x7
 7295 0c52 CD1C0000 		.4byte	.LASF217
 7296 0c56 11       		.byte	0x11
 7297 0c57 B8       		.byte	0xb8
 7298 0c58 25000000 		.4byte	0x25
 7299 0c5c A0       		.byte	0xa0
 7300 0c5d 07       		.uleb128 0x7
 7301 0c5e 91040000 		.4byte	.LASF218
 7302 0c62 11       		.byte	0x11
 7303 0c63 BA       		.byte	0xba
 7304 0c64 25000000 		.4byte	0x25
 7305 0c68 A4       		.byte	0xa4
 7306 0c69 07       		.uleb128 0x7
 7307 0c6a 82040000 		.4byte	.LASF219
 7308 0c6e 11       		.byte	0x11
 7309 0c6f BB       		.byte	0xbb
 7310 0c70 25000000 		.4byte	0x25
 7311 0c74 A8       		.byte	0xa8
 7312 0c75 07       		.uleb128 0x7
 7313 0c76 BA070000 		.4byte	.LASF220
 7314 0c7a 11       		.byte	0x11
 7315 0c7b BC       		.byte	0xbc
 7316 0c7c 25000000 		.4byte	0x25
 7317 0c80 AC       		.byte	0xac
 7318 0c81 07       		.uleb128 0x7
 7319 0c82 A9210000 		.4byte	.LASF221
 7320 0c86 11       		.byte	0x11
 7321 0c87 BD       		.byte	0xbd
 7322 0c88 25000000 		.4byte	0x25
 7323 0c8c B0       		.byte	0xb0
 7324 0c8d 07       		.uleb128 0x7
 7325 0c8e 49020000 		.4byte	.LASF222
 7326 0c92 11       		.byte	0x11
 7327 0c93 BE       		.byte	0xbe
 7328 0c94 25000000 		.4byte	0x25
 7329 0c98 B4       		.byte	0xb4
 7330 0c99 07       		.uleb128 0x7
 7331 0c9a 4F0A0000 		.4byte	.LASF223
 7332 0c9e 11       		.byte	0x11
 7333 0c9f BF       		.byte	0xbf
ARM GAS  /tmp/ccB9RVXV.s 			page 132


 7334 0ca0 050F0000 		.4byte	0xf05
 7335 0ca4 B8       		.byte	0xb8
 7336 0ca5 07       		.uleb128 0x7
 7337 0ca6 2B180000 		.4byte	.LASF224
 7338 0caa 11       		.byte	0x11
 7339 0cab C0       		.byte	0xc0
 7340 0cac 25000000 		.4byte	0x25
 7341 0cb0 BC       		.byte	0xbc
 7342 0cb1 07       		.uleb128 0x7
 7343 0cb2 01070000 		.4byte	.LASF225
 7344 0cb6 11       		.byte	0x11
 7345 0cb7 C1       		.byte	0xc1
 7346 0cb8 25000000 		.4byte	0x25
 7347 0cbc C0       		.byte	0xc0
 7348 0cbd 07       		.uleb128 0x7
 7349 0cbe 0D070000 		.4byte	.LASF226
 7350 0cc2 11       		.byte	0x11
 7351 0cc3 C2       		.byte	0xc2
 7352 0cc4 25000000 		.4byte	0x25
 7353 0cc8 C4       		.byte	0xc4
 7354 0cc9 07       		.uleb128 0x7
 7355 0cca DF120000 		.4byte	.LASF227
 7356 0cce 11       		.byte	0x11
 7357 0ccf C3       		.byte	0xc3
 7358 0cd0 25000000 		.4byte	0x25
 7359 0cd4 C8       		.byte	0xc8
 7360 0cd5 07       		.uleb128 0x7
 7361 0cd6 BA080000 		.4byte	.LASF228
 7362 0cda 11       		.byte	0x11
 7363 0cdb C4       		.byte	0xc4
 7364 0cdc 25000000 		.4byte	0x25
 7365 0ce0 CC       		.byte	0xcc
 7366 0ce1 07       		.uleb128 0x7
 7367 0ce2 A6000000 		.4byte	.LASF229
 7368 0ce6 11       		.byte	0x11
 7369 0ce7 C5       		.byte	0xc5
 7370 0ce8 25000000 		.4byte	0x25
 7371 0cec D0       		.byte	0xd0
 7372 0ced 07       		.uleb128 0x7
 7373 0cee 0F1E0000 		.4byte	.LASF230
 7374 0cf2 11       		.byte	0x11
 7375 0cf3 C6       		.byte	0xc6
 7376 0cf4 25000000 		.4byte	0x25
 7377 0cf8 D4       		.byte	0xd4
 7378 0cf9 07       		.uleb128 0x7
 7379 0cfa F21D0000 		.4byte	.LASF231
 7380 0cfe 11       		.byte	0x11
 7381 0cff C7       		.byte	0xc7
 7382 0d00 25000000 		.4byte	0x25
 7383 0d04 D8       		.byte	0xd8
 7384 0d05 07       		.uleb128 0x7
 7385 0d06 C0150000 		.4byte	.LASF232
 7386 0d0a 11       		.byte	0x11
 7387 0d0b C8       		.byte	0xc8
 7388 0d0c 25000000 		.4byte	0x25
 7389 0d10 DC       		.byte	0xdc
 7390 0d11 07       		.uleb128 0x7
ARM GAS  /tmp/ccB9RVXV.s 			page 133


 7391 0d12 A3150000 		.4byte	.LASF233
 7392 0d16 11       		.byte	0x11
 7393 0d17 C9       		.byte	0xc9
 7394 0d18 25000000 		.4byte	0x25
 7395 0d1c E0       		.byte	0xe0
 7396 0d1d 07       		.uleb128 0x7
 7397 0d1e C91D0000 		.4byte	.LASF234
 7398 0d22 11       		.byte	0x11
 7399 0d23 CA       		.byte	0xca
 7400 0d24 25000000 		.4byte	0x25
 7401 0d28 E4       		.byte	0xe4
 7402 0d29 07       		.uleb128 0x7
 7403 0d2a BB200000 		.4byte	.LASF235
 7404 0d2e 11       		.byte	0x11
 7405 0d2f CB       		.byte	0xcb
 7406 0d30 25000000 		.4byte	0x25
 7407 0d34 E8       		.byte	0xe8
 7408 0d35 07       		.uleb128 0x7
 7409 0d36 39260000 		.4byte	.LASF236
 7410 0d3a 11       		.byte	0x11
 7411 0d3b CC       		.byte	0xcc
 7412 0d3c 25000000 		.4byte	0x25
 7413 0d40 EC       		.byte	0xec
 7414 0d41 07       		.uleb128 0x7
 7415 0d42 C9110000 		.4byte	.LASF237
 7416 0d46 11       		.byte	0x11
 7417 0d47 CD       		.byte	0xcd
 7418 0d48 25000000 		.4byte	0x25
 7419 0d4c F0       		.byte	0xf0
 7420 0d4d 07       		.uleb128 0x7
 7421 0d4e DA1D0000 		.4byte	.LASF238
 7422 0d52 11       		.byte	0x11
 7423 0d53 CE       		.byte	0xce
 7424 0d54 25000000 		.4byte	0x25
 7425 0d58 F4       		.byte	0xf4
 7426 0d59 07       		.uleb128 0x7
 7427 0d5a 49210000 		.4byte	.LASF239
 7428 0d5e 11       		.byte	0x11
 7429 0d5f CF       		.byte	0xcf
 7430 0d60 4B090000 		.4byte	0x94b
 7431 0d64 F8       		.byte	0xf8
 7432 0d65 07       		.uleb128 0x7
 7433 0d66 ED0C0000 		.4byte	.LASF240
 7434 0d6a 11       		.byte	0x11
 7435 0d6b D0       		.byte	0xd0
 7436 0d6c 1C0F0000 		.4byte	0xf1c
 7437 0d70 F9       		.byte	0xf9
 7438 0d71 1C       		.uleb128 0x1c
 7439 0d72 CD0F0000 		.4byte	.LASF241
 7440 0d76 11       		.byte	0x11
 7441 0d77 D1       		.byte	0xd1
 7442 0d78 25000000 		.4byte	0x25
 7443 0d7c 0401     		.2byte	0x104
 7444 0d7e 1C       		.uleb128 0x1c
 7445 0d7f 44270000 		.4byte	.LASF242
 7446 0d83 11       		.byte	0x11
 7447 0d84 D2       		.byte	0xd2
ARM GAS  /tmp/ccB9RVXV.s 			page 134


 7448 0d85 050F0000 		.4byte	0xf05
 7449 0d89 0801     		.2byte	0x108
 7450 0d8b 1C       		.uleb128 0x1c
 7451 0d8c 31230000 		.4byte	.LASF243
 7452 0d90 11       		.byte	0x11
 7453 0d91 D3       		.byte	0xd3
 7454 0d92 050F0000 		.4byte	0xf05
 7455 0d96 0901     		.2byte	0x109
 7456 0d98 1C       		.uleb128 0x1c
 7457 0d99 D6210000 		.4byte	.LASF244
 7458 0d9d 11       		.byte	0x11
 7459 0d9e D4       		.byte	0xd4
 7460 0d9f 25000000 		.4byte	0x25
 7461 0da3 0C01     		.2byte	0x10c
 7462 0da5 1C       		.uleb128 0x1c
 7463 0da6 A9190000 		.4byte	.LASF245
 7464 0daa 11       		.byte	0x11
 7465 0dab D5       		.byte	0xd5
 7466 0dac 050F0000 		.4byte	0xf05
 7467 0db0 1001     		.2byte	0x110
 7468 0db2 1C       		.uleb128 0x1c
 7469 0db3 651F0000 		.4byte	.LASF246
 7470 0db7 11       		.byte	0x11
 7471 0db8 D6       		.byte	0xd6
 7472 0db9 25000000 		.4byte	0x25
 7473 0dbd 1401     		.2byte	0x114
 7474 0dbf 1C       		.uleb128 0x1c
 7475 0dc0 5E1D0000 		.4byte	.LASF247
 7476 0dc4 11       		.byte	0x11
 7477 0dc5 D8       		.byte	0xd8
 7478 0dc6 25000000 		.4byte	0x25
 7479 0dca 1801     		.2byte	0x118
 7480 0dcc 1C       		.uleb128 0x1c
 7481 0dcd 311D0000 		.4byte	.LASF248
 7482 0dd1 11       		.byte	0x11
 7483 0dd2 D9       		.byte	0xd9
 7484 0dd3 25000000 		.4byte	0x25
 7485 0dd7 1C01     		.2byte	0x11c
 7486 0dd9 1C       		.uleb128 0x1c
 7487 0dda 7A060000 		.4byte	.LASF249
 7488 0dde 11       		.byte	0x11
 7489 0ddf DA       		.byte	0xda
 7490 0de0 25000000 		.4byte	0x25
 7491 0de4 2001     		.2byte	0x120
 7492 0de6 1C       		.uleb128 0x1c
 7493 0de7 6D070000 		.4byte	.LASF250
 7494 0deb 11       		.byte	0x11
 7495 0dec DB       		.byte	0xdb
 7496 0ded 25000000 		.4byte	0x25
 7497 0df1 2401     		.2byte	0x124
 7498 0df3 1C       		.uleb128 0x1c
 7499 0df4 32090000 		.4byte	.LASF251
 7500 0df8 11       		.byte	0x11
 7501 0df9 DC       		.byte	0xdc
 7502 0dfa 050F0000 		.4byte	0xf05
 7503 0dfe 2801     		.2byte	0x128
 7504 0e00 1C       		.uleb128 0x1c
ARM GAS  /tmp/ccB9RVXV.s 			page 135


 7505 0e01 34190000 		.4byte	.LASF252
 7506 0e05 11       		.byte	0x11
 7507 0e06 DE       		.byte	0xde
 7508 0e07 25000000 		.4byte	0x25
 7509 0e0b 2C01     		.2byte	0x12c
 7510 0e0d 1C       		.uleb128 0x1c
 7511 0e0e 2B190000 		.4byte	.LASF253
 7512 0e12 11       		.byte	0x11
 7513 0e13 DF       		.byte	0xdf
 7514 0e14 25000000 		.4byte	0x25
 7515 0e18 3001     		.2byte	0x130
 7516 0e1a 1C       		.uleb128 0x1c
 7517 0e1b 22190000 		.4byte	.LASF254
 7518 0e1f 11       		.byte	0x11
 7519 0e20 E0       		.byte	0xe0
 7520 0e21 25000000 		.4byte	0x25
 7521 0e25 3401     		.2byte	0x134
 7522 0e27 1C       		.uleb128 0x1c
 7523 0e28 2B260000 		.4byte	.LASF255
 7524 0e2c 11       		.byte	0x11
 7525 0e2d E1       		.byte	0xe1
 7526 0e2e 25000000 		.4byte	0x25
 7527 0e32 3801     		.2byte	0x138
 7528 0e34 1C       		.uleb128 0x1c
 7529 0e35 EC010000 		.4byte	.LASF256
 7530 0e39 11       		.byte	0x11
 7531 0e3a E3       		.byte	0xe3
 7532 0e3b 25000000 		.4byte	0x25
 7533 0e3f 3C01     		.2byte	0x13c
 7534 0e41 1C       		.uleb128 0x1c
 7535 0e42 640A0000 		.4byte	.LASF257
 7536 0e46 11       		.byte	0x11
 7537 0e47 E4       		.byte	0xe4
 7538 0e48 25000000 		.4byte	0x25
 7539 0e4c 4001     		.2byte	0x140
 7540 0e4e 1C       		.uleb128 0x1c
 7541 0e4f AA100000 		.4byte	.LASF258
 7542 0e53 11       		.byte	0x11
 7543 0e54 E5       		.byte	0xe5
 7544 0e55 25000000 		.4byte	0x25
 7545 0e59 4401     		.2byte	0x144
 7546 0e5b 1C       		.uleb128 0x1c
 7547 0e5c F5180000 		.4byte	.LASF259
 7548 0e60 11       		.byte	0x11
 7549 0e61 E6       		.byte	0xe6
 7550 0e62 25000000 		.4byte	0x25
 7551 0e66 4801     		.2byte	0x148
 7552 0e68 1C       		.uleb128 0x1c
 7553 0e69 2A060000 		.4byte	.LASF260
 7554 0e6d 11       		.byte	0x11
 7555 0e6e E8       		.byte	0xe8
 7556 0e6f EB000000 		.4byte	0xeb
 7557 0e73 4C01     		.2byte	0x14c
 7558 0e75 1C       		.uleb128 0x1c
 7559 0e76 94240000 		.4byte	.LASF261
 7560 0e7a 11       		.byte	0x11
 7561 0e7b E9       		.byte	0xe9
ARM GAS  /tmp/ccB9RVXV.s 			page 136


 7562 0e7c 25000000 		.4byte	0x25
 7563 0e80 5001     		.2byte	0x150
 7564 0e82 1C       		.uleb128 0x1c
 7565 0e83 CF0D0000 		.4byte	.LASF262
 7566 0e87 11       		.byte	0x11
 7567 0e88 EA       		.byte	0xea
 7568 0e89 25000000 		.4byte	0x25
 7569 0e8d 5401     		.2byte	0x154
 7570 0e8f 1C       		.uleb128 0x1c
 7571 0e90 64280000 		.4byte	.LASF263
 7572 0e94 11       		.byte	0x11
 7573 0e95 EB       		.byte	0xeb
 7574 0e96 F6000000 		.4byte	0xf6
 7575 0e9a 5801     		.2byte	0x158
 7576 0e9c 1C       		.uleb128 0x1c
 7577 0e9d 920D0000 		.4byte	.LASF264
 7578 0ea1 11       		.byte	0x11
 7579 0ea2 EC       		.byte	0xec
 7580 0ea3 D5090000 		.4byte	0x9d5
 7581 0ea7 5C01     		.2byte	0x15c
 7582 0ea9 1C       		.uleb128 0x1c
 7583 0eaa F10D0000 		.4byte	.LASF265
 7584 0eae 11       		.byte	0x11
 7585 0eaf ED       		.byte	0xed
 7586 0eb0 050F0000 		.4byte	0xf05
 7587 0eb4 5D01     		.2byte	0x15d
 7588 0eb6 1C       		.uleb128 0x1c
 7589 0eb7 2E0A0000 		.4byte	.LASF266
 7590 0ebb 11       		.byte	0x11
 7591 0ebc EE       		.byte	0xee
 7592 0ebd 010A0000 		.4byte	0xa01
 7593 0ec1 5E01     		.2byte	0x15e
 7594 0ec3 1C       		.uleb128 0x1c
 7595 0ec4 33010000 		.4byte	.LASF267
 7596 0ec8 11       		.byte	0x11
 7597 0ec9 EF       		.byte	0xef
 7598 0eca B1000000 		.4byte	0xb1
 7599 0ece 6001     		.2byte	0x160
 7600 0ed0 1C       		.uleb128 0x1c
 7601 0ed1 62200000 		.4byte	.LASF268
 7602 0ed5 11       		.byte	0x11
 7603 0ed6 F0       		.byte	0xf0
 7604 0ed7 25000000 		.4byte	0x25
 7605 0edb 6401     		.2byte	0x164
 7606 0edd 1C       		.uleb128 0x1c
 7607 0ede 7E190000 		.4byte	.LASF269
 7608 0ee2 11       		.byte	0x11
 7609 0ee3 F1       		.byte	0xf1
 7610 0ee4 25000000 		.4byte	0x25
 7611 0ee8 6801     		.2byte	0x168
 7612 0eea 1C       		.uleb128 0x1c
 7613 0eeb 27230000 		.4byte	.LASF270
 7614 0eef 11       		.byte	0x11
 7615 0ef0 F2       		.byte	0xf2
 7616 0ef1 25000000 		.4byte	0x25
 7617 0ef5 6C01     		.2byte	0x16c
 7618 0ef7 1C       		.uleb128 0x1c
ARM GAS  /tmp/ccB9RVXV.s 			page 137


 7619 0ef8 C5040000 		.4byte	.LASF271
 7620 0efc 11       		.byte	0x11
 7621 0efd F3       		.byte	0xf3
 7622 0efe 25000000 		.4byte	0x25
 7623 0f02 7001     		.2byte	0x170
 7624 0f04 00       		.byte	0
 7625 0f05 02       		.uleb128 0x2
 7626 0f06 01       		.byte	0x1
 7627 0f07 02       		.byte	0x2
 7628 0f08 F5000000 		.4byte	.LASF272
 7629 0f0c 17       		.uleb128 0x17
 7630 0f0d BF000000 		.4byte	0xbf
 7631 0f11 1C0F0000 		.4byte	0xf1c
 7632 0f15 18       		.uleb128 0x18
 7633 0f16 BD040000 		.4byte	0x4bd
 7634 0f1a 07       		.byte	0x7
 7635 0f1b 00       		.byte	0
 7636 0f1c 17       		.uleb128 0x17
 7637 0f1d CA000000 		.4byte	0xca
 7638 0f21 2C0F0000 		.4byte	0xf2c
 7639 0f25 18       		.uleb128 0x18
 7640 0f26 BD040000 		.4byte	0x4bd
 7641 0f2a 07       		.byte	0x7
 7642 0f2b 00       		.byte	0
 7643 0f2c 03       		.uleb128 0x3
 7644 0f2d A5240000 		.4byte	.LASF273
 7645 0f31 11       		.byte	0x11
 7646 0f32 F4       		.byte	0xf4
 7647 0f33 500A0000 		.4byte	0xa50
 7648 0f37 1D       		.uleb128 0x1d
 7649 0f38 01       		.byte	0x1
 7650 0f39 11       		.byte	0x11
 7651 0f3a BE01     		.2byte	0x1be
 7652 0f3c 31100000 		.4byte	0x1031
 7653 0f40 1A       		.uleb128 0x1a
 7654 0f41 751A0000 		.4byte	.LASF274
 7655 0f45 00       		.sleb128 0
 7656 0f46 1A       		.uleb128 0x1a
 7657 0f47 4C170000 		.4byte	.LASF275
 7658 0f4b 01       		.sleb128 1
 7659 0f4c 1A       		.uleb128 0x1a
 7660 0f4d 000A0000 		.4byte	.LASF276
 7661 0f51 02       		.sleb128 2
 7662 0f52 1A       		.uleb128 0x1a
 7663 0f53 E8090000 		.4byte	.LASF277
 7664 0f57 03       		.sleb128 3
 7665 0f58 1A       		.uleb128 0x1a
 7666 0f59 BD1C0000 		.4byte	.LASF278
 7667 0f5d 04       		.sleb128 4
 7668 0f5e 1A       		.uleb128 0x1a
 7669 0f5f 420C0000 		.4byte	.LASF279
 7670 0f63 05       		.sleb128 5
 7671 0f64 1A       		.uleb128 0x1a
 7672 0f65 6A130000 		.4byte	.LASF280
 7673 0f69 06       		.sleb128 6
 7674 0f6a 1A       		.uleb128 0x1a
 7675 0f6b 54220000 		.4byte	.LASF281
ARM GAS  /tmp/ccB9RVXV.s 			page 138


 7676 0f6f 07       		.sleb128 7
 7677 0f70 1A       		.uleb128 0x1a
 7678 0f71 C1220000 		.4byte	.LASF282
 7679 0f75 08       		.sleb128 8
 7680 0f76 1A       		.uleb128 0x1a
 7681 0f77 9F180000 		.4byte	.LASF283
 7682 0f7b 09       		.sleb128 9
 7683 0f7c 1A       		.uleb128 0x1a
 7684 0f7d 76180000 		.4byte	.LASF284
 7685 0f81 0A       		.sleb128 10
 7686 0f82 1A       		.uleb128 0x1a
 7687 0f83 29170000 		.4byte	.LASF285
 7688 0f87 0B       		.sleb128 11
 7689 0f88 1A       		.uleb128 0x1a
 7690 0f89 FC0C0000 		.4byte	.LASF286
 7691 0f8d 0C       		.sleb128 12
 7692 0f8e 1A       		.uleb128 0x1a
 7693 0f8f 52030000 		.4byte	.LASF287
 7694 0f93 0D       		.sleb128 13
 7695 0f94 1A       		.uleb128 0x1a
 7696 0f95 BA0C0000 		.4byte	.LASF288
 7697 0f99 0E       		.sleb128 14
 7698 0f9a 1A       		.uleb128 0x1a
 7699 0f9b 941C0000 		.4byte	.LASF289
 7700 0f9f 0F       		.sleb128 15
 7701 0fa0 1A       		.uleb128 0x1a
 7702 0fa1 FF200000 		.4byte	.LASF290
 7703 0fa5 10       		.sleb128 16
 7704 0fa6 1A       		.uleb128 0x1a
 7705 0fa7 101F0000 		.4byte	.LASF291
 7706 0fab 11       		.sleb128 17
 7707 0fac 1A       		.uleb128 0x1a
 7708 0fad 4A250000 		.4byte	.LASF292
 7709 0fb1 12       		.sleb128 18
 7710 0fb2 1A       		.uleb128 0x1a
 7711 0fb3 12060000 		.4byte	.LASF293
 7712 0fb7 13       		.sleb128 19
 7713 0fb8 1A       		.uleb128 0x1a
 7714 0fb9 08250000 		.4byte	.LASF294
 7715 0fbd 14       		.sleb128 20
 7716 0fbe 1A       		.uleb128 0x1a
 7717 0fbf 671D0000 		.4byte	.LASF295
 7718 0fc3 15       		.sleb128 21
 7719 0fc4 1A       		.uleb128 0x1a
 7720 0fc5 4F240000 		.4byte	.LASF296
 7721 0fc9 16       		.sleb128 22
 7722 0fca 1A       		.uleb128 0x1a
 7723 0fcb 3B0F0000 		.4byte	.LASF297
 7724 0fcf 17       		.sleb128 23
 7725 0fd0 1A       		.uleb128 0x1a
 7726 0fd1 2A210000 		.4byte	.LASF298
 7727 0fd5 18       		.sleb128 24
 7728 0fd6 1A       		.uleb128 0x1a
 7729 0fd7 671E0000 		.4byte	.LASF299
 7730 0fdb 19       		.sleb128 25
 7731 0fdc 1A       		.uleb128 0x1a
 7732 0fdd 540B0000 		.4byte	.LASF300
ARM GAS  /tmp/ccB9RVXV.s 			page 139


 7733 0fe1 1A       		.sleb128 26
 7734 0fe2 1A       		.uleb128 0x1a
 7735 0fe3 621C0000 		.4byte	.LASF301
 7736 0fe7 1B       		.sleb128 27
 7737 0fe8 1A       		.uleb128 0x1a
 7738 0fe9 91000000 		.4byte	.LASF302
 7739 0fed 1C       		.sleb128 28
 7740 0fee 1A       		.uleb128 0x1a
 7741 0fef 45040000 		.4byte	.LASF303
 7742 0ff3 1D       		.sleb128 29
 7743 0ff4 1A       		.uleb128 0x1a
 7744 0ff5 63080000 		.4byte	.LASF304
 7745 0ff9 1E       		.sleb128 30
 7746 0ffa 1A       		.uleb128 0x1a
 7747 0ffb 2F0D0000 		.4byte	.LASF305
 7748 0fff 1F       		.sleb128 31
 7749 1000 1A       		.uleb128 0x1a
 7750 1001 EA200000 		.4byte	.LASF306
 7751 1005 20       		.sleb128 32
 7752 1006 1A       		.uleb128 0x1a
 7753 1007 46180000 		.4byte	.LASF307
 7754 100b 21       		.sleb128 33
 7755 100c 1A       		.uleb128 0x1a
 7756 100d 0B0F0000 		.4byte	.LASF308
 7757 1011 22       		.sleb128 34
 7758 1012 1A       		.uleb128 0x1a
 7759 1013 A91E0000 		.4byte	.LASF309
 7760 1017 23       		.sleb128 35
 7761 1018 1A       		.uleb128 0x1a
 7762 1019 3A240000 		.4byte	.LASF310
 7763 101d 24       		.sleb128 36
 7764 101e 1A       		.uleb128 0x1a
 7765 101f E9220000 		.4byte	.LASF311
 7766 1023 25       		.sleb128 37
 7767 1024 1A       		.uleb128 0x1a
 7768 1025 E2060000 		.4byte	.LASF312
 7769 1029 26       		.sleb128 38
 7770 102a 1A       		.uleb128 0x1a
 7771 102b 30000000 		.4byte	.LASF313
 7772 102f 27       		.sleb128 39
 7773 1030 00       		.byte	0
 7774 1031 10       		.uleb128 0x10
 7775 1032 38       		.byte	0x38
 7776 1033 11       		.byte	0x11
 7777 1034 FB01     		.2byte	0x1fb
 7778 1036 F1100000 		.4byte	0x10f1
 7779 103a 09       		.uleb128 0x9
 7780 103b 591B0000 		.4byte	.LASF314
 7781 103f 11       		.byte	0x11
 7782 1040 FC01     		.2byte	0x1fc
 7783 1042 AF090000 		.4byte	0x9af
 7784 1046 00       		.byte	0
 7785 1047 09       		.uleb128 0x9
 7786 1048 08150000 		.4byte	.LASF315
 7787 104c 11       		.byte	0x11
 7788 104d FD01     		.2byte	0x1fd
 7789 104f 25000000 		.4byte	0x25
ARM GAS  /tmp/ccB9RVXV.s 			page 140


 7790 1053 04       		.byte	0x4
 7791 1054 09       		.uleb128 0x9
 7792 1055 97230000 		.4byte	.LASF316
 7793 1059 11       		.byte	0x11
 7794 105a FE01     		.2byte	0x1fe
 7795 105c 25000000 		.4byte	0x25
 7796 1060 08       		.byte	0x8
 7797 1061 09       		.uleb128 0x9
 7798 1062 10210000 		.4byte	.LASF317
 7799 1066 11       		.byte	0x11
 7800 1067 FF01     		.2byte	0x1ff
 7801 1069 25000000 		.4byte	0x25
 7802 106d 0C       		.byte	0xc
 7803 106e 09       		.uleb128 0x9
 7804 106f 1C1D0000 		.4byte	.LASF318
 7805 1073 11       		.byte	0x11
 7806 1074 0002     		.2byte	0x200
 7807 1076 25000000 		.4byte	0x25
 7808 107a 10       		.byte	0x10
 7809 107b 08       		.uleb128 0x8
 7810 107c 72706D00 		.ascii	"rpm\000"
 7811 1080 11       		.byte	0x11
 7812 1081 0102     		.2byte	0x201
 7813 1083 25000000 		.4byte	0x25
 7814 1087 14       		.byte	0x14
 7815 1088 09       		.uleb128 0x9
 7816 1089 2F1C0000 		.4byte	.LASF319
 7817 108d 11       		.byte	0x11
 7818 108e 0202     		.2byte	0x202
 7819 1090 B1000000 		.4byte	0xb1
 7820 1094 18       		.byte	0x18
 7821 1095 09       		.uleb128 0x9
 7822 1096 FB130000 		.4byte	.LASF320
 7823 109a 11       		.byte	0x11
 7824 109b 0302     		.2byte	0x203
 7825 109d B1000000 		.4byte	0xb1
 7826 10a1 1C       		.byte	0x1c
 7827 10a2 09       		.uleb128 0x9
 7828 10a3 A6090000 		.4byte	.LASF321
 7829 10a7 11       		.byte	0x11
 7830 10a8 0402     		.2byte	0x204
 7831 10aa B1000000 		.4byte	0xb1
 7832 10ae 20       		.byte	0x20
 7833 10af 09       		.uleb128 0x9
 7834 10b0 67230000 		.4byte	.LASF322
 7835 10b4 11       		.byte	0x11
 7836 10b5 0502     		.2byte	0x205
 7837 10b7 B1000000 		.4byte	0xb1
 7838 10bb 24       		.byte	0x24
 7839 10bc 09       		.uleb128 0x9
 7840 10bd 03200000 		.4byte	.LASF323
 7841 10c1 11       		.byte	0x11
 7842 10c2 0602     		.2byte	0x206
 7843 10c4 B1000000 		.4byte	0xb1
 7844 10c8 28       		.byte	0x28
 7845 10c9 09       		.uleb128 0x9
 7846 10ca 5F190000 		.4byte	.LASF324
ARM GAS  /tmp/ccB9RVXV.s 			page 141


 7847 10ce 11       		.byte	0x11
 7848 10cf 0702     		.2byte	0x207
 7849 10d1 B1000000 		.4byte	0xb1
 7850 10d5 2C       		.byte	0x2c
 7851 10d6 09       		.uleb128 0x9
 7852 10d7 48220000 		.4byte	.LASF325
 7853 10db 11       		.byte	0x11
 7854 10dc 0802     		.2byte	0x208
 7855 10de 25000000 		.4byte	0x25
 7856 10e2 30       		.byte	0x30
 7857 10e3 09       		.uleb128 0x9
 7858 10e4 3E160000 		.4byte	.LASF326
 7859 10e8 11       		.byte	0x11
 7860 10e9 0902     		.2byte	0x209
 7861 10eb B1000000 		.4byte	0xb1
 7862 10ef 34       		.byte	0x34
 7863 10f0 00       		.byte	0
 7864 10f1 11       		.uleb128 0x11
 7865 10f2 99270000 		.4byte	.LASF327
 7866 10f6 11       		.byte	0x11
 7867 10f7 0A02     		.2byte	0x20a
 7868 10f9 31100000 		.4byte	0x1031
 7869 10fd 13       		.uleb128 0x13
 7870 10fe 04       		.byte	0x4
 7871 10ff 12       		.byte	0x12
 7872 1100 B3       		.byte	0xb3
 7873 1101 1E110000 		.4byte	0x111e
 7874 1105 12       		.uleb128 0x12
 7875 1106 73657400 		.ascii	"set\000"
 7876 110a 12       		.byte	0x12
 7877 110b B4       		.byte	0xb4
 7878 110c E0000000 		.4byte	0xe0
 7879 1110 00       		.byte	0
 7880 1111 07       		.uleb128 0x7
 7881 1112 970A0000 		.4byte	.LASF328
 7882 1116 12       		.byte	0x12
 7883 1117 B5       		.byte	0xb5
 7884 1118 E0000000 		.4byte	0xe0
 7885 111c 02       		.byte	0x2
 7886 111d 00       		.byte	0
 7887 111e 14       		.uleb128 0x14
 7888 111f 04       		.byte	0x4
 7889 1120 12       		.byte	0x12
 7890 1121 B1       		.byte	0xb1
 7891 1122 39110000 		.4byte	0x1139
 7892 1126 1E       		.uleb128 0x1e
 7893 1127 5700     		.ascii	"W\000"
 7894 1129 12       		.byte	0x12
 7895 112a B2       		.byte	0xb2
 7896 112b F6000000 		.4byte	0xf6
 7897 112f 1E       		.uleb128 0x1e
 7898 1130 4800     		.ascii	"H\000"
 7899 1132 12       		.byte	0x12
 7900 1133 B6       		.byte	0xb6
 7901 1134 FD100000 		.4byte	0x10fd
 7902 1138 00       		.byte	0
 7903 1139 13       		.uleb128 0x13
ARM GAS  /tmp/ccB9RVXV.s 			page 142


 7904 113a 2C       		.byte	0x2c
 7905 113b 12       		.byte	0x12
 7906 113c A9       		.byte	0xa9
 7907 113d C6110000 		.4byte	0x11c6
 7908 1141 07       		.uleb128 0x7
 7909 1142 B5200000 		.4byte	.LASF329
 7910 1146 12       		.byte	0x12
 7911 1147 AB       		.byte	0xab
 7912 1148 1C010000 		.4byte	0x11c
 7913 114c 00       		.byte	0
 7914 114d 07       		.uleb128 0x7
 7915 114e EF020000 		.4byte	.LASF330
 7916 1152 12       		.byte	0x12
 7917 1153 AC       		.byte	0xac
 7918 1154 1C010000 		.4byte	0x11c
 7919 1158 04       		.byte	0x4
 7920 1159 07       		.uleb128 0x7
 7921 115a 500C0000 		.4byte	.LASF331
 7922 115e 12       		.byte	0x12
 7923 115f AD       		.byte	0xad
 7924 1160 1C010000 		.4byte	0x11c
 7925 1164 08       		.byte	0x8
 7926 1165 07       		.uleb128 0x7
 7927 1166 D81F0000 		.4byte	.LASF332
 7928 116a 12       		.byte	0x12
 7929 116b AE       		.byte	0xae
 7930 116c 1C010000 		.4byte	0x11c
 7931 1170 0C       		.byte	0xc
 7932 1171 12       		.uleb128 0x12
 7933 1172 49445200 		.ascii	"IDR\000"
 7934 1176 12       		.byte	0x12
 7935 1177 AF       		.byte	0xaf
 7936 1178 1C010000 		.4byte	0x11c
 7937 117c 10       		.byte	0x10
 7938 117d 12       		.uleb128 0x12
 7939 117e 4F445200 		.ascii	"ODR\000"
 7940 1182 12       		.byte	0x12
 7941 1183 B0       		.byte	0xb0
 7942 1184 1C010000 		.4byte	0x11c
 7943 1188 14       		.byte	0x14
 7944 1189 07       		.uleb128 0x7
 7945 118a DF110000 		.4byte	.LASF333
 7946 118e 12       		.byte	0x12
 7947 118f B7       		.byte	0xb7
 7948 1190 C6110000 		.4byte	0x11c6
 7949 1194 18       		.byte	0x18
 7950 1195 07       		.uleb128 0x7
 7951 1196 26180000 		.4byte	.LASF334
 7952 119a 12       		.byte	0x12
 7953 119b B8       		.byte	0xb8
 7954 119c 1C010000 		.4byte	0x11c
 7955 11a0 1C       		.byte	0x1c
 7956 11a1 07       		.uleb128 0x7
 7957 11a2 721D0000 		.4byte	.LASF335
 7958 11a6 12       		.byte	0x12
 7959 11a7 B9       		.byte	0xb9
 7960 11a8 1C010000 		.4byte	0x11c
ARM GAS  /tmp/ccB9RVXV.s 			page 143


 7961 11ac 20       		.byte	0x20
 7962 11ad 07       		.uleb128 0x7
 7963 11ae 8F1C0000 		.4byte	.LASF336
 7964 11b2 12       		.byte	0x12
 7965 11b3 BA       		.byte	0xba
 7966 11b4 1C010000 		.4byte	0x11c
 7967 11b8 24       		.byte	0x24
 7968 11b9 12       		.uleb128 0x12
 7969 11ba 42525200 		.ascii	"BRR\000"
 7970 11be 12       		.byte	0x12
 7971 11bf BB       		.byte	0xbb
 7972 11c0 1C010000 		.4byte	0x11c
 7973 11c4 28       		.byte	0x28
 7974 11c5 00       		.byte	0
 7975 11c6 05       		.uleb128 0x5
 7976 11c7 1E110000 		.4byte	0x111e
 7977 11cb 03       		.uleb128 0x3
 7978 11cc FE0E0000 		.4byte	.LASF337
 7979 11d0 12       		.byte	0x12
 7980 11d1 BC       		.byte	0xbc
 7981 11d2 39110000 		.4byte	0x1139
 7982 11d6 0A       		.uleb128 0xa
 7983 11d7 04       		.byte	0x4
 7984 11d8 DC110000 		.4byte	0x11dc
 7985 11dc 1F       		.uleb128 0x1f
 7986 11dd 0A       		.uleb128 0xa
 7987 11de 04       		.byte	0x4
 7988 11df 49000000 		.4byte	0x49
 7989 11e3 02       		.uleb128 0x2
 7990 11e4 08       		.byte	0x8
 7991 11e5 04       		.byte	0x4
 7992 11e6 E51E0000 		.4byte	.LASF338
 7993 11ea 02       		.uleb128 0x2
 7994 11eb 08       		.byte	0x8
 7995 11ec 04       		.byte	0x4
 7996 11ed 93180000 		.4byte	.LASF339
 7997 11f1 20       		.uleb128 0x20
 7998 11f2 A4250000 		.4byte	.LASF344
 7999 11f6 03       		.byte	0x3
 8000 11f7 2002     		.2byte	0x220
 8001 11f9 03       		.byte	0x3
 8002 11fa 0B120000 		.4byte	0x120b
 8003 11fe 21       		.uleb128 0x21
 8004 11ff 46090000 		.4byte	.LASF346
 8005 1203 03       		.byte	0x3
 8006 1204 2002     		.2byte	0x220
 8007 1206 F6000000 		.4byte	0xf6
 8008 120a 00       		.byte	0
 8009 120b 22       		.uleb128 0x22
 8010 120c 89180000 		.4byte	.LASF340
 8011 1210 0C       		.byte	0xc
 8012 1211 BC01     		.2byte	0x1bc
 8013 1213 03       		.byte	0x3
 8014 1214 22       		.uleb128 0x22
 8015 1215 65160000 		.4byte	.LASF341
 8016 1219 0C       		.byte	0xc
 8017 121a CA01     		.2byte	0x1ca
ARM GAS  /tmp/ccB9RVXV.s 			page 144


 8018 121c 03       		.byte	0x3
 8019 121d 22       		.uleb128 0x22
 8020 121e AB130000 		.4byte	.LASF342
 8021 1222 0C       		.byte	0xc
 8022 1223 D901     		.2byte	0x1d9
 8023 1225 03       		.byte	0x3
 8024 1226 22       		.uleb128 0x22
 8025 1227 F6120000 		.4byte	.LASF343
 8026 122b 0C       		.byte	0xc
 8027 122c E401     		.2byte	0x1e4
 8028 122e 03       		.byte	0x3
 8029 122f 23       		.uleb128 0x23
 8030 1230 C3210000 		.4byte	.LASF345
 8031 1234 02       		.byte	0x2
 8032 1235 84       		.byte	0x84
 8033 1236 03       		.byte	0x3
 8034 1237 47120000 		.4byte	0x1247
 8035 123b 24       		.uleb128 0x24
 8036 123c C5230000 		.4byte	.LASF347
 8037 1240 02       		.byte	0x2
 8038 1241 84       		.byte	0x84
 8039 1242 44080000 		.4byte	0x844
 8040 1246 00       		.byte	0
 8041 1247 25       		.uleb128 0x25
 8042 1248 0B1B0000 		.4byte	.LASF591
 8043 124c 10       		.byte	0x10
 8044 124d AE       		.byte	0xae
 8045 124e AA020000 		.4byte	0x2aa
 8046 1252 03       		.byte	0x3
 8047 1253 26       		.uleb128 0x26
 8048 1254 D6160000 		.4byte	.LASF348
 8049 1258 01       		.byte	0x1
 8050 1259 9201     		.2byte	0x192
 8051 125b 01       		.byte	0x1
 8052 125c 6D120000 		.4byte	0x126d
 8053 1260 21       		.uleb128 0x21
 8054 1261 08150000 		.4byte	.LASF315
 8055 1265 01       		.byte	0x1
 8056 1266 9201     		.2byte	0x192
 8057 1268 25000000 		.4byte	0x25
 8058 126c 00       		.byte	0
 8059 126d 26       		.uleb128 0x26
 8060 126e 5F260000 		.4byte	.LASF349
 8061 1272 01       		.byte	0x1
 8062 1273 DF03     		.2byte	0x3df
 8063 1275 01       		.byte	0x1
 8064 1276 B9120000 		.4byte	0x12b9
 8065 127a 21       		.uleb128 0x21
 8066 127b 591B0000 		.4byte	.LASF314
 8067 127f 01       		.byte	0x1
 8068 1280 DF03     		.2byte	0x3df
 8069 1282 AF090000 		.4byte	0x9af
 8070 1286 27       		.uleb128 0x27
 8071 1287 28       		.uleb128 0x28
 8072 1288 D6040000 		.4byte	.LASF350
 8073 128c 01       		.byte	0x1
 8074 128d E903     		.2byte	0x3e9
ARM GAS  /tmp/ccB9RVXV.s 			page 145


 8075 128f B9120000 		.4byte	0x12b9
 8076 1293 28       		.uleb128 0x28
 8077 1294 B8040000 		.4byte	.LASF351
 8078 1298 01       		.byte	0x1
 8079 1299 EA03     		.2byte	0x3ea
 8080 129b B9120000 		.4byte	0x12b9
 8081 129f 28       		.uleb128 0x28
 8082 12a0 03200000 		.4byte	.LASF323
 8083 12a4 01       		.byte	0x1
 8084 12a5 EB03     		.2byte	0x3eb
 8085 12a7 B9120000 		.4byte	0x12b9
 8086 12ab 28       		.uleb128 0x28
 8087 12ac 9D0A0000 		.4byte	.LASF352
 8088 12b0 01       		.byte	0x1
 8089 12b1 EE03     		.2byte	0x3ee
 8090 12b3 F1100000 		.4byte	0x10f1
 8091 12b7 00       		.byte	0
 8092 12b8 00       		.byte	0
 8093 12b9 05       		.uleb128 0x5
 8094 12ba B1000000 		.4byte	0xb1
 8095 12be 22       		.uleb128 0x22
 8096 12bf E5240000 		.4byte	.LASF353
 8097 12c3 13       		.byte	0x13
 8098 12c4 8201     		.2byte	0x182
 8099 12c6 03       		.byte	0x3
 8100 12c7 22       		.uleb128 0x22
 8101 12c8 231A0000 		.4byte	.LASF354
 8102 12cc 13       		.byte	0x13
 8103 12cd 9601     		.2byte	0x196
 8104 12cf 03       		.byte	0x3
 8105 12d0 29       		.uleb128 0x29
 8106 12d1 33120000 		.4byte	.LASF513
 8107 12d5 01       		.byte	0x1
 8108 12d6 8503     		.2byte	0x385
 8109 12d8 25000000 		.4byte	0x25
 8110 12dc 01       		.byte	0x1
 8111 12dd 20       		.uleb128 0x20
 8112 12de 81150000 		.4byte	.LASF355
 8113 12e2 01       		.byte	0x1
 8114 12e3 1505     		.2byte	0x515
 8115 12e5 01       		.byte	0x1
 8116 12e6 43140000 		.4byte	0x1443
 8117 12ea 21       		.uleb128 0x21
 8118 12eb A4170000 		.4byte	.LASF356
 8119 12ef 01       		.byte	0x1
 8120 12f0 1505     		.2byte	0x515
 8121 12f2 43140000 		.4byte	0x1443
 8122 12f6 28       		.uleb128 0x28
 8123 12f7 8B140000 		.4byte	.LASF357
 8124 12fb 01       		.byte	0x1
 8125 12fc 1605     		.2byte	0x516
 8126 12fe 4E140000 		.4byte	0x144e
 8127 1302 28       		.uleb128 0x28
 8128 1303 68140000 		.4byte	.LASF358
 8129 1307 01       		.byte	0x1
 8130 1308 1705     		.2byte	0x517
 8131 130a 4E140000 		.4byte	0x144e
ARM GAS  /tmp/ccB9RVXV.s 			page 146


 8132 130e 28       		.uleb128 0x28
 8133 130f CA020000 		.4byte	.LASF359
 8134 1313 01       		.byte	0x1
 8135 1314 1D05     		.2byte	0x51d
 8136 1316 25000000 		.4byte	0x25
 8137 131a 28       		.uleb128 0x28
 8138 131b 4B010000 		.4byte	.LASF360
 8139 131f 01       		.byte	0x1
 8140 1320 1E05     		.2byte	0x51e
 8141 1322 25000000 		.4byte	0x25
 8142 1326 28       		.uleb128 0x28
 8143 1327 5A1F0000 		.4byte	.LASF361
 8144 132b 01       		.byte	0x1
 8145 132c 3805     		.2byte	0x538
 8146 132e 25000000 		.4byte	0x25
 8147 1332 28       		.uleb128 0x28
 8148 1333 E01C0000 		.4byte	.LASF362
 8149 1337 01       		.byte	0x1
 8150 1338 3905     		.2byte	0x539
 8151 133a 25000000 		.4byte	0x25
 8152 133e 28       		.uleb128 0x28
 8153 133f B7190000 		.4byte	.LASF363
 8154 1343 01       		.byte	0x1
 8155 1344 5405     		.2byte	0x554
 8156 1346 4E140000 		.4byte	0x144e
 8157 134a 28       		.uleb128 0x28
 8158 134b 901D0000 		.4byte	.LASF364
 8159 134f 01       		.byte	0x1
 8160 1350 5505     		.2byte	0x555
 8161 1352 4E140000 		.4byte	0x144e
 8162 1356 28       		.uleb128 0x28
 8163 1357 D5010000 		.4byte	.LASF365
 8164 135b 01       		.byte	0x1
 8165 135c 5605     		.2byte	0x556
 8166 135e 4E140000 		.4byte	0x144e
 8167 1362 28       		.uleb128 0x28
 8168 1363 EE0B0000 		.4byte	.LASF366
 8169 1367 01       		.byte	0x1
 8170 1368 5705     		.2byte	0x557
 8171 136a 4E140000 		.4byte	0x144e
 8172 136e 28       		.uleb128 0x28
 8173 136f C1260000 		.4byte	.LASF367
 8174 1373 01       		.byte	0x1
 8175 1374 5905     		.2byte	0x559
 8176 1376 25000000 		.4byte	0x25
 8177 137a 28       		.uleb128 0x28
 8178 137b 21040000 		.4byte	.LASF368
 8179 137f 01       		.byte	0x1
 8180 1380 6305     		.2byte	0x563
 8181 1382 25000000 		.4byte	0x25
 8182 1386 28       		.uleb128 0x28
 8183 1387 5A160000 		.4byte	.LASF369
 8184 138b 01       		.byte	0x1
 8185 138c 6E05     		.2byte	0x56e
 8186 138e 25000000 		.4byte	0x25
 8187 1392 28       		.uleb128 0x28
 8188 1393 730D0000 		.4byte	.LASF370
ARM GAS  /tmp/ccB9RVXV.s 			page 147


 8189 1397 01       		.byte	0x1
 8190 1398 6F05     		.2byte	0x56f
 8191 139a 4E140000 		.4byte	0x144e
 8192 139e 28       		.uleb128 0x28
 8193 139f 7C070000 		.4byte	.LASF371
 8194 13a3 01       		.byte	0x1
 8195 13a4 7005     		.2byte	0x570
 8196 13a6 4E140000 		.4byte	0x144e
 8197 13aa 28       		.uleb128 0x28
 8198 13ab A7060000 		.4byte	.LASF372
 8199 13af 01       		.byte	0x1
 8200 13b0 7A05     		.2byte	0x57a
 8201 13b2 25000000 		.4byte	0x25
 8202 13b6 28       		.uleb128 0x28
 8203 13b7 F6240000 		.4byte	.LASF373
 8204 13bb 01       		.byte	0x1
 8205 13bc 7B05     		.2byte	0x57b
 8206 13be 4E140000 		.4byte	0x144e
 8207 13c2 28       		.uleb128 0x28
 8208 13c3 0A040000 		.4byte	.LASF374
 8209 13c7 01       		.byte	0x1
 8210 13c8 7C05     		.2byte	0x57c
 8211 13ca 4E140000 		.4byte	0x144e
 8212 13ce 28       		.uleb128 0x28
 8213 13cf F31B0000 		.4byte	.LASF375
 8214 13d3 01       		.byte	0x1
 8215 13d4 8505     		.2byte	0x585
 8216 13d6 25000000 		.4byte	0x25
 8217 13da 28       		.uleb128 0x28
 8218 13db E70B0000 		.4byte	.LASF376
 8219 13df 01       		.byte	0x1
 8220 13e0 8605     		.2byte	0x586
 8221 13e2 25000000 		.4byte	0x25
 8222 13e6 28       		.uleb128 0x28
 8223 13e7 211F0000 		.4byte	.LASF377
 8224 13eb 01       		.byte	0x1
 8225 13ec 9905     		.2byte	0x599
 8226 13ee 25000000 		.4byte	0x25
 8227 13f2 28       		.uleb128 0x28
 8228 13f3 B6240000 		.4byte	.LASF378
 8229 13f7 01       		.byte	0x1
 8230 13f8 A405     		.2byte	0x5a4
 8231 13fa 4E140000 		.4byte	0x144e
 8232 13fe 28       		.uleb128 0x28
 8233 13ff 1B100000 		.4byte	.LASF379
 8234 1403 01       		.byte	0x1
 8235 1404 A505     		.2byte	0x5a5
 8236 1406 4E140000 		.4byte	0x144e
 8237 140a 28       		.uleb128 0x28
 8238 140b C7050000 		.4byte	.LASF380
 8239 140f 01       		.byte	0x1
 8240 1410 A705     		.2byte	0x5a7
 8241 1412 4E140000 		.4byte	0x144e
 8242 1416 28       		.uleb128 0x28
 8243 1417 121D0000 		.4byte	.LASF381
 8244 141b 01       		.byte	0x1
 8245 141c A805     		.2byte	0x5a8
ARM GAS  /tmp/ccB9RVXV.s 			page 148


 8246 141e 4E140000 		.4byte	0x144e
 8247 1422 2A       		.uleb128 0x2a
 8248 1423 34140000 		.4byte	0x1434
 8249 1427 28       		.uleb128 0x28
 8250 1428 77050000 		.4byte	.LASF382
 8251 142c 01       		.byte	0x1
 8252 142d 2705     		.2byte	0x527
 8253 142f 25000000 		.4byte	0x25
 8254 1433 00       		.byte	0
 8255 1434 27       		.uleb128 0x27
 8256 1435 28       		.uleb128 0x28
 8257 1436 77050000 		.4byte	.LASF382
 8258 143a 01       		.byte	0x1
 8259 143b 4205     		.2byte	0x542
 8260 143d 25000000 		.4byte	0x25
 8261 1441 00       		.byte	0
 8262 1442 00       		.byte	0
 8263 1443 0A       		.uleb128 0xa
 8264 1444 04       		.byte	0x4
 8265 1445 49140000 		.4byte	0x1449
 8266 1449 05       		.uleb128 0x5
 8267 144a 2C0F0000 		.4byte	0xf2c
 8268 144e 16       		.uleb128 0x16
 8269 144f 25000000 		.4byte	0x25
 8270 1453 2B       		.uleb128 0x2b
 8271 1454 A2200000 		.4byte	.LASF415
 8272 1458 01       		.byte	0x1
 8273 1459 D805     		.2byte	0x5d8
 8274 145b 00000000 		.4byte	.LFB311
 8275 145f 2C020000 		.4byte	.LFE311-.LFB311
 8276 1463 01       		.uleb128 0x1
 8277 1464 9C       		.byte	0x9c
 8278 1465 0F160000 		.4byte	0x160f
 8279 1469 2C       		.uleb128 0x2c
 8280 146a 61726700 		.ascii	"arg\000"
 8281 146e 01       		.byte	0x1
 8282 146f D805     		.2byte	0x5d8
 8283 1471 87030000 		.4byte	0x387
 8284 1475 00000000 		.4byte	.LLST0
 8285 1479 2D       		.uleb128 0x2d
 8286 147a 2F120000 		.4byte	0x122f
 8287 147e 04000000 		.4byte	.LBB109
 8288 1482 00000000 		.4byte	.Ldebug_ranges0+0
 8289 1486 01       		.byte	0x1
 8290 1487 DB05     		.2byte	0x5db
 8291 1489 9A140000 		.4byte	0x149a
 8292 148d 2E       		.uleb128 0x2e
 8293 148e 3B120000 		.4byte	0x123b
 8294 1492 06       		.uleb128 0x6
 8295 1493 03       		.byte	0x3
 8296 1494 00000000 		.4byte	.LC0
 8297 1498 9F       		.byte	0x9f
 8298 1499 00       		.byte	0
 8299 149a 2F       		.uleb128 0x2f
 8300 149b 20000000 		.4byte	.Ldebug_ranges0+0x20
 8301 149f 30       		.uleb128 0x30
 8302 14a0 6C656E00 		.ascii	"len\000"
ARM GAS  /tmp/ccB9RVXV.s 			page 149


 8303 14a4 01       		.byte	0x1
 8304 14a5 E205     		.2byte	0x5e2
 8305 14a7 B1000000 		.4byte	0xb1
 8306 14ab 21000000 		.4byte	.LLST1
 8307 14af 31       		.uleb128 0x31
 8308 14b0 92210000 		.4byte	.LASF106
 8309 14b4 01       		.byte	0x1
 8310 14b5 E305     		.2byte	0x5e3
 8311 14b7 B1000000 		.4byte	0xb1
 8312 14bb 5A000000 		.4byte	.LLST2
 8313 14bf 32       		.uleb128 0x32
 8314 14c0 38000000 		.4byte	.Ldebug_ranges0+0x38
 8315 14c4 FE150000 		.4byte	0x15fe
 8316 14c8 30       		.uleb128 0x30
 8317 14c9 6900     		.ascii	"i\000"
 8318 14cb 01       		.byte	0x1
 8319 14cc F705     		.2byte	0x5f7
 8320 14ce B1000000 		.4byte	0xb1
 8321 14d2 7A000000 		.4byte	.LLST3
 8322 14d6 2F       		.uleb128 0x2f
 8323 14d7 58000000 		.4byte	.Ldebug_ranges0+0x58
 8324 14db 33       		.uleb128 0x33
 8325 14dc 281C0000 		.4byte	.LASF383
 8326 14e0 01       		.byte	0x1
 8327 14e1 F805     		.2byte	0x5f8
 8328 14e3 0F160000 		.4byte	0x160f
 8329 14e7 03       		.uleb128 0x3
 8330 14e8 91       		.byte	0x91
 8331 14e9 987F     		.sleb128 -104
 8332 14eb 33       		.uleb128 0x33
 8333 14ec 3F040000 		.4byte	.LASF384
 8334 14f0 01       		.byte	0x1
 8335 14f1 F905     		.2byte	0x5f9
 8336 14f3 EB000000 		.4byte	0xeb
 8337 14f7 03       		.uleb128 0x3
 8338 14f8 91       		.byte	0x91
 8339 14f9 947F     		.sleb128 -108
 8340 14fb 31       		.uleb128 0x31
 8341 14fc C6100000 		.4byte	.LASF385
 8342 1500 01       		.byte	0x1
 8343 1501 FA05     		.2byte	0x5fa
 8344 1503 B1000000 		.4byte	0xb1
 8345 1507 BD000000 		.4byte	.LLST4
 8346 150b 34       		.uleb128 0x34
 8347 150c A4000000 		.4byte	.LVL10
 8348 1510 D0300000 		.4byte	0x30d0
 8349 1514 27150000 		.4byte	0x1527
 8350 1518 35       		.uleb128 0x35
 8351 1519 01       		.uleb128 0x1
 8352 151a 51       		.byte	0x51
 8353 151b 03       		.uleb128 0x3
 8354 151c 91       		.byte	0x91
 8355 151d 947F     		.sleb128 -108
 8356 151f 35       		.uleb128 0x35
 8357 1520 01       		.uleb128 0x1
 8358 1521 50       		.byte	0x50
 8359 1522 03       		.uleb128 0x3
ARM GAS  /tmp/ccB9RVXV.s 			page 150


 8360 1523 91       		.byte	0x91
 8361 1524 987F     		.sleb128 -104
 8362 1526 00       		.byte	0
 8363 1527 34       		.uleb128 0x34
 8364 1528 C0000000 		.4byte	.LVL11
 8365 152c D0300000 		.4byte	0x30d0
 8366 1530 43150000 		.4byte	0x1543
 8367 1534 35       		.uleb128 0x35
 8368 1535 01       		.uleb128 0x1
 8369 1536 51       		.byte	0x51
 8370 1537 03       		.uleb128 0x3
 8371 1538 91       		.byte	0x91
 8372 1539 947F     		.sleb128 -108
 8373 153b 35       		.uleb128 0x35
 8374 153c 01       		.uleb128 0x1
 8375 153d 50       		.byte	0x50
 8376 153e 03       		.uleb128 0x3
 8377 153f 91       		.byte	0x91
 8378 1540 987F     		.sleb128 -104
 8379 1542 00       		.byte	0
 8380 1543 34       		.uleb128 0x34
 8381 1544 EC000000 		.4byte	.LVL13
 8382 1548 D0300000 		.4byte	0x30d0
 8383 154c 5F150000 		.4byte	0x155f
 8384 1550 35       		.uleb128 0x35
 8385 1551 01       		.uleb128 0x1
 8386 1552 51       		.byte	0x51
 8387 1553 03       		.uleb128 0x3
 8388 1554 91       		.byte	0x91
 8389 1555 947F     		.sleb128 -108
 8390 1557 35       		.uleb128 0x35
 8391 1558 01       		.uleb128 0x1
 8392 1559 50       		.byte	0x50
 8393 155a 03       		.uleb128 0x3
 8394 155b 91       		.byte	0x91
 8395 155c 987F     		.sleb128 -104
 8396 155e 00       		.byte	0
 8397 155f 34       		.uleb128 0x34
 8398 1560 12010000 		.4byte	.LVL14
 8399 1564 D0300000 		.4byte	0x30d0
 8400 1568 7B150000 		.4byte	0x157b
 8401 156c 35       		.uleb128 0x35
 8402 156d 01       		.uleb128 0x1
 8403 156e 51       		.byte	0x51
 8404 156f 03       		.uleb128 0x3
 8405 1570 91       		.byte	0x91
 8406 1571 947F     		.sleb128 -108
 8407 1573 35       		.uleb128 0x35
 8408 1574 01       		.uleb128 0x1
 8409 1575 50       		.byte	0x50
 8410 1576 03       		.uleb128 0x3
 8411 1577 91       		.byte	0x91
 8412 1578 987F     		.sleb128 -104
 8413 157a 00       		.byte	0
 8414 157b 34       		.uleb128 0x34
 8415 157c 38010000 		.4byte	.LVL15
 8416 1580 D0300000 		.4byte	0x30d0
ARM GAS  /tmp/ccB9RVXV.s 			page 151


 8417 1584 97150000 		.4byte	0x1597
 8418 1588 35       		.uleb128 0x35
 8419 1589 01       		.uleb128 0x1
 8420 158a 51       		.byte	0x51
 8421 158b 03       		.uleb128 0x3
 8422 158c 91       		.byte	0x91
 8423 158d 947F     		.sleb128 -108
 8424 158f 35       		.uleb128 0x35
 8425 1590 01       		.uleb128 0x1
 8426 1591 50       		.byte	0x50
 8427 1592 03       		.uleb128 0x3
 8428 1593 91       		.byte	0x91
 8429 1594 987F     		.sleb128 -104
 8430 1596 00       		.byte	0
 8431 1597 34       		.uleb128 0x34
 8432 1598 5E010000 		.4byte	.LVL16
 8433 159c D0300000 		.4byte	0x30d0
 8434 15a0 B3150000 		.4byte	0x15b3
 8435 15a4 35       		.uleb128 0x35
 8436 15a5 01       		.uleb128 0x1
 8437 15a6 51       		.byte	0x51
 8438 15a7 03       		.uleb128 0x3
 8439 15a8 91       		.byte	0x91
 8440 15a9 947F     		.sleb128 -108
 8441 15ab 35       		.uleb128 0x35
 8442 15ac 01       		.uleb128 0x1
 8443 15ad 50       		.byte	0x50
 8444 15ae 03       		.uleb128 0x3
 8445 15af 91       		.byte	0x91
 8446 15b0 987F     		.sleb128 -104
 8447 15b2 00       		.byte	0
 8448 15b3 34       		.uleb128 0x34
 8449 15b4 7C010000 		.4byte	.LVL17
 8450 15b8 D0300000 		.4byte	0x30d0
 8451 15bc CF150000 		.4byte	0x15cf
 8452 15c0 35       		.uleb128 0x35
 8453 15c1 01       		.uleb128 0x1
 8454 15c2 51       		.byte	0x51
 8455 15c3 03       		.uleb128 0x3
 8456 15c4 91       		.byte	0x91
 8457 15c5 947F     		.sleb128 -108
 8458 15c7 35       		.uleb128 0x35
 8459 15c8 01       		.uleb128 0x1
 8460 15c9 50       		.byte	0x50
 8461 15ca 03       		.uleb128 0x3
 8462 15cb 91       		.byte	0x91
 8463 15cc 987F     		.sleb128 -104
 8464 15ce 00       		.byte	0
 8465 15cf 34       		.uleb128 0x34
 8466 15d0 9E010000 		.4byte	.LVL18
 8467 15d4 D0300000 		.4byte	0x30d0
 8468 15d8 EB150000 		.4byte	0x15eb
 8469 15dc 35       		.uleb128 0x35
 8470 15dd 01       		.uleb128 0x1
 8471 15de 51       		.byte	0x51
 8472 15df 03       		.uleb128 0x3
 8473 15e0 91       		.byte	0x91
ARM GAS  /tmp/ccB9RVXV.s 			page 152


 8474 15e1 947F     		.sleb128 -108
 8475 15e3 35       		.uleb128 0x35
 8476 15e4 01       		.uleb128 0x1
 8477 15e5 50       		.byte	0x50
 8478 15e6 03       		.uleb128 0x3
 8479 15e7 91       		.byte	0x91
 8480 15e8 987F     		.sleb128 -104
 8481 15ea 00       		.byte	0
 8482 15eb 36       		.uleb128 0x36
 8483 15ec C4010000 		.4byte	.LVL21
 8484 15f0 F1300000 		.4byte	0x30f1
 8485 15f4 35       		.uleb128 0x35
 8486 15f5 01       		.uleb128 0x1
 8487 15f6 50       		.byte	0x50
 8488 15f7 03       		.uleb128 0x3
 8489 15f8 91       		.byte	0x91
 8490 15f9 987F     		.sleb128 -104
 8491 15fb 00       		.byte	0
 8492 15fc 00       		.byte	0
 8493 15fd 00       		.byte	0
 8494 15fe 36       		.uleb128 0x36
 8495 15ff 36000000 		.4byte	.LVL2
 8496 1603 07310000 		.4byte	0x3107
 8497 1607 35       		.uleb128 0x35
 8498 1608 01       		.uleb128 0x1
 8499 1609 50       		.byte	0x50
 8500 160a 01       		.uleb128 0x1
 8501 160b 31       		.byte	0x31
 8502 160c 00       		.byte	0
 8503 160d 00       		.byte	0
 8504 160e 00       		.byte	0
 8505 160f 17       		.uleb128 0x17
 8506 1610 CA000000 		.4byte	0xca
 8507 1614 1F160000 		.4byte	0x161f
 8508 1618 18       		.uleb128 0x18
 8509 1619 BD040000 		.4byte	0x4bd
 8510 161d 27       		.byte	0x27
 8511 161e 00       		.byte	0
 8512 161f 37       		.uleb128 0x37
 8513 1620 C7270000 		.4byte	.LASF387
 8514 1624 01       		.byte	0x1
 8515 1625 63       		.byte	0x63
 8516 1626 00000000 		.4byte	.LFB256
 8517 162a B8010000 		.4byte	.LFE256-.LFB256
 8518 162e 01       		.uleb128 0x1
 8519 162f 9C       		.byte	0x9c
 8520 1630 07170000 		.4byte	0x1707
 8521 1634 38       		.uleb128 0x38
 8522 1635 5F1B0000 		.4byte	.LASF386
 8523 1639 01       		.byte	0x1
 8524 163a 63       		.byte	0x63
 8525 163b 07170000 		.4byte	0x1707
 8526 163f FC000000 		.4byte	.LLST5
 8527 1643 34       		.uleb128 0x34
 8528 1644 28000000 		.4byte	.LVL26
 8529 1648 1C310000 		.4byte	0x311c
 8530 164c 65160000 		.4byte	0x1665
ARM GAS  /tmp/ccB9RVXV.s 			page 153


 8531 1650 35       		.uleb128 0x35
 8532 1651 01       		.uleb128 0x1
 8533 1652 52       		.byte	0x52
 8534 1653 03       		.uleb128 0x3
 8535 1654 0A       		.byte	0xa
 8536 1655 7401     		.2byte	0x174
 8537 1657 35       		.uleb128 0x35
 8538 1658 01       		.uleb128 0x1
 8539 1659 51       		.byte	0x51
 8540 165a 03       		.uleb128 0x3
 8541 165b F3       		.byte	0xf3
 8542 165c 01       		.uleb128 0x1
 8543 165d 50       		.byte	0x50
 8544 165e 35       		.uleb128 0x35
 8545 165f 01       		.uleb128 0x1
 8546 1660 50       		.byte	0x50
 8547 1661 02       		.uleb128 0x2
 8548 1662 75       		.byte	0x75
 8549 1663 00       		.sleb128 0
 8550 1664 00       		.byte	0
 8551 1665 34       		.uleb128 0x34
 8552 1666 D8000000 		.4byte	.LVL27
 8553 166a 40310000 		.4byte	0x3140
 8554 166e 92160000 		.4byte	0x1692
 8555 1672 35       		.uleb128 0x35
 8556 1673 01       		.uleb128 0x1
 8557 1674 53       		.byte	0x53
 8558 1675 05       		.uleb128 0x5
 8559 1676 03       		.byte	0x3
 8560 1677 00000000 		.4byte	timer_thread
 8561 167b 35       		.uleb128 0x35
 8562 167c 01       		.uleb128 0x1
 8563 167d 52       		.byte	0x52
 8564 167e 02       		.uleb128 0x2
 8565 167f 08       		.byte	0x8
 8566 1680 40       		.byte	0x40
 8567 1681 35       		.uleb128 0x35
 8568 1682 01       		.uleb128 0x1
 8569 1683 51       		.byte	0x51
 8570 1684 03       		.uleb128 0x3
 8571 1685 0A       		.byte	0xa
 8572 1686 9805     		.2byte	0x598
 8573 1688 35       		.uleb128 0x35
 8574 1689 01       		.uleb128 0x1
 8575 168a 50       		.byte	0x50
 8576 168b 05       		.uleb128 0x5
 8577 168c 03       		.byte	0x3
 8578 168d 00000000 		.4byte	.LANCHOR37
 8579 1691 00       		.byte	0
 8580 1692 34       		.uleb128 0x34
 8581 1693 E8000000 		.4byte	.LVL28
 8582 1697 40310000 		.4byte	0x3140
 8583 169b C6160000 		.4byte	0x16c6
 8584 169f 35       		.uleb128 0x35
 8585 16a0 01       		.uleb128 0x1
 8586 16a1 53       		.byte	0x53
 8587 16a2 05       		.uleb128 0x5
ARM GAS  /tmp/ccB9RVXV.s 			page 154


 8588 16a3 03       		.byte	0x3
 8589 16a4 00000000 		.4byte	sample_send_thread
 8590 16a8 35       		.uleb128 0x35
 8591 16a9 01       		.uleb128 0x1
 8592 16aa 52       		.byte	0x52
 8593 16ab 02       		.uleb128 0x2
 8594 16ac 08       		.byte	0x8
 8595 16ad 3F       		.byte	0x3f
 8596 16ae 35       		.uleb128 0x35
 8597 16af 01       		.uleb128 0x1
 8598 16b0 51       		.byte	0x51
 8599 16b1 03       		.uleb128 0x3
 8600 16b2 0A       		.byte	0xa
 8601 16b3 9805     		.2byte	0x598
 8602 16b5 35       		.uleb128 0x35
 8603 16b6 01       		.uleb128 0x1
 8604 16b7 50       		.byte	0x50
 8605 16b8 05       		.uleb128 0x5
 8606 16b9 03       		.byte	0x3
 8607 16ba 00000000 		.4byte	.LANCHOR38
 8608 16be 35       		.uleb128 0x35
 8609 16bf 02       		.uleb128 0x2
 8610 16c0 7D       		.byte	0x7d
 8611 16c1 00       		.sleb128 0
 8612 16c2 02       		.uleb128 0x2
 8613 16c3 74       		.byte	0x74
 8614 16c4 00       		.sleb128 0
 8615 16c5 00       		.byte	0
 8616 16c6 39       		.uleb128 0x39
 8617 16c7 0E010000 		.4byte	.LVL29
 8618 16cb 69310000 		.4byte	0x3169
 8619 16cf DD160000 		.4byte	0x16dd
 8620 16d3 35       		.uleb128 0x35
 8621 16d4 01       		.uleb128 0x1
 8622 16d5 50       		.byte	0x50
 8623 16d6 05       		.uleb128 0x5
 8624 16d7 03       		.byte	0x3
 8625 16d8 00000000 		.4byte	.LANCHOR12
 8626 16dc 00       		.byte	0
 8627 16dd 3A       		.uleb128 0x3a
 8628 16de 12010000 		.4byte	.LVL30
 8629 16e2 7A310000 		.4byte	0x317a
 8630 16e6 39       		.uleb128 0x39
 8631 16e7 26010000 		.4byte	.LVL31
 8632 16eb 81310000 		.4byte	0x3181
 8633 16ef FD160000 		.4byte	0x16fd
 8634 16f3 35       		.uleb128 0x35
 8635 16f4 01       		.uleb128 0x1
 8636 16f5 50       		.byte	0x50
 8637 16f6 05       		.uleb128 0x5
 8638 16f7 03       		.byte	0x3
 8639 16f8 00000000 		.4byte	.LANCHOR12
 8640 16fc 00       		.byte	0
 8641 16fd 3A       		.uleb128 0x3a
 8642 16fe 34010000 		.4byte	.LVL32
 8643 1702 92310000 		.4byte	0x3192
 8644 1706 00       		.byte	0
ARM GAS  /tmp/ccB9RVXV.s 			page 155


 8645 1707 0A       		.uleb128 0xa
 8646 1708 04       		.byte	0x4
 8647 1709 2C0F0000 		.4byte	0xf2c
 8648 170d 3B       		.uleb128 0x3b
 8649 170e A2220000 		.4byte	.LASF393
 8650 1712 01       		.byte	0x1
 8651 1713 AB       		.byte	0xab
 8652 1714 22170000 		.4byte	0x1722
 8653 1718 00000000 		.4byte	.LFB257
 8654 171c 08000000 		.4byte	.LFE257-.LFB257
 8655 1720 01       		.uleb128 0x1
 8656 1721 9C       		.byte	0x9c
 8657 1722 0A       		.uleb128 0xa
 8658 1723 04       		.byte	0x4
 8659 1724 28170000 		.4byte	0x1728
 8660 1728 16       		.uleb128 0x16
 8661 1729 49140000 		.4byte	0x1449
 8662 172d 3C       		.uleb128 0x3c
 8663 172e FB000000 		.4byte	.LASF395
 8664 1732 01       		.byte	0x1
 8665 1733 EA       		.byte	0xea
 8666 1734 050F0000 		.4byte	0xf05
 8667 1738 00000000 		.4byte	.LFB259
 8668 173c 20000000 		.4byte	.LFE259-.LFB259
 8669 1740 01       		.uleb128 0x1
 8670 1741 9C       		.byte	0x9c
 8671 1742 65170000 		.4byte	0x1765
 8672 1746 3D       		.uleb128 0x3d
 8673 1747 72657400 		.ascii	"ret\000"
 8674 174b 01       		.byte	0x1
 8675 174c EB       		.byte	0xeb
 8676 174d 050F0000 		.4byte	0xf05
 8677 1751 00       		.byte	0
 8678 1752 3E       		.uleb128 0x3e
 8679 1753 12000000 		.4byte	.LVL34
 8680 1757 A3310000 		.4byte	0x31a3
 8681 175b 3E       		.uleb128 0x3e
 8682 175c 1A000000 		.4byte	.LVL35
 8683 1760 AE310000 		.4byte	0x31ae
 8684 1764 00       		.byte	0
 8685 1765 3F       		.uleb128 0x3f
 8686 1766 3B080000 		.4byte	.LASF388
 8687 176a 01       		.byte	0x1
 8688 176b 0301     		.2byte	0x103
 8689 176d 00000000 		.4byte	.LFB260
 8690 1771 0C000000 		.4byte	.LFE260-.LFB260
 8691 1775 01       		.uleb128 0x1
 8692 1776 9C       		.byte	0x9c
 8693 1777 8A170000 		.4byte	0x178a
 8694 177b 40       		.uleb128 0x40
 8695 177c 33270000 		.4byte	.LASF389
 8696 1780 01       		.byte	0x1
 8697 1781 0301     		.2byte	0x103
 8698 1783 D6110000 		.4byte	0x11d6
 8699 1787 01       		.uleb128 0x1
 8700 1788 50       		.byte	0x50
 8701 1789 00       		.byte	0
ARM GAS  /tmp/ccB9RVXV.s 			page 156


 8702 178a 41       		.uleb128 0x41
 8703 178b D90F0000 		.4byte	.LASF390
 8704 178f 01       		.byte	0x1
 8705 1790 0A01     		.2byte	0x10a
 8706 1792 00000000 		.4byte	.LFB261
 8707 1796 0C000000 		.4byte	.LFE261-.LFB261
 8708 179a 01       		.uleb128 0x1
 8709 179b 9C       		.byte	0x9c
 8710 179c 41       		.uleb128 0x41
 8711 179d 26020000 		.4byte	.LASF391
 8712 17a1 01       		.byte	0x1
 8713 17a2 1101     		.2byte	0x111
 8714 17a4 00000000 		.4byte	.LFB262
 8715 17a8 0C000000 		.4byte	.LFE262-.LFB262
 8716 17ac 01       		.uleb128 0x1
 8717 17ad 9C       		.byte	0x9c
 8718 17ae 41       		.uleb128 0x41
 8719 17af D9270000 		.4byte	.LASF392
 8720 17b3 01       		.byte	0x1
 8721 17b4 1801     		.2byte	0x118
 8722 17b6 00000000 		.4byte	.LFB263
 8723 17ba 0C000000 		.4byte	.LFE263-.LFB263
 8724 17be 01       		.uleb128 0x1
 8725 17bf 9C       		.byte	0x9c
 8726 17c0 42       		.uleb128 0x42
 8727 17c1 930F0000 		.4byte	.LASF394
 8728 17c5 01       		.byte	0x1
 8729 17c6 1C01     		.2byte	0x11c
 8730 17c8 AF090000 		.4byte	0x9af
 8731 17cc 00000000 		.4byte	.LFB264
 8732 17d0 0C000000 		.4byte	.LFE264-.LFB264
 8733 17d4 01       		.uleb128 0x1
 8734 17d5 9C       		.byte	0x9c
 8735 17d6 43       		.uleb128 0x43
 8736 17d7 E2080000 		.4byte	.LASF396
 8737 17db 01       		.byte	0x1
 8738 17dc 2001     		.2byte	0x120
 8739 17de 44080000 		.4byte	0x844
 8740 17e2 00000000 		.4byte	.LFB265
 8741 17e6 18000000 		.4byte	.LFE265-.LFB265
 8742 17ea 01       		.uleb128 0x1
 8743 17eb 9C       		.byte	0x9c
 8744 17ec 01180000 		.4byte	0x1801
 8745 17f0 44       		.uleb128 0x44
 8746 17f1 591B0000 		.4byte	.LASF314
 8747 17f5 01       		.byte	0x1
 8748 17f6 2001     		.2byte	0x120
 8749 17f8 AF090000 		.4byte	0x9af
 8750 17fc 28010000 		.4byte	.LLST6
 8751 1800 00       		.byte	0
 8752 1801 43       		.uleb128 0x43
 8753 1802 6B220000 		.4byte	.LASF397
 8754 1806 01       		.byte	0x1
 8755 1807 2D01     		.2byte	0x12d
 8756 1809 B9080000 		.4byte	0x8b9
 8757 180d 00000000 		.4byte	.LFB266
 8758 1811 20000000 		.4byte	.LFE266-.LFB266
ARM GAS  /tmp/ccB9RVXV.s 			page 157


 8759 1815 01       		.uleb128 0x1
 8760 1816 9C       		.byte	0x9c
 8761 1817 3B180000 		.4byte	0x183b
 8762 181b 45       		.uleb128 0x45
 8763 181c 72657400 		.ascii	"ret\000"
 8764 1820 01       		.byte	0x1
 8765 1821 2E01     		.2byte	0x12e
 8766 1823 B9080000 		.4byte	0x8b9
 8767 1827 00       		.byte	0
 8768 1828 3E       		.uleb128 0x3e
 8769 1829 12000000 		.4byte	.LVL40
 8770 182d B9310000 		.4byte	0x31b9
 8771 1831 3E       		.uleb128 0x3e
 8772 1832 1A000000 		.4byte	.LVL41
 8773 1836 C4310000 		.4byte	0x31c4
 8774 183a 00       		.byte	0
 8775 183b 43       		.uleb128 0x43
 8776 183c 081C0000 		.4byte	.LASF398
 8777 1840 01       		.byte	0x1
 8778 1841 F501     		.2byte	0x1f5
 8779 1843 25000000 		.4byte	0x25
 8780 1847 00000000 		.4byte	.LFB278
 8781 184b 44000000 		.4byte	.LFE278-.LFB278
 8782 184f 01       		.uleb128 0x1
 8783 1850 9C       		.byte	0x9c
 8784 1851 78180000 		.4byte	0x1878
 8785 1855 30       		.uleb128 0x30
 8786 1856 72657400 		.ascii	"ret\000"
 8787 185a 01       		.byte	0x1
 8788 185b F601     		.2byte	0x1f6
 8789 185d 25000000 		.4byte	0x25
 8790 1861 49010000 		.4byte	.LLST7
 8791 1865 3A       		.uleb128 0x3a
 8792 1866 32000000 		.4byte	.LVL46
 8793 186a CF310000 		.4byte	0x31cf
 8794 186e 3A       		.uleb128 0x3a
 8795 186f 38000000 		.4byte	.LVL48
 8796 1873 DA310000 		.4byte	0x31da
 8797 1877 00       		.byte	0
 8798 1878 43       		.uleb128 0x43
 8799 1879 0F0D0000 		.4byte	.LASF399
 8800 187d 01       		.byte	0x1
 8801 187e 0902     		.2byte	0x209
 8802 1880 25000000 		.4byte	0x25
 8803 1884 00000000 		.4byte	.LFB279
 8804 1888 44000000 		.4byte	.LFE279-.LFB279
 8805 188c 01       		.uleb128 0x1
 8806 188d 9C       		.byte	0x9c
 8807 188e B5180000 		.4byte	0x18b5
 8808 1892 30       		.uleb128 0x30
 8809 1893 72657400 		.ascii	"ret\000"
 8810 1897 01       		.byte	0x1
 8811 1898 0A02     		.2byte	0x20a
 8812 189a 25000000 		.4byte	0x25
 8813 189e A5010000 		.4byte	.LLST8
 8814 18a2 3A       		.uleb128 0x3a
 8815 18a3 32000000 		.4byte	.LVL53
ARM GAS  /tmp/ccB9RVXV.s 			page 158


 8816 18a7 E5310000 		.4byte	0x31e5
 8817 18ab 3A       		.uleb128 0x3a
 8818 18ac 38000000 		.4byte	.LVL55
 8819 18b0 F0310000 		.4byte	0x31f0
 8820 18b4 00       		.byte	0
 8821 18b5 43       		.uleb128 0x43
 8822 18b6 A1110000 		.4byte	.LASF400
 8823 18ba 01       		.byte	0x1
 8824 18bb 1D02     		.2byte	0x21d
 8825 18bd 25000000 		.4byte	0x25
 8826 18c1 00000000 		.4byte	.LFB280
 8827 18c5 24000000 		.4byte	.LFE280-.LFB280
 8828 18c9 01       		.uleb128 0x1
 8829 18ca 9C       		.byte	0x9c
 8830 18cb F3180000 		.4byte	0x18f3
 8831 18cf 46       		.uleb128 0x46
 8832 18d0 72657400 		.ascii	"ret\000"
 8833 18d4 01       		.byte	0x1
 8834 18d5 1E02     		.2byte	0x21e
 8835 18d7 25000000 		.4byte	0x25
 8836 18db 04       		.byte	0x4
 8837 18dc 00000000 		.4byte	0
 8838 18e0 3E       		.uleb128 0x3e
 8839 18e1 12000000 		.4byte	.LVL57
 8840 18e5 FB310000 		.4byte	0x31fb
 8841 18e9 3E       		.uleb128 0x3e
 8842 18ea 1C000000 		.4byte	.LVL58
 8843 18ee 06320000 		.4byte	0x3206
 8844 18f2 00       		.byte	0
 8845 18f3 43       		.uleb128 0x43
 8846 18f4 2D0C0000 		.4byte	.LASF401
 8847 18f8 01       		.byte	0x1
 8848 18f9 3102     		.2byte	0x231
 8849 18fb 25000000 		.4byte	0x25
 8850 18ff 00000000 		.4byte	.LFB281
 8851 1903 44000000 		.4byte	.LFE281-.LFB281
 8852 1907 01       		.uleb128 0x1
 8853 1908 9C       		.byte	0x9c
 8854 1909 30190000 		.4byte	0x1930
 8855 190d 30       		.uleb128 0x30
 8856 190e 72657400 		.ascii	"ret\000"
 8857 1912 01       		.byte	0x1
 8858 1913 3202     		.2byte	0x232
 8859 1915 25000000 		.4byte	0x25
 8860 1919 01020000 		.4byte	.LLST9
 8861 191d 3A       		.uleb128 0x3a
 8862 191e 32000000 		.4byte	.LVL63
 8863 1922 11320000 		.4byte	0x3211
 8864 1926 3A       		.uleb128 0x3a
 8865 1927 38000000 		.4byte	.LVL65
 8866 192b 1C320000 		.4byte	0x321c
 8867 192f 00       		.byte	0
 8868 1930 43       		.uleb128 0x43
 8869 1931 1F240000 		.4byte	.LASF402
 8870 1935 01       		.byte	0x1
 8871 1936 4E02     		.2byte	0x24e
 8872 1938 25000000 		.4byte	0x25
ARM GAS  /tmp/ccB9RVXV.s 			page 159


 8873 193c 00000000 		.4byte	.LFB282
 8874 1940 20000000 		.4byte	.LFE282-.LFB282
 8875 1944 01       		.uleb128 0x1
 8876 1945 9C       		.byte	0x9c
 8877 1946 68190000 		.4byte	0x1968
 8878 194a 40       		.uleb128 0x40
 8879 194b F5130000 		.4byte	.LASF403
 8880 194f 01       		.byte	0x1
 8881 1950 4E02     		.2byte	0x24e
 8882 1952 050F0000 		.4byte	0xf05
 8883 1956 01       		.uleb128 0x1
 8884 1957 50       		.byte	0x50
 8885 1958 47       		.uleb128 0x47
 8886 1959 76616C00 		.ascii	"val\000"
 8887 195d 01       		.byte	0x1
 8888 195e 4F02     		.2byte	0x24f
 8889 1960 25000000 		.4byte	0x25
 8890 1964 02       		.uleb128 0x2
 8891 1965 90       		.byte	0x90
 8892 1966 40       		.uleb128 0x40
 8893 1967 00       		.byte	0
 8894 1968 43       		.uleb128 0x43
 8895 1969 881B0000 		.4byte	.LASF404
 8896 196d 01       		.byte	0x1
 8897 196e 6102     		.2byte	0x261
 8898 1970 25000000 		.4byte	0x25
 8899 1974 00000000 		.4byte	.LFB283
 8900 1978 20000000 		.4byte	.LFE283-.LFB283
 8901 197c 01       		.uleb128 0x1
 8902 197d 9C       		.byte	0x9c
 8903 197e A0190000 		.4byte	0x19a0
 8904 1982 40       		.uleb128 0x40
 8905 1983 F5130000 		.4byte	.LASF403
 8906 1987 01       		.byte	0x1
 8907 1988 6102     		.2byte	0x261
 8908 198a 050F0000 		.4byte	0xf05
 8909 198e 01       		.uleb128 0x1
 8910 198f 50       		.byte	0x50
 8911 1990 47       		.uleb128 0x47
 8912 1991 76616C00 		.ascii	"val\000"
 8913 1995 01       		.byte	0x1
 8914 1996 6202     		.2byte	0x262
 8915 1998 25000000 		.4byte	0x25
 8916 199c 02       		.uleb128 0x2
 8917 199d 90       		.byte	0x90
 8918 199e 40       		.uleb128 0x40
 8919 199f 00       		.byte	0
 8920 19a0 43       		.uleb128 0x43
 8921 19a1 06190000 		.4byte	.LASF405
 8922 19a5 01       		.byte	0x1
 8923 19a6 7402     		.2byte	0x274
 8924 19a8 25000000 		.4byte	0x25
 8925 19ac 00000000 		.4byte	.LFB284
 8926 19b0 20000000 		.4byte	.LFE284-.LFB284
 8927 19b4 01       		.uleb128 0x1
 8928 19b5 9C       		.byte	0x9c
 8929 19b6 D8190000 		.4byte	0x19d8
ARM GAS  /tmp/ccB9RVXV.s 			page 160


 8930 19ba 40       		.uleb128 0x40
 8931 19bb F5130000 		.4byte	.LASF403
 8932 19bf 01       		.byte	0x1
 8933 19c0 7402     		.2byte	0x274
 8934 19c2 050F0000 		.4byte	0xf05
 8935 19c6 01       		.uleb128 0x1
 8936 19c7 50       		.byte	0x50
 8937 19c8 47       		.uleb128 0x47
 8938 19c9 76616C00 		.ascii	"val\000"
 8939 19cd 01       		.byte	0x1
 8940 19ce 7502     		.2byte	0x275
 8941 19d0 25000000 		.4byte	0x25
 8942 19d4 02       		.uleb128 0x2
 8943 19d5 90       		.byte	0x90
 8944 19d6 40       		.uleb128 0x40
 8945 19d7 00       		.byte	0
 8946 19d8 43       		.uleb128 0x43
 8947 19d9 92260000 		.4byte	.LASF406
 8948 19dd 01       		.byte	0x1
 8949 19de 8702     		.2byte	0x287
 8950 19e0 25000000 		.4byte	0x25
 8951 19e4 00000000 		.4byte	.LFB285
 8952 19e8 20000000 		.4byte	.LFE285-.LFB285
 8953 19ec 01       		.uleb128 0x1
 8954 19ed 9C       		.byte	0x9c
 8955 19ee 101A0000 		.4byte	0x1a10
 8956 19f2 40       		.uleb128 0x40
 8957 19f3 F5130000 		.4byte	.LASF403
 8958 19f7 01       		.byte	0x1
 8959 19f8 8702     		.2byte	0x287
 8960 19fa 050F0000 		.4byte	0xf05
 8961 19fe 01       		.uleb128 0x1
 8962 19ff 50       		.byte	0x50
 8963 1a00 47       		.uleb128 0x47
 8964 1a01 76616C00 		.ascii	"val\000"
 8965 1a05 01       		.byte	0x1
 8966 1a06 8802     		.2byte	0x288
 8967 1a08 25000000 		.4byte	0x25
 8968 1a0c 02       		.uleb128 0x2
 8969 1a0d 90       		.byte	0x90
 8970 1a0e 40       		.uleb128 0x40
 8971 1a0f 00       		.byte	0
 8972 1a10 43       		.uleb128 0x43
 8973 1a11 280B0000 		.4byte	.LASF407
 8974 1a15 01       		.byte	0x1
 8975 1a16 9102     		.2byte	0x291
 8976 1a18 25000000 		.4byte	0x25
 8977 1a1c 00000000 		.4byte	.LFB286
 8978 1a20 24000000 		.4byte	.LFE286-.LFB286
 8979 1a24 01       		.uleb128 0x1
 8980 1a25 9C       		.byte	0x9c
 8981 1a26 4E1A0000 		.4byte	0x1a4e
 8982 1a2a 46       		.uleb128 0x46
 8983 1a2b 72657400 		.ascii	"ret\000"
 8984 1a2f 01       		.byte	0x1
 8985 1a30 9202     		.2byte	0x292
 8986 1a32 25000000 		.4byte	0x25
ARM GAS  /tmp/ccB9RVXV.s 			page 161


 8987 1a36 04       		.byte	0x4
 8988 1a37 00000000 		.4byte	0
 8989 1a3b 3E       		.uleb128 0x3e
 8990 1a3c 12000000 		.4byte	.LVL75
 8991 1a40 27320000 		.4byte	0x3227
 8992 1a44 3E       		.uleb128 0x3e
 8993 1a45 1C000000 		.4byte	.LVL76
 8994 1a49 32320000 		.4byte	0x3232
 8995 1a4d 00       		.byte	0
 8996 1a4e 43       		.uleb128 0x43
 8997 1a4f 00180000 		.4byte	.LASF408
 8998 1a53 01       		.byte	0x1
 8999 1a54 A502     		.2byte	0x2a5
 9000 1a56 25000000 		.4byte	0x25
 9001 1a5a 00000000 		.4byte	.LFB287
 9002 1a5e 24000000 		.4byte	.LFE287-.LFB287
 9003 1a62 01       		.uleb128 0x1
 9004 1a63 9C       		.byte	0x9c
 9005 1a64 8C1A0000 		.4byte	0x1a8c
 9006 1a68 46       		.uleb128 0x46
 9007 1a69 72657400 		.ascii	"ret\000"
 9008 1a6d 01       		.byte	0x1
 9009 1a6e A602     		.2byte	0x2a6
 9010 1a70 25000000 		.4byte	0x25
 9011 1a74 04       		.byte	0x4
 9012 1a75 00000000 		.4byte	0
 9013 1a79 3E       		.uleb128 0x3e
 9014 1a7a 12000000 		.4byte	.LVL78
 9015 1a7e 3D320000 		.4byte	0x323d
 9016 1a82 3E       		.uleb128 0x3e
 9017 1a83 1C000000 		.4byte	.LVL79
 9018 1a87 48320000 		.4byte	0x3248
 9019 1a8b 00       		.byte	0
 9020 1a8c 43       		.uleb128 0x43
 9021 1a8d 5C020000 		.4byte	.LASF409
 9022 1a91 01       		.byte	0x1
 9023 1a92 B902     		.2byte	0x2b9
 9024 1a94 25000000 		.4byte	0x25
 9025 1a98 00000000 		.4byte	.LFB288
 9026 1a9c 44000000 		.4byte	.LFE288-.LFB288
 9027 1aa0 01       		.uleb128 0x1
 9028 1aa1 9C       		.byte	0x9c
 9029 1aa2 C91A0000 		.4byte	0x1ac9
 9030 1aa6 30       		.uleb128 0x30
 9031 1aa7 72657400 		.ascii	"ret\000"
 9032 1aab 01       		.byte	0x1
 9033 1aac BA02     		.2byte	0x2ba
 9034 1aae 25000000 		.4byte	0x25
 9035 1ab2 5D020000 		.4byte	.LLST10
 9036 1ab6 3A       		.uleb128 0x3a
 9037 1ab7 32000000 		.4byte	.LVL84
 9038 1abb 53320000 		.4byte	0x3253
 9039 1abf 3A       		.uleb128 0x3a
 9040 1ac0 38000000 		.4byte	.LVL86
 9041 1ac4 5E320000 		.4byte	0x325e
 9042 1ac8 00       		.byte	0
 9043 1ac9 43       		.uleb128 0x43
ARM GAS  /tmp/ccB9RVXV.s 			page 162


 9044 1aca 36140000 		.4byte	.LASF410
 9045 1ace 01       		.byte	0x1
 9046 1acf CD02     		.2byte	0x2cd
 9047 1ad1 25000000 		.4byte	0x25
 9048 1ad5 00000000 		.4byte	.LFB289
 9049 1ad9 44000000 		.4byte	.LFE289-.LFB289
 9050 1add 01       		.uleb128 0x1
 9051 1ade 9C       		.byte	0x9c
 9052 1adf 061B0000 		.4byte	0x1b06
 9053 1ae3 30       		.uleb128 0x30
 9054 1ae4 72657400 		.ascii	"ret\000"
 9055 1ae8 01       		.byte	0x1
 9056 1ae9 CE02     		.2byte	0x2ce
 9057 1aeb 25000000 		.4byte	0x25
 9058 1aef B9020000 		.4byte	.LLST11
 9059 1af3 3A       		.uleb128 0x3a
 9060 1af4 32000000 		.4byte	.LVL91
 9061 1af8 69320000 		.4byte	0x3269
 9062 1afc 3A       		.uleb128 0x3a
 9063 1afd 38000000 		.4byte	.LVL93
 9064 1b01 74320000 		.4byte	0x3274
 9065 1b05 00       		.byte	0
 9066 1b06 43       		.uleb128 0x43
 9067 1b07 E9070000 		.4byte	.LASF411
 9068 1b0b 01       		.byte	0x1
 9069 1b0c E102     		.2byte	0x2e1
 9070 1b0e 25000000 		.4byte	0x25
 9071 1b12 00000000 		.4byte	.LFB290
 9072 1b16 24000000 		.4byte	.LFE290-.LFB290
 9073 1b1a 01       		.uleb128 0x1
 9074 1b1b 9C       		.byte	0x9c
 9075 1b1c 441B0000 		.4byte	0x1b44
 9076 1b20 46       		.uleb128 0x46
 9077 1b21 72657400 		.ascii	"ret\000"
 9078 1b25 01       		.byte	0x1
 9079 1b26 E202     		.2byte	0x2e2
 9080 1b28 25000000 		.4byte	0x25
 9081 1b2c 04       		.byte	0x4
 9082 1b2d 00000000 		.4byte	0
 9083 1b31 3E       		.uleb128 0x3e
 9084 1b32 12000000 		.4byte	.LVL95
 9085 1b36 7F320000 		.4byte	0x327f
 9086 1b3a 3E       		.uleb128 0x3e
 9087 1b3b 1C000000 		.4byte	.LVL96
 9088 1b3f 8A320000 		.4byte	0x328a
 9089 1b43 00       		.byte	0
 9090 1b44 43       		.uleb128 0x43
 9091 1b45 49050000 		.4byte	.LASF412
 9092 1b49 01       		.byte	0x1
 9093 1b4a F502     		.2byte	0x2f5
 9094 1b4c 25000000 		.4byte	0x25
 9095 1b50 00000000 		.4byte	.LFB291
 9096 1b54 24000000 		.4byte	.LFE291-.LFB291
 9097 1b58 01       		.uleb128 0x1
 9098 1b59 9C       		.byte	0x9c
 9099 1b5a 821B0000 		.4byte	0x1b82
 9100 1b5e 46       		.uleb128 0x46
ARM GAS  /tmp/ccB9RVXV.s 			page 163


 9101 1b5f 72657400 		.ascii	"ret\000"
 9102 1b63 01       		.byte	0x1
 9103 1b64 F602     		.2byte	0x2f6
 9104 1b66 25000000 		.4byte	0x25
 9105 1b6a 04       		.byte	0x4
 9106 1b6b 00000000 		.4byte	0
 9107 1b6f 3E       		.uleb128 0x3e
 9108 1b70 12000000 		.4byte	.LVL98
 9109 1b74 95320000 		.4byte	0x3295
 9110 1b78 3E       		.uleb128 0x3e
 9111 1b79 1C000000 		.4byte	.LVL99
 9112 1b7d A0320000 		.4byte	0x32a0
 9113 1b81 00       		.byte	0
 9114 1b82 43       		.uleb128 0x43
 9115 1b83 3D190000 		.4byte	.LASF413
 9116 1b87 01       		.byte	0x1
 9117 1b88 0903     		.2byte	0x309
 9118 1b8a B1000000 		.4byte	0xb1
 9119 1b8e 00000000 		.4byte	.LFB292
 9120 1b92 5C000000 		.4byte	.LFE292-.LFB292
 9121 1b96 01       		.uleb128 0x1
 9122 1b97 9C       		.byte	0x9c
 9123 1b98 CF1B0000 		.4byte	0x1bcf
 9124 1b9c 44       		.uleb128 0x44
 9125 1b9d F5130000 		.4byte	.LASF403
 9126 1ba1 01       		.byte	0x1
 9127 1ba2 0903     		.2byte	0x309
 9128 1ba4 050F0000 		.4byte	0xf05
 9129 1ba8 15030000 		.4byte	.LLST12
 9130 1bac 30       		.uleb128 0x30
 9131 1bad 72657400 		.ascii	"ret\000"
 9132 1bb1 01       		.byte	0x1
 9133 1bb2 0A03     		.2byte	0x30a
 9134 1bb4 B1000000 		.4byte	0xb1
 9135 1bb8 68030000 		.4byte	.LLST13
 9136 1bbc 3A       		.uleb128 0x3a
 9137 1bbd 3A000000 		.4byte	.LVL103
 9138 1bc1 AB320000 		.4byte	0x32ab
 9139 1bc5 3A       		.uleb128 0x3a
 9140 1bc6 48000000 		.4byte	.LVL105
 9141 1bca C0320000 		.4byte	0x32c0
 9142 1bce 00       		.byte	0
 9143 1bcf 48       		.uleb128 0x48
 9144 1bd0 6D120000 		.4byte	0x126d
 9145 1bd4 00000000 		.4byte	.LFB313
 9146 1bd8 44010000 		.4byte	.LFE313-.LFB313
 9147 1bdc 01       		.uleb128 0x1
 9148 1bdd 9C       		.byte	0x9c
 9149 1bde A61C0000 		.4byte	0x1ca6
 9150 1be2 49       		.uleb128 0x49
 9151 1be3 7A120000 		.4byte	0x127a
 9152 1be7 AA030000 		.4byte	.LLST14
 9153 1beb 4A       		.uleb128 0x4a
 9154 1bec 3C000000 		.4byte	.LBB124
 9155 1bf0 08010000 		.4byte	.LBE124-.LBB124
 9156 1bf4 8A1C0000 		.4byte	0x1c8a
 9157 1bf8 4B       		.uleb128 0x4b
ARM GAS  /tmp/ccB9RVXV.s 			page 164


 9158 1bf9 87120000 		.4byte	0x1287
 9159 1bfd 03       		.uleb128 0x3
 9160 1bfe 91       		.byte	0x91
 9161 1bff A47F     		.sleb128 -92
 9162 1c01 4B       		.uleb128 0x4b
 9163 1c02 93120000 		.4byte	0x1293
 9164 1c06 03       		.uleb128 0x3
 9165 1c07 91       		.byte	0x91
 9166 1c08 A87F     		.sleb128 -88
 9167 1c0a 4B       		.uleb128 0x4b
 9168 1c0b 9F120000 		.4byte	0x129f
 9169 1c0f 03       		.uleb128 0x3
 9170 1c10 91       		.byte	0x91
 9171 1c11 AC7F     		.sleb128 -84
 9172 1c13 4B       		.uleb128 0x4b
 9173 1c14 AB120000 		.4byte	0x12ab
 9174 1c18 03       		.uleb128 0x3
 9175 1c19 91       		.byte	0x91
 9176 1c1a B07F     		.sleb128 -80
 9177 1c1c 3A       		.uleb128 0x3a
 9178 1c1d 40000000 		.4byte	.LVL110
 9179 1c21 D5320000 		.4byte	0x32d5
 9180 1c25 3A       		.uleb128 0x3a
 9181 1c26 54000000 		.4byte	.LVL111
 9182 1c2a DC320000 		.4byte	0x32dc
 9183 1c2e 3A       		.uleb128 0x3a
 9184 1c2f 5C000000 		.4byte	.LVL112
 9185 1c33 101A0000 		.4byte	0x1a10
 9186 1c37 3A       		.uleb128 0x3a
 9187 1c38 66000000 		.4byte	.LVL113
 9188 1c3c 4E1A0000 		.4byte	0x1a4e
 9189 1c40 3A       		.uleb128 0x3a
 9190 1c41 8E000000 		.4byte	.LVL114
 9191 1c45 78180000 		.4byte	0x1878
 9192 1c49 3A       		.uleb128 0x3a
 9193 1c4a 96000000 		.4byte	.LVL115
 9194 1c4e F3180000 		.4byte	0x18f3
 9195 1c52 34       		.uleb128 0x34
 9196 1c53 A0000000 		.4byte	.LVL116
 9197 1c57 821B0000 		.4byte	0x1b82
 9198 1c5b 661C0000 		.4byte	0x1c66
 9199 1c5f 35       		.uleb128 0x35
 9200 1c60 01       		.uleb128 0x1
 9201 1c61 50       		.byte	0x50
 9202 1c62 02       		.uleb128 0x2
 9203 1c63 76       		.byte	0x76
 9204 1c64 00       		.sleb128 0
 9205 1c65 00       		.byte	0
 9206 1c66 3A       		.uleb128 0x3a
 9207 1c67 B8000000 		.4byte	.LVL117
 9208 1c6b E3320000 		.4byte	0x32e3
 9209 1c6f 3A       		.uleb128 0x3a
 9210 1c70 DE000000 		.4byte	.LVL118
 9211 1c74 EE320000 		.4byte	0x32ee
 9212 1c78 36       		.uleb128 0x36
 9213 1c79 08010000 		.4byte	.LVL119
 9214 1c7d 04330000 		.4byte	0x3304
ARM GAS  /tmp/ccB9RVXV.s 			page 165


 9215 1c81 35       		.uleb128 0x35
 9216 1c82 01       		.uleb128 0x1
 9217 1c83 50       		.byte	0x50
 9218 1c84 03       		.uleb128 0x3
 9219 1c85 91       		.byte	0x91
 9220 1c86 B07F     		.sleb128 -80
 9221 1c88 00       		.byte	0
 9222 1c89 00       		.byte	0
 9223 1c8a 3A       		.uleb128 0x3a
 9224 1c8b 0A000000 		.4byte	.LVL107
 9225 1c8f 2D170000 		.4byte	0x172d
 9226 1c93 3A       		.uleb128 0x3a
 9227 1c94 2C000000 		.4byte	.LVL108
 9228 1c98 1B330000 		.4byte	0x331b
 9229 1c9c 3A       		.uleb128 0x3a
 9230 1c9d 36000000 		.4byte	.LVL109
 9231 1ca1 22330000 		.4byte	0x3322
 9232 1ca5 00       		.byte	0
 9233 1ca6 48       		.uleb128 0x48
 9234 1ca7 DD120000 		.4byte	0x12dd
 9235 1cab 00000000 		.4byte	.LFB314
 9236 1caf D8050000 		.4byte	.LFE314-.LFB314
 9237 1cb3 01       		.uleb128 0x1
 9238 1cb4 9C       		.byte	0x9c
 9239 1cb5 B3200000 		.4byte	0x20b3
 9240 1cb9 4B       		.uleb128 0x4b
 9241 1cba F6120000 		.4byte	0x12f6
 9242 1cbe 02       		.uleb128 0x2
 9243 1cbf 90       		.byte	0x90
 9244 1cc0 51       		.uleb128 0x51
 9245 1cc1 4C       		.uleb128 0x4c
 9246 1cc2 02130000 		.4byte	0x1302
 9247 1cc6 CB030000 		.4byte	.LLST15
 9248 1cca 4C       		.uleb128 0x4c
 9249 1ccb 0E130000 		.4byte	0x130e
 9250 1ccf 1B040000 		.4byte	.LLST16
 9251 1cd3 4C       		.uleb128 0x4c
 9252 1cd4 1A130000 		.4byte	0x131a
 9253 1cd8 AF040000 		.4byte	.LLST17
 9254 1cdc 4C       		.uleb128 0x4c
 9255 1cdd 26130000 		.4byte	0x1326
 9256 1ce1 53050000 		.4byte	.LLST18
 9257 1ce5 4C       		.uleb128 0x4c
 9258 1ce6 32130000 		.4byte	0x1332
 9259 1cea F3050000 		.4byte	.LLST19
 9260 1cee 4C       		.uleb128 0x4c
 9261 1cef 3E130000 		.4byte	0x133e
 9262 1cf3 7B060000 		.4byte	.LLST20
 9263 1cf7 4C       		.uleb128 0x4c
 9264 1cf8 4A130000 		.4byte	0x134a
 9265 1cfc B3060000 		.4byte	.LLST21
 9266 1d00 4C       		.uleb128 0x4c
 9267 1d01 56130000 		.4byte	0x1356
 9268 1d05 EB060000 		.4byte	.LLST22
 9269 1d09 4C       		.uleb128 0x4c
 9270 1d0a 62130000 		.4byte	0x1362
 9271 1d0e 3B070000 		.4byte	.LLST23
ARM GAS  /tmp/ccB9RVXV.s 			page 166


 9272 1d12 4C       		.uleb128 0x4c
 9273 1d13 6E130000 		.4byte	0x136e
 9274 1d17 AF070000 		.4byte	.LLST24
 9275 1d1b 4C       		.uleb128 0x4c
 9276 1d1c 7A130000 		.4byte	0x137a
 9277 1d20 17080000 		.4byte	.LLST25
 9278 1d24 4C       		.uleb128 0x4c
 9279 1d25 86130000 		.4byte	0x1386
 9280 1d29 7F080000 		.4byte	.LLST26
 9281 1d2d 4C       		.uleb128 0x4c
 9282 1d2e 92130000 		.4byte	0x1392
 9283 1d32 E7080000 		.4byte	.LLST27
 9284 1d36 4C       		.uleb128 0x4c
 9285 1d37 9E130000 		.4byte	0x139e
 9286 1d3b 13090000 		.4byte	.LLST28
 9287 1d3f 4C       		.uleb128 0x4c
 9288 1d40 AA130000 		.4byte	0x13aa
 9289 1d44 3F090000 		.4byte	.LLST29
 9290 1d48 4C       		.uleb128 0x4c
 9291 1d49 B6130000 		.4byte	0x13b6
 9292 1d4d 9B090000 		.4byte	.LLST30
 9293 1d51 4C       		.uleb128 0x4c
 9294 1d52 C2130000 		.4byte	0x13c2
 9295 1d56 C7090000 		.4byte	.LLST31
 9296 1d5a 4C       		.uleb128 0x4c
 9297 1d5b CE130000 		.4byte	0x13ce
 9298 1d5f F3090000 		.4byte	.LLST32
 9299 1d63 4C       		.uleb128 0x4c
 9300 1d64 DA130000 		.4byte	0x13da
 9301 1d68 5B0A0000 		.4byte	.LLST33
 9302 1d6c 4C       		.uleb128 0x4c
 9303 1d6d E6130000 		.4byte	0x13e6
 9304 1d71 930A0000 		.4byte	.LLST34
 9305 1d75 4C       		.uleb128 0x4c
 9306 1d76 F2130000 		.4byte	0x13f2
 9307 1d7a EF0A0000 		.4byte	.LLST35
 9308 1d7e 4C       		.uleb128 0x4c
 9309 1d7f FE130000 		.4byte	0x13fe
 9310 1d83 150B0000 		.4byte	.LLST36
 9311 1d87 4C       		.uleb128 0x4c
 9312 1d88 0A140000 		.4byte	0x140a
 9313 1d8c 290B0000 		.4byte	.LLST37
 9314 1d90 4C       		.uleb128 0x4c
 9315 1d91 16140000 		.4byte	0x1416
 9316 1d95 490B0000 		.4byte	.LLST38
 9317 1d99 2E       		.uleb128 0x2e
 9318 1d9a EA120000 		.4byte	0x12ea
 9319 1d9e 06       		.uleb128 0x6
 9320 1d9f 03       		.byte	0x3
 9321 1da0 00000000 		.4byte	m_conf
 9322 1da4 9F       		.byte	0x9f
 9323 1da5 2D       		.uleb128 0x2d
 9324 1da6 6D120000 		.4byte	0x126d
 9325 1daa F0020000 		.4byte	.LBB125
 9326 1dae 80000000 		.4byte	.Ldebug_ranges0+0x80
 9327 1db2 01       		.byte	0x1
 9328 1db3 2505     		.2byte	0x525
ARM GAS  /tmp/ccB9RVXV.s 			page 167


 9329 1db5 D21D0000 		.4byte	0x1dd2
 9330 1db9 49       		.uleb128 0x49
 9331 1dba 7A120000 		.4byte	0x127a
 9332 1dbe 5D0B0000 		.4byte	.LLST39
 9333 1dc2 36       		.uleb128 0x36
 9334 1dc3 08030000 		.4byte	.LVL176
 9335 1dc7 CF1B0000 		.4byte	0x1bcf
 9336 1dcb 35       		.uleb128 0x35
 9337 1dcc 01       		.uleb128 0x1
 9338 1dcd 50       		.byte	0x50
 9339 1dce 01       		.uleb128 0x1
 9340 1dcf 35       		.byte	0x35
 9341 1dd0 00       		.byte	0
 9342 1dd1 00       		.byte	0
 9343 1dd2 2D       		.uleb128 0x2d
 9344 1dd3 6D120000 		.4byte	0x126d
 9345 1dd7 6C030000 		.4byte	.LBB133
 9346 1ddb B0000000 		.4byte	.Ldebug_ranges0+0xb0
 9347 1ddf 01       		.byte	0x1
 9348 1de0 4005     		.2byte	0x540
 9349 1de2 FF1D0000 		.4byte	0x1dff
 9350 1de6 49       		.uleb128 0x49
 9351 1de7 7A120000 		.4byte	0x127a
 9352 1deb 7D0B0000 		.4byte	.LLST40
 9353 1def 36       		.uleb128 0x36
 9354 1df0 84030000 		.4byte	.LVL187
 9355 1df4 CF1B0000 		.4byte	0x1bcf
 9356 1df8 35       		.uleb128 0x35
 9357 1df9 01       		.uleb128 0x1
 9358 1dfa 50       		.byte	0x50
 9359 1dfb 01       		.uleb128 0x1
 9360 1dfc 36       		.byte	0x36
 9361 1dfd 00       		.byte	0
 9362 1dfe 00       		.byte	0
 9363 1dff 4A       		.uleb128 0x4a
 9364 1e00 C4030000 		.4byte	.LBB141
 9365 1e04 A2000000 		.4byte	.LBE141-.LBB141
 9366 1e08 2C1E0000 		.4byte	0x1e2c
 9367 1e0c 4C       		.uleb128 0x4c
 9368 1e0d 27140000 		.4byte	0x1427
 9369 1e11 9D0B0000 		.4byte	.LLST41
 9370 1e15 36       		.uleb128 0x36
 9371 1e16 FE030000 		.4byte	.LVL192
 9372 1e1a 29330000 		.4byte	0x3329
 9373 1e1e 35       		.uleb128 0x35
 9374 1e1f 02       		.uleb128 0x2
 9375 1e20 90       		.byte	0x90
 9376 1e21 44       		.uleb128 0x44
 9377 1e22 07       		.uleb128 0x7
 9378 1e23 F4       		.byte	0xf4
 9379 1e24 25       		.uleb128 0x25
 9380 1e25 04       		.byte	0x4
 9381 1e26 00000000 		.4byte	0
 9382 1e2a 00       		.byte	0
 9383 1e2b 00       		.byte	0
 9384 1e2c 32       		.uleb128 0x32
 9385 1e2d E0000000 		.4byte	.Ldebug_ranges0+0xe0
ARM GAS  /tmp/ccB9RVXV.s 			page 168


 9386 1e31 551E0000 		.4byte	0x1e55
 9387 1e35 4C       		.uleb128 0x4c
 9388 1e36 35140000 		.4byte	0x1435
 9389 1e3a E10B0000 		.4byte	.LLST42
 9390 1e3e 36       		.uleb128 0x36
 9391 1e3f A0040000 		.4byte	.LVL199
 9392 1e43 29330000 		.4byte	0x3329
 9393 1e47 35       		.uleb128 0x35
 9394 1e48 02       		.uleb128 0x2
 9395 1e49 90       		.byte	0x90
 9396 1e4a 44       		.uleb128 0x44
 9397 1e4b 07       		.uleb128 0x7
 9398 1e4c F4       		.byte	0xf4
 9399 1e4d 25       		.uleb128 0x25
 9400 1e4e 04       		.byte	0x4
 9401 1e4f 00000000 		.4byte	0
 9402 1e53 00       		.byte	0
 9403 1e54 00       		.byte	0
 9404 1e55 3A       		.uleb128 0x3a
 9405 1e56 42000000 		.4byte	.LVL122
 9406 1e5a F3180000 		.4byte	0x18f3
 9407 1e5e 3A       		.uleb128 0x3a
 9408 1e5f 6E000000 		.4byte	.LVL125
 9409 1e63 EE320000 		.4byte	0x32ee
 9410 1e67 3A       		.uleb128 0x3a
 9411 1e68 BA000000 		.4byte	.LVL126
 9412 1e6c EE320000 		.4byte	0x32ee
 9413 1e70 34       		.uleb128 0x34
 9414 1e71 30010000 		.4byte	.LVL132
 9415 1e75 29330000 		.4byte	0x3329
 9416 1e79 A21E0000 		.4byte	0x1ea2
 9417 1e7d 35       		.uleb128 0x35
 9418 1e7e 02       		.uleb128 0x2
 9419 1e7f 90       		.byte	0x90
 9420 1e80 44       		.uleb128 0x44
 9421 1e81 07       		.uleb128 0x7
 9422 1e82 F4       		.byte	0xf4
 9423 1e83 25       		.uleb128 0x25
 9424 1e84 04       		.byte	0x4
 9425 1e85 0000C841 		.4byte	0x41c80000
 9426 1e89 35       		.uleb128 0x35
 9427 1e8a 02       		.uleb128 0x2
 9428 1e8b 90       		.byte	0x90
 9429 1e8c 42       		.uleb128 0x42
 9430 1e8d 07       		.uleb128 0x7
 9431 1e8e F4       		.byte	0xf4
 9432 1e8f 25       		.uleb128 0x25
 9433 1e90 04       		.byte	0x4
 9434 1e91 0000803F 		.4byte	0x3f800000
 9435 1e95 35       		.uleb128 0x35
 9436 1e96 02       		.uleb128 0x2
 9437 1e97 90       		.byte	0x90
 9438 1e98 41       		.uleb128 0x41
 9439 1e99 07       		.uleb128 0x7
 9440 1e9a F4       		.byte	0xf4
 9441 1e9b 25       		.uleb128 0x25
 9442 1e9c 04       		.byte	0x4
ARM GAS  /tmp/ccB9RVXV.s 			page 169


 9443 1e9d 00000000 		.4byte	0
 9444 1ea1 00       		.byte	0
 9445 1ea2 34       		.uleb128 0x34
 9446 1ea3 4C010000 		.4byte	.LVL135
 9447 1ea7 29330000 		.4byte	0x3329
 9448 1eab D41E0000 		.4byte	0x1ed4
 9449 1eaf 35       		.uleb128 0x35
 9450 1eb0 02       		.uleb128 0x2
 9451 1eb1 90       		.byte	0x90
 9452 1eb2 44       		.uleb128 0x44
 9453 1eb3 07       		.uleb128 0x7
 9454 1eb4 F4       		.byte	0xf4
 9455 1eb5 25       		.uleb128 0x25
 9456 1eb6 04       		.byte	0x4
 9457 1eb7 0000C841 		.4byte	0x41c80000
 9458 1ebb 35       		.uleb128 0x35
 9459 1ebc 02       		.uleb128 0x2
 9460 1ebd 90       		.byte	0x90
 9461 1ebe 42       		.uleb128 0x42
 9462 1ebf 07       		.uleb128 0x7
 9463 1ec0 F4       		.byte	0xf4
 9464 1ec1 25       		.uleb128 0x25
 9465 1ec2 04       		.byte	0x4
 9466 1ec3 0000803F 		.4byte	0x3f800000
 9467 1ec7 35       		.uleb128 0x35
 9468 1ec8 02       		.uleb128 0x2
 9469 1ec9 90       		.byte	0x90
 9470 1eca 41       		.uleb128 0x41
 9471 1ecb 07       		.uleb128 0x7
 9472 1ecc F4       		.byte	0xf4
 9473 1ecd 25       		.uleb128 0x25
 9474 1ece 04       		.byte	0x4
 9475 1ecf 00000000 		.4byte	0
 9476 1ed3 00       		.byte	0
 9477 1ed4 34       		.uleb128 0x34
 9478 1ed5 68010000 		.4byte	.LVL138
 9479 1ed9 29330000 		.4byte	0x3329
 9480 1edd 061F0000 		.4byte	0x1f06
 9481 1ee1 35       		.uleb128 0x35
 9482 1ee2 02       		.uleb128 0x2
 9483 1ee3 90       		.byte	0x90
 9484 1ee4 44       		.uleb128 0x44
 9485 1ee5 07       		.uleb128 0x7
 9486 1ee6 F4       		.byte	0xf4
 9487 1ee7 25       		.uleb128 0x25
 9488 1ee8 04       		.byte	0x4
 9489 1ee9 0000C841 		.4byte	0x41c80000
 9490 1eed 35       		.uleb128 0x35
 9491 1eee 02       		.uleb128 0x2
 9492 1eef 90       		.byte	0x90
 9493 1ef0 42       		.uleb128 0x42
 9494 1ef1 07       		.uleb128 0x7
 9495 1ef2 F4       		.byte	0xf4
 9496 1ef3 25       		.uleb128 0x25
 9497 1ef4 04       		.byte	0x4
 9498 1ef5 0000803F 		.4byte	0x3f800000
 9499 1ef9 35       		.uleb128 0x35
ARM GAS  /tmp/ccB9RVXV.s 			page 170


 9500 1efa 02       		.uleb128 0x2
 9501 1efb 90       		.byte	0x90
 9502 1efc 41       		.uleb128 0x41
 9503 1efd 07       		.uleb128 0x7
 9504 1efe F4       		.byte	0xf4
 9505 1eff 25       		.uleb128 0x25
 9506 1f00 04       		.byte	0x4
 9507 1f01 00000000 		.4byte	0
 9508 1f05 00       		.byte	0
 9509 1f06 34       		.uleb128 0x34
 9510 1f07 84010000 		.4byte	.LVL141
 9511 1f0b 29330000 		.4byte	0x3329
 9512 1f0f 381F0000 		.4byte	0x1f38
 9513 1f13 35       		.uleb128 0x35
 9514 1f14 02       		.uleb128 0x2
 9515 1f15 90       		.byte	0x90
 9516 1f16 44       		.uleb128 0x44
 9517 1f17 07       		.uleb128 0x7
 9518 1f18 F4       		.byte	0xf4
 9519 1f19 25       		.uleb128 0x25
 9520 1f1a 04       		.byte	0x4
 9521 1f1b 0000C841 		.4byte	0x41c80000
 9522 1f1f 35       		.uleb128 0x35
 9523 1f20 02       		.uleb128 0x2
 9524 1f21 90       		.byte	0x90
 9525 1f22 42       		.uleb128 0x42
 9526 1f23 07       		.uleb128 0x7
 9527 1f24 F4       		.byte	0xf4
 9528 1f25 25       		.uleb128 0x25
 9529 1f26 04       		.byte	0x4
 9530 1f27 0000803F 		.4byte	0x3f800000
 9531 1f2b 35       		.uleb128 0x35
 9532 1f2c 02       		.uleb128 0x2
 9533 1f2d 90       		.byte	0x90
 9534 1f2e 41       		.uleb128 0x41
 9535 1f2f 07       		.uleb128 0x7
 9536 1f30 F4       		.byte	0xf4
 9537 1f31 25       		.uleb128 0x25
 9538 1f32 04       		.byte	0x4
 9539 1f33 00000000 		.4byte	0
 9540 1f37 00       		.byte	0
 9541 1f38 34       		.uleb128 0x34
 9542 1f39 04020000 		.4byte	.LVL149
 9543 1f3d 52330000 		.4byte	0x3352
 9544 1f41 561F0000 		.4byte	0x1f56
 9545 1f45 35       		.uleb128 0x35
 9546 1f46 02       		.uleb128 0x2
 9547 1f47 90       		.byte	0x90
 9548 1f48 41       		.uleb128 0x41
 9549 1f49 03       		.uleb128 0x3
 9550 1f4a F5       		.byte	0xf5
 9551 1f4b 57       		.uleb128 0x57
 9552 1f4c 25       		.uleb128 0x25
 9553 1f4d 35       		.uleb128 0x35
 9554 1f4e 02       		.uleb128 0x2
 9555 1f4f 90       		.byte	0x90
 9556 1f50 40       		.uleb128 0x40
ARM GAS  /tmp/ccB9RVXV.s 			page 171


 9557 1f51 03       		.uleb128 0x3
 9558 1f52 F5       		.byte	0xf5
 9559 1f53 58       		.uleb128 0x58
 9560 1f54 25       		.uleb128 0x25
 9561 1f55 00       		.byte	0
 9562 1f56 34       		.uleb128 0x34
 9563 1f57 14020000 		.4byte	.LVL152
 9564 1f5b 52330000 		.4byte	0x3352
 9565 1f5f 741F0000 		.4byte	0x1f74
 9566 1f63 35       		.uleb128 0x35
 9567 1f64 02       		.uleb128 0x2
 9568 1f65 90       		.byte	0x90
 9569 1f66 41       		.uleb128 0x41
 9570 1f67 03       		.uleb128 0x3
 9571 1f68 F5       		.byte	0xf5
 9572 1f69 50       		.uleb128 0x50
 9573 1f6a 25       		.uleb128 0x25
 9574 1f6b 35       		.uleb128 0x35
 9575 1f6c 02       		.uleb128 0x2
 9576 1f6d 90       		.byte	0x90
 9577 1f6e 40       		.uleb128 0x40
 9578 1f6f 03       		.uleb128 0x3
 9579 1f70 F5       		.byte	0xf5
 9580 1f71 53       		.uleb128 0x53
 9581 1f72 25       		.uleb128 0x25
 9582 1f73 00       		.byte	0
 9583 1f74 34       		.uleb128 0x34
 9584 1f75 24020000 		.4byte	.LVL155
 9585 1f79 52330000 		.4byte	0x3352
 9586 1f7d 921F0000 		.4byte	0x1f92
 9587 1f81 35       		.uleb128 0x35
 9588 1f82 02       		.uleb128 0x2
 9589 1f83 90       		.byte	0x90
 9590 1f84 41       		.uleb128 0x41
 9591 1f85 03       		.uleb128 0x3
 9592 1f86 F5       		.byte	0xf5
 9593 1f87 56       		.uleb128 0x56
 9594 1f88 25       		.uleb128 0x25
 9595 1f89 35       		.uleb128 0x35
 9596 1f8a 02       		.uleb128 0x2
 9597 1f8b 90       		.byte	0x90
 9598 1f8c 40       		.uleb128 0x40
 9599 1f8d 03       		.uleb128 0x3
 9600 1f8e F5       		.byte	0xf5
 9601 1f8f 57       		.uleb128 0x57
 9602 1f90 25       		.uleb128 0x25
 9603 1f91 00       		.byte	0
 9604 1f92 34       		.uleb128 0x34
 9605 1f93 2C020000 		.4byte	.LVL156
 9606 1f97 52330000 		.4byte	0x3352
 9607 1f9b A81F0000 		.4byte	0x1fa8
 9608 1f9f 35       		.uleb128 0x35
 9609 1fa0 02       		.uleb128 0x2
 9610 1fa1 90       		.byte	0x90
 9611 1fa2 41       		.uleb128 0x41
 9612 1fa3 03       		.uleb128 0x3
 9613 1fa4 F5       		.byte	0xf5
ARM GAS  /tmp/ccB9RVXV.s 			page 172


 9614 1fa5 52       		.uleb128 0x52
 9615 1fa6 25       		.uleb128 0x25
 9616 1fa7 00       		.byte	0
 9617 1fa8 34       		.uleb128 0x34
 9618 1fa9 34020000 		.4byte	.LVL157
 9619 1fad 52330000 		.4byte	0x3352
 9620 1fb1 BE1F0000 		.4byte	0x1fbe
 9621 1fb5 35       		.uleb128 0x35
 9622 1fb6 02       		.uleb128 0x2
 9623 1fb7 90       		.byte	0x90
 9624 1fb8 41       		.uleb128 0x41
 9625 1fb9 03       		.uleb128 0x3
 9626 1fba F5       		.byte	0xf5
 9627 1fbb 55       		.uleb128 0x55
 9628 1fbc 25       		.uleb128 0x25
 9629 1fbd 00       		.byte	0
 9630 1fbe 34       		.uleb128 0x34
 9631 1fbf 3C020000 		.4byte	.LVL158
 9632 1fc3 52330000 		.4byte	0x3352
 9633 1fc7 D41F0000 		.4byte	0x1fd4
 9634 1fcb 35       		.uleb128 0x35
 9635 1fcc 02       		.uleb128 0x2
 9636 1fcd 90       		.byte	0x90
 9637 1fce 41       		.uleb128 0x41
 9638 1fcf 03       		.uleb128 0x3
 9639 1fd0 F5       		.byte	0xf5
 9640 1fd1 54       		.uleb128 0x54
 9641 1fd2 25       		.uleb128 0x25
 9642 1fd3 00       		.byte	0
 9643 1fd4 3A       		.uleb128 0x3a
 9644 1fd5 B0020000 		.4byte	.LVL168
 9645 1fd9 52330000 		.4byte	0x3352
 9646 1fdd 3A       		.uleb128 0x3a
 9647 1fde BC020000 		.4byte	.LVL171
 9648 1fe2 52330000 		.4byte	0x3352
 9649 1fe6 34       		.uleb128 0x34
 9650 1fe7 CC020000 		.4byte	.LVL172
 9651 1feb 52330000 		.4byte	0x3352
 9652 1fef FC1F0000 		.4byte	0x1ffc
 9653 1ff3 35       		.uleb128 0x35
 9654 1ff4 02       		.uleb128 0x2
 9655 1ff5 90       		.byte	0x90
 9656 1ff6 41       		.uleb128 0x41
 9657 1ff7 03       		.uleb128 0x3
 9658 1ff8 F5       		.byte	0xf5
 9659 1ff9 50       		.uleb128 0x50
 9660 1ffa 25       		.uleb128 0x25
 9661 1ffb 00       		.byte	0
 9662 1ffc 34       		.uleb128 0x34
 9663 1ffd 02050000 		.4byte	.LVL204
 9664 2001 29330000 		.4byte	0x3329
 9665 2005 1E200000 		.4byte	0x201e
 9666 2009 35       		.uleb128 0x35
 9667 200a 02       		.uleb128 0x2
 9668 200b 90       		.byte	0x90
 9669 200c 44       		.uleb128 0x44
 9670 200d 07       		.uleb128 0x7
ARM GAS  /tmp/ccB9RVXV.s 			page 173


 9671 200e F4       		.byte	0xf4
 9672 200f 25       		.uleb128 0x25
 9673 2010 04       		.byte	0x4
 9674 2011 00000000 		.4byte	0
 9675 2015 35       		.uleb128 0x35
 9676 2016 02       		.uleb128 0x2
 9677 2017 90       		.byte	0x90
 9678 2018 40       		.uleb128 0x40
 9679 2019 03       		.uleb128 0x3
 9680 201a F5       		.byte	0xf5
 9681 201b 51       		.uleb128 0x51
 9682 201c 25       		.uleb128 0x25
 9683 201d 00       		.byte	0
 9684 201e 34       		.uleb128 0x34
 9685 201f 1E050000 		.4byte	.LVL209
 9686 2023 29330000 		.4byte	0x3329
 9687 2027 40200000 		.4byte	0x2040
 9688 202b 35       		.uleb128 0x35
 9689 202c 02       		.uleb128 0x2
 9690 202d 90       		.byte	0x90
 9691 202e 44       		.uleb128 0x44
 9692 202f 07       		.uleb128 0x7
 9693 2030 F4       		.byte	0xf4
 9694 2031 25       		.uleb128 0x25
 9695 2032 04       		.byte	0x4
 9696 2033 00000000 		.4byte	0
 9697 2037 35       		.uleb128 0x35
 9698 2038 02       		.uleb128 0x2
 9699 2039 90       		.byte	0x90
 9700 203a 40       		.uleb128 0x40
 9701 203b 03       		.uleb128 0x3
 9702 203c F5       		.byte	0xf5
 9703 203d 52       		.uleb128 0x52
 9704 203e 25       		.uleb128 0x25
 9705 203f 00       		.byte	0
 9706 2040 34       		.uleb128 0x34
 9707 2041 34050000 		.4byte	.LVL212
 9708 2045 29330000 		.4byte	0x3329
 9709 2049 62200000 		.4byte	0x2062
 9710 204d 35       		.uleb128 0x35
 9711 204e 02       		.uleb128 0x2
 9712 204f 90       		.byte	0x90
 9713 2050 44       		.uleb128 0x44
 9714 2051 07       		.uleb128 0x7
 9715 2052 F4       		.byte	0xf4
 9716 2053 25       		.uleb128 0x25
 9717 2054 04       		.byte	0x4
 9718 2055 00000000 		.4byte	0
 9719 2059 35       		.uleb128 0x35
 9720 205a 02       		.uleb128 0x2
 9721 205b 90       		.byte	0x90
 9722 205c 40       		.uleb128 0x40
 9723 205d 03       		.uleb128 0x3
 9724 205e F5       		.byte	0xf5
 9725 205f 52       		.uleb128 0x52
 9726 2060 25       		.uleb128 0x25
 9727 2061 00       		.byte	0
ARM GAS  /tmp/ccB9RVXV.s 			page 174


 9728 2062 34       		.uleb128 0x34
 9729 2063 52050000 		.4byte	.LVL215
 9730 2067 29330000 		.4byte	0x3329
 9731 206b 8C200000 		.4byte	0x208c
 9732 206f 35       		.uleb128 0x35
 9733 2070 02       		.uleb128 0x2
 9734 2071 90       		.byte	0x90
 9735 2072 44       		.uleb128 0x44
 9736 2073 07       		.uleb128 0x7
 9737 2074 F4       		.byte	0xf4
 9738 2075 25       		.uleb128 0x25
 9739 2076 04       		.byte	0x4
 9740 2077 00000000 		.4byte	0
 9741 207b 35       		.uleb128 0x35
 9742 207c 02       		.uleb128 0x2
 9743 207d 90       		.byte	0x90
 9744 207e 42       		.uleb128 0x42
 9745 207f 03       		.uleb128 0x3
 9746 2080 F5       		.byte	0xf5
 9747 2081 56       		.uleb128 0x56
 9748 2082 25       		.uleb128 0x25
 9749 2083 35       		.uleb128 0x35
 9750 2084 02       		.uleb128 0x2
 9751 2085 90       		.byte	0x90
 9752 2086 41       		.uleb128 0x41
 9753 2087 03       		.uleb128 0x3
 9754 2088 F5       		.byte	0xf5
 9755 2089 54       		.uleb128 0x54
 9756 208a 25       		.uleb128 0x25
 9757 208b 00       		.byte	0
 9758 208c 36       		.uleb128 0x36
 9759 208d 70050000 		.4byte	.LVL219
 9760 2091 29330000 		.4byte	0x3329
 9761 2095 35       		.uleb128 0x35
 9762 2096 02       		.uleb128 0x2
 9763 2097 90       		.byte	0x90
 9764 2098 44       		.uleb128 0x44
 9765 2099 07       		.uleb128 0x7
 9766 209a F4       		.byte	0xf4
 9767 209b 25       		.uleb128 0x25
 9768 209c 04       		.byte	0x4
 9769 209d 00000000 		.4byte	0
 9770 20a1 35       		.uleb128 0x35
 9771 20a2 02       		.uleb128 0x2
 9772 20a3 90       		.byte	0x90
 9773 20a4 42       		.uleb128 0x42
 9774 20a5 03       		.uleb128 0x3
 9775 20a6 F5       		.byte	0xf5
 9776 20a7 59       		.uleb128 0x59
 9777 20a8 25       		.uleb128 0x25
 9778 20a9 35       		.uleb128 0x35
 9779 20aa 02       		.uleb128 0x2
 9780 20ab 90       		.byte	0x90
 9781 20ac 41       		.uleb128 0x41
 9782 20ad 03       		.uleb128 0x3
 9783 20ae F5       		.byte	0xf5
 9784 20af 55       		.uleb128 0x55
ARM GAS  /tmp/ccB9RVXV.s 			page 175


 9785 20b0 25       		.uleb128 0x25
 9786 20b1 00       		.byte	0
 9787 20b2 00       		.byte	0
 9788 20b3 37       		.uleb128 0x37
 9789 20b4 8B100000 		.4byte	.LASF414
 9790 20b8 01       		.byte	0x1
 9791 20b9 AF       		.byte	0xaf
 9792 20ba 00000000 		.4byte	.LFB258
 9793 20be C8000000 		.4byte	.LFE258-.LFB258
 9794 20c2 01       		.uleb128 0x1
 9795 20c3 9C       		.byte	0x9c
 9796 20c4 CC210000 		.4byte	0x21cc
 9797 20c8 38       		.uleb128 0x38
 9798 20c9 5F1B0000 		.4byte	.LASF386
 9799 20cd 01       		.byte	0x1
 9800 20ce AF       		.byte	0xaf
 9801 20cf 07170000 		.4byte	0x1707
 9802 20d3 250C0000 		.4byte	.LLST43
 9803 20d7 3A       		.uleb128 0x3a
 9804 20d8 16000000 		.4byte	.LVL229
 9805 20dc 6C330000 		.4byte	0x336c
 9806 20e0 34       		.uleb128 0x34
 9807 20e1 44000000 		.4byte	.LVL230
 9808 20e5 1C310000 		.4byte	0x311c
 9809 20e9 01210000 		.4byte	0x2101
 9810 20ed 35       		.uleb128 0x35
 9811 20ee 01       		.uleb128 0x1
 9812 20ef 52       		.byte	0x52
 9813 20f0 03       		.uleb128 0x3
 9814 20f1 0A       		.byte	0xa
 9815 20f2 7401     		.2byte	0x174
 9816 20f4 35       		.uleb128 0x35
 9817 20f5 01       		.uleb128 0x1
 9818 20f6 51       		.byte	0x51
 9819 20f7 02       		.uleb128 0x2
 9820 20f8 74       		.byte	0x74
 9821 20f9 00       		.sleb128 0
 9822 20fa 35       		.uleb128 0x35
 9823 20fb 01       		.uleb128 0x1
 9824 20fc 50       		.byte	0x50
 9825 20fd 02       		.uleb128 0x2
 9826 20fe 75       		.byte	0x75
 9827 20ff 00       		.sleb128 0
 9828 2100 00       		.byte	0
 9829 2101 3A       		.uleb128 0x3a
 9830 2102 48000000 		.4byte	.LVL231
 9831 2106 A61C0000 		.4byte	0x1ca6
 9832 210a 39       		.uleb128 0x39
 9833 210b 5E000000 		.4byte	.LVL233
 9834 210f 73330000 		.4byte	0x3373
 9835 2113 21210000 		.4byte	0x2121
 9836 2117 35       		.uleb128 0x35
 9837 2118 01       		.uleb128 0x1
 9838 2119 50       		.byte	0x50
 9839 211a 05       		.uleb128 0x5
 9840 211b 03       		.byte	0x3
 9841 211c 00000000 		.4byte	.LANCHOR12
ARM GAS  /tmp/ccB9RVXV.s 			page 176


 9842 2120 00       		.byte	0
 9843 2121 39       		.uleb128 0x39
 9844 2122 6A000000 		.4byte	.LVL236
 9845 2126 84330000 		.4byte	0x3384
 9846 212a 38210000 		.4byte	0x2138
 9847 212e 35       		.uleb128 0x35
 9848 212f 01       		.uleb128 0x1
 9849 2130 50       		.byte	0x50
 9850 2131 05       		.uleb128 0x5
 9851 2132 03       		.byte	0x3
 9852 2133 00000000 		.4byte	.LANCHOR12
 9853 2137 00       		.byte	0
 9854 2138 3A       		.uleb128 0x3a
 9855 2139 74000000 		.4byte	.LVL237
 9856 213d 95330000 		.4byte	0x3395
 9857 2141 34       		.uleb128 0x34
 9858 2142 80000000 		.4byte	.LVL238
 9859 2146 1C310000 		.4byte	0x311c
 9860 214a 62210000 		.4byte	0x2162
 9861 214e 35       		.uleb128 0x35
 9862 214f 01       		.uleb128 0x1
 9863 2150 52       		.byte	0x52
 9864 2151 03       		.uleb128 0x3
 9865 2152 0A       		.byte	0xa
 9866 2153 7401     		.2byte	0x174
 9867 2155 35       		.uleb128 0x35
 9868 2156 01       		.uleb128 0x1
 9869 2157 51       		.byte	0x51
 9870 2158 02       		.uleb128 0x2
 9871 2159 74       		.byte	0x74
 9872 215a 00       		.sleb128 0
 9873 215b 35       		.uleb128 0x35
 9874 215c 01       		.uleb128 0x1
 9875 215d 50       		.byte	0x50
 9876 215e 02       		.uleb128 0x2
 9877 215f 75       		.byte	0x75
 9878 2160 00       		.sleb128 0
 9879 2161 00       		.byte	0
 9880 2162 34       		.uleb128 0x34
 9881 2163 86000000 		.4byte	.LVL239
 9882 2167 81310000 		.4byte	0x3181
 9883 216b 76210000 		.4byte	0x2176
 9884 216f 35       		.uleb128 0x35
 9885 2170 01       		.uleb128 0x1
 9886 2171 50       		.byte	0x50
 9887 2172 02       		.uleb128 0x2
 9888 2173 75       		.byte	0x75
 9889 2174 00       		.sleb128 0
 9890 2175 00       		.byte	0
 9891 2176 3A       		.uleb128 0x3a
 9892 2177 8C000000 		.4byte	.LVL240
 9893 217b 7A310000 		.4byte	0x317a
 9894 217f 3A       		.uleb128 0x3a
 9895 2180 9C000000 		.4byte	.LVL241
 9896 2184 9C330000 		.4byte	0x339c
 9897 2188 3A       		.uleb128 0x3a
 9898 2189 A6000000 		.4byte	.LVL242
ARM GAS  /tmp/ccB9RVXV.s 			page 177


 9899 218d 92310000 		.4byte	0x3192
 9900 2191 3A       		.uleb128 0x3a
 9901 2192 B0000000 		.4byte	.LVL243
 9902 2196 AD330000 		.4byte	0x33ad
 9903 219a 34       		.uleb128 0x34
 9904 219b BC000000 		.4byte	.LVL244
 9905 219f 1C310000 		.4byte	0x311c
 9906 21a3 BB210000 		.4byte	0x21bb
 9907 21a7 35       		.uleb128 0x35
 9908 21a8 01       		.uleb128 0x1
 9909 21a9 52       		.byte	0x52
 9910 21aa 03       		.uleb128 0x3
 9911 21ab 0A       		.byte	0xa
 9912 21ac 7401     		.2byte	0x174
 9913 21ae 35       		.uleb128 0x35
 9914 21af 01       		.uleb128 0x1
 9915 21b0 51       		.byte	0x51
 9916 21b1 02       		.uleb128 0x2
 9917 21b2 74       		.byte	0x74
 9918 21b3 00       		.sleb128 0
 9919 21b4 35       		.uleb128 0x35
 9920 21b5 01       		.uleb128 0x1
 9921 21b6 50       		.byte	0x50
 9922 21b7 02       		.uleb128 0x2
 9923 21b8 75       		.byte	0x75
 9924 21b9 00       		.sleb128 0
 9925 21ba 00       		.byte	0
 9926 21bb 36       		.uleb128 0x36
 9927 21bc C2000000 		.4byte	.LVL245
 9928 21c0 69310000 		.4byte	0x3169
 9929 21c4 35       		.uleb128 0x35
 9930 21c5 01       		.uleb128 0x1
 9931 21c6 50       		.byte	0x50
 9932 21c7 02       		.uleb128 0x2
 9933 21c8 75       		.byte	0x75
 9934 21c9 00       		.sleb128 0
 9935 21ca 00       		.byte	0
 9936 21cb 00       		.byte	0
 9937 21cc 2B       		.uleb128 0x2b
 9938 21cd 13030000 		.4byte	.LASF416
 9939 21d1 01       		.byte	0x1
 9940 21d2 C305     		.2byte	0x5c3
 9941 21d4 00000000 		.4byte	.LFB310
 9942 21d8 50000000 		.4byte	.LFE310-.LFB310
 9943 21dc 01       		.uleb128 0x1
 9944 21dd 9C       		.byte	0x9c
 9945 21de 2C220000 		.4byte	0x222c
 9946 21e2 2C       		.uleb128 0x2c
 9947 21e3 61726700 		.ascii	"arg\000"
 9948 21e7 01       		.byte	0x1
 9949 21e8 C305     		.2byte	0x5c3
 9950 21ea 87030000 		.4byte	0x387
 9951 21ee 750C0000 		.4byte	.LLST44
 9952 21f2 2D       		.uleb128 0x2d
 9953 21f3 2F120000 		.4byte	0x122f
 9954 21f7 00000000 		.4byte	.LBB149
 9955 21fb 00010000 		.4byte	.Ldebug_ranges0+0x100
ARM GAS  /tmp/ccB9RVXV.s 			page 178


 9956 21ff 01       		.byte	0x1
 9957 2200 C605     		.2byte	0x5c6
 9958 2202 13220000 		.4byte	0x2213
 9959 2206 2E       		.uleb128 0x2e
 9960 2207 3B120000 		.4byte	0x123b
 9961 220b 06       		.uleb128 0x6
 9962 220c 03       		.byte	0x3
 9963 220d 20000000 		.4byte	.LC2
 9964 2211 9F       		.byte	0x9f
 9965 2212 00       		.byte	0
 9966 2213 3A       		.uleb128 0x3a
 9967 2214 22000000 		.4byte	.LVL248
 9968 2218 A61C0000 		.4byte	0x1ca6
 9969 221c 36       		.uleb128 0x36
 9970 221d 28000000 		.4byte	.LVL249
 9971 2221 B4330000 		.4byte	0x33b4
 9972 2225 35       		.uleb128 0x35
 9973 2226 01       		.uleb128 0x1
 9974 2227 50       		.byte	0x50
 9975 2228 01       		.uleb128 0x1
 9976 2229 3A       		.byte	0x3a
 9977 222a 00       		.byte	0
 9978 222b 00       		.byte	0
 9979 222c 43       		.uleb128 0x43
 9980 222d A31D0000 		.4byte	.LASF417
 9981 2231 01       		.byte	0x1
 9982 2232 1D03     		.2byte	0x31d
 9983 2234 B1000000 		.4byte	0xb1
 9984 2238 00000000 		.4byte	.LFB293
 9985 223c 20000000 		.4byte	.LFE293-.LFB293
 9986 2240 01       		.uleb128 0x1
 9987 2241 9C       		.byte	0x9c
 9988 2242 76220000 		.4byte	0x2276
 9989 2246 44       		.uleb128 0x44
 9990 2247 F5130000 		.4byte	.LASF403
 9991 224b 01       		.byte	0x1
 9992 224c 1D03     		.2byte	0x31d
 9993 224e 050F0000 		.4byte	0xf05
 9994 2252 960C0000 		.4byte	.LLST45
 9995 2256 45       		.uleb128 0x45
 9996 2257 72657400 		.ascii	"ret\000"
 9997 225b 01       		.byte	0x1
 9998 225c 1E03     		.2byte	0x31e
 9999 225e B1000000 		.4byte	0xb1
 10000 2262 00       		.byte	0
 10001 2263 3E       		.uleb128 0x3e
 10002 2264 12000000 		.4byte	.LVL251
 10003 2268 C5330000 		.4byte	0x33c5
 10004 226c 3E       		.uleb128 0x3e
 10005 226d 1A000000 		.4byte	.LVL254
 10006 2271 DA330000 		.4byte	0x33da
 10007 2275 00       		.byte	0
 10008 2276 43       		.uleb128 0x43
 10009 2277 B4120000 		.4byte	.LASF418
 10010 227b 01       		.byte	0x1
 10011 227c 3103     		.2byte	0x331
 10012 227e 25000000 		.4byte	0x25
ARM GAS  /tmp/ccB9RVXV.s 			page 179


 10013 2282 00000000 		.4byte	.LFB294
 10014 2286 24000000 		.4byte	.LFE294-.LFB294
 10015 228a 01       		.uleb128 0x1
 10016 228b 9C       		.byte	0x9c
 10017 228c B4220000 		.4byte	0x22b4
 10018 2290 46       		.uleb128 0x46
 10019 2291 72657400 		.ascii	"ret\000"
 10020 2295 01       		.byte	0x1
 10021 2296 3203     		.2byte	0x332
 10022 2298 25000000 		.4byte	0x25
 10023 229c 04       		.byte	0x4
 10024 229d 00000000 		.4byte	0
 10025 22a1 3E       		.uleb128 0x3e
 10026 22a2 12000000 		.4byte	.LVL256
 10027 22a6 EF330000 		.4byte	0x33ef
 10028 22aa 3E       		.uleb128 0x3e
 10029 22ab 1C000000 		.4byte	.LVL257
 10030 22af FA330000 		.4byte	0x33fa
 10031 22b3 00       		.byte	0
 10032 22b4 43       		.uleb128 0x43
 10033 22b5 FF080000 		.4byte	.LASF419
 10034 22b9 01       		.byte	0x1
 10035 22ba 4503     		.2byte	0x345
 10036 22bc 25000000 		.4byte	0x25
 10037 22c0 00000000 		.4byte	.LFB295
 10038 22c4 20000000 		.4byte	.LFE295-.LFB295
 10039 22c8 01       		.uleb128 0x1
 10040 22c9 9C       		.byte	0x9c
 10041 22ca DF220000 		.4byte	0x22df
 10042 22ce 30       		.uleb128 0x30
 10043 22cf 72657300 		.ascii	"res\000"
 10044 22d3 01       		.byte	0x1
 10045 22d4 4603     		.2byte	0x346
 10046 22d6 25000000 		.4byte	0x25
 10047 22da E90C0000 		.4byte	.LLST46
 10048 22de 00       		.byte	0
 10049 22df 43       		.uleb128 0x43
 10050 22e0 030C0000 		.4byte	.LASF420
 10051 22e4 01       		.byte	0x1
 10052 22e5 4C03     		.2byte	0x34c
 10053 22e7 25000000 		.4byte	0x25
 10054 22eb 00000000 		.4byte	.LFB296
 10055 22ef 20000000 		.4byte	.LFE296-.LFB296
 10056 22f3 01       		.uleb128 0x1
 10057 22f4 9C       		.byte	0x9c
 10058 22f5 0A230000 		.4byte	0x230a
 10059 22f9 30       		.uleb128 0x30
 10060 22fa 72657300 		.ascii	"res\000"
 10061 22fe 01       		.byte	0x1
 10062 22ff 4D03     		.2byte	0x34d
 10063 2301 25000000 		.4byte	0x25
 10064 2305 0F0D0000 		.4byte	.LLST47
 10065 2309 00       		.byte	0
 10066 230a 43       		.uleb128 0x43
 10067 230b 7B130000 		.4byte	.LASF421
 10068 230f 01       		.byte	0x1
 10069 2310 5903     		.2byte	0x359
ARM GAS  /tmp/ccB9RVXV.s 			page 180


 10070 2312 25000000 		.4byte	0x25
 10071 2316 00000000 		.4byte	.LFB297
 10072 231a 40000000 		.4byte	.LFE297-.LFB297
 10073 231e 01       		.uleb128 0x1
 10074 231f 9C       		.byte	0x9c
 10075 2320 34230000 		.4byte	0x2334
 10076 2324 47       		.uleb128 0x47
 10077 2325 72657300 		.ascii	"res\000"
 10078 2329 01       		.byte	0x1
 10079 232a 5A03     		.2byte	0x35a
 10080 232c 25000000 		.4byte	0x25
 10081 2330 02       		.uleb128 0x2
 10082 2331 90       		.byte	0x90
 10083 2332 4F       		.uleb128 0x4f
 10084 2333 00       		.byte	0
 10085 2334 43       		.uleb128 0x43
 10086 2335 3A1B0000 		.4byte	.LASF422
 10087 2339 01       		.byte	0x1
 10088 233a 6603     		.2byte	0x366
 10089 233c 25000000 		.4byte	0x25
 10090 2340 00000000 		.4byte	.LFB298
 10091 2344 40000000 		.4byte	.LFE298-.LFB298
 10092 2348 01       		.uleb128 0x1
 10093 2349 9C       		.byte	0x9c
 10094 234a 5E230000 		.4byte	0x235e
 10095 234e 47       		.uleb128 0x47
 10096 234f 72657300 		.ascii	"res\000"
 10097 2353 01       		.byte	0x1
 10098 2354 6703     		.2byte	0x367
 10099 2356 25000000 		.4byte	0x25
 10100 235a 02       		.uleb128 0x2
 10101 235b 90       		.byte	0x90
 10102 235c 4F       		.uleb128 0x4f
 10103 235d 00       		.byte	0
 10104 235e 42       		.uleb128 0x42
 10105 235f 7A200000 		.4byte	.LASF423
 10106 2363 01       		.byte	0x1
 10107 2364 6D03     		.2byte	0x36d
 10108 2366 25000000 		.4byte	0x25
 10109 236a 00000000 		.4byte	.LFB299
 10110 236e 0C000000 		.4byte	.LFE299-.LFB299
 10111 2372 01       		.uleb128 0x1
 10112 2373 9C       		.byte	0x9c
 10113 2374 43       		.uleb128 0x43
 10114 2375 FB110000 		.4byte	.LASF424
 10115 2379 01       		.byte	0x1
 10116 237a 7103     		.2byte	0x371
 10117 237c 25000000 		.4byte	0x25
 10118 2380 00000000 		.4byte	.LFB300
 10119 2384 44000000 		.4byte	.LFE300-.LFB300
 10120 2388 01       		.uleb128 0x1
 10121 2389 9C       		.byte	0x9c
 10122 238a B1230000 		.4byte	0x23b1
 10123 238e 30       		.uleb128 0x30
 10124 238f 72657400 		.ascii	"ret\000"
 10125 2393 01       		.byte	0x1
 10126 2394 7203     		.2byte	0x372
ARM GAS  /tmp/ccB9RVXV.s 			page 181


 10127 2396 25000000 		.4byte	0x25
 10128 239a 350D0000 		.4byte	.LLST48
 10129 239e 3A       		.uleb128 0x3a
 10130 239f 32000000 		.4byte	.LVL268
 10131 23a3 05340000 		.4byte	0x3405
 10132 23a7 3A       		.uleb128 0x3a
 10133 23a8 38000000 		.4byte	.LVL270
 10134 23ac 10340000 		.4byte	0x3410
 10135 23b0 00       		.byte	0
 10136 23b1 4D       		.uleb128 0x4d
 10137 23b2 D0120000 		.4byte	0x12d0
 10138 23b6 00000000 		.4byte	.LFB301
 10139 23ba 0C000000 		.4byte	.LFE301-.LFB301
 10140 23be 01       		.uleb128 0x1
 10141 23bf 9C       		.byte	0x9c
 10142 23c0 3F       		.uleb128 0x3f
 10143 23c1 B7170000 		.4byte	.LASF425
 10144 23c5 01       		.byte	0x1
 10145 23c6 8903     		.2byte	0x389
 10146 23c8 00000000 		.4byte	.LFB302
 10147 23cc 5C000000 		.4byte	.LFE302-.LFB302
 10148 23d0 01       		.uleb128 0x1
 10149 23d1 9C       		.byte	0x9c
 10150 23d2 16240000 		.4byte	0x2416
 10151 23d6 44       		.uleb128 0x44
 10152 23d7 93060000 		.4byte	.LASF426
 10153 23db 01       		.byte	0x1
 10154 23dc 8903     		.2byte	0x389
 10155 23de 450A0000 		.4byte	0xa45
 10156 23e2 910D0000 		.4byte	.LLST49
 10157 23e6 2C       		.uleb128 0x2c
 10158 23e7 6C656E00 		.ascii	"len\000"
 10159 23eb 01       		.byte	0x1
 10160 23ec 8903     		.2byte	0x389
 10161 23ee E0000000 		.4byte	0xe0
 10162 23f2 B20D0000 		.4byte	.LLST50
 10163 23f6 44       		.uleb128 0x44
 10164 23f7 70270000 		.4byte	.LASF427
 10165 23fb 01       		.byte	0x1
 10166 23fc 8903     		.2byte	0x389
 10167 23fe CA000000 		.4byte	0xca
 10168 2402 D00D0000 		.4byte	.LLST51
 10169 2406 4E       		.uleb128 0x4e
 10170 2407 44000000 		.4byte	.LVL275
 10171 240b 1B340000 		.4byte	0x341b
 10172 240f 35       		.uleb128 0x35
 10173 2410 01       		.uleb128 0x1
 10174 2411 51       		.byte	0x51
 10175 2412 01       		.uleb128 0x1
 10176 2413 31       		.byte	0x31
 10177 2414 00       		.byte	0
 10178 2415 00       		.byte	0
 10179 2416 42       		.uleb128 0x42
 10180 2417 361A0000 		.4byte	.LASF428
 10181 241b 01       		.byte	0x1
 10182 241c A003     		.2byte	0x3a0
 10183 241e 25000000 		.4byte	0x25
ARM GAS  /tmp/ccB9RVXV.s 			page 182


 10184 2422 00000000 		.4byte	.LFB303
 10185 2426 0C000000 		.4byte	.LFE303-.LFB303
 10186 242a 01       		.uleb128 0x1
 10187 242b 9C       		.byte	0x9c
 10188 242c 42       		.uleb128 0x42
 10189 242d B2140000 		.4byte	.LASF429
 10190 2431 01       		.byte	0x1
 10191 2432 AB03     		.2byte	0x3ab
 10192 2434 25000000 		.4byte	0x25
 10193 2438 00000000 		.4byte	.LFB304
 10194 243c 0C000000 		.4byte	.LFE304-.LFB304
 10195 2440 01       		.uleb128 0x1
 10196 2441 9C       		.byte	0x9c
 10197 2442 43       		.uleb128 0x43
 10198 2443 D5150000 		.4byte	.LASF430
 10199 2447 01       		.byte	0x1
 10200 2448 B903     		.2byte	0x3b9
 10201 244a B1000000 		.4byte	0xb1
 10202 244e 00000000 		.4byte	.LFB305
 10203 2452 74000000 		.4byte	.LFE305-.LFB305
 10204 2456 01       		.uleb128 0x1
 10205 2457 9C       		.byte	0x9c
 10206 2458 91240000 		.4byte	0x2491
 10207 245c 31       		.uleb128 0x31
 10208 245d 6B240000 		.4byte	.LASF431
 10209 2461 01       		.byte	0x1
 10210 2462 C003     		.2byte	0x3c0
 10211 2464 B1000000 		.4byte	0xb1
 10212 2468 F10D0000 		.4byte	.LLST52
 10213 246c 3A       		.uleb128 0x3a
 10214 246d 06000000 		.4byte	.LVL276
 10215 2471 01180000 		.4byte	0x1801
 10216 2475 3A       		.uleb128 0x3a
 10217 2476 28000000 		.4byte	.LVL279
 10218 247a 31340000 		.4byte	0x3431
 10219 247e 3A       		.uleb128 0x3a
 10220 247f 48000000 		.4byte	.LVL284
 10221 2483 3C340000 		.4byte	0x343c
 10222 2487 3A       		.uleb128 0x3a
 10223 2488 58000000 		.4byte	.LVL287
 10224 248c 22330000 		.4byte	0x3322
 10225 2490 00       		.byte	0
 10226 2491 3F       		.uleb128 0x3f
 10227 2492 81250000 		.4byte	.LASF432
 10228 2496 01       		.byte	0x1
 10229 2497 4001     		.2byte	0x140
 10230 2499 00000000 		.4byte	.LFB267
 10231 249d 70000000 		.4byte	.LFE267-.LFB267
 10232 24a1 01       		.uleb128 0x1
 10233 24a2 9C       		.byte	0x9c
 10234 24a3 D3240000 		.4byte	0x24d3
 10235 24a7 44       		.uleb128 0x44
 10236 24a8 08110000 		.4byte	.LASF433
 10237 24ac 01       		.byte	0x1
 10238 24ad 4001     		.2byte	0x140
 10239 24af 25000000 		.4byte	0x25
 10240 24b3 290E0000 		.4byte	.LLST53
ARM GAS  /tmp/ccB9RVXV.s 			page 183


 10241 24b7 3A       		.uleb128 0x3a
 10242 24b8 0E000000 		.4byte	.LVL290
 10243 24bc 42240000 		.4byte	0x2442
 10244 24c0 3E       		.uleb128 0x3e
 10245 24c1 42000000 		.4byte	.LVL292
 10246 24c5 47340000 		.4byte	0x3447
 10247 24c9 3E       		.uleb128 0x3e
 10248 24ca 6C000000 		.4byte	.LVL296
 10249 24ce 58340000 		.4byte	0x3458
 10250 24d2 00       		.byte	0
 10251 24d3 3F       		.uleb128 0x3f
 10252 24d4 D1090000 		.4byte	.LASF434
 10253 24d8 01       		.byte	0x1
 10254 24d9 E701     		.2byte	0x1e7
 10255 24db 00000000 		.4byte	.LFB276
 10256 24df 0C000000 		.4byte	.LFE276-.LFB276
 10257 24e3 01       		.uleb128 0x1
 10258 24e4 9C       		.byte	0x9c
 10259 24e5 00250000 		.4byte	0x2500
 10260 24e9 4E       		.uleb128 0x4e
 10261 24ea 08000000 		.4byte	.LVL297
 10262 24ee 91240000 		.4byte	0x2491
 10263 24f2 35       		.uleb128 0x35
 10264 24f3 02       		.uleb128 0x2
 10265 24f4 90       		.byte	0x90
 10266 24f5 40       		.uleb128 0x40
 10267 24f6 07       		.uleb128 0x7
 10268 24f7 F4       		.byte	0xf4
 10269 24f8 25       		.uleb128 0x25
 10270 24f9 04       		.byte	0x4
 10271 24fa 00000000 		.4byte	0
 10272 24fe 00       		.byte	0
 10273 24ff 00       		.byte	0
 10274 2500 3F       		.uleb128 0x3f
 10275 2501 A8230000 		.4byte	.LASF435
 10276 2505 01       		.byte	0x1
 10277 2506 5401     		.2byte	0x154
 10278 2508 00000000 		.4byte	.LFB268
 10279 250c 70000000 		.4byte	.LFE268-.LFB268
 10280 2510 01       		.uleb128 0x1
 10281 2511 9C       		.byte	0x9c
 10282 2512 42250000 		.4byte	0x2542
 10283 2516 44       		.uleb128 0x44
 10284 2517 08110000 		.4byte	.LASF433
 10285 251b 01       		.byte	0x1
 10286 251c 5401     		.2byte	0x154
 10287 251e 25000000 		.4byte	0x25
 10288 2522 910E0000 		.4byte	.LLST54
 10289 2526 3A       		.uleb128 0x3a
 10290 2527 0E000000 		.4byte	.LVL299
 10291 252b 42240000 		.4byte	0x2442
 10292 252f 3E       		.uleb128 0x3e
 10293 2530 42000000 		.4byte	.LVL301
 10294 2534 69340000 		.4byte	0x3469
 10295 2538 3E       		.uleb128 0x3e
 10296 2539 6C000000 		.4byte	.LVL305
 10297 253d 7A340000 		.4byte	0x347a
ARM GAS  /tmp/ccB9RVXV.s 			page 184


 10298 2541 00       		.byte	0
 10299 2542 3F       		.uleb128 0x3f
 10300 2543 3F060000 		.4byte	.LASF436
 10301 2547 01       		.byte	0x1
 10302 2548 6801     		.2byte	0x168
 10303 254a 00000000 		.4byte	.LFB269
 10304 254e 70000000 		.4byte	.LFE269-.LFB269
 10305 2552 01       		.uleb128 0x1
 10306 2553 9C       		.byte	0x9c
 10307 2554 84250000 		.4byte	0x2584
 10308 2558 2C       		.uleb128 0x2c
 10309 2559 72706D00 		.ascii	"rpm\000"
 10310 255d 01       		.byte	0x1
 10311 255e 6801     		.2byte	0x168
 10312 2560 25000000 		.4byte	0x25
 10313 2564 F90E0000 		.4byte	.LLST55
 10314 2568 3A       		.uleb128 0x3a
 10315 2569 0E000000 		.4byte	.LVL307
 10316 256d 42240000 		.4byte	0x2442
 10317 2571 3E       		.uleb128 0x3e
 10318 2572 42000000 		.4byte	.LVL309
 10319 2576 8B340000 		.4byte	0x348b
 10320 257a 3E       		.uleb128 0x3e
 10321 257b 6C000000 		.4byte	.LVL313
 10322 257f 9C340000 		.4byte	0x349c
 10323 2583 00       		.byte	0
 10324 2584 3F       		.uleb128 0x3f
 10325 2585 301F0000 		.4byte	.LASF437
 10326 2589 01       		.byte	0x1
 10327 258a 7C01     		.2byte	0x17c
 10328 258c 00000000 		.4byte	.LFB270
 10329 2590 84000000 		.4byte	.LFE270-.LFB270
 10330 2594 01       		.uleb128 0x1
 10331 2595 9C       		.byte	0x9c
 10332 2596 C6250000 		.4byte	0x25c6
 10333 259a 2C       		.uleb128 0x2c
 10334 259b 706F7300 		.ascii	"pos\000"
 10335 259f 01       		.byte	0x1
 10336 25a0 7C01     		.2byte	0x17c
 10337 25a2 25000000 		.4byte	0x25
 10338 25a6 610F0000 		.4byte	.LLST56
 10339 25aa 3A       		.uleb128 0x3a
 10340 25ab 0E000000 		.4byte	.LVL315
 10341 25af 42240000 		.4byte	0x2442
 10342 25b3 3E       		.uleb128 0x3e
 10343 25b4 4C000000 		.4byte	.LVL317
 10344 25b8 AD340000 		.4byte	0x34ad
 10345 25bc 3E       		.uleb128 0x3e
 10346 25bd 7A000000 		.4byte	.LVL321
 10347 25c1 BE340000 		.4byte	0x34be
 10348 25c5 00       		.byte	0
 10349 25c6 48       		.uleb128 0x48
 10350 25c7 53120000 		.4byte	0x1253
 10351 25cb 00000000 		.4byte	.LFB271
 10352 25cf 70000000 		.4byte	.LFE271-.LFB271
 10353 25d3 01       		.uleb128 0x1
 10354 25d4 9C       		.byte	0x9c
ARM GAS  /tmp/ccB9RVXV.s 			page 185


 10355 25d5 11260000 		.4byte	0x2611
 10356 25d9 49       		.uleb128 0x49
 10357 25da 60120000 		.4byte	0x1260
 10358 25de E70F0000 		.4byte	.LLST57
 10359 25e2 32       		.uleb128 0x32
 10360 25e3 18010000 		.4byte	.Ldebug_ranges0+0x118
 10361 25e7 FE250000 		.4byte	0x25fe
 10362 25eb 49       		.uleb128 0x49
 10363 25ec 60120000 		.4byte	0x1260
 10364 25f0 4F100000 		.4byte	.LLST58
 10365 25f4 3E       		.uleb128 0x3e
 10366 25f5 6C000000 		.4byte	.LVL329
 10367 25f9 CF340000 		.4byte	0x34cf
 10368 25fd 00       		.byte	0
 10369 25fe 3A       		.uleb128 0x3a
 10370 25ff 0E000000 		.4byte	.LVL323
 10371 2603 42240000 		.4byte	0x2442
 10372 2607 3E       		.uleb128 0x3e
 10373 2608 42000000 		.4byte	.LVL325
 10374 260c E0340000 		.4byte	0x34e0
 10375 2610 00       		.byte	0
 10376 2611 3F       		.uleb128 0x3f
 10377 2612 64110000 		.4byte	.LASF438
 10378 2616 01       		.byte	0x1
 10379 2617 C001     		.2byte	0x1c0
 10380 2619 00000000 		.4byte	.LFB273
 10381 261d 2C000000 		.4byte	.LFE273-.LFB273
 10382 2621 01       		.uleb128 0x1
 10383 2622 9C       		.byte	0x9c
 10384 2623 4A260000 		.4byte	0x264a
 10385 2627 2C       		.uleb128 0x2c
 10386 2628 76616C00 		.ascii	"val\000"
 10387 262c 01       		.byte	0x1
 10388 262d C001     		.2byte	0x1c0
 10389 262f 25000000 		.4byte	0x25
 10390 2633 73100000 		.4byte	.LLST59
 10391 2637 3E       		.uleb128 0x3e
 10392 2638 18000000 		.4byte	.LVL332
 10393 263c 53120000 		.4byte	0x1253
 10394 2640 3E       		.uleb128 0x3e
 10395 2641 28000000 		.4byte	.LVL334
 10396 2645 53120000 		.4byte	0x1253
 10397 2649 00       		.byte	0
 10398 264a 3F       		.uleb128 0x3f
 10399 264b 431E0000 		.4byte	.LASF439
 10400 264f 01       		.byte	0x1
 10401 2650 EE01     		.2byte	0x1ee
 10402 2652 00000000 		.4byte	.LFB277
 10403 2656 0C000000 		.4byte	.LFE277-.LFB277
 10404 265a 01       		.uleb128 0x1
 10405 265b 9C       		.byte	0x9c
 10406 265c 77260000 		.4byte	0x2677
 10407 2660 4E       		.uleb128 0x4e
 10408 2661 08000000 		.4byte	.LVL335
 10409 2665 53120000 		.4byte	0x1253
 10410 2669 35       		.uleb128 0x35
 10411 266a 02       		.uleb128 0x2
ARM GAS  /tmp/ccB9RVXV.s 			page 186


 10412 266b 90       		.byte	0x90
 10413 266c 40       		.uleb128 0x40
 10414 266d 07       		.uleb128 0x7
 10415 266e F4       		.byte	0xf4
 10416 266f 25       		.uleb128 0x25
 10417 2670 04       		.byte	0x4
 10418 2671 00000000 		.4byte	0
 10419 2675 00       		.byte	0
 10420 2676 00       		.byte	0
 10421 2677 3F       		.uleb128 0x3f
 10422 2678 29220000 		.4byte	.LASF440
 10423 267c 01       		.byte	0x1
 10424 267d A601     		.2byte	0x1a6
 10425 267f 00000000 		.4byte	.LFB272
 10426 2683 70000000 		.4byte	.LFE272-.LFB272
 10427 2687 01       		.uleb128 0x1
 10428 2688 9C       		.byte	0x9c
 10429 2689 B9260000 		.4byte	0x26b9
 10430 268d 44       		.uleb128 0x44
 10431 268e 08150000 		.4byte	.LASF315
 10432 2692 01       		.byte	0x1
 10433 2693 A601     		.2byte	0x1a6
 10434 2695 25000000 		.4byte	0x25
 10435 2699 B3100000 		.4byte	.LLST60
 10436 269d 3A       		.uleb128 0x3a
 10437 269e 0E000000 		.4byte	.LVL337
 10438 26a2 42240000 		.4byte	0x2442
 10439 26a6 3E       		.uleb128 0x3e
 10440 26a7 42000000 		.4byte	.LVL339
 10441 26ab F1340000 		.4byte	0x34f1
 10442 26af 3E       		.uleb128 0x3e
 10443 26b0 6C000000 		.4byte	.LVL343
 10444 26b4 02350000 		.4byte	0x3502
 10445 26b8 00       		.byte	0
 10446 26b9 3F       		.uleb128 0x3f
 10447 26ba E3210000 		.4byte	.LASF441
 10448 26be 01       		.byte	0x1
 10449 26bf CE01     		.2byte	0x1ce
 10450 26c1 00000000 		.4byte	.LFB274
 10451 26c5 14000000 		.4byte	.LFE274-.LFB274
 10452 26c9 01       		.uleb128 0x1
 10453 26ca 9C       		.byte	0x9c
 10454 26cb E9260000 		.4byte	0x26e9
 10455 26cf 2C       		.uleb128 0x2c
 10456 26d0 76616C00 		.ascii	"val\000"
 10457 26d4 01       		.byte	0x1
 10458 26d5 CE01     		.2byte	0x1ce
 10459 26d7 25000000 		.4byte	0x25
 10460 26db 1B110000 		.4byte	.LLST61
 10461 26df 3E       		.uleb128 0x3e
 10462 26e0 0E000000 		.4byte	.LVL346
 10463 26e4 77260000 		.4byte	0x2677
 10464 26e8 00       		.byte	0
 10465 26e9 3F       		.uleb128 0x3f
 10466 26ea CE220000 		.4byte	.LASF442
 10467 26ee 01       		.byte	0x1
 10468 26ef D201     		.2byte	0x1d2
ARM GAS  /tmp/ccB9RVXV.s 			page 187


 10469 26f1 00000000 		.4byte	.LFB275
 10470 26f5 48000000 		.4byte	.LFE275-.LFB275
 10471 26f9 01       		.uleb128 0x1
 10472 26fa 9C       		.byte	0x9c
 10473 26fb 45270000 		.4byte	0x2745
 10474 26ff 44       		.uleb128 0x44
 10475 2700 08150000 		.4byte	.LASF315
 10476 2704 01       		.byte	0x1
 10477 2705 D201     		.2byte	0x1d2
 10478 2707 25000000 		.4byte	0x25
 10479 270b 3F110000 		.4byte	.LLST62
 10480 270f 3A       		.uleb128 0x3a
 10481 2710 0E000000 		.4byte	.LVL348
 10482 2714 42240000 		.4byte	0x2442
 10483 2718 39       		.uleb128 0x39
 10484 2719 2E000000 		.4byte	.LVL350
 10485 271d 13350000 		.4byte	0x3513
 10486 2721 30270000 		.4byte	0x2730
 10487 2725 35       		.uleb128 0x35
 10488 2726 02       		.uleb128 0x2
 10489 2727 90       		.byte	0x90
 10490 2728 40       		.uleb128 0x40
 10491 2729 05       		.uleb128 0x5
 10492 272a F3       		.byte	0xf3
 10493 272b 03       		.uleb128 0x3
 10494 272c F5       		.byte	0xf5
 10495 272d 40       		.uleb128 0x40
 10496 272e 25       		.uleb128 0x25
 10497 272f 00       		.byte	0
 10498 2730 4E       		.uleb128 0x4e
 10499 2731 44000000 		.4byte	.LVL354
 10500 2735 02350000 		.4byte	0x3502
 10501 2739 35       		.uleb128 0x35
 10502 273a 02       		.uleb128 0x2
 10503 273b 90       		.byte	0x90
 10504 273c 40       		.uleb128 0x40
 10505 273d 05       		.uleb128 0x5
 10506 273e F3       		.byte	0xf3
 10507 273f 03       		.uleb128 0x3
 10508 2740 F5       		.byte	0xf5
 10509 2741 40       		.uleb128 0x40
 10510 2742 25       		.uleb128 0x25
 10511 2743 00       		.byte	0
 10512 2744 00       		.byte	0
 10513 2745 48       		.uleb128 0x48
 10514 2746 6D120000 		.4byte	0x126d
 10515 274a 00000000 		.4byte	.LFB306
 10516 274e 24000000 		.4byte	.LFE306-.LFB306
 10517 2752 01       		.uleb128 0x1
 10518 2753 9C       		.byte	0x9c
 10519 2754 6B270000 		.4byte	0x276b
 10520 2758 49       		.uleb128 0x49
 10521 2759 7A120000 		.4byte	0x127a
 10522 275d BF110000 		.4byte	.LLST63
 10523 2761 3E       		.uleb128 0x3e
 10524 2762 0C000000 		.4byte	.LVL356
 10525 2766 CF1B0000 		.4byte	0x1bcf
ARM GAS  /tmp/ccB9RVXV.s 			page 188


 10526 276a 00       		.byte	0
 10527 276b 4F       		.uleb128 0x4f
 10528 276c 5C180000 		.4byte	.LASF443
 10529 2770 01       		.byte	0x1
 10530 2771 1704     		.2byte	0x417
 10531 2773 00000000 		.4byte	.LFB307
 10532 2777 E0060000 		.4byte	.LFE307-.LFB307
 10533 277b 01       		.uleb128 0x1
 10534 277c 9C       		.byte	0x9c
 10535 277d B42C0000 		.4byte	0x2cb4
 10536 2781 31       		.uleb128 0x31
 10537 2782 FD230000 		.4byte	.LASF444
 10538 2786 01       		.byte	0x1
 10539 2787 1A04     		.2byte	0x41a
 10540 2789 4E140000 		.4byte	0x144e
 10541 278d EB110000 		.4byte	.LLST64
 10542 2791 33       		.uleb128 0x33
 10543 2792 B1020000 		.4byte	.LASF445
 10544 2796 01       		.byte	0x1
 10545 2797 1D04     		.2byte	0x41d
 10546 2799 B1000000 		.4byte	0xb1
 10547 279d 05       		.uleb128 0x5
 10548 279e 03       		.byte	0x3
 10549 279f 00000000 		.4byte	wrong_voltage_iterations.10697
 10550 27a3 31       		.uleb128 0x31
 10551 27a4 08150000 		.4byte	.LASF315
 10552 27a8 01       		.byte	0x1
 10553 27a9 3404     		.2byte	0x434
 10554 27ab 4E140000 		.4byte	0x144e
 10555 27af 17120000 		.4byte	.LLST65
 10556 27b3 31       		.uleb128 0x31
 10557 27b4 6F060000 		.4byte	.LASF446
 10558 27b8 01       		.byte	0x1
 10559 27b9 3504     		.2byte	0x435
 10560 27bb 4E140000 		.4byte	0x144e
 10561 27bf 5B120000 		.4byte	.LLST66
 10562 27c3 31       		.uleb128 0x31
 10563 27c4 371E0000 		.4byte	.LASF447
 10564 27c8 01       		.byte	0x1
 10565 27c9 4004     		.2byte	0x440
 10566 27cb 25000000 		.4byte	0x25
 10567 27cf 9F120000 		.4byte	.LLST67
 10568 27d3 31       		.uleb128 0x31
 10569 27d4 13010000 		.4byte	.LASF448
 10570 27d8 01       		.byte	0x1
 10571 27d9 4104     		.2byte	0x441
 10572 27db 25000000 		.4byte	0x25
 10573 27df FB120000 		.4byte	.LLST68
 10574 27e3 31       		.uleb128 0x31
 10575 27e4 9B030000 		.4byte	.LASF449
 10576 27e8 01       		.byte	0x1
 10577 27e9 5904     		.2byte	0x459
 10578 27eb 4E140000 		.4byte	0x144e
 10579 27ef 3F130000 		.4byte	.LLST69
 10580 27f3 31       		.uleb128 0x31
 10581 27f4 15220000 		.4byte	.LASF450
 10582 27f8 01       		.byte	0x1
ARM GAS  /tmp/ccB9RVXV.s 			page 189


 10583 27f9 7004     		.2byte	0x470
 10584 27fb 050F0000 		.4byte	0xf05
 10585 27ff 4F140000 		.4byte	.LLST70
 10586 2803 2D       		.uleb128 0x2d
 10587 2804 6D120000 		.4byte	0x126d
 10588 2808 36010000 		.4byte	.LBB159
 10589 280c 30010000 		.4byte	.Ldebug_ranges0+0x130
 10590 2810 01       		.byte	0x1
 10591 2811 5504     		.2byte	0x455
 10592 2813 30280000 		.4byte	0x2830
 10593 2817 49       		.uleb128 0x49
 10594 2818 7A120000 		.4byte	0x127a
 10595 281c 1F150000 		.4byte	.LLST71
 10596 2820 36       		.uleb128 0x36
 10597 2821 46010000 		.4byte	.LVL373
 10598 2825 CF1B0000 		.4byte	0x1bcf
 10599 2829 35       		.uleb128 0x35
 10600 282a 01       		.uleb128 0x1
 10601 282b 50       		.byte	0x50
 10602 282c 01       		.uleb128 0x1
 10603 282d 33       		.byte	0x33
 10604 282e 00       		.byte	0
 10605 282f 00       		.byte	0
 10606 2830 32       		.uleb128 0x32
 10607 2831 48010000 		.4byte	.Ldebug_ranges0+0x148
 10608 2835 5E280000 		.4byte	0x285e
 10609 2839 33       		.uleb128 0x33
 10610 283a 851A0000 		.4byte	.LASF451
 10611 283e 01       		.byte	0x1
 10612 283f 5C04     		.2byte	0x45c
 10613 2841 25000000 		.4byte	0x25
 10614 2845 05       		.uleb128 0x5
 10615 2846 03       		.byte	0x3
 10616 2847 00000000 		.4byte	curr_diff_sum.10703
 10617 284b 33       		.uleb128 0x33
 10618 284c D3240000 		.4byte	.LASF452
 10619 2850 01       		.byte	0x1
 10620 2851 5D04     		.2byte	0x45d
 10621 2853 25000000 		.4byte	0x25
 10622 2857 05       		.uleb128 0x5
 10623 2858 03       		.byte	0x3
 10624 2859 00000000 		.4byte	curr_diff_samples.10704
 10625 285d 00       		.byte	0
 10626 285e 2D       		.uleb128 0x2d
 10627 285f 6D120000 		.4byte	0x126d
 10628 2863 EA010000 		.4byte	.LBB163
 10629 2867 60010000 		.4byte	.Ldebug_ranges0+0x160
 10630 286b 01       		.byte	0x1
 10631 286c 4F04     		.2byte	0x44f
 10632 286e 7C280000 		.4byte	0x287c
 10633 2872 49       		.uleb128 0x49
 10634 2873 7A120000 		.4byte	0x127a
 10635 2877 3F150000 		.4byte	.LLST72
 10636 287b 00       		.byte	0
 10637 287c 50       		.uleb128 0x50
 10638 287d 6D120000 		.4byte	0x126d
 10639 2881 F4010000 		.4byte	.LBB166
ARM GAS  /tmp/ccB9RVXV.s 			page 190


 10640 2885 64000000 		.4byte	.LBE166-.LBB166
 10641 2889 01       		.byte	0x1
 10642 288a 4B04     		.2byte	0x44b
 10643 288c A5280000 		.4byte	0x28a5
 10644 2890 51       		.uleb128 0x51
 10645 2891 7A120000 		.4byte	0x127a
 10646 2895 36       		.uleb128 0x36
 10647 2896 FA010000 		.4byte	.LVL382
 10648 289a CF1B0000 		.4byte	0x1bcf
 10649 289e 35       		.uleb128 0x35
 10650 289f 01       		.uleb128 0x1
 10651 28a0 50       		.byte	0x50
 10652 28a1 01       		.uleb128 0x1
 10653 28a2 34       		.byte	0x34
 10654 28a3 00       		.byte	0
 10655 28a4 00       		.byte	0
 10656 28a5 32       		.uleb128 0x32
 10657 28a6 78010000 		.4byte	.Ldebug_ranges0+0x178
 10658 28aa 24290000 		.4byte	0x2924
 10659 28ae 47       		.uleb128 0x47
 10660 28af 6100     		.ascii	"a\000"
 10661 28b1 01       		.byte	0x1
 10662 28b2 CE04     		.2byte	0x4ce
 10663 28b4 B1000000 		.4byte	0xb1
 10664 28b8 05       		.uleb128 0x5
 10665 28b9 03       		.byte	0x3
 10666 28ba 00000000 		.4byte	a.10716
 10667 28be 2F       		.uleb128 0x2f
 10668 28bf 90010000 		.4byte	.Ldebug_ranges0+0x190
 10669 28c3 31       		.uleb128 0x31
 10670 28c4 72050000 		.4byte	.LASF453
 10671 28c8 01       		.byte	0x1
 10672 28c9 D804     		.2byte	0x4d8
 10673 28cb D5000000 		.4byte	0xd5
 10674 28cf 5F150000 		.4byte	.LLST73
 10675 28d3 52       		.uleb128 0x52
 10676 28d4 D0120000 		.4byte	0x12d0
 10677 28d8 6C030000 		.4byte	.LBB170
 10678 28dc A8010000 		.4byte	.Ldebug_ranges0+0x1a8
 10679 28e0 01       		.byte	0x1
 10680 28e1 FB04     		.2byte	0x4fb
 10681 28e3 3A       		.uleb128 0x3a
 10682 28e4 A4020000 		.4byte	.LVL387
 10683 28e8 01180000 		.4byte	0x1801
 10684 28ec 3A       		.uleb128 0x3a
 10685 28ed 18030000 		.4byte	.LVL388
 10686 28f1 101A0000 		.4byte	0x1a10
 10687 28f5 3A       		.uleb128 0x3a
 10688 28f6 58030000 		.4byte	.LVL390
 10689 28fa E3320000 		.4byte	0x32e3
 10690 28fe 3A       		.uleb128 0x3a
 10691 28ff 5E030000 		.4byte	.LVL392
 10692 2903 24350000 		.4byte	0x3524
 10693 2907 3A       		.uleb128 0x3a
 10694 2908 76050000 		.4byte	.LVL437
 10695 290c E3320000 		.4byte	0x32e3
 10696 2910 3A       		.uleb128 0x3a
ARM GAS  /tmp/ccB9RVXV.s 			page 191


 10697 2911 98050000 		.4byte	.LVL438
 10698 2915 E3320000 		.4byte	0x32e3
 10699 2919 3A       		.uleb128 0x3a
 10700 291a 2C060000 		.4byte	.LVL440
 10701 291e 2F350000 		.4byte	0x352f
 10702 2922 00       		.byte	0
 10703 2923 00       		.byte	0
 10704 2924 2D       		.uleb128 0x2d
 10705 2925 6D120000 		.4byte	0x126d
 10706 2929 82030000 		.4byte	.LBB175
 10707 292d C0010000 		.4byte	.Ldebug_ranges0+0x1c0
 10708 2931 01       		.byte	0x1
 10709 2932 2304     		.2byte	0x423
 10710 2934 4B290000 		.4byte	0x294b
 10711 2938 49       		.uleb128 0x49
 10712 2939 7A120000 		.4byte	0x127a
 10713 293d 88150000 		.4byte	.LLST74
 10714 2941 3A       		.uleb128 0x3a
 10715 2942 9C030000 		.4byte	.LVL396
 10716 2946 CF1B0000 		.4byte	0x1bcf
 10717 294a 00       		.byte	0
 10718 294b 32       		.uleb128 0x32
 10719 294c E8010000 		.4byte	.Ldebug_ranges0+0x1e8
 10720 2950 162A0000 		.4byte	0x2a16
 10721 2954 31       		.uleb128 0x31
 10722 2955 A5050000 		.4byte	.LASF454
 10723 2959 01       		.byte	0x1
 10724 295a AF04     		.2byte	0x4af
 10725 295c B1000000 		.4byte	0xb1
 10726 2960 A6150000 		.4byte	.LLST75
 10727 2964 50       		.uleb128 0x50
 10728 2965 BE120000 		.4byte	0x12be
 10729 2969 6E060000 		.4byte	.LBB183
 10730 296d 06000000 		.4byte	.LBE183-.LBB183
 10731 2971 01       		.byte	0x1
 10732 2972 BC04     		.2byte	0x4bc
 10733 2974 B5290000 		.4byte	0x29b5
 10734 2978 53       		.uleb128 0x53
 10735 2979 1D120000 		.4byte	0x121d
 10736 297d 6E060000 		.4byte	.LBB184
 10737 2981 06000000 		.4byte	.LBE184-.LBB184
 10738 2985 13       		.byte	0x13
 10739 2986 8401     		.2byte	0x184
 10740 2988 53       		.uleb128 0x53
 10741 2989 0B120000 		.4byte	0x120b
 10742 298d 6E060000 		.4byte	.LBB185
 10743 2991 06000000 		.4byte	.LBE185-.LBB185
 10744 2995 0C       		.byte	0xc
 10745 2996 DB01     		.2byte	0x1db
 10746 2998 53       		.uleb128 0x53
 10747 2999 F1110000 		.4byte	0x11f1
 10748 299d 6E060000 		.4byte	.LBB186
 10749 29a1 06000000 		.4byte	.LBE186-.LBB186
 10750 29a5 0C       		.byte	0xc
 10751 29a6 BF01     		.2byte	0x1bf
 10752 29a8 49       		.uleb128 0x49
 10753 29a9 FE110000 		.4byte	0x11fe
ARM GAS  /tmp/ccB9RVXV.s 			page 192


 10754 29ad F9150000 		.4byte	.LLST76
 10755 29b1 00       		.byte	0
 10756 29b2 00       		.byte	0
 10757 29b3 00       		.byte	0
 10758 29b4 00       		.byte	0
 10759 29b5 50       		.uleb128 0x50
 10760 29b6 C7120000 		.4byte	0x12c7
 10761 29ba 7E060000 		.4byte	.LBB188
 10762 29be 08000000 		.4byte	.LBE188-.LBB188
 10763 29c2 01       		.byte	0x1
 10764 29c3 BE04     		.2byte	0x4be
 10765 29c5 062A0000 		.4byte	0x2a06
 10766 29c9 53       		.uleb128 0x53
 10767 29ca 26120000 		.4byte	0x1226
 10768 29ce 7E060000 		.4byte	.LBB189
 10769 29d2 08000000 		.4byte	.LBE189-.LBB189
 10770 29d6 13       		.byte	0x13
 10771 29d7 9A01     		.2byte	0x19a
 10772 29d9 53       		.uleb128 0x53
 10773 29da 14120000 		.4byte	0x1214
 10774 29de 7E060000 		.4byte	.LBB190
 10775 29e2 08000000 		.4byte	.LBE190-.LBB190
 10776 29e6 0C       		.byte	0xc
 10777 29e7 E601     		.2byte	0x1e6
 10778 29e9 53       		.uleb128 0x53
 10779 29ea F1110000 		.4byte	0x11f1
 10780 29ee 7E060000 		.4byte	.LBB191
 10781 29f2 08000000 		.4byte	.LBE191-.LBB191
 10782 29f6 0C       		.byte	0xc
 10783 29f7 CD01     		.2byte	0x1cd
 10784 29f9 49       		.uleb128 0x49
 10785 29fa FE110000 		.4byte	0x11fe
 10786 29fe 0E160000 		.4byte	.LLST77
 10787 2a02 00       		.byte	0
 10788 2a03 00       		.byte	0
 10789 2a04 00       		.byte	0
 10790 2a05 00       		.byte	0
 10791 2a06 36       		.uleb128 0x36
 10792 2a07 7E060000 		.4byte	.LVL446
 10793 2a0b 3A350000 		.4byte	0x353a
 10794 2a0f 35       		.uleb128 0x35
 10795 2a10 01       		.uleb128 0x1
 10796 2a11 51       		.byte	0x51
 10797 2a12 01       		.uleb128 0x1
 10798 2a13 31       		.byte	0x31
 10799 2a14 00       		.byte	0
 10800 2a15 00       		.byte	0
 10801 2a16 32       		.uleb128 0x32
 10802 2a17 18020000 		.4byte	.Ldebug_ranges0+0x218
 10803 2a1b EA2A0000 		.4byte	0x2aea
 10804 2a1f 31       		.uleb128 0x31
 10805 2a20 A5050000 		.4byte	.LASF454
 10806 2a24 01       		.byte	0x1
 10807 2a25 9104     		.2byte	0x491
 10808 2a27 B1000000 		.4byte	0xb1
 10809 2a2b 22160000 		.4byte	.LLST78
 10810 2a2f 50       		.uleb128 0x50
ARM GAS  /tmp/ccB9RVXV.s 			page 193


 10811 2a30 BE120000 		.4byte	0x12be
 10812 2a34 86060000 		.4byte	.LBB194
 10813 2a38 06000000 		.4byte	.LBE194-.LBB194
 10814 2a3c 01       		.byte	0x1
 10815 2a3d 9E04     		.2byte	0x49e
 10816 2a3f 802A0000 		.4byte	0x2a80
 10817 2a43 53       		.uleb128 0x53
 10818 2a44 1D120000 		.4byte	0x121d
 10819 2a48 86060000 		.4byte	.LBB195
 10820 2a4c 06000000 		.4byte	.LBE195-.LBB195
 10821 2a50 13       		.byte	0x13
 10822 2a51 8401     		.2byte	0x184
 10823 2a53 53       		.uleb128 0x53
 10824 2a54 0B120000 		.4byte	0x120b
 10825 2a58 86060000 		.4byte	.LBB196
 10826 2a5c 06000000 		.4byte	.LBE196-.LBB196
 10827 2a60 0C       		.byte	0xc
 10828 2a61 DB01     		.2byte	0x1db
 10829 2a63 53       		.uleb128 0x53
 10830 2a64 F1110000 		.4byte	0x11f1
 10831 2a68 86060000 		.4byte	.LBB197
 10832 2a6c 06000000 		.4byte	.LBE197-.LBB197
 10833 2a70 0C       		.byte	0xc
 10834 2a71 BF01     		.2byte	0x1bf
 10835 2a73 49       		.uleb128 0x49
 10836 2a74 FE110000 		.4byte	0x11fe
 10837 2a78 75160000 		.4byte	.LLST79
 10838 2a7c 00       		.byte	0
 10839 2a7d 00       		.byte	0
 10840 2a7e 00       		.byte	0
 10841 2a7f 00       		.byte	0
 10842 2a80 50       		.uleb128 0x50
 10843 2a81 C7120000 		.4byte	0x12c7
 10844 2a85 96060000 		.4byte	.LBB199
 10845 2a89 08000000 		.4byte	.LBE199-.LBB199
 10846 2a8d 01       		.byte	0x1
 10847 2a8e A004     		.2byte	0x4a0
 10848 2a90 D12A0000 		.4byte	0x2ad1
 10849 2a94 53       		.uleb128 0x53
 10850 2a95 26120000 		.4byte	0x1226
 10851 2a99 96060000 		.4byte	.LBB200
 10852 2a9d 08000000 		.4byte	.LBE200-.LBB200
 10853 2aa1 13       		.byte	0x13
 10854 2aa2 9A01     		.2byte	0x19a
 10855 2aa4 53       		.uleb128 0x53
 10856 2aa5 14120000 		.4byte	0x1214
 10857 2aa9 96060000 		.4byte	.LBB201
 10858 2aad 08000000 		.4byte	.LBE201-.LBB201
 10859 2ab1 0C       		.byte	0xc
 10860 2ab2 E601     		.2byte	0x1e6
 10861 2ab4 53       		.uleb128 0x53
 10862 2ab5 F1110000 		.4byte	0x11f1
 10863 2ab9 96060000 		.4byte	.LBB202
 10864 2abd 08000000 		.4byte	.LBE202-.LBB202
 10865 2ac1 0C       		.byte	0xc
 10866 2ac2 CD01     		.2byte	0x1cd
 10867 2ac4 49       		.uleb128 0x49
ARM GAS  /tmp/ccB9RVXV.s 			page 194


 10868 2ac5 FE110000 		.4byte	0x11fe
 10869 2ac9 8A160000 		.4byte	.LLST80
 10870 2acd 00       		.byte	0
 10871 2ace 00       		.byte	0
 10872 2acf 00       		.byte	0
 10873 2ad0 00       		.byte	0
 10874 2ad1 3A       		.uleb128 0x3a
 10875 2ad2 1C040000 		.4byte	.LVL411
 10876 2ad6 01180000 		.4byte	0x1801
 10877 2ada 36       		.uleb128 0x36
 10878 2adb 96060000 		.4byte	.LVL448
 10879 2adf 3A350000 		.4byte	0x353a
 10880 2ae3 35       		.uleb128 0x35
 10881 2ae4 01       		.uleb128 0x1
 10882 2ae5 51       		.byte	0x51
 10883 2ae6 01       		.uleb128 0x1
 10884 2ae7 31       		.byte	0x31
 10885 2ae8 00       		.byte	0
 10886 2ae9 00       		.byte	0
 10887 2aea 2D       		.uleb128 0x2d
 10888 2aeb BE120000 		.4byte	0x12be
 10889 2aef 58040000 		.4byte	.LBB204
 10890 2af3 48020000 		.4byte	.Ldebug_ranges0+0x248
 10891 2af7 01       		.byte	0x1
 10892 2af8 8704     		.2byte	0x487
 10893 2afa 3B2B0000 		.4byte	0x2b3b
 10894 2afe 54       		.uleb128 0x54
 10895 2aff 1D120000 		.4byte	0x121d
 10896 2b03 58040000 		.4byte	.LBB205
 10897 2b07 48020000 		.4byte	.Ldebug_ranges0+0x248
 10898 2b0b 13       		.byte	0x13
 10899 2b0c 8401     		.2byte	0x184
 10900 2b0e 54       		.uleb128 0x54
 10901 2b0f 0B120000 		.4byte	0x120b
 10902 2b13 58040000 		.4byte	.LBB206
 10903 2b17 48020000 		.4byte	.Ldebug_ranges0+0x248
 10904 2b1b 0C       		.byte	0xc
 10905 2b1c DB01     		.2byte	0x1db
 10906 2b1e 54       		.uleb128 0x54
 10907 2b1f F1110000 		.4byte	0x11f1
 10908 2b23 58040000 		.4byte	.LBB207
 10909 2b27 48020000 		.4byte	.Ldebug_ranges0+0x248
 10910 2b2b 0C       		.byte	0xc
 10911 2b2c BF01     		.2byte	0x1bf
 10912 2b2e 49       		.uleb128 0x49
 10913 2b2f FE110000 		.4byte	0x11fe
 10914 2b33 9E160000 		.4byte	.LLST81
 10915 2b37 00       		.byte	0
 10916 2b38 00       		.byte	0
 10917 2b39 00       		.byte	0
 10918 2b3a 00       		.byte	0
 10919 2b3b 50       		.uleb128 0x50
 10920 2b3c C7120000 		.4byte	0x12c7
 10921 2b40 6C040000 		.4byte	.LBB214
 10922 2b44 04000000 		.4byte	.LBE214-.LBB214
 10923 2b48 01       		.byte	0x1
 10924 2b49 8904     		.2byte	0x489
ARM GAS  /tmp/ccB9RVXV.s 			page 195


 10925 2b4b 8C2B0000 		.4byte	0x2b8c
 10926 2b4f 53       		.uleb128 0x53
 10927 2b50 26120000 		.4byte	0x1226
 10928 2b54 6C040000 		.4byte	.LBB215
 10929 2b58 04000000 		.4byte	.LBE215-.LBB215
 10930 2b5c 13       		.byte	0x13
 10931 2b5d 9A01     		.2byte	0x19a
 10932 2b5f 53       		.uleb128 0x53
 10933 2b60 14120000 		.4byte	0x1214
 10934 2b64 6C040000 		.4byte	.LBB216
 10935 2b68 04000000 		.4byte	.LBE216-.LBB216
 10936 2b6c 0C       		.byte	0xc
 10937 2b6d E601     		.2byte	0x1e6
 10938 2b6f 53       		.uleb128 0x53
 10939 2b70 F1110000 		.4byte	0x11f1
 10940 2b74 6C040000 		.4byte	.LBB217
 10941 2b78 04000000 		.4byte	.LBE217-.LBB217
 10942 2b7c 0C       		.byte	0xc
 10943 2b7d CD01     		.2byte	0x1cd
 10944 2b7f 49       		.uleb128 0x49
 10945 2b80 FE110000 		.4byte	0x11fe
 10946 2b84 B3160000 		.4byte	.LLST82
 10947 2b88 00       		.byte	0
 10948 2b89 00       		.byte	0
 10949 2b8a 00       		.byte	0
 10950 2b8b 00       		.byte	0
 10951 2b8c 2D       		.uleb128 0x2d
 10952 2b8d BE120000 		.4byte	0x12be
 10953 2b91 58060000 		.4byte	.LBB228
 10954 2b95 60020000 		.4byte	.Ldebug_ranges0+0x260
 10955 2b99 01       		.byte	0x1
 10956 2b9a 7704     		.2byte	0x477
 10957 2b9c DD2B0000 		.4byte	0x2bdd
 10958 2ba0 54       		.uleb128 0x54
 10959 2ba1 1D120000 		.4byte	0x121d
 10960 2ba5 58060000 		.4byte	.LBB229
 10961 2ba9 60020000 		.4byte	.Ldebug_ranges0+0x260
 10962 2bad 13       		.byte	0x13
 10963 2bae 8401     		.2byte	0x184
 10964 2bb0 54       		.uleb128 0x54
 10965 2bb1 0B120000 		.4byte	0x120b
 10966 2bb5 58060000 		.4byte	.LBB230
 10967 2bb9 60020000 		.4byte	.Ldebug_ranges0+0x260
 10968 2bbd 0C       		.byte	0xc
 10969 2bbe DB01     		.2byte	0x1db
 10970 2bc0 54       		.uleb128 0x54
 10971 2bc1 F1110000 		.4byte	0x11f1
 10972 2bc5 58060000 		.4byte	.LBB231
 10973 2bc9 60020000 		.4byte	.Ldebug_ranges0+0x260
 10974 2bcd 0C       		.byte	0xc
 10975 2bce BF01     		.2byte	0x1bf
 10976 2bd0 49       		.uleb128 0x49
 10977 2bd1 FE110000 		.4byte	0x11fe
 10978 2bd5 C7160000 		.4byte	.LLST83
 10979 2bd9 00       		.byte	0
 10980 2bda 00       		.byte	0
 10981 2bdb 00       		.byte	0
ARM GAS  /tmp/ccB9RVXV.s 			page 196


 10982 2bdc 00       		.byte	0
 10983 2bdd 50       		.uleb128 0x50
 10984 2bde C7120000 		.4byte	0x12c7
 10985 2be2 68060000 		.4byte	.LBB238
 10986 2be6 06000000 		.4byte	.LBE238-.LBB238
 10987 2bea 01       		.byte	0x1
 10988 2beb 7904     		.2byte	0x479
 10989 2bed 2E2C0000 		.4byte	0x2c2e
 10990 2bf1 53       		.uleb128 0x53
 10991 2bf2 26120000 		.4byte	0x1226
 10992 2bf6 68060000 		.4byte	.LBB239
 10993 2bfa 06000000 		.4byte	.LBE239-.LBB239
 10994 2bfe 13       		.byte	0x13
 10995 2bff 9A01     		.2byte	0x19a
 10996 2c01 53       		.uleb128 0x53
 10997 2c02 14120000 		.4byte	0x1214
 10998 2c06 68060000 		.4byte	.LBB240
 10999 2c0a 06000000 		.4byte	.LBE240-.LBB240
 11000 2c0e 0C       		.byte	0xc
 11001 2c0f E601     		.2byte	0x1e6
 11002 2c11 53       		.uleb128 0x53
 11003 2c12 F1110000 		.4byte	0x11f1
 11004 2c16 68060000 		.4byte	.LBB241
 11005 2c1a 06000000 		.4byte	.LBE241-.LBB241
 11006 2c1e 0C       		.byte	0xc
 11007 2c1f CD01     		.2byte	0x1cd
 11008 2c21 49       		.uleb128 0x49
 11009 2c22 FE110000 		.4byte	0x11fe
 11010 2c26 DC160000 		.4byte	.LLST84
 11011 2c2a 00       		.byte	0
 11012 2c2b 00       		.byte	0
 11013 2c2c 00       		.byte	0
 11014 2c2d 00       		.byte	0
 11015 2c2e 3A       		.uleb128 0x3a
 11016 2c2f 10000000 		.4byte	.LVL357
 11017 2c33 50350000 		.4byte	0x3550
 11018 2c37 3A       		.uleb128 0x3a
 11019 2c38 5C000000 		.4byte	.LVL359
 11020 2c3c 01180000 		.4byte	0x1801
 11021 2c40 3A       		.uleb128 0x3a
 11022 2c41 76000000 		.4byte	.LVL361
 11023 2c45 4E1A0000 		.4byte	0x1a4e
 11024 2c49 3A       		.uleb128 0x3a
 11025 2c4a 7E000000 		.4byte	.LVL363
 11026 2c4e 441B0000 		.4byte	0x1b44
 11027 2c52 3A       		.uleb128 0x3a
 11028 2c53 C2000000 		.4byte	.LVL365
 11029 2c57 57350000 		.4byte	0x3557
 11030 2c5b 3A       		.uleb128 0x3a
 11031 2c5c D4000000 		.4byte	.LVL366
 11032 2c60 62350000 		.4byte	0x3562
 11033 2c64 3A       		.uleb128 0x3a
 11034 2c65 02010000 		.4byte	.LVL367
 11035 2c69 101A0000 		.4byte	0x1a10
 11036 2c6d 3A       		.uleb128 0x3a
 11037 2c6e 4A010000 		.4byte	.LVL374
 11038 2c72 B5180000 		.4byte	0x18b5
ARM GAS  /tmp/ccB9RVXV.s 			page 197


 11039 2c76 3A       		.uleb128 0x3a
 11040 2c77 2E040000 		.4byte	.LVL413
 11041 2c7b 01180000 		.4byte	0x1801
 11042 2c7f 34       		.uleb128 0x34
 11043 2c80 6C040000 		.4byte	.LVL416
 11044 2c84 3A350000 		.4byte	0x353a
 11045 2c88 922C0000 		.4byte	0x2c92
 11046 2c8c 35       		.uleb128 0x35
 11047 2c8d 01       		.uleb128 0x1
 11048 2c8e 51       		.byte	0x51
 11049 2c8f 01       		.uleb128 0x1
 11050 2c90 31       		.byte	0x31
 11051 2c91 00       		.byte	0
 11052 2c92 3A       		.uleb128 0x3a
 11053 2c93 AE040000 		.4byte	.LVL424
 11054 2c97 6D350000 		.4byte	0x356d
 11055 2c9b 3A       		.uleb128 0x3a
 11056 2c9c B6040000 		.4byte	.LVL426
 11057 2ca0 78350000 		.4byte	0x3578
 11058 2ca4 36       		.uleb128 0x36
 11059 2ca5 68060000 		.4byte	.LVL444
 11060 2ca9 3A350000 		.4byte	0x353a
 11061 2cad 35       		.uleb128 0x35
 11062 2cae 01       		.uleb128 0x1
 11063 2caf 51       		.byte	0x51
 11064 2cb0 01       		.uleb128 0x1
 11065 2cb1 31       		.byte	0x31
 11066 2cb2 00       		.byte	0
 11067 2cb3 00       		.byte	0
 11068 2cb4 3F       		.uleb128 0x3f
 11069 2cb5 C11A0000 		.4byte	.LASF455
 11070 2cb9 01       		.byte	0x1
 11071 2cba 0005     		.2byte	0x500
 11072 2cbc 00000000 		.4byte	.LFB308
 11073 2cc0 14000000 		.4byte	.LFE308-.LFB308
 11074 2cc4 01       		.uleb128 0x1
 11075 2cc5 9C       		.byte	0x9c
 11076 2cc6 D42C0000 		.4byte	0x2cd4
 11077 2cca 3E       		.uleb128 0x3e
 11078 2ccb 0E000000 		.4byte	.LVL453
 11079 2ccf 83350000 		.4byte	0x3583
 11080 2cd3 00       		.byte	0
 11081 2cd4 55       		.uleb128 0x55
 11082 2cd5 26150000 		.4byte	.LASF456
 11083 2cd9 01       		.byte	0x1
 11084 2cda 2C       		.byte	0x2c
 11085 2cdb 49140000 		.4byte	0x1449
 11086 2cdf 05       		.uleb128 0x5
 11087 2ce0 03       		.byte	0x3
 11088 2ce1 00000000 		.4byte	m_conf
 11089 2ce5 55       		.uleb128 0x55
 11090 2ce6 99050000 		.4byte	.LASF457
 11091 2cea 01       		.byte	0x1
 11092 2ceb 2D       		.byte	0x2d
 11093 2cec AF090000 		.4byte	0x9af
 11094 2cf0 05       		.uleb128 0x5
 11095 2cf1 03       		.byte	0x3
ARM GAS  /tmp/ccB9RVXV.s 			page 198


 11096 2cf2 00000000 		.4byte	m_fault_now
 11097 2cf6 55       		.uleb128 0x55
 11098 2cf7 78080000 		.4byte	.LASF458
 11099 2cfb 01       		.byte	0x1
 11100 2cfc 2E       		.byte	0x2e
 11101 2cfd B1000000 		.4byte	0xb1
 11102 2d01 05       		.uleb128 0x5
 11103 2d02 03       		.byte	0x3
 11104 2d03 00000000 		.4byte	m_ignore_iterations
 11105 2d07 55       		.uleb128 0x55
 11106 2d08 55150000 		.4byte	.LASF459
 11107 2d0c 01       		.byte	0x1
 11108 2d0d 2F       		.byte	0x2f
 11109 2d0e 182D0000 		.4byte	0x2d18
 11110 2d12 05       		.uleb128 0x5
 11111 2d13 03       		.byte	0x3
 11112 2d14 00000000 		.4byte	m_cycles_running
 11113 2d18 05       		.uleb128 0x5
 11114 2d19 B8000000 		.4byte	0xb8
 11115 2d1d 55       		.uleb128 0x55
 11116 2d1e 8A270000 		.4byte	.LASF460
 11117 2d22 01       		.byte	0x1
 11118 2d23 30       		.byte	0x30
 11119 2d24 2E2D0000 		.4byte	0x2d2e
 11120 2d28 05       		.uleb128 0x5
 11121 2d29 03       		.byte	0x3
 11122 2d2a 00000000 		.4byte	m_lock_enabled
 11123 2d2e 05       		.uleb128 0x5
 11124 2d2f 050F0000 		.4byte	0xf05
 11125 2d33 55       		.uleb128 0x55
 11126 2d34 5A060000 		.4byte	.LASF461
 11127 2d38 01       		.byte	0x1
 11128 2d39 31       		.byte	0x31
 11129 2d3a 2E2D0000 		.4byte	0x2d2e
 11130 2d3e 05       		.uleb128 0x5
 11131 2d3f 03       		.byte	0x3
 11132 2d40 00000000 		.4byte	m_lock_override_once
 11133 2d44 55       		.uleb128 0x55
 11134 2d45 E21A0000 		.4byte	.LASF462
 11135 2d49 01       		.byte	0x1
 11136 2d4a 32       		.byte	0x32
 11137 2d4b 552D0000 		.4byte	0x2d55
 11138 2d4f 05       		.uleb128 0x5
 11139 2d50 03       		.byte	0x3
 11140 2d51 00000000 		.4byte	m_motor_current_sum
 11141 2d55 05       		.uleb128 0x5
 11142 2d56 25000000 		.4byte	0x25
 11143 2d5a 55       		.uleb128 0x55
 11144 2d5b 0B200000 		.4byte	.LASF463
 11145 2d5f 01       		.byte	0x1
 11146 2d60 33       		.byte	0x33
 11147 2d61 552D0000 		.4byte	0x2d55
 11148 2d65 05       		.uleb128 0x5
 11149 2d66 03       		.byte	0x3
 11150 2d67 00000000 		.4byte	m_input_current_sum
 11151 2d6b 55       		.uleb128 0x55
 11152 2d6c 6D1B0000 		.4byte	.LASF464
ARM GAS  /tmp/ccB9RVXV.s 			page 199


 11153 2d70 01       		.byte	0x1
 11154 2d71 34       		.byte	0x34
 11155 2d72 552D0000 		.4byte	0x2d55
 11156 2d76 05       		.uleb128 0x5
 11157 2d77 03       		.byte	0x3
 11158 2d78 00000000 		.4byte	m_motor_current_iterations
 11159 2d7c 55       		.uleb128 0x55
 11160 2d7d 18120000 		.4byte	.LASF465
 11161 2d81 01       		.byte	0x1
 11162 2d82 35       		.byte	0x35
 11163 2d83 552D0000 		.4byte	0x2d55
 11164 2d87 05       		.uleb128 0x5
 11165 2d88 03       		.byte	0x3
 11166 2d89 00000000 		.4byte	m_input_current_iterations
 11167 2d8d 55       		.uleb128 0x55
 11168 2d8e 07170000 		.4byte	.LASF466
 11169 2d92 01       		.byte	0x1
 11170 2d93 36       		.byte	0x36
 11171 2d94 552D0000 		.4byte	0x2d55
 11172 2d98 05       		.uleb128 0x5
 11173 2d99 03       		.byte	0x3
 11174 2d9a 00000000 		.4byte	m_motor_id_sum
 11175 2d9e 55       		.uleb128 0x55
 11176 2d9f 551A0000 		.4byte	.LASF467
 11177 2da3 01       		.byte	0x1
 11178 2da4 37       		.byte	0x37
 11179 2da5 552D0000 		.4byte	0x2d55
 11180 2da9 05       		.uleb128 0x5
 11181 2daa 03       		.byte	0x3
 11182 2dab 00000000 		.4byte	m_motor_iq_sum
 11183 2daf 55       		.uleb128 0x55
 11184 2db0 10270000 		.4byte	.LASF468
 11185 2db4 01       		.byte	0x1
 11186 2db5 38       		.byte	0x38
 11187 2db6 552D0000 		.4byte	0x2d55
 11188 2dba 05       		.uleb128 0x5
 11189 2dbb 03       		.byte	0x3
 11190 2dbc 00000000 		.4byte	m_motor_id_iterations
 11191 2dc0 55       		.uleb128 0x55
 11192 2dc1 B1050000 		.4byte	.LASF469
 11193 2dc5 01       		.byte	0x1
 11194 2dc6 39       		.byte	0x39
 11195 2dc7 552D0000 		.4byte	0x2d55
 11196 2dcb 05       		.uleb128 0x5
 11197 2dcc 03       		.byte	0x3
 11198 2dcd 00000000 		.4byte	m_motor_iq_iterations
 11199 2dd1 55       		.uleb128 0x55
 11200 2dd2 E7130000 		.4byte	.LASF470
 11201 2dd6 01       		.byte	0x1
 11202 2dd7 3A       		.byte	0x3a
 11203 2dd8 552D0000 		.4byte	0x2d55
 11204 2ddc 05       		.uleb128 0x5
 11205 2ddd 03       		.byte	0x3
 11206 2dde 00000000 		.4byte	m_amp_seconds
 11207 2de2 55       		.uleb128 0x55
 11208 2de3 4C130000 		.4byte	.LASF471
 11209 2de7 01       		.byte	0x1
ARM GAS  /tmp/ccB9RVXV.s 			page 200


 11210 2de8 3B       		.byte	0x3b
 11211 2de9 552D0000 		.4byte	0x2d55
 11212 2ded 05       		.uleb128 0x5
 11213 2dee 03       		.byte	0x3
 11214 2def 00000000 		.4byte	m_amp_seconds_charged
 11215 2df3 55       		.uleb128 0x55
 11216 2df4 98060000 		.4byte	.LASF472
 11217 2df8 01       		.byte	0x1
 11218 2df9 3C       		.byte	0x3c
 11219 2dfa 552D0000 		.4byte	0x2d55
 11220 2dfe 05       		.uleb128 0x5
 11221 2dff 03       		.byte	0x3
 11222 2e00 00000000 		.4byte	m_watt_seconds
 11223 2e04 55       		.uleb128 0x55
 11224 2e05 CB060000 		.4byte	.LASF473
 11225 2e09 01       		.byte	0x1
 11226 2e0a 3D       		.byte	0x3d
 11227 2e0b 552D0000 		.4byte	0x2d55
 11228 2e0f 05       		.uleb128 0x5
 11229 2e10 03       		.byte	0x3
 11230 2e11 00000000 		.4byte	m_watt_seconds_charged
 11231 2e15 55       		.uleb128 0x55
 11232 2e16 4E000000 		.4byte	.LASF474
 11233 2e1a 01       		.byte	0x1
 11234 2e1b 3E       		.byte	0x3e
 11235 2e1c 552D0000 		.4byte	0x2d55
 11236 2e20 05       		.uleb128 0x5
 11237 2e21 03       		.byte	0x3
 11238 2e22 00000000 		.4byte	m_position_set
 11239 2e26 55       		.uleb128 0x55
 11240 2e27 8E190000 		.4byte	.LASF475
 11241 2e2b 01       		.byte	0x1
 11242 2e2c 3F       		.byte	0x3f
 11243 2e2d 552D0000 		.4byte	0x2d55
 11244 2e31 05       		.uleb128 0x5
 11245 2e32 03       		.byte	0x3
 11246 2e33 00000000 		.4byte	m_temp_fet
 11247 2e37 55       		.uleb128 0x55
 11248 2e38 FA050000 		.4byte	.LASF476
 11249 2e3c 01       		.byte	0x1
 11250 2e3d 40       		.byte	0x40
 11251 2e3e 552D0000 		.4byte	0x2d55
 11252 2e42 05       		.uleb128 0x5
 11253 2e43 03       		.byte	0x3
 11254 2e44 00000000 		.4byte	m_temp_motor
 11255 2e48 17       		.uleb128 0x17
 11256 2e49 D5000000 		.4byte	0xd5
 11257 2e4d 592E0000 		.4byte	0x2e59
 11258 2e51 56       		.uleb128 0x56
 11259 2e52 BD040000 		.4byte	0x4bd
 11260 2e56 CF07     		.2byte	0x7cf
 11261 2e58 00       		.byte	0
 11262 2e59 55       		.uleb128 0x55
 11263 2e5a 99210000 		.4byte	.LASF477
 11264 2e5e 01       		.byte	0x1
 11265 2e5f 44       		.byte	0x44
 11266 2e60 6A2E0000 		.4byte	0x2e6a
ARM GAS  /tmp/ccB9RVXV.s 			page 201


 11267 2e64 05       		.uleb128 0x5
 11268 2e65 03       		.byte	0x3
 11269 2e66 00000000 		.4byte	m_curr0_samples
 11270 2e6a 05       		.uleb128 0x5
 11271 2e6b 482E0000 		.4byte	0x2e48
 11272 2e6f 55       		.uleb128 0x55
 11273 2e70 B3210000 		.4byte	.LASF478
 11274 2e74 01       		.byte	0x1
 11275 2e75 45       		.byte	0x45
 11276 2e76 802E0000 		.4byte	0x2e80
 11277 2e7a 05       		.uleb128 0x5
 11278 2e7b 03       		.byte	0x3
 11279 2e7c A00F0000 		.4byte	m_curr1_samples
 11280 2e80 05       		.uleb128 0x5
 11281 2e81 482E0000 		.4byte	0x2e48
 11282 2e85 55       		.uleb128 0x55
 11283 2e86 61090000 		.4byte	.LASF479
 11284 2e8a 01       		.byte	0x1
 11285 2e8b 46       		.byte	0x46
 11286 2e8c 962E0000 		.4byte	0x2e96
 11287 2e90 05       		.uleb128 0x5
 11288 2e91 03       		.byte	0x3
 11289 2e92 401F0000 		.4byte	m_ph1_samples
 11290 2e96 05       		.uleb128 0x5
 11291 2e97 482E0000 		.4byte	0x2e48
 11292 2e9b 55       		.uleb128 0x55
 11293 2e9c 6F090000 		.4byte	.LASF480
 11294 2ea0 01       		.byte	0x1
 11295 2ea1 47       		.byte	0x47
 11296 2ea2 AC2E0000 		.4byte	0x2eac
 11297 2ea6 05       		.uleb128 0x5
 11298 2ea7 03       		.byte	0x3
 11299 2ea8 E02E0000 		.4byte	m_ph2_samples
 11300 2eac 05       		.uleb128 0x5
 11301 2ead 482E0000 		.4byte	0x2e48
 11302 2eb1 55       		.uleb128 0x55
 11303 2eb2 A30A0000 		.4byte	.LASF481
 11304 2eb6 01       		.byte	0x1
 11305 2eb7 48       		.byte	0x48
 11306 2eb8 C22E0000 		.4byte	0x2ec2
 11307 2ebc 05       		.uleb128 0x5
 11308 2ebd 03       		.byte	0x3
 11309 2ebe 803E0000 		.4byte	m_ph3_samples
 11310 2ec2 05       		.uleb128 0x5
 11311 2ec3 482E0000 		.4byte	0x2e48
 11312 2ec7 55       		.uleb128 0x55
 11313 2ec8 F9270000 		.4byte	.LASF482
 11314 2ecc 01       		.byte	0x1
 11315 2ecd 49       		.byte	0x49
 11316 2ece D82E0000 		.4byte	0x2ed8
 11317 2ed2 05       		.uleb128 0x5
 11318 2ed3 03       		.byte	0x3
 11319 2ed4 204E0000 		.4byte	m_vzero_samples
 11320 2ed8 05       		.uleb128 0x5
 11321 2ed9 482E0000 		.4byte	0x2e48
 11322 2edd 17       		.uleb128 0x17
 11323 2ede CA000000 		.4byte	0xca
ARM GAS  /tmp/ccB9RVXV.s 			page 202


 11324 2ee2 EE2E0000 		.4byte	0x2eee
 11325 2ee6 56       		.uleb128 0x56
 11326 2ee7 BD040000 		.4byte	0x4bd
 11327 2eeb CF07     		.2byte	0x7cf
 11328 2eed 00       		.byte	0
 11329 2eee 55       		.uleb128 0x55
 11330 2eef A0040000 		.4byte	.LASF483
 11331 2ef3 01       		.byte	0x1
 11332 2ef4 4A       		.byte	0x4a
 11333 2ef5 FF2E0000 		.4byte	0x2eff
 11334 2ef9 05       		.uleb128 0x5
 11335 2efa 03       		.byte	0x3
 11336 2efb 007D0000 		.4byte	m_status_samples
 11337 2eff 05       		.uleb128 0x5
 11338 2f00 DD2E0000 		.4byte	0x2edd
 11339 2f04 55       		.uleb128 0x55
 11340 2f05 A4270000 		.4byte	.LASF484
 11341 2f09 01       		.byte	0x1
 11342 2f0a 4B       		.byte	0x4b
 11343 2f0b 152F0000 		.4byte	0x2f15
 11344 2f0f 05       		.uleb128 0x5
 11345 2f10 03       		.byte	0x3
 11346 2f11 C05D0000 		.4byte	m_curr_fir_samples
 11347 2f15 05       		.uleb128 0x5
 11348 2f16 482E0000 		.4byte	0x2e48
 11349 2f1a 55       		.uleb128 0x55
 11350 2f1b DF250000 		.4byte	.LASF485
 11351 2f1f 01       		.byte	0x1
 11352 2f20 4C       		.byte	0x4c
 11353 2f21 2B2F0000 		.4byte	0x2f2b
 11354 2f25 05       		.uleb128 0x5
 11355 2f26 03       		.byte	0x3
 11356 2f27 606D0000 		.4byte	m_f_sw_samples
 11357 2f2b 05       		.uleb128 0x5
 11358 2f2c 482E0000 		.4byte	0x2e48
 11359 2f30 17       		.uleb128 0x17
 11360 2f31 BF000000 		.4byte	0xbf
 11361 2f35 412F0000 		.4byte	0x2f41
 11362 2f39 56       		.uleb128 0x56
 11363 2f3a BD040000 		.4byte	0x4bd
 11364 2f3e CF07     		.2byte	0x7cf
 11365 2f40 00       		.byte	0
 11366 2f41 55       		.uleb128 0x55
 11367 2f42 191B0000 		.4byte	.LASF486
 11368 2f46 01       		.byte	0x1
 11369 2f47 4D       		.byte	0x4d
 11370 2f48 522F0000 		.4byte	0x2f52
 11371 2f4c 05       		.uleb128 0x5
 11372 2f4d 03       		.byte	0x3
 11373 2f4e D0840000 		.4byte	m_phase_samples
 11374 2f52 05       		.uleb128 0x5
 11375 2f53 302F0000 		.4byte	0x2f30
 11376 2f57 55       		.uleb128 0x55
 11377 2f58 230F0000 		.4byte	.LASF487
 11378 2f5c 01       		.byte	0x1
 11379 2f5d 4E       		.byte	0x4e
 11380 2f5e B9120000 		.4byte	0x12b9
ARM GAS  /tmp/ccB9RVXV.s 			page 203


 11381 2f62 05       		.uleb128 0x5
 11382 2f63 03       		.byte	0x3
 11383 2f64 00000000 		.4byte	m_sample_len
 11384 2f68 55       		.uleb128 0x55
 11385 2f69 CC080000 		.4byte	.LASF488
 11386 2f6d 01       		.byte	0x1
 11387 2f6e 4F       		.byte	0x4f
 11388 2f6f B9120000 		.4byte	0x12b9
 11389 2f73 05       		.uleb128 0x5
 11390 2f74 03       		.byte	0x3
 11391 2f75 00000000 		.4byte	m_sample_int
 11392 2f79 55       		.uleb128 0x55
 11393 2f7a A00B0000 		.4byte	.LASF489
 11394 2f7e 01       		.byte	0x1
 11395 2f7f 50       		.byte	0x50
 11396 2f80 8A2F0000 		.4byte	0x2f8a
 11397 2f84 05       		.uleb128 0x5
 11398 2f85 03       		.byte	0x3
 11399 2f86 00000000 		.4byte	m_sample_mode
 11400 2f8a 05       		.uleb128 0x5
 11401 2f8b 450A0000 		.4byte	0xa45
 11402 2f8f 55       		.uleb128 0x55
 11403 2f90 1D160000 		.4byte	.LASF490
 11404 2f94 01       		.byte	0x1
 11405 2f95 51       		.byte	0x51
 11406 2f96 8A2F0000 		.4byte	0x2f8a
 11407 2f9a 05       		.uleb128 0x5
 11408 2f9b 03       		.byte	0x3
 11409 2f9c 00000000 		.4byte	m_sample_mode_last
 11410 2fa0 55       		.uleb128 0x55
 11411 2fa1 7D1F0000 		.4byte	.LASF491
 11412 2fa5 01       		.byte	0x1
 11413 2fa6 52       		.byte	0x52
 11414 2fa7 B9120000 		.4byte	0x12b9
 11415 2fab 05       		.uleb128 0x5
 11416 2fac 03       		.byte	0x3
 11417 2fad 00000000 		.4byte	m_sample_now
 11418 2fb1 55       		.uleb128 0x55
 11419 2fb2 EC1E0000 		.4byte	.LASF492
 11420 2fb6 01       		.byte	0x1
 11421 2fb7 53       		.byte	0x53
 11422 2fb8 B9120000 		.4byte	0x12b9
 11423 2fbc 05       		.uleb128 0x5
 11424 2fbd 03       		.byte	0x3
 11425 2fbe 00000000 		.4byte	m_sample_trigger
 11426 2fc2 55       		.uleb128 0x55
 11427 2fc3 2A100000 		.4byte	.LASF493
 11428 2fc7 01       		.byte	0x1
 11429 2fc8 54       		.byte	0x54
 11430 2fc9 552D0000 		.4byte	0x2d55
 11431 2fcd 05       		.uleb128 0x5
 11432 2fce 03       		.byte	0x3
 11433 2fcf 00000000 		.4byte	m_last_adc_duration_sample
 11434 2fd3 55       		.uleb128 0x55
 11435 2fd4 CF130000 		.4byte	.LASF494
 11436 2fd8 01       		.byte	0x1
 11437 2fd9 5A       		.byte	0x5a
ARM GAS  /tmp/ccB9RVXV.s 			page 204


 11438 2fda D6110000 		.4byte	0x11d6
 11439 2fde 05       		.uleb128 0x5
 11440 2fdf 03       		.byte	0x3
 11441 2fe0 00000000 		.4byte	pwn_done_func
 11442 2fe4 17       		.uleb128 0x17
 11443 2fe5 F4050000 		.4byte	0x5f4
 11444 2fe9 F42F0000 		.4byte	0x2ff4
 11445 2fed 18       		.uleb128 0x18
 11446 2fee BD040000 		.4byte	0x4bd
 11447 2ff2 B2       		.byte	0xb2
 11448 2ff3 00       		.byte	0
 11449 2ff4 55       		.uleb128 0x55
 11450 2ff5 ED030000 		.4byte	.LASF495
 11451 2ff9 01       		.byte	0x1
 11452 2ffa 5D       		.byte	0x5d
 11453 2ffb E42F0000 		.4byte	0x2fe4
 11454 2fff 05       		.uleb128 0x5
 11455 3000 03       		.byte	0x3
 11456 3001 00000000 		.4byte	timer_thread_wa
 11457 3005 55       		.uleb128 0x55
 11458 3006 8E170000 		.4byte	.LASF496
 11459 300a 01       		.byte	0x1
 11460 300b 5F       		.byte	0x5f
 11461 300c E42F0000 		.4byte	0x2fe4
 11462 3010 05       		.uleb128 0x5
 11463 3011 03       		.byte	0x3
 11464 3012 00000000 		.4byte	sample_send_thread_wa
 11465 3016 55       		.uleb128 0x55
 11466 3017 35280000 		.4byte	.LASF497
 11467 301b 01       		.byte	0x1
 11468 301c 61       		.byte	0x61
 11469 301d AA020000 		.4byte	0x2aa
 11470 3021 05       		.uleb128 0x5
 11471 3022 03       		.byte	0x3
 11472 3023 00000000 		.4byte	sample_send_tp
 11473 3027 57       		.uleb128 0x57
 11474 3028 59210000 		.4byte	.LASF498
 11475 302c 14       		.byte	0x14
 11476 302d A706     		.2byte	0x6a7
 11477 302f 17010000 		.4byte	0x117
 11478 3033 58       		.uleb128 0x58
 11479 3034 636800   		.ascii	"ch\000"
 11480 3037 09       		.byte	0x9
 11481 3038 0902     		.2byte	0x209
 11482 303a 56040000 		.4byte	0x456
 11483 303e 17       		.uleb128 0x17
 11484 303f E0000000 		.4byte	0xe0
 11485 3043 4E300000 		.4byte	0x304e
 11486 3047 18       		.uleb128 0x18
 11487 3048 BD040000 		.4byte	0x4bd
 11488 304c 0B       		.byte	0xb
 11489 304d 00       		.byte	0
 11490 304e 59       		.uleb128 0x59
 11491 304f 97160000 		.4byte	.LASF499
 11492 3053 01       		.byte	0x1
 11493 3054 28       		.byte	0x28
 11494 3055 5F300000 		.4byte	0x305f
ARM GAS  /tmp/ccB9RVXV.s 			page 205


 11495 3059 05       		.uleb128 0x5
 11496 305a 03       		.byte	0x3
 11497 305b 00000000 		.4byte	ADC_Value
 11498 305f 05       		.uleb128 0x5
 11499 3060 3E300000 		.4byte	0x303e
 11500 3064 17       		.uleb128 0x17
 11501 3065 B1000000 		.4byte	0xb1
 11502 3069 74300000 		.4byte	0x3074
 11503 306d 18       		.uleb128 0x18
 11504 306e BD040000 		.4byte	0x4bd
 11505 3072 02       		.byte	0x2
 11506 3073 00       		.byte	0
 11507 3074 59       		.uleb128 0x59
 11508 3075 B2100000 		.4byte	.LASF500
 11509 3079 01       		.byte	0x1
 11510 307a 29       		.byte	0x29
 11511 307b 85300000 		.4byte	0x3085
 11512 307f 05       		.uleb128 0x5
 11513 3080 03       		.byte	0x3
 11514 3081 00000000 		.4byte	ADC_curr_norm_value
 11515 3085 05       		.uleb128 0x5
 11516 3086 64300000 		.4byte	0x3064
 11517 308a 17       		.uleb128 0x17
 11518 308b 25000000 		.4byte	0x25
 11519 308f 95300000 		.4byte	0x3095
 11520 3093 5A       		.uleb128 0x5a
 11521 3094 00       		.byte	0
 11522 3095 5B       		.uleb128 0x5b
 11523 3096 78170000 		.4byte	.LASF501
 11524 309a 15       		.byte	0x15
 11525 309b 4B       		.byte	0x4b
 11526 309c A0300000 		.4byte	0x30a0
 11527 30a0 05       		.uleb128 0x5
 11528 30a1 8A300000 		.4byte	0x308a
 11529 30a5 5B       		.uleb128 0x5b
 11530 30a6 EA170000 		.4byte	.LASF502
 11531 30aa 15       		.byte	0x15
 11532 30ab 4C       		.byte	0x4c
 11533 30ac B0300000 		.4byte	0x30b0
 11534 30b0 05       		.uleb128 0x5
 11535 30b1 8A300000 		.4byte	0x308a
 11536 30b5 5B       		.uleb128 0x5b
 11537 30b6 55270000 		.4byte	.LASF503
 11538 30ba 15       		.byte	0x15
 11539 30bb 4D       		.byte	0x4d
 11540 30bc C0300000 		.4byte	0x30c0
 11541 30c0 05       		.uleb128 0x5
 11542 30c1 8A300000 		.4byte	0x308a
 11543 30c5 5B       		.uleb128 0x5b
 11544 30c6 960C0000 		.4byte	.LASF504
 11545 30ca 15       		.byte	0x15
 11546 30cb 4E       		.byte	0x4e
 11547 30cc B9120000 		.4byte	0x12b9
 11548 30d0 5C       		.uleb128 0x5c
 11549 30d1 BD000000 		.4byte	.LASF505
 11550 30d5 16       		.byte	0x16
 11551 30d6 1F       		.byte	0x1f
ARM GAS  /tmp/ccB9RVXV.s 			page 206


 11552 30d7 EB300000 		.4byte	0x30eb
 11553 30db 0D       		.uleb128 0xd
 11554 30dc 92080000 		.4byte	0x892
 11555 30e0 0D       		.uleb128 0xd
 11556 30e1 25000000 		.4byte	0x25
 11557 30e5 0D       		.uleb128 0xd
 11558 30e6 EB300000 		.4byte	0x30eb
 11559 30ea 00       		.byte	0
 11560 30eb 0A       		.uleb128 0xa
 11561 30ec 04       		.byte	0x4
 11562 30ed EB000000 		.4byte	0xeb
 11563 30f1 5C       		.uleb128 0x5c
 11564 30f2 58100000 		.4byte	.LASF506
 11565 30f6 17       		.byte	0x17
 11566 30f7 1C       		.byte	0x1c
 11567 30f8 07310000 		.4byte	0x3107
 11568 30fc 0D       		.uleb128 0xd
 11569 30fd DD110000 		.4byte	0x11dd
 11570 3101 0D       		.uleb128 0xd
 11571 3102 B8000000 		.4byte	0xb8
 11572 3106 00       		.byte	0
 11573 3107 5D       		.uleb128 0x5d
 11574 3108 26270000 		.4byte	.LASF508
 11575 310c 18       		.byte	0x18
 11576 310d 8B       		.byte	0x8b
 11577 310e 6E010000 		.4byte	0x16e
 11578 3112 1C310000 		.4byte	0x311c
 11579 3116 0D       		.uleb128 0xd
 11580 3117 6E010000 		.4byte	0x16e
 11581 311b 00       		.byte	0
 11582 311c 5E       		.uleb128 0x5e
 11583 311d B1040000 		.4byte	.LASF507
 11584 3121 87030000 		.4byte	0x387
 11585 3125 39310000 		.4byte	0x3139
 11586 3129 0D       		.uleb128 0xd
 11587 312a 87030000 		.4byte	0x387
 11588 312e 0D       		.uleb128 0xd
 11589 312f 39310000 		.4byte	0x3139
 11590 3133 0D       		.uleb128 0xd
 11591 3134 BD040000 		.4byte	0x4bd
 11592 3138 00       		.byte	0
 11593 3139 0A       		.uleb128 0xa
 11594 313a 04       		.byte	0x4
 11595 313b 3F310000 		.4byte	0x313f
 11596 313f 5F       		.uleb128 0x5f
 11597 3140 5D       		.uleb128 0x5d
 11598 3141 3B070000 		.4byte	.LASF509
 11599 3145 10       		.byte	0x10
 11600 3146 89       		.byte	0x89
 11601 3147 AA020000 		.4byte	0x2aa
 11602 314b 69310000 		.4byte	0x3169
 11603 314f 0D       		.uleb128 0xd
 11604 3150 87030000 		.4byte	0x387
 11605 3154 0D       		.uleb128 0xd
 11606 3155 0C010000 		.4byte	0x10c
 11607 3159 0D       		.uleb128 0xd
 11608 315a 58010000 		.4byte	0x158
ARM GAS  /tmp/ccB9RVXV.s 			page 207


 11609 315e 0D       		.uleb128 0xd
 11610 315f 76080000 		.4byte	0x876
 11611 3163 0D       		.uleb128 0xd
 11612 3164 87030000 		.4byte	0x387
 11613 3168 00       		.byte	0
 11614 3169 5C       		.uleb128 0x5c
 11615 316a 3A020000 		.4byte	.LASF510
 11616 316e 19       		.byte	0x19
 11617 316f 1C       		.byte	0x1c
 11618 3170 7A310000 		.4byte	0x317a
 11619 3174 0D       		.uleb128 0xd
 11620 3175 43140000 		.4byte	0x1443
 11621 3179 00       		.byte	0
 11622 317a 60       		.uleb128 0x60
 11623 317b 761C0000 		.4byte	.LASF540
 11624 317f 1A       		.byte	0x1a
 11625 3180 1C       		.byte	0x1c
 11626 3181 5C       		.uleb128 0x5c
 11627 3182 E4020000 		.4byte	.LASF511
 11628 3186 15       		.byte	0x15
 11629 3187 1A       		.byte	0x1a
 11630 3188 92310000 		.4byte	0x3192
 11631 318c 0D       		.uleb128 0xd
 11632 318d 43140000 		.4byte	0x1443
 11633 3191 00       		.byte	0
 11634 3192 5C       		.uleb128 0x5c
 11635 3193 49230000 		.4byte	.LASF512
 11636 3197 1A       		.byte	0x1a
 11637 3198 1B       		.byte	0x1b
 11638 3199 A3310000 		.4byte	0x31a3
 11639 319d 0D       		.uleb128 0xd
 11640 319e F6000000 		.4byte	0xf6
 11641 31a2 00       		.byte	0
 11642 31a3 61       		.uleb128 0x61
 11643 31a4 CC190000 		.4byte	.LASF514
 11644 31a8 19       		.byte	0x19
 11645 31a9 21       		.byte	0x21
 11646 31aa 050F0000 		.4byte	0xf05
 11647 31ae 61       		.uleb128 0x61
 11648 31af 63250000 		.4byte	.LASF515
 11649 31b3 15       		.byte	0x15
 11650 31b4 43       		.byte	0x43
 11651 31b5 050F0000 		.4byte	0xf05
 11652 31b9 61       		.uleb128 0x61
 11653 31ba 12110000 		.4byte	.LASF516
 11654 31be 19       		.byte	0x19
 11655 31bf 20       		.byte	0x20
 11656 31c0 B9080000 		.4byte	0x8b9
 11657 31c4 61       		.uleb128 0x61
 11658 31c5 83060000 		.4byte	.LASF517
 11659 31c9 15       		.byte	0x15
 11660 31ca 2C       		.byte	0x2c
 11661 31cb B9080000 		.4byte	0x8b9
 11662 31cf 61       		.uleb128 0x61
 11663 31d0 F6020000 		.4byte	.LASF518
 11664 31d4 19       		.byte	0x19
 11665 31d5 2B       		.byte	0x2b
ARM GAS  /tmp/ccB9RVXV.s 			page 208


 11666 31d6 25000000 		.4byte	0x25
 11667 31da 61       		.uleb128 0x61
 11668 31db EF140000 		.4byte	.LASF519
 11669 31df 15       		.byte	0x15
 11670 31e0 28       		.byte	0x28
 11671 31e1 25000000 		.4byte	0x25
 11672 31e5 61       		.uleb128 0x61
 11673 31e6 BB1F0000 		.4byte	.LASF520
 11674 31ea 19       		.byte	0x19
 11675 31eb 2C       		.byte	0x2c
 11676 31ec 25000000 		.4byte	0x25
 11677 31f0 61       		.uleb128 0x61
 11678 31f1 B2060000 		.4byte	.LASF521
 11679 31f5 15       		.byte	0x15
 11680 31f6 29       		.byte	0x29
 11681 31f7 25000000 		.4byte	0x25
 11682 31fb 61       		.uleb128 0x61
 11683 31fc 6E0F0000 		.4byte	.LASF522
 11684 3200 19       		.byte	0x19
 11685 3201 30       		.byte	0x30
 11686 3202 25000000 		.4byte	0x25
 11687 3206 61       		.uleb128 0x61
 11688 3207 F90F0000 		.4byte	.LASF523
 11689 320b 15       		.byte	0x15
 11690 320c 2A       		.byte	0x2a
 11691 320d 25000000 		.4byte	0x25
 11692 3211 61       		.uleb128 0x61
 11693 3212 FD1D0000 		.4byte	.LASF524
 11694 3216 19       		.byte	0x19
 11695 3217 31       		.byte	0x31
 11696 3218 25000000 		.4byte	0x25
 11697 321c 61       		.uleb128 0x61
 11698 321d AC0C0000 		.4byte	.LASF525
 11699 3221 15       		.byte	0x15
 11700 3222 2B       		.byte	0x2b
 11701 3223 25000000 		.4byte	0x25
 11702 3227 61       		.uleb128 0x61
 11703 3228 D0200000 		.4byte	.LASF526
 11704 322c 19       		.byte	0x19
 11705 322d 32       		.byte	0x32
 11706 322e 25000000 		.4byte	0x25
 11707 3232 61       		.uleb128 0x61
 11708 3233 9C140000 		.4byte	.LASF527
 11709 3237 15       		.byte	0x15
 11710 3238 32       		.byte	0x32
 11711 3239 25000000 		.4byte	0x25
 11712 323d 61       		.uleb128 0x61
 11713 323e CA0C0000 		.4byte	.LASF528
 11714 3242 19       		.byte	0x19
 11715 3243 33       		.byte	0x33
 11716 3244 25000000 		.4byte	0x25
 11717 3248 61       		.uleb128 0x61
 11718 3249 6C000000 		.4byte	.LASF529
 11719 324d 15       		.byte	0x15
 11720 324e 33       		.byte	0x33
 11721 324f 25000000 		.4byte	0x25
 11722 3253 61       		.uleb128 0x61
ARM GAS  /tmp/ccB9RVXV.s 			page 209


 11723 3254 C3070000 		.4byte	.LASF530
 11724 3258 19       		.byte	0x19
 11725 3259 37       		.byte	0x37
 11726 325a 25000000 		.4byte	0x25
 11727 325e 61       		.uleb128 0x61
 11728 325f C1180000 		.4byte	.LASF531
 11729 3263 15       		.byte	0x15
 11730 3264 34       		.byte	0x34
 11731 3265 25000000 		.4byte	0x25
 11732 3269 61       		.uleb128 0x61
 11733 326a B80A0000 		.4byte	.LASF532
 11734 326e 19       		.byte	0x19
 11735 326f 38       		.byte	0x38
 11736 3270 25000000 		.4byte	0x25
 11737 3274 61       		.uleb128 0x61
 11738 3275 1E050000 		.4byte	.LASF533
 11739 3279 15       		.byte	0x15
 11740 327a 35       		.byte	0x35
 11741 327b 25000000 		.4byte	0x25
 11742 327f 61       		.uleb128 0x61
 11743 3280 0B130000 		.4byte	.LASF534
 11744 3284 19       		.byte	0x19
 11745 3285 3B       		.byte	0x3b
 11746 3286 25000000 		.4byte	0x25
 11747 328a 61       		.uleb128 0x61
 11748 328b 85020000 		.4byte	.LASF535
 11749 328f 15       		.byte	0x15
 11750 3290 36       		.byte	0x36
 11751 3291 25000000 		.4byte	0x25
 11752 3295 61       		.uleb128 0x61
 11753 3296 C10B0000 		.4byte	.LASF536
 11754 329a 19       		.byte	0x19
 11755 329b 3C       		.byte	0x3c
 11756 329c 25000000 		.4byte	0x25
 11757 32a0 61       		.uleb128 0x61
 11758 32a1 F6250000 		.4byte	.LASF537
 11759 32a5 15       		.byte	0x15
 11760 32a6 37       		.byte	0x37
 11761 32a7 25000000 		.4byte	0x25
 11762 32ab 5D       		.uleb128 0x5d
 11763 32ac C11B0000 		.4byte	.LASF538
 11764 32b0 19       		.byte	0x19
 11765 32b1 3D       		.byte	0x3d
 11766 32b2 B1000000 		.4byte	0xb1
 11767 32b6 C0320000 		.4byte	0x32c0
 11768 32ba 0D       		.uleb128 0xd
 11769 32bb 050F0000 		.4byte	0xf05
 11770 32bf 00       		.byte	0
 11771 32c0 5D       		.uleb128 0x5d
 11772 32c1 03050000 		.4byte	.LASF539
 11773 32c5 15       		.byte	0x15
 11774 32c6 2F       		.byte	0x2f
 11775 32c7 B1000000 		.4byte	0xb1
 11776 32cb D5320000 		.4byte	0x32d5
 11777 32cf 0D       		.uleb128 0xd
 11778 32d0 050F0000 		.4byte	0xf05
 11779 32d4 00       		.byte	0
ARM GAS  /tmp/ccB9RVXV.s 			page 210


 11780 32d5 60       		.uleb128 0x60
 11781 32d6 39170000 		.4byte	.LASF541
 11782 32da 1B       		.byte	0x1b
 11783 32db 31       		.byte	0x31
 11784 32dc 60       		.uleb128 0x60
 11785 32dd F9150000 		.4byte	.LASF542
 11786 32e1 1B       		.byte	0x1b
 11787 32e2 32       		.byte	0x32
 11788 32e3 61       		.uleb128 0x61
 11789 32e4 C1010000 		.4byte	.LASF543
 11790 32e8 15       		.byte	0x15
 11791 32e9 27       		.byte	0x27
 11792 32ea B1000000 		.4byte	0xb1
 11793 32ee 62       		.uleb128 0x62
 11794 32ef 1F200000 		.4byte	.LASF544
 11795 32f3 1C       		.byte	0x1c
 11796 32f4 4C01     		.2byte	0x14c
 11797 32f6 25000000 		.4byte	0x25
 11798 32fa 04330000 		.4byte	0x3304
 11799 32fe 0D       		.uleb128 0xd
 11800 32ff 25000000 		.4byte	0x25
 11801 3303 00       		.byte	0
 11802 3304 5C       		.uleb128 0x5c
 11803 3305 A91A0000 		.4byte	.LASF545
 11804 3309 1D       		.byte	0x1d
 11805 330a 1B       		.byte	0x1b
 11806 330b 15330000 		.4byte	0x3315
 11807 330f 0D       		.uleb128 0xd
 11808 3310 15330000 		.4byte	0x3315
 11809 3314 00       		.byte	0
 11810 3315 0A       		.uleb128 0xa
 11811 3316 04       		.byte	0x4
 11812 3317 F1100000 		.4byte	0x10f1
 11813 331b 60       		.uleb128 0x60
 11814 331c 90120000 		.4byte	.LASF546
 11815 3320 19       		.byte	0x19
 11816 3321 22       		.byte	0x22
 11817 3322 60       		.uleb128 0x60
 11818 3323 73030000 		.4byte	.LASF547
 11819 3327 15       		.byte	0x15
 11820 3328 31       		.byte	0x31
 11821 3329 5D       		.uleb128 0x5d
 11822 332a 77250000 		.4byte	.LASF548
 11823 332e 1B       		.byte	0x1b
 11824 332f 20       		.byte	0x20
 11825 3330 25000000 		.4byte	0x25
 11826 3334 52330000 		.4byte	0x3352
 11827 3338 0D       		.uleb128 0xd
 11828 3339 25000000 		.4byte	0x25
 11829 333d 0D       		.uleb128 0xd
 11830 333e 25000000 		.4byte	0x25
 11831 3342 0D       		.uleb128 0xd
 11832 3343 25000000 		.4byte	0x25
 11833 3347 0D       		.uleb128 0xd
 11834 3348 25000000 		.4byte	0x25
 11835 334c 0D       		.uleb128 0xd
 11836 334d 25000000 		.4byte	0x25
ARM GAS  /tmp/ccB9RVXV.s 			page 211


 11837 3351 00       		.byte	0
 11838 3352 5D       		.uleb128 0x5d
 11839 3353 EB0F0000 		.4byte	.LASF549
 11840 3357 1B       		.byte	0x1b
 11841 3358 2D       		.byte	0x2d
 11842 3359 25000000 		.4byte	0x25
 11843 335d 6C330000 		.4byte	0x336c
 11844 3361 0D       		.uleb128 0xd
 11845 3362 25000000 		.4byte	0x25
 11846 3366 0D       		.uleb128 0xd
 11847 3367 25000000 		.4byte	0x25
 11848 336b 00       		.byte	0
 11849 336c 60       		.uleb128 0x60
 11850 336d 5D000000 		.4byte	.LASF550
 11851 3371 1A       		.byte	0x1a
 11852 3372 1A       		.byte	0x1a
 11853 3373 5C       		.uleb128 0x5c
 11854 3374 DF040000 		.4byte	.LASF551
 11855 3378 19       		.byte	0x19
 11856 3379 1F       		.byte	0x1f
 11857 337a 84330000 		.4byte	0x3384
 11858 337e 0D       		.uleb128 0xd
 11859 337f 43140000 		.4byte	0x1443
 11860 3383 00       		.byte	0
 11861 3384 5C       		.uleb128 0x5c
 11862 3385 81110000 		.4byte	.LASF552
 11863 3389 15       		.byte	0x15
 11864 338a 1D       		.byte	0x1d
 11865 338b 95330000 		.4byte	0x3395
 11866 338f 0D       		.uleb128 0xd
 11867 3390 43140000 		.4byte	0x1443
 11868 3394 00       		.byte	0
 11869 3395 60       		.uleb128 0x60
 11870 3396 291B0000 		.4byte	.LASF553
 11871 339a 19       		.byte	0x19
 11872 339b 1D       		.byte	0x1d
 11873 339c 5C       		.uleb128 0x5c
 11874 339d FD1E0000 		.4byte	.LASF554
 11875 33a1 1A       		.byte	0x1a
 11876 33a2 22       		.byte	0x22
 11877 33a3 AD330000 		.4byte	0x33ad
 11878 33a7 0D       		.uleb128 0xd
 11879 33a8 F6000000 		.4byte	0xf6
 11880 33ac 00       		.byte	0
 11881 33ad 60       		.uleb128 0x60
 11882 33ae 850D0000 		.4byte	.LASF555
 11883 33b2 15       		.byte	0x15
 11884 33b3 1B       		.byte	0x1b
 11885 33b4 5C       		.uleb128 0x5c
 11886 33b5 E60D0000 		.4byte	.LASF556
 11887 33b9 10       		.byte	0x10
 11888 33ba 96       		.byte	0x96
 11889 33bb C5330000 		.4byte	0x33c5
 11890 33bf 0D       		.uleb128 0xd
 11891 33c0 84010000 		.4byte	0x184
 11892 33c4 00       		.byte	0
 11893 33c5 5D       		.uleb128 0x5d
ARM GAS  /tmp/ccB9RVXV.s 			page 212


 11894 33c6 88010000 		.4byte	.LASF557
 11895 33ca 19       		.byte	0x19
 11896 33cb 3E       		.byte	0x3e
 11897 33cc B1000000 		.4byte	0xb1
 11898 33d0 DA330000 		.4byte	0x33da
 11899 33d4 0D       		.uleb128 0xd
 11900 33d5 050F0000 		.4byte	0xf05
 11901 33d9 00       		.byte	0
 11902 33da 5D       		.uleb128 0x5d
 11903 33db F1190000 		.4byte	.LASF558
 11904 33df 15       		.byte	0x15
 11905 33e0 30       		.byte	0x30
 11906 33e1 B1000000 		.4byte	0xb1
 11907 33e5 EF330000 		.4byte	0x33ef
 11908 33e9 0D       		.uleb128 0xd
 11909 33ea 050F0000 		.4byte	0xf05
 11910 33ee 00       		.byte	0
 11911 33ef 61       		.uleb128 0x61
 11912 33f0 2D150000 		.4byte	.LASF559
 11913 33f4 19       		.byte	0x19
 11914 33f5 4A       		.byte	0x4a
 11915 33f6 25000000 		.4byte	0x25
 11916 33fa 61       		.uleb128 0x61
 11917 33fb 09280000 		.4byte	.LASF560
 11918 33ff 15       		.byte	0x15
 11919 3400 41       		.byte	0x41
 11920 3401 25000000 		.4byte	0x25
 11921 3405 61       		.uleb128 0x61
 11922 3406 D3030000 		.4byte	.LASF561
 11923 340a 19       		.byte	0x19
 11924 340b 2E       		.byte	0x2e
 11925 340c 25000000 		.4byte	0x25
 11926 3410 61       		.uleb128 0x61
 11927 3411 AC1C0000 		.4byte	.LASF562
 11928 3415 1A       		.byte	0x1a
 11929 3416 1E       		.byte	0x1e
 11930 3417 25000000 		.4byte	0x25
 11931 341b 5C       		.uleb128 0x5c
 11932 341c F61A0000 		.4byte	.LASF563
 11933 3420 18       		.byte	0x18
 11934 3421 84       		.byte	0x84
 11935 3422 31340000 		.4byte	0x3431
 11936 3426 0D       		.uleb128 0xd
 11937 3427 AA020000 		.4byte	0x2aa
 11938 342b 0D       		.uleb128 0xd
 11939 342c 6E010000 		.4byte	0x16e
 11940 3430 00       		.byte	0
 11941 3431 61       		.uleb128 0x61
 11942 3432 730B0000 		.4byte	.LASF564
 11943 3436 19       		.byte	0x19
 11944 3437 1E       		.byte	0x1e
 11945 3438 050F0000 		.4byte	0xf05
 11946 343c 61       		.uleb128 0x61
 11947 343d 3A250000 		.4byte	.LASF565
 11948 3441 15       		.byte	0x15
 11949 3442 1C       		.byte	0x1c
 11950 3443 050F0000 		.4byte	0xf05
ARM GAS  /tmp/ccB9RVXV.s 			page 213


 11951 3447 5C       		.uleb128 0x5c
 11952 3448 C3160000 		.4byte	.LASF566
 11953 344c 19       		.byte	0x19
 11954 344d 23       		.byte	0x23
 11955 344e 58340000 		.4byte	0x3458
 11956 3452 0D       		.uleb128 0xd
 11957 3453 25000000 		.4byte	0x25
 11958 3457 00       		.byte	0
 11959 3458 5C       		.uleb128 0x5c
 11960 3459 7B270000 		.4byte	.LASF567
 11961 345d 15       		.byte	0x15
 11962 345e 1F       		.byte	0x1f
 11963 345f 69340000 		.4byte	0x3469
 11964 3463 0D       		.uleb128 0xd
 11965 3464 25000000 		.4byte	0x25
 11966 3468 00       		.byte	0
 11967 3469 5C       		.uleb128 0x5c
 11968 346a 0A140000 		.4byte	.LASF568
 11969 346e 19       		.byte	0x19
 11970 346f 24       		.byte	0x24
 11971 3470 7A340000 		.4byte	0x347a
 11972 3474 0D       		.uleb128 0xd
 11973 3475 25000000 		.4byte	0x25
 11974 3479 00       		.byte	0
 11975 347a 5C       		.uleb128 0x5c
 11976 347b AB010000 		.4byte	.LASF569
 11977 347f 15       		.byte	0x15
 11978 3480 20       		.byte	0x20
 11979 3481 8B340000 		.4byte	0x348b
 11980 3485 0D       		.uleb128 0xd
 11981 3486 25000000 		.4byte	0x25
 11982 348a 00       		.byte	0
 11983 348b 5C       		.uleb128 0x5c
 11984 348c 6C0C0000 		.4byte	.LASF570
 11985 3490 19       		.byte	0x19
 11986 3491 25       		.byte	0x25
 11987 3492 9C340000 		.4byte	0x349c
 11988 3496 0D       		.uleb128 0xd
 11989 3497 25000000 		.4byte	0x25
 11990 349b 00       		.byte	0
 11991 349c 5C       		.uleb128 0x5c
 11992 349d D6170000 		.4byte	.LASF571
 11993 34a1 15       		.byte	0x15
 11994 34a2 21       		.byte	0x21
 11995 34a3 AD340000 		.4byte	0x34ad
 11996 34a7 0D       		.uleb128 0xd
 11997 34a8 25000000 		.4byte	0x25
 11998 34ac 00       		.byte	0
 11999 34ad 5C       		.uleb128 0x5c
 12000 34ae AB1B0000 		.4byte	.LASF572
 12001 34b2 19       		.byte	0x19
 12002 34b3 26       		.byte	0x26
 12003 34b4 BE340000 		.4byte	0x34be
 12004 34b8 0D       		.uleb128 0xd
 12005 34b9 25000000 		.4byte	0x25
 12006 34bd 00       		.byte	0
 12007 34be 5C       		.uleb128 0x5c
ARM GAS  /tmp/ccB9RVXV.s 			page 214


 12008 34bf A50D0000 		.4byte	.LASF573
 12009 34c3 15       		.byte	0x15
 12010 34c4 22       		.byte	0x22
 12011 34c5 CF340000 		.4byte	0x34cf
 12012 34c9 0D       		.uleb128 0xd
 12013 34ca 25000000 		.4byte	0x25
 12014 34ce 00       		.byte	0
 12015 34cf 5C       		.uleb128 0x5c
 12016 34d0 8C080000 		.4byte	.LASF574
 12017 34d4 15       		.byte	0x15
 12018 34d5 23       		.byte	0x23
 12019 34d6 E0340000 		.4byte	0x34e0
 12020 34da 0D       		.uleb128 0xd
 12021 34db 25000000 		.4byte	0x25
 12022 34df 00       		.byte	0
 12023 34e0 5C       		.uleb128 0x5c
 12024 34e1 10150000 		.4byte	.LASF575
 12025 34e5 19       		.byte	0x19
 12026 34e6 27       		.byte	0x27
 12027 34e7 F1340000 		.4byte	0x34f1
 12028 34eb 0D       		.uleb128 0xd
 12029 34ec 25000000 		.4byte	0x25
 12030 34f0 00       		.byte	0
 12031 34f1 5C       		.uleb128 0x5c
 12032 34f2 B2250000 		.4byte	.LASF576
 12033 34f6 19       		.byte	0x19
 12034 34f7 28       		.byte	0x28
 12035 34f8 02350000 		.4byte	0x3502
 12036 34fc 0D       		.uleb128 0xd
 12037 34fd 25000000 		.4byte	0x25
 12038 3501 00       		.byte	0
 12039 3502 5C       		.uleb128 0x5c
 12040 3503 B50F0000 		.4byte	.LASF577
 12041 3507 15       		.byte	0x15
 12042 3508 24       		.byte	0x24
 12043 3509 13350000 		.4byte	0x3513
 12044 350d 0D       		.uleb128 0xd
 12045 350e 25000000 		.4byte	0x25
 12046 3512 00       		.byte	0
 12047 3513 5C       		.uleb128 0x5c
 12048 3514 78230000 		.4byte	.LASF578
 12049 3518 19       		.byte	0x19
 12050 3519 29       		.byte	0x29
 12051 351a 24350000 		.4byte	0x3524
 12052 351e 0D       		.uleb128 0xd
 12053 351f 25000000 		.4byte	0x25
 12054 3523 00       		.byte	0
 12055 3524 61       		.uleb128 0x61
 12056 3525 931A0000 		.4byte	.LASF579
 12057 3529 15       		.byte	0x15
 12058 352a 3C       		.byte	0x3c
 12059 352b B1000000 		.4byte	0xb1
 12060 352f 61       		.uleb128 0x61
 12061 3530 351C0000 		.4byte	.LASF580
 12062 3534 19       		.byte	0x19
 12063 3535 3F       		.byte	0x3f
 12064 3536 25000000 		.4byte	0x25
ARM GAS  /tmp/ccB9RVXV.s 			page 215


 12065 353a 5C       		.uleb128 0x5c
 12066 353b FD030000 		.4byte	.LASF581
 12067 353f 18       		.byte	0x18
 12068 3540 85       		.byte	0x85
 12069 3541 50350000 		.4byte	0x3550
 12070 3545 0D       		.uleb128 0xd
 12071 3546 AA020000 		.4byte	0x2aa
 12072 354a 0D       		.uleb128 0xd
 12073 354b 6E010000 		.4byte	0x16e
 12074 354f 00       		.byte	0
 12075 3550 60       		.uleb128 0x60
 12076 3551 5B070000 		.4byte	.LASF582
 12077 3555 1E       		.byte	0x1e
 12078 3556 23       		.byte	0x23
 12079 3557 61       		.uleb128 0x61
 12080 3558 9A130000 		.4byte	.LASF583
 12081 355c 19       		.byte	0x19
 12082 355d 39       		.byte	0x39
 12083 355e 25000000 		.4byte	0x25
 12084 3562 61       		.uleb128 0x61
 12085 3563 BE130000 		.4byte	.LASF584
 12086 3567 19       		.byte	0x19
 12087 3568 3A       		.byte	0x3a
 12088 3569 25000000 		.4byte	0x25
 12089 356d 61       		.uleb128 0x61
 12090 356e DF100000 		.4byte	.LASF585
 12091 3572 19       		.byte	0x19
 12092 3573 34       		.byte	0x34
 12093 3574 25000000 		.4byte	0x25
 12094 3578 61       		.uleb128 0x61
 12095 3579 7D090000 		.4byte	.LASF586
 12096 357d 19       		.byte	0x19
 12097 357e 36       		.byte	0x36
 12098 357f 25000000 		.4byte	0x25
 12099 3583 60       		.uleb128 0x60
 12100 3584 24200000 		.4byte	.LASF587
 12101 3588 15       		.byte	0x15
 12102 3589 47       		.byte	0x47
 12103 358a 00       		.byte	0
 12104              		.section	.debug_abbrev,"",%progbits
 12105              	.Ldebug_abbrev0:
 12106 0000 01       		.uleb128 0x1
 12107 0001 11       		.uleb128 0x11
 12108 0002 01       		.byte	0x1
 12109 0003 25       		.uleb128 0x25
 12110 0004 0E       		.uleb128 0xe
 12111 0005 13       		.uleb128 0x13
 12112 0006 0B       		.uleb128 0xb
 12113 0007 03       		.uleb128 0x3
 12114 0008 0E       		.uleb128 0xe
 12115 0009 1B       		.uleb128 0x1b
 12116 000a 0E       		.uleb128 0xe
 12117 000b 55       		.uleb128 0x55
 12118 000c 17       		.uleb128 0x17
 12119 000d 11       		.uleb128 0x11
 12120 000e 01       		.uleb128 0x1
 12121 000f 10       		.uleb128 0x10
ARM GAS  /tmp/ccB9RVXV.s 			page 216


 12122 0010 17       		.uleb128 0x17
 12123 0011 00       		.byte	0
 12124 0012 00       		.byte	0
 12125 0013 02       		.uleb128 0x2
 12126 0014 24       		.uleb128 0x24
 12127 0015 00       		.byte	0
 12128 0016 0B       		.uleb128 0xb
 12129 0017 0B       		.uleb128 0xb
 12130 0018 3E       		.uleb128 0x3e
 12131 0019 0B       		.uleb128 0xb
 12132 001a 03       		.uleb128 0x3
 12133 001b 0E       		.uleb128 0xe
 12134 001c 00       		.byte	0
 12135 001d 00       		.byte	0
 12136 001e 03       		.uleb128 0x3
 12137 001f 16       		.uleb128 0x16
 12138 0020 00       		.byte	0
 12139 0021 03       		.uleb128 0x3
 12140 0022 0E       		.uleb128 0xe
 12141 0023 3A       		.uleb128 0x3a
 12142 0024 0B       		.uleb128 0xb
 12143 0025 3B       		.uleb128 0x3b
 12144 0026 0B       		.uleb128 0xb
 12145 0027 49       		.uleb128 0x49
 12146 0028 13       		.uleb128 0x13
 12147 0029 00       		.byte	0
 12148 002a 00       		.byte	0
 12149 002b 04       		.uleb128 0x4
 12150 002c 24       		.uleb128 0x24
 12151 002d 00       		.byte	0
 12152 002e 0B       		.uleb128 0xb
 12153 002f 0B       		.uleb128 0xb
 12154 0030 3E       		.uleb128 0x3e
 12155 0031 0B       		.uleb128 0xb
 12156 0032 03       		.uleb128 0x3
 12157 0033 08       		.uleb128 0x8
 12158 0034 00       		.byte	0
 12159 0035 00       		.byte	0
 12160 0036 05       		.uleb128 0x5
 12161 0037 35       		.uleb128 0x35
 12162 0038 00       		.byte	0
 12163 0039 49       		.uleb128 0x49
 12164 003a 13       		.uleb128 0x13
 12165 003b 00       		.byte	0
 12166 003c 00       		.byte	0
 12167 003d 06       		.uleb128 0x6
 12168 003e 13       		.uleb128 0x13
 12169 003f 01       		.byte	0x1
 12170 0040 03       		.uleb128 0x3
 12171 0041 0E       		.uleb128 0xe
 12172 0042 0B       		.uleb128 0xb
 12173 0043 0B       		.uleb128 0xb
 12174 0044 3A       		.uleb128 0x3a
 12175 0045 0B       		.uleb128 0xb
 12176 0046 3B       		.uleb128 0x3b
 12177 0047 0B       		.uleb128 0xb
 12178 0048 01       		.uleb128 0x1
ARM GAS  /tmp/ccB9RVXV.s 			page 217


 12179 0049 13       		.uleb128 0x13
 12180 004a 00       		.byte	0
 12181 004b 00       		.byte	0
 12182 004c 07       		.uleb128 0x7
 12183 004d 0D       		.uleb128 0xd
 12184 004e 00       		.byte	0
 12185 004f 03       		.uleb128 0x3
 12186 0050 0E       		.uleb128 0xe
 12187 0051 3A       		.uleb128 0x3a
 12188 0052 0B       		.uleb128 0xb
 12189 0053 3B       		.uleb128 0x3b
 12190 0054 0B       		.uleb128 0xb
 12191 0055 49       		.uleb128 0x49
 12192 0056 13       		.uleb128 0x13
 12193 0057 38       		.uleb128 0x38
 12194 0058 0B       		.uleb128 0xb
 12195 0059 00       		.byte	0
 12196 005a 00       		.byte	0
 12197 005b 08       		.uleb128 0x8
 12198 005c 0D       		.uleb128 0xd
 12199 005d 00       		.byte	0
 12200 005e 03       		.uleb128 0x3
 12201 005f 08       		.uleb128 0x8
 12202 0060 3A       		.uleb128 0x3a
 12203 0061 0B       		.uleb128 0xb
 12204 0062 3B       		.uleb128 0x3b
 12205 0063 05       		.uleb128 0x5
 12206 0064 49       		.uleb128 0x49
 12207 0065 13       		.uleb128 0x13
 12208 0066 38       		.uleb128 0x38
 12209 0067 0B       		.uleb128 0xb
 12210 0068 00       		.byte	0
 12211 0069 00       		.byte	0
 12212 006a 09       		.uleb128 0x9
 12213 006b 0D       		.uleb128 0xd
 12214 006c 00       		.byte	0
 12215 006d 03       		.uleb128 0x3
 12216 006e 0E       		.uleb128 0xe
 12217 006f 3A       		.uleb128 0x3a
 12218 0070 0B       		.uleb128 0xb
 12219 0071 3B       		.uleb128 0x3b
 12220 0072 05       		.uleb128 0x5
 12221 0073 49       		.uleb128 0x49
 12222 0074 13       		.uleb128 0x13
 12223 0075 38       		.uleb128 0x38
 12224 0076 0B       		.uleb128 0xb
 12225 0077 00       		.byte	0
 12226 0078 00       		.byte	0
 12227 0079 0A       		.uleb128 0xa
 12228 007a 0F       		.uleb128 0xf
 12229 007b 00       		.byte	0
 12230 007c 0B       		.uleb128 0xb
 12231 007d 0B       		.uleb128 0xb
 12232 007e 49       		.uleb128 0x49
 12233 007f 13       		.uleb128 0x13
 12234 0080 00       		.byte	0
 12235 0081 00       		.byte	0
ARM GAS  /tmp/ccB9RVXV.s 			page 218


 12236 0082 0B       		.uleb128 0xb
 12237 0083 13       		.uleb128 0x13
 12238 0084 01       		.byte	0x1
 12239 0085 03       		.uleb128 0x3
 12240 0086 0E       		.uleb128 0xe
 12241 0087 0B       		.uleb128 0xb
 12242 0088 0B       		.uleb128 0xb
 12243 0089 3A       		.uleb128 0x3a
 12244 008a 0B       		.uleb128 0xb
 12245 008b 3B       		.uleb128 0x3b
 12246 008c 05       		.uleb128 0x5
 12247 008d 01       		.uleb128 0x1
 12248 008e 13       		.uleb128 0x13
 12249 008f 00       		.byte	0
 12250 0090 00       		.byte	0
 12251 0091 0C       		.uleb128 0xc
 12252 0092 15       		.uleb128 0x15
 12253 0093 01       		.byte	0x1
 12254 0094 27       		.uleb128 0x27
 12255 0095 19       		.uleb128 0x19
 12256 0096 01       		.uleb128 0x1
 12257 0097 13       		.uleb128 0x13
 12258 0098 00       		.byte	0
 12259 0099 00       		.byte	0
 12260 009a 0D       		.uleb128 0xd
 12261 009b 05       		.uleb128 0x5
 12262 009c 00       		.byte	0
 12263 009d 49       		.uleb128 0x49
 12264 009e 13       		.uleb128 0x13
 12265 009f 00       		.byte	0
 12266 00a0 00       		.byte	0
 12267 00a1 0E       		.uleb128 0xe
 12268 00a2 0F       		.uleb128 0xf
 12269 00a3 00       		.byte	0
 12270 00a4 0B       		.uleb128 0xb
 12271 00a5 0B       		.uleb128 0xb
 12272 00a6 00       		.byte	0
 12273 00a7 00       		.byte	0
 12274 00a8 0F       		.uleb128 0xf
 12275 00a9 13       		.uleb128 0x13
 12276 00aa 01       		.byte	0x1
 12277 00ab 03       		.uleb128 0x3
 12278 00ac 0E       		.uleb128 0xe
 12279 00ad 0B       		.uleb128 0xb
 12280 00ae 05       		.uleb128 0x5
 12281 00af 3A       		.uleb128 0x3a
 12282 00b0 0B       		.uleb128 0xb
 12283 00b1 3B       		.uleb128 0x3b
 12284 00b2 05       		.uleb128 0x5
 12285 00b3 01       		.uleb128 0x1
 12286 00b4 13       		.uleb128 0x13
 12287 00b5 00       		.byte	0
 12288 00b6 00       		.byte	0
 12289 00b7 10       		.uleb128 0x10
 12290 00b8 13       		.uleb128 0x13
 12291 00b9 01       		.byte	0x1
 12292 00ba 0B       		.uleb128 0xb
ARM GAS  /tmp/ccB9RVXV.s 			page 219


 12293 00bb 0B       		.uleb128 0xb
 12294 00bc 3A       		.uleb128 0x3a
 12295 00bd 0B       		.uleb128 0xb
 12296 00be 3B       		.uleb128 0x3b
 12297 00bf 05       		.uleb128 0x5
 12298 00c0 01       		.uleb128 0x1
 12299 00c1 13       		.uleb128 0x13
 12300 00c2 00       		.byte	0
 12301 00c3 00       		.byte	0
 12302 00c4 11       		.uleb128 0x11
 12303 00c5 16       		.uleb128 0x16
 12304 00c6 00       		.byte	0
 12305 00c7 03       		.uleb128 0x3
 12306 00c8 0E       		.uleb128 0xe
 12307 00c9 3A       		.uleb128 0x3a
 12308 00ca 0B       		.uleb128 0xb
 12309 00cb 3B       		.uleb128 0x3b
 12310 00cc 05       		.uleb128 0x5
 12311 00cd 49       		.uleb128 0x49
 12312 00ce 13       		.uleb128 0x13
 12313 00cf 00       		.byte	0
 12314 00d0 00       		.byte	0
 12315 00d1 12       		.uleb128 0x12
 12316 00d2 0D       		.uleb128 0xd
 12317 00d3 00       		.byte	0
 12318 00d4 03       		.uleb128 0x3
 12319 00d5 08       		.uleb128 0x8
 12320 00d6 3A       		.uleb128 0x3a
 12321 00d7 0B       		.uleb128 0xb
 12322 00d8 3B       		.uleb128 0x3b
 12323 00d9 0B       		.uleb128 0xb
 12324 00da 49       		.uleb128 0x49
 12325 00db 13       		.uleb128 0x13
 12326 00dc 38       		.uleb128 0x38
 12327 00dd 0B       		.uleb128 0xb
 12328 00de 00       		.byte	0
 12329 00df 00       		.byte	0
 12330 00e0 13       		.uleb128 0x13
 12331 00e1 13       		.uleb128 0x13
 12332 00e2 01       		.byte	0x1
 12333 00e3 0B       		.uleb128 0xb
 12334 00e4 0B       		.uleb128 0xb
 12335 00e5 3A       		.uleb128 0x3a
 12336 00e6 0B       		.uleb128 0xb
 12337 00e7 3B       		.uleb128 0x3b
 12338 00e8 0B       		.uleb128 0xb
 12339 00e9 01       		.uleb128 0x1
 12340 00ea 13       		.uleb128 0x13
 12341 00eb 00       		.byte	0
 12342 00ec 00       		.byte	0
 12343 00ed 14       		.uleb128 0x14
 12344 00ee 17       		.uleb128 0x17
 12345 00ef 01       		.byte	0x1
 12346 00f0 0B       		.uleb128 0xb
 12347 00f1 0B       		.uleb128 0xb
 12348 00f2 3A       		.uleb128 0x3a
 12349 00f3 0B       		.uleb128 0xb
ARM GAS  /tmp/ccB9RVXV.s 			page 220


 12350 00f4 3B       		.uleb128 0x3b
 12351 00f5 0B       		.uleb128 0xb
 12352 00f6 01       		.uleb128 0x1
 12353 00f7 13       		.uleb128 0x13
 12354 00f8 00       		.byte	0
 12355 00f9 00       		.byte	0
 12356 00fa 15       		.uleb128 0x15
 12357 00fb 0D       		.uleb128 0xd
 12358 00fc 00       		.byte	0
 12359 00fd 03       		.uleb128 0x3
 12360 00fe 0E       		.uleb128 0xe
 12361 00ff 3A       		.uleb128 0x3a
 12362 0100 0B       		.uleb128 0xb
 12363 0101 3B       		.uleb128 0x3b
 12364 0102 05       		.uleb128 0x5
 12365 0103 49       		.uleb128 0x49
 12366 0104 13       		.uleb128 0x13
 12367 0105 00       		.byte	0
 12368 0106 00       		.byte	0
 12369 0107 16       		.uleb128 0x16
 12370 0108 26       		.uleb128 0x26
 12371 0109 00       		.byte	0
 12372 010a 49       		.uleb128 0x49
 12373 010b 13       		.uleb128 0x13
 12374 010c 00       		.byte	0
 12375 010d 00       		.byte	0
 12376 010e 17       		.uleb128 0x17
 12377 010f 01       		.uleb128 0x1
 12378 0110 01       		.byte	0x1
 12379 0111 49       		.uleb128 0x49
 12380 0112 13       		.uleb128 0x13
 12381 0113 01       		.uleb128 0x1
 12382 0114 13       		.uleb128 0x13
 12383 0115 00       		.byte	0
 12384 0116 00       		.byte	0
 12385 0117 18       		.uleb128 0x18
 12386 0118 21       		.uleb128 0x21
 12387 0119 00       		.byte	0
 12388 011a 49       		.uleb128 0x49
 12389 011b 13       		.uleb128 0x13
 12390 011c 2F       		.uleb128 0x2f
 12391 011d 0B       		.uleb128 0xb
 12392 011e 00       		.byte	0
 12393 011f 00       		.byte	0
 12394 0120 19       		.uleb128 0x19
 12395 0121 04       		.uleb128 0x4
 12396 0122 01       		.byte	0x1
 12397 0123 0B       		.uleb128 0xb
 12398 0124 0B       		.uleb128 0xb
 12399 0125 3A       		.uleb128 0x3a
 12400 0126 0B       		.uleb128 0xb
 12401 0127 3B       		.uleb128 0x3b
 12402 0128 0B       		.uleb128 0xb
 12403 0129 01       		.uleb128 0x1
 12404 012a 13       		.uleb128 0x13
 12405 012b 00       		.byte	0
 12406 012c 00       		.byte	0
ARM GAS  /tmp/ccB9RVXV.s 			page 221


 12407 012d 1A       		.uleb128 0x1a
 12408 012e 28       		.uleb128 0x28
 12409 012f 00       		.byte	0
 12410 0130 03       		.uleb128 0x3
 12411 0131 0E       		.uleb128 0xe
 12412 0132 1C       		.uleb128 0x1c
 12413 0133 0D       		.uleb128 0xd
 12414 0134 00       		.byte	0
 12415 0135 00       		.byte	0
 12416 0136 1B       		.uleb128 0x1b
 12417 0137 13       		.uleb128 0x13
 12418 0138 01       		.byte	0x1
 12419 0139 0B       		.uleb128 0xb
 12420 013a 05       		.uleb128 0x5
 12421 013b 3A       		.uleb128 0x3a
 12422 013c 0B       		.uleb128 0xb
 12423 013d 3B       		.uleb128 0x3b
 12424 013e 0B       		.uleb128 0xb
 12425 013f 01       		.uleb128 0x1
 12426 0140 13       		.uleb128 0x13
 12427 0141 00       		.byte	0
 12428 0142 00       		.byte	0
 12429 0143 1C       		.uleb128 0x1c
 12430 0144 0D       		.uleb128 0xd
 12431 0145 00       		.byte	0
 12432 0146 03       		.uleb128 0x3
 12433 0147 0E       		.uleb128 0xe
 12434 0148 3A       		.uleb128 0x3a
 12435 0149 0B       		.uleb128 0xb
 12436 014a 3B       		.uleb128 0x3b
 12437 014b 0B       		.uleb128 0xb
 12438 014c 49       		.uleb128 0x49
 12439 014d 13       		.uleb128 0x13
 12440 014e 38       		.uleb128 0x38
 12441 014f 05       		.uleb128 0x5
 12442 0150 00       		.byte	0
 12443 0151 00       		.byte	0
 12444 0152 1D       		.uleb128 0x1d
 12445 0153 04       		.uleb128 0x4
 12446 0154 01       		.byte	0x1
 12447 0155 0B       		.uleb128 0xb
 12448 0156 0B       		.uleb128 0xb
 12449 0157 3A       		.uleb128 0x3a
 12450 0158 0B       		.uleb128 0xb
 12451 0159 3B       		.uleb128 0x3b
 12452 015a 05       		.uleb128 0x5
 12453 015b 01       		.uleb128 0x1
 12454 015c 13       		.uleb128 0x13
 12455 015d 00       		.byte	0
 12456 015e 00       		.byte	0
 12457 015f 1E       		.uleb128 0x1e
 12458 0160 0D       		.uleb128 0xd
 12459 0161 00       		.byte	0
 12460 0162 03       		.uleb128 0x3
 12461 0163 08       		.uleb128 0x8
 12462 0164 3A       		.uleb128 0x3a
 12463 0165 0B       		.uleb128 0xb
ARM GAS  /tmp/ccB9RVXV.s 			page 222


 12464 0166 3B       		.uleb128 0x3b
 12465 0167 0B       		.uleb128 0xb
 12466 0168 49       		.uleb128 0x49
 12467 0169 13       		.uleb128 0x13
 12468 016a 00       		.byte	0
 12469 016b 00       		.byte	0
 12470 016c 1F       		.uleb128 0x1f
 12471 016d 15       		.uleb128 0x15
 12472 016e 00       		.byte	0
 12473 016f 27       		.uleb128 0x27
 12474 0170 19       		.uleb128 0x19
 12475 0171 00       		.byte	0
 12476 0172 00       		.byte	0
 12477 0173 20       		.uleb128 0x20
 12478 0174 2E       		.uleb128 0x2e
 12479 0175 01       		.byte	0x1
 12480 0176 03       		.uleb128 0x3
 12481 0177 0E       		.uleb128 0xe
 12482 0178 3A       		.uleb128 0x3a
 12483 0179 0B       		.uleb128 0xb
 12484 017a 3B       		.uleb128 0x3b
 12485 017b 05       		.uleb128 0x5
 12486 017c 27       		.uleb128 0x27
 12487 017d 19       		.uleb128 0x19
 12488 017e 20       		.uleb128 0x20
 12489 017f 0B       		.uleb128 0xb
 12490 0180 01       		.uleb128 0x1
 12491 0181 13       		.uleb128 0x13
 12492 0182 00       		.byte	0
 12493 0183 00       		.byte	0
 12494 0184 21       		.uleb128 0x21
 12495 0185 05       		.uleb128 0x5
 12496 0186 00       		.byte	0
 12497 0187 03       		.uleb128 0x3
 12498 0188 0E       		.uleb128 0xe
 12499 0189 3A       		.uleb128 0x3a
 12500 018a 0B       		.uleb128 0xb
 12501 018b 3B       		.uleb128 0x3b
 12502 018c 05       		.uleb128 0x5
 12503 018d 49       		.uleb128 0x49
 12504 018e 13       		.uleb128 0x13
 12505 018f 00       		.byte	0
 12506 0190 00       		.byte	0
 12507 0191 22       		.uleb128 0x22
 12508 0192 2E       		.uleb128 0x2e
 12509 0193 00       		.byte	0
 12510 0194 03       		.uleb128 0x3
 12511 0195 0E       		.uleb128 0xe
 12512 0196 3A       		.uleb128 0x3a
 12513 0197 0B       		.uleb128 0xb
 12514 0198 3B       		.uleb128 0x3b
 12515 0199 05       		.uleb128 0x5
 12516 019a 27       		.uleb128 0x27
 12517 019b 19       		.uleb128 0x19
 12518 019c 20       		.uleb128 0x20
 12519 019d 0B       		.uleb128 0xb
 12520 019e 00       		.byte	0
ARM GAS  /tmp/ccB9RVXV.s 			page 223


 12521 019f 00       		.byte	0
 12522 01a0 23       		.uleb128 0x23
 12523 01a1 2E       		.uleb128 0x2e
 12524 01a2 01       		.byte	0x1
 12525 01a3 03       		.uleb128 0x3
 12526 01a4 0E       		.uleb128 0xe
 12527 01a5 3A       		.uleb128 0x3a
 12528 01a6 0B       		.uleb128 0xb
 12529 01a7 3B       		.uleb128 0x3b
 12530 01a8 0B       		.uleb128 0xb
 12531 01a9 27       		.uleb128 0x27
 12532 01aa 19       		.uleb128 0x19
 12533 01ab 20       		.uleb128 0x20
 12534 01ac 0B       		.uleb128 0xb
 12535 01ad 01       		.uleb128 0x1
 12536 01ae 13       		.uleb128 0x13
 12537 01af 00       		.byte	0
 12538 01b0 00       		.byte	0
 12539 01b1 24       		.uleb128 0x24
 12540 01b2 05       		.uleb128 0x5
 12541 01b3 00       		.byte	0
 12542 01b4 03       		.uleb128 0x3
 12543 01b5 0E       		.uleb128 0xe
 12544 01b6 3A       		.uleb128 0x3a
 12545 01b7 0B       		.uleb128 0xb
 12546 01b8 3B       		.uleb128 0x3b
 12547 01b9 0B       		.uleb128 0xb
 12548 01ba 49       		.uleb128 0x49
 12549 01bb 13       		.uleb128 0x13
 12550 01bc 00       		.byte	0
 12551 01bd 00       		.byte	0
 12552 01be 25       		.uleb128 0x25
 12553 01bf 2E       		.uleb128 0x2e
 12554 01c0 00       		.byte	0
 12555 01c1 03       		.uleb128 0x3
 12556 01c2 0E       		.uleb128 0xe
 12557 01c3 3A       		.uleb128 0x3a
 12558 01c4 0B       		.uleb128 0xb
 12559 01c5 3B       		.uleb128 0x3b
 12560 01c6 0B       		.uleb128 0xb
 12561 01c7 27       		.uleb128 0x27
 12562 01c8 19       		.uleb128 0x19
 12563 01c9 49       		.uleb128 0x49
 12564 01ca 13       		.uleb128 0x13
 12565 01cb 20       		.uleb128 0x20
 12566 01cc 0B       		.uleb128 0xb
 12567 01cd 00       		.byte	0
 12568 01ce 00       		.byte	0
 12569 01cf 26       		.uleb128 0x26
 12570 01d0 2E       		.uleb128 0x2e
 12571 01d1 01       		.byte	0x1
 12572 01d2 3F       		.uleb128 0x3f
 12573 01d3 19       		.uleb128 0x19
 12574 01d4 03       		.uleb128 0x3
 12575 01d5 0E       		.uleb128 0xe
 12576 01d6 3A       		.uleb128 0x3a
 12577 01d7 0B       		.uleb128 0xb
ARM GAS  /tmp/ccB9RVXV.s 			page 224


 12578 01d8 3B       		.uleb128 0x3b
 12579 01d9 05       		.uleb128 0x5
 12580 01da 27       		.uleb128 0x27
 12581 01db 19       		.uleb128 0x19
 12582 01dc 20       		.uleb128 0x20
 12583 01dd 0B       		.uleb128 0xb
 12584 01de 01       		.uleb128 0x1
 12585 01df 13       		.uleb128 0x13
 12586 01e0 00       		.byte	0
 12587 01e1 00       		.byte	0
 12588 01e2 27       		.uleb128 0x27
 12589 01e3 0B       		.uleb128 0xb
 12590 01e4 01       		.byte	0x1
 12591 01e5 00       		.byte	0
 12592 01e6 00       		.byte	0
 12593 01e7 28       		.uleb128 0x28
 12594 01e8 34       		.uleb128 0x34
 12595 01e9 00       		.byte	0
 12596 01ea 03       		.uleb128 0x3
 12597 01eb 0E       		.uleb128 0xe
 12598 01ec 3A       		.uleb128 0x3a
 12599 01ed 0B       		.uleb128 0xb
 12600 01ee 3B       		.uleb128 0x3b
 12601 01ef 05       		.uleb128 0x5
 12602 01f0 49       		.uleb128 0x49
 12603 01f1 13       		.uleb128 0x13
 12604 01f2 00       		.byte	0
 12605 01f3 00       		.byte	0
 12606 01f4 29       		.uleb128 0x29
 12607 01f5 2E       		.uleb128 0x2e
 12608 01f6 00       		.byte	0
 12609 01f7 3F       		.uleb128 0x3f
 12610 01f8 19       		.uleb128 0x19
 12611 01f9 03       		.uleb128 0x3
 12612 01fa 0E       		.uleb128 0xe
 12613 01fb 3A       		.uleb128 0x3a
 12614 01fc 0B       		.uleb128 0xb
 12615 01fd 3B       		.uleb128 0x3b
 12616 01fe 05       		.uleb128 0x5
 12617 01ff 27       		.uleb128 0x27
 12618 0200 19       		.uleb128 0x19
 12619 0201 49       		.uleb128 0x49
 12620 0202 13       		.uleb128 0x13
 12621 0203 20       		.uleb128 0x20
 12622 0204 0B       		.uleb128 0xb
 12623 0205 00       		.byte	0
 12624 0206 00       		.byte	0
 12625 0207 2A       		.uleb128 0x2a
 12626 0208 0B       		.uleb128 0xb
 12627 0209 01       		.byte	0x1
 12628 020a 01       		.uleb128 0x1
 12629 020b 13       		.uleb128 0x13
 12630 020c 00       		.byte	0
 12631 020d 00       		.byte	0
 12632 020e 2B       		.uleb128 0x2b
 12633 020f 2E       		.uleb128 0x2e
 12634 0210 01       		.byte	0x1
ARM GAS  /tmp/ccB9RVXV.s 			page 225


 12635 0211 03       		.uleb128 0x3
 12636 0212 0E       		.uleb128 0xe
 12637 0213 3A       		.uleb128 0x3a
 12638 0214 0B       		.uleb128 0xb
 12639 0215 3B       		.uleb128 0x3b
 12640 0216 05       		.uleb128 0x5
 12641 0217 27       		.uleb128 0x27
 12642 0218 19       		.uleb128 0x19
 12643 0219 11       		.uleb128 0x11
 12644 021a 01       		.uleb128 0x1
 12645 021b 12       		.uleb128 0x12
 12646 021c 06       		.uleb128 0x6
 12647 021d 40       		.uleb128 0x40
 12648 021e 18       		.uleb128 0x18
 12649 021f 9742     		.uleb128 0x2117
 12650 0221 19       		.uleb128 0x19
 12651 0222 01       		.uleb128 0x1
 12652 0223 13       		.uleb128 0x13
 12653 0224 00       		.byte	0
 12654 0225 00       		.byte	0
 12655 0226 2C       		.uleb128 0x2c
 12656 0227 05       		.uleb128 0x5
 12657 0228 00       		.byte	0
 12658 0229 03       		.uleb128 0x3
 12659 022a 08       		.uleb128 0x8
 12660 022b 3A       		.uleb128 0x3a
 12661 022c 0B       		.uleb128 0xb
 12662 022d 3B       		.uleb128 0x3b
 12663 022e 05       		.uleb128 0x5
 12664 022f 49       		.uleb128 0x49
 12665 0230 13       		.uleb128 0x13
 12666 0231 02       		.uleb128 0x2
 12667 0232 17       		.uleb128 0x17
 12668 0233 00       		.byte	0
 12669 0234 00       		.byte	0
 12670 0235 2D       		.uleb128 0x2d
 12671 0236 1D       		.uleb128 0x1d
 12672 0237 01       		.byte	0x1
 12673 0238 31       		.uleb128 0x31
 12674 0239 13       		.uleb128 0x13
 12675 023a 52       		.uleb128 0x52
 12676 023b 01       		.uleb128 0x1
 12677 023c 55       		.uleb128 0x55
 12678 023d 17       		.uleb128 0x17
 12679 023e 58       		.uleb128 0x58
 12680 023f 0B       		.uleb128 0xb
 12681 0240 59       		.uleb128 0x59
 12682 0241 05       		.uleb128 0x5
 12683 0242 01       		.uleb128 0x1
 12684 0243 13       		.uleb128 0x13
 12685 0244 00       		.byte	0
 12686 0245 00       		.byte	0
 12687 0246 2E       		.uleb128 0x2e
 12688 0247 05       		.uleb128 0x5
 12689 0248 00       		.byte	0
 12690 0249 31       		.uleb128 0x31
 12691 024a 13       		.uleb128 0x13
ARM GAS  /tmp/ccB9RVXV.s 			page 226


 12692 024b 02       		.uleb128 0x2
 12693 024c 18       		.uleb128 0x18
 12694 024d 00       		.byte	0
 12695 024e 00       		.byte	0
 12696 024f 2F       		.uleb128 0x2f
 12697 0250 0B       		.uleb128 0xb
 12698 0251 01       		.byte	0x1
 12699 0252 55       		.uleb128 0x55
 12700 0253 17       		.uleb128 0x17
 12701 0254 00       		.byte	0
 12702 0255 00       		.byte	0
 12703 0256 30       		.uleb128 0x30
 12704 0257 34       		.uleb128 0x34
 12705 0258 00       		.byte	0
 12706 0259 03       		.uleb128 0x3
 12707 025a 08       		.uleb128 0x8
 12708 025b 3A       		.uleb128 0x3a
 12709 025c 0B       		.uleb128 0xb
 12710 025d 3B       		.uleb128 0x3b
 12711 025e 05       		.uleb128 0x5
 12712 025f 49       		.uleb128 0x49
 12713 0260 13       		.uleb128 0x13
 12714 0261 02       		.uleb128 0x2
 12715 0262 17       		.uleb128 0x17
 12716 0263 00       		.byte	0
 12717 0264 00       		.byte	0
 12718 0265 31       		.uleb128 0x31
 12719 0266 34       		.uleb128 0x34
 12720 0267 00       		.byte	0
 12721 0268 03       		.uleb128 0x3
 12722 0269 0E       		.uleb128 0xe
 12723 026a 3A       		.uleb128 0x3a
 12724 026b 0B       		.uleb128 0xb
 12725 026c 3B       		.uleb128 0x3b
 12726 026d 05       		.uleb128 0x5
 12727 026e 49       		.uleb128 0x49
 12728 026f 13       		.uleb128 0x13
 12729 0270 02       		.uleb128 0x2
 12730 0271 17       		.uleb128 0x17
 12731 0272 00       		.byte	0
 12732 0273 00       		.byte	0
 12733 0274 32       		.uleb128 0x32
 12734 0275 0B       		.uleb128 0xb
 12735 0276 01       		.byte	0x1
 12736 0277 55       		.uleb128 0x55
 12737 0278 17       		.uleb128 0x17
 12738 0279 01       		.uleb128 0x1
 12739 027a 13       		.uleb128 0x13
 12740 027b 00       		.byte	0
 12741 027c 00       		.byte	0
 12742 027d 33       		.uleb128 0x33
 12743 027e 34       		.uleb128 0x34
 12744 027f 00       		.byte	0
 12745 0280 03       		.uleb128 0x3
 12746 0281 0E       		.uleb128 0xe
 12747 0282 3A       		.uleb128 0x3a
 12748 0283 0B       		.uleb128 0xb
ARM GAS  /tmp/ccB9RVXV.s 			page 227


 12749 0284 3B       		.uleb128 0x3b
 12750 0285 05       		.uleb128 0x5
 12751 0286 49       		.uleb128 0x49
 12752 0287 13       		.uleb128 0x13
 12753 0288 02       		.uleb128 0x2
 12754 0289 18       		.uleb128 0x18
 12755 028a 00       		.byte	0
 12756 028b 00       		.byte	0
 12757 028c 34       		.uleb128 0x34
 12758 028d 898201   		.uleb128 0x4109
 12759 0290 01       		.byte	0x1
 12760 0291 11       		.uleb128 0x11
 12761 0292 01       		.uleb128 0x1
 12762 0293 31       		.uleb128 0x31
 12763 0294 13       		.uleb128 0x13
 12764 0295 01       		.uleb128 0x1
 12765 0296 13       		.uleb128 0x13
 12766 0297 00       		.byte	0
 12767 0298 00       		.byte	0
 12768 0299 35       		.uleb128 0x35
 12769 029a 8A8201   		.uleb128 0x410a
 12770 029d 00       		.byte	0
 12771 029e 02       		.uleb128 0x2
 12772 029f 18       		.uleb128 0x18
 12773 02a0 9142     		.uleb128 0x2111
 12774 02a2 18       		.uleb128 0x18
 12775 02a3 00       		.byte	0
 12776 02a4 00       		.byte	0
 12777 02a5 36       		.uleb128 0x36
 12778 02a6 898201   		.uleb128 0x4109
 12779 02a9 01       		.byte	0x1
 12780 02aa 11       		.uleb128 0x11
 12781 02ab 01       		.uleb128 0x1
 12782 02ac 31       		.uleb128 0x31
 12783 02ad 13       		.uleb128 0x13
 12784 02ae 00       		.byte	0
 12785 02af 00       		.byte	0
 12786 02b0 37       		.uleb128 0x37
 12787 02b1 2E       		.uleb128 0x2e
 12788 02b2 01       		.byte	0x1
 12789 02b3 3F       		.uleb128 0x3f
 12790 02b4 19       		.uleb128 0x19
 12791 02b5 03       		.uleb128 0x3
 12792 02b6 0E       		.uleb128 0xe
 12793 02b7 3A       		.uleb128 0x3a
 12794 02b8 0B       		.uleb128 0xb
 12795 02b9 3B       		.uleb128 0x3b
 12796 02ba 0B       		.uleb128 0xb
 12797 02bb 27       		.uleb128 0x27
 12798 02bc 19       		.uleb128 0x19
 12799 02bd 11       		.uleb128 0x11
 12800 02be 01       		.uleb128 0x1
 12801 02bf 12       		.uleb128 0x12
 12802 02c0 06       		.uleb128 0x6
 12803 02c1 40       		.uleb128 0x40
 12804 02c2 18       		.uleb128 0x18
 12805 02c3 9742     		.uleb128 0x2117
ARM GAS  /tmp/ccB9RVXV.s 			page 228


 12806 02c5 19       		.uleb128 0x19
 12807 02c6 01       		.uleb128 0x1
 12808 02c7 13       		.uleb128 0x13
 12809 02c8 00       		.byte	0
 12810 02c9 00       		.byte	0
 12811 02ca 38       		.uleb128 0x38
 12812 02cb 05       		.uleb128 0x5
 12813 02cc 00       		.byte	0
 12814 02cd 03       		.uleb128 0x3
 12815 02ce 0E       		.uleb128 0xe
 12816 02cf 3A       		.uleb128 0x3a
 12817 02d0 0B       		.uleb128 0xb
 12818 02d1 3B       		.uleb128 0x3b
 12819 02d2 0B       		.uleb128 0xb
 12820 02d3 49       		.uleb128 0x49
 12821 02d4 13       		.uleb128 0x13
 12822 02d5 02       		.uleb128 0x2
 12823 02d6 17       		.uleb128 0x17
 12824 02d7 00       		.byte	0
 12825 02d8 00       		.byte	0
 12826 02d9 39       		.uleb128 0x39
 12827 02da 898201   		.uleb128 0x4109
 12828 02dd 01       		.byte	0x1
 12829 02de 11       		.uleb128 0x11
 12830 02df 01       		.uleb128 0x1
 12831 02e0 9542     		.uleb128 0x2115
 12832 02e2 19       		.uleb128 0x19
 12833 02e3 31       		.uleb128 0x31
 12834 02e4 13       		.uleb128 0x13
 12835 02e5 01       		.uleb128 0x1
 12836 02e6 13       		.uleb128 0x13
 12837 02e7 00       		.byte	0
 12838 02e8 00       		.byte	0
 12839 02e9 3A       		.uleb128 0x3a
 12840 02ea 898201   		.uleb128 0x4109
 12841 02ed 00       		.byte	0
 12842 02ee 11       		.uleb128 0x11
 12843 02ef 01       		.uleb128 0x1
 12844 02f0 31       		.uleb128 0x31
 12845 02f1 13       		.uleb128 0x13
 12846 02f2 00       		.byte	0
 12847 02f3 00       		.byte	0
 12848 02f4 3B       		.uleb128 0x3b
 12849 02f5 2E       		.uleb128 0x2e
 12850 02f6 00       		.byte	0
 12851 02f7 3F       		.uleb128 0x3f
 12852 02f8 19       		.uleb128 0x19
 12853 02f9 03       		.uleb128 0x3
 12854 02fa 0E       		.uleb128 0xe
 12855 02fb 3A       		.uleb128 0x3a
 12856 02fc 0B       		.uleb128 0xb
 12857 02fd 3B       		.uleb128 0x3b
 12858 02fe 0B       		.uleb128 0xb
 12859 02ff 27       		.uleb128 0x27
 12860 0300 19       		.uleb128 0x19
 12861 0301 49       		.uleb128 0x49
 12862 0302 13       		.uleb128 0x13
ARM GAS  /tmp/ccB9RVXV.s 			page 229


 12863 0303 11       		.uleb128 0x11
 12864 0304 01       		.uleb128 0x1
 12865 0305 12       		.uleb128 0x12
 12866 0306 06       		.uleb128 0x6
 12867 0307 40       		.uleb128 0x40
 12868 0308 18       		.uleb128 0x18
 12869 0309 9742     		.uleb128 0x2117
 12870 030b 19       		.uleb128 0x19
 12871 030c 00       		.byte	0
 12872 030d 00       		.byte	0
 12873 030e 3C       		.uleb128 0x3c
 12874 030f 2E       		.uleb128 0x2e
 12875 0310 01       		.byte	0x1
 12876 0311 3F       		.uleb128 0x3f
 12877 0312 19       		.uleb128 0x19
 12878 0313 03       		.uleb128 0x3
 12879 0314 0E       		.uleb128 0xe
 12880 0315 3A       		.uleb128 0x3a
 12881 0316 0B       		.uleb128 0xb
 12882 0317 3B       		.uleb128 0x3b
 12883 0318 0B       		.uleb128 0xb
 12884 0319 27       		.uleb128 0x27
 12885 031a 19       		.uleb128 0x19
 12886 031b 49       		.uleb128 0x49
 12887 031c 13       		.uleb128 0x13
 12888 031d 11       		.uleb128 0x11
 12889 031e 01       		.uleb128 0x1
 12890 031f 12       		.uleb128 0x12
 12891 0320 06       		.uleb128 0x6
 12892 0321 40       		.uleb128 0x40
 12893 0322 18       		.uleb128 0x18
 12894 0323 9742     		.uleb128 0x2117
 12895 0325 19       		.uleb128 0x19
 12896 0326 01       		.uleb128 0x1
 12897 0327 13       		.uleb128 0x13
 12898 0328 00       		.byte	0
 12899 0329 00       		.byte	0
 12900 032a 3D       		.uleb128 0x3d
 12901 032b 34       		.uleb128 0x34
 12902 032c 00       		.byte	0
 12903 032d 03       		.uleb128 0x3
 12904 032e 08       		.uleb128 0x8
 12905 032f 3A       		.uleb128 0x3a
 12906 0330 0B       		.uleb128 0xb
 12907 0331 3B       		.uleb128 0x3b
 12908 0332 0B       		.uleb128 0xb
 12909 0333 49       		.uleb128 0x49
 12910 0334 13       		.uleb128 0x13
 12911 0335 1C       		.uleb128 0x1c
 12912 0336 0B       		.uleb128 0xb
 12913 0337 00       		.byte	0
 12914 0338 00       		.byte	0
 12915 0339 3E       		.uleb128 0x3e
 12916 033a 898201   		.uleb128 0x4109
 12917 033d 00       		.byte	0
 12918 033e 11       		.uleb128 0x11
 12919 033f 01       		.uleb128 0x1
ARM GAS  /tmp/ccB9RVXV.s 			page 230


 12920 0340 9542     		.uleb128 0x2115
 12921 0342 19       		.uleb128 0x19
 12922 0343 31       		.uleb128 0x31
 12923 0344 13       		.uleb128 0x13
 12924 0345 00       		.byte	0
 12925 0346 00       		.byte	0
 12926 0347 3F       		.uleb128 0x3f
 12927 0348 2E       		.uleb128 0x2e
 12928 0349 01       		.byte	0x1
 12929 034a 3F       		.uleb128 0x3f
 12930 034b 19       		.uleb128 0x19
 12931 034c 03       		.uleb128 0x3
 12932 034d 0E       		.uleb128 0xe
 12933 034e 3A       		.uleb128 0x3a
 12934 034f 0B       		.uleb128 0xb
 12935 0350 3B       		.uleb128 0x3b
 12936 0351 05       		.uleb128 0x5
 12937 0352 27       		.uleb128 0x27
 12938 0353 19       		.uleb128 0x19
 12939 0354 11       		.uleb128 0x11
 12940 0355 01       		.uleb128 0x1
 12941 0356 12       		.uleb128 0x12
 12942 0357 06       		.uleb128 0x6
 12943 0358 40       		.uleb128 0x40
 12944 0359 18       		.uleb128 0x18
 12945 035a 9742     		.uleb128 0x2117
 12946 035c 19       		.uleb128 0x19
 12947 035d 01       		.uleb128 0x1
 12948 035e 13       		.uleb128 0x13
 12949 035f 00       		.byte	0
 12950 0360 00       		.byte	0
 12951 0361 40       		.uleb128 0x40
 12952 0362 05       		.uleb128 0x5
 12953 0363 00       		.byte	0
 12954 0364 03       		.uleb128 0x3
 12955 0365 0E       		.uleb128 0xe
 12956 0366 3A       		.uleb128 0x3a
 12957 0367 0B       		.uleb128 0xb
 12958 0368 3B       		.uleb128 0x3b
 12959 0369 05       		.uleb128 0x5
 12960 036a 49       		.uleb128 0x49
 12961 036b 13       		.uleb128 0x13
 12962 036c 02       		.uleb128 0x2
 12963 036d 18       		.uleb128 0x18
 12964 036e 00       		.byte	0
 12965 036f 00       		.byte	0
 12966 0370 41       		.uleb128 0x41
 12967 0371 2E       		.uleb128 0x2e
 12968 0372 00       		.byte	0
 12969 0373 3F       		.uleb128 0x3f
 12970 0374 19       		.uleb128 0x19
 12971 0375 03       		.uleb128 0x3
 12972 0376 0E       		.uleb128 0xe
 12973 0377 3A       		.uleb128 0x3a
 12974 0378 0B       		.uleb128 0xb
 12975 0379 3B       		.uleb128 0x3b
 12976 037a 05       		.uleb128 0x5
ARM GAS  /tmp/ccB9RVXV.s 			page 231


 12977 037b 27       		.uleb128 0x27
 12978 037c 19       		.uleb128 0x19
 12979 037d 11       		.uleb128 0x11
 12980 037e 01       		.uleb128 0x1
 12981 037f 12       		.uleb128 0x12
 12982 0380 06       		.uleb128 0x6
 12983 0381 40       		.uleb128 0x40
 12984 0382 18       		.uleb128 0x18
 12985 0383 9742     		.uleb128 0x2117
 12986 0385 19       		.uleb128 0x19
 12987 0386 00       		.byte	0
 12988 0387 00       		.byte	0
 12989 0388 42       		.uleb128 0x42
 12990 0389 2E       		.uleb128 0x2e
 12991 038a 00       		.byte	0
 12992 038b 3F       		.uleb128 0x3f
 12993 038c 19       		.uleb128 0x19
 12994 038d 03       		.uleb128 0x3
 12995 038e 0E       		.uleb128 0xe
 12996 038f 3A       		.uleb128 0x3a
 12997 0390 0B       		.uleb128 0xb
 12998 0391 3B       		.uleb128 0x3b
 12999 0392 05       		.uleb128 0x5
 13000 0393 27       		.uleb128 0x27
 13001 0394 19       		.uleb128 0x19
 13002 0395 49       		.uleb128 0x49
 13003 0396 13       		.uleb128 0x13
 13004 0397 11       		.uleb128 0x11
 13005 0398 01       		.uleb128 0x1
 13006 0399 12       		.uleb128 0x12
 13007 039a 06       		.uleb128 0x6
 13008 039b 40       		.uleb128 0x40
 13009 039c 18       		.uleb128 0x18
 13010 039d 9742     		.uleb128 0x2117
 13011 039f 19       		.uleb128 0x19
 13012 03a0 00       		.byte	0
 13013 03a1 00       		.byte	0
 13014 03a2 43       		.uleb128 0x43
 13015 03a3 2E       		.uleb128 0x2e
 13016 03a4 01       		.byte	0x1
 13017 03a5 3F       		.uleb128 0x3f
 13018 03a6 19       		.uleb128 0x19
 13019 03a7 03       		.uleb128 0x3
 13020 03a8 0E       		.uleb128 0xe
 13021 03a9 3A       		.uleb128 0x3a
 13022 03aa 0B       		.uleb128 0xb
 13023 03ab 3B       		.uleb128 0x3b
 13024 03ac 05       		.uleb128 0x5
 13025 03ad 27       		.uleb128 0x27
 13026 03ae 19       		.uleb128 0x19
 13027 03af 49       		.uleb128 0x49
 13028 03b0 13       		.uleb128 0x13
 13029 03b1 11       		.uleb128 0x11
 13030 03b2 01       		.uleb128 0x1
 13031 03b3 12       		.uleb128 0x12
 13032 03b4 06       		.uleb128 0x6
 13033 03b5 40       		.uleb128 0x40
ARM GAS  /tmp/ccB9RVXV.s 			page 232


 13034 03b6 18       		.uleb128 0x18
 13035 03b7 9742     		.uleb128 0x2117
 13036 03b9 19       		.uleb128 0x19
 13037 03ba 01       		.uleb128 0x1
 13038 03bb 13       		.uleb128 0x13
 13039 03bc 00       		.byte	0
 13040 03bd 00       		.byte	0
 13041 03be 44       		.uleb128 0x44
 13042 03bf 05       		.uleb128 0x5
 13043 03c0 00       		.byte	0
 13044 03c1 03       		.uleb128 0x3
 13045 03c2 0E       		.uleb128 0xe
 13046 03c3 3A       		.uleb128 0x3a
 13047 03c4 0B       		.uleb128 0xb
 13048 03c5 3B       		.uleb128 0x3b
 13049 03c6 05       		.uleb128 0x5
 13050 03c7 49       		.uleb128 0x49
 13051 03c8 13       		.uleb128 0x13
 13052 03c9 02       		.uleb128 0x2
 13053 03ca 17       		.uleb128 0x17
 13054 03cb 00       		.byte	0
 13055 03cc 00       		.byte	0
 13056 03cd 45       		.uleb128 0x45
 13057 03ce 34       		.uleb128 0x34
 13058 03cf 00       		.byte	0
 13059 03d0 03       		.uleb128 0x3
 13060 03d1 08       		.uleb128 0x8
 13061 03d2 3A       		.uleb128 0x3a
 13062 03d3 0B       		.uleb128 0xb
 13063 03d4 3B       		.uleb128 0x3b
 13064 03d5 05       		.uleb128 0x5
 13065 03d6 49       		.uleb128 0x49
 13066 03d7 13       		.uleb128 0x13
 13067 03d8 1C       		.uleb128 0x1c
 13068 03d9 0B       		.uleb128 0xb
 13069 03da 00       		.byte	0
 13070 03db 00       		.byte	0
 13071 03dc 46       		.uleb128 0x46
 13072 03dd 34       		.uleb128 0x34
 13073 03de 00       		.byte	0
 13074 03df 03       		.uleb128 0x3
 13075 03e0 08       		.uleb128 0x8
 13076 03e1 3A       		.uleb128 0x3a
 13077 03e2 0B       		.uleb128 0xb
 13078 03e3 3B       		.uleb128 0x3b
 13079 03e4 05       		.uleb128 0x5
 13080 03e5 49       		.uleb128 0x49
 13081 03e6 13       		.uleb128 0x13
 13082 03e7 1C       		.uleb128 0x1c
 13083 03e8 0A       		.uleb128 0xa
 13084 03e9 00       		.byte	0
 13085 03ea 00       		.byte	0
 13086 03eb 47       		.uleb128 0x47
 13087 03ec 34       		.uleb128 0x34
 13088 03ed 00       		.byte	0
 13089 03ee 03       		.uleb128 0x3
 13090 03ef 08       		.uleb128 0x8
ARM GAS  /tmp/ccB9RVXV.s 			page 233


 13091 03f0 3A       		.uleb128 0x3a
 13092 03f1 0B       		.uleb128 0xb
 13093 03f2 3B       		.uleb128 0x3b
 13094 03f3 05       		.uleb128 0x5
 13095 03f4 49       		.uleb128 0x49
 13096 03f5 13       		.uleb128 0x13
 13097 03f6 02       		.uleb128 0x2
 13098 03f7 18       		.uleb128 0x18
 13099 03f8 00       		.byte	0
 13100 03f9 00       		.byte	0
 13101 03fa 48       		.uleb128 0x48
 13102 03fb 2E       		.uleb128 0x2e
 13103 03fc 01       		.byte	0x1
 13104 03fd 31       		.uleb128 0x31
 13105 03fe 13       		.uleb128 0x13
 13106 03ff 11       		.uleb128 0x11
 13107 0400 01       		.uleb128 0x1
 13108 0401 12       		.uleb128 0x12
 13109 0402 06       		.uleb128 0x6
 13110 0403 40       		.uleb128 0x40
 13111 0404 18       		.uleb128 0x18
 13112 0405 9742     		.uleb128 0x2117
 13113 0407 19       		.uleb128 0x19
 13114 0408 01       		.uleb128 0x1
 13115 0409 13       		.uleb128 0x13
 13116 040a 00       		.byte	0
 13117 040b 00       		.byte	0
 13118 040c 49       		.uleb128 0x49
 13119 040d 05       		.uleb128 0x5
 13120 040e 00       		.byte	0
 13121 040f 31       		.uleb128 0x31
 13122 0410 13       		.uleb128 0x13
 13123 0411 02       		.uleb128 0x2
 13124 0412 17       		.uleb128 0x17
 13125 0413 00       		.byte	0
 13126 0414 00       		.byte	0
 13127 0415 4A       		.uleb128 0x4a
 13128 0416 0B       		.uleb128 0xb
 13129 0417 01       		.byte	0x1
 13130 0418 11       		.uleb128 0x11
 13131 0419 01       		.uleb128 0x1
 13132 041a 12       		.uleb128 0x12
 13133 041b 06       		.uleb128 0x6
 13134 041c 01       		.uleb128 0x1
 13135 041d 13       		.uleb128 0x13
 13136 041e 00       		.byte	0
 13137 041f 00       		.byte	0
 13138 0420 4B       		.uleb128 0x4b
 13139 0421 34       		.uleb128 0x34
 13140 0422 00       		.byte	0
 13141 0423 31       		.uleb128 0x31
 13142 0424 13       		.uleb128 0x13
 13143 0425 02       		.uleb128 0x2
 13144 0426 18       		.uleb128 0x18
 13145 0427 00       		.byte	0
 13146 0428 00       		.byte	0
 13147 0429 4C       		.uleb128 0x4c
ARM GAS  /tmp/ccB9RVXV.s 			page 234


 13148 042a 34       		.uleb128 0x34
 13149 042b 00       		.byte	0
 13150 042c 31       		.uleb128 0x31
 13151 042d 13       		.uleb128 0x13
 13152 042e 02       		.uleb128 0x2
 13153 042f 17       		.uleb128 0x17
 13154 0430 00       		.byte	0
 13155 0431 00       		.byte	0
 13156 0432 4D       		.uleb128 0x4d
 13157 0433 2E       		.uleb128 0x2e
 13158 0434 00       		.byte	0
 13159 0435 31       		.uleb128 0x31
 13160 0436 13       		.uleb128 0x13
 13161 0437 11       		.uleb128 0x11
 13162 0438 01       		.uleb128 0x1
 13163 0439 12       		.uleb128 0x12
 13164 043a 06       		.uleb128 0x6
 13165 043b 40       		.uleb128 0x40
 13166 043c 18       		.uleb128 0x18
 13167 043d 9742     		.uleb128 0x2117
 13168 043f 19       		.uleb128 0x19
 13169 0440 00       		.byte	0
 13170 0441 00       		.byte	0
 13171 0442 4E       		.uleb128 0x4e
 13172 0443 898201   		.uleb128 0x4109
 13173 0446 01       		.byte	0x1
 13174 0447 11       		.uleb128 0x11
 13175 0448 01       		.uleb128 0x1
 13176 0449 9542     		.uleb128 0x2115
 13177 044b 19       		.uleb128 0x19
 13178 044c 31       		.uleb128 0x31
 13179 044d 13       		.uleb128 0x13
 13180 044e 00       		.byte	0
 13181 044f 00       		.byte	0
 13182 0450 4F       		.uleb128 0x4f
 13183 0451 2E       		.uleb128 0x2e
 13184 0452 01       		.byte	0x1
 13185 0453 3F       		.uleb128 0x3f
 13186 0454 19       		.uleb128 0x19
 13187 0455 03       		.uleb128 0x3
 13188 0456 0E       		.uleb128 0xe
 13189 0457 3A       		.uleb128 0x3a
 13190 0458 0B       		.uleb128 0xb
 13191 0459 3B       		.uleb128 0x3b
 13192 045a 05       		.uleb128 0x5
 13193 045b 27       		.uleb128 0x27
 13194 045c 19       		.uleb128 0x19
 13195 045d 11       		.uleb128 0x11
 13196 045e 01       		.uleb128 0x1
 13197 045f 12       		.uleb128 0x12
 13198 0460 06       		.uleb128 0x6
 13199 0461 40       		.uleb128 0x40
 13200 0462 18       		.uleb128 0x18
 13201 0463 9642     		.uleb128 0x2116
 13202 0465 19       		.uleb128 0x19
 13203 0466 01       		.uleb128 0x1
 13204 0467 13       		.uleb128 0x13
ARM GAS  /tmp/ccB9RVXV.s 			page 235


 13205 0468 00       		.byte	0
 13206 0469 00       		.byte	0
 13207 046a 50       		.uleb128 0x50
 13208 046b 1D       		.uleb128 0x1d
 13209 046c 01       		.byte	0x1
 13210 046d 31       		.uleb128 0x31
 13211 046e 13       		.uleb128 0x13
 13212 046f 11       		.uleb128 0x11
 13213 0470 01       		.uleb128 0x1
 13214 0471 12       		.uleb128 0x12
 13215 0472 06       		.uleb128 0x6
 13216 0473 58       		.uleb128 0x58
 13217 0474 0B       		.uleb128 0xb
 13218 0475 59       		.uleb128 0x59
 13219 0476 05       		.uleb128 0x5
 13220 0477 01       		.uleb128 0x1
 13221 0478 13       		.uleb128 0x13
 13222 0479 00       		.byte	0
 13223 047a 00       		.byte	0
 13224 047b 51       		.uleb128 0x51
 13225 047c 05       		.uleb128 0x5
 13226 047d 00       		.byte	0
 13227 047e 31       		.uleb128 0x31
 13228 047f 13       		.uleb128 0x13
 13229 0480 00       		.byte	0
 13230 0481 00       		.byte	0
 13231 0482 52       		.uleb128 0x52
 13232 0483 1D       		.uleb128 0x1d
 13233 0484 00       		.byte	0
 13234 0485 31       		.uleb128 0x31
 13235 0486 13       		.uleb128 0x13
 13236 0487 52       		.uleb128 0x52
 13237 0488 01       		.uleb128 0x1
 13238 0489 55       		.uleb128 0x55
 13239 048a 17       		.uleb128 0x17
 13240 048b 58       		.uleb128 0x58
 13241 048c 0B       		.uleb128 0xb
 13242 048d 59       		.uleb128 0x59
 13243 048e 05       		.uleb128 0x5
 13244 048f 00       		.byte	0
 13245 0490 00       		.byte	0
 13246 0491 53       		.uleb128 0x53
 13247 0492 1D       		.uleb128 0x1d
 13248 0493 01       		.byte	0x1
 13249 0494 31       		.uleb128 0x31
 13250 0495 13       		.uleb128 0x13
 13251 0496 11       		.uleb128 0x11
 13252 0497 01       		.uleb128 0x1
 13253 0498 12       		.uleb128 0x12
 13254 0499 06       		.uleb128 0x6
 13255 049a 58       		.uleb128 0x58
 13256 049b 0B       		.uleb128 0xb
 13257 049c 59       		.uleb128 0x59
 13258 049d 05       		.uleb128 0x5
 13259 049e 00       		.byte	0
 13260 049f 00       		.byte	0
 13261 04a0 54       		.uleb128 0x54
ARM GAS  /tmp/ccB9RVXV.s 			page 236


 13262 04a1 1D       		.uleb128 0x1d
 13263 04a2 01       		.byte	0x1
 13264 04a3 31       		.uleb128 0x31
 13265 04a4 13       		.uleb128 0x13
 13266 04a5 52       		.uleb128 0x52
 13267 04a6 01       		.uleb128 0x1
 13268 04a7 55       		.uleb128 0x55
 13269 04a8 17       		.uleb128 0x17
 13270 04a9 58       		.uleb128 0x58
 13271 04aa 0B       		.uleb128 0xb
 13272 04ab 59       		.uleb128 0x59
 13273 04ac 05       		.uleb128 0x5
 13274 04ad 00       		.byte	0
 13275 04ae 00       		.byte	0
 13276 04af 55       		.uleb128 0x55
 13277 04b0 34       		.uleb128 0x34
 13278 04b1 00       		.byte	0
 13279 04b2 03       		.uleb128 0x3
 13280 04b3 0E       		.uleb128 0xe
 13281 04b4 3A       		.uleb128 0x3a
 13282 04b5 0B       		.uleb128 0xb
 13283 04b6 3B       		.uleb128 0x3b
 13284 04b7 0B       		.uleb128 0xb
 13285 04b8 49       		.uleb128 0x49
 13286 04b9 13       		.uleb128 0x13
 13287 04ba 02       		.uleb128 0x2
 13288 04bb 18       		.uleb128 0x18
 13289 04bc 00       		.byte	0
 13290 04bd 00       		.byte	0
 13291 04be 56       		.uleb128 0x56
 13292 04bf 21       		.uleb128 0x21
 13293 04c0 00       		.byte	0
 13294 04c1 49       		.uleb128 0x49
 13295 04c2 13       		.uleb128 0x13
 13296 04c3 2F       		.uleb128 0x2f
 13297 04c4 05       		.uleb128 0x5
 13298 04c5 00       		.byte	0
 13299 04c6 00       		.byte	0
 13300 04c7 57       		.uleb128 0x57
 13301 04c8 34       		.uleb128 0x34
 13302 04c9 00       		.byte	0
 13303 04ca 03       		.uleb128 0x3
 13304 04cb 0E       		.uleb128 0xe
 13305 04cc 3A       		.uleb128 0x3a
 13306 04cd 0B       		.uleb128 0xb
 13307 04ce 3B       		.uleb128 0x3b
 13308 04cf 05       		.uleb128 0x5
 13309 04d0 49       		.uleb128 0x49
 13310 04d1 13       		.uleb128 0x13
 13311 04d2 3F       		.uleb128 0x3f
 13312 04d3 19       		.uleb128 0x19
 13313 04d4 3C       		.uleb128 0x3c
 13314 04d5 19       		.uleb128 0x19
 13315 04d6 00       		.byte	0
 13316 04d7 00       		.byte	0
 13317 04d8 58       		.uleb128 0x58
 13318 04d9 34       		.uleb128 0x34
ARM GAS  /tmp/ccB9RVXV.s 			page 237


 13319 04da 00       		.byte	0
 13320 04db 03       		.uleb128 0x3
 13321 04dc 08       		.uleb128 0x8
 13322 04dd 3A       		.uleb128 0x3a
 13323 04de 0B       		.uleb128 0xb
 13324 04df 3B       		.uleb128 0x3b
 13325 04e0 05       		.uleb128 0x5
 13326 04e1 49       		.uleb128 0x49
 13327 04e2 13       		.uleb128 0x13
 13328 04e3 3F       		.uleb128 0x3f
 13329 04e4 19       		.uleb128 0x19
 13330 04e5 3C       		.uleb128 0x3c
 13331 04e6 19       		.uleb128 0x19
 13332 04e7 00       		.byte	0
 13333 04e8 00       		.byte	0
 13334 04e9 59       		.uleb128 0x59
 13335 04ea 34       		.uleb128 0x34
 13336 04eb 00       		.byte	0
 13337 04ec 03       		.uleb128 0x3
 13338 04ed 0E       		.uleb128 0xe
 13339 04ee 3A       		.uleb128 0x3a
 13340 04ef 0B       		.uleb128 0xb
 13341 04f0 3B       		.uleb128 0x3b
 13342 04f1 0B       		.uleb128 0xb
 13343 04f2 49       		.uleb128 0x49
 13344 04f3 13       		.uleb128 0x13
 13345 04f4 3F       		.uleb128 0x3f
 13346 04f5 19       		.uleb128 0x19
 13347 04f6 02       		.uleb128 0x2
 13348 04f7 18       		.uleb128 0x18
 13349 04f8 00       		.byte	0
 13350 04f9 00       		.byte	0
 13351 04fa 5A       		.uleb128 0x5a
 13352 04fb 21       		.uleb128 0x21
 13353 04fc 00       		.byte	0
 13354 04fd 00       		.byte	0
 13355 04fe 00       		.byte	0
 13356 04ff 5B       		.uleb128 0x5b
 13357 0500 34       		.uleb128 0x34
 13358 0501 00       		.byte	0
 13359 0502 03       		.uleb128 0x3
 13360 0503 0E       		.uleb128 0xe
 13361 0504 3A       		.uleb128 0x3a
 13362 0505 0B       		.uleb128 0xb
 13363 0506 3B       		.uleb128 0x3b
 13364 0507 0B       		.uleb128 0xb
 13365 0508 49       		.uleb128 0x49
 13366 0509 13       		.uleb128 0x13
 13367 050a 3F       		.uleb128 0x3f
 13368 050b 19       		.uleb128 0x19
 13369 050c 3C       		.uleb128 0x3c
 13370 050d 19       		.uleb128 0x19
 13371 050e 00       		.byte	0
 13372 050f 00       		.byte	0
 13373 0510 5C       		.uleb128 0x5c
 13374 0511 2E       		.uleb128 0x2e
 13375 0512 01       		.byte	0x1
ARM GAS  /tmp/ccB9RVXV.s 			page 238


 13376 0513 3F       		.uleb128 0x3f
 13377 0514 19       		.uleb128 0x19
 13378 0515 03       		.uleb128 0x3
 13379 0516 0E       		.uleb128 0xe
 13380 0517 3A       		.uleb128 0x3a
 13381 0518 0B       		.uleb128 0xb
 13382 0519 3B       		.uleb128 0x3b
 13383 051a 0B       		.uleb128 0xb
 13384 051b 27       		.uleb128 0x27
 13385 051c 19       		.uleb128 0x19
 13386 051d 3C       		.uleb128 0x3c
 13387 051e 19       		.uleb128 0x19
 13388 051f 01       		.uleb128 0x1
 13389 0520 13       		.uleb128 0x13
 13390 0521 00       		.byte	0
 13391 0522 00       		.byte	0
 13392 0523 5D       		.uleb128 0x5d
 13393 0524 2E       		.uleb128 0x2e
 13394 0525 01       		.byte	0x1
 13395 0526 3F       		.uleb128 0x3f
 13396 0527 19       		.uleb128 0x19
 13397 0528 03       		.uleb128 0x3
 13398 0529 0E       		.uleb128 0xe
 13399 052a 3A       		.uleb128 0x3a
 13400 052b 0B       		.uleb128 0xb
 13401 052c 3B       		.uleb128 0x3b
 13402 052d 0B       		.uleb128 0xb
 13403 052e 27       		.uleb128 0x27
 13404 052f 19       		.uleb128 0x19
 13405 0530 49       		.uleb128 0x49
 13406 0531 13       		.uleb128 0x13
 13407 0532 3C       		.uleb128 0x3c
 13408 0533 19       		.uleb128 0x19
 13409 0534 01       		.uleb128 0x1
 13410 0535 13       		.uleb128 0x13
 13411 0536 00       		.byte	0
 13412 0537 00       		.byte	0
 13413 0538 5E       		.uleb128 0x5e
 13414 0539 2E       		.uleb128 0x2e
 13415 053a 01       		.byte	0x1
 13416 053b 3F       		.uleb128 0x3f
 13417 053c 19       		.uleb128 0x19
 13418 053d 03       		.uleb128 0x3
 13419 053e 0E       		.uleb128 0xe
 13420 053f 27       		.uleb128 0x27
 13421 0540 19       		.uleb128 0x19
 13422 0541 49       		.uleb128 0x49
 13423 0542 13       		.uleb128 0x13
 13424 0543 34       		.uleb128 0x34
 13425 0544 19       		.uleb128 0x19
 13426 0545 3C       		.uleb128 0x3c
 13427 0546 19       		.uleb128 0x19
 13428 0547 01       		.uleb128 0x1
 13429 0548 13       		.uleb128 0x13
 13430 0549 00       		.byte	0
 13431 054a 00       		.byte	0
 13432 054b 5F       		.uleb128 0x5f
ARM GAS  /tmp/ccB9RVXV.s 			page 239


 13433 054c 26       		.uleb128 0x26
 13434 054d 00       		.byte	0
 13435 054e 00       		.byte	0
 13436 054f 00       		.byte	0
 13437 0550 60       		.uleb128 0x60
 13438 0551 2E       		.uleb128 0x2e
 13439 0552 00       		.byte	0
 13440 0553 3F       		.uleb128 0x3f
 13441 0554 19       		.uleb128 0x19
 13442 0555 03       		.uleb128 0x3
 13443 0556 0E       		.uleb128 0xe
 13444 0557 3A       		.uleb128 0x3a
 13445 0558 0B       		.uleb128 0xb
 13446 0559 3B       		.uleb128 0x3b
 13447 055a 0B       		.uleb128 0xb
 13448 055b 27       		.uleb128 0x27
 13449 055c 19       		.uleb128 0x19
 13450 055d 3C       		.uleb128 0x3c
 13451 055e 19       		.uleb128 0x19
 13452 055f 00       		.byte	0
 13453 0560 00       		.byte	0
 13454 0561 61       		.uleb128 0x61
 13455 0562 2E       		.uleb128 0x2e
 13456 0563 00       		.byte	0
 13457 0564 3F       		.uleb128 0x3f
 13458 0565 19       		.uleb128 0x19
 13459 0566 03       		.uleb128 0x3
 13460 0567 0E       		.uleb128 0xe
 13461 0568 3A       		.uleb128 0x3a
 13462 0569 0B       		.uleb128 0xb
 13463 056a 3B       		.uleb128 0x3b
 13464 056b 0B       		.uleb128 0xb
 13465 056c 27       		.uleb128 0x27
 13466 056d 19       		.uleb128 0x19
 13467 056e 49       		.uleb128 0x49
 13468 056f 13       		.uleb128 0x13
 13469 0570 3C       		.uleb128 0x3c
 13470 0571 19       		.uleb128 0x19
 13471 0572 00       		.byte	0
 13472 0573 00       		.byte	0
 13473 0574 62       		.uleb128 0x62
 13474 0575 2E       		.uleb128 0x2e
 13475 0576 01       		.byte	0x1
 13476 0577 3F       		.uleb128 0x3f
 13477 0578 19       		.uleb128 0x19
 13478 0579 03       		.uleb128 0x3
 13479 057a 0E       		.uleb128 0xe
 13480 057b 3A       		.uleb128 0x3a
 13481 057c 0B       		.uleb128 0xb
 13482 057d 3B       		.uleb128 0x3b
 13483 057e 05       		.uleb128 0x5
 13484 057f 27       		.uleb128 0x27
 13485 0580 19       		.uleb128 0x19
 13486 0581 49       		.uleb128 0x49
 13487 0582 13       		.uleb128 0x13
 13488 0583 3C       		.uleb128 0x3c
 13489 0584 19       		.uleb128 0x19
ARM GAS  /tmp/ccB9RVXV.s 			page 240


 13490 0585 01       		.uleb128 0x1
 13491 0586 13       		.uleb128 0x13
 13492 0587 00       		.byte	0
 13493 0588 00       		.byte	0
 13494 0589 00       		.byte	0
 13495              		.section	.debug_loc,"",%progbits
 13496              	.Ldebug_loc0:
 13497              	.LLST0:
 13498 0000 00000000 		.4byte	.LVL0
 13499 0004 30000000 		.4byte	.LVL1
 13500 0008 0100     		.2byte	0x1
 13501 000a 50       		.byte	0x50
 13502 000b 30000000 		.4byte	.LVL1
 13503 000f 2C020000 		.4byte	.LFE311
 13504 0013 0400     		.2byte	0x4
 13505 0015 F3       		.byte	0xf3
 13506 0016 01       		.uleb128 0x1
 13507 0017 50       		.byte	0x50
 13508 0018 9F       		.byte	0x9f
 13509 0019 00000000 		.4byte	0
 13510 001d 00000000 		.4byte	0
 13511              	.LLST1:
 13512 0021 36000000 		.4byte	.LVL2
 13513 0025 4A000000 		.4byte	.LVL3
 13514 0029 0200     		.2byte	0x2
 13515 002b 30       		.byte	0x30
 13516 002c 9F       		.byte	0x9f
 13517 002d 4A000000 		.4byte	.LVL3
 13518 0031 58000000 		.4byte	.LVL4
 13519 0035 0400     		.2byte	0x4
 13520 0037 0A       		.byte	0xa
 13521 0038 D007     		.2byte	0x7d0
 13522 003a 9F       		.byte	0x9f
 13523 003b CC010000 		.4byte	.LVL22
 13524 003f D2010000 		.4byte	.LVL23
 13525 0043 0200     		.2byte	0x2
 13526 0045 30       		.byte	0x30
 13527 0046 9F       		.byte	0x9f
 13528 0047 D2010000 		.4byte	.LVL23
 13529 004b 2C020000 		.4byte	.LFE311
 13530 004f 0100     		.2byte	0x1
 13531 0051 58       		.byte	0x58
 13532 0052 00000000 		.4byte	0
 13533 0056 00000000 		.4byte	0
 13534              	.LLST2:
 13535 005a 36000000 		.4byte	.LVL2
 13536 005e 58000000 		.4byte	.LVL4
 13537 0062 0200     		.2byte	0x2
 13538 0064 30       		.byte	0x30
 13539 0065 9F       		.byte	0x9f
 13540 0066 CC010000 		.4byte	.LVL22
 13541 006a 2C020000 		.4byte	.LFE311
 13542 006e 0200     		.2byte	0x2
 13543 0070 30       		.byte	0x30
 13544 0071 9F       		.byte	0x9f
 13545 0072 00000000 		.4byte	0
 13546 0076 00000000 		.4byte	0
ARM GAS  /tmp/ccB9RVXV.s 			page 241


 13547              	.LLST3:
 13548 007a 58000000 		.4byte	.LVL4
 13549 007e 60000000 		.4byte	.LVL5
 13550 0082 0200     		.2byte	0x2
 13551 0084 30       		.byte	0x30
 13552 0085 9F       		.byte	0x9f
 13553 0086 60000000 		.4byte	.LVL5
 13554 008a DC000000 		.4byte	.LVL12
 13555 008e 0100     		.2byte	0x1
 13556 0090 57       		.byte	0x57
 13557 0091 DC000000 		.4byte	.LVL12
 13558 0095 C4010000 		.4byte	.LVL21
 13559 0099 0300     		.2byte	0x3
 13560 009b 77       		.byte	0x77
 13561 009c 7F       		.sleb128 -1
 13562 009d 9F       		.byte	0x9f
 13563 009e C4010000 		.4byte	.LVL21
 13564 00a2 CC010000 		.4byte	.LVL22
 13565 00a6 0100     		.2byte	0x1
 13566 00a8 57       		.byte	0x57
 13567 00a9 D2010000 		.4byte	.LVL23
 13568 00ad 2C020000 		.4byte	.LFE311
 13569 00b1 0200     		.2byte	0x2
 13570 00b3 30       		.byte	0x30
 13571 00b4 9F       		.byte	0x9f
 13572 00b5 00000000 		.4byte	0
 13573 00b9 00000000 		.4byte	0
 13574              	.LLST4:
 13575 00bd 66000000 		.4byte	.LVL6
 13576 00c1 76000000 		.4byte	.LVL8
 13577 00c5 0100     		.2byte	0x1
 13578 00c7 54       		.byte	0x54
 13579 00c8 76000000 		.4byte	.LVL8
 13580 00cc 7A000000 		.4byte	.LVL9
 13581 00d0 0400     		.2byte	0x4
 13582 00d2 74       		.byte	0x74
 13583 00d3 D00F     		.sleb128 2000
 13584 00d5 9F       		.byte	0x9f
 13585 00d6 7A000000 		.4byte	.LVL9
 13586 00da A4010000 		.4byte	.LVL19
 13587 00de 0100     		.2byte	0x1
 13588 00e0 54       		.byte	0x54
 13589 00e1 A4010000 		.4byte	.LVL19
 13590 00e5 B6010000 		.4byte	.LVL20
 13591 00e9 0900     		.2byte	0x9
 13592 00eb 74       		.byte	0x74
 13593 00ec 00       		.sleb128 0
 13594 00ed 03       		.byte	0x3
 13595 00ee C8760000 		.4byte	.LANCHOR11
 13596 00f2 1C       		.byte	0x1c
 13597 00f3 9F       		.byte	0x9f
 13598 00f4 00000000 		.4byte	0
 13599 00f8 00000000 		.4byte	0
 13600              	.LLST5:
 13601 00fc 00000000 		.4byte	.LVL24
 13602 0100 24000000 		.4byte	.LVL25
 13603 0104 0100     		.2byte	0x1
ARM GAS  /tmp/ccB9RVXV.s 			page 242


 13604 0106 50       		.byte	0x50
 13605 0107 24000000 		.4byte	.LVL25
 13606 010b 27000000 		.4byte	.LVL26-1
 13607 010f 0100     		.2byte	0x1
 13608 0111 51       		.byte	0x51
 13609 0112 27000000 		.4byte	.LVL26-1
 13610 0116 B8010000 		.4byte	.LFE256
 13611 011a 0400     		.2byte	0x4
 13612 011c F3       		.byte	0xf3
 13613 011d 01       		.uleb128 0x1
 13614 011e 50       		.byte	0x50
 13615 011f 9F       		.byte	0x9f
 13616 0120 00000000 		.4byte	0
 13617 0124 00000000 		.4byte	0
 13618              	.LLST6:
 13619 0128 00000000 		.4byte	.LVL37
 13620 012c 0A000000 		.4byte	.LVL38
 13621 0130 0100     		.2byte	0x1
 13622 0132 50       		.byte	0x50
 13623 0133 0A000000 		.4byte	.LVL38
 13624 0137 18000000 		.4byte	.LFE265
 13625 013b 0400     		.2byte	0x4
 13626 013d F3       		.byte	0xf3
 13627 013e 01       		.uleb128 0x1
 13628 013f 50       		.byte	0x50
 13629 0140 9F       		.byte	0x9f
 13630 0141 00000000 		.4byte	0
 13631 0145 00000000 		.4byte	0
 13632              	.LLST7:
 13633 0149 00000000 		.4byte	.LVL42
 13634 014d 14000000 		.4byte	.LVL43
 13635 0151 0600     		.2byte	0x6
 13636 0153 9E       		.byte	0x9e
 13637 0154 04       		.uleb128 0x4
 13638 0155 00000000 		.4byte	0
 13639 0159 14000000 		.4byte	.LVL43
 13640 015d 2C000000 		.4byte	.LVL44
 13641 0161 0200     		.2byte	0x2
 13642 0163 90       		.byte	0x90
 13643 0164 40       		.uleb128 0x40
 13644 0165 2E000000 		.4byte	.LVL45
 13645 0169 32000000 		.4byte	.LVL46
 13646 016d 0600     		.2byte	0x6
 13647 016f 9E       		.byte	0x9e
 13648 0170 04       		.uleb128 0x4
 13649 0171 00000000 		.4byte	0
 13650 0175 32000000 		.4byte	.LVL46
 13651 0179 34000000 		.4byte	.LVL47
 13652 017d 0200     		.2byte	0x2
 13653 017f 90       		.byte	0x90
 13654 0180 40       		.uleb128 0x40
 13655 0181 34000000 		.4byte	.LVL47
 13656 0185 38000000 		.4byte	.LVL48
 13657 0189 0600     		.2byte	0x6
 13658 018b 9E       		.byte	0x9e
 13659 018c 04       		.uleb128 0x4
 13660 018d 00000000 		.4byte	0
ARM GAS  /tmp/ccB9RVXV.s 			page 243


 13661 0191 38000000 		.4byte	.LVL48
 13662 0195 44000000 		.4byte	.LFE278
 13663 0199 0200     		.2byte	0x2
 13664 019b 90       		.byte	0x90
 13665 019c 40       		.uleb128 0x40
 13666 019d 00000000 		.4byte	0
 13667 01a1 00000000 		.4byte	0
 13668              	.LLST8:
 13669 01a5 00000000 		.4byte	.LVL49
 13670 01a9 14000000 		.4byte	.LVL50
 13671 01ad 0600     		.2byte	0x6
 13672 01af 9E       		.byte	0x9e
 13673 01b0 04       		.uleb128 0x4
 13674 01b1 00000000 		.4byte	0
 13675 01b5 14000000 		.4byte	.LVL50
 13676 01b9 2C000000 		.4byte	.LVL51
 13677 01bd 0200     		.2byte	0x2
 13678 01bf 90       		.byte	0x90
 13679 01c0 40       		.uleb128 0x40
 13680 01c1 2E000000 		.4byte	.LVL52
 13681 01c5 32000000 		.4byte	.LVL53
 13682 01c9 0600     		.2byte	0x6
 13683 01cb 9E       		.byte	0x9e
 13684 01cc 04       		.uleb128 0x4
 13685 01cd 00000000 		.4byte	0
 13686 01d1 32000000 		.4byte	.LVL53
 13687 01d5 34000000 		.4byte	.LVL54
 13688 01d9 0200     		.2byte	0x2
 13689 01db 90       		.byte	0x90
 13690 01dc 40       		.uleb128 0x40
 13691 01dd 34000000 		.4byte	.LVL54
 13692 01e1 38000000 		.4byte	.LVL55
 13693 01e5 0600     		.2byte	0x6
 13694 01e7 9E       		.byte	0x9e
 13695 01e8 04       		.uleb128 0x4
 13696 01e9 00000000 		.4byte	0
 13697 01ed 38000000 		.4byte	.LVL55
 13698 01f1 44000000 		.4byte	.LFE279
 13699 01f5 0200     		.2byte	0x2
 13700 01f7 90       		.byte	0x90
 13701 01f8 40       		.uleb128 0x40
 13702 01f9 00000000 		.4byte	0
 13703 01fd 00000000 		.4byte	0
 13704              	.LLST9:
 13705 0201 00000000 		.4byte	.LVL59
 13706 0205 14000000 		.4byte	.LVL60
 13707 0209 0600     		.2byte	0x6
 13708 020b 9E       		.byte	0x9e
 13709 020c 04       		.uleb128 0x4
 13710 020d 00000000 		.4byte	0
 13711 0211 14000000 		.4byte	.LVL60
 13712 0215 2C000000 		.4byte	.LVL61
 13713 0219 0200     		.2byte	0x2
 13714 021b 90       		.byte	0x90
 13715 021c 40       		.uleb128 0x40
 13716 021d 2E000000 		.4byte	.LVL62
 13717 0221 32000000 		.4byte	.LVL63
ARM GAS  /tmp/ccB9RVXV.s 			page 244


 13718 0225 0600     		.2byte	0x6
 13719 0227 9E       		.byte	0x9e
 13720 0228 04       		.uleb128 0x4
 13721 0229 00000000 		.4byte	0
 13722 022d 32000000 		.4byte	.LVL63
 13723 0231 34000000 		.4byte	.LVL64
 13724 0235 0200     		.2byte	0x2
 13725 0237 90       		.byte	0x90
 13726 0238 40       		.uleb128 0x40
 13727 0239 34000000 		.4byte	.LVL64
 13728 023d 38000000 		.4byte	.LVL65
 13729 0241 0600     		.2byte	0x6
 13730 0243 9E       		.byte	0x9e
 13731 0244 04       		.uleb128 0x4
 13732 0245 00000000 		.4byte	0
 13733 0249 38000000 		.4byte	.LVL65
 13734 024d 44000000 		.4byte	.LFE281
 13735 0251 0200     		.2byte	0x2
 13736 0253 90       		.byte	0x90
 13737 0254 40       		.uleb128 0x40
 13738 0255 00000000 		.4byte	0
 13739 0259 00000000 		.4byte	0
 13740              	.LLST10:
 13741 025d 00000000 		.4byte	.LVL80
 13742 0261 14000000 		.4byte	.LVL81
 13743 0265 0600     		.2byte	0x6
 13744 0267 9E       		.byte	0x9e
 13745 0268 04       		.uleb128 0x4
 13746 0269 00000000 		.4byte	0
 13747 026d 14000000 		.4byte	.LVL81
 13748 0271 2C000000 		.4byte	.LVL82
 13749 0275 0200     		.2byte	0x2
 13750 0277 90       		.byte	0x90
 13751 0278 40       		.uleb128 0x40
 13752 0279 2E000000 		.4byte	.LVL83
 13753 027d 32000000 		.4byte	.LVL84
 13754 0281 0600     		.2byte	0x6
 13755 0283 9E       		.byte	0x9e
 13756 0284 04       		.uleb128 0x4
 13757 0285 00000000 		.4byte	0
 13758 0289 32000000 		.4byte	.LVL84
 13759 028d 34000000 		.4byte	.LVL85
 13760 0291 0200     		.2byte	0x2
 13761 0293 90       		.byte	0x90
 13762 0294 40       		.uleb128 0x40
 13763 0295 34000000 		.4byte	.LVL85
 13764 0299 38000000 		.4byte	.LVL86
 13765 029d 0600     		.2byte	0x6
 13766 029f 9E       		.byte	0x9e
 13767 02a0 04       		.uleb128 0x4
 13768 02a1 00000000 		.4byte	0
 13769 02a5 38000000 		.4byte	.LVL86
 13770 02a9 44000000 		.4byte	.LFE288
 13771 02ad 0200     		.2byte	0x2
 13772 02af 90       		.byte	0x90
 13773 02b0 40       		.uleb128 0x40
 13774 02b1 00000000 		.4byte	0
ARM GAS  /tmp/ccB9RVXV.s 			page 245


 13775 02b5 00000000 		.4byte	0
 13776              	.LLST11:
 13777 02b9 00000000 		.4byte	.LVL87
 13778 02bd 14000000 		.4byte	.LVL88
 13779 02c1 0600     		.2byte	0x6
 13780 02c3 9E       		.byte	0x9e
 13781 02c4 04       		.uleb128 0x4
 13782 02c5 00000000 		.4byte	0
 13783 02c9 14000000 		.4byte	.LVL88
 13784 02cd 2C000000 		.4byte	.LVL89
 13785 02d1 0200     		.2byte	0x2
 13786 02d3 90       		.byte	0x90
 13787 02d4 40       		.uleb128 0x40
 13788 02d5 2E000000 		.4byte	.LVL90
 13789 02d9 32000000 		.4byte	.LVL91
 13790 02dd 0600     		.2byte	0x6
 13791 02df 9E       		.byte	0x9e
 13792 02e0 04       		.uleb128 0x4
 13793 02e1 00000000 		.4byte	0
 13794 02e5 32000000 		.4byte	.LVL91
 13795 02e9 34000000 		.4byte	.LVL92
 13796 02ed 0200     		.2byte	0x2
 13797 02ef 90       		.byte	0x90
 13798 02f0 40       		.uleb128 0x40
 13799 02f1 34000000 		.4byte	.LVL92
 13800 02f5 38000000 		.4byte	.LVL93
 13801 02f9 0600     		.2byte	0x6
 13802 02fb 9E       		.byte	0x9e
 13803 02fc 04       		.uleb128 0x4
 13804 02fd 00000000 		.4byte	0
 13805 0301 38000000 		.4byte	.LVL93
 13806 0305 44000000 		.4byte	.LFE289
 13807 0309 0200     		.2byte	0x2
 13808 030b 90       		.byte	0x90
 13809 030c 40       		.uleb128 0x40
 13810 030d 00000000 		.4byte	0
 13811 0311 00000000 		.4byte	0
 13812              	.LLST12:
 13813 0315 00000000 		.4byte	.LVL100
 13814 0319 14000000 		.4byte	.LVL101
 13815 031d 0100     		.2byte	0x1
 13816 031f 50       		.byte	0x50
 13817 0320 14000000 		.4byte	.LVL101
 13818 0324 36000000 		.4byte	.LVL102
 13819 0328 0400     		.2byte	0x4
 13820 032a F3       		.byte	0xf3
 13821 032b 01       		.uleb128 0x1
 13822 032c 50       		.byte	0x50
 13823 032d 9F       		.byte	0x9f
 13824 032e 36000000 		.4byte	.LVL102
 13825 0332 39000000 		.4byte	.LVL103-1
 13826 0336 0100     		.2byte	0x1
 13827 0338 50       		.byte	0x50
 13828 0339 39000000 		.4byte	.LVL103-1
 13829 033d 44000000 		.4byte	.LVL104
 13830 0341 0400     		.2byte	0x4
 13831 0343 F3       		.byte	0xf3
ARM GAS  /tmp/ccB9RVXV.s 			page 246


 13832 0344 01       		.uleb128 0x1
 13833 0345 50       		.byte	0x50
 13834 0346 9F       		.byte	0x9f
 13835 0347 44000000 		.4byte	.LVL104
 13836 034b 47000000 		.4byte	.LVL105-1
 13837 034f 0100     		.2byte	0x1
 13838 0351 50       		.byte	0x50
 13839 0352 47000000 		.4byte	.LVL105-1
 13840 0356 5C000000 		.4byte	.LFE292
 13841 035a 0400     		.2byte	0x4
 13842 035c F3       		.byte	0xf3
 13843 035d 01       		.uleb128 0x1
 13844 035e 50       		.byte	0x50
 13845 035f 9F       		.byte	0x9f
 13846 0360 00000000 		.4byte	0
 13847 0364 00000000 		.4byte	0
 13848              	.LLST13:
 13849 0368 00000000 		.4byte	.LVL100
 13850 036c 14000000 		.4byte	.LVL101
 13851 0370 0200     		.2byte	0x2
 13852 0372 30       		.byte	0x30
 13853 0373 9F       		.byte	0x9f
 13854 0374 36000000 		.4byte	.LVL102
 13855 0378 3A000000 		.4byte	.LVL103
 13856 037c 0200     		.2byte	0x2
 13857 037e 30       		.byte	0x30
 13858 037f 9F       		.byte	0x9f
 13859 0380 3A000000 		.4byte	.LVL103
 13860 0384 44000000 		.4byte	.LVL104
 13861 0388 0100     		.2byte	0x1
 13862 038a 50       		.byte	0x50
 13863 038b 44000000 		.4byte	.LVL104
 13864 038f 48000000 		.4byte	.LVL105
 13865 0393 0200     		.2byte	0x2
 13866 0395 30       		.byte	0x30
 13867 0396 9F       		.byte	0x9f
 13868 0397 48000000 		.4byte	.LVL105
 13869 039b 5C000000 		.4byte	.LFE292
 13870 039f 0100     		.2byte	0x1
 13871 03a1 50       		.byte	0x50
 13872 03a2 00000000 		.4byte	0
 13873 03a6 00000000 		.4byte	0
 13874              	.LLST14:
 13875 03aa 00000000 		.4byte	.LVL106
 13876 03ae 09000000 		.4byte	.LVL107-1
 13877 03b2 0100     		.2byte	0x1
 13878 03b4 50       		.byte	0x50
 13879 03b5 09000000 		.4byte	.LVL107-1
 13880 03b9 44010000 		.4byte	.LFE313
 13881 03bd 0400     		.2byte	0x4
 13882 03bf F3       		.byte	0xf3
 13883 03c0 01       		.uleb128 0x1
 13884 03c1 50       		.byte	0x50
 13885 03c2 9F       		.byte	0x9f
 13886 03c3 00000000 		.4byte	0
 13887 03c7 00000000 		.4byte	0
 13888              	.LLST15:
ARM GAS  /tmp/ccB9RVXV.s 			page 247


 13889 03cb 5A000000 		.4byte	.LVL123
 13890 03cf 5E000000 		.4byte	.LVL124
 13891 03d3 0200     		.2byte	0x2
 13892 03d5 90       		.byte	0x90
 13893 03d6 40       		.uleb128 0x40
 13894 03d7 5E000000 		.4byte	.LVL124
 13895 03db F8010000 		.4byte	.LVL148
 13896 03df 0200     		.2byte	0x2
 13897 03e1 90       		.byte	0x90
 13898 03e2 52       		.uleb128 0x52
 13899 03e3 DE020000 		.4byte	.LVL174
 13900 03e7 1A030000 		.4byte	.LVL178
 13901 03eb 0200     		.2byte	0x2
 13902 03ed 90       		.byte	0x90
 13903 03ee 52       		.uleb128 0x52
 13904 03ef 1C030000 		.4byte	.LVL179
 13905 03f3 EA040000 		.4byte	.LVL202
 13906 03f7 0200     		.2byte	0x2
 13907 03f9 90       		.byte	0x90
 13908 03fa 52       		.uleb128 0x52
 13909 03fb 0E050000 		.4byte	.LVL208
 13910 03ff 22050000 		.4byte	.LVL210
 13911 0403 0200     		.2byte	0x2
 13912 0405 90       		.byte	0x90
 13913 0406 52       		.uleb128 0x52
 13914 0407 24050000 		.4byte	.LVL211
 13915 040b D8050000 		.4byte	.LFE314
 13916 040f 0200     		.2byte	0x2
 13917 0411 90       		.byte	0x90
 13918 0412 52       		.uleb128 0x52
 13919 0413 00000000 		.4byte	0
 13920 0417 00000000 		.4byte	0
 13921              	.LLST16:
 13922 041b DA000000 		.4byte	.LVL127
 13923 041f F6000000 		.4byte	.LVL129
 13924 0423 0600     		.2byte	0x6
 13925 0425 9E       		.byte	0x9e
 13926 0426 04       		.uleb128 0x4
 13927 0427 00000000 		.4byte	0
 13928 042b F6000000 		.4byte	.LVL129
 13929 042f D0020000 		.4byte	.LVL173
 13930 0433 0200     		.2byte	0x2
 13931 0435 90       		.byte	0x90
 13932 0436 58       		.uleb128 0x58
 13933 0437 DE020000 		.4byte	.LVL174
 13934 043b 0A030000 		.4byte	.LVL177
 13935 043f 0600     		.2byte	0x6
 13936 0441 9E       		.byte	0x9e
 13937 0442 04       		.uleb128 0x4
 13938 0443 00000000 		.4byte	0
 13939 0447 0A030000 		.4byte	.LVL177
 13940 044b C4030000 		.4byte	.LVL188
 13941 044f 0200     		.2byte	0x2
 13942 0451 90       		.byte	0x90
 13943 0452 58       		.uleb128 0x58
 13944 0453 C4030000 		.4byte	.LVL188
 13945 0457 30040000 		.4byte	.LVL193
ARM GAS  /tmp/ccB9RVXV.s 			page 248


 13946 045b 0600     		.2byte	0x6
 13947 045d 9E       		.byte	0x9e
 13948 045e 04       		.uleb128 0x4
 13949 045f 00000000 		.4byte	0
 13950 0463 30040000 		.4byte	.LVL193
 13951 0467 76050000 		.4byte	.LVL221
 13952 046b 0200     		.2byte	0x2
 13953 046d 90       		.byte	0x90
 13954 046e 58       		.uleb128 0x58
 13955 046f 76050000 		.4byte	.LVL221
 13956 0473 7C050000 		.4byte	.LVL222
 13957 0477 0600     		.2byte	0x6
 13958 0479 9E       		.byte	0x9e
 13959 047a 04       		.uleb128 0x4
 13960 047b 00000000 		.4byte	0
 13961 047f 7C050000 		.4byte	.LVL222
 13962 0483 AE050000 		.4byte	.LVL225
 13963 0487 0200     		.2byte	0x2
 13964 0489 90       		.byte	0x90
 13965 048a 58       		.uleb128 0x58
 13966 048b AE050000 		.4byte	.LVL225
 13967 048f C0050000 		.4byte	.LVL226
 13968 0493 0600     		.2byte	0x6
 13969 0495 9E       		.byte	0x9e
 13970 0496 04       		.uleb128 0x4
 13971 0497 00000000 		.4byte	0
 13972 049b C0050000 		.4byte	.LVL226
 13973 049f D8050000 		.4byte	.LFE314
 13974 04a3 0200     		.2byte	0x2
 13975 04a5 90       		.byte	0x90
 13976 04a6 58       		.uleb128 0x58
 13977 04a7 00000000 		.4byte	0
 13978 04ab 00000000 		.4byte	0
 13979              	.LLST17:
 13980 04af DA000000 		.4byte	.LVL127
 13981 04b3 F2000000 		.4byte	.LVL128
 13982 04b7 0600     		.2byte	0x6
 13983 04b9 9E       		.byte	0x9e
 13984 04ba 04       		.uleb128 0x4
 13985 04bb 00000000 		.4byte	0
 13986 04bf F2000000 		.4byte	.LVL128
 13987 04c3 DE020000 		.4byte	.LVL174
 13988 04c7 0200     		.2byte	0x2
 13989 04c9 90       		.byte	0x90
 13990 04ca 53       		.uleb128 0x53
 13991 04cb DE020000 		.4byte	.LVL174
 13992 04cf 0A030000 		.4byte	.LVL177
 13993 04d3 0600     		.2byte	0x6
 13994 04d5 9E       		.byte	0x9e
 13995 04d6 04       		.uleb128 0x4
 13996 04d7 00000000 		.4byte	0
 13997 04db 0A030000 		.4byte	.LVL177
 13998 04df C4030000 		.4byte	.LVL188
 13999 04e3 0200     		.2byte	0x2
 14000 04e5 90       		.byte	0x90
 14001 04e6 53       		.uleb128 0x53
 14002 04e7 C4030000 		.4byte	.LVL188
ARM GAS  /tmp/ccB9RVXV.s 			page 249


 14003 04eb 64040000 		.4byte	.LVL194
 14004 04ef 0600     		.2byte	0x6
 14005 04f1 9E       		.byte	0x9e
 14006 04f2 04       		.uleb128 0x4
 14007 04f3 00000000 		.4byte	0
 14008 04f7 64040000 		.4byte	.LVL194
 14009 04fb 76050000 		.4byte	.LVL221
 14010 04ff 0200     		.2byte	0x2
 14011 0501 90       		.byte	0x90
 14012 0502 53       		.uleb128 0x53
 14013 0503 76050000 		.4byte	.LVL221
 14014 0507 7C050000 		.4byte	.LVL222
 14015 050b 0600     		.2byte	0x6
 14016 050d 9E       		.byte	0x9e
 14017 050e 04       		.uleb128 0x4
 14018 050f 00000000 		.4byte	0
 14019 0513 7C050000 		.4byte	.LVL222
 14020 0517 AE050000 		.4byte	.LVL225
 14021 051b 0200     		.2byte	0x2
 14022 051d 90       		.byte	0x90
 14023 051e 53       		.uleb128 0x53
 14024 051f AE050000 		.4byte	.LVL225
 14025 0523 C0050000 		.4byte	.LVL226
 14026 0527 0600     		.2byte	0x6
 14027 0529 9E       		.byte	0x9e
 14028 052a 04       		.uleb128 0x4
 14029 052b 00000000 		.4byte	0
 14030 052f C0050000 		.4byte	.LVL226
 14031 0533 C6050000 		.4byte	.LVL227
 14032 0537 0200     		.2byte	0x2
 14033 0539 90       		.byte	0x90
 14034 053a 53       		.uleb128 0x53
 14035 053b C6050000 		.4byte	.LVL227
 14036 053f D8050000 		.4byte	.LFE314
 14037 0543 0600     		.2byte	0x6
 14038 0545 9E       		.byte	0x9e
 14039 0546 04       		.uleb128 0x4
 14040 0547 00000000 		.4byte	0
 14041 054b 00000000 		.4byte	0
 14042 054f 00000000 		.4byte	0
 14043              	.LLST18:
 14044 0553 F6000000 		.4byte	.LVL129
 14045 0557 16010000 		.4byte	.LVL131
 14046 055b 0600     		.2byte	0x6
 14047 055d 9E       		.byte	0x9e
 14048 055e 04       		.uleb128 0x4
 14049 055f 00000000 		.4byte	0
 14050 0563 16010000 		.4byte	.LVL131
 14051 0567 0C020000 		.4byte	.LVL150
 14052 056b 0200     		.2byte	0x2
 14053 056d 90       		.byte	0x90
 14054 056e 57       		.uleb128 0x57
 14055 056f 0A030000 		.4byte	.LVL177
 14056 0573 5A030000 		.4byte	.LVL185
 14057 0577 0200     		.2byte	0x2
 14058 0579 90       		.byte	0x90
 14059 057a 57       		.uleb128 0x57
ARM GAS  /tmp/ccB9RVXV.s 			page 250


 14060 057b 5A030000 		.4byte	.LVL185
 14061 057f C4030000 		.4byte	.LVL188
 14062 0583 0600     		.2byte	0x6
 14063 0585 9E       		.byte	0x9e
 14064 0586 04       		.uleb128 0x4
 14065 0587 00000000 		.4byte	0
 14066 058b 66040000 		.4byte	.LVL195
 14067 058f B6040000 		.4byte	.LVL200
 14068 0593 0600     		.2byte	0x6
 14069 0595 9E       		.byte	0x9e
 14070 0596 04       		.uleb128 0x4
 14071 0597 00000000 		.4byte	0
 14072 059b B6040000 		.4byte	.LVL200
 14073 059f EA040000 		.4byte	.LVL202
 14074 05a3 0200     		.2byte	0x2
 14075 05a5 90       		.byte	0x90
 14076 05a6 57       		.uleb128 0x57
 14077 05a7 0E050000 		.4byte	.LVL208
 14078 05ab 76050000 		.4byte	.LVL221
 14079 05af 0200     		.2byte	0x2
 14080 05b1 90       		.byte	0x90
 14081 05b2 57       		.uleb128 0x57
 14082 05b3 7C050000 		.4byte	.LVL222
 14083 05b7 9A050000 		.4byte	.LVL223
 14084 05bb 0600     		.2byte	0x6
 14085 05bd 9E       		.byte	0x9e
 14086 05be 04       		.uleb128 0x4
 14087 05bf 00000000 		.4byte	0
 14088 05c3 9A050000 		.4byte	.LVL223
 14089 05c7 9C050000 		.4byte	.LVL224
 14090 05cb 0200     		.2byte	0x2
 14091 05cd 90       		.byte	0x90
 14092 05ce 57       		.uleb128 0x57
 14093 05cf 9C050000 		.4byte	.LVL224
 14094 05d3 AE050000 		.4byte	.LVL225
 14095 05d7 0600     		.2byte	0x6
 14096 05d9 9E       		.byte	0x9e
 14097 05da 04       		.uleb128 0x4
 14098 05db 00000000 		.4byte	0
 14099 05df C0050000 		.4byte	.LVL226
 14100 05e3 C6050000 		.4byte	.LVL227
 14101 05e7 0200     		.2byte	0x2
 14102 05e9 90       		.byte	0x90
 14103 05ea 57       		.uleb128 0x57
 14104 05eb 00000000 		.4byte	0
 14105 05ef 00000000 		.4byte	0
 14106              	.LLST19:
 14107 05f3 F6000000 		.4byte	.LVL129
 14108 05f7 12010000 		.4byte	.LVL130
 14109 05fb 0600     		.2byte	0x6
 14110 05fd 9E       		.byte	0x9e
 14111 05fe 04       		.uleb128 0x4
 14112 05ff 00000000 		.4byte	0
 14113 0603 12010000 		.4byte	.LVL130
 14114 0607 1C020000 		.4byte	.LVL153
 14115 060b 0200     		.2byte	0x2
 14116 060d 90       		.byte	0x90
ARM GAS  /tmp/ccB9RVXV.s 			page 251


 14117 060e 50       		.uleb128 0x50
 14118 060f 0A030000 		.4byte	.LVL177
 14119 0613 5A030000 		.4byte	.LVL185
 14120 0617 0200     		.2byte	0x2
 14121 0619 90       		.byte	0x90
 14122 061a 50       		.uleb128 0x50
 14123 061b 5A030000 		.4byte	.LVL185
 14124 061f C4030000 		.4byte	.LVL188
 14125 0623 0600     		.2byte	0x6
 14126 0625 9E       		.byte	0x9e
 14127 0626 04       		.uleb128 0x4
 14128 0627 00000000 		.4byte	0
 14129 062b 66040000 		.4byte	.LVL195
 14130 062f E8040000 		.4byte	.LVL201
 14131 0633 0600     		.2byte	0x6
 14132 0635 9E       		.byte	0x9e
 14133 0636 04       		.uleb128 0x4
 14134 0637 00000000 		.4byte	0
 14135 063b E8040000 		.4byte	.LVL201
 14136 063f EA040000 		.4byte	.LVL202
 14137 0643 0200     		.2byte	0x2
 14138 0645 90       		.byte	0x90
 14139 0646 50       		.uleb128 0x50
 14140 0647 0E050000 		.4byte	.LVL208
 14141 064b 76050000 		.4byte	.LVL221
 14142 064f 0200     		.2byte	0x2
 14143 0651 90       		.byte	0x90
 14144 0652 50       		.uleb128 0x50
 14145 0653 7C050000 		.4byte	.LVL222
 14146 0657 AE050000 		.4byte	.LVL225
 14147 065b 0600     		.2byte	0x6
 14148 065d 9E       		.byte	0x9e
 14149 065e 04       		.uleb128 0x4
 14150 065f 00000000 		.4byte	0
 14151 0663 C0050000 		.4byte	.LVL226
 14152 0667 C6050000 		.4byte	.LVL227
 14153 066b 0600     		.2byte	0x6
 14154 066d 9E       		.byte	0x9e
 14155 066e 04       		.uleb128 0x4
 14156 066f 00000000 		.4byte	0
 14157 0673 00000000 		.4byte	0
 14158 0677 00000000 		.4byte	0
 14159              	.LLST20:
 14160 067b 38010000 		.4byte	.LVL133
 14161 067f 40010000 		.4byte	.LVL134
 14162 0683 0200     		.2byte	0x2
 14163 0685 90       		.byte	0x90
 14164 0686 40       		.uleb128 0x40
 14165 0687 40010000 		.4byte	.LVL134
 14166 068b 9E010000 		.4byte	.LVL143
 14167 068f 0200     		.2byte	0x2
 14168 0691 90       		.byte	0x90
 14169 0692 55       		.uleb128 0x55
 14170 0693 44030000 		.4byte	.LVL183
 14171 0697 58030000 		.4byte	.LVL184
 14172 069b 0200     		.2byte	0x2
 14173 069d 90       		.byte	0x90
ARM GAS  /tmp/ccB9RVXV.s 			page 252


 14174 069e 55       		.uleb128 0x55
 14175 069f 58050000 		.4byte	.LVL217
 14176 06a3 74050000 		.4byte	.LVL220
 14177 06a7 0200     		.2byte	0x2
 14178 06a9 90       		.byte	0x90
 14179 06aa 55       		.uleb128 0x55
 14180 06ab 00000000 		.4byte	0
 14181 06af 00000000 		.4byte	0
 14182              	.LLST21:
 14183 06b3 5C010000 		.4byte	.LVL136
 14184 06b7 60010000 		.4byte	.LVL137
 14185 06bb 0200     		.2byte	0x2
 14186 06bd 90       		.byte	0x90
 14187 06be 40       		.uleb128 0x40
 14188 06bf 60010000 		.4byte	.LVL137
 14189 06c3 DE020000 		.4byte	.LVL174
 14190 06c7 0200     		.2byte	0x2
 14191 06c9 90       		.byte	0x90
 14192 06ca 59       		.uleb128 0x59
 14193 06cb 0A030000 		.4byte	.LVL177
 14194 06cf 5A030000 		.4byte	.LVL185
 14195 06d3 0200     		.2byte	0x2
 14196 06d5 90       		.byte	0x90
 14197 06d6 59       		.uleb128 0x59
 14198 06d7 EA040000 		.4byte	.LVL202
 14199 06db 76050000 		.4byte	.LVL221
 14200 06df 0200     		.2byte	0x2
 14201 06e1 90       		.byte	0x90
 14202 06e2 59       		.uleb128 0x59
 14203 06e3 00000000 		.4byte	0
 14204 06e7 00000000 		.4byte	0
 14205              	.LLST22:
 14206 06eb 70010000 		.4byte	.LVL139
 14207 06ef 78010000 		.4byte	.LVL140
 14208 06f3 0200     		.2byte	0x2
 14209 06f5 90       		.byte	0x90
 14210 06f6 40       		.uleb128 0x40
 14211 06f7 78010000 		.4byte	.LVL140
 14212 06fb B4010000 		.4byte	.LVL144
 14213 06ff 0200     		.2byte	0x2
 14214 0701 90       		.byte	0x90
 14215 0702 54       		.uleb128 0x54
 14216 0703 2E030000 		.4byte	.LVL181
 14217 0707 42030000 		.4byte	.LVL182
 14218 070b 0200     		.2byte	0x2
 14219 070d 90       		.byte	0x90
 14220 070e 54       		.uleb128 0x54
 14221 070f 44030000 		.4byte	.LVL183
 14222 0713 5A030000 		.4byte	.LVL185
 14223 0717 0200     		.2byte	0x2
 14224 0719 90       		.byte	0x90
 14225 071a 54       		.uleb128 0x54
 14226 071b 3A050000 		.4byte	.LVL214
 14227 071f 56050000 		.4byte	.LVL216
 14228 0723 0200     		.2byte	0x2
 14229 0725 90       		.byte	0x90
 14230 0726 54       		.uleb128 0x54
ARM GAS  /tmp/ccB9RVXV.s 			page 253


 14231 0727 58050000 		.4byte	.LVL217
 14232 072b 76050000 		.4byte	.LVL221
 14233 072f 0200     		.2byte	0x2
 14234 0731 90       		.byte	0x90
 14235 0732 54       		.uleb128 0x54
 14236 0733 00000000 		.4byte	0
 14237 0737 00000000 		.4byte	0
 14238              	.LLST23:
 14239 073b 96010000 		.4byte	.LVL142
 14240 073f 9E010000 		.4byte	.LVL143
 14241 0743 0200     		.2byte	0x2
 14242 0745 90       		.byte	0x90
 14243 0746 40       		.uleb128 0x40
 14244 0747 9E010000 		.4byte	.LVL143
 14245 074b D6010000 		.4byte	.LVL146
 14246 074f 0200     		.2byte	0x2
 14247 0751 90       		.byte	0x90
 14248 0752 56       		.uleb128 0x56
 14249 0753 1C030000 		.4byte	.LVL179
 14250 0757 2C030000 		.4byte	.LVL180
 14251 075b 0200     		.2byte	0x2
 14252 075d 90       		.byte	0x90
 14253 075e 56       		.uleb128 0x56
 14254 075f 2E030000 		.4byte	.LVL181
 14255 0763 44030000 		.4byte	.LVL183
 14256 0767 0200     		.2byte	0x2
 14257 0769 90       		.byte	0x90
 14258 076a 56       		.uleb128 0x56
 14259 076b 44030000 		.4byte	.LVL183
 14260 076f 5A030000 		.4byte	.LVL185
 14261 0773 0200     		.2byte	0x2
 14262 0775 90       		.byte	0x90
 14263 0776 40       		.uleb128 0x40
 14264 0777 24050000 		.4byte	.LVL211
 14265 077b 38050000 		.4byte	.LVL213
 14266 077f 0200     		.2byte	0x2
 14267 0781 90       		.byte	0x90
 14268 0782 56       		.uleb128 0x56
 14269 0783 3A050000 		.4byte	.LVL214
 14270 0787 58050000 		.4byte	.LVL217
 14271 078b 0200     		.2byte	0x2
 14272 078d 90       		.byte	0x90
 14273 078e 56       		.uleb128 0x56
 14274 078f 58050000 		.4byte	.LVL217
 14275 0793 5C050000 		.4byte	.LVL218
 14276 0797 0200     		.2byte	0x2
 14277 0799 90       		.byte	0x90
 14278 079a 40       		.uleb128 0x40
 14279 079b 5C050000 		.4byte	.LVL218
 14280 079f 76050000 		.4byte	.LVL221
 14281 07a3 0200     		.2byte	0x2
 14282 07a5 90       		.byte	0x90
 14283 07a6 56       		.uleb128 0x56
 14284 07a7 00000000 		.4byte	0
 14285 07ab 00000000 		.4byte	0
 14286              	.LLST24:
 14287 07af 96010000 		.4byte	.LVL142
ARM GAS  /tmp/ccB9RVXV.s 			page 254


 14288 07b3 9E010000 		.4byte	.LVL143
 14289 07b7 0600     		.2byte	0x6
 14290 07b9 9E       		.byte	0x9e
 14291 07ba 04       		.uleb128 0x4
 14292 07bb 00000000 		.4byte	0
 14293 07bf 9E010000 		.4byte	.LVL143
 14294 07c3 DE020000 		.4byte	.LVL174
 14295 07c7 0200     		.2byte	0x2
 14296 07c9 90       		.byte	0x90
 14297 07ca 55       		.uleb128 0x55
 14298 07cb 0A030000 		.4byte	.LVL177
 14299 07cf 44030000 		.4byte	.LVL183
 14300 07d3 0200     		.2byte	0x2
 14301 07d5 90       		.byte	0x90
 14302 07d6 55       		.uleb128 0x55
 14303 07d7 44030000 		.4byte	.LVL183
 14304 07db 5A030000 		.4byte	.LVL185
 14305 07df 0600     		.2byte	0x6
 14306 07e1 9E       		.byte	0x9e
 14307 07e2 04       		.uleb128 0x4
 14308 07e3 00000000 		.4byte	0
 14309 07e7 EA040000 		.4byte	.LVL202
 14310 07eb 58050000 		.4byte	.LVL217
 14311 07ef 0200     		.2byte	0x2
 14312 07f1 90       		.byte	0x90
 14313 07f2 55       		.uleb128 0x55
 14314 07f3 58050000 		.4byte	.LVL217
 14315 07f7 74050000 		.4byte	.LVL220
 14316 07fb 0600     		.2byte	0x6
 14317 07fd 9E       		.byte	0x9e
 14318 07fe 04       		.uleb128 0x4
 14319 07ff 00000000 		.4byte	0
 14320 0803 74050000 		.4byte	.LVL220
 14321 0807 76050000 		.4byte	.LVL221
 14322 080b 0200     		.2byte	0x2
 14323 080d 90       		.byte	0x90
 14324 080e 40       		.uleb128 0x40
 14325 080f 00000000 		.4byte	0
 14326 0813 00000000 		.4byte	0
 14327              	.LLST25:
 14328 0817 9E010000 		.4byte	.LVL143
 14329 081b B4010000 		.4byte	.LVL144
 14330 081f 0600     		.2byte	0x6
 14331 0821 9E       		.byte	0x9e
 14332 0822 04       		.uleb128 0x4
 14333 0823 00000000 		.4byte	0
 14334 0827 B4010000 		.4byte	.LVL144
 14335 082b D0020000 		.4byte	.LVL173
 14336 082f 0200     		.2byte	0x2
 14337 0831 90       		.byte	0x90
 14338 0832 54       		.uleb128 0x54
 14339 0833 0A030000 		.4byte	.LVL177
 14340 0837 2E030000 		.4byte	.LVL181
 14341 083b 0200     		.2byte	0x2
 14342 083d 90       		.byte	0x90
 14343 083e 54       		.uleb128 0x54
 14344 083f 2E030000 		.4byte	.LVL181
ARM GAS  /tmp/ccB9RVXV.s 			page 255


 14345 0843 44030000 		.4byte	.LVL183
 14346 0847 0600     		.2byte	0x6
 14347 0849 9E       		.byte	0x9e
 14348 084a 04       		.uleb128 0x4
 14349 084b 00000000 		.4byte	0
 14350 084f EA040000 		.4byte	.LVL202
 14351 0853 3A050000 		.4byte	.LVL214
 14352 0857 0200     		.2byte	0x2
 14353 0859 90       		.byte	0x90
 14354 085a 54       		.uleb128 0x54
 14355 085b 3A050000 		.4byte	.LVL214
 14356 085f 56050000 		.4byte	.LVL216
 14357 0863 0600     		.2byte	0x6
 14358 0865 9E       		.byte	0x9e
 14359 0866 04       		.uleb128 0x4
 14360 0867 00000000 		.4byte	0
 14361 086b 56050000 		.4byte	.LVL216
 14362 086f 58050000 		.4byte	.LVL217
 14363 0873 0200     		.2byte	0x2
 14364 0875 90       		.byte	0x90
 14365 0876 40       		.uleb128 0x40
 14366 0877 00000000 		.4byte	0
 14367 087b 00000000 		.4byte	0
 14368              	.LLST26:
 14369 087f B4010000 		.4byte	.LVL144
 14370 0883 D6010000 		.4byte	.LVL146
 14371 0887 0600     		.2byte	0x6
 14372 0889 9E       		.byte	0x9e
 14373 088a 04       		.uleb128 0x4
 14374 088b 00000000 		.4byte	0
 14375 088f D6010000 		.4byte	.LVL146
 14376 0893 D0020000 		.4byte	.LVL173
 14377 0897 0200     		.2byte	0x2
 14378 0899 90       		.byte	0x90
 14379 089a 56       		.uleb128 0x56
 14380 089b 0A030000 		.4byte	.LVL177
 14381 089f 1C030000 		.4byte	.LVL179
 14382 08a3 0200     		.2byte	0x2
 14383 08a5 90       		.byte	0x90
 14384 08a6 56       		.uleb128 0x56
 14385 08a7 1C030000 		.4byte	.LVL179
 14386 08ab 2E030000 		.4byte	.LVL181
 14387 08af 0600     		.2byte	0x6
 14388 08b1 9E       		.byte	0x9e
 14389 08b2 04       		.uleb128 0x4
 14390 08b3 00000000 		.4byte	0
 14391 08b7 EA040000 		.4byte	.LVL202
 14392 08bb 24050000 		.4byte	.LVL211
 14393 08bf 0200     		.2byte	0x2
 14394 08c1 90       		.byte	0x90
 14395 08c2 56       		.uleb128 0x56
 14396 08c3 24050000 		.4byte	.LVL211
 14397 08c7 38050000 		.4byte	.LVL213
 14398 08cb 0600     		.2byte	0x6
 14399 08cd 9E       		.byte	0x9e
 14400 08ce 04       		.uleb128 0x4
 14401 08cf 00000000 		.4byte	0
ARM GAS  /tmp/ccB9RVXV.s 			page 256


 14402 08d3 38050000 		.4byte	.LVL213
 14403 08d7 3A050000 		.4byte	.LVL214
 14404 08db 0200     		.2byte	0x2
 14405 08dd 90       		.byte	0x90
 14406 08de 40       		.uleb128 0x40
 14407 08df 00000000 		.4byte	0
 14408 08e3 00000000 		.4byte	0
 14409              	.LLST27:
 14410 08e7 C6010000 		.4byte	.LVL145
 14411 08eb D6010000 		.4byte	.LVL146
 14412 08ef 0200     		.2byte	0x2
 14413 08f1 90       		.byte	0x90
 14414 08f2 41       		.uleb128 0x41
 14415 08f3 1C030000 		.4byte	.LVL179
 14416 08f7 2E030000 		.4byte	.LVL181
 14417 08fb 0200     		.2byte	0x2
 14418 08fd 90       		.byte	0x90
 14419 08fe 41       		.uleb128 0x41
 14420 08ff 24050000 		.4byte	.LVL211
 14421 0903 33050000 		.4byte	.LVL212-1
 14422 0907 0200     		.2byte	0x2
 14423 0909 90       		.byte	0x90
 14424 090a 41       		.uleb128 0x41
 14425 090b 00000000 		.4byte	0
 14426 090f 00000000 		.4byte	0
 14427              	.LLST28:
 14428 0913 C6010000 		.4byte	.LVL145
 14429 0917 D6010000 		.4byte	.LVL146
 14430 091b 0200     		.2byte	0x2
 14431 091d 90       		.byte	0x90
 14432 091e 42       		.uleb128 0x42
 14433 091f 1C030000 		.4byte	.LVL179
 14434 0923 2E030000 		.4byte	.LVL181
 14435 0927 0200     		.2byte	0x2
 14436 0929 90       		.byte	0x90
 14437 092a 42       		.uleb128 0x42
 14438 092b 24050000 		.4byte	.LVL211
 14439 092f 33050000 		.4byte	.LVL212-1
 14440 0933 0200     		.2byte	0x2
 14441 0935 90       		.byte	0x90
 14442 0936 42       		.uleb128 0x42
 14443 0937 00000000 		.4byte	0
 14444 093b 00000000 		.4byte	0
 14445              	.LLST29:
 14446 093f D6010000 		.4byte	.LVL146
 14447 0943 F8010000 		.4byte	.LVL148
 14448 0947 0600     		.2byte	0x6
 14449 0949 9E       		.byte	0x9e
 14450 094a 04       		.uleb128 0x4
 14451 094b 00000000 		.4byte	0
 14452 094f F8010000 		.4byte	.LVL148
 14453 0953 D0020000 		.4byte	.LVL173
 14454 0957 0200     		.2byte	0x2
 14455 0959 90       		.byte	0x90
 14456 095a 52       		.uleb128 0x52
 14457 095b 0A030000 		.4byte	.LVL177
 14458 095f 1C030000 		.4byte	.LVL179
ARM GAS  /tmp/ccB9RVXV.s 			page 257


 14459 0963 0600     		.2byte	0x6
 14460 0965 9E       		.byte	0x9e
 14461 0966 04       		.uleb128 0x4
 14462 0967 00000000 		.4byte	0
 14463 096b EA040000 		.4byte	.LVL202
 14464 096f 0E050000 		.4byte	.LVL208
 14465 0973 0200     		.2byte	0x2
 14466 0975 90       		.byte	0x90
 14467 0976 52       		.uleb128 0x52
 14468 0977 0E050000 		.4byte	.LVL208
 14469 097b 22050000 		.4byte	.LVL210
 14470 097f 0600     		.2byte	0x6
 14471 0981 9E       		.byte	0x9e
 14472 0982 04       		.uleb128 0x4
 14473 0983 00000000 		.4byte	0
 14474 0987 22050000 		.4byte	.LVL210
 14475 098b 24050000 		.4byte	.LVL211
 14476 098f 0200     		.2byte	0x2
 14477 0991 90       		.byte	0x90
 14478 0992 40       		.uleb128 0x40
 14479 0993 00000000 		.4byte	0
 14480 0997 00000000 		.4byte	0
 14481              	.LLST30:
 14482 099b E8010000 		.4byte	.LVL147
 14483 099f F8010000 		.4byte	.LVL148
 14484 09a3 0200     		.2byte	0x2
 14485 09a5 90       		.byte	0x90
 14486 09a6 41       		.uleb128 0x41
 14487 09a7 0A030000 		.4byte	.LVL177
 14488 09ab 1C030000 		.4byte	.LVL179
 14489 09af 0200     		.2byte	0x2
 14490 09b1 90       		.byte	0x90
 14491 09b2 41       		.uleb128 0x41
 14492 09b3 0E050000 		.4byte	.LVL208
 14493 09b7 1D050000 		.4byte	.LVL209-1
 14494 09bb 0200     		.2byte	0x2
 14495 09bd 90       		.byte	0x90
 14496 09be 41       		.uleb128 0x41
 14497 09bf 00000000 		.4byte	0
 14498 09c3 00000000 		.4byte	0
 14499              	.LLST31:
 14500 09c7 E8010000 		.4byte	.LVL147
 14501 09cb F8010000 		.4byte	.LVL148
 14502 09cf 0200     		.2byte	0x2
 14503 09d1 90       		.byte	0x90
 14504 09d2 42       		.uleb128 0x42
 14505 09d3 0A030000 		.4byte	.LVL177
 14506 09d7 1C030000 		.4byte	.LVL179
 14507 09db 0200     		.2byte	0x2
 14508 09dd 90       		.byte	0x90
 14509 09de 42       		.uleb128 0x42
 14510 09df 0E050000 		.4byte	.LVL208
 14511 09e3 1D050000 		.4byte	.LVL209-1
 14512 09e7 0200     		.2byte	0x2
 14513 09e9 90       		.byte	0x90
 14514 09ea 42       		.uleb128 0x42
 14515 09eb 00000000 		.4byte	0
ARM GAS  /tmp/ccB9RVXV.s 			page 258


 14516 09ef 00000000 		.4byte	0
 14517              	.LLST32:
 14518 09f3 0C020000 		.4byte	.LVL150
 14519 09f7 10020000 		.4byte	.LVL151
 14520 09fb 0200     		.2byte	0x2
 14521 09fd 90       		.byte	0x90
 14522 09fe 40       		.uleb128 0x40
 14523 09ff 10020000 		.4byte	.LVL151
 14524 0a03 24020000 		.4byte	.LVL155
 14525 0a07 0200     		.2byte	0x2
 14526 0a09 90       		.byte	0x90
 14527 0a0a 57       		.uleb128 0x57
 14528 0a0b 24020000 		.4byte	.LVL155
 14529 0a0f 2B020000 		.4byte	.LVL156-1
 14530 0a13 0200     		.2byte	0x2
 14531 0a15 90       		.byte	0x90
 14532 0a16 40       		.uleb128 0x40
 14533 0a17 2C020000 		.4byte	.LVL156
 14534 0a1b 33020000 		.4byte	.LVL157-1
 14535 0a1f 0200     		.2byte	0x2
 14536 0a21 90       		.byte	0x90
 14537 0a22 40       		.uleb128 0x40
 14538 0a23 34020000 		.4byte	.LVL157
 14539 0a27 3B020000 		.4byte	.LVL158-1
 14540 0a2b 0200     		.2byte	0x2
 14541 0a2d 90       		.byte	0x90
 14542 0a2e 40       		.uleb128 0x40
 14543 0a2f 3C020000 		.4byte	.LVL158
 14544 0a33 9C020000 		.4byte	.LVL163
 14545 0a37 0200     		.2byte	0x2
 14546 0a39 90       		.byte	0x90
 14547 0a3a 40       		.uleb128 0x40
 14548 0a3b EA040000 		.4byte	.LVL202
 14549 0a3f FE040000 		.4byte	.LVL203
 14550 0a43 0200     		.2byte	0x2
 14551 0a45 90       		.byte	0x90
 14552 0a46 40       		.uleb128 0x40
 14553 0a47 08050000 		.4byte	.LVL206
 14554 0a4b 0E050000 		.4byte	.LVL208
 14555 0a4f 0200     		.2byte	0x2
 14556 0a51 90       		.byte	0x90
 14557 0a52 40       		.uleb128 0x40
 14558 0a53 00000000 		.4byte	0
 14559 0a57 00000000 		.4byte	0
 14560              	.LLST33:
 14561 0a5b 1C020000 		.4byte	.LVL153
 14562 0a5f 20020000 		.4byte	.LVL154
 14563 0a63 0200     		.2byte	0x2
 14564 0a65 90       		.byte	0x90
 14565 0a66 40       		.uleb128 0x40
 14566 0a67 20020000 		.4byte	.LVL154
 14567 0a6b 68020000 		.4byte	.LVL160
 14568 0a6f 0200     		.2byte	0x2
 14569 0a71 90       		.byte	0x90
 14570 0a72 50       		.uleb128 0x50
 14571 0a73 72020000 		.4byte	.LVL161
 14572 0a77 A4020000 		.4byte	.LVL165
ARM GAS  /tmp/ccB9RVXV.s 			page 259


 14573 0a7b 0200     		.2byte	0x2
 14574 0a7d 90       		.byte	0x90
 14575 0a7e 50       		.uleb128 0x50
 14576 0a7f EA040000 		.4byte	.LVL202
 14577 0a83 0E050000 		.4byte	.LVL208
 14578 0a87 0200     		.2byte	0x2
 14579 0a89 90       		.byte	0x90
 14580 0a8a 50       		.uleb128 0x50
 14581 0a8b 00000000 		.4byte	0
 14582 0a8f 00000000 		.4byte	0
 14583              	.LLST34:
 14584 0a93 76020000 		.4byte	.LVL162
 14585 0a97 9C020000 		.4byte	.LVL163
 14586 0a9b 0600     		.2byte	0x6
 14587 0a9d 9E       		.byte	0x9e
 14588 0a9e 04       		.uleb128 0x4
 14589 0a9f 00000000 		.4byte	0
 14590 0aa3 9C020000 		.4byte	.LVL163
 14591 0aa7 AF020000 		.4byte	.LVL168-1
 14592 0aab 0200     		.2byte	0x2
 14593 0aad 90       		.byte	0x90
 14594 0aae 41       		.uleb128 0x41
 14595 0aaf EA040000 		.4byte	.LVL202
 14596 0ab3 06050000 		.4byte	.LVL205
 14597 0ab7 0600     		.2byte	0x6
 14598 0ab9 9E       		.byte	0x9e
 14599 0aba 04       		.uleb128 0x4
 14600 0abb 00000000 		.4byte	0
 14601 0abf 06050000 		.4byte	.LVL205
 14602 0ac3 08050000 		.4byte	.LVL206
 14603 0ac7 0200     		.2byte	0x2
 14604 0ac9 90       		.byte	0x90
 14605 0aca 40       		.uleb128 0x40
 14606 0acb 08050000 		.4byte	.LVL206
 14607 0acf 0C050000 		.4byte	.LVL207
 14608 0ad3 0600     		.2byte	0x6
 14609 0ad5 9E       		.byte	0x9e
 14610 0ad6 04       		.uleb128 0x4
 14611 0ad7 00000000 		.4byte	0
 14612 0adb 0C050000 		.4byte	.LVL207
 14613 0adf 0E050000 		.4byte	.LVL208
 14614 0ae3 0200     		.2byte	0x2
 14615 0ae5 90       		.byte	0x90
 14616 0ae6 41       		.uleb128 0x41
 14617 0ae7 00000000 		.4byte	0
 14618 0aeb 00000000 		.4byte	0
 14619              	.LLST35:
 14620 0aef A0020000 		.4byte	.LVL164
 14621 0af3 AC020000 		.4byte	.LVL167
 14622 0af7 0800     		.2byte	0x8
 14623 0af9 F5       		.byte	0xf5
 14624 0afa 40       		.uleb128 0x40
 14625 0afb 25       		.uleb128 0x25
 14626 0afc F5       		.byte	0xf5
 14627 0afd 51       		.uleb128 0x51
 14628 0afe 25       		.uleb128 0x25
 14629 0aff 1B       		.byte	0x1b
ARM GAS  /tmp/ccB9RVXV.s 			page 260


 14630 0b00 9F       		.byte	0x9f
 14631 0b01 AC020000 		.4byte	.LVL167
 14632 0b05 AF020000 		.4byte	.LVL168-1
 14633 0b09 0200     		.2byte	0x2
 14634 0b0b 90       		.byte	0x90
 14635 0b0c 40       		.uleb128 0x40
 14636 0b0d 00000000 		.4byte	0
 14637 0b11 00000000 		.4byte	0
 14638              	.LLST36:
 14639 0b15 A8020000 		.4byte	.LVL166
 14640 0b19 D0020000 		.4byte	.LVL173
 14641 0b1d 0200     		.2byte	0x2
 14642 0b1f 90       		.byte	0x90
 14643 0b20 50       		.uleb128 0x50
 14644 0b21 00000000 		.4byte	0
 14645 0b25 00000000 		.4byte	0
 14646              	.LLST37:
 14647 0b29 B4020000 		.4byte	.LVL169
 14648 0b2d B8020000 		.4byte	.LVL170
 14649 0b31 0200     		.2byte	0x2
 14650 0b33 90       		.byte	0x90
 14651 0b34 40       		.uleb128 0x40
 14652 0b35 B8020000 		.4byte	.LVL170
 14653 0b39 BB020000 		.4byte	.LVL171-1
 14654 0b3d 0200     		.2byte	0x2
 14655 0b3f 90       		.byte	0x90
 14656 0b40 41       		.uleb128 0x41
 14657 0b41 00000000 		.4byte	0
 14658 0b45 00000000 		.4byte	0
 14659              	.LLST38:
 14660 0b49 B4020000 		.4byte	.LVL169
 14661 0b4d D0020000 		.4byte	.LVL173
 14662 0b51 0200     		.2byte	0x2
 14663 0b53 90       		.byte	0x90
 14664 0b54 50       		.uleb128 0x50
 14665 0b55 00000000 		.4byte	0
 14666 0b59 00000000 		.4byte	0
 14667              	.LLST39:
 14668 0b5d F0020000 		.4byte	.LVL175
 14669 0b61 0A030000 		.4byte	.LVL177
 14670 0b65 0200     		.2byte	0x2
 14671 0b67 35       		.byte	0x35
 14672 0b68 9F       		.byte	0x9f
 14673 0b69 AE050000 		.4byte	.LVL225
 14674 0b6d C0050000 		.4byte	.LVL226
 14675 0b71 0200     		.2byte	0x2
 14676 0b73 35       		.byte	0x35
 14677 0b74 9F       		.byte	0x9f
 14678 0b75 00000000 		.4byte	0
 14679 0b79 00000000 		.4byte	0
 14680              	.LLST40:
 14681 0b7d 6C030000 		.4byte	.LVL186
 14682 0b81 C4030000 		.4byte	.LVL188
 14683 0b85 0200     		.2byte	0x2
 14684 0b87 36       		.byte	0x36
 14685 0b88 9F       		.byte	0x9f
 14686 0b89 9C050000 		.4byte	.LVL224
ARM GAS  /tmp/ccB9RVXV.s 			page 261


 14687 0b8d AE050000 		.4byte	.LVL225
 14688 0b91 0200     		.2byte	0x2
 14689 0b93 36       		.byte	0x36
 14690 0b94 9F       		.byte	0x9f
 14691 0b95 00000000 		.4byte	0
 14692 0b99 00000000 		.4byte	0
 14693              	.LLST41:
 14694 0b9d D6030000 		.4byte	.LVL189
 14695 0ba1 E8030000 		.4byte	.LVL190
 14696 0ba5 0200     		.2byte	0x2
 14697 0ba7 90       		.byte	0x90
 14698 0ba8 43       		.uleb128 0x43
 14699 0ba9 FA030000 		.4byte	.LVL191
 14700 0bad FD030000 		.4byte	.LVL192-1
 14701 0bb1 0200     		.2byte	0x2
 14702 0bb3 90       		.byte	0x90
 14703 0bb4 43       		.uleb128 0x43
 14704 0bb5 FE030000 		.4byte	.LVL192
 14705 0bb9 66040000 		.4byte	.LVL195
 14706 0bbd 0200     		.2byte	0x2
 14707 0bbf 90       		.byte	0x90
 14708 0bc0 40       		.uleb128 0x40
 14709 0bc1 76050000 		.4byte	.LVL221
 14710 0bc5 7C050000 		.4byte	.LVL222
 14711 0bc9 0200     		.2byte	0x2
 14712 0bcb 90       		.byte	0x90
 14713 0bcc 40       		.uleb128 0x40
 14714 0bcd C6050000 		.4byte	.LVL227
 14715 0bd1 D8050000 		.4byte	.LFE314
 14716 0bd5 0200     		.2byte	0x2
 14717 0bd7 90       		.byte	0x90
 14718 0bd8 40       		.uleb128 0x40
 14719 0bd9 00000000 		.4byte	0
 14720 0bdd 00000000 		.4byte	0
 14721              	.LLST42:
 14722 0be1 78040000 		.4byte	.LVL196
 14723 0be5 8A040000 		.4byte	.LVL197
 14724 0be9 0200     		.2byte	0x2
 14725 0beb 90       		.byte	0x90
 14726 0bec 43       		.uleb128 0x43
 14727 0bed 9C040000 		.4byte	.LVL198
 14728 0bf1 9F040000 		.4byte	.LVL199-1
 14729 0bf5 0200     		.2byte	0x2
 14730 0bf7 90       		.byte	0x90
 14731 0bf8 43       		.uleb128 0x43
 14732 0bf9 A0040000 		.4byte	.LVL199
 14733 0bfd EA040000 		.4byte	.LVL202
 14734 0c01 0200     		.2byte	0x2
 14735 0c03 90       		.byte	0x90
 14736 0c04 40       		.uleb128 0x40
 14737 0c05 7C050000 		.4byte	.LVL222
 14738 0c09 9C050000 		.4byte	.LVL224
 14739 0c0d 0200     		.2byte	0x2
 14740 0c0f 90       		.byte	0x90
 14741 0c10 40       		.uleb128 0x40
 14742 0c11 C0050000 		.4byte	.LVL226
 14743 0c15 C6050000 		.4byte	.LVL227
ARM GAS  /tmp/ccB9RVXV.s 			page 262


 14744 0c19 0200     		.2byte	0x2
 14745 0c1b 90       		.byte	0x90
 14746 0c1c 40       		.uleb128 0x40
 14747 0c1d 00000000 		.4byte	0
 14748 0c21 00000000 		.4byte	0
 14749              	.LLST43:
 14750 0c25 00000000 		.4byte	.LVL228
 14751 0c29 15000000 		.4byte	.LVL229-1
 14752 0c2d 0100     		.2byte	0x1
 14753 0c2f 50       		.byte	0x50
 14754 0c30 15000000 		.4byte	.LVL229-1
 14755 0c34 5A000000 		.4byte	.LVL232
 14756 0c38 0100     		.2byte	0x1
 14757 0c3a 54       		.byte	0x54
 14758 0c3b 5A000000 		.4byte	.LVL232
 14759 0c3f 5E000000 		.4byte	.LVL233
 14760 0c43 0400     		.2byte	0x4
 14761 0c45 F3       		.byte	0xf3
 14762 0c46 01       		.uleb128 0x1
 14763 0c47 50       		.byte	0x50
 14764 0c48 9F       		.byte	0x9f
 14765 0c49 5E000000 		.4byte	.LVL233
 14766 0c4d 66000000 		.4byte	.LVL235
 14767 0c51 0100     		.2byte	0x1
 14768 0c53 54       		.byte	0x54
 14769 0c54 66000000 		.4byte	.LVL235
 14770 0c58 6A000000 		.4byte	.LVL236
 14771 0c5c 0400     		.2byte	0x4
 14772 0c5e F3       		.byte	0xf3
 14773 0c5f 01       		.uleb128 0x1
 14774 0c60 50       		.byte	0x50
 14775 0c61 9F       		.byte	0x9f
 14776 0c62 6A000000 		.4byte	.LVL236
 14777 0c66 C8000000 		.4byte	.LFE258
 14778 0c6a 0100     		.2byte	0x1
 14779 0c6c 54       		.byte	0x54
 14780 0c6d 00000000 		.4byte	0
 14781 0c71 00000000 		.4byte	0
 14782              	.LLST44:
 14783 0c75 00000000 		.4byte	.LVL246
 14784 0c79 1A000000 		.4byte	.LVL247
 14785 0c7d 0100     		.2byte	0x1
 14786 0c7f 50       		.byte	0x50
 14787 0c80 1A000000 		.4byte	.LVL247
 14788 0c84 50000000 		.4byte	.LFE310
 14789 0c88 0400     		.2byte	0x4
 14790 0c8a F3       		.byte	0xf3
 14791 0c8b 01       		.uleb128 0x1
 14792 0c8c 50       		.byte	0x50
 14793 0c8d 9F       		.byte	0x9f
 14794 0c8e 00000000 		.4byte	0
 14795 0c92 00000000 		.4byte	0
 14796              	.LLST45:
 14797 0c96 00000000 		.4byte	.LVL250
 14798 0c9a 11000000 		.4byte	.LVL251-1
 14799 0c9e 0100     		.2byte	0x1
 14800 0ca0 50       		.byte	0x50
ARM GAS  /tmp/ccB9RVXV.s 			page 263


 14801 0ca1 11000000 		.4byte	.LVL251-1
 14802 0ca5 12000000 		.4byte	.LVL251
 14803 0ca9 0400     		.2byte	0x4
 14804 0cab F3       		.byte	0xf3
 14805 0cac 01       		.uleb128 0x1
 14806 0cad 50       		.byte	0x50
 14807 0cae 9F       		.byte	0x9f
 14808 0caf 12000000 		.4byte	.LVL251
 14809 0cb3 14000000 		.4byte	.LVL252
 14810 0cb7 0100     		.2byte	0x1
 14811 0cb9 50       		.byte	0x50
 14812 0cba 14000000 		.4byte	.LVL252
 14813 0cbe 16000000 		.4byte	.LVL253
 14814 0cc2 0400     		.2byte	0x4
 14815 0cc4 F3       		.byte	0xf3
 14816 0cc5 01       		.uleb128 0x1
 14817 0cc6 50       		.byte	0x50
 14818 0cc7 9F       		.byte	0x9f
 14819 0cc8 16000000 		.4byte	.LVL253
 14820 0ccc 19000000 		.4byte	.LVL254-1
 14821 0cd0 0100     		.2byte	0x1
 14822 0cd2 50       		.byte	0x50
 14823 0cd3 19000000 		.4byte	.LVL254-1
 14824 0cd7 20000000 		.4byte	.LFE293
 14825 0cdb 0400     		.2byte	0x4
 14826 0cdd F3       		.byte	0xf3
 14827 0cde 01       		.uleb128 0x1
 14828 0cdf 50       		.byte	0x50
 14829 0ce0 9F       		.byte	0x9f
 14830 0ce1 00000000 		.4byte	0
 14831 0ce5 00000000 		.4byte	0
 14832              	.LLST46:
 14833 0ce9 0C000000 		.4byte	.LVL258
 14834 0ced 14000000 		.4byte	.LVL259
 14835 0cf1 0800     		.2byte	0x8
 14836 0cf3 F5       		.byte	0xf5
 14837 0cf4 40       		.uleb128 0x40
 14838 0cf5 25       		.uleb128 0x25
 14839 0cf6 F5       		.byte	0xf5
 14840 0cf7 4F       		.uleb128 0x4f
 14841 0cf8 25       		.uleb128 0x25
 14842 0cf9 1B       		.byte	0x1b
 14843 0cfa 9F       		.byte	0x9f
 14844 0cfb 14000000 		.4byte	.LVL259
 14845 0cff 20000000 		.4byte	.LFE295
 14846 0d03 0200     		.2byte	0x2
 14847 0d05 90       		.byte	0x90
 14848 0d06 40       		.uleb128 0x40
 14849 0d07 00000000 		.4byte	0
 14850 0d0b 00000000 		.4byte	0
 14851              	.LLST47:
 14852 0d0f 0C000000 		.4byte	.LVL260
 14853 0d13 14000000 		.4byte	.LVL261
 14854 0d17 0800     		.2byte	0x8
 14855 0d19 F5       		.byte	0xf5
 14856 0d1a 40       		.uleb128 0x40
 14857 0d1b 25       		.uleb128 0x25
ARM GAS  /tmp/ccB9RVXV.s 			page 264


 14858 0d1c F5       		.byte	0xf5
 14859 0d1d 4F       		.uleb128 0x4f
 14860 0d1e 25       		.uleb128 0x25
 14861 0d1f 1B       		.byte	0x1b
 14862 0d20 9F       		.byte	0x9f
 14863 0d21 14000000 		.4byte	.LVL261
 14864 0d25 20000000 		.4byte	.LFE296
 14865 0d29 0200     		.2byte	0x2
 14866 0d2b 90       		.byte	0x90
 14867 0d2c 40       		.uleb128 0x40
 14868 0d2d 00000000 		.4byte	0
 14869 0d31 00000000 		.4byte	0
 14870              	.LLST48:
 14871 0d35 00000000 		.4byte	.LVL264
 14872 0d39 14000000 		.4byte	.LVL265
 14873 0d3d 0600     		.2byte	0x6
 14874 0d3f 9E       		.byte	0x9e
 14875 0d40 04       		.uleb128 0x4
 14876 0d41 00000000 		.4byte	0
 14877 0d45 14000000 		.4byte	.LVL265
 14878 0d49 2C000000 		.4byte	.LVL266
 14879 0d4d 0200     		.2byte	0x2
 14880 0d4f 90       		.byte	0x90
 14881 0d50 40       		.uleb128 0x40
 14882 0d51 2E000000 		.4byte	.LVL267
 14883 0d55 32000000 		.4byte	.LVL268
 14884 0d59 0600     		.2byte	0x6
 14885 0d5b 9E       		.byte	0x9e
 14886 0d5c 04       		.uleb128 0x4
 14887 0d5d 00000000 		.4byte	0
 14888 0d61 32000000 		.4byte	.LVL268
 14889 0d65 34000000 		.4byte	.LVL269
 14890 0d69 0200     		.2byte	0x2
 14891 0d6b 90       		.byte	0x90
 14892 0d6c 40       		.uleb128 0x40
 14893 0d6d 34000000 		.4byte	.LVL269
 14894 0d71 38000000 		.4byte	.LVL270
 14895 0d75 0600     		.2byte	0x6
 14896 0d77 9E       		.byte	0x9e
 14897 0d78 04       		.uleb128 0x4
 14898 0d79 00000000 		.4byte	0
 14899 0d7d 38000000 		.4byte	.LVL270
 14900 0d81 44000000 		.4byte	.LFE300
 14901 0d85 0200     		.2byte	0x2
 14902 0d87 90       		.byte	0x90
 14903 0d88 40       		.uleb128 0x40
 14904 0d89 00000000 		.4byte	0
 14905 0d8d 00000000 		.4byte	0
 14906              	.LLST49:
 14907 0d91 00000000 		.4byte	.LVL271
 14908 0d95 3C000000 		.4byte	.LVL274
 14909 0d99 0100     		.2byte	0x1
 14910 0d9b 50       		.byte	0x50
 14911 0d9c 3C000000 		.4byte	.LVL274
 14912 0da0 5C000000 		.4byte	.LFE302
 14913 0da4 0400     		.2byte	0x4
 14914 0da6 F3       		.byte	0xf3
ARM GAS  /tmp/ccB9RVXV.s 			page 265


 14915 0da7 01       		.uleb128 0x1
 14916 0da8 50       		.byte	0x50
 14917 0da9 9F       		.byte	0x9f
 14918 0daa 00000000 		.4byte	0
 14919 0dae 00000000 		.4byte	0
 14920              	.LLST50:
 14921 0db2 00000000 		.4byte	.LVL271
 14922 0db6 0A000000 		.4byte	.LVL272
 14923 0dba 0100     		.2byte	0x1
 14924 0dbc 51       		.byte	0x51
 14925 0dbd 0A000000 		.4byte	.LVL272
 14926 0dc1 3A000000 		.4byte	.LVL273
 14927 0dc5 0100     		.2byte	0x1
 14928 0dc7 51       		.byte	0x51
 14929 0dc8 00000000 		.4byte	0
 14930 0dcc 00000000 		.4byte	0
 14931              	.LLST51:
 14932 0dd0 00000000 		.4byte	.LVL271
 14933 0dd4 43000000 		.4byte	.LVL275-1
 14934 0dd8 0100     		.2byte	0x1
 14935 0dda 52       		.byte	0x52
 14936 0ddb 43000000 		.4byte	.LVL275-1
 14937 0ddf 5C000000 		.4byte	.LFE302
 14938 0de3 0400     		.2byte	0x4
 14939 0de5 F3       		.byte	0xf3
 14940 0de6 01       		.uleb128 0x1
 14941 0de7 52       		.byte	0x52
 14942 0de8 9F       		.byte	0x9f
 14943 0de9 00000000 		.4byte	0
 14944 0ded 00000000 		.4byte	0
 14945              	.LLST52:
 14946 0df1 0E000000 		.4byte	.LVL277
 14947 0df5 2A000000 		.4byte	.LVL280
 14948 0df9 0100     		.2byte	0x1
 14949 0dfb 54       		.byte	0x54
 14950 0dfc 2A000000 		.4byte	.LVL280
 14951 0e00 2C000000 		.4byte	.LVL281
 14952 0e04 0200     		.2byte	0x2
 14953 0e06 31       		.byte	0x31
 14954 0e07 9F       		.byte	0x9f
 14955 0e08 2C000000 		.4byte	.LVL281
 14956 0e0c 54000000 		.4byte	.LVL286
 14957 0e10 0100     		.2byte	0x1
 14958 0e12 54       		.byte	0x54
 14959 0e13 60000000 		.4byte	.LVL288
 14960 0e17 74000000 		.4byte	.LFE305
 14961 0e1b 0400     		.2byte	0x4
 14962 0e1d 0A       		.byte	0xa
 14963 0e1e F401     		.2byte	0x1f4
 14964 0e20 9F       		.byte	0x9f
 14965 0e21 00000000 		.4byte	0
 14966 0e25 00000000 		.4byte	0
 14967              	.LLST53:
 14968 0e29 00000000 		.4byte	.LVL289
 14969 0e2d 0D000000 		.4byte	.LVL290-1
 14970 0e31 0200     		.2byte	0x2
 14971 0e33 90       		.byte	0x90
ARM GAS  /tmp/ccB9RVXV.s 			page 266


 14972 0e34 40       		.uleb128 0x40
 14973 0e35 0D000000 		.4byte	.LVL290-1
 14974 0e39 3A000000 		.4byte	.LVL291
 14975 0e3d 0200     		.2byte	0x2
 14976 0e3f 90       		.byte	0x90
 14977 0e40 50       		.uleb128 0x50
 14978 0e41 3A000000 		.4byte	.LVL291
 14979 0e45 42000000 		.4byte	.LVL292
 14980 0e49 0600     		.2byte	0x6
 14981 0e4b F3       		.byte	0xf3
 14982 0e4c 03       		.uleb128 0x3
 14983 0e4d F5       		.byte	0xf5
 14984 0e4e 40       		.uleb128 0x40
 14985 0e4f 25       		.uleb128 0x25
 14986 0e50 9F       		.byte	0x9f
 14987 0e51 42000000 		.4byte	.LVL292
 14988 0e55 46000000 		.4byte	.LVL293
 14989 0e59 0200     		.2byte	0x2
 14990 0e5b 90       		.byte	0x90
 14991 0e5c 50       		.uleb128 0x50
 14992 0e5d 46000000 		.4byte	.LVL293
 14993 0e61 48000000 		.4byte	.LVL294
 14994 0e65 0600     		.2byte	0x6
 14995 0e67 F3       		.byte	0xf3
 14996 0e68 03       		.uleb128 0x3
 14997 0e69 F5       		.byte	0xf5
 14998 0e6a 40       		.uleb128 0x40
 14999 0e6b 25       		.uleb128 0x25
 15000 0e6c 9F       		.byte	0x9f
 15001 0e6d 48000000 		.4byte	.LVL294
 15002 0e71 64000000 		.4byte	.LVL295
 15003 0e75 0200     		.2byte	0x2
 15004 0e77 90       		.byte	0x90
 15005 0e78 50       		.uleb128 0x50
 15006 0e79 64000000 		.4byte	.LVL295
 15007 0e7d 70000000 		.4byte	.LFE267
 15008 0e81 0600     		.2byte	0x6
 15009 0e83 F3       		.byte	0xf3
 15010 0e84 03       		.uleb128 0x3
 15011 0e85 F5       		.byte	0xf5
 15012 0e86 40       		.uleb128 0x40
 15013 0e87 25       		.uleb128 0x25
 15014 0e88 9F       		.byte	0x9f
 15015 0e89 00000000 		.4byte	0
 15016 0e8d 00000000 		.4byte	0
 15017              	.LLST54:
 15018 0e91 00000000 		.4byte	.LVL298
 15019 0e95 0D000000 		.4byte	.LVL299-1
 15020 0e99 0200     		.2byte	0x2
 15021 0e9b 90       		.byte	0x90
 15022 0e9c 40       		.uleb128 0x40
 15023 0e9d 0D000000 		.4byte	.LVL299-1
 15024 0ea1 3A000000 		.4byte	.LVL300
 15025 0ea5 0200     		.2byte	0x2
 15026 0ea7 90       		.byte	0x90
 15027 0ea8 50       		.uleb128 0x50
 15028 0ea9 3A000000 		.4byte	.LVL300
ARM GAS  /tmp/ccB9RVXV.s 			page 267


 15029 0ead 42000000 		.4byte	.LVL301
 15030 0eb1 0600     		.2byte	0x6
 15031 0eb3 F3       		.byte	0xf3
 15032 0eb4 03       		.uleb128 0x3
 15033 0eb5 F5       		.byte	0xf5
 15034 0eb6 40       		.uleb128 0x40
 15035 0eb7 25       		.uleb128 0x25
 15036 0eb8 9F       		.byte	0x9f
 15037 0eb9 42000000 		.4byte	.LVL301
 15038 0ebd 46000000 		.4byte	.LVL302
 15039 0ec1 0200     		.2byte	0x2
 15040 0ec3 90       		.byte	0x90
 15041 0ec4 50       		.uleb128 0x50
 15042 0ec5 46000000 		.4byte	.LVL302
 15043 0ec9 48000000 		.4byte	.LVL303
 15044 0ecd 0600     		.2byte	0x6
 15045 0ecf F3       		.byte	0xf3
 15046 0ed0 03       		.uleb128 0x3
 15047 0ed1 F5       		.byte	0xf5
 15048 0ed2 40       		.uleb128 0x40
 15049 0ed3 25       		.uleb128 0x25
 15050 0ed4 9F       		.byte	0x9f
 15051 0ed5 48000000 		.4byte	.LVL303
 15052 0ed9 64000000 		.4byte	.LVL304
 15053 0edd 0200     		.2byte	0x2
 15054 0edf 90       		.byte	0x90
 15055 0ee0 50       		.uleb128 0x50
 15056 0ee1 64000000 		.4byte	.LVL304
 15057 0ee5 70000000 		.4byte	.LFE268
 15058 0ee9 0600     		.2byte	0x6
 15059 0eeb F3       		.byte	0xf3
 15060 0eec 03       		.uleb128 0x3
 15061 0eed F5       		.byte	0xf5
 15062 0eee 40       		.uleb128 0x40
 15063 0eef 25       		.uleb128 0x25
 15064 0ef0 9F       		.byte	0x9f
 15065 0ef1 00000000 		.4byte	0
 15066 0ef5 00000000 		.4byte	0
 15067              	.LLST55:
 15068 0ef9 00000000 		.4byte	.LVL306
 15069 0efd 0D000000 		.4byte	.LVL307-1
 15070 0f01 0200     		.2byte	0x2
 15071 0f03 90       		.byte	0x90
 15072 0f04 40       		.uleb128 0x40
 15073 0f05 0D000000 		.4byte	.LVL307-1
 15074 0f09 3A000000 		.4byte	.LVL308
 15075 0f0d 0200     		.2byte	0x2
 15076 0f0f 90       		.byte	0x90
 15077 0f10 50       		.uleb128 0x50
 15078 0f11 3A000000 		.4byte	.LVL308
 15079 0f15 42000000 		.4byte	.LVL309
 15080 0f19 0600     		.2byte	0x6
 15081 0f1b F3       		.byte	0xf3
 15082 0f1c 03       		.uleb128 0x3
 15083 0f1d F5       		.byte	0xf5
 15084 0f1e 40       		.uleb128 0x40
 15085 0f1f 25       		.uleb128 0x25
ARM GAS  /tmp/ccB9RVXV.s 			page 268


 15086 0f20 9F       		.byte	0x9f
 15087 0f21 42000000 		.4byte	.LVL309
 15088 0f25 46000000 		.4byte	.LVL310
 15089 0f29 0200     		.2byte	0x2
 15090 0f2b 90       		.byte	0x90
 15091 0f2c 50       		.uleb128 0x50
 15092 0f2d 46000000 		.4byte	.LVL310
 15093 0f31 48000000 		.4byte	.LVL311
 15094 0f35 0600     		.2byte	0x6
 15095 0f37 F3       		.byte	0xf3
 15096 0f38 03       		.uleb128 0x3
 15097 0f39 F5       		.byte	0xf5
 15098 0f3a 40       		.uleb128 0x40
 15099 0f3b 25       		.uleb128 0x25
 15100 0f3c 9F       		.byte	0x9f
 15101 0f3d 48000000 		.4byte	.LVL311
 15102 0f41 64000000 		.4byte	.LVL312
 15103 0f45 0200     		.2byte	0x2
 15104 0f47 90       		.byte	0x90
 15105 0f48 50       		.uleb128 0x50
 15106 0f49 64000000 		.4byte	.LVL312
 15107 0f4d 70000000 		.4byte	.LFE269
 15108 0f51 0600     		.2byte	0x6
 15109 0f53 F3       		.byte	0xf3
 15110 0f54 03       		.uleb128 0x3
 15111 0f55 F5       		.byte	0xf5
 15112 0f56 40       		.uleb128 0x40
 15113 0f57 25       		.uleb128 0x25
 15114 0f58 9F       		.byte	0x9f
 15115 0f59 00000000 		.4byte	0
 15116 0f5d 00000000 		.4byte	0
 15117              	.LLST56:
 15118 0f61 00000000 		.4byte	.LVL314
 15119 0f65 0D000000 		.4byte	.LVL315-1
 15120 0f69 0200     		.2byte	0x2
 15121 0f6b 90       		.byte	0x90
 15122 0f6c 40       		.uleb128 0x40
 15123 0f6d 0D000000 		.4byte	.LVL315-1
 15124 0f71 28000000 		.4byte	.LVL316
 15125 0f75 0200     		.2byte	0x2
 15126 0f77 90       		.byte	0x90
 15127 0f78 50       		.uleb128 0x50
 15128 0f79 28000000 		.4byte	.LVL316
 15129 0f7d 4B000000 		.4byte	.LVL317-1
 15130 0f81 0500     		.2byte	0x5
 15131 0f83 03       		.byte	0x3
 15132 0f84 00000000 		.4byte	m_position_set
 15133 0f88 4B000000 		.4byte	.LVL317-1
 15134 0f8c 4C000000 		.4byte	.LVL317
 15135 0f90 0600     		.2byte	0x6
 15136 0f92 F3       		.byte	0xf3
 15137 0f93 03       		.uleb128 0x3
 15138 0f94 F5       		.byte	0xf5
 15139 0f95 40       		.uleb128 0x40
 15140 0f96 25       		.uleb128 0x25
 15141 0f97 9F       		.byte	0x9f
 15142 0f98 4C000000 		.4byte	.LVL317
ARM GAS  /tmp/ccB9RVXV.s 			page 269


 15143 0f9c 50000000 		.4byte	.LVL318
 15144 0fa0 0200     		.2byte	0x2
 15145 0fa2 90       		.byte	0x90
 15146 0fa3 50       		.uleb128 0x50
 15147 0fa4 50000000 		.4byte	.LVL318
 15148 0fa8 52000000 		.4byte	.LVL319
 15149 0fac 0600     		.2byte	0x6
 15150 0fae F3       		.byte	0xf3
 15151 0faf 03       		.uleb128 0x3
 15152 0fb0 F5       		.byte	0xf5
 15153 0fb1 40       		.uleb128 0x40
 15154 0fb2 25       		.uleb128 0x25
 15155 0fb3 9F       		.byte	0x9f
 15156 0fb4 52000000 		.4byte	.LVL319
 15157 0fb8 56000000 		.4byte	.LVL320
 15158 0fbc 0200     		.2byte	0x2
 15159 0fbe 90       		.byte	0x90
 15160 0fbf 50       		.uleb128 0x50
 15161 0fc0 56000000 		.4byte	.LVL320
 15162 0fc4 79000000 		.4byte	.LVL321-1
 15163 0fc8 0500     		.2byte	0x5
 15164 0fca 03       		.byte	0x3
 15165 0fcb 00000000 		.4byte	m_position_set
 15166 0fcf 79000000 		.4byte	.LVL321-1
 15167 0fd3 84000000 		.4byte	.LFE270
 15168 0fd7 0600     		.2byte	0x6
 15169 0fd9 F3       		.byte	0xf3
 15170 0fda 03       		.uleb128 0x3
 15171 0fdb F5       		.byte	0xf5
 15172 0fdc 40       		.uleb128 0x40
 15173 0fdd 25       		.uleb128 0x25
 15174 0fde 9F       		.byte	0x9f
 15175 0fdf 00000000 		.4byte	0
 15176 0fe3 00000000 		.4byte	0
 15177              	.LLST57:
 15178 0fe7 00000000 		.4byte	.LVL322
 15179 0feb 0D000000 		.4byte	.LVL323-1
 15180 0fef 0200     		.2byte	0x2
 15181 0ff1 90       		.byte	0x90
 15182 0ff2 40       		.uleb128 0x40
 15183 0ff3 0D000000 		.4byte	.LVL323-1
 15184 0ff7 3A000000 		.4byte	.LVL324
 15185 0ffb 0200     		.2byte	0x2
 15186 0ffd 90       		.byte	0x90
 15187 0ffe 50       		.uleb128 0x50
 15188 0fff 3A000000 		.4byte	.LVL324
 15189 1003 42000000 		.4byte	.LVL325
 15190 1007 0600     		.2byte	0x6
 15191 1009 F3       		.byte	0xf3
 15192 100a 03       		.uleb128 0x3
 15193 100b F5       		.byte	0xf5
 15194 100c 40       		.uleb128 0x40
 15195 100d 25       		.uleb128 0x25
 15196 100e 9F       		.byte	0x9f
 15197 100f 42000000 		.4byte	.LVL325
 15198 1013 46000000 		.4byte	.LVL326
 15199 1017 0200     		.2byte	0x2
ARM GAS  /tmp/ccB9RVXV.s 			page 270


 15200 1019 90       		.byte	0x90
 15201 101a 50       		.uleb128 0x50
 15202 101b 46000000 		.4byte	.LVL326
 15203 101f 48000000 		.4byte	.LVL327
 15204 1023 0600     		.2byte	0x6
 15205 1025 F3       		.byte	0xf3
 15206 1026 03       		.uleb128 0x3
 15207 1027 F5       		.byte	0xf5
 15208 1028 40       		.uleb128 0x40
 15209 1029 25       		.uleb128 0x25
 15210 102a 9F       		.byte	0x9f
 15211 102b 48000000 		.4byte	.LVL327
 15212 102f 64000000 		.4byte	.LVL328
 15213 1033 0200     		.2byte	0x2
 15214 1035 90       		.byte	0x90
 15215 1036 50       		.uleb128 0x50
 15216 1037 64000000 		.4byte	.LVL328
 15217 103b 70000000 		.4byte	.LFE271
 15218 103f 0600     		.2byte	0x6
 15219 1041 F3       		.byte	0xf3
 15220 1042 03       		.uleb128 0x3
 15221 1043 F5       		.byte	0xf5
 15222 1044 40       		.uleb128 0x40
 15223 1045 25       		.uleb128 0x25
 15224 1046 9F       		.byte	0x9f
 15225 1047 00000000 		.4byte	0
 15226 104b 00000000 		.4byte	0
 15227              	.LLST58:
 15228 104f 48000000 		.4byte	.LVL327
 15229 1053 64000000 		.4byte	.LVL328
 15230 1057 0200     		.2byte	0x2
 15231 1059 90       		.byte	0x90
 15232 105a 50       		.uleb128 0x50
 15233 105b 64000000 		.4byte	.LVL328
 15234 105f 70000000 		.4byte	.LFE271
 15235 1063 0600     		.2byte	0x6
 15236 1065 F3       		.byte	0xf3
 15237 1066 03       		.uleb128 0x3
 15238 1067 F5       		.byte	0xf5
 15239 1068 40       		.uleb128 0x40
 15240 1069 25       		.uleb128 0x25
 15241 106a 9F       		.byte	0x9f
 15242 106b 00000000 		.4byte	0
 15243 106f 00000000 		.4byte	0
 15244              	.LLST59:
 15245 1073 00000000 		.4byte	.LVL330
 15246 1077 14000000 		.4byte	.LVL331
 15247 107b 0200     		.2byte	0x2
 15248 107d 90       		.byte	0x90
 15249 107e 40       		.uleb128 0x40
 15250 107f 14000000 		.4byte	.LVL331
 15251 1083 18000000 		.4byte	.LVL332
 15252 1087 0600     		.2byte	0x6
 15253 1089 F3       		.byte	0xf3
 15254 108a 03       		.uleb128 0x3
 15255 108b F5       		.byte	0xf5
 15256 108c 40       		.uleb128 0x40
ARM GAS  /tmp/ccB9RVXV.s 			page 271


 15257 108d 25       		.uleb128 0x25
 15258 108e 9F       		.byte	0x9f
 15259 108f 18000000 		.4byte	.LVL332
 15260 1093 24000000 		.4byte	.LVL333
 15261 1097 0200     		.2byte	0x2
 15262 1099 90       		.byte	0x90
 15263 109a 40       		.uleb128 0x40
 15264 109b 24000000 		.4byte	.LVL333
 15265 109f 2C000000 		.4byte	.LFE273
 15266 10a3 0600     		.2byte	0x6
 15267 10a5 F3       		.byte	0xf3
 15268 10a6 03       		.uleb128 0x3
 15269 10a7 F5       		.byte	0xf5
 15270 10a8 40       		.uleb128 0x40
 15271 10a9 25       		.uleb128 0x25
 15272 10aa 9F       		.byte	0x9f
 15273 10ab 00000000 		.4byte	0
 15274 10af 00000000 		.4byte	0
 15275              	.LLST60:
 15276 10b3 00000000 		.4byte	.LVL336
 15277 10b7 0D000000 		.4byte	.LVL337-1
 15278 10bb 0200     		.2byte	0x2
 15279 10bd 90       		.byte	0x90
 15280 10be 40       		.uleb128 0x40
 15281 10bf 0D000000 		.4byte	.LVL337-1
 15282 10c3 3A000000 		.4byte	.LVL338
 15283 10c7 0200     		.2byte	0x2
 15284 10c9 90       		.byte	0x90
 15285 10ca 50       		.uleb128 0x50
 15286 10cb 3A000000 		.4byte	.LVL338
 15287 10cf 42000000 		.4byte	.LVL339
 15288 10d3 0600     		.2byte	0x6
 15289 10d5 F3       		.byte	0xf3
 15290 10d6 03       		.uleb128 0x3
 15291 10d7 F5       		.byte	0xf5
 15292 10d8 40       		.uleb128 0x40
 15293 10d9 25       		.uleb128 0x25
 15294 10da 9F       		.byte	0x9f
 15295 10db 42000000 		.4byte	.LVL339
 15296 10df 46000000 		.4byte	.LVL340
 15297 10e3 0200     		.2byte	0x2
 15298 10e5 90       		.byte	0x90
 15299 10e6 50       		.uleb128 0x50
 15300 10e7 46000000 		.4byte	.LVL340
 15301 10eb 48000000 		.4byte	.LVL341
 15302 10ef 0600     		.2byte	0x6
 15303 10f1 F3       		.byte	0xf3
 15304 10f2 03       		.uleb128 0x3
 15305 10f3 F5       		.byte	0xf5
 15306 10f4 40       		.uleb128 0x40
 15307 10f5 25       		.uleb128 0x25
 15308 10f6 9F       		.byte	0x9f
 15309 10f7 48000000 		.4byte	.LVL341
 15310 10fb 64000000 		.4byte	.LVL342
 15311 10ff 0200     		.2byte	0x2
 15312 1101 90       		.byte	0x90
 15313 1102 50       		.uleb128 0x50
ARM GAS  /tmp/ccB9RVXV.s 			page 272


 15314 1103 64000000 		.4byte	.LVL342
 15315 1107 70000000 		.4byte	.LFE272
 15316 110b 0600     		.2byte	0x6
 15317 110d F3       		.byte	0xf3
 15318 110e 03       		.uleb128 0x3
 15319 110f F5       		.byte	0xf5
 15320 1110 40       		.uleb128 0x40
 15321 1111 25       		.uleb128 0x25
 15322 1112 9F       		.byte	0x9f
 15323 1113 00000000 		.4byte	0
 15324 1117 00000000 		.4byte	0
 15325              	.LLST61:
 15326 111b 00000000 		.4byte	.LVL344
 15327 111f 0A000000 		.4byte	.LVL345
 15328 1123 0200     		.2byte	0x2
 15329 1125 90       		.byte	0x90
 15330 1126 40       		.uleb128 0x40
 15331 1127 0A000000 		.4byte	.LVL345
 15332 112b 14000000 		.4byte	.LFE274
 15333 112f 0600     		.2byte	0x6
 15334 1131 F3       		.byte	0xf3
 15335 1132 03       		.uleb128 0x3
 15336 1133 F5       		.byte	0xf5
 15337 1134 40       		.uleb128 0x40
 15338 1135 25       		.uleb128 0x25
 15339 1136 9F       		.byte	0x9f
 15340 1137 00000000 		.4byte	0
 15341 113b 00000000 		.4byte	0
 15342              	.LLST62:
 15343 113f 00000000 		.4byte	.LVL347
 15344 1143 0D000000 		.4byte	.LVL348-1
 15345 1147 0200     		.2byte	0x2
 15346 1149 90       		.byte	0x90
 15347 114a 40       		.uleb128 0x40
 15348 114b 0D000000 		.4byte	.LVL348-1
 15349 114f 26000000 		.4byte	.LVL349
 15350 1153 0200     		.2byte	0x2
 15351 1155 90       		.byte	0x90
 15352 1156 50       		.uleb128 0x50
 15353 1157 26000000 		.4byte	.LVL349
 15354 115b 2D000000 		.4byte	.LVL350-1
 15355 115f 0200     		.2byte	0x2
 15356 1161 90       		.byte	0x90
 15357 1162 40       		.uleb128 0x40
 15358 1163 2D000000 		.4byte	.LVL350-1
 15359 1167 2E000000 		.4byte	.LVL350
 15360 116b 0600     		.2byte	0x6
 15361 116d F3       		.byte	0xf3
 15362 116e 03       		.uleb128 0x3
 15363 116f F5       		.byte	0xf5
 15364 1170 40       		.uleb128 0x40
 15365 1171 25       		.uleb128 0x25
 15366 1172 9F       		.byte	0x9f
 15367 1173 2E000000 		.4byte	.LVL350
 15368 1177 32000000 		.4byte	.LVL351
 15369 117b 0200     		.2byte	0x2
 15370 117d 90       		.byte	0x90
ARM GAS  /tmp/ccB9RVXV.s 			page 273


 15371 117e 50       		.uleb128 0x50
 15372 117f 32000000 		.4byte	.LVL351
 15373 1183 34000000 		.4byte	.LVL352
 15374 1187 0600     		.2byte	0x6
 15375 1189 F3       		.byte	0xf3
 15376 118a 03       		.uleb128 0x3
 15377 118b F5       		.byte	0xf5
 15378 118c 40       		.uleb128 0x40
 15379 118d 25       		.uleb128 0x25
 15380 118e 9F       		.byte	0x9f
 15381 118f 34000000 		.4byte	.LVL352
 15382 1193 3C000000 		.4byte	.LVL353
 15383 1197 0200     		.2byte	0x2
 15384 1199 90       		.byte	0x90
 15385 119a 50       		.uleb128 0x50
 15386 119b 3C000000 		.4byte	.LVL353
 15387 119f 43000000 		.4byte	.LVL354-1
 15388 11a3 0200     		.2byte	0x2
 15389 11a5 90       		.byte	0x90
 15390 11a6 40       		.uleb128 0x40
 15391 11a7 43000000 		.4byte	.LVL354-1
 15392 11ab 48000000 		.4byte	.LFE275
 15393 11af 0600     		.2byte	0x6
 15394 11b1 F3       		.byte	0xf3
 15395 11b2 03       		.uleb128 0x3
 15396 11b3 F5       		.byte	0xf5
 15397 11b4 40       		.uleb128 0x40
 15398 11b5 25       		.uleb128 0x25
 15399 11b6 9F       		.byte	0x9f
 15400 11b7 00000000 		.4byte	0
 15401 11bb 00000000 		.4byte	0
 15402              	.LLST63:
 15403 11bf 00000000 		.4byte	.LVL355
 15404 11c3 0B000000 		.4byte	.LVL356-1
 15405 11c7 0100     		.2byte	0x1
 15406 11c9 50       		.byte	0x50
 15407 11ca 0B000000 		.4byte	.LVL356-1
 15408 11ce 0C000000 		.4byte	.LVL356
 15409 11d2 0400     		.2byte	0x4
 15410 11d4 F3       		.byte	0xf3
 15411 11d5 01       		.uleb128 0x1
 15412 11d6 50       		.byte	0x50
 15413 11d7 9F       		.byte	0x9f
 15414 11d8 0C000000 		.4byte	.LVL356
 15415 11dc 24000000 		.4byte	.LFE306
 15416 11e0 0100     		.2byte	0x1
 15417 11e2 50       		.byte	0x50
 15418 11e3 00000000 		.4byte	0
 15419 11e7 00000000 		.4byte	0
 15420              	.LLST64:
 15421 11eb 30000000 		.4byte	.LVL358
 15422 11ef 7A030000 		.4byte	.LVL393
 15423 11f3 0200     		.2byte	0x2
 15424 11f5 90       		.byte	0x90
 15425 11f6 52       		.uleb128 0x52
 15426 11f7 7E030000 		.4byte	.LVL394
 15427 11fb EE030000 		.4byte	.LVL405
ARM GAS  /tmp/ccB9RVXV.s 			page 274


 15428 11ff 0200     		.2byte	0x2
 15429 1201 90       		.byte	0x90
 15430 1202 52       		.uleb128 0x52
 15431 1203 F2030000 		.4byte	.LVL406
 15432 1207 E0060000 		.4byte	.LFE307
 15433 120b 0200     		.2byte	0x2
 15434 120d 90       		.byte	0x90
 15435 120e 52       		.uleb128 0x52
 15436 120f 00000000 		.4byte	0
 15437 1213 00000000 		.4byte	0
 15438              	.LLST65:
 15439 1217 7A000000 		.4byte	.LVL362
 15440 121b 7D000000 		.4byte	.LVL363-1
 15441 121f 0200     		.2byte	0x2
 15442 1221 90       		.byte	0x90
 15443 1222 40       		.uleb128 0x40
 15444 1223 7D000000 		.4byte	.LVL363-1
 15445 1227 4E010000 		.4byte	.LVL375
 15446 122b 0200     		.2byte	0x2
 15447 122d 90       		.byte	0x90
 15448 122e 51       		.uleb128 0x51
 15449 122f DC010000 		.4byte	.LVL379
 15450 1233 58020000 		.4byte	.LVL383
 15451 1237 0200     		.2byte	0x2
 15452 1239 90       		.byte	0x90
 15453 123a 51       		.uleb128 0x51
 15454 123b 7A040000 		.4byte	.LVL417
 15455 123f 8E040000 		.4byte	.LVL419
 15456 1243 0200     		.2byte	0x2
 15457 1245 90       		.byte	0x90
 15458 1246 51       		.uleb128 0x51
 15459 1247 AA040000 		.4byte	.LVL423
 15460 124b B8040000 		.4byte	.LVL427
 15461 124f 0200     		.2byte	0x2
 15462 1251 90       		.byte	0x90
 15463 1252 51       		.uleb128 0x51
 15464 1253 00000000 		.4byte	0
 15465 1257 00000000 		.4byte	0
 15466              	.LLST66:
 15467 125b A2000000 		.4byte	.LVL364
 15468 125f C1000000 		.4byte	.LVL365-1
 15469 1263 0200     		.2byte	0x2
 15470 1265 90       		.byte	0x90
 15471 1266 40       		.uleb128 0x40
 15472 1267 C1000000 		.4byte	.LVL365-1
 15473 126b 6C010000 		.4byte	.LVL377
 15474 126f 0200     		.2byte	0x2
 15475 1271 90       		.byte	0x90
 15476 1272 53       		.uleb128 0x53
 15477 1273 DC010000 		.4byte	.LVL379
 15478 1277 58020000 		.4byte	.LVL383
 15479 127b 0200     		.2byte	0x2
 15480 127d 90       		.byte	0x90
 15481 127e 53       		.uleb128 0x53
 15482 127f 7A040000 		.4byte	.LVL417
 15483 1283 8E040000 		.4byte	.LVL419
 15484 1287 0200     		.2byte	0x2
ARM GAS  /tmp/ccB9RVXV.s 			page 275


 15485 1289 90       		.byte	0x90
 15486 128a 53       		.uleb128 0x53
 15487 128b AA040000 		.4byte	.LVL423
 15488 128f B8040000 		.4byte	.LVL427
 15489 1293 0200     		.2byte	0x2
 15490 1295 90       		.byte	0x90
 15491 1296 53       		.uleb128 0x53
 15492 1297 00000000 		.4byte	0
 15493 129b 00000000 		.4byte	0
 15494              	.LLST67:
 15495 129f 0A010000 		.4byte	.LVL368
 15496 12a3 12010000 		.4byte	.LVL369
 15497 12a7 0200     		.2byte	0x2
 15498 12a9 90       		.byte	0x90
 15499 12aa 40       		.uleb128 0x40
 15500 12ab 12010000 		.4byte	.LVL369
 15501 12af 2E010000 		.4byte	.LVL371
 15502 12b3 0200     		.2byte	0x2
 15503 12b5 90       		.byte	0x90
 15504 12b6 50       		.uleb128 0x50
 15505 12b7 DC010000 		.4byte	.LVL379
 15506 12bb E0010000 		.4byte	.LVL380
 15507 12bf 0200     		.2byte	0x2
 15508 12c1 90       		.byte	0x90
 15509 12c2 50       		.uleb128 0x50
 15510 12c3 AA040000 		.4byte	.LVL423
 15511 12c7 AD040000 		.4byte	.LVL424-1
 15512 12cb 0200     		.2byte	0x2
 15513 12cd 90       		.byte	0x90
 15514 12ce 40       		.uleb128 0x40
 15515 12cf AD040000 		.4byte	.LVL424-1
 15516 12d3 B2040000 		.4byte	.LVL425
 15517 12d7 0200     		.2byte	0x2
 15518 12d9 90       		.byte	0x90
 15519 12da 50       		.uleb128 0x50
 15520 12db B2040000 		.4byte	.LVL425
 15521 12df B5040000 		.4byte	.LVL426-1
 15522 12e3 0200     		.2byte	0x2
 15523 12e5 90       		.byte	0x90
 15524 12e6 40       		.uleb128 0x40
 15525 12e7 B5040000 		.4byte	.LVL426-1
 15526 12eb B8040000 		.4byte	.LVL427
 15527 12ef 0200     		.2byte	0x2
 15528 12f1 90       		.byte	0x90
 15529 12f2 50       		.uleb128 0x50
 15530 12f3 00000000 		.4byte	0
 15531 12f7 00000000 		.4byte	0
 15532              	.LLST68:
 15533 12fb 0A010000 		.4byte	.LVL368
 15534 12ff 12010000 		.4byte	.LVL369
 15535 1303 0200     		.2byte	0x2
 15536 1305 90       		.byte	0x90
 15537 1306 51       		.uleb128 0x51
 15538 1307 12010000 		.4byte	.LVL369
 15539 130b 24010000 		.4byte	.LVL370
 15540 130f 0200     		.2byte	0x2
 15541 1311 90       		.byte	0x90
ARM GAS  /tmp/ccB9RVXV.s 			page 276


 15542 1312 40       		.uleb128 0x40
 15543 1313 DC010000 		.4byte	.LVL379
 15544 1317 EA010000 		.4byte	.LVL381
 15545 131b 0200     		.2byte	0x2
 15546 131d 90       		.byte	0x90
 15547 131e 40       		.uleb128 0x40
 15548 131f AA040000 		.4byte	.LVL423
 15549 1323 B6040000 		.4byte	.LVL426
 15550 1327 0200     		.2byte	0x2
 15551 1329 90       		.byte	0x90
 15552 132a 51       		.uleb128 0x51
 15553 132b B6040000 		.4byte	.LVL426
 15554 132f B8040000 		.4byte	.LVL427
 15555 1333 0200     		.2byte	0x2
 15556 1335 90       		.byte	0x90
 15557 1336 40       		.uleb128 0x40
 15558 1337 00000000 		.4byte	0
 15559 133b 00000000 		.4byte	0
 15560              	.LLST69:
 15561 133f 5E010000 		.4byte	.LVL376
 15562 1343 DC010000 		.4byte	.LVL379
 15563 1347 0200     		.2byte	0x2
 15564 1349 90       		.byte	0x90
 15565 134a 40       		.uleb128 0x40
 15566 134b 58020000 		.4byte	.LVL383
 15567 134f 66020000 		.4byte	.LVL384
 15568 1353 0200     		.2byte	0x2
 15569 1355 90       		.byte	0x90
 15570 1356 40       		.uleb128 0x40
 15571 1357 66020000 		.4byte	.LVL384
 15572 135b 20030000 		.4byte	.LVL389
 15573 135f 0200     		.2byte	0x2
 15574 1361 90       		.byte	0x90
 15575 1362 50       		.uleb128 0x50
 15576 1363 A6030000 		.4byte	.LVL397
 15577 1367 CE030000 		.4byte	.LVL401
 15578 136b 0200     		.2byte	0x2
 15579 136d 90       		.byte	0x90
 15580 136e 40       		.uleb128 0x40
 15581 136f CE030000 		.4byte	.LVL401
 15582 1373 EE030000 		.4byte	.LVL405
 15583 1377 0200     		.2byte	0x2
 15584 1379 90       		.byte	0x90
 15585 137a 50       		.uleb128 0x50
 15586 137b F2030000 		.4byte	.LVL406
 15587 137f 18040000 		.4byte	.LVL410
 15588 1383 0200     		.2byte	0x2
 15589 1385 90       		.byte	0x90
 15590 1386 40       		.uleb128 0x40
 15591 1387 18040000 		.4byte	.LVL410
 15592 138b 2A040000 		.4byte	.LVL412
 15593 138f 0200     		.2byte	0x2
 15594 1391 90       		.byte	0x90
 15595 1392 50       		.uleb128 0x50
 15596 1393 2A040000 		.4byte	.LVL412
 15597 1397 2D040000 		.4byte	.LVL413-1
 15598 139b 0200     		.2byte	0x2
ARM GAS  /tmp/ccB9RVXV.s 			page 277


 15599 139d 90       		.byte	0x90
 15600 139e 40       		.uleb128 0x40
 15601 139f 2D040000 		.4byte	.LVL413-1
 15602 13a3 7A040000 		.4byte	.LVL417
 15603 13a7 0200     		.2byte	0x2
 15604 13a9 90       		.byte	0x90
 15605 13aa 50       		.uleb128 0x50
 15606 13ab 98040000 		.4byte	.LVL420
 15607 13af 9E040000 		.4byte	.LVL421
 15608 13b3 0200     		.2byte	0x2
 15609 13b5 90       		.byte	0x90
 15610 13b6 50       		.uleb128 0x50
 15611 13b7 9E040000 		.4byte	.LVL421
 15612 13bb AA040000 		.4byte	.LVL423
 15613 13bf 0200     		.2byte	0x2
 15614 13c1 90       		.byte	0x90
 15615 13c2 40       		.uleb128 0x40
 15616 13c3 B8040000 		.4byte	.LVL427
 15617 13c7 E6040000 		.4byte	.LVL431
 15618 13cb 0200     		.2byte	0x2
 15619 13cd 90       		.byte	0x90
 15620 13ce 40       		.uleb128 0x40
 15621 13cf E6040000 		.4byte	.LVL431
 15622 13d3 F0040000 		.4byte	.LVL432
 15623 13d7 0200     		.2byte	0x2
 15624 13d9 90       		.byte	0x90
 15625 13da 50       		.uleb128 0x50
 15626 13db F0040000 		.4byte	.LVL432
 15627 13df 00050000 		.4byte	.LVL435
 15628 13e3 0200     		.2byte	0x2
 15629 13e5 90       		.byte	0x90
 15630 13e6 40       		.uleb128 0x40
 15631 13e7 00050000 		.4byte	.LVL435
 15632 13eb 50060000 		.4byte	.LVL442
 15633 13ef 0200     		.2byte	0x2
 15634 13f1 90       		.byte	0x90
 15635 13f2 50       		.uleb128 0x50
 15636 13f3 50060000 		.4byte	.LVL442
 15637 13f7 67060000 		.4byte	.LVL444-1
 15638 13fb 0200     		.2byte	0x2
 15639 13fd 90       		.byte	0x90
 15640 13fe 40       		.uleb128 0x40
 15641 13ff 67060000 		.4byte	.LVL444-1
 15642 1403 6E060000 		.4byte	.LVL445
 15643 1407 0200     		.2byte	0x2
 15644 1409 90       		.byte	0x90
 15645 140a 50       		.uleb128 0x50
 15646 140b 6E060000 		.4byte	.LVL445
 15647 140f 7D060000 		.4byte	.LVL446-1
 15648 1413 0200     		.2byte	0x2
 15649 1415 90       		.byte	0x90
 15650 1416 40       		.uleb128 0x40
 15651 1417 7D060000 		.4byte	.LVL446-1
 15652 141b 86060000 		.4byte	.LVL447
 15653 141f 0200     		.2byte	0x2
 15654 1421 90       		.byte	0x90
 15655 1422 50       		.uleb128 0x50
ARM GAS  /tmp/ccB9RVXV.s 			page 278


 15656 1423 86060000 		.4byte	.LVL447
 15657 1427 95060000 		.4byte	.LVL448-1
 15658 142b 0200     		.2byte	0x2
 15659 142d 90       		.byte	0x90
 15660 142e 40       		.uleb128 0x40
 15661 142f 95060000 		.4byte	.LVL448-1
 15662 1433 9E060000 		.4byte	.LVL449
 15663 1437 0200     		.2byte	0x2
 15664 1439 90       		.byte	0x90
 15665 143a 50       		.uleb128 0x50
 15666 143b 9E060000 		.4byte	.LVL449
 15667 143f E0060000 		.4byte	.LFE307
 15668 1443 0200     		.2byte	0x2
 15669 1445 90       		.byte	0x90
 15670 1446 40       		.uleb128 0x40
 15671 1447 00000000 		.4byte	0
 15672 144b 00000000 		.4byte	0
 15673              	.LLST70:
 15674 144f C0010000 		.4byte	.LVL378
 15675 1453 DC010000 		.4byte	.LVL379
 15676 1457 0200     		.2byte	0x2
 15677 1459 30       		.byte	0x30
 15678 145a 9F       		.byte	0x9f
 15679 145b 58020000 		.4byte	.LVL383
 15680 145f 66020000 		.4byte	.LVL384
 15681 1463 0200     		.2byte	0x2
 15682 1465 30       		.byte	0x30
 15683 1466 9F       		.byte	0x9f
 15684 1467 A6030000 		.4byte	.LVL397
 15685 146b CE030000 		.4byte	.LVL401
 15686 146f 0200     		.2byte	0x2
 15687 1471 31       		.byte	0x31
 15688 1472 9F       		.byte	0x9f
 15689 1473 CE030000 		.4byte	.LVL401
 15690 1477 D4030000 		.4byte	.LVL402
 15691 147b 0100     		.2byte	0x1
 15692 147d 59       		.byte	0x59
 15693 147e E2030000 		.4byte	.LVL403
 15694 1482 EA030000 		.4byte	.LVL404
 15695 1486 0100     		.2byte	0x1
 15696 1488 59       		.byte	0x59
 15697 1489 F2030000 		.4byte	.LVL406
 15698 148d 18040000 		.4byte	.LVL410
 15699 1491 0200     		.2byte	0x2
 15700 1493 31       		.byte	0x31
 15701 1494 9F       		.byte	0x9f
 15702 1495 18040000 		.4byte	.LVL410
 15703 1499 2A040000 		.4byte	.LVL412
 15704 149d 0100     		.2byte	0x1
 15705 149f 59       		.byte	0x59
 15706 14a0 2A040000 		.4byte	.LVL412
 15707 14a4 42040000 		.4byte	.LVL414
 15708 14a8 0200     		.2byte	0x2
 15709 14aa 30       		.byte	0x30
 15710 14ab 9F       		.byte	0x9f
 15711 14ac 42040000 		.4byte	.LVL414
 15712 14b0 7A040000 		.4byte	.LVL417
ARM GAS  /tmp/ccB9RVXV.s 			page 279


 15713 14b4 0100     		.2byte	0x1
 15714 14b6 59       		.byte	0x59
 15715 14b7 98040000 		.4byte	.LVL420
 15716 14bb 9E040000 		.4byte	.LVL421
 15717 14bf 0200     		.2byte	0x2
 15718 14c1 30       		.byte	0x30
 15719 14c2 9F       		.byte	0x9f
 15720 14c3 9E040000 		.4byte	.LVL421
 15721 14c7 AA040000 		.4byte	.LVL423
 15722 14cb 0200     		.2byte	0x2
 15723 14cd 31       		.byte	0x31
 15724 14ce 9F       		.byte	0x9f
 15725 14cf D6040000 		.4byte	.LVL428
 15726 14d3 DE040000 		.4byte	.LVL430
 15727 14d7 0200     		.2byte	0x2
 15728 14d9 31       		.byte	0x31
 15729 14da 9F       		.byte	0x9f
 15730 14db DE040000 		.4byte	.LVL430
 15731 14df F0040000 		.4byte	.LVL432
 15732 14e3 0200     		.2byte	0x2
 15733 14e5 30       		.byte	0x30
 15734 14e6 9F       		.byte	0x9f
 15735 14e7 F0040000 		.4byte	.LVL432
 15736 14eb F8040000 		.4byte	.LVL434
 15737 14ef 0200     		.2byte	0x2
 15738 14f1 31       		.byte	0x31
 15739 14f2 9F       		.byte	0x9f
 15740 14f3 F8040000 		.4byte	.LVL434
 15741 14f7 6C050000 		.4byte	.LVL436
 15742 14fb 0200     		.2byte	0x2
 15743 14fd 30       		.byte	0x30
 15744 14fe 9F       		.byte	0x9f
 15745 14ff 50060000 		.4byte	.LVL442
 15746 1503 9E060000 		.4byte	.LVL449
 15747 1507 0200     		.2byte	0x2
 15748 1509 30       		.byte	0x30
 15749 150a 9F       		.byte	0x9f
 15750 150b 9E060000 		.4byte	.LVL449
 15751 150f E0060000 		.4byte	.LFE307
 15752 1513 0200     		.2byte	0x2
 15753 1515 31       		.byte	0x31
 15754 1516 9F       		.byte	0x9f
 15755 1517 00000000 		.4byte	0
 15756 151b 00000000 		.4byte	0
 15757              	.LLST71:
 15758 151f 36010000 		.4byte	.LVL372
 15759 1523 46010000 		.4byte	.LVL373
 15760 1527 0200     		.2byte	0x2
 15761 1529 33       		.byte	0x33
 15762 152a 9F       		.byte	0x9f
 15763 152b 84040000 		.4byte	.LVL418
 15764 152f 8E040000 		.4byte	.LVL419
 15765 1533 0200     		.2byte	0x2
 15766 1535 33       		.byte	0x33
 15767 1536 9F       		.byte	0x9f
 15768 1537 00000000 		.4byte	0
 15769 153b 00000000 		.4byte	0
ARM GAS  /tmp/ccB9RVXV.s 			page 280


 15770              	.LLST72:
 15771 153f EA010000 		.4byte	.LVL381
 15772 1543 58020000 		.4byte	.LVL383
 15773 1547 0200     		.2byte	0x2
 15774 1549 34       		.byte	0x34
 15775 154a 9F       		.byte	0x9f
 15776 154b 7A040000 		.4byte	.LVL417
 15777 154f 84040000 		.4byte	.LVL418
 15778 1553 0200     		.2byte	0x2
 15779 1555 34       		.byte	0x34
 15780 1556 9F       		.byte	0x9f
 15781 1557 00000000 		.4byte	0
 15782 155b 00000000 		.4byte	0
 15783              	.LLST73:
 15784 155f 9C020000 		.4byte	.LVL385
 15785 1563 5A030000 		.4byte	.LVL391
 15786 1567 0100     		.2byte	0x1
 15787 1569 57       		.byte	0x57
 15788 156a 6C050000 		.4byte	.LVL436
 15789 156e 0C060000 		.4byte	.LVL439
 15790 1572 0100     		.2byte	0x1
 15791 1574 57       		.byte	0x57
 15792 1575 3C060000 		.4byte	.LVL441
 15793 1579 50060000 		.4byte	.LVL442
 15794 157d 0100     		.2byte	0x1
 15795 157f 57       		.byte	0x57
 15796 1580 00000000 		.4byte	0
 15797 1584 00000000 		.4byte	0
 15798              	.LLST74:
 15799 1588 94030000 		.4byte	.LVL395
 15800 158c 9B030000 		.4byte	.LVL396-1
 15801 1590 0100     		.2byte	0x1
 15802 1592 50       		.byte	0x50
 15803 1593 8E040000 		.4byte	.LVL419
 15804 1597 98040000 		.4byte	.LVL420
 15805 159b 0100     		.2byte	0x1
 15806 159d 50       		.byte	0x50
 15807 159e 00000000 		.4byte	0
 15808 15a2 00000000 		.4byte	0
 15809              	.LLST75:
 15810 15a6 A6030000 		.4byte	.LVL397
 15811 15aa BA030000 		.4byte	.LVL398
 15812 15ae 0300     		.2byte	0x3
 15813 15b0 09       		.byte	0x9
 15814 15b1 FF       		.byte	0xff
 15815 15b2 9F       		.byte	0x9f
 15816 15b3 BA030000 		.4byte	.LVL398
 15817 15b7 BC030000 		.4byte	.LVL399
 15818 15bb 0600     		.2byte	0x6
 15819 15bd 72       		.byte	0x72
 15820 15be 00       		.sleb128 0
 15821 15bf 73       		.byte	0x73
 15822 15c0 00       		.sleb128 0
 15823 15c1 1C       		.byte	0x1c
 15824 15c2 9F       		.byte	0x9f
 15825 15c3 BC030000 		.4byte	.LVL399
 15826 15c7 CE030000 		.4byte	.LVL401
ARM GAS  /tmp/ccB9RVXV.s 			page 281


 15827 15cb 0100     		.2byte	0x1
 15828 15cd 53       		.byte	0x53
 15829 15ce A4040000 		.4byte	.LVL422
 15830 15d2 AA040000 		.4byte	.LVL423
 15831 15d6 0300     		.2byte	0x3
 15832 15d8 09       		.byte	0x9
 15833 15d9 FF       		.byte	0xff
 15834 15da 9F       		.byte	0x9f
 15835 15db D6040000 		.4byte	.LVL428
 15836 15df DA040000 		.4byte	.LVL429
 15837 15e3 0100     		.2byte	0x1
 15838 15e5 53       		.byte	0x53
 15839 15e6 9E060000 		.4byte	.LVL449
 15840 15ea A4060000 		.4byte	.LVL451
 15841 15ee 0100     		.2byte	0x1
 15842 15f0 53       		.byte	0x53
 15843 15f1 00000000 		.4byte	0
 15844 15f5 00000000 		.4byte	0
 15845              	.LLST76:
 15846 15f9 6E060000 		.4byte	.LVL445
 15847 15fd 86060000 		.4byte	.LVL447
 15848 1601 0300     		.2byte	0x3
 15849 1603 08       		.byte	0x8
 15850 1604 20       		.byte	0x20
 15851 1605 9F       		.byte	0x9f
 15852 1606 00000000 		.4byte	0
 15853 160a 00000000 		.4byte	0
 15854              	.LLST77:
 15855 160e 7E060000 		.4byte	.LVL446
 15856 1612 86060000 		.4byte	.LVL447
 15857 1616 0200     		.2byte	0x2
 15858 1618 30       		.byte	0x30
 15859 1619 9F       		.byte	0x9f
 15860 161a 00000000 		.4byte	0
 15861 161e 00000000 		.4byte	0
 15862              	.LLST78:
 15863 1622 F2030000 		.4byte	.LVL406
 15864 1626 06040000 		.4byte	.LVL407
 15865 162a 0300     		.2byte	0x3
 15866 162c 09       		.byte	0x9
 15867 162d FF       		.byte	0xff
 15868 162e 9F       		.byte	0x9f
 15869 162f 06040000 		.4byte	.LVL407
 15870 1633 08040000 		.4byte	.LVL408
 15871 1637 0600     		.2byte	0x6
 15872 1639 72       		.byte	0x72
 15873 163a 00       		.sleb128 0
 15874 163b 73       		.byte	0x73
 15875 163c 00       		.sleb128 0
 15876 163d 1C       		.byte	0x1c
 15877 163e 9F       		.byte	0x9f
 15878 163f 08040000 		.4byte	.LVL408
 15879 1643 18040000 		.4byte	.LVL410
 15880 1647 0100     		.2byte	0x1
 15881 1649 53       		.byte	0x53
 15882 164a 9E040000 		.4byte	.LVL421
 15883 164e A4040000 		.4byte	.LVL422
ARM GAS  /tmp/ccB9RVXV.s 			page 282


 15884 1652 0300     		.2byte	0x3
 15885 1654 09       		.byte	0x9
 15886 1655 FF       		.byte	0xff
 15887 1656 9F       		.byte	0x9f
 15888 1657 F0040000 		.4byte	.LVL432
 15889 165b F4040000 		.4byte	.LVL433
 15890 165f 0100     		.2byte	0x1
 15891 1661 53       		.byte	0x53
 15892 1662 A4060000 		.4byte	.LVL451
 15893 1666 E0060000 		.4byte	.LFE307
 15894 166a 0100     		.2byte	0x1
 15895 166c 53       		.byte	0x53
 15896 166d 00000000 		.4byte	0
 15897 1671 00000000 		.4byte	0
 15898              	.LLST79:
 15899 1675 86060000 		.4byte	.LVL447
 15900 1679 9E060000 		.4byte	.LVL449
 15901 167d 0300     		.2byte	0x3
 15902 167f 08       		.byte	0x8
 15903 1680 20       		.byte	0x20
 15904 1681 9F       		.byte	0x9f
 15905 1682 00000000 		.4byte	0
 15906 1686 00000000 		.4byte	0
 15907              	.LLST80:
 15908 168a 96060000 		.4byte	.LVL448
 15909 168e 9E060000 		.4byte	.LVL449
 15910 1692 0200     		.2byte	0x2
 15911 1694 30       		.byte	0x30
 15912 1695 9F       		.byte	0x9f
 15913 1696 00000000 		.4byte	0
 15914 169a 00000000 		.4byte	0
 15915              	.LLST81:
 15916 169e 5E040000 		.4byte	.LVL415
 15917 16a2 7A040000 		.4byte	.LVL417
 15918 16a6 0300     		.2byte	0x3
 15919 16a8 08       		.byte	0x8
 15920 16a9 20       		.byte	0x20
 15921 16aa 9F       		.byte	0x9f
 15922 16ab 00000000 		.4byte	0
 15923 16af 00000000 		.4byte	0
 15924              	.LLST82:
 15925 16b3 6C040000 		.4byte	.LVL416
 15926 16b7 7A040000 		.4byte	.LVL417
 15927 16bb 0200     		.2byte	0x2
 15928 16bd 30       		.byte	0x30
 15929 16be 9F       		.byte	0x9f
 15930 16bf 00000000 		.4byte	0
 15931 16c3 00000000 		.4byte	0
 15932              	.LLST83:
 15933 16c7 5C060000 		.4byte	.LVL443
 15934 16cb 6E060000 		.4byte	.LVL445
 15935 16cf 0300     		.2byte	0x3
 15936 16d1 08       		.byte	0x8
 15937 16d2 20       		.byte	0x20
 15938 16d3 9F       		.byte	0x9f
 15939 16d4 00000000 		.4byte	0
 15940 16d8 00000000 		.4byte	0
ARM GAS  /tmp/ccB9RVXV.s 			page 283


 15941              	.LLST84:
 15942 16dc 68060000 		.4byte	.LVL444
 15943 16e0 6E060000 		.4byte	.LVL445
 15944 16e4 0200     		.2byte	0x2
 15945 16e6 30       		.byte	0x30
 15946 16e7 9F       		.byte	0x9f
 15947 16e8 00000000 		.4byte	0
 15948 16ec 00000000 		.4byte	0
 15949              		.section	.debug_aranges,"",%progbits
 15950 0000 DC010000 		.4byte	0x1dc
 15951 0004 0200     		.2byte	0x2
 15952 0006 00000000 		.4byte	.Ldebug_info0
 15953 000a 04       		.byte	0x4
 15954 000b 00       		.byte	0
 15955 000c 0000     		.2byte	0
 15956 000e 0000     		.2byte	0
 15957 0010 00000000 		.4byte	.LFB311
 15958 0014 2C020000 		.4byte	.LFE311-.LFB311
 15959 0018 00000000 		.4byte	.LFB256
 15960 001c B8010000 		.4byte	.LFE256-.LFB256
 15961 0020 00000000 		.4byte	.LFB257
 15962 0024 08000000 		.4byte	.LFE257-.LFB257
 15963 0028 00000000 		.4byte	.LFB259
 15964 002c 20000000 		.4byte	.LFE259-.LFB259
 15965 0030 00000000 		.4byte	.LFB260
 15966 0034 0C000000 		.4byte	.LFE260-.LFB260
 15967 0038 00000000 		.4byte	.LFB261
 15968 003c 0C000000 		.4byte	.LFE261-.LFB261
 15969 0040 00000000 		.4byte	.LFB262
 15970 0044 0C000000 		.4byte	.LFE262-.LFB262
 15971 0048 00000000 		.4byte	.LFB263
 15972 004c 0C000000 		.4byte	.LFE263-.LFB263
 15973 0050 00000000 		.4byte	.LFB264
 15974 0054 0C000000 		.4byte	.LFE264-.LFB264
 15975 0058 00000000 		.4byte	.LFB265
 15976 005c 18000000 		.4byte	.LFE265-.LFB265
 15977 0060 00000000 		.4byte	.LFB266
 15978 0064 20000000 		.4byte	.LFE266-.LFB266
 15979 0068 00000000 		.4byte	.LFB278
 15980 006c 44000000 		.4byte	.LFE278-.LFB278
 15981 0070 00000000 		.4byte	.LFB279
 15982 0074 44000000 		.4byte	.LFE279-.LFB279
 15983 0078 00000000 		.4byte	.LFB280
 15984 007c 24000000 		.4byte	.LFE280-.LFB280
 15985 0080 00000000 		.4byte	.LFB281
 15986 0084 44000000 		.4byte	.LFE281-.LFB281
 15987 0088 00000000 		.4byte	.LFB282
 15988 008c 20000000 		.4byte	.LFE282-.LFB282
 15989 0090 00000000 		.4byte	.LFB283
 15990 0094 20000000 		.4byte	.LFE283-.LFB283
 15991 0098 00000000 		.4byte	.LFB284
 15992 009c 20000000 		.4byte	.LFE284-.LFB284
 15993 00a0 00000000 		.4byte	.LFB285
 15994 00a4 20000000 		.4byte	.LFE285-.LFB285
 15995 00a8 00000000 		.4byte	.LFB286
 15996 00ac 24000000 		.4byte	.LFE286-.LFB286
 15997 00b0 00000000 		.4byte	.LFB287
ARM GAS  /tmp/ccB9RVXV.s 			page 284


 15998 00b4 24000000 		.4byte	.LFE287-.LFB287
 15999 00b8 00000000 		.4byte	.LFB288
 16000 00bc 44000000 		.4byte	.LFE288-.LFB288
 16001 00c0 00000000 		.4byte	.LFB289
 16002 00c4 44000000 		.4byte	.LFE289-.LFB289
 16003 00c8 00000000 		.4byte	.LFB290
 16004 00cc 24000000 		.4byte	.LFE290-.LFB290
 16005 00d0 00000000 		.4byte	.LFB291
 16006 00d4 24000000 		.4byte	.LFE291-.LFB291
 16007 00d8 00000000 		.4byte	.LFB292
 16008 00dc 5C000000 		.4byte	.LFE292-.LFB292
 16009 00e0 00000000 		.4byte	.LFB313
 16010 00e4 44010000 		.4byte	.LFE313-.LFB313
 16011 00e8 00000000 		.4byte	.LFB314
 16012 00ec D8050000 		.4byte	.LFE314-.LFB314
 16013 00f0 00000000 		.4byte	.LFB258
 16014 00f4 C8000000 		.4byte	.LFE258-.LFB258
 16015 00f8 00000000 		.4byte	.LFB310
 16016 00fc 50000000 		.4byte	.LFE310-.LFB310
 16017 0100 00000000 		.4byte	.LFB293
 16018 0104 20000000 		.4byte	.LFE293-.LFB293
 16019 0108 00000000 		.4byte	.LFB294
 16020 010c 24000000 		.4byte	.LFE294-.LFB294
 16021 0110 00000000 		.4byte	.LFB295
 16022 0114 20000000 		.4byte	.LFE295-.LFB295
 16023 0118 00000000 		.4byte	.LFB296
 16024 011c 20000000 		.4byte	.LFE296-.LFB296
 16025 0120 00000000 		.4byte	.LFB297
 16026 0124 40000000 		.4byte	.LFE297-.LFB297
 16027 0128 00000000 		.4byte	.LFB298
 16028 012c 40000000 		.4byte	.LFE298-.LFB298
 16029 0130 00000000 		.4byte	.LFB299
 16030 0134 0C000000 		.4byte	.LFE299-.LFB299
 16031 0138 00000000 		.4byte	.LFB300
 16032 013c 44000000 		.4byte	.LFE300-.LFB300
 16033 0140 00000000 		.4byte	.LFB301
 16034 0144 0C000000 		.4byte	.LFE301-.LFB301
 16035 0148 00000000 		.4byte	.LFB302
 16036 014c 5C000000 		.4byte	.LFE302-.LFB302
 16037 0150 00000000 		.4byte	.LFB303
 16038 0154 0C000000 		.4byte	.LFE303-.LFB303
 16039 0158 00000000 		.4byte	.LFB304
 16040 015c 0C000000 		.4byte	.LFE304-.LFB304
 16041 0160 00000000 		.4byte	.LFB305
 16042 0164 74000000 		.4byte	.LFE305-.LFB305
 16043 0168 00000000 		.4byte	.LFB267
 16044 016c 70000000 		.4byte	.LFE267-.LFB267
 16045 0170 00000000 		.4byte	.LFB276
 16046 0174 0C000000 		.4byte	.LFE276-.LFB276
 16047 0178 00000000 		.4byte	.LFB268
 16048 017c 70000000 		.4byte	.LFE268-.LFB268
 16049 0180 00000000 		.4byte	.LFB269
 16050 0184 70000000 		.4byte	.LFE269-.LFB269
 16051 0188 00000000 		.4byte	.LFB270
 16052 018c 84000000 		.4byte	.LFE270-.LFB270
 16053 0190 00000000 		.4byte	.LFB271
 16054 0194 70000000 		.4byte	.LFE271-.LFB271
ARM GAS  /tmp/ccB9RVXV.s 			page 285


 16055 0198 00000000 		.4byte	.LFB273
 16056 019c 2C000000 		.4byte	.LFE273-.LFB273
 16057 01a0 00000000 		.4byte	.LFB277
 16058 01a4 0C000000 		.4byte	.LFE277-.LFB277
 16059 01a8 00000000 		.4byte	.LFB272
 16060 01ac 70000000 		.4byte	.LFE272-.LFB272
 16061 01b0 00000000 		.4byte	.LFB274
 16062 01b4 14000000 		.4byte	.LFE274-.LFB274
 16063 01b8 00000000 		.4byte	.LFB275
 16064 01bc 48000000 		.4byte	.LFE275-.LFB275
 16065 01c0 00000000 		.4byte	.LFB306
 16066 01c4 24000000 		.4byte	.LFE306-.LFB306
 16067 01c8 00000000 		.4byte	.LFB307
 16068 01cc E0060000 		.4byte	.LFE307-.LFB307
 16069 01d0 00000000 		.4byte	.LFB308
 16070 01d4 14000000 		.4byte	.LFE308-.LFB308
 16071 01d8 00000000 		.4byte	0
 16072 01dc 00000000 		.4byte	0
 16073              		.section	.debug_ranges,"",%progbits
 16074              	.Ldebug_ranges0:
 16075 0000 04000000 		.4byte	.LBB109
 16076 0004 06000000 		.4byte	.LBE109
 16077 0008 08000000 		.4byte	.LBB113
 16078 000c 16000000 		.4byte	.LBE113
 16079 0010 2A000000 		.4byte	.LBB122
 16080 0014 2C000000 		.4byte	.LBE122
 16081 0018 00000000 		.4byte	0
 16082 001c 00000000 		.4byte	0
 16083 0020 1A000000 		.4byte	.LBB114
 16084 0024 2A000000 		.4byte	.LBE114
 16085 0028 30000000 		.4byte	.LBB123
 16086 002c 2C020000 		.4byte	.LBE123
 16087 0030 00000000 		.4byte	0
 16088 0034 00000000 		.4byte	0
 16089 0038 1A000000 		.4byte	.LBB115
 16090 003c 2A000000 		.4byte	.LBE115
 16091 0040 58000000 		.4byte	.LBB120
 16092 0044 CC010000 		.4byte	.LBE120
 16093 0048 D2010000 		.4byte	.LBB121
 16094 004c 2C020000 		.4byte	.LBE121
 16095 0050 00000000 		.4byte	0
 16096 0054 00000000 		.4byte	0
 16097 0058 1A000000 		.4byte	.LBB116
 16098 005c 2A000000 		.4byte	.LBE116
 16099 0060 58000000 		.4byte	.LBB117
 16100 0064 5E000000 		.4byte	.LBE117
 16101 0068 60000000 		.4byte	.LBB118
 16102 006c DA000000 		.4byte	.LBE118
 16103 0070 DC000000 		.4byte	.LBB119
 16104 0074 C4010000 		.4byte	.LBE119
 16105 0078 00000000 		.4byte	0
 16106 007c 00000000 		.4byte	0
 16107 0080 F0020000 		.4byte	.LBB125
 16108 0084 FA020000 		.4byte	.LBE125
 16109 0088 FE020000 		.4byte	.LBB131
 16110 008c 00030000 		.4byte	.LBE131
 16111 0090 04030000 		.4byte	.LBB132
ARM GAS  /tmp/ccB9RVXV.s 			page 286


 16112 0094 0A030000 		.4byte	.LBE132
 16113 0098 AE050000 		.4byte	.LBB147
 16114 009c B0050000 		.4byte	.LBE147
 16115 00a0 B4050000 		.4byte	.LBB148
 16116 00a4 BA050000 		.4byte	.LBE148
 16117 00a8 00000000 		.4byte	0
 16118 00ac 00000000 		.4byte	0
 16119 00b0 6C030000 		.4byte	.LBB133
 16120 00b4 76030000 		.4byte	.LBE133
 16121 00b8 7A030000 		.4byte	.LBB139
 16122 00bc 7C030000 		.4byte	.LBE139
 16123 00c0 80030000 		.4byte	.LBB140
 16124 00c4 C4030000 		.4byte	.LBE140
 16125 00c8 9C050000 		.4byte	.LBB145
 16126 00cc 9E050000 		.4byte	.LBE145
 16127 00d0 A2050000 		.4byte	.LBB146
 16128 00d4 A8050000 		.4byte	.LBE146
 16129 00d8 00000000 		.4byte	0
 16130 00dc 00000000 		.4byte	0
 16131 00e0 66040000 		.4byte	.LBB142
 16132 00e4 B2040000 		.4byte	.LBE142
 16133 00e8 B6040000 		.4byte	.LBB143
 16134 00ec EA040000 		.4byte	.LBE143
 16135 00f0 7C050000 		.4byte	.LBB144
 16136 00f4 9C050000 		.4byte	.LBE144
 16137 00f8 00000000 		.4byte	0
 16138 00fc 00000000 		.4byte	0
 16139 0100 00000000 		.4byte	.LBB149
 16140 0104 06000000 		.4byte	.LBE149
 16141 0108 12000000 		.4byte	.LBB152
 16142 010c 14000000 		.4byte	.LBE152
 16143 0110 00000000 		.4byte	0
 16144 0114 00000000 		.4byte	0
 16145 0118 48000000 		.4byte	.LBB155
 16146 011c 60000000 		.4byte	.LBE155
 16147 0120 68000000 		.4byte	.LBB158
 16148 0124 70000000 		.4byte	.LBE158
 16149 0128 00000000 		.4byte	0
 16150 012c 00000000 		.4byte	0
 16151 0130 36010000 		.4byte	.LBB159
 16152 0134 46010000 		.4byte	.LBE159
 16153 0138 84040000 		.4byte	.LBB220
 16154 013c 8E040000 		.4byte	.LBE220
 16155 0140 00000000 		.4byte	0
 16156 0144 00000000 		.4byte	0
 16157 0148 60010000 		.4byte	.LBB162
 16158 014c C0010000 		.4byte	.LBE162
 16159 0150 B8040000 		.4byte	.LBB224
 16160 0154 D6040000 		.4byte	.LBE224
 16161 0158 00000000 		.4byte	0
 16162 015c 00000000 		.4byte	0
 16163 0160 EA010000 		.4byte	.LBB163
 16164 0164 F4010000 		.4byte	.LBE163
 16165 0168 7A040000 		.4byte	.LBB219
 16166 016c 84040000 		.4byte	.LBE219
 16167 0170 00000000 		.4byte	0
 16168 0174 00000000 		.4byte	0
ARM GAS  /tmp/ccB9RVXV.s 			page 287


 16169 0178 66020000 		.4byte	.LBB168
 16170 017c 76030000 		.4byte	.LBE168
 16171 0180 6C050000 		.4byte	.LBB227
 16172 0184 50060000 		.4byte	.LBE227
 16173 0188 00000000 		.4byte	0
 16174 018c 00000000 		.4byte	0
 16175 0190 76020000 		.4byte	.LBB169
 16176 0194 76030000 		.4byte	.LBE169
 16177 0198 6C050000 		.4byte	.LBB174
 16178 019c 50060000 		.4byte	.LBE174
 16179 01a0 00000000 		.4byte	0
 16180 01a4 00000000 		.4byte	0
 16181 01a8 6C030000 		.4byte	.LBB170
 16182 01ac 6E030000 		.4byte	.LBE170
 16183 01b0 72030000 		.4byte	.LBB173
 16184 01b4 74030000 		.4byte	.LBE173
 16185 01b8 00000000 		.4byte	0
 16186 01bc 00000000 		.4byte	0
 16187 01c0 82030000 		.4byte	.LBB175
 16188 01c4 84030000 		.4byte	.LBE175
 16189 01c8 8C030000 		.4byte	.LBB180
 16190 01cc 8E030000 		.4byte	.LBE180
 16191 01d0 94030000 		.4byte	.LBB181
 16192 01d4 9E030000 		.4byte	.LBE181
 16193 01d8 8E040000 		.4byte	.LBB221
 16194 01dc 98040000 		.4byte	.LBE221
 16195 01e0 00000000 		.4byte	0
 16196 01e4 00000000 		.4byte	0
 16197 01e8 A6030000 		.4byte	.LBB182
 16198 01ec E2030000 		.4byte	.LBE182
 16199 01f0 A4040000 		.4byte	.LBB223
 16200 01f4 AA040000 		.4byte	.LBE223
 16201 01f8 D6040000 		.4byte	.LBB225
 16202 01fc F0040000 		.4byte	.LBE225
 16203 0200 6E060000 		.4byte	.LBB243
 16204 0204 86060000 		.4byte	.LBE243
 16205 0208 9E060000 		.4byte	.LBB245
 16206 020c A4060000 		.4byte	.LBE245
 16207 0210 00000000 		.4byte	0
 16208 0214 00000000 		.4byte	0
 16209 0218 F2030000 		.4byte	.LBB193
 16210 021c 20040000 		.4byte	.LBE193
 16211 0220 9E040000 		.4byte	.LBB222
 16212 0224 A4040000 		.4byte	.LBE222
 16213 0228 F0040000 		.4byte	.LBB226
 16214 022c 6C050000 		.4byte	.LBE226
 16215 0230 86060000 		.4byte	.LBB244
 16216 0234 9E060000 		.4byte	.LBE244
 16217 0238 A4060000 		.4byte	.LBB246
 16218 023c E0060000 		.4byte	.LBE246
 16219 0240 00000000 		.4byte	0
 16220 0244 00000000 		.4byte	0
 16221 0248 58040000 		.4byte	.LBB204
 16222 024c 5A040000 		.4byte	.LBE204
 16223 0250 5E040000 		.4byte	.LBB213
 16224 0254 62040000 		.4byte	.LBE213
 16225 0258 00000000 		.4byte	0
ARM GAS  /tmp/ccB9RVXV.s 			page 288


 16226 025c 00000000 		.4byte	0
 16227 0260 58060000 		.4byte	.LBB228
 16228 0264 5A060000 		.4byte	.LBE228
 16229 0268 5C060000 		.4byte	.LBB237
 16230 026c 60060000 		.4byte	.LBE237
 16231 0270 00000000 		.4byte	0
 16232 0274 00000000 		.4byte	0
 16233 0278 00000000 		.4byte	.LFB311
 16234 027c 2C020000 		.4byte	.LFE311
 16235 0280 00000000 		.4byte	.LFB256
 16236 0284 B8010000 		.4byte	.LFE256
 16237 0288 00000000 		.4byte	.LFB257
 16238 028c 08000000 		.4byte	.LFE257
 16239 0290 00000000 		.4byte	.LFB259
 16240 0294 20000000 		.4byte	.LFE259
 16241 0298 00000000 		.4byte	.LFB260
 16242 029c 0C000000 		.4byte	.LFE260
 16243 02a0 00000000 		.4byte	.LFB261
 16244 02a4 0C000000 		.4byte	.LFE261
 16245 02a8 00000000 		.4byte	.LFB262
 16246 02ac 0C000000 		.4byte	.LFE262
 16247 02b0 00000000 		.4byte	.LFB263
 16248 02b4 0C000000 		.4byte	.LFE263
 16249 02b8 00000000 		.4byte	.LFB264
 16250 02bc 0C000000 		.4byte	.LFE264
 16251 02c0 00000000 		.4byte	.LFB265
 16252 02c4 18000000 		.4byte	.LFE265
 16253 02c8 00000000 		.4byte	.LFB266
 16254 02cc 20000000 		.4byte	.LFE266
 16255 02d0 00000000 		.4byte	.LFB278
 16256 02d4 44000000 		.4byte	.LFE278
 16257 02d8 00000000 		.4byte	.LFB279
 16258 02dc 44000000 		.4byte	.LFE279
 16259 02e0 00000000 		.4byte	.LFB280
 16260 02e4 24000000 		.4byte	.LFE280
 16261 02e8 00000000 		.4byte	.LFB281
 16262 02ec 44000000 		.4byte	.LFE281
 16263 02f0 00000000 		.4byte	.LFB282
 16264 02f4 20000000 		.4byte	.LFE282
 16265 02f8 00000000 		.4byte	.LFB283
 16266 02fc 20000000 		.4byte	.LFE283
 16267 0300 00000000 		.4byte	.LFB284
 16268 0304 20000000 		.4byte	.LFE284
 16269 0308 00000000 		.4byte	.LFB285
 16270 030c 20000000 		.4byte	.LFE285
 16271 0310 00000000 		.4byte	.LFB286
 16272 0314 24000000 		.4byte	.LFE286
 16273 0318 00000000 		.4byte	.LFB287
 16274 031c 24000000 		.4byte	.LFE287
 16275 0320 00000000 		.4byte	.LFB288
 16276 0324 44000000 		.4byte	.LFE288
 16277 0328 00000000 		.4byte	.LFB289
 16278 032c 44000000 		.4byte	.LFE289
 16279 0330 00000000 		.4byte	.LFB290
 16280 0334 24000000 		.4byte	.LFE290
 16281 0338 00000000 		.4byte	.LFB291
 16282 033c 24000000 		.4byte	.LFE291
ARM GAS  /tmp/ccB9RVXV.s 			page 289


 16283 0340 00000000 		.4byte	.LFB292
 16284 0344 5C000000 		.4byte	.LFE292
 16285 0348 00000000 		.4byte	.LFB313
 16286 034c 44010000 		.4byte	.LFE313
 16287 0350 00000000 		.4byte	.LFB314
 16288 0354 D8050000 		.4byte	.LFE314
 16289 0358 00000000 		.4byte	.LFB258
 16290 035c C8000000 		.4byte	.LFE258
 16291 0360 00000000 		.4byte	.LFB310
 16292 0364 50000000 		.4byte	.LFE310
 16293 0368 00000000 		.4byte	.LFB293
 16294 036c 20000000 		.4byte	.LFE293
 16295 0370 00000000 		.4byte	.LFB294
 16296 0374 24000000 		.4byte	.LFE294
 16297 0378 00000000 		.4byte	.LFB295
 16298 037c 20000000 		.4byte	.LFE295
 16299 0380 00000000 		.4byte	.LFB296
 16300 0384 20000000 		.4byte	.LFE296
 16301 0388 00000000 		.4byte	.LFB297
 16302 038c 40000000 		.4byte	.LFE297
 16303 0390 00000000 		.4byte	.LFB298
 16304 0394 40000000 		.4byte	.LFE298
 16305 0398 00000000 		.4byte	.LFB299
 16306 039c 0C000000 		.4byte	.LFE299
 16307 03a0 00000000 		.4byte	.LFB300
 16308 03a4 44000000 		.4byte	.LFE300
 16309 03a8 00000000 		.4byte	.LFB301
 16310 03ac 0C000000 		.4byte	.LFE301
 16311 03b0 00000000 		.4byte	.LFB302
 16312 03b4 5C000000 		.4byte	.LFE302
 16313 03b8 00000000 		.4byte	.LFB303
 16314 03bc 0C000000 		.4byte	.LFE303
 16315 03c0 00000000 		.4byte	.LFB304
 16316 03c4 0C000000 		.4byte	.LFE304
 16317 03c8 00000000 		.4byte	.LFB305
 16318 03cc 74000000 		.4byte	.LFE305
 16319 03d0 00000000 		.4byte	.LFB267
 16320 03d4 70000000 		.4byte	.LFE267
 16321 03d8 00000000 		.4byte	.LFB276
 16322 03dc 0C000000 		.4byte	.LFE276
 16323 03e0 00000000 		.4byte	.LFB268
 16324 03e4 70000000 		.4byte	.LFE268
 16325 03e8 00000000 		.4byte	.LFB269
 16326 03ec 70000000 		.4byte	.LFE269
 16327 03f0 00000000 		.4byte	.LFB270
 16328 03f4 84000000 		.4byte	.LFE270
 16329 03f8 00000000 		.4byte	.LFB271
 16330 03fc 70000000 		.4byte	.LFE271
 16331 0400 00000000 		.4byte	.LFB273
 16332 0404 2C000000 		.4byte	.LFE273
 16333 0408 00000000 		.4byte	.LFB277
 16334 040c 0C000000 		.4byte	.LFE277
 16335 0410 00000000 		.4byte	.LFB272
 16336 0414 70000000 		.4byte	.LFE272
 16337 0418 00000000 		.4byte	.LFB274
 16338 041c 14000000 		.4byte	.LFE274
 16339 0420 00000000 		.4byte	.LFB275
ARM GAS  /tmp/ccB9RVXV.s 			page 290


 16340 0424 48000000 		.4byte	.LFE275
 16341 0428 00000000 		.4byte	.LFB306
 16342 042c 24000000 		.4byte	.LFE306
 16343 0430 00000000 		.4byte	.LFB307
 16344 0434 E0060000 		.4byte	.LFE307
 16345 0438 00000000 		.4byte	.LFB308
 16346 043c 14000000 		.4byte	.LFE308
 16347 0440 00000000 		.4byte	0
 16348 0444 00000000 		.4byte	0
 16349              		.section	.debug_line,"",%progbits
 16350              	.Ldebug_line0:
 16351 0000 430C0000 		.section	.debug_str,"MS",%progbits,1
 16351      0200DA02 
 16351      00000201 
 16351      FB0E0D00 
 16351      01010101 
 16352              	.LASF105:
 16353 0000 706F7274 		.ascii	"port_intctx\000"
 16353      5F696E74 
 16353      63747800 
 16354              	.LASF187:
 16355 000c 6C5F6D61 		.ascii	"l_max_erpm_fbrake\000"
 16355      785F6572 
 16355      706D5F66 
 16355      6272616B 
 16355      6500
 16356              	.LASF183:
 16357 001e 6C5F6162 		.ascii	"l_abs_current_max\000"
 16357      735F6375 
 16357      7272656E 
 16357      745F6D61 
 16357      7800
 16358              	.LASF313:
 16359 0030 434F4D4D 		.ascii	"COMM_SET_CURRENT_GET_POSITION\000"
 16359      5F534554 
 16359      5F435552 
 16359      52454E54 
 16359      5F474554 
 16360              	.LASF474:
 16361 004e 6D5F706F 		.ascii	"m_position_set\000"
 16361      73697469 
 16361      6F6E5F73 
 16361      657400
 16362              	.LASF550:
 16363 005d 656E636F 		.ascii	"encoder_deinit\000"
 16363      6465725F 
 16363      6465696E 
 16363      697400
 16364              	.LASF529:
 16365 006c 6D637077 		.ascii	"mcpwm_get_tot_current_filtered\000"
 16365      6D5F6765 
 16365      745F746F 
 16365      745F6375 
 16365      7272656E 
 16366              	.LASF31:
 16367 008b 6D73675F 		.ascii	"msg_t\000"
 16367      7400
ARM GAS  /tmp/ccB9RVXV.s 			page 291


 16368              	.LASF302:
 16369 0091 434F4D4D 		.ascii	"COMM_DETECT_HALL_FOC\000"
 16369      5F444554 
 16369      4543545F 
 16369      48414C4C 
 16369      5F464F43 
 16370              	.LASF229:
 16371 00a6 666F635F 		.ascii	"foc_observer_gain_slow\000"
 16371      6F627365 
 16371      72766572 
 16371      5F676169 
 16371      6E5F736C 
 16372              	.LASF505:
 16373 00bd 62756666 		.ascii	"buffer_append_float32_auto\000"
 16373      65725F61 
 16373      7070656E 
 16373      645F666C 
 16373      6F617433 
 16374              	.LASF83:
 16375 00d8 63685F73 		.ascii	"ch_system_t\000"
 16375      79737465 
 16375      6D5F7400 
 16376              	.LASF3:
 16377 00e4 5F5F7569 		.ascii	"__uint8_t\000"
 16377      6E74385F 
 16377      7400
 16378              	.LASF112:
 16379 00ee 77747365 		.ascii	"wtsemp\000"
 16379      6D7000
 16380              	.LASF272:
 16381 00f5 5F426F6F 		.ascii	"_Bool\000"
 16381      6C00
 16382              	.LASF395:
 16383 00fb 6D635F69 		.ascii	"mc_interface_dccal_done\000"
 16383      6E746572 
 16383      66616365 
 16383      5F646363 
 16383      616C5F64 
 16384              	.LASF448:
 16385 0113 6162735F 		.ascii	"abs_current_filtered\000"
 16385      63757272 
 16385      656E745F 
 16385      66696C74 
 16385      65726564 
 16386              	.LASF79:
 16387 0128 76745F73 		.ascii	"vt_systime\000"
 16387      79737469 
 16387      6D6500
 16388              	.LASF267:
 16389 0133 6D5F6472 		.ascii	"m_drv8301_oc_adj\000"
 16389      76383330 
 16389      315F6F63 
 16389      5F61646A 
 16389      00
 16390              	.LASF121:
 16391 0144 6D5F6E65 		.ascii	"m_next\000"
 16391      787400
ARM GAS  /tmp/ccB9RVXV.s 			page 292


 16392              	.LASF360:
 16393 014b 6C6F5F6D 		.ascii	"lo_min_mos\000"
 16393      696E5F6D 
 16393      6F7300
 16394              	.LASF193:
 16395 0156 6C5F736C 		.ascii	"l_slow_abs_current\000"
 16395      6F775F61 
 16395      62735F63 
 16395      75727265 
 16395      6E7400
 16396              	.LASF182:
 16397 0169 6C5F696E 		.ascii	"l_in_current_min\000"
 16397      5F637572 
 16397      72656E74 
 16397      5F6D696E 
 16397      00
 16398              	.LASF99:
 16399 017a 42445452 		.ascii	"BDTR\000"
 16399      00
 16400              	.LASF20:
 16401 017f 75696E74 		.ascii	"uint16_t\000"
 16401      31365F74 
 16401      00
 16402              	.LASF557:
 16403 0188 6D637077 		.ascii	"mcpwm_foc_get_tachometer_abs_value\000"
 16403      6D5F666F 
 16403      635F6765 
 16403      745F7461 
 16403      63686F6D 
 16404              	.LASF569:
 16405 01ab 6D637077 		.ascii	"mcpwm_set_duty_noramp\000"
 16405      6D5F7365 
 16405      745F6475 
 16405      74795F6E 
 16405      6F72616D 
 16406              	.LASF543:
 16407 01c1 6D637077 		.ascii	"mcpwm_get_comm_step\000"
 16407      6D5F6765 
 16407      745F636F 
 16407      6D6D5F73 
 16407      74657000 
 16408              	.LASF365:
 16409 01d5 74656D70 		.ascii	"temp_motor_accel_start\000"
 16409      5F6D6F74 
 16409      6F725F61 
 16409      6363656C 
 16409      5F737461 
 16410              	.LASF256:
 16411 01ec 63635F73 		.ascii	"cc_startup_boost_duty\000"
 16411      74617274 
 16411      75705F62 
 16411      6F6F7374 
 16411      5F647574 
 16412              	.LASF60:
 16413 0202 63685F74 		.ascii	"ch_threads_queue\000"
 16413      68726561 
 16413      64735F71 
ARM GAS  /tmp/ccB9RVXV.s 			page 293


 16413      75657565 
 16413      00
 16414              	.LASF184:
 16415 0213 6C5F6D69 		.ascii	"l_min_erpm\000"
 16415      6E5F6572 
 16415      706D00
 16416              	.LASF40:
 16417 021e 705F6E65 		.ascii	"p_newer\000"
 16417      77657200 
 16418              	.LASF391:
 16419 0226 6D635F69 		.ascii	"mc_interface_unlock\000"
 16419      6E746572 
 16419      66616365 
 16419      5F756E6C 
 16419      6F636B00 
 16420              	.LASF510:
 16421 023a 6D637077 		.ascii	"mcpwm_foc_init\000"
 16421      6D5F666F 
 16421      635F696E 
 16421      697400
 16422              	.LASF222:
 16423 0249 666F635F 		.ascii	"foc_encoder_offset\000"
 16423      656E636F 
 16423      6465725F 
 16423      6F666673 
 16423      657400
 16424              	.LASF409:
 16425 025c 6D635F69 		.ascii	"mc_interface_get_tot_current_directional\000"
 16425      6E746572 
 16425      66616365 
 16425      5F676574 
 16425      5F746F74 
 16426              	.LASF535:
 16427 0285 6D637077 		.ascii	"mcpwm_get_tot_current_in\000"
 16427      6D5F6765 
 16427      745F746F 
 16427      745F6375 
 16427      7272656E 
 16428              	.LASF126:
 16429 029e 4D435F53 		.ascii	"MC_STATE_DETECTING\000"
 16429      54415445 
 16429      5F444554 
 16429      45435449 
 16429      4E4700
 16430              	.LASF445:
 16431 02b1 77726F6E 		.ascii	"wrong_voltage_iterations\000"
 16431      675F766F 
 16431      6C746167 
 16431      655F6974 
 16431      65726174 
 16432              	.LASF359:
 16433 02ca 6C6F5F6D 		.ascii	"lo_max_mos\000"
 16433      61785F6D 
 16433      6F7300
 16434              	.LASF195:
 16435 02d5 6C5F7465 		.ascii	"l_temp_fet_end\000"
 16435      6D705F66 
ARM GAS  /tmp/ccB9RVXV.s 			page 294


 16435      65745F65 
 16435      6E6400
 16436              	.LASF511:
 16437 02e4 6D637077 		.ascii	"mcpwm_init\000"
 16437      6D5F696E 
 16437      697400
 16438              	.LASF330:
 16439 02ef 4F545950 		.ascii	"OTYPER\000"
 16439      455200
 16440              	.LASF518:
 16441 02f6 6D637077 		.ascii	"mcpwm_foc_get_duty_cycle_set\000"
 16441      6D5F666F 
 16441      635F6765 
 16441      745F6475 
 16441      74795F63 
 16442              	.LASF416:
 16443 0313 74696D65 		.ascii	"timer_thread\000"
 16443      725F7468 
 16443      72656164 
 16443      00
 16444              	.LASF35:
 16445 0320 74687265 		.ascii	"thread_t\000"
 16445      61645F74 
 16445      00
 16446              	.LASF78:
 16447 0329 63685F76 		.ascii	"ch_virtual_timers_list\000"
 16447      69727475 
 16447      616C5F74 
 16447      696D6572 
 16447      735F6C69 
 16448              	.LASF21:
 16449 0340 696E7433 		.ascii	"int32_t\000"
 16449      325F7400 
 16450              	.LASF34:
 16451 0348 73797374 		.ascii	"systime_t\000"
 16451      696D655F 
 16451      7400
 16452              	.LASF287:
 16453 0352 434F4D4D 		.ascii	"COMM_SET_MCCONF\000"
 16453      5F534554 
 16453      5F4D4343 
 16453      4F4E4600 
 16454              	.LASF161:
 16455 0362 44525638 		.ascii	"DRV8301_OC_LIMIT\000"
 16455      3330315F 
 16455      4F435F4C 
 16455      494D4954 
 16455      00
 16456              	.LASF547:
 16457 0373 6D637077 		.ascii	"mcpwm_stop_pwm\000"
 16457      6D5F7374 
 16457      6F705F70 
 16457      776D00
 16458              	.LASF154:
 16459 0382 4641554C 		.ascii	"FAULT_CODE_OVER_TEMP_FET\000"
 16459      545F434F 
 16459      44455F4F 
ARM GAS  /tmp/ccB9RVXV.s 			page 295


 16459      5645525F 
 16459      54454D50 
 16460              	.LASF449:
 16461 039b 665F7361 		.ascii	"f_samp\000"
 16461      6D7000
 16462              	.LASF128:
 16463 03a2 4D435F53 		.ascii	"MC_STATE_FULL_BRAKE\000"
 16463      54415445 
 16463      5F46554C 
 16463      4C5F4252 
 16463      414B4500 
 16464              	.LASF132:
 16465 03b6 50574D5F 		.ascii	"PWM_MODE_BIPOLAR\000"
 16465      4D4F4445 
 16465      5F424950 
 16465      4F4C4152 
 16465      00
 16466              	.LASF133:
 16467 03c7 6D635F70 		.ascii	"mc_pwm_mode\000"
 16467      776D5F6D 
 16467      6F646500 
 16468              	.LASF561:
 16469 03d3 6D637077 		.ascii	"mcpwm_foc_get_pid_pos_now\000"
 16469      6D5F666F 
 16469      635F6765 
 16469      745F7069 
 16469      645F706F 
 16470              	.LASF495:
 16471 03ed 74696D65 		.ascii	"timer_thread_wa\000"
 16471      725F7468 
 16471      72656164 
 16471      5F776100 
 16472              	.LASF581:
 16473 03fd 63684576 		.ascii	"chEvtSignalI\000"
 16473      74536967 
 16473      6E616C49 
 16473      00
 16474              	.LASF374:
 16475 040a 72706D5F 		.ascii	"rpm_neg_cut_end\000"
 16475      6E65675F 
 16475      6375745F 
 16475      656E6400 
 16476              	.LASF86:
 16477 041a 76746C69 		.ascii	"vtlist\000"
 16477      737400
 16478              	.LASF368:
 16479 0421 6C6F5F6D 		.ascii	"lo_motor_temp_accel\000"
 16479      6F746F72 
 16479      5F74656D 
 16479      705F6163 
 16479      63656C00 
 16480              	.LASF48:
 16481 0435 705F7761 		.ascii	"p_waiting\000"
 16481      6974696E 
 16481      6700
 16482              	.LASF384:
 16483 043f 696E6465 		.ascii	"index\000"
ARM GAS  /tmp/ccB9RVXV.s 			page 296


 16483      7800
 16484              	.LASF303:
 16485 0445 434F4D4D 		.ascii	"COMM_REBOOT\000"
 16485      5F524542 
 16485      4F4F5400 
 16486              	.LASF85:
 16487 0451 726C6973 		.ascii	"rlist\000"
 16487      7400
 16488              	.LASF56:
 16489 0457 74687265 		.ascii	"threads_list_t\000"
 16489      6164735F 
 16489      6C697374 
 16489      5F7400
 16490              	.LASF210:
 16491 0466 736C5F6D 		.ascii	"sl_min_erpm_cycle_int_limit\000"
 16491      696E5F65 
 16491      72706D5F 
 16491      6379636C 
 16491      655F696E 
 16492              	.LASF219:
 16493 0482 666F635F 		.ascii	"foc_current_ki\000"
 16493      63757272 
 16493      656E745F 
 16493      6B6900
 16494              	.LASF218:
 16495 0491 666F635F 		.ascii	"foc_current_kp\000"
 16495      63757272 
 16495      656E745F 
 16495      6B7000
 16496              	.LASF483:
 16497 04a0 6D5F7374 		.ascii	"m_status_samples\000"
 16497      61747573 
 16497      5F73616D 
 16497      706C6573 
 16497      00
 16498              	.LASF507:
 16499 04b1 6D656D63 		.ascii	"memcpy\000"
 16499      707900
 16500              	.LASF351:
 16501 04b8 63757272 		.ascii	"current_samp\000"
 16501      656E745F 
 16501      73616D70 
 16501      00
 16502              	.LASF271:
 16503 04c5 6D5F6E74 		.ascii	"m_ntc_motor_beta\000"
 16503      635F6D6F 
 16503      746F725F 
 16503      62657461 
 16503      00
 16504              	.LASF350:
 16505 04d6 76616C5F 		.ascii	"val_samp\000"
 16505      73616D70 
 16505      00
 16506              	.LASF551:
 16507 04df 6D637077 		.ascii	"mcpwm_foc_set_configuration\000"
 16507      6D5F666F 
 16507      635F7365 
ARM GAS  /tmp/ccB9RVXV.s 			page 297


 16507      745F636F 
 16507      6E666967 
 16508              	.LASF30:
 16509 04fb 74707269 		.ascii	"tprio_t\000"
 16509      6F5F7400 
 16510              	.LASF539:
 16511 0503 6D637077 		.ascii	"mcpwm_get_tachometer_value\000"
 16511      6D5F6765 
 16511      745F7461 
 16511      63686F6D 
 16511      65746572 
 16512              	.LASF533:
 16513 051e 6D637077 		.ascii	"mcpwm_get_tot_current_directional_filtered\000"
 16513      6D5F6765 
 16513      745F746F 
 16513      745F6375 
 16513      7272656E 
 16514              	.LASF412:
 16515 0549 6D635F69 		.ascii	"mc_interface_get_tot_current_in_filtered\000"
 16515      6E746572 
 16515      66616365 
 16515      5F676574 
 16515      5F746F74 
 16516              	.LASF453:
 16517 0572 7A65726F 		.ascii	"zero\000"
 16517      00
 16518              	.LASF382:
 16519 0577 6D617863 		.ascii	"maxc\000"
 16519      00
 16520              	.LASF94:
 16521 057c 43434552 		.ascii	"CCER\000"
 16521      00
 16522              	.LASF142:
 16523 0581 464F435F 		.ascii	"FOC_SENSOR_MODE_ENCODER\000"
 16523      53454E53 
 16523      4F525F4D 
 16523      4F44455F 
 16523      454E434F 
 16524              	.LASF457:
 16525 0599 6D5F6661 		.ascii	"m_fault_now\000"
 16525      756C745F 
 16525      6E6F7700 
 16526              	.LASF454:
 16527 05a5 73616D70 		.ascii	"sample_last\000"
 16527      6C655F6C 
 16527      61737400 
 16528              	.LASF469:
 16529 05b1 6D5F6D6F 		.ascii	"m_motor_iq_iterations\000"
 16529      746F725F 
 16529      69715F69 
 16529      74657261 
 16529      74696F6E 
 16530              	.LASF380:
 16531 05c7 6C6F5F69 		.ascii	"lo_in_max\000"
 16531      6E5F6D61 
 16531      7800
 16532              	.LASF123:
ARM GAS  /tmp/ccB9RVXV.s 			page 298


 16533 05d1 7466756E 		.ascii	"tfunc_t\000"
 16533      635F7400 
 16534              	.LASF163:
 16535 05d9 44525638 		.ascii	"DRV8301_OC_REPORT_ONLY\000"
 16535      3330315F 
 16535      4F435F52 
 16535      45504F52 
 16535      545F4F4E 
 16536              	.LASF5:
 16537 05f0 5F5F696E 		.ascii	"__int16_t\000"
 16537      7431365F 
 16537      7400
 16538              	.LASF476:
 16539 05fa 6D5F7465 		.ascii	"m_temp_motor\000"
 16539      6D705F6D 
 16539      6F746F72 
 16539      00
 16540              	.LASF7:
 16541 0607 5F5F7569 		.ascii	"__uint16_t\000"
 16541      6E743136 
 16541      5F7400
 16542              	.LASF293:
 16543 0612 434F4D4D 		.ascii	"COMM_SAMPLE_PRINT\000"
 16543      5F53414D 
 16543      504C455F 
 16543      5052494E 
 16543      5400
 16544              	.LASF50:
 16545 0624 705F6D73 		.ascii	"p_msg\000"
 16545      6700
 16546              	.LASF260:
 16547 062a 6D5F6661 		.ascii	"m_fault_stop_time_ms\000"
 16547      756C745F 
 16547      73746F70 
 16547      5F74696D 
 16547      655F6D73 
 16548              	.LASF436:
 16549 063f 6D635F69 		.ascii	"mc_interface_set_pid_speed\000"
 16549      6E746572 
 16549      66616365 
 16549      5F736574 
 16549      5F706964 
 16550              	.LASF461:
 16551 065a 6D5F6C6F 		.ascii	"m_lock_override_once\000"
 16551      636B5F6F 
 16551      76657272 
 16551      6964655F 
 16551      6F6E6365 
 16552              	.LASF446:
 16553 066f 63757272 		.ascii	"current_in\000"
 16553      656E745F 
 16553      696E00
 16554              	.LASF249:
 16555 067a 735F7069 		.ascii	"s_pid_kd\000"
 16555      645F6B64 
 16555      00
 16556              	.LASF517:
ARM GAS  /tmp/ccB9RVXV.s 			page 299


 16557 0683 6D637077 		.ascii	"mcpwm_get_state\000"
 16557      6D5F6765 
 16557      745F7374 
 16557      61746500 
 16558              	.LASF426:
 16559 0693 6D6F6465 		.ascii	"mode\000"
 16559      00
 16560              	.LASF472:
 16561 0698 6D5F7761 		.ascii	"m_watt_seconds\000"
 16561      74745F73 
 16561      65636F6E 
 16561      647300
 16562              	.LASF372:
 16563 06a7 6C6F5F6D 		.ascii	"lo_min_rpm\000"
 16563      696E5F72 
 16563      706D00
 16564              	.LASF521:
 16565 06b2 6D637077 		.ascii	"mcpwm_get_duty_cycle_now\000"
 16565      6D5F6765 
 16565      745F6475 
 16565      74795F63 
 16565      79636C65 
 16566              	.LASF473:
 16567 06cb 6D5F7761 		.ascii	"m_watt_seconds_charged\000"
 16567      74745F73 
 16567      65636F6E 
 16567      64735F63 
 16567      68617267 
 16568              	.LASF312:
 16569 06e2 434F4D4D 		.ascii	"COMM_ROTOR_POSITION_CUMULATIVE\000"
 16569      5F524F54 
 16569      4F525F50 
 16569      4F534954 
 16569      494F4E5F 
 16570              	.LASF225:
 16571 0701 666F635F 		.ascii	"foc_motor_l\000"
 16571      6D6F746F 
 16571      725F6C00 
 16572              	.LASF226:
 16573 070d 666F635F 		.ascii	"foc_motor_r\000"
 16573      6D6F746F 
 16573      725F7200 
 16574              	.LASF152:
 16575 0719 4641554C 		.ascii	"FAULT_CODE_DRV\000"
 16575      545F434F 
 16575      44455F44 
 16575      525600
 16576              	.LASF103:
 16577 0728 73746B61 		.ascii	"stkalign_t\000"
 16577      6C69676E 
 16577      5F7400
 16578              	.LASF73:
 16579 0733 76745F70 		.ascii	"vt_prev\000"
 16579      72657600 
 16580              	.LASF509:
 16581 073b 63685468 		.ascii	"chThdCreateStatic\000"
 16581      64437265 
ARM GAS  /tmp/ccB9RVXV.s 			page 300


 16581      61746553 
 16581      74617469 
 16581      6300
 16582              	.LASF4:
 16583 074d 756E7369 		.ascii	"unsigned char\000"
 16583      676E6564 
 16583      20636861 
 16583      7200
 16584              	.LASF582:
 16585 075b 6C656470 		.ascii	"ledpwm_update_pwm\000"
 16585      776D5F75 
 16585      70646174 
 16585      655F7077 
 16585      6D00
 16586              	.LASF250:
 16587 076d 735F7069 		.ascii	"s_pid_min_erpm\000"
 16587      645F6D69 
 16587      6E5F6572 
 16587      706D00
 16588              	.LASF371:
 16589 077c 72706D5F 		.ascii	"rpm_pos_cut_end\000"
 16589      706F735F 
 16589      6375745F 
 16589      656E6400 
 16590              	.LASF117:
 16591 078c 735F636E 		.ascii	"s_cnt\000"
 16591      7400
 16592              	.LASF61:
 16593 0792 72656164 		.ascii	"ready_list_t\000"
 16593      795F6C69 
 16593      73745F74 
 16593      00
 16594              	.LASF57:
 16595 079f 63685F74 		.ascii	"ch_thread\000"
 16595      68726561 
 16595      6400
 16596              	.LASF0:
 16597 07a9 666C6F61 		.ascii	"float\000"
 16597      7400
 16598              	.LASF201:
 16599 07af 6C5F7761 		.ascii	"l_watt_max\000"
 16599      74745F6D 
 16599      617800
 16600              	.LASF220:
 16601 07ba 666F635F 		.ascii	"foc_f_sw\000"
 16601      665F7377 
 16601      00
 16602              	.LASF530:
 16603 07c3 6D637077 		.ascii	"mcpwm_foc_get_tot_current_directional\000"
 16603      6D5F666F 
 16603      635F6765 
 16603      745F746F 
 16603      745F6375 
 16604              	.LASF411:
 16605 07e9 6D635F69 		.ascii	"mc_interface_get_tot_current_in\000"
 16605      6E746572 
 16605      66616365 
ARM GAS  /tmp/ccB9RVXV.s 			page 301


 16605      5F676574 
 16605      5F746F74 
 16606              	.LASF80:
 16607 0809 73797374 		.ascii	"system_debug_t\000"
 16607      656D5F64 
 16607      65627567 
 16607      5F7400
 16608              	.LASF194:
 16609 0818 6C5F7465 		.ascii	"l_temp_fet_start\000"
 16609      6D705F66 
 16609      65745F73 
 16609      74617274 
 16609      00
 16610              	.LASF91:
 16611 0829 44494552 		.ascii	"DIER\000"
 16611      00
 16612              	.LASF39:
 16613 082e 705F6374 		.ascii	"p_ctx\000"
 16613      7800
 16614              	.LASF76:
 16615 0834 76745F70 		.ascii	"vt_par\000"
 16615      617200
 16616              	.LASF388:
 16617 083b 6D635F69 		.ascii	"mc_interface_set_pwm_callback\000"
 16617      6E746572 
 16617      66616365 
 16617      5F736574 
 16617      5F70776D 
 16618              	.LASF68:
 16619 0859 725F6375 		.ascii	"r_current\000"
 16619      7272656E 
 16619      7400
 16620              	.LASF304:
 16621 0863 434F4D4D 		.ascii	"COMM_ALIVE\000"
 16621      5F414C49 
 16621      564500
 16622              	.LASF176:
 16623 086e 636F6D6D 		.ascii	"comm_mode\000"
 16623      5F6D6F64 
 16623      6500
 16624              	.LASF458:
 16625 0878 6D5F6967 		.ascii	"m_ignore_iterations\000"
 16625      6E6F7265 
 16625      5F697465 
 16625      72617469 
 16625      6F6E7300 
 16626              	.LASF574:
 16627 088c 6D637077 		.ascii	"mcpwm_set_current\000"
 16627      6D5F7365 
 16627      745F6375 
 16627      7272656E 
 16627      7400
 16628              	.LASF153:
 16629 089e 4641554C 		.ascii	"FAULT_CODE_ABS_OVER_CURRENT\000"
 16629      545F434F 
 16629      44455F41 
 16629      42535F4F 
ARM GAS  /tmp/ccB9RVXV.s 			page 302


 16629      5645525F 
 16630              	.LASF228:
 16631 08ba 666F635F 		.ascii	"foc_observer_gain\000"
 16631      6F627365 
 16631      72766572 
 16631      5F676169 
 16631      6E00
 16632              	.LASF488:
 16633 08cc 6D5F7361 		.ascii	"m_sample_int\000"
 16633      6D706C65 
 16633      5F696E74 
 16633      00
 16634              	.LASF23:
 16635 08d9 75696E74 		.ascii	"uint64_t\000"
 16635      36345F74 
 16635      00
 16636              	.LASF396:
 16637 08e2 6D635F69 		.ascii	"mc_interface_fault_to_string\000"
 16637      6E746572 
 16637      66616365 
 16637      5F666175 
 16637      6C745F74 
 16638              	.LASF419:
 16639 08ff 6D635F69 		.ascii	"mc_interface_read_reset_avg_motor_current\000"
 16639      6E746572 
 16639      66616365 
 16639      5F726561 
 16639      645F7265 
 16640              	.LASF118:
 16641 0929 63685F6D 		.ascii	"ch_mutex\000"
 16641      75746578 
 16641      00
 16642              	.LASF251:
 16643 0932 735F7069 		.ascii	"s_pid_allow_braking\000"
 16643      645F616C 
 16643      6C6F775F 
 16643      6272616B 
 16643      696E6700 
 16644              	.LASF346:
 16645 0946 76616C75 		.ascii	"value\000"
 16645      6500
 16646              	.LASF138:
 16647 094c 53454E53 		.ascii	"SENSOR_MODE_SENSORED\000"
 16647      4F525F4D 
 16647      4F44455F 
 16647      53454E53 
 16647      4F524544 
 16648              	.LASF479:
 16649 0961 6D5F7068 		.ascii	"m_ph1_samples\000"
 16649      315F7361 
 16649      6D706C65 
 16649      7300
 16650              	.LASF480:
 16651 096f 6D5F7068 		.ascii	"m_ph2_samples\000"
 16651      325F7361 
 16651      6D706C65 
 16651      7300
ARM GAS  /tmp/ccB9RVXV.s 			page 303


 16652              	.LASF586:
 16653 097d 6D637077 		.ascii	"mcpwm_foc_get_abs_motor_current_filtered\000"
 16653      6D5F666F 
 16653      635F6765 
 16653      745F6162 
 16653      735F6D6F 
 16654              	.LASF321:
 16655 09a6 74696D5F 		.ascii	"tim_val_samp\000"
 16655      76616C5F 
 16655      73616D70 
 16655      00
 16656              	.LASF70:
 16657 09b3 76697274 		.ascii	"virtual_timer_t\000"
 16657      75616C5F 
 16657      74696D65 
 16657      725F7400 
 16658              	.LASF65:
 16659 09c3 725F6374 		.ascii	"r_ctx\000"
 16659      7800
 16660              	.LASF72:
 16661 09c9 76745F6E 		.ascii	"vt_next\000"
 16661      65787400 
 16662              	.LASF434:
 16663 09d1 6D635F69 		.ascii	"mc_interface_brake_now\000"
 16663      6E746572 
 16663      66616365 
 16663      5F627261 
 16663      6B655F6E 
 16664              	.LASF277:
 16665 09e8 434F4D4D 		.ascii	"COMM_WRITE_NEW_APP_DATA\000"
 16665      5F575249 
 16665      54455F4E 
 16665      45575F41 
 16665      50505F44 
 16666              	.LASF276:
 16667 0a00 434F4D4D 		.ascii	"COMM_ERASE_NEW_APP\000"
 16667      5F455241 
 16667      53455F4E 
 16667      45575F41 
 16667      505000
 16668              	.LASF25:
 16669 0a13 7274636E 		.ascii	"rtcnt_t\000"
 16669      745F7400 
 16670              	.LASF139:
 16671 0a1b 53454E53 		.ascii	"SENSOR_MODE_HYBRID\000"
 16671      4F525F4D 
 16671      4F44455F 
 16671      48594252 
 16671      494400
 16672              	.LASF266:
 16673 0a2e 6D5F6472 		.ascii	"m_drv8301_oc_mode\000"
 16673      76383330 
 16673      315F6F63 
 16673      5F6D6F64 
 16673      6500
 16674              	.LASF203:
 16675 0a40 6C6F5F63 		.ascii	"lo_current_max\000"
ARM GAS  /tmp/ccB9RVXV.s 			page 304


 16675      75727265 
 16675      6E745F6D 
 16675      617800
 16676              	.LASF223:
 16677 0a4f 666F635F 		.ascii	"foc_encoder_inverted\000"
 16677      656E636F 
 16677      6465725F 
 16677      696E7665 
 16677      72746564 
 16678              	.LASF257:
 16679 0a64 63635F6D 		.ascii	"cc_min_current\000"
 16679      696E5F63 
 16679      75727265 
 16679      6E7400
 16680              	.LASF158:
 16681 0a73 53454E53 		.ascii	"SENSOR_PORT_MODE_ABI\000"
 16681      4F525F50 
 16681      4F52545F 
 16681      4D4F4445 
 16681      5F414249 
 16682              	.LASF589:
 16683 0a88 6D635F69 		.ascii	"mc_interface.c\000"
 16683      6E746572 
 16683      66616365 
 16683      2E6300
 16684              	.LASF328:
 16685 0a97 636C6561 		.ascii	"clear\000"
 16685      7200
 16686              	.LASF352:
 16687 0a9d 66646174 		.ascii	"fdata\000"
 16687      6100
 16688              	.LASF481:
 16689 0aa3 6D5F7068 		.ascii	"m_ph3_samples\000"
 16689      335F7361 
 16689      6D706C65 
 16689      7300
 16690              	.LASF24:
 16691 0ab1 73697A65 		.ascii	"size_t\000"
 16691      5F7400
 16692              	.LASF532:
 16693 0ab8 6D637077 		.ascii	"mcpwm_foc_get_tot_current_directional_filtered\000"
 16693      6D5F666F 
 16693      635F6765 
 16693      745F746F 
 16693      745F6375 
 16694              	.LASF159:
 16695 0ae7 53454E53 		.ascii	"SENSOR_PORT_MODE_AS5047_SPI\000"
 16695      4F525F50 
 16695      4F52545F 
 16695      4D4F4445 
 16695      5F415335 
 16696              	.LASF170:
 16697 0b03 44454255 		.ascii	"DEBUG_SAMPLING_TRIGGER_FAULT\000"
 16697      475F5341 
 16697      4D504C49 
 16697      4E475F54 
 16697      52494747 
ARM GAS  /tmp/ccB9RVXV.s 			page 305


 16698              	.LASF18:
 16699 0b20 75696E74 		.ascii	"uint8_t\000"
 16699      385F7400 
 16700              	.LASF407:
 16701 0b28 6D635F69 		.ascii	"mc_interface_get_tot_current\000"
 16701      6E746572 
 16701      66616365 
 16701      5F676574 
 16701      5F746F74 
 16702              	.LASF67:
 16703 0b45 725F6F6C 		.ascii	"r_older\000"
 16703      64657200 
 16704              	.LASF37:
 16705 0b4d 705F7072 		.ascii	"p_prev\000"
 16705      657600
 16706              	.LASF300:
 16707 0b54 434F4D4D 		.ascii	"COMM_DETECT_MOTOR_FLUX_LINKAGE\000"
 16707      5F444554 
 16707      4543545F 
 16707      4D4F544F 
 16707      525F464C 
 16708              	.LASF564:
 16709 0b73 6D637077 		.ascii	"mcpwm_foc_init_done\000"
 16709      6D5F666F 
 16709      635F696E 
 16709      69745F64 
 16709      6F6E6500 
 16710              	.LASF208:
 16711 0b87 6C6F5F63 		.ascii	"lo_current_motor_min_now\000"
 16711      75727265 
 16711      6E745F6D 
 16711      6F746F72 
 16711      5F6D696E 
 16712              	.LASF489:
 16713 0ba0 6D5F7361 		.ascii	"m_sample_mode\000"
 16713      6D706C65 
 16713      5F6D6F64 
 16713      6500
 16714              	.LASF190:
 16715 0bae 6C5F6D61 		.ascii	"l_max_vin\000"
 16715      785F7669 
 16715      6E00
 16716              	.LASF109:
 16717 0bb8 65786974 		.ascii	"exitcode\000"
 16717      636F6465 
 16717      00
 16718              	.LASF536:
 16719 0bc1 6D637077 		.ascii	"mcpwm_foc_get_tot_current_in_filtered\000"
 16719      6D5F666F 
 16719      635F6765 
 16719      745F746F 
 16719      745F6375 
 16720              	.LASF376:
 16721 0be7 6C6F5F6D 		.ascii	"lo_min\000"
 16721      696E00
 16722              	.LASF366:
 16723 0bee 74656D70 		.ascii	"temp_motor_accel_end\000"
ARM GAS  /tmp/ccB9RVXV.s 			page 306


 16723      5F6D6F74 
 16723      6F725F61 
 16723      6363656C 
 16723      5F656E64 
 16724              	.LASF420:
 16725 0c03 6D635F69 		.ascii	"mc_interface_read_reset_avg_input_current\000"
 16725      6E746572 
 16725      66616365 
 16725      5F726561 
 16725      645F7265 
 16726              	.LASF401:
 16727 0c2d 6D635F69 		.ascii	"mc_interface_get_rpm\000"
 16727      6E746572 
 16727      66616365 
 16727      5F676574 
 16727      5F72706D 
 16728              	.LASF279:
 16729 0c42 434F4D4D 		.ascii	"COMM_SET_DUTY\000"
 16729      5F534554 
 16729      5F445554 
 16729      5900
 16730              	.LASF331:
 16731 0c50 4F535045 		.ascii	"OSPEEDR\000"
 16731      45445200 
 16732              	.LASF191:
 16733 0c58 6C5F6261 		.ascii	"l_battery_cut_start\000"
 16733      74746572 
 16733      795F6375 
 16733      745F7374 
 16733      61727400 
 16734              	.LASF570:
 16735 0c6c 6D637077 		.ascii	"mcpwm_foc_set_pid_speed\000"
 16735      6D5F666F 
 16735      635F7365 
 16735      745F7069 
 16735      645F7370 
 16736              	.LASF192:
 16737 0c84 6C5F6261 		.ascii	"l_battery_cut_end\000"
 16737      74746572 
 16737      795F6375 
 16737      745F656E 
 16737      6400
 16738              	.LASF504:
 16739 0c96 6D637077 		.ascii	"mcpwm_vzero\000"
 16739      6D5F767A 
 16739      65726F00 
 16740              	.LASF189:
 16741 0ca2 6C5F6D69 		.ascii	"l_min_vin\000"
 16741      6E5F7669 
 16741      6E00
 16742              	.LASF525:
 16743 0cac 6D637077 		.ascii	"mcpwm_get_rpm\000"
 16743      6D5F6765 
 16743      745F7270 
 16743      6D00
 16744              	.LASF288:
 16745 0cba 434F4D4D 		.ascii	"COMM_GET_MCCONF\000"
ARM GAS  /tmp/ccB9RVXV.s 			page 307


 16745      5F474554 
 16745      5F4D4343 
 16745      4F4E4600 
 16746              	.LASF528:
 16747 0cca 6D637077 		.ascii	"mcpwm_foc_get_tot_current_filtered\000"
 16747      6D5F666F 
 16747      635F6765 
 16747      745F746F 
 16747      745F6375 
 16748              	.LASF240:
 16749 0ced 666F635F 		.ascii	"foc_hall_table\000"
 16749      68616C6C 
 16749      5F746162 
 16749      6C6500
 16750              	.LASF286:
 16751 0cfc 434F4D4D 		.ascii	"COMM_SET_SERVO_POS\000"
 16751      5F534554 
 16751      5F534552 
 16751      564F5F50 
 16751      4F5300
 16752              	.LASF399:
 16753 0d0f 6D635F69 		.ascii	"mc_interface_get_duty_cycle_now\000"
 16753      6E746572 
 16753      66616365 
 16753      5F676574 
 16753      5F647574 
 16754              	.LASF305:
 16755 0d2f 434F4D4D 		.ascii	"COMM_GET_DECODED_PPM\000"
 16755      5F474554 
 16755      5F444543 
 16755      4F444544 
 16755      5F50504D 
 16756              	.LASF147:
 16757 0d44 4D4F544F 		.ascii	"MOTOR_TYPE_FOC\000"
 16757      525F5459 
 16757      50455F46 
 16757      4F4300
 16758              	.LASF209:
 16759 0d53 736C5F6D 		.ascii	"sl_min_erpm\000"
 16759      696E5F65 
 16759      72706D00 
 16760              	.LASF95:
 16761 0d5f 43435231 		.ascii	"CCR1\000"
 16761      00
 16762              	.LASF96:
 16763 0d64 43435232 		.ascii	"CCR2\000"
 16763      00
 16764              	.LASF97:
 16765 0d69 43435233 		.ascii	"CCR3\000"
 16765      00
 16766              	.LASF98:
 16767 0d6e 43435234 		.ascii	"CCR4\000"
 16767      00
 16768              	.LASF370:
 16769 0d73 72706D5F 		.ascii	"rpm_pos_cut_start\000"
 16769      706F735F 
 16769      6375745F 
ARM GAS  /tmp/ccB9RVXV.s 			page 308


 16769      73746172 
 16769      7400
 16770              	.LASF555:
 16771 0d85 6D637077 		.ascii	"mcpwm_deinit\000"
 16771      6D5F6465 
 16771      696E6974 
 16771      00
 16772              	.LASF264:
 16773 0d92 6D5F7365 		.ascii	"m_sensor_port_mode\000"
 16773      6E736F72 
 16773      5F706F72 
 16773      745F6D6F 
 16773      646500
 16774              	.LASF573:
 16775 0da5 6D637077 		.ascii	"mcpwm_set_pid_pos\000"
 16775      6D5F7365 
 16775      745F7069 
 16775      645F706F 
 16775      7300
 16776              	.LASF150:
 16777 0db7 4641554C 		.ascii	"FAULT_CODE_OVER_VOLTAGE\000"
 16777      545F434F 
 16777      44455F4F 
 16777      5645525F 
 16777      564F4C54 
 16778              	.LASF262:
 16779 0dcf 6D5F6375 		.ascii	"m_current_backoff_gain\000"
 16779      7272656E 
 16779      745F6261 
 16779      636B6F66 
 16779      665F6761 
 16780              	.LASF556:
 16781 0de6 63685468 		.ascii	"chThdSleep\000"
 16781      64536C65 
 16781      657000
 16782              	.LASF265:
 16783 0df1 6D5F696E 		.ascii	"m_invert_direction\000"
 16783      76657274 
 16783      5F646972 
 16783      65637469 
 16783      6F6E00
 16784              	.LASF588:
 16785 0e04 474E5520 		.ascii	"GNU C 4.8.4 20141219 (release) -mcpu=cortex-m4 -mfl"
 16785      4320342E 
 16785      382E3420 
 16785      32303134 
 16785      31323139 
 16786 0e37 6F61742D 		.ascii	"oat-abi=hard -mfpu=fpv4-sp-d16 -mno-thumb-interwork"
 16786      6162693D 
 16786      68617264 
 16786      202D6D66 
 16786      70753D66 
 16787 0e6a 202D6D74 		.ascii	" -mthumb -ggdb -O2 -std=gnu99 -fomit-frame-pointer "
 16787      68756D62 
 16787      202D6767 
 16787      6462202D 
 16787      4F32202D 
ARM GAS  /tmp/ccB9RVXV.s 			page 309


 16788 0e9d 2D66616C 		.ascii	"-falign-functions=16 -ffunction-sections -fdata-sec"
 16788      69676E2D 
 16788      66756E63 
 16788      74696F6E 
 16788      733D3136 
 16789 0ed0 74696F6E 		.ascii	"tions -fno-common -fsingle-precision-constant\000"
 16789      73202D66 
 16789      6E6F2D63 
 16789      6F6D6D6F 
 16789      6E202D66 
 16790              	.LASF337:
 16791 0efe 73746D33 		.ascii	"stm32_gpio_t\000"
 16791      325F6770 
 16791      696F5F74 
 16791      00
 16792              	.LASF308:
 16793 0f0b 434F4D4D 		.ascii	"COMM_FORWARD_CAN\000"
 16793      5F464F52 
 16793      57415244 
 16793      5F43414E 
 16793      00
 16794              	.LASF108:
 16795 0f1c 7264796D 		.ascii	"rdymsg\000"
 16795      736700
 16796              	.LASF487:
 16797 0f23 6D5F7361 		.ascii	"m_sample_len\000"
 16797      6D706C65 
 16797      5F6C656E 
 16797      00
 16798              	.LASF200:
 16799 0f30 6C5F6D61 		.ascii	"l_max_duty\000"
 16799      785F6475 
 16799      747900
 16800              	.LASF297:
 16801 0f3b 434F4D4D 		.ascii	"COMM_EXPERIMENT_SAMPLE\000"
 16801      5F455850 
 16801      4552494D 
 16801      454E545F 
 16801      53414D50 
 16802              	.LASF168:
 16803 0f52 44454255 		.ascii	"DEBUG_SAMPLING_START\000"
 16803      475F5341 
 16803      4D504C49 
 16803      4E475F53 
 16803      54415254 
 16804              	.LASF38:
 16805 0f67 705F7072 		.ascii	"p_prio\000"
 16805      696F00
 16806              	.LASF522:
 16807 0f6e 6D637077 		.ascii	"mcpwm_foc_get_sampling_frequency_now\000"
 16807      6D5F666F 
 16807      635F6765 
 16807      745F7361 
 16807      6D706C69 
 16808              	.LASF394:
 16809 0f93 6D635F69 		.ascii	"mc_interface_get_fault\000"
 16809      6E746572 
ARM GAS  /tmp/ccB9RVXV.s 			page 310


 16809      66616365 
 16809      5F676574 
 16809      5F666175 
 16810              	.LASF14:
 16811 0faa 5F5F7569 		.ascii	"__uint64_t\000"
 16811      6E743634 
 16811      5F7400
 16812              	.LASF577:
 16813 0fb5 6D637077 		.ascii	"mcpwm_set_brake_current\000"
 16813      6D5F7365 
 16813      745F6272 
 16813      616B655F 
 16813      63757272 
 16814              	.LASF241:
 16815 0fcd 666F635F 		.ascii	"foc_sl_erpm\000"
 16815      736C5F65 
 16815      72706D00 
 16816              	.LASF390:
 16817 0fd9 6D635F69 		.ascii	"mc_interface_lock\000"
 16817      6E746572 
 16817      66616365 
 16817      5F6C6F63 
 16817      6B00
 16818              	.LASF549:
 16819 0feb 7574696C 		.ascii	"utils_min_abs\000"
 16819      735F6D69 
 16819      6E5F6162 
 16819      7300
 16820              	.LASF523:
 16821 0ff9 6D637077 		.ascii	"mcpwm_get_switching_frequency_now\000"
 16821      6D5F6765 
 16821      745F7377 
 16821      69746368 
 16821      696E675F 
 16822              	.LASF379:
 16823 101b 6C6F5F69 		.ascii	"lo_in_min_watt\000"
 16823      6E5F6D69 
 16823      6E5F7761 
 16823      747400
 16824              	.LASF493:
 16825 102a 6D5F6C61 		.ascii	"m_last_adc_duration_sample\000"
 16825      73745F61 
 16825      64635F64 
 16825      75726174 
 16825      696F6E5F 
 16826              	.LASF196:
 16827 1045 6C5F7465 		.ascii	"l_temp_motor_start\000"
 16827      6D705F6D 
 16827      6F746F72 
 16827      5F737461 
 16827      727400
 16828              	.LASF506:
 16829 1058 636F6D6D 		.ascii	"commands_send_packet\000"
 16829      616E6473 
 16829      5F73656E 
 16829      645F7061 
 16829      636B6574 
ARM GAS  /tmp/ccB9RVXV.s 			page 311


 16830              	.LASF213:
 16831 106d 736C5F70 		.ascii	"sl_phase_advance_at_br\000"
 16831      68617365 
 16831      5F616476 
 16831      616E6365 
 16831      5F61745F 
 16832              	.LASF36:
 16833 1084 705F6E65 		.ascii	"p_next\000"
 16833      787400
 16834              	.LASF414:
 16835 108b 6D635F69 		.ascii	"mc_interface_set_configuration\000"
 16835      6E746572 
 16835      66616365 
 16835      5F736574 
 16835      5F636F6E 
 16836              	.LASF258:
 16837 10aa 63635F67 		.ascii	"cc_gain\000"
 16837      61696E00 
 16838              	.LASF500:
 16839 10b2 4144435F 		.ascii	"ADC_curr_norm_value\000"
 16839      63757272 
 16839      5F6E6F72 
 16839      6D5F7661 
 16839      6C756500 
 16840              	.LASF385:
 16841 10c6 696E645F 		.ascii	"ind_samp\000"
 16841      73616D70 
 16841      00
 16842              	.LASF28:
 16843 10cf 74726566 		.ascii	"trefs_t\000"
 16843      735F7400 
 16844              	.LASF54:
 16845 10d7 705F6D70 		.ascii	"p_mpool\000"
 16845      6F6F6C00 
 16846              	.LASF585:
 16847 10df 6D637077 		.ascii	"mcpwm_foc_get_abs_motor_current\000"
 16847      6D5F666F 
 16847      635F6765 
 16847      745F6162 
 16847      735F6D6F 
 16848              	.LASF175:
 16849 10ff 70776D5F 		.ascii	"pwm_mode\000"
 16849      6D6F6465 
 16849      00
 16850              	.LASF433:
 16851 1108 64757479 		.ascii	"dutyCycle\000"
 16851      4379636C 
 16851      6500
 16852              	.LASF516:
 16853 1112 6D637077 		.ascii	"mcpwm_foc_get_state\000"
 16853      6D5F666F 
 16853      635F6765 
 16853      745F7374 
 16853      61746500 
 16854              	.LASF177:
 16855 1126 6D6F746F 		.ascii	"motor_type\000"
 16855      725F7479 
ARM GAS  /tmp/ccB9RVXV.s 			page 312


 16855      706500
 16856              	.LASF204:
 16857 1131 6C6F5F63 		.ascii	"lo_current_min\000"
 16857      75727265 
 16857      6E745F6D 
 16857      696E00
 16858              	.LASF211:
 16859 1140 736C5F6D 		.ascii	"sl_max_fullbreak_current_dir_change\000"
 16859      61785F66 
 16859      756C6C62 
 16859      7265616B 
 16859      5F637572 
 16860              	.LASF438:
 16861 1164 6D635F69 		.ascii	"mc_interface_set_current_rel\000"
 16861      6E746572 
 16861      66616365 
 16861      5F736574 
 16861      5F637572 
 16862              	.LASF552:
 16863 1181 6D637077 		.ascii	"mcpwm_set_configuration\000"
 16863      6D5F7365 
 16863      745F636F 
 16863      6E666967 
 16863      75726174 
 16864              	.LASF26:
 16865 1199 746D6F64 		.ascii	"tmode_t\000"
 16865      655F7400 
 16866              	.LASF400:
 16867 11a1 6D635F69 		.ascii	"mc_interface_get_sampling_frequency_now\000"
 16867      6E746572 
 16867      66616365 
 16867      5F676574 
 16867      5F73616D 
 16868              	.LASF237:
 16869 11c9 666F635F 		.ascii	"foc_sl_d_current_duty\000"
 16869      736C5F64 
 16869      5F637572 
 16869      72656E74 
 16869      5F647574 
 16870              	.LASF333:
 16871 11df 42535252 		.ascii	"BSRR\000"
 16871      00
 16872              	.LASF101:
 16873 11e4 54494D5F 		.ascii	"TIM_TypeDef\000"
 16873      54797065 
 16873      44656600 
 16874              	.LASF216:
 16875 11f0 68616C6C 		.ascii	"hall_table\000"
 16875      5F746162 
 16875      6C6500
 16876              	.LASF424:
 16877 11fb 6D635F69 		.ascii	"mc_interface_get_pid_pos_now\000"
 16877      6E746572 
 16877      66616365 
 16877      5F676574 
 16877      5F706964 
 16878              	.LASF465:
ARM GAS  /tmp/ccB9RVXV.s 			page 313


 16879 1218 6D5F696E 		.ascii	"m_input_current_iterations\000"
 16879      7075745F 
 16879      63757272 
 16879      656E745F 
 16879      69746572 
 16880              	.LASF513:
 16881 1233 6D635F69 		.ascii	"mc_interface_get_last_sample_adc_isr_duration\000"
 16881      6E746572 
 16881      66616365 
 16881      5F676574 
 16881      5F6C6173 
 16882              	.LASF173:
 16883 1261 44454255 		.ascii	"DEBUG_SAMPLING_SEND_LAST_SAMPLES\000"
 16883      475F5341 
 16883      4D504C49 
 16883      4E475F53 
 16883      454E445F 
 16884              	.LASF146:
 16885 1282 4D4F544F 		.ascii	"MOTOR_TYPE_DC\000"
 16885      525F5459 
 16885      50455F44 
 16885      4300
 16886              	.LASF546:
 16887 1290 6D637077 		.ascii	"mcpwm_foc_stop_pwm\000"
 16887      6D5F666F 
 16887      635F7374 
 16887      6F705F70 
 16887      776D00
 16888              	.LASF127:
 16889 12a3 4D435F53 		.ascii	"MC_STATE_RUNNING\000"
 16889      54415445 
 16889      5F52554E 
 16889      4E494E47 
 16889      00
 16890              	.LASF418:
 16891 12b4 6D635F69 		.ascii	"mc_interface_get_last_inj_adc_isr_duration\000"
 16891      6E746572 
 16891      66616365 
 16891      5F676574 
 16891      5F6C6173 
 16892              	.LASF227:
 16893 12df 666F635F 		.ascii	"foc_motor_flux_linkage\000"
 16893      6D6F746F 
 16893      725F666C 
 16893      75785F6C 
 16893      696E6B61 
 16894              	.LASF343:
 16895 12f6 706F7274 		.ascii	"port_unlock_from_isr\000"
 16895      5F756E6C 
 16895      6F636B5F 
 16895      66726F6D 
 16895      5F697372 
 16896              	.LASF534:
 16897 130b 6D637077 		.ascii	"mcpwm_foc_get_tot_current_in\000"
 16897      6D5F666F 
 16897      635F6765 
 16897      745F746F 
ARM GAS  /tmp/ccB9RVXV.s 			page 314


 16897      745F6375 
 16898              	.LASF212:
 16899 1328 736C5F63 		.ascii	"sl_cycle_int_limit\000"
 16899      79636C65 
 16899      5F696E74 
 16899      5F6C696D 
 16899      697400
 16900              	.LASF17:
 16901 133b 696E7438 		.ascii	"int8_t\000"
 16901      5F7400
 16902              	.LASF82:
 16903 1342 70616E69 		.ascii	"panic_msg\000"
 16903      635F6D73 
 16903      6700
 16904              	.LASF471:
 16905 134c 6D5F616D 		.ascii	"m_amp_seconds_charged\000"
 16905      705F7365 
 16905      636F6E64 
 16905      735F6368 
 16905      61726765 
 16906              	.LASF66:
 16907 1362 725F6E65 		.ascii	"r_newer\000"
 16907      77657200 
 16908              	.LASF280:
 16909 136a 434F4D4D 		.ascii	"COMM_SET_CURRENT\000"
 16909      5F534554 
 16909      5F435552 
 16909      52454E54 
 16909      00
 16910              	.LASF421:
 16911 137b 6D635F69 		.ascii	"mc_interface_read_reset_avg_id\000"
 16911      6E746572 
 16911      66616365 
 16911      5F726561 
 16911      645F7265 
 16912              	.LASF583:
 16913 139a 6D637077 		.ascii	"mcpwm_foc_get_id\000"
 16913      6D5F666F 
 16913      635F6765 
 16913      745F6964 
 16913      00
 16914              	.LASF342:
 16915 13ab 706F7274 		.ascii	"port_lock_from_isr\000"
 16915      5F6C6F63 
 16915      6B5F6672 
 16915      6F6D5F69 
 16915      737200
 16916              	.LASF584:
 16917 13be 6D637077 		.ascii	"mcpwm_foc_get_iq\000"
 16917      6D5F666F 
 16917      635F6765 
 16917      745F6971 
 16917      00
 16918              	.LASF494:
 16919 13cf 70776E5F 		.ascii	"pwn_done_func\000"
 16919      646F6E65 
 16919      5F66756E 
ARM GAS  /tmp/ccB9RVXV.s 			page 315


 16919      6300
 16920              	.LASF29:
 16921 13dd 74736C69 		.ascii	"tslices_t\000"
 16921      6365735F 
 16921      7400
 16922              	.LASF470:
 16923 13e7 6D5F616D 		.ascii	"m_amp_seconds\000"
 16923      705F7365 
 16923      636F6E64 
 16923      7300
 16924              	.LASF403:
 16925 13f5 72657365 		.ascii	"reset\000"
 16925      7400
 16926              	.LASF320:
 16927 13fb 6379636C 		.ascii	"cycles_running\000"
 16927      65735F72 
 16927      756E6E69 
 16927      6E6700
 16928              	.LASF568:
 16929 140a 6D637077 		.ascii	"mcpwm_foc_set_duty_noramp\000"
 16929      6D5F666F 
 16929      635F7365 
 16929      745F6475 
 16929      74795F6E 
 16930              	.LASF74:
 16931 1424 76745F64 		.ascii	"vt_delta\000"
 16931      656C7461 
 16931      00
 16932              	.LASF89:
 16933 142d 73697A65 		.ascii	"sizetype\000"
 16933      74797065 
 16933      00
 16934              	.LASF410:
 16935 1436 6D635F69 		.ascii	"mc_interface_get_tot_current_directional_filtered\000"
 16935      6E746572 
 16935      66616365 
 16935      5F676574 
 16935      5F746F74 
 16936              	.LASF358:
 16937 1468 72706D5F 		.ascii	"rpm_now\000"
 16937      6E6F7700 
 16938              	.LASF19:
 16939 1470 696E7431 		.ascii	"int16_t\000"
 16939      365F7400 
 16940              	.LASF8:
 16941 1478 73686F72 		.ascii	"short unsigned int\000"
 16941      7420756E 
 16941      7369676E 
 16941      65642069 
 16941      6E7400
 16942              	.LASF357:
 16943 148b 765F696E 		.ascii	"v_in\000"
 16943      00
 16944              	.LASF1:
 16945 1490 7369676E 		.ascii	"signed char\000"
 16945      65642063 
 16945      68617200 
ARM GAS  /tmp/ccB9RVXV.s 			page 316


 16946              	.LASF527:
 16947 149c 6D637077 		.ascii	"mcpwm_get_tot_current\000"
 16947      6D5F6765 
 16947      745F746F 
 16947      745F6375 
 16947      7272656E 
 16948              	.LASF429:
 16949 14b2 6D635F69 		.ascii	"mc_interface_temp_motor_filtered\000"
 16949      6E746572 
 16949      66616365 
 16949      5F74656D 
 16949      705F6D6F 
 16950              	.LASF46:
 16951 14d3 705F7072 		.ascii	"p_preempt\000"
 16951      65656D70 
 16951      7400
 16952              	.LASF185:
 16953 14dd 6C5F6D61 		.ascii	"l_max_erpm\000"
 16953      785F6572 
 16953      706D00
 16954              	.LASF47:
 16955 14e8 705F7469 		.ascii	"p_time\000"
 16955      6D6500
 16956              	.LASF519:
 16957 14ef 6D637077 		.ascii	"mcpwm_get_duty_cycle_set\000"
 16957      6D5F6765 
 16957      745F6475 
 16957      74795F63 
 16957      79636C65 
 16958              	.LASF315:
 16959 1508 63757272 		.ascii	"current\000"
 16959      656E7400 
 16960              	.LASF575:
 16961 1510 6D637077 		.ascii	"mcpwm_foc_set_current\000"
 16961      6D5F666F 
 16961      635F7365 
 16961      745F6375 
 16961      7272656E 
 16962              	.LASF456:
 16963 1526 6D5F636F 		.ascii	"m_conf\000"
 16963      6E6600
 16964              	.LASF559:
 16965 152d 6D637077 		.ascii	"mcpwm_foc_get_last_inj_adc_isr_duration\000"
 16965      6D5F666F 
 16965      635F6765 
 16965      745F6C61 
 16965      73745F69 
 16966              	.LASF459:
 16967 1555 6D5F6379 		.ascii	"m_cycles_running\000"
 16967      636C6573 
 16967      5F72756E 
 16967      6E696E67 
 16967      00
 16968              	.LASF155:
 16969 1566 4641554C 		.ascii	"FAULT_CODE_OVER_TEMP_MOTOR\000"
 16969      545F434F 
 16969      44455F4F 
ARM GAS  /tmp/ccB9RVXV.s 			page 317


 16969      5645525F 
 16969      54454D50 
 16970              	.LASF355:
 16971 1581 75706461 		.ascii	"update_override_limits\000"
 16971      74655F6F 
 16971      76657272 
 16971      6964655F 
 16971      6C696D69 
 16972              	.LASF49:
 16973 1598 705F6D73 		.ascii	"p_msgqueue\000"
 16973      67717565 
 16973      756500
 16974              	.LASF233:
 16975 15a3 666F635F 		.ascii	"foc_duty_dowmramp_ki\000"
 16975      64757479 
 16975      5F646F77 
 16975      6D72616D 
 16975      705F6B69 
 16976              	.LASF120:
 16977 15b8 6D5F6F77 		.ascii	"m_owner\000"
 16977      6E657200 
 16978              	.LASF232:
 16979 15c0 666F635F 		.ascii	"foc_duty_dowmramp_kp\000"
 16979      64757479 
 16979      5F646F77 
 16979      6D72616D 
 16979      705F6B70 
 16980              	.LASF430:
 16981 15d5 6D635F69 		.ascii	"mc_interface_try_input\000"
 16981      6E746572 
 16981      66616365 
 16981      5F747279 
 16981      5F696E70 
 16982              	.LASF186:
 16983 15ec 6C5F6572 		.ascii	"l_erpm_start\000"
 16983      706D5F73 
 16983      74617274 
 16983      00
 16984              	.LASF542:
 16985 15f9 7574696C 		.ascii	"utils_sys_unlock_cnt\000"
 16985      735F7379 
 16985      735F756E 
 16985      6C6F636B 
 16985      5F636E74 
 16986              	.LASF100:
 16987 160e 444D4152 		.ascii	"DMAR\000"
 16987      00
 16988              	.LASF84:
 16989 1613 63685F73 		.ascii	"ch_system\000"
 16989      79737465 
 16989      6D00
 16990              	.LASF490:
 16991 161d 6D5F7361 		.ascii	"m_sample_mode_last\000"
 16991      6D706C65 
 16991      5F6D6F64 
 16991      655F6C61 
 16991      737400
ARM GAS  /tmp/ccB9RVXV.s 			page 318


 16992              	.LASF179:
 16993 1630 6C5F6375 		.ascii	"l_current_max\000"
 16993      7272656E 
 16993      745F6D61 
 16993      7800
 16994              	.LASF326:
 16995 163e 64727638 		.ascii	"drv8301_faults\000"
 16995      3330315F 
 16995      6661756C 
 16995      747300
 16996              	.LASF115:
 16997 164d 63685F73 		.ascii	"ch_semaphore\000"
 16997      656D6170 
 16997      686F7265 
 16997      00
 16998              	.LASF369:
 16999 165a 6C6F5F6D 		.ascii	"lo_max_rpm\000"
 16999      61785F72 
 16999      706D00
 17000              	.LASF341:
 17001 1665 706F7274 		.ascii	"port_unlock\000"
 17001      5F756E6C 
 17001      6F636B00 
 17002              	.LASF59:
 17003 1671 74687265 		.ascii	"threads_queue_t\000"
 17003      6164735F 
 17003      71756575 
 17003      655F7400 
 17004              	.LASF157:
 17005 1681 53454E53 		.ascii	"SENSOR_PORT_MODE_HALL\000"
 17005      4F525F50 
 17005      4F52545F 
 17005      4D4F4445 
 17005      5F48414C 
 17006              	.LASF499:
 17007 1697 4144435F 		.ascii	"ADC_Value\000"
 17007      56616C75 
 17007      6500
 17008              	.LASF141:
 17009 16a1 464F435F 		.ascii	"FOC_SENSOR_MODE_SENSORLESS\000"
 17009      53454E53 
 17009      4F525F4D 
 17009      4F44455F 
 17009      53454E53 
 17010              	.LASF45:
 17011 16bc 705F7265 		.ascii	"p_refs\000"
 17011      667300
 17012              	.LASF566:
 17013 16c3 6D637077 		.ascii	"mcpwm_foc_set_duty\000"
 17013      6D5F666F 
 17013      635F7365 
 17013      745F6475 
 17013      747900
 17014              	.LASF348:
 17015 16d6 6D635F69 		.ascii	"mc_interface_set_current\000"
 17015      6E746572 
 17015      66616365 
ARM GAS  /tmp/ccB9RVXV.s 			page 319


 17015      5F736574 
 17015      5F637572 
 17016              	.LASF140:
 17017 16ef 6D635F73 		.ascii	"mc_sensor_mode\000"
 17017      656E736F 
 17017      725F6D6F 
 17017      646500
 17018              	.LASF10:
 17019 16fe 6C6F6E67 		.ascii	"long int\000"
 17019      20696E74 
 17019      00
 17020              	.LASF466:
 17021 1707 6D5F6D6F 		.ascii	"m_motor_id_sum\000"
 17021      746F725F 
 17021      69645F73 
 17021      756D00
 17022              	.LASF87:
 17023 1716 6D61696E 		.ascii	"mainthread\000"
 17023      74687265 
 17023      616400
 17024              	.LASF119:
 17025 1721 6D5F7175 		.ascii	"m_queue\000"
 17025      65756500 
 17026              	.LASF285:
 17027 1729 434F4D4D 		.ascii	"COMM_SET_DETECT\000"
 17027      5F534554 
 17027      5F444554 
 17027      45435400 
 17028              	.LASF541:
 17029 1739 7574696C 		.ascii	"utils_sys_lock_cnt\000"
 17029      735F7379 
 17029      735F6C6F 
 17029      636B5F63 
 17029      6E7400
 17030              	.LASF275:
 17031 174c 434F4D4D 		.ascii	"COMM_JUMP_TO_BOOTLOADER\000"
 17031      5F4A554D 
 17031      505F544F 
 17031      5F424F4F 
 17031      544C4F41 
 17032              	.LASF134:
 17033 1764 434F4D4D 		.ascii	"COMM_MODE_INTEGRATE\000"
 17033      5F4D4F44 
 17033      455F494E 
 17033      54454752 
 17033      41544500 
 17034              	.LASF501:
 17035 1778 6D637077 		.ascii	"mcpwm_detect_currents\000"
 17035      6D5F6465 
 17035      74656374 
 17035      5F637572 
 17035      72656E74 
 17036              	.LASF496:
 17037 178e 73616D70 		.ascii	"sample_send_thread_wa\000"
 17037      6C655F73 
 17037      656E645F 
 17037      74687265 
ARM GAS  /tmp/ccB9RVXV.s 			page 320


 17037      61645F77 
 17038              	.LASF356:
 17039 17a4 636F6E66 		.ascii	"conf\000"
 17039      00
 17040              	.LASF111:
 17041 17a9 77747472 		.ascii	"wttrp\000"
 17041      7000
 17042              	.LASF104:
 17043 17af 636F6E74 		.ascii	"context\000"
 17043      65787400 
 17044              	.LASF425:
 17045 17b7 6D635F69 		.ascii	"mc_interface_sample_print_data\000"
 17045      6E746572 
 17045      66616365 
 17045      5F73616D 
 17045      706C655F 
 17046              	.LASF571:
 17047 17d6 6D637077 		.ascii	"mcpwm_set_pid_speed\000"
 17047      6D5F7365 
 17047      745F7069 
 17047      645F7370 
 17047      65656400 
 17048              	.LASF502:
 17049 17ea 6D637077 		.ascii	"mcpwm_detect_voltages\000"
 17049      6D5F6465 
 17049      74656374 
 17049      5F766F6C 
 17049      74616765 
 17050              	.LASF408:
 17051 1800 6D635F69 		.ascii	"mc_interface_get_tot_current_filtered\000"
 17051      6E746572 
 17051      66616365 
 17051      5F676574 
 17051      5F746F74 
 17052              	.LASF334:
 17053 1826 4C434B52 		.ascii	"LCKR\000"
 17053      00
 17054              	.LASF224:
 17055 182b 666F635F 		.ascii	"foc_encoder_ratio\000"
 17055      656E636F 
 17055      6465725F 
 17055      72617469 
 17055      6F00
 17056              	.LASF22:
 17057 183d 75696E74 		.ascii	"uint32_t\000"
 17057      33325F74 
 17057      00
 17058              	.LASF307:
 17059 1846 434F4D4D 		.ascii	"COMM_GET_DECODED_CHUK\000"
 17059      5F474554 
 17059      5F444543 
 17059      4F444544 
 17059      5F434855 
 17060              	.LASF443:
 17061 185c 6D635F69 		.ascii	"mc_interface_mc_timer_isr\000"
 17061      6E746572 
 17061      66616365 
ARM GAS  /tmp/ccB9RVXV.s 			page 321


 17061      5F6D635F 
 17061      74696D65 
 17062              	.LASF284:
 17063 1876 434F4D4D 		.ascii	"COMM_SET_HANDBRAKE\000"
 17063      5F534554 
 17063      5F48414E 
 17063      44425241 
 17063      4B4500
 17064              	.LASF340:
 17065 1889 706F7274 		.ascii	"port_lock\000"
 17065      5F6C6F63 
 17065      6B00
 17066              	.LASF339:
 17067 1893 6C6F6E67 		.ascii	"long double\000"
 17067      20646F75 
 17067      626C6500 
 17068              	.LASF283:
 17069 189f 434F4D4D 		.ascii	"COMM_SET_POS\000"
 17069      5F534554 
 17069      5F504F53 
 17069      00
 17070              	.LASF102:
 17071 18ac 72656761 		.ascii	"regarm_t\000"
 17071      726D5F74 
 17071      00
 17072              	.LASF32:
 17073 18b5 6576656E 		.ascii	"eventmask_t\000"
 17073      746D6173 
 17073      6B5F7400 
 17074              	.LASF531:
 17075 18c1 6D637077 		.ascii	"mcpwm_get_tot_current_directional\000"
 17075      6D5F6765 
 17075      745F746F 
 17075      745F6375 
 17075      7272656E 
 17076              	.LASF12:
 17077 18e3 6C6F6E67 		.ascii	"long unsigned int\000"
 17077      20756E73 
 17077      69676E65 
 17077      6420696E 
 17077      7400
 17078              	.LASF259:
 17079 18f5 63635F72 		.ascii	"cc_ramp_step_max\000"
 17079      616D705F 
 17079      73746570 
 17079      5F6D6178 
 17079      00
 17080              	.LASF405:
 17081 1906 6D635F69 		.ascii	"mc_interface_get_watt_hours\000"
 17081      6E746572 
 17081      66616365 
 17081      5F676574 
 17081      5F776174 
 17082              	.LASF254:
 17083 1922 705F7069 		.ascii	"p_pid_kd\000"
 17083      645F6B64 
 17083      00
ARM GAS  /tmp/ccB9RVXV.s 			page 322


 17084              	.LASF253:
 17085 192b 705F7069 		.ascii	"p_pid_ki\000"
 17085      645F6B69 
 17085      00
 17086              	.LASF252:
 17087 1934 705F7069 		.ascii	"p_pid_kp\000"
 17087      645F6B70 
 17087      00
 17088              	.LASF413:
 17089 193d 6D635F69 		.ascii	"mc_interface_get_tachometer_value\000"
 17089      6E746572 
 17089      66616365 
 17089      5F676574 
 17089      5F746163 
 17090              	.LASF324:
 17091 195f 636F6D6D 		.ascii	"comm_step\000"
 17091      5F737465 
 17091      7000
 17092              	.LASF131:
 17093 1969 50574D5F 		.ascii	"PWM_MODE_SYNCHRONOUS\000"
 17093      4D4F4445 
 17093      5F53594E 
 17093      4348524F 
 17093      4E4F5553 
 17094              	.LASF269:
 17095 197e 6D5F626C 		.ascii	"m_bldc_f_sw_max\000"
 17095      64635F66 
 17095      5F73775F 
 17095      6D617800 
 17096              	.LASF475:
 17097 198e 6D5F7465 		.ascii	"m_temp_fet\000"
 17097      6D705F66 
 17097      657400
 17098              	.LASF165:
 17099 1999 64727638 		.ascii	"drv8301_oc_mode\000"
 17099      3330315F 
 17099      6F635F6D 
 17099      6F646500 
 17100              	.LASF245:
 17101 19a9 666F635F 		.ascii	"foc_temp_comp\000"
 17101      74656D70 
 17101      5F636F6D 
 17101      7000
 17102              	.LASF363:
 17103 19b7 74656D70 		.ascii	"temp_fet_accel_start\000"
 17103      5F666574 
 17103      5F616363 
 17103      656C5F73 
 17103      74617274 
 17104              	.LASF514:
 17105 19cc 6D637077 		.ascii	"mcpwm_foc_is_dccal_done\000"
 17105      6D5F666F 
 17105      635F6973 
 17105      5F646363 
 17105      616C5F64 
 17106              	.LASF122:
 17107 19e4 63686172 		.ascii	"char\000"
ARM GAS  /tmp/ccB9RVXV.s 			page 323


 17107      00
 17108              	.LASF63:
 17109 19e9 725F7175 		.ascii	"r_queue\000"
 17109      65756500 
 17110              	.LASF558:
 17111 19f1 6D637077 		.ascii	"mcpwm_get_tachometer_abs_value\000"
 17111      6D5F6765 
 17111      745F7461 
 17111      63686F6D 
 17111      65746572 
 17112              	.LASF215:
 17113 1a10 736C5F62 		.ascii	"sl_bemf_coupling_k\000"
 17113      656D665F 
 17113      636F7570 
 17113      6C696E67 
 17113      5F6B00
 17114              	.LASF354:
 17115 1a23 63685379 		.ascii	"chSysUnlockFromISR\000"
 17115      73556E6C 
 17115      6F636B46 
 17115      726F6D49 
 17115      535200
 17116              	.LASF428:
 17117 1a36 6D635F69 		.ascii	"mc_interface_temp_fet_filtered\000"
 17117      6E746572 
 17117      66616365 
 17117      5F74656D 
 17117      705F6665 
 17118              	.LASF467:
 17119 1a55 6D5F6D6F 		.ascii	"m_motor_iq_sum\000"
 17119      746F725F 
 17119      69715F73 
 17119      756D00
 17120              	.LASF198:
 17121 1a64 6C5F7465 		.ascii	"l_temp_accel_dec\000"
 17121      6D705F61 
 17121      6363656C 
 17121      5F646563 
 17121      00
 17122              	.LASF274:
 17123 1a75 434F4D4D 		.ascii	"COMM_FW_VERSION\000"
 17123      5F46575F 
 17123      56455253 
 17123      494F4E00 
 17124              	.LASF451:
 17125 1a85 63757272 		.ascii	"curr_diff_sum\000"
 17125      5F646966 
 17125      665F7375 
 17125      6D00
 17126              	.LASF579:
 17127 1a93 6D637077 		.ascii	"mcpwm_read_hall_phase\000"
 17127      6D5F7265 
 17127      61645F68 
 17127      616C6C5F 
 17127      70686173 
 17128              	.LASF545:
 17129 1aa9 7465726D 		.ascii	"terminal_add_fault_data\000"
ARM GAS  /tmp/ccB9RVXV.s 			page 324


 17129      696E616C 
 17129      5F616464 
 17129      5F666175 
 17129      6C745F64 
 17130              	.LASF455:
 17131 1ac1 6D635F69 		.ascii	"mc_interface_adc_inj_int_handler\000"
 17131      6E746572 
 17131      66616365 
 17131      5F616463 
 17131      5F696E6A 
 17132              	.LASF462:
 17133 1ae2 6D5F6D6F 		.ascii	"m_motor_current_sum\000"
 17133      746F725F 
 17133      63757272 
 17133      656E745F 
 17133      73756D00 
 17134              	.LASF563:
 17135 1af6 63684576 		.ascii	"chEvtSignal\000"
 17135      74536967 
 17135      6E616C00 
 17136              	.LASF129:
 17137 1b02 6D635F73 		.ascii	"mc_state\000"
 17137      74617465 
 17137      00
 17138              	.LASF591:
 17139 1b0b 63685468 		.ascii	"chThdGetSelfX\000"
 17139      64476574 
 17139      53656C66 
 17139      5800
 17140              	.LASF486:
 17141 1b19 6D5F7068 		.ascii	"m_phase_samples\000"
 17141      6173655F 
 17141      73616D70 
 17141      6C657300 
 17142              	.LASF553:
 17143 1b29 6D637077 		.ascii	"mcpwm_foc_deinit\000"
 17143      6D5F666F 
 17143      635F6465 
 17143      696E6974 
 17143      00
 17144              	.LASF422:
 17145 1b3a 6D635F69 		.ascii	"mc_interface_read_reset_avg_iq\000"
 17145      6E746572 
 17145      66616365 
 17145      5F726561 
 17145      645F7265 
 17146              	.LASF314:
 17147 1b59 6661756C 		.ascii	"fault\000"
 17147      7400
 17148              	.LASF386:
 17149 1b5f 636F6E66 		.ascii	"configuration\000"
 17149      69677572 
 17149      6174696F 
 17149      6E00
 17150              	.LASF464:
 17151 1b6d 6D5F6D6F 		.ascii	"m_motor_current_iterations\000"
 17151      746F725F 
ARM GAS  /tmp/ccB9RVXV.s 			page 325


 17151      63757272 
 17151      656E745F 
 17151      69746572 
 17152              	.LASF404:
 17153 1b88 6D635F69 		.ascii	"mc_interface_get_amp_hours_charged\000"
 17153      6E746572 
 17153      66616365 
 17153      5F676574 
 17153      5F616D70 
 17154              	.LASF572:
 17155 1bab 6D637077 		.ascii	"mcpwm_foc_set_pid_pos\000"
 17155      6D5F666F 
 17155      635F7365 
 17155      745F7069 
 17155      645F706F 
 17156              	.LASF538:
 17157 1bc1 6D637077 		.ascii	"mcpwm_foc_get_tachometer_value\000"
 17157      6D5F666F 
 17157      635F6765 
 17157      745F7461 
 17157      63686F6D 
 17158              	.LASF166:
 17159 1be0 44454255 		.ascii	"DEBUG_SAMPLING_OFF\000"
 17159      475F5341 
 17159      4D504C49 
 17159      4E475F4F 
 17159      464600
 17160              	.LASF375:
 17161 1bf3 6C6F5F6D 		.ascii	"lo_max\000"
 17161      617800
 17162              	.LASF180:
 17163 1bfa 6C5F6375 		.ascii	"l_current_min\000"
 17163      7272656E 
 17163      745F6D69 
 17163      6E00
 17164              	.LASF398:
 17165 1c08 6D635F69 		.ascii	"mc_interface_get_duty_cycle_set\000"
 17165      6E746572 
 17165      66616365 
 17165      5F676574 
 17165      5F647574 
 17166              	.LASF383:
 17167 1c28 62756666 		.ascii	"buffer\000"
 17167      657200
 17168              	.LASF319:
 17169 1c2f 74616368 		.ascii	"tacho\000"
 17169      6F00
 17170              	.LASF580:
 17171 1c35 6D637077 		.ascii	"mcpwm_foc_get_phase\000"
 17171      6D5F666F 
 17171      635F6765 
 17171      745F7068 
 17171      61736500 
 17172              	.LASF151:
 17173 1c49 4641554C 		.ascii	"FAULT_CODE_UNDER_VOLTAGE\000"
 17173      545F434F 
 17173      44455F55 
ARM GAS  /tmp/ccB9RVXV.s 			page 326


 17173      4E444552 
 17173      5F564F4C 
 17174              	.LASF301:
 17175 1c62 434F4D4D 		.ascii	"COMM_DETECT_ENCODER\000"
 17175      5F444554 
 17175      4543545F 
 17175      454E434F 
 17175      44455200 
 17176              	.LASF540:
 17177 1c76 656E636F 		.ascii	"encoder_init_as5047p_spi\000"
 17177      6465725F 
 17177      696E6974 
 17177      5F617335 
 17177      30343770 
 17178              	.LASF336:
 17179 1c8f 41465248 		.ascii	"AFRH\000"
 17179      00
 17180              	.LASF289:
 17181 1c94 434F4D4D 		.ascii	"COMM_GET_MCCONF_DEFAULT\000"
 17181      5F474554 
 17181      5F4D4343 
 17181      4F4E465F 
 17181      44454641 
 17182              	.LASF562:
 17183 1cac 656E636F 		.ascii	"encoder_read_deg\000"
 17183      6465725F 
 17183      72656164 
 17183      5F646567 
 17183      00
 17184              	.LASF278:
 17185 1cbd 434F4D4D 		.ascii	"COMM_GET_VALUES\000"
 17185      5F474554 
 17185      5F56414C 
 17185      55455300 
 17186              	.LASF217:
 17187 1ccd 68616C6C 		.ascii	"hall_sl_erpm\000"
 17187      5F736C5F 
 17187      6572706D 
 17187      00
 17188              	.LASF33:
 17189 1cda 636E745F 		.ascii	"cnt_t\000"
 17189      7400
 17190              	.LASF362:
 17191 1ce0 6C6F5F6D 		.ascii	"lo_min_mot\000"
 17191      696E5F6D 
 17191      6F7400
 17192              	.LASF590:
 17193 1ceb 2F686F6D 		.ascii	"/home/taylor/Programming/VESC/firmware\000"
 17193      652F7461 
 17193      796C6F72 
 17193      2F50726F 
 17193      6772616D 
 17194              	.LASF381:
 17195 1d12 6C6F5F69 		.ascii	"lo_in_min\000"
 17195      6E5F6D69 
 17195      6E00
 17196              	.LASF318:
ARM GAS  /tmp/ccB9RVXV.s 			page 327


 17197 1d1c 64757479 		.ascii	"duty\000"
 17197      00
 17198              	.LASF149:
 17199 1d21 4641554C 		.ascii	"FAULT_CODE_NONE\000"
 17199      545F434F 
 17199      44455F4E 
 17199      4F4E4500 
 17200              	.LASF248:
 17201 1d31 735F7069 		.ascii	"s_pid_ki\000"
 17201      645F6B69 
 17201      00
 17202              	.LASF172:
 17203 1d3a 44454255 		.ascii	"DEBUG_SAMPLING_TRIGGER_FAULT_NOSEND\000"
 17203      475F5341 
 17203      4D504C49 
 17203      4E475F54 
 17203      52494747 
 17204              	.LASF247:
 17205 1d5e 735F7069 		.ascii	"s_pid_kp\000"
 17205      645F6B70 
 17205      00
 17206              	.LASF295:
 17207 1d67 434F4D4D 		.ascii	"COMM_PRINT\000"
 17207      5F505249 
 17207      4E5400
 17208              	.LASF335:
 17209 1d72 4146524C 		.ascii	"AFRL\000"
 17209      00
 17210              	.LASF207:
 17211 1d77 6C6F5F63 		.ascii	"lo_current_motor_max_now\000"
 17211      75727265 
 17211      6E745F6D 
 17211      6F746F72 
 17211      5F6D6178 
 17212              	.LASF364:
 17213 1d90 74656D70 		.ascii	"temp_fet_accel_end\000"
 17213      5F666574 
 17213      5F616363 
 17213      656C5F65 
 17213      6E6400
 17214              	.LASF417:
 17215 1da3 6D635F69 		.ascii	"mc_interface_get_tachometer_abs_value\000"
 17215      6E746572 
 17215      66616365 
 17215      5F676574 
 17215      5F746163 
 17216              	.LASF234:
 17217 1dc9 666F635F 		.ascii	"foc_openloop_rpm\000"
 17217      6F70656E 
 17217      6C6F6F70 
 17217      5F72706D 
 17217      00
 17218              	.LASF238:
 17219 1dda 666F635F 		.ascii	"foc_sl_d_current_factor\000"
 17219      736C5F64 
 17219      5F637572 
 17219      72656E74 
ARM GAS  /tmp/ccB9RVXV.s 			page 328


 17219      5F666163 
 17220              	.LASF231:
 17221 1df2 666F635F 		.ascii	"foc_pll_ki\000"
 17221      706C6C5F 
 17221      6B6900
 17222              	.LASF524:
 17223 1dfd 6D637077 		.ascii	"mcpwm_foc_get_rpm\000"
 17223      6D5F666F 
 17223      635F6765 
 17223      745F7270 
 17223      6D00
 17224              	.LASF230:
 17225 1e0f 666F635F 		.ascii	"foc_pll_kp\000"
 17225      706C6C5F 
 17225      6B7000
 17226              	.LASF169:
 17227 1e1a 44454255 		.ascii	"DEBUG_SAMPLING_TRIGGER_START\000"
 17227      475F5341 
 17227      4D504C49 
 17227      4E475F54 
 17227      52494747 
 17228              	.LASF447:
 17229 1e37 6162735F 		.ascii	"abs_current\000"
 17229      63757272 
 17229      656E7400 
 17230              	.LASF439:
 17231 1e43 6D635F69 		.ascii	"mc_interface_release_motor\000"
 17231      6E746572 
 17231      66616365 
 17231      5F72656C 
 17231      65617365 
 17232              	.LASF69:
 17233 1e5e 76746675 		.ascii	"vtfunc_t\000"
 17233      6E635F74 
 17233      00
 17234              	.LASF299:
 17235 1e67 434F4D4D 		.ascii	"COMM_DETECT_MOTOR_R_L\000"
 17235      5F444554 
 17235      4543545F 
 17235      4D4F544F 
 17235      525F525F 
 17236              	.LASF110:
 17237 1e7d 77746F62 		.ascii	"wtobjp\000"
 17237      6A7000
 17238              	.LASF162:
 17239 1e84 44525638 		.ascii	"DRV8301_OC_LATCH_SHUTDOWN\000"
 17239      3330315F 
 17239      4F435F4C 
 17239      41544348 
 17239      5F534855 
 17240              	.LASF53:
 17241 1e9e 705F7265 		.ascii	"p_realprio\000"
 17241      616C7072 
 17241      696F00
 17242              	.LASF309:
 17243 1ea9 434F4D4D 		.ascii	"COMM_SET_CHUCK_DATA\000"
 17243      5F534554 
ARM GAS  /tmp/ccB9RVXV.s 			page 329


 17243      5F434855 
 17243      434B5F44 
 17243      41544100 
 17244              	.LASF113:
 17245 1ebd 77746D74 		.ascii	"wtmtxp\000"
 17245      787000
 17246              	.LASF148:
 17247 1ec4 6D635F6D 		.ascii	"mc_motor_type\000"
 17247      6F746F72 
 17247      5F747970 
 17247      6500
 17248              	.LASF167:
 17249 1ed2 44454255 		.ascii	"DEBUG_SAMPLING_NOW\000"
 17249      475F5341 
 17249      4D504C49 
 17249      4E475F4E 
 17249      4F5700
 17250              	.LASF338:
 17251 1ee5 646F7562 		.ascii	"double\000"
 17251      6C6500
 17252              	.LASF492:
 17253 1eec 6D5F7361 		.ascii	"m_sample_trigger\000"
 17253      6D706C65 
 17253      5F747269 
 17253      67676572 
 17253      00
 17254              	.LASF554:
 17255 1efd 656E636F 		.ascii	"encoder_set_counts\000"
 17255      6465725F 
 17255      7365745F 
 17255      636F756E 
 17255      747300
 17256              	.LASF291:
 17257 1f10 434F4D4D 		.ascii	"COMM_GET_APPCONF\000"
 17257      5F474554 
 17257      5F415050 
 17257      434F4E46 
 17257      00
 17258              	.LASF377:
 17259 1f21 6C6F5F69 		.ascii	"lo_in_max_batt\000"
 17259      6E5F6D61 
 17259      785F6261 
 17259      747400
 17260              	.LASF437:
 17261 1f30 6D635F69 		.ascii	"mc_interface_set_pid_pos\000"
 17261      6E746572 
 17261      66616365 
 17261      5F736574 
 17261      5F706964 
 17262              	.LASF197:
 17263 1f49 6C5F7465 		.ascii	"l_temp_motor_end\000"
 17263      6D705F6D 
 17263      6F746F72 
 17263      5F656E64 
 17263      00
 17264              	.LASF361:
 17265 1f5a 6C6F5F6D 		.ascii	"lo_max_mot\000"
ARM GAS  /tmp/ccB9RVXV.s 			page 330


 17265      61785F6D 
 17265      6F7400
 17266              	.LASF246:
 17267 1f65 666F635F 		.ascii	"foc_temp_comp_base_temp\000"
 17267      74656D70 
 17267      5F636F6D 
 17267      705F6261 
 17267      73655F74 
 17268              	.LASF491:
 17269 1f7d 6D5F7361 		.ascii	"m_sample_now\000"
 17269      6D706C65 
 17269      5F6E6F77 
 17269      00
 17270              	.LASF178:
 17271 1f8a 73656E73 		.ascii	"sensor_mode\000"
 17271      6F725F6D 
 17271      6F646500 
 17272              	.LASF137:
 17273 1f96 53454E53 		.ascii	"SENSOR_MODE_SENSORLESS\000"
 17273      4F525F4D 
 17273      4F44455F 
 17273      53454E53 
 17273      4F524C45 
 17274              	.LASF62:
 17275 1fad 63685F72 		.ascii	"ch_ready_list\000"
 17275      65616479 
 17275      5F6C6973 
 17275      7400
 17276              	.LASF520:
 17277 1fbb 6D637077 		.ascii	"mcpwm_foc_get_duty_cycle_now\000"
 17277      6D5F666F 
 17277      635F6765 
 17277      745F6475 
 17277      74795F63 
 17278              	.LASF332:
 17279 1fd8 50555044 		.ascii	"PUPDR\000"
 17279      5200
 17280              	.LASF9:
 17281 1fde 5F5F696E 		.ascii	"__int32_t\000"
 17281      7433325F 
 17281      7400
 17282              	.LASF11:
 17283 1fe8 5F5F7569 		.ascii	"__uint32_t\000"
 17283      6E743332 
 17283      5F7400
 17284              	.LASF81:
 17285 1ff3 63685F73 		.ascii	"ch_system_debug\000"
 17285      79737465 
 17285      6D5F6465 
 17285      62756700 
 17286              	.LASF323:
 17287 2003 74696D5F 		.ascii	"tim_top\000"
 17287      746F7000 
 17288              	.LASF463:
 17289 200b 6D5F696E 		.ascii	"m_input_current_sum\000"
 17289      7075745F 
 17289      63757272 
ARM GAS  /tmp/ccB9RVXV.s 			page 331


 17289      656E745F 
 17289      73756D00 
 17290              	.LASF544:
 17291 201f 6C6F6766 		.ascii	"logf\000"
 17291      00
 17292              	.LASF587:
 17293 2024 6D637077 		.ascii	"mcpwm_adc_inj_int_handler\000"
 17293      6D5F6164 
 17293      635F696E 
 17293      6A5F696E 
 17293      745F6861 
 17294              	.LASF171:
 17295 203e 44454255 		.ascii	"DEBUG_SAMPLING_TRIGGER_START_NOSEND\000"
 17295      475F5341 
 17295      4D504C49 
 17295      4E475F54 
 17295      52494747 
 17296              	.LASF268:
 17297 2062 6D5F626C 		.ascii	"m_bldc_f_sw_min\000"
 17297      64635F66 
 17297      5F73775F 
 17297      6D696E00 
 17298              	.LASF124:
 17299 2072 6D757465 		.ascii	"mutex_t\000"
 17299      785F7400 
 17300              	.LASF423:
 17301 207a 6D635F69 		.ascii	"mc_interface_get_pid_pos_set\000"
 17301      6E746572 
 17301      66616365 
 17301      5F676574 
 17301      5F706964 
 17302              	.LASF51:
 17303 2097 705F6570 		.ascii	"p_epending\000"
 17303      656E6469 
 17303      6E6700
 17304              	.LASF415:
 17305 20a2 73616D70 		.ascii	"sample_send_thread\000"
 17305      6C655F73 
 17305      656E645F 
 17305      74687265 
 17305      616400
 17306              	.LASF329:
 17307 20b5 4D4F4445 		.ascii	"MODER\000"
 17307      5200
 17308              	.LASF235:
 17309 20bb 666F635F 		.ascii	"foc_sl_openloop_hyst\000"
 17309      736C5F6F 
 17309      70656E6C 
 17309      6F6F705F 
 17309      68797374 
 17310              	.LASF526:
 17311 20d0 6D637077 		.ascii	"mcpwm_foc_get_tot_current\000"
 17311      6D5F666F 
 17311      635F6765 
 17311      745F746F 
 17311      745F6375 
 17312              	.LASF306:
ARM GAS  /tmp/ccB9RVXV.s 			page 332


 17313 20ea 434F4D4D 		.ascii	"COMM_GET_DECODED_ADC\000"
 17313      5F474554 
 17313      5F444543 
 17313      4F444544 
 17313      5F414443 
 17314              	.LASF290:
 17315 20ff 434F4D4D 		.ascii	"COMM_SET_APPCONF\000"
 17315      5F534554 
 17315      5F415050 
 17315      434F4E46 
 17315      00
 17316              	.LASF317:
 17317 2110 766F6C74 		.ascii	"voltage\000"
 17317      61676500 
 17318              	.LASF205:
 17319 2118 6C6F5F69 		.ascii	"lo_in_current_max\000"
 17319      6E5F6375 
 17319      7272656E 
 17319      745F6D61 
 17319      7800
 17320              	.LASF298:
 17321 212a 434F4D4D 		.ascii	"COMM_DETECT_MOTOR_PARAM\000"
 17321      5F444554 
 17321      4543545F 
 17321      4D4F544F 
 17321      525F5041 
 17322              	.LASF64:
 17323 2142 725F7072 		.ascii	"r_prio\000"
 17323      696F00
 17324              	.LASF239:
 17325 2149 666F635F 		.ascii	"foc_sensor_mode\000"
 17325      73656E73 
 17325      6F725F6D 
 17325      6F646500 
 17326              	.LASF498:
 17327 2159 49544D5F 		.ascii	"ITM_RxBuffer\000"
 17327      52784275 
 17327      66666572 
 17327      00
 17328              	.LASF143:
 17329 2166 464F435F 		.ascii	"FOC_SENSOR_MODE_HALL\000"
 17329      53454E53 
 17329      4F525F4D 
 17329      4F44455F 
 17329      48414C4C 
 17330              	.LASF15:
 17331 217b 6C6F6E67 		.ascii	"long long unsigned int\000"
 17331      206C6F6E 
 17331      6720756E 
 17331      7369676E 
 17331      65642069 
 17332              	.LASF106:
 17333 2192 6F666673 		.ascii	"offset\000"
 17333      657400
 17334              	.LASF477:
 17335 2199 6D5F6375 		.ascii	"m_curr0_samples\000"
 17335      7272305F 
ARM GAS  /tmp/ccB9RVXV.s 			page 333


 17335      73616D70 
 17335      6C657300 
 17336              	.LASF221:
 17337 21a9 666F635F 		.ascii	"foc_dt_us\000"
 17337      64745F75 
 17337      7300
 17338              	.LASF478:
 17339 21b3 6D5F6375 		.ascii	"m_curr1_samples\000"
 17339      7272315F 
 17339      73616D70 
 17339      6C657300 
 17340              	.LASF345:
 17341 21c3 63685265 		.ascii	"chRegSetThreadName\000"
 17341      67536574 
 17341      54687265 
 17341      61644E61 
 17341      6D6500
 17342              	.LASF244:
 17343 21d6 666F635F 		.ascii	"foc_sat_comp\000"
 17343      7361745F 
 17343      636F6D70 
 17343      00
 17344              	.LASF441:
 17345 21e3 6D635F69 		.ascii	"mc_interface_set_brake_current_rel\000"
 17345      6E746572 
 17345      66616365 
 17345      5F736574 
 17345      5F627261 
 17346              	.LASF88:
 17347 2206 69646C65 		.ascii	"idle_thread_wa\000"
 17347      5F746872 
 17347      6561645F 
 17347      776100
 17348              	.LASF450:
 17349 2215 73616D70 		.ascii	"sample\000"
 17349      6C6500
 17350              	.LASF75:
 17351 221c 76745F66 		.ascii	"vt_func\000"
 17351      756E6300 
 17352              	.LASF90:
 17353 2224 534D4352 		.ascii	"SMCR\000"
 17353      00
 17354              	.LASF440:
 17355 2229 6D635F69 		.ascii	"mc_interface_set_brake_current\000"
 17355      6E746572 
 17355      66616365 
 17355      5F736574 
 17355      5F627261 
 17356              	.LASF325:
 17357 2248 74656D70 		.ascii	"temperature\000"
 17357      65726174 
 17357      75726500 
 17358              	.LASF281:
 17359 2254 434F4D4D 		.ascii	"COMM_SET_CURRENT_BRAKE\000"
 17359      5F534554 
 17359      5F435552 
 17359      52454E54 
ARM GAS  /tmp/ccB9RVXV.s 			page 334


 17359      5F425241 
 17360              	.LASF397:
 17361 226b 6D635F69 		.ascii	"mc_interface_get_state\000"
 17361      6E746572 
 17361      66616365 
 17361      5F676574 
 17361      5F737461 
 17362              	.LASF71:
 17363 2282 63685F76 		.ascii	"ch_virtual_timer\000"
 17363      69727475 
 17363      616C5F74 
 17363      696D6572 
 17363      00
 17364              	.LASF44:
 17365 2293 705F666C 		.ascii	"p_flags\000"
 17365      61677300 
 17366              	.LASF114:
 17367 229b 65776D61 		.ascii	"ewmask\000"
 17367      736B00
 17368              	.LASF393:
 17369 22a2 6D635F69 		.ascii	"mc_interface_get_configuration\000"
 17369      6E746572 
 17369      66616365 
 17369      5F676574 
 17369      5F636F6E 
 17370              	.LASF282:
 17371 22c1 434F4D4D 		.ascii	"COMM_SET_RPM\000"
 17371      5F534554 
 17371      5F52504D 
 17371      00
 17372              	.LASF442:
 17373 22ce 6D635F69 		.ascii	"mc_interface_set_handbrake\000"
 17373      6E746572 
 17373      66616365 
 17373      5F736574 
 17373      5F68616E 
 17374              	.LASF311:
 17375 22e9 434F4D4D 		.ascii	"COMM_NRF_START_PAIRING\000"
 17375      5F4E5246 
 17375      5F535441 
 17375      52545F50 
 17375      41495249 
 17376              	.LASF52:
 17377 2300 705F6D74 		.ascii	"p_mtxlist\000"
 17377      786C6973 
 17377      7400
 17378              	.LASF214:
 17379 230a 736C5F63 		.ascii	"sl_cycle_int_rpm_br\000"
 17379      79636C65 
 17379      5F696E74 
 17379      5F72706D 
 17379      5F627200 
 17380              	.LASF27:
 17381 231e 74737461 		.ascii	"tstate_t\000"
 17381      74655F74 
 17381      00
 17382              	.LASF270:
ARM GAS  /tmp/ccB9RVXV.s 			page 335


 17383 2327 6D5F6463 		.ascii	"m_dc_f_sw\000"
 17383      5F665F73 
 17383      7700
 17384              	.LASF243:
 17385 2331 666F635F 		.ascii	"foc_sample_high_current\000"
 17385      73616D70 
 17385      6C655F68 
 17385      6967685F 
 17385      63757272 
 17386              	.LASF512:
 17387 2349 656E636F 		.ascii	"encoder_init_abi\000"
 17387      6465725F 
 17387      696E6974 
 17387      5F616269 
 17387      00
 17388              	.LASF136:
 17389 235a 6D635F63 		.ascii	"mc_comm_mode\000"
 17389      6F6D6D5F 
 17389      6D6F6465 
 17389      00
 17390              	.LASF322:
 17391 2367 74696D5F 		.ascii	"tim_current_samp\000"
 17391      63757272 
 17391      656E745F 
 17391      73616D70 
 17391      00
 17392              	.LASF578:
 17393 2378 6D637077 		.ascii	"mcpwm_foc_set_handbrake\000"
 17393      6D5F666F 
 17393      635F7365 
 17393      745F6861 
 17393      6E646272 
 17394              	.LASF42:
 17395 2390 705F6E61 		.ascii	"p_name\000"
 17395      6D6500
 17396              	.LASF316:
 17397 2397 63757272 		.ascii	"current_filtered\000"
 17397      656E745F 
 17397      66696C74 
 17397      65726564 
 17397      00
 17398              	.LASF435:
 17399 23a8 6D635F69 		.ascii	"mc_interface_set_duty_noramp\000"
 17399      6E746572 
 17399      66616365 
 17399      5F736574 
 17399      5F647574 
 17400              	.LASF347:
 17401 23c5 6E616D65 		.ascii	"name\000"
 17401      00
 17402              	.LASF77:
 17403 23ca 76697274 		.ascii	"virtual_timers_list_t\000"
 17403      75616C5F 
 17403      74696D65 
 17403      72735F6C 
 17403      6973745F 
 17404              	.LASF130:
ARM GAS  /tmp/ccB9RVXV.s 			page 336


 17405 23e0 50574D5F 		.ascii	"PWM_MODE_NONSYNCHRONOUS_HISW\000"
 17405      4D4F4445 
 17405      5F4E4F4E 
 17405      53594E43 
 17405      48524F4E 
 17406              	.LASF444:
 17407 23fd 696E7075 		.ascii	"input_voltage\000"
 17407      745F766F 
 17407      6C746167 
 17407      6500
 17408              	.LASF164:
 17409 240b 44525638 		.ascii	"DRV8301_OC_DISABLED\000"
 17409      3330315F 
 17409      4F435F44 
 17409      49534142 
 17409      4C454400 
 17410              	.LASF402:
 17411 241f 6D635F69 		.ascii	"mc_interface_get_amp_hours\000"
 17411      6E746572 
 17411      66616365 
 17411      5F676574 
 17411      5F616D70 
 17412              	.LASF310:
 17413 243a 434F4D4D 		.ascii	"COMM_CUSTOM_APP_DATA\000"
 17413      5F435553 
 17413      544F4D5F 
 17413      4150505F 
 17413      44415441 
 17414              	.LASF296:
 17415 244f 434F4D4D 		.ascii	"COMM_ROTOR_POSITION\000"
 17415      5F524F54 
 17415      4F525F50 
 17415      4F534954 
 17415      494F4E00 
 17416              	.LASF116:
 17417 2463 735F7175 		.ascii	"s_queue\000"
 17417      65756500 
 17418              	.LASF431:
 17419 246b 72657476 		.ascii	"retval\000"
 17419      616C00
 17420              	.LASF156:
 17421 2472 6D635F66 		.ascii	"mc_fault_code\000"
 17421      61756C74 
 17421      5F636F64 
 17421      6500
 17422              	.LASF174:
 17423 2480 64656275 		.ascii	"debug_sampling_mode\000"
 17423      675F7361 
 17423      6D706C69 
 17423      6E675F6D 
 17423      6F646500 
 17424              	.LASF261:
 17425 2494 6D5F6475 		.ascii	"m_duty_ramp_step\000"
 17425      74795F72 
 17425      616D705F 
 17425      73746570 
 17425      00
ARM GAS  /tmp/ccB9RVXV.s 			page 337


 17426              	.LASF273:
 17427 24a5 6D635F63 		.ascii	"mc_configuration\000"
 17427      6F6E6669 
 17427      67757261 
 17427      74696F6E 
 17427      00
 17428              	.LASF378:
 17429 24b6 6C6F5F69 		.ascii	"lo_in_max_watt\000"
 17429      6E5F6D61 
 17429      785F7761 
 17429      747400
 17430              	.LASF13:
 17431 24c5 6C6F6E67 		.ascii	"long long int\000"
 17431      206C6F6E 
 17431      6720696E 
 17431      7400
 17432              	.LASF452:
 17433 24d3 63757272 		.ascii	"curr_diff_samples\000"
 17433      5F646966 
 17433      665F7361 
 17433      6D706C65 
 17433      7300
 17434              	.LASF353:
 17435 24e5 63685379 		.ascii	"chSysLockFromISR\000"
 17435      734C6F63 
 17435      6B46726F 
 17435      6D495352 
 17435      00
 17436              	.LASF373:
 17437 24f6 72706D5F 		.ascii	"rpm_neg_cut_start\000"
 17437      6E65675F 
 17437      6375745F 
 17437      73746172 
 17437      7400
 17438              	.LASF294:
 17439 2508 434F4D4D 		.ascii	"COMM_TERMINAL_CMD\000"
 17439      5F544552 
 17439      4D494E41 
 17439      4C5F434D 
 17439      4400
 17440              	.LASF202:
 17441 251a 6C5F7761 		.ascii	"l_watt_min\000"
 17441      74745F6D 
 17441      696E00
 17442              	.LASF188:
 17443 2525 6C5F6D61 		.ascii	"l_max_erpm_fbrake_cc\000"
 17443      785F6572 
 17443      706D5F66 
 17443      6272616B 
 17443      655F6363 
 17444              	.LASF565:
 17445 253a 6D637077 		.ascii	"mcpwm_init_done\000"
 17445      6D5F696E 
 17445      69745F64 
 17445      6F6E6500 
 17446              	.LASF292:
 17447 254a 434F4D4D 		.ascii	"COMM_GET_APPCONF_DEFAULT\000"
ARM GAS  /tmp/ccB9RVXV.s 			page 338


 17447      5F474554 
 17447      5F415050 
 17447      434F4E46 
 17447      5F444546 
 17448              	.LASF515:
 17449 2563 6D637077 		.ascii	"mcpwm_is_dccal_done\000"
 17449      6D5F6973 
 17449      5F646363 
 17449      616C5F64 
 17449      6F6E6500 
 17450              	.LASF548:
 17451 2577 7574696C 		.ascii	"utils_map\000"
 17451      735F6D61 
 17451      7000
 17452              	.LASF432:
 17453 2581 6D635F69 		.ascii	"mc_interface_set_duty\000"
 17453      6E746572 
 17453      66616365 
 17453      5F736574 
 17453      5F647574 
 17454              	.LASF125:
 17455 2597 4D435F53 		.ascii	"MC_STATE_OFF\000"
 17455      54415445 
 17455      5F4F4646 
 17455      00
 17456              	.LASF344:
 17457 25a4 5F5F7365 		.ascii	"__set_BASEPRI\000"
 17457      745F4241 
 17457      53455052 
 17457      4900
 17458              	.LASF576:
 17459 25b2 6D637077 		.ascii	"mcpwm_foc_set_brake_current\000"
 17459      6D5F666F 
 17459      635F7365 
 17459      745F6272 
 17459      616B655F 
 17460              	.LASF181:
 17461 25ce 6C5F696E 		.ascii	"l_in_current_max\000"
 17461      5F637572 
 17461      72656E74 
 17461      5F6D6178 
 17461      00
 17462              	.LASF485:
 17463 25df 6D5F665F 		.ascii	"m_f_sw_samples\000"
 17463      73775F73 
 17463      616D706C 
 17463      657300
 17464              	.LASF41:
 17465 25ee 705F6F6C 		.ascii	"p_older\000"
 17465      64657200 
 17466              	.LASF537:
 17467 25f6 6D637077 		.ascii	"mcpwm_get_tot_current_in_filtered\000"
 17467      6D5F6765 
 17467      745F746F 
 17467      745F6375 
 17467      7272656E 
 17468              	.LASF55:
ARM GAS  /tmp/ccB9RVXV.s 			page 339


 17469 2618 74687265 		.ascii	"thread_reference_t\000"
 17469      61645F72 
 17469      65666572 
 17469      656E6365 
 17469      5F7400
 17470              	.LASF255:
 17471 262b 705F7069 		.ascii	"p_pid_ang_div\000"
 17471      645F616E 
 17471      675F6469 
 17471      7600
 17472              	.LASF236:
 17473 2639 666F635F 		.ascii	"foc_sl_openloop_time\000"
 17473      736C5F6F 
 17473      70656E6C 
 17473      6F6F705F 
 17473      74696D65 
 17474              	.LASF107:
 17475 264e 746D5F63 		.ascii	"tm_calibration_t\000"
 17475      616C6962 
 17475      72617469 
 17475      6F6E5F74 
 17475      00
 17476              	.LASF349:
 17477 265f 6D635F69 		.ascii	"mc_interface_fault_stop\000"
 17477      6E746572 
 17477      66616365 
 17477      5F666175 
 17477      6C745F73 
 17478              	.LASF2:
 17479 2677 5F5F696E 		.ascii	"__int8_t\000"
 17479      74385F74 
 17479      00
 17480              	.LASF206:
 17481 2680 6C6F5F69 		.ascii	"lo_in_current_min\000"
 17481      6E5F6375 
 17481      7272656E 
 17481      745F6D69 
 17481      6E00
 17482              	.LASF406:
 17483 2692 6D635F69 		.ascii	"mc_interface_get_watt_hours_charged\000"
 17483      6E746572 
 17483      66616365 
 17483      5F676574 
 17483      5F776174 
 17484              	.LASF199:
 17485 26b6 6C5F6D69 		.ascii	"l_min_duty\000"
 17485      6E5F6475 
 17485      747900
 17486              	.LASF367:
 17487 26c1 6C6F5F66 		.ascii	"lo_fet_temp_accel\000"
 17487      65745F74 
 17487      656D705F 
 17487      61636365 
 17487      6C00
 17488              	.LASF160:
 17489 26d3 73656E73 		.ascii	"sensor_port_mode\000"
 17489      6F725F70 
ARM GAS  /tmp/ccB9RVXV.s 			page 340


 17489      6F72745F 
 17489      6D6F6465 
 17489      00
 17490              	.LASF92:
 17491 26e4 43434D52 		.ascii	"CCMR1\000"
 17491      3100
 17492              	.LASF93:
 17493 26ea 43434D52 		.ascii	"CCMR2\000"
 17493      3200
 17494              	.LASF144:
 17495 26f0 6D635F66 		.ascii	"mc_foc_sensor_mode\000"
 17495      6F635F73 
 17495      656E736F 
 17495      725F6D6F 
 17495      646500
 17496              	.LASF16:
 17497 2703 756E7369 		.ascii	"unsigned int\000"
 17497      676E6564 
 17497      20696E74 
 17497      00
 17498              	.LASF468:
 17499 2710 6D5F6D6F 		.ascii	"m_motor_id_iterations\000"
 17499      746F725F 
 17499      69645F69 
 17499      74657261 
 17499      74696F6E 
 17500              	.LASF508:
 17501 2726 63684576 		.ascii	"chEvtWaitAny\000"
 17501      74576169 
 17501      74416E79 
 17501      00
 17502              	.LASF389:
 17503 2733 705F6675 		.ascii	"p_func\000"
 17503      6E6300
 17504              	.LASF6:
 17505 273a 73686F72 		.ascii	"short int\000"
 17505      7420696E 
 17505      7400
 17506              	.LASF242:
 17507 2744 666F635F 		.ascii	"foc_sample_v0_v7\000"
 17507      73616D70 
 17507      6C655F76 
 17507      305F7637 
 17507      00
 17508              	.LASF503:
 17509 2755 6D637077 		.ascii	"mcpwm_detect_currents_diff\000"
 17509      6D5F6465 
 17509      74656374 
 17509      5F637572 
 17509      72656E74 
 17510              	.LASF427:
 17511 2770 64656369 		.ascii	"decimation\000"
 17511      6D617469 
 17511      6F6E00
 17512              	.LASF567:
 17513 277b 6D637077 		.ascii	"mcpwm_set_duty\000"
 17513      6D5F7365 
ARM GAS  /tmp/ccB9RVXV.s 			page 341


 17513      745F6475 
 17513      747900
 17514              	.LASF460:
 17515 278a 6D5F6C6F 		.ascii	"m_lock_enabled\000"
 17515      636B5F65 
 17515      6E61626C 
 17515      656400
 17516              	.LASF327:
 17517 2799 6661756C 		.ascii	"fault_data\000"
 17517      745F6461 
 17517      746100
 17518              	.LASF484:
 17519 27a4 6D5F6375 		.ascii	"m_curr_fir_samples\000"
 17519      72725F66 
 17519      69725F73 
 17519      616D706C 
 17519      657300
 17520              	.LASF145:
 17521 27b7 4D4F544F 		.ascii	"MOTOR_TYPE_BLDC\000"
 17521      525F5459 
 17521      50455F42 
 17521      4C444300 
 17522              	.LASF387:
 17523 27c7 6D635F69 		.ascii	"mc_interface_init\000"
 17523      6E746572 
 17523      66616365 
 17523      5F696E69 
 17523      7400
 17524              	.LASF392:
 17525 27d9 6D635F69 		.ascii	"mc_interface_lock_override_once\000"
 17525      6E746572 
 17525      66616365 
 17525      5F6C6F63 
 17525      6B5F6F76 
 17526              	.LASF482:
 17527 27f9 6D5F767A 		.ascii	"m_vzero_samples\000"
 17527      65726F5F 
 17527      73616D70 
 17527      6C657300 
 17528              	.LASF560:
 17529 2809 6D637077 		.ascii	"mcpwm_get_last_inj_adc_isr_duration\000"
 17529      6D5F6765 
 17529      745F6C61 
 17529      73745F69 
 17529      6E6A5F61 
 17530              	.LASF43:
 17531 282d 705F7374 		.ascii	"p_state\000"
 17531      61746500 
 17532              	.LASF497:
 17533 2835 73616D70 		.ascii	"sample_send_tp\000"
 17533      6C655F73 
 17533      656E645F 
 17533      747000
 17534              	.LASF58:
 17535 2844 63685F74 		.ascii	"ch_threads_list\000"
 17535      68726561 
 17535      64735F6C 
ARM GAS  /tmp/ccB9RVXV.s 			page 342


 17535      69737400 
 17536              	.LASF135:
 17537 2854 434F4D4D 		.ascii	"COMM_MODE_DELAY\000"
 17537      5F4D4F44 
 17537      455F4445 
 17537      4C415900 
 17538              	.LASF263:
 17539 2864 6D5F656E 		.ascii	"m_encoder_counts\000"
 17539      636F6465 
 17539      725F636F 
 17539      756E7473 
 17539      00
 17540              		.ident	"GCC: (4.8.4-1+11-1) 4.8.4 20141219 (release)"
ARM GAS  /tmp/ccB9RVXV.s 			page 343


DEFINED SYMBOLS
                            *ABS*:0000000000000000 mc_interface.c
     /tmp/ccB9RVXV.s:21     .text.sample_send_thread:0000000000000000 $t
     /tmp/ccB9RVXV.s:26     .text.sample_send_thread:0000000000000000 sample_send_thread
     /tmp/ccB9RVXV.s:108    .text.sample_send_thread:0000000000000044 $d
     /tmp/ccB9RVXV.s:114    .text.sample_send_thread:000000000000004a $t
     /tmp/ccB9RVXV.s:326    .text.sample_send_thread:00000000000001e0 $d
     /tmp/ccB9RVXV.s:351    .text.mc_interface_init:0000000000000000 $t
     /tmp/ccB9RVXV.s:357    .text.mc_interface_init:0000000000000000 mc_interface_init
     /tmp/ccB9RVXV.s:584    .text.mc_interface_init:0000000000000138 $d
     /tmp/ccB9RVXV.s:2764   .text.timer_thread:0000000000000000 timer_thread
     /tmp/ccB9RVXV.s:620    .text.mc_interface_get_configuration:0000000000000000 $t
     /tmp/ccB9RVXV.s:626    .text.mc_interface_get_configuration:0000000000000000 mc_interface_get_configuration
     /tmp/ccB9RVXV.s:639    .text.mc_interface_get_configuration:0000000000000004 $d
     /tmp/ccB9RVXV.s:644    .text.mc_interface_dccal_done:0000000000000000 $t
     /tmp/ccB9RVXV.s:650    .text.mc_interface_dccal_done:0000000000000000 mc_interface_dccal_done
     /tmp/ccB9RVXV.s:680    .text.mc_interface_dccal_done:000000000000001c $d
     /tmp/ccB9RVXV.s:685    .text.mc_interface_set_pwm_callback:0000000000000000 $t
     /tmp/ccB9RVXV.s:691    .text.mc_interface_set_pwm_callback:0000000000000000 mc_interface_set_pwm_callback
     /tmp/ccB9RVXV.s:706    .text.mc_interface_set_pwm_callback:0000000000000008 $d
     /tmp/ccB9RVXV.s:711    .text.mc_interface_lock:0000000000000000 $t
     /tmp/ccB9RVXV.s:717    .text.mc_interface_lock:0000000000000000 mc_interface_lock
     /tmp/ccB9RVXV.s:732    .text.mc_interface_lock:0000000000000008 $d
     /tmp/ccB9RVXV.s:737    .text.mc_interface_unlock:0000000000000000 $t
     /tmp/ccB9RVXV.s:743    .text.mc_interface_unlock:0000000000000000 mc_interface_unlock
     /tmp/ccB9RVXV.s:758    .text.mc_interface_unlock:0000000000000008 $d
     /tmp/ccB9RVXV.s:763    .text.mc_interface_lock_override_once:0000000000000000 $t
     /tmp/ccB9RVXV.s:769    .text.mc_interface_lock_override_once:0000000000000000 mc_interface_lock_override_once
     /tmp/ccB9RVXV.s:784    .text.mc_interface_lock_override_once:0000000000000008 $d
     /tmp/ccB9RVXV.s:789    .text.mc_interface_get_fault:0000000000000000 $t
     /tmp/ccB9RVXV.s:795    .text.mc_interface_get_fault:0000000000000000 mc_interface_get_fault
     /tmp/ccB9RVXV.s:810    .text.mc_interface_get_fault:0000000000000008 $d
     /tmp/ccB9RVXV.s:815    .text.mc_interface_fault_to_string:0000000000000000 $t
     /tmp/ccB9RVXV.s:821    .text.mc_interface_fault_to_string:0000000000000000 mc_interface_fault_to_string
     /tmp/ccB9RVXV.s:841    .text.mc_interface_fault_to_string:0000000000000010 $d
     /tmp/ccB9RVXV.s:847    .text.mc_interface_get_state:0000000000000000 $t
     /tmp/ccB9RVXV.s:853    .text.mc_interface_get_state:0000000000000000 mc_interface_get_state
     /tmp/ccB9RVXV.s:883    .text.mc_interface_get_state:000000000000001c $d
     /tmp/ccB9RVXV.s:888    .text.mc_interface_get_duty_cycle_set:0000000000000000 $t
     /tmp/ccB9RVXV.s:894    .text.mc_interface_get_duty_cycle_set:0000000000000000 mc_interface_get_duty_cycle_set
     /tmp/ccB9RVXV.s:945    .text.mc_interface_get_duty_cycle_set:000000000000003c $d
     /tmp/ccB9RVXV.s:951    .text.mc_interface_get_duty_cycle_now:0000000000000000 $t
     /tmp/ccB9RVXV.s:957    .text.mc_interface_get_duty_cycle_now:0000000000000000 mc_interface_get_duty_cycle_now
     /tmp/ccB9RVXV.s:1008   .text.mc_interface_get_duty_cycle_now:000000000000003c $d
     /tmp/ccB9RVXV.s:1014   .text.mc_interface_get_sampling_frequency_now:0000000000000000 $t
     /tmp/ccB9RVXV.s:1020   .text.mc_interface_get_sampling_frequency_now:0000000000000000 mc_interface_get_sampling_frequency_now
     /tmp/ccB9RVXV.s:1050   .text.mc_interface_get_sampling_frequency_now:000000000000001c $d
     /tmp/ccB9RVXV.s:1056   .text.mc_interface_get_rpm:0000000000000000 $t
     /tmp/ccB9RVXV.s:1062   .text.mc_interface_get_rpm:0000000000000000 mc_interface_get_rpm
     /tmp/ccB9RVXV.s:1113   .text.mc_interface_get_rpm:000000000000003c $d
     /tmp/ccB9RVXV.s:1119   .text.mc_interface_get_amp_hours:0000000000000000 $t
     /tmp/ccB9RVXV.s:1125   .text.mc_interface_get_amp_hours:0000000000000000 mc_interface_get_amp_hours
     /tmp/ccB9RVXV.s:1150   .text.mc_interface_get_amp_hours:0000000000000018 $d
     /tmp/ccB9RVXV.s:1156   .text.mc_interface_get_amp_hours_charged:0000000000000000 $t
     /tmp/ccB9RVXV.s:1162   .text.mc_interface_get_amp_hours_charged:0000000000000000 mc_interface_get_amp_hours_charged
     /tmp/ccB9RVXV.s:1187   .text.mc_interface_get_amp_hours_charged:0000000000000018 $d
     /tmp/ccB9RVXV.s:1193   .text.mc_interface_get_watt_hours:0000000000000000 $t
ARM GAS  /tmp/ccB9RVXV.s 			page 344


     /tmp/ccB9RVXV.s:1199   .text.mc_interface_get_watt_hours:0000000000000000 mc_interface_get_watt_hours
     /tmp/ccB9RVXV.s:1224   .text.mc_interface_get_watt_hours:0000000000000018 $d
     /tmp/ccB9RVXV.s:1230   .text.mc_interface_get_watt_hours_charged:0000000000000000 $t
     /tmp/ccB9RVXV.s:1236   .text.mc_interface_get_watt_hours_charged:0000000000000000 mc_interface_get_watt_hours_charged
     /tmp/ccB9RVXV.s:1261   .text.mc_interface_get_watt_hours_charged:0000000000000018 $d
     /tmp/ccB9RVXV.s:1267   .text.mc_interface_get_tot_current:0000000000000000 $t
     /tmp/ccB9RVXV.s:1273   .text.mc_interface_get_tot_current:0000000000000000 mc_interface_get_tot_current
     /tmp/ccB9RVXV.s:1303   .text.mc_interface_get_tot_current:000000000000001c $d
     /tmp/ccB9RVXV.s:1309   .text.mc_interface_get_tot_current_filtered:0000000000000000 $t
     /tmp/ccB9RVXV.s:1315   .text.mc_interface_get_tot_current_filtered:0000000000000000 mc_interface_get_tot_current_filtered
     /tmp/ccB9RVXV.s:1345   .text.mc_interface_get_tot_current_filtered:000000000000001c $d
     /tmp/ccB9RVXV.s:1351   .text.mc_interface_get_tot_current_directional:0000000000000000 $t
     /tmp/ccB9RVXV.s:1357   .text.mc_interface_get_tot_current_directional:0000000000000000 mc_interface_get_tot_current_directional
     /tmp/ccB9RVXV.s:1408   .text.mc_interface_get_tot_current_directional:000000000000003c $d
     /tmp/ccB9RVXV.s:1414   .text.mc_interface_get_tot_current_directional_filtered:0000000000000000 $t
     /tmp/ccB9RVXV.s:1420   .text.mc_interface_get_tot_current_directional_filtered:0000000000000000 mc_interface_get_tot_current_directional_filtered
     /tmp/ccB9RVXV.s:1471   .text.mc_interface_get_tot_current_directional_filtered:000000000000003c $d
     /tmp/ccB9RVXV.s:1477   .text.mc_interface_get_tot_current_in:0000000000000000 $t
     /tmp/ccB9RVXV.s:1483   .text.mc_interface_get_tot_current_in:0000000000000000 mc_interface_get_tot_current_in
     /tmp/ccB9RVXV.s:1513   .text.mc_interface_get_tot_current_in:000000000000001c $d
     /tmp/ccB9RVXV.s:1519   .text.mc_interface_get_tot_current_in_filtered:0000000000000000 $t
     /tmp/ccB9RVXV.s:1525   .text.mc_interface_get_tot_current_in_filtered:0000000000000000 mc_interface_get_tot_current_in_filtered
     /tmp/ccB9RVXV.s:1555   .text.mc_interface_get_tot_current_in_filtered:000000000000001c $d
     /tmp/ccB9RVXV.s:1561   .text.mc_interface_get_tachometer_value:0000000000000000 $t
     /tmp/ccB9RVXV.s:1567   .text.mc_interface_get_tachometer_value:0000000000000000 mc_interface_get_tachometer_value
     /tmp/ccB9RVXV.s:1622   .text.mc_interface_get_tachometer_value:0000000000000054 $d
     /tmp/ccB9RVXV.s:1628   .text.mc_interface_fault_stop.part.1:0000000000000000 $t
     /tmp/ccB9RVXV.s:1633   .text.mc_interface_fault_stop.part.1:0000000000000000 mc_interface_fault_stop.part.1
     /tmp/ccB9RVXV.s:1810   .text.mc_interface_fault_stop.part.1:000000000000010c $d
     /tmp/ccB9RVXV.s:1829   .text.update_override_limits.constprop.2:0000000000000000 $t
     /tmp/ccB9RVXV.s:1834   .text.update_override_limits.constprop.2:0000000000000000 update_override_limits.constprop.2
     /tmp/ccB9RVXV.s:2305   .text.update_override_limits.constprop.2:0000000000000388 $d
     /tmp/ccB9RVXV.s:2326   .text.update_override_limits.constprop.2:00000000000003c4 $t
     /tmp/ccB9RVXV.s:2595   .text.update_override_limits.constprop.2:00000000000005cc $d
     /tmp/ccB9RVXV.s:2602   .text.mc_interface_set_configuration:0000000000000000 $t
     /tmp/ccB9RVXV.s:2608   .text.mc_interface_set_configuration:0000000000000000 mc_interface_set_configuration
     /tmp/ccB9RVXV.s:2754   .text.mc_interface_set_configuration:00000000000000c4 $d
     /tmp/ccB9RVXV.s:2759   .text.timer_thread:0000000000000000 $t
     /tmp/ccB9RVXV.s:2831   .text.timer_thread:000000000000003c $d
     /tmp/ccB9RVXV.s:2840   .text.mc_interface_get_tachometer_abs_value:0000000000000000 $t
     /tmp/ccB9RVXV.s:2846   .text.mc_interface_get_tachometer_abs_value:0000000000000000 mc_interface_get_tachometer_abs_value
     /tmp/ccB9RVXV.s:2878   .text.mc_interface_get_tachometer_abs_value:000000000000001c $d
     /tmp/ccB9RVXV.s:2883   .text.mc_interface_get_last_inj_adc_isr_duration:0000000000000000 $t
     /tmp/ccB9RVXV.s:2889   .text.mc_interface_get_last_inj_adc_isr_duration:0000000000000000 mc_interface_get_last_inj_adc_isr_duration
     /tmp/ccB9RVXV.s:2919   .text.mc_interface_get_last_inj_adc_isr_duration:000000000000001c $d
     /tmp/ccB9RVXV.s:2925   .text.mc_interface_read_reset_avg_motor_current:0000000000000000 $t
     /tmp/ccB9RVXV.s:2931   .text.mc_interface_read_reset_avg_motor_current:0000000000000000 mc_interface_read_reset_avg_motor_current
     /tmp/ccB9RVXV.s:2957   .text.mc_interface_read_reset_avg_motor_current:0000000000000018 $d
     /tmp/ccB9RVXV.s:2963   .text.mc_interface_read_reset_avg_input_current:0000000000000000 $t
     /tmp/ccB9RVXV.s:2969   .text.mc_interface_read_reset_avg_input_current:0000000000000000 mc_interface_read_reset_avg_input_current
     /tmp/ccB9RVXV.s:2995   .text.mc_interface_read_reset_avg_input_current:0000000000000018 $d
     /tmp/ccB9RVXV.s:3001   .text.mc_interface_read_reset_avg_id:0000000000000000 $t
     /tmp/ccB9RVXV.s:3007   .text.mc_interface_read_reset_avg_id:0000000000000000 mc_interface_read_reset_avg_id
     /tmp/ccB9RVXV.s:3042   .text.mc_interface_read_reset_avg_id:0000000000000034 $d
     /tmp/ccB9RVXV.s:3049   .text.mc_interface_read_reset_avg_iq:0000000000000000 $t
     /tmp/ccB9RVXV.s:3055   .text.mc_interface_read_reset_avg_iq:0000000000000000 mc_interface_read_reset_avg_iq
     /tmp/ccB9RVXV.s:3090   .text.mc_interface_read_reset_avg_iq:0000000000000034 $d
ARM GAS  /tmp/ccB9RVXV.s 			page 345


     /tmp/ccB9RVXV.s:3097   .text.mc_interface_get_pid_pos_set:0000000000000000 $t
     /tmp/ccB9RVXV.s:3103   .text.mc_interface_get_pid_pos_set:0000000000000000 mc_interface_get_pid_pos_set
     /tmp/ccB9RVXV.s:3118   .text.mc_interface_get_pid_pos_set:0000000000000008 $d
     /tmp/ccB9RVXV.s:3123   .text.mc_interface_get_pid_pos_now:0000000000000000 $t
     /tmp/ccB9RVXV.s:3129   .text.mc_interface_get_pid_pos_now:0000000000000000 mc_interface_get_pid_pos_now
     /tmp/ccB9RVXV.s:3180   .text.mc_interface_get_pid_pos_now:000000000000003c $d
     /tmp/ccB9RVXV.s:3186   .text.mc_interface_get_last_sample_adc_isr_duration:0000000000000000 $t
     /tmp/ccB9RVXV.s:3192   .text.mc_interface_get_last_sample_adc_isr_duration:0000000000000000 mc_interface_get_last_sample_adc_isr_duration
     /tmp/ccB9RVXV.s:3207   .text.mc_interface_get_last_sample_adc_isr_duration:0000000000000008 $d
     /tmp/ccB9RVXV.s:3212   .text.mc_interface_sample_print_data:0000000000000000 $t
     /tmp/ccB9RVXV.s:3218   .text.mc_interface_sample_print_data:0000000000000000 mc_interface_sample_print_data
     /tmp/ccB9RVXV.s:3284   .text.mc_interface_sample_print_data:0000000000000044 $d
     /tmp/ccB9RVXV.s:3294   .text.mc_interface_temp_fet_filtered:0000000000000000 $t
     /tmp/ccB9RVXV.s:3300   .text.mc_interface_temp_fet_filtered:0000000000000000 mc_interface_temp_fet_filtered
     /tmp/ccB9RVXV.s:3315   .text.mc_interface_temp_fet_filtered:0000000000000008 $d
     /tmp/ccB9RVXV.s:3320   .text.mc_interface_temp_motor_filtered:0000000000000000 $t
     /tmp/ccB9RVXV.s:3326   .text.mc_interface_temp_motor_filtered:0000000000000000 mc_interface_temp_motor_filtered
     /tmp/ccB9RVXV.s:3341   .text.mc_interface_temp_motor_filtered:0000000000000008 $d
     /tmp/ccB9RVXV.s:3346   .text.mc_interface_try_input:0000000000000000 $t
     /tmp/ccB9RVXV.s:3352   .text.mc_interface_try_input:0000000000000000 mc_interface_try_input
     /tmp/ccB9RVXV.s:3445   .text.mc_interface_try_input:0000000000000064 $d
     /tmp/ccB9RVXV.s:3453   .text.mc_interface_set_duty:0000000000000000 $t
     /tmp/ccB9RVXV.s:3459   .text.mc_interface_set_duty:0000000000000000 mc_interface_set_duty
     /tmp/ccB9RVXV.s:3527   .text.mc_interface_set_duty:000000000000006c $d
     /tmp/ccB9RVXV.s:3532   .text.mc_interface_brake_now:0000000000000000 $t
     /tmp/ccB9RVXV.s:3538   .text.mc_interface_brake_now:0000000000000000 mc_interface_brake_now
     /tmp/ccB9RVXV.s:3552   .text.mc_interface_brake_now:0000000000000008 $d
     /tmp/ccB9RVXV.s:3557   .text.mc_interface_set_duty_noramp:0000000000000000 $t
     /tmp/ccB9RVXV.s:3563   .text.mc_interface_set_duty_noramp:0000000000000000 mc_interface_set_duty_noramp
     /tmp/ccB9RVXV.s:3631   .text.mc_interface_set_duty_noramp:000000000000006c $d
     /tmp/ccB9RVXV.s:3636   .text.mc_interface_set_pid_speed:0000000000000000 $t
     /tmp/ccB9RVXV.s:3642   .text.mc_interface_set_pid_speed:0000000000000000 mc_interface_set_pid_speed
     /tmp/ccB9RVXV.s:3710   .text.mc_interface_set_pid_speed:000000000000006c $d
     /tmp/ccB9RVXV.s:3715   .text.mc_interface_set_pid_pos:0000000000000000 $t
     /tmp/ccB9RVXV.s:3721   .text.mc_interface_set_pid_pos:0000000000000000 mc_interface_set_pid_pos
     /tmp/ccB9RVXV.s:3797   .text.mc_interface_set_pid_pos:000000000000007c $d
     /tmp/ccB9RVXV.s:3803   .text.mc_interface_set_current:0000000000000000 $t
     /tmp/ccB9RVXV.s:3809   .text.mc_interface_set_current:0000000000000000 mc_interface_set_current
     /tmp/ccB9RVXV.s:3883   .text.mc_interface_set_current:000000000000006c $d
     /tmp/ccB9RVXV.s:3890   .text.mc_interface_set_current_rel:0000000000000000 $t
     /tmp/ccB9RVXV.s:3896   .text.mc_interface_set_current_rel:0000000000000000 mc_interface_set_current_rel
     /tmp/ccB9RVXV.s:3928   .text.mc_interface_set_current_rel:0000000000000028 $d
     /tmp/ccB9RVXV.s:3933   .text.mc_interface_release_motor:0000000000000000 $t
     /tmp/ccB9RVXV.s:3939   .text.mc_interface_release_motor:0000000000000000 mc_interface_release_motor
     /tmp/ccB9RVXV.s:3953   .text.mc_interface_release_motor:0000000000000008 $d
     /tmp/ccB9RVXV.s:3958   .text.mc_interface_set_brake_current:0000000000000000 $t
     /tmp/ccB9RVXV.s:3964   .text.mc_interface_set_brake_current:0000000000000000 mc_interface_set_brake_current
     /tmp/ccB9RVXV.s:4032   .text.mc_interface_set_brake_current:000000000000006c $d
     /tmp/ccB9RVXV.s:4037   .text.mc_interface_set_brake_current_rel:0000000000000000 $t
     /tmp/ccB9RVXV.s:4043   .text.mc_interface_set_brake_current_rel:0000000000000000 mc_interface_set_brake_current_rel
     /tmp/ccB9RVXV.s:4061   .text.mc_interface_set_brake_current_rel:0000000000000010 $d
     /tmp/ccB9RVXV.s:4066   .text.mc_interface_set_handbrake:0000000000000000 $t
     /tmp/ccB9RVXV.s:4072   .text.mc_interface_set_handbrake:0000000000000000 mc_interface_set_handbrake
     /tmp/ccB9RVXV.s:4128   .text.mc_interface_set_handbrake:0000000000000044 $d
     /tmp/ccB9RVXV.s:4133   .text.mc_interface_fault_stop:0000000000000000 $t
     /tmp/ccB9RVXV.s:4139   .text.mc_interface_fault_stop:0000000000000000 mc_interface_fault_stop
     /tmp/ccB9RVXV.s:4165   .text.mc_interface_fault_stop:0000000000000018 $d
ARM GAS  /tmp/ccB9RVXV.s 			page 346


     /tmp/ccB9RVXV.s:4172   .text.mc_interface_mc_timer_isr:0000000000000000 $t
     /tmp/ccB9RVXV.s:4178   .text.mc_interface_mc_timer_isr:0000000000000000 mc_interface_mc_timer_isr
     /tmp/ccB9RVXV.s:4457   .text.mc_interface_mc_timer_isr:00000000000001d0 $d
     /tmp/ccB9RVXV.s:4464   .text.mc_interface_mc_timer_isr:00000000000001dc $t
     /tmp/ccB9RVXV.s:4492   .text.mc_interface_mc_timer_isr:00000000000001fc $d
     /tmp/ccB9RVXV.s:4520   .text.mc_interface_mc_timer_isr:0000000000000258 $t
     /tmp/ccB9RVXV.s:5041   .text.mc_interface_mc_timer_isr:000000000000050c $d
     /tmp/ccB9RVXV.s:5071   .text.mc_interface_mc_timer_isr:000000000000056c $t
     /tmp/ccB9RVXV.s:5326   .text.mc_interface_mc_timer_isr:00000000000006ac $d
     /tmp/ccB9RVXV.s:5344   .text.mc_interface_adc_inj_int_handler:0000000000000000 $t
     /tmp/ccB9RVXV.s:5350   .text.mc_interface_adc_inj_int_handler:0000000000000000 mc_interface_adc_inj_int_handler
     /tmp/ccB9RVXV.s:5370   .text.mc_interface_adc_inj_int_handler:0000000000000010 $d
     /tmp/ccB9RVXV.s:5692   .bss.ADC_curr_norm_value:0000000000000000 ADC_curr_norm_value
     /tmp/ccB9RVXV.s:5480   .bss.ADC_Value:0000000000000000 ADC_Value
     /tmp/ccB9RVXV.s:5377   .bss.m_sample_trigger:0000000000000000 $d
     /tmp/ccB9RVXV.s:5381   .bss.m_sample_trigger:0000000000000000 m_sample_trigger
     /tmp/ccB9RVXV.s:5384   .bss.a.10716:0000000000000000 $d
     /tmp/ccB9RVXV.s:5388   .bss.a.10716:0000000000000000 a.10716
     /tmp/ccB9RVXV.s:5391   .bss.m_sample_int:0000000000000000 $d
     /tmp/ccB9RVXV.s:5395   .bss.m_sample_int:0000000000000000 m_sample_int
     /tmp/ccB9RVXV.s:5398   .bss.curr_diff_sum.10703:0000000000000000 $d
     /tmp/ccB9RVXV.s:5402   .bss.curr_diff_sum.10703:0000000000000000 curr_diff_sum.10703
     /tmp/ccB9RVXV.s:5405   .bss.m_watt_seconds_charged:0000000000000000 $d
     /tmp/ccB9RVXV.s:5409   .bss.m_watt_seconds_charged:0000000000000000 m_watt_seconds_charged
     /tmp/ccB9RVXV.s:5412   .ram4:0000000000000000 $d
     /tmp/ccB9RVXV.s:5423   .ram4:0000000000000000 m_curr0_samples
     /tmp/ccB9RVXV.s:5427   .ram4:0000000000000fa0 m_curr1_samples
     /tmp/ccB9RVXV.s:5431   .ram4:0000000000001f40 m_ph1_samples
     /tmp/ccB9RVXV.s:5435   .ram4:0000000000002ee0 m_ph2_samples
     /tmp/ccB9RVXV.s:5439   .ram4:0000000000003e80 m_ph3_samples
     /tmp/ccB9RVXV.s:5443   .ram4:0000000000004e20 m_vzero_samples
     /tmp/ccB9RVXV.s:5447   .ram4:0000000000005dc0 m_curr_fir_samples
     /tmp/ccB9RVXV.s:5451   .ram4:0000000000006d60 m_f_sw_samples
     /tmp/ccB9RVXV.s:5455   .ram4:0000000000007d00 m_status_samples
     /tmp/ccB9RVXV.s:5459   .ram4:00000000000084d0 m_phase_samples
     /tmp/ccB9RVXV.s:5462   .bss.m_motor_iq_sum:0000000000000000 $d
     /tmp/ccB9RVXV.s:5466   .bss.m_motor_iq_sum:0000000000000000 m_motor_iq_sum
     /tmp/ccB9RVXV.s:5469   .bss.m_motor_id_sum:0000000000000000 $d
     /tmp/ccB9RVXV.s:5473   .bss.m_motor_id_sum:0000000000000000 m_motor_id_sum
     /tmp/ccB9RVXV.s:5476   .bss.ADC_Value:0000000000000000 $d
     /tmp/ccB9RVXV.s:5483   .bss.m_motor_current_iterations:0000000000000000 $d
     /tmp/ccB9RVXV.s:5487   .bss.m_motor_current_iterations:0000000000000000 m_motor_current_iterations
     /tmp/ccB9RVXV.s:5490   .bss.m_last_adc_duration_sample:0000000000000000 $d
     /tmp/ccB9RVXV.s:5494   .bss.m_last_adc_duration_sample:0000000000000000 m_last_adc_duration_sample
     /tmp/ccB9RVXV.s:5497   .bss.m_motor_iq_iterations:0000000000000000 $d
     /tmp/ccB9RVXV.s:5501   .bss.m_motor_iq_iterations:0000000000000000 m_motor_iq_iterations
     /tmp/ccB9RVXV.s:5504   .bss.m_amp_seconds_charged:0000000000000000 $d
     /tmp/ccB9RVXV.s:5508   .bss.m_amp_seconds_charged:0000000000000000 m_amp_seconds_charged
     /tmp/ccB9RVXV.s:5511   .bss.pwn_done_func:0000000000000000 $d
     /tmp/ccB9RVXV.s:5515   .bss.pwn_done_func:0000000000000000 pwn_done_func
     /tmp/ccB9RVXV.s:5518   .bss.m_input_current_sum:0000000000000000 $d
     /tmp/ccB9RVXV.s:5522   .bss.m_input_current_sum:0000000000000000 m_input_current_sum
     /tmp/ccB9RVXV.s:5525   .bss.curr_diff_samples.10704:0000000000000000 $d
     /tmp/ccB9RVXV.s:5529   .bss.curr_diff_samples.10704:0000000000000000 curr_diff_samples.10704
     /tmp/ccB9RVXV.s:5532   .bss.m_sample_len:0000000000000000 $d
     /tmp/ccB9RVXV.s:5536   .bss.m_sample_len:0000000000000000 m_sample_len
     /tmp/ccB9RVXV.s:5539   .bss.m_conf:0000000000000000 $d
ARM GAS  /tmp/ccB9RVXV.s 			page 347


     /tmp/ccB9RVXV.s:5543   .bss.m_conf:0000000000000000 m_conf
     /tmp/ccB9RVXV.s:5549   .bss.m_fault_now:0000000000000000 m_fault_now
     /tmp/ccB9RVXV.s:5550   .bss.m_fault_now:0000000000000000 $d
     /tmp/ccB9RVXV.s:5552   .bss.sample_send_tp:0000000000000000 $d
     /tmp/ccB9RVXV.s:5556   .bss.sample_send_tp:0000000000000000 sample_send_tp
     /tmp/ccB9RVXV.s:5559   .rodata.str1.4:0000000000000000 $d
     /tmp/ccB9RVXV.s:5587   .bss.m_cycles_running:0000000000000000 $d
     /tmp/ccB9RVXV.s:5591   .bss.m_cycles_running:0000000000000000 m_cycles_running
     /tmp/ccB9RVXV.s:5594   .rodata.CSWTCH.191:0000000000000000 $d
     /tmp/ccB9RVXV.s:5598   .rodata.CSWTCH.191:0000000000000000 CSWTCH.191
     /tmp/ccB9RVXV.s:5607   .bss.m_temp_fet:0000000000000000 $d
     /tmp/ccB9RVXV.s:5611   .bss.m_temp_fet:0000000000000000 m_temp_fet
     /tmp/ccB9RVXV.s:5614   .bss.m_motor_id_iterations:0000000000000000 $d
     /tmp/ccB9RVXV.s:5618   .bss.m_motor_id_iterations:0000000000000000 m_motor_id_iterations
     /tmp/ccB9RVXV.s:5621   .bss.m_motor_current_sum:0000000000000000 $d
     /tmp/ccB9RVXV.s:5625   .bss.m_motor_current_sum:0000000000000000 m_motor_current_sum
     /tmp/ccB9RVXV.s:5628   .bss.m_input_current_iterations:0000000000000000 $d
     /tmp/ccB9RVXV.s:5632   .bss.m_input_current_iterations:0000000000000000 m_input_current_iterations
     /tmp/ccB9RVXV.s:5635   .bss.m_amp_seconds:0000000000000000 $d
     /tmp/ccB9RVXV.s:5639   .bss.m_amp_seconds:0000000000000000 m_amp_seconds
     /tmp/ccB9RVXV.s:5642   .bss.sample_send_thread_wa:0000000000000000 $d
     /tmp/ccB9RVXV.s:5646   .bss.sample_send_thread_wa:0000000000000000 sample_send_thread_wa
     /tmp/ccB9RVXV.s:5649   .bss.m_ignore_iterations:0000000000000000 $d
     /tmp/ccB9RVXV.s:5653   .bss.m_ignore_iterations:0000000000000000 m_ignore_iterations
     /tmp/ccB9RVXV.s:5659   .bss.m_sample_mode_last:0000000000000000 m_sample_mode_last
     /tmp/ccB9RVXV.s:5660   .bss.m_sample_mode_last:0000000000000000 $d
     /tmp/ccB9RVXV.s:5662   .bss.wrong_voltage_iterations.10697:0000000000000000 $d
     /tmp/ccB9RVXV.s:5666   .bss.wrong_voltage_iterations.10697:0000000000000000 wrong_voltage_iterations.10697
     /tmp/ccB9RVXV.s:5672   .bss.m_lock_enabled:0000000000000000 m_lock_enabled
     /tmp/ccB9RVXV.s:5673   .bss.m_lock_enabled:0000000000000000 $d
     /tmp/ccB9RVXV.s:5678   .bss.m_lock_override_once:0000000000000000 m_lock_override_once
     /tmp/ccB9RVXV.s:5679   .bss.m_lock_override_once:0000000000000000 $d
     /tmp/ccB9RVXV.s:5681   .bss.m_watt_seconds:0000000000000000 $d
     /tmp/ccB9RVXV.s:5685   .bss.m_watt_seconds:0000000000000000 m_watt_seconds
     /tmp/ccB9RVXV.s:5688   .bss.ADC_curr_norm_value:0000000000000000 $d
     /tmp/ccB9RVXV.s:5695   .bss.m_position_set:0000000000000000 $d
     /tmp/ccB9RVXV.s:5699   .bss.m_position_set:0000000000000000 m_position_set
     /tmp/ccB9RVXV.s:5702   .bss.m_sample_now:0000000000000000 $d
     /tmp/ccB9RVXV.s:5706   .bss.m_sample_now:0000000000000000 m_sample_now
     /tmp/ccB9RVXV.s:5709   .bss.timer_thread_wa:0000000000000000 $d
     /tmp/ccB9RVXV.s:5713   .bss.timer_thread_wa:0000000000000000 timer_thread_wa
     /tmp/ccB9RVXV.s:5719   .bss.m_sample_mode:0000000000000000 m_sample_mode
     /tmp/ccB9RVXV.s:5720   .bss.m_sample_mode:0000000000000000 $d
     /tmp/ccB9RVXV.s:5722   .bss.m_temp_motor:0000000000000000 $d
     /tmp/ccB9RVXV.s:5726   .bss.m_temp_motor:0000000000000000 m_temp_motor
                     .debug_frame:0000000000000010 $d
     /tmp/ccB9RVXV.s:350    .text.sample_send_thread:000000000000022c $t
     /tmp/ccB9RVXV.s:619    .text.mc_interface_init:00000000000001b8 $t
     /tmp/ccB9RVXV.s:643    .text.mc_interface_get_configuration:0000000000000008 $t
     /tmp/ccB9RVXV.s:710    .text.mc_interface_set_pwm_callback:000000000000000c $t
     /tmp/ccB9RVXV.s:736    .text.mc_interface_lock:000000000000000c $t
     /tmp/ccB9RVXV.s:762    .text.mc_interface_unlock:000000000000000c $t
     /tmp/ccB9RVXV.s:788    .text.mc_interface_lock_override_once:000000000000000c $t
     /tmp/ccB9RVXV.s:814    .text.mc_interface_get_fault:000000000000000c $t
     /tmp/ccB9RVXV.s:846    .text.mc_interface_fault_to_string:0000000000000018 $t
     /tmp/ccB9RVXV.s:950    .text.mc_interface_get_duty_cycle_set:0000000000000044 $t
     /tmp/ccB9RVXV.s:1013   .text.mc_interface_get_duty_cycle_now:0000000000000044 $t
ARM GAS  /tmp/ccB9RVXV.s 			page 348


     /tmp/ccB9RVXV.s:1055   .text.mc_interface_get_sampling_frequency_now:0000000000000024 $t
     /tmp/ccB9RVXV.s:1118   .text.mc_interface_get_rpm:0000000000000044 $t
     /tmp/ccB9RVXV.s:1308   .text.mc_interface_get_tot_current:0000000000000024 $t
     /tmp/ccB9RVXV.s:1350   .text.mc_interface_get_tot_current_filtered:0000000000000024 $t
     /tmp/ccB9RVXV.s:1413   .text.mc_interface_get_tot_current_directional:0000000000000044 $t
     /tmp/ccB9RVXV.s:1476   .text.mc_interface_get_tot_current_directional_filtered:0000000000000044 $t
     /tmp/ccB9RVXV.s:1518   .text.mc_interface_get_tot_current_in:0000000000000024 $t
     /tmp/ccB9RVXV.s:1560   .text.mc_interface_get_tot_current_in_filtered:0000000000000024 $t
     /tmp/ccB9RVXV.s:1627   .text.mc_interface_get_tachometer_value:000000000000005c $t
     /tmp/ccB9RVXV.s:1828   .text.mc_interface_fault_stop.part.1:0000000000000144 $t
     /tmp/ccB9RVXV.s:2601   .text.update_override_limits.constprop.2:00000000000005d8 $t
     /tmp/ccB9RVXV.s:2758   .text.mc_interface_set_configuration:00000000000000c8 $t
     /tmp/ccB9RVXV.s:2924   .text.mc_interface_get_last_inj_adc_isr_duration:0000000000000024 $t
     /tmp/ccB9RVXV.s:3122   .text.mc_interface_get_pid_pos_set:000000000000000c $t
     /tmp/ccB9RVXV.s:3185   .text.mc_interface_get_pid_pos_now:0000000000000044 $t
     /tmp/ccB9RVXV.s:3211   .text.mc_interface_get_last_sample_adc_isr_duration:000000000000000c $t
     /tmp/ccB9RVXV.s:3293   .text.mc_interface_sample_print_data:000000000000005c $t
     /tmp/ccB9RVXV.s:3319   .text.mc_interface_temp_fet_filtered:000000000000000c $t
     /tmp/ccB9RVXV.s:3345   .text.mc_interface_temp_motor_filtered:000000000000000c $t
     /tmp/ccB9RVXV.s:3452   .text.mc_interface_try_input:0000000000000074 $t
     /tmp/ccB9RVXV.s:3556   .text.mc_interface_brake_now:000000000000000c $t
     /tmp/ccB9RVXV.s:3802   .text.mc_interface_set_pid_pos:0000000000000084 $t
     /tmp/ccB9RVXV.s:3932   .text.mc_interface_set_current_rel:000000000000002c $t
     /tmp/ccB9RVXV.s:3957   .text.mc_interface_release_motor:000000000000000c $t
     /tmp/ccB9RVXV.s:4065   .text.mc_interface_set_brake_current_rel:0000000000000014 $t
     /tmp/ccB9RVXV.s:4132   .text.mc_interface_set_handbrake:0000000000000048 $t
     /tmp/ccB9RVXV.s:4171   .text.mc_interface_fault_stop:0000000000000024 $t
     /tmp/ccB9RVXV.s:5376   .text.mc_interface_adc_inj_int_handler:0000000000000014 $t

UNDEFINED SYMBOLS
chEvtWaitAny
buffer_append_float32_auto
commands_send_packet
ch
memcpy
chThdCreateStatic
mcpwm_foc_init
encoder_init_as5047p_spi
mcpwm_init
encoder_init_abi
mcpwm_foc_is_dccal_done
mcpwm_is_dccal_done
mcpwm_foc_get_state
mcpwm_get_state
mcpwm_foc_get_duty_cycle_set
mcpwm_get_duty_cycle_set
mcpwm_foc_get_duty_cycle_now
mcpwm_get_duty_cycle_now
mcpwm_foc_get_sampling_frequency_now
mcpwm_get_switching_frequency_now
mcpwm_foc_get_rpm
mcpwm_get_rpm
mcpwm_foc_get_tot_current
mcpwm_get_tot_current
mcpwm_foc_get_tot_current_filtered
mcpwm_get_tot_current_filtered
mcpwm_foc_get_tot_current_directional
ARM GAS  /tmp/ccB9RVXV.s 			page 349


mcpwm_get_tot_current_directional
mcpwm_foc_get_tot_current_directional_filtered
mcpwm_get_tot_current_directional_filtered
mcpwm_foc_get_tot_current_in
mcpwm_get_tot_current_in
mcpwm_foc_get_tot_current_in_filtered
mcpwm_get_tot_current_in_filtered
mcpwm_foc_get_tachometer_value
mcpwm_get_tachometer_value
mcpwm_foc_stop_pwm
mcpwm_stop_pwm
utils_sys_lock_cnt
utils_sys_unlock_cnt
mcpwm_get_comm_step
logf
terminal_add_fault_data
utils_map
utils_min_abs
encoder_deinit
mcpwm_foc_set_configuration
mcpwm_set_configuration
mcpwm_foc_deinit
encoder_set_counts
mcpwm_deinit
chThdSleep
mcpwm_foc_get_tachometer_abs_value
mcpwm_get_tachometer_abs_value
mcpwm_foc_get_last_inj_adc_isr_duration
mcpwm_get_last_inj_adc_isr_duration
mcpwm_foc_get_pid_pos_now
encoder_read_deg
chEvtSignal
mcpwm_foc_init_done
mcpwm_init_done
mcpwm_foc_set_duty
mcpwm_set_duty
mcpwm_foc_set_duty_noramp
mcpwm_set_duty_noramp
mcpwm_foc_set_pid_speed
mcpwm_set_pid_speed
mcpwm_foc_set_pid_pos
mcpwm_set_pid_pos
mcpwm_foc_set_current
mcpwm_set_current
mcpwm_foc_set_brake_current
mcpwm_set_brake_current
mcpwm_foc_set_handbrake
ledpwm_update_pwm
mcpwm_foc_get_id
mcpwm_foc_get_iq
mcpwm_read_hall_phase
chEvtSignalI
mcpwm_foc_get_abs_motor_current
mcpwm_foc_get_abs_motor_current_filtered
mcpwm_vzero
mcpwm_foc_get_phase
mcpwm_detect_currents
ARM GAS  /tmp/ccB9RVXV.s 			page 350


mcpwm_detect_voltages
mcpwm_detect_currents_diff
mcpwm_adc_inj_int_handler
