ARM GAS  /tmp/ccwIw6h8.s 			page 1


   1              		.syntax unified
   2              		.cpu cortex-m4
   3              		.eabi_attribute 27, 3
   4              		.eabi_attribute 28, 1
   5              		.fpu fpv4-sp-d16
   6              		.eabi_attribute 20, 1
   7              		.eabi_attribute 21, 1
   8              		.eabi_attribute 23, 3
   9              		.eabi_attribute 24, 1
  10              		.eabi_attribute 25, 1
  11              		.eabi_attribute 26, 1
  12              		.eabi_attribute 30, 2
  13              		.eabi_attribute 34, 1
  14              		.eabi_attribute 18, 4
  15              		.thumb
  16              		.file	"mcpwm.c"
  17              		.text
  18              	.Ltext0:
  19              		.cfi_sections	.debug_frame
  20              		.section	.text.update_adc_sample_pos,"ax",%progbits
  21              		.align	2
  22              		.p2align 4,,15
  23              		.thumb
  24              		.thumb_func
  25              		.type	update_adc_sample_pos, %function
  26              	update_adc_sample_pos:
  27              	.LFB312:
  28              		.file 1 "mcpwm.c"
  29              		.loc 1 2272 0
  30              		.cfi_startproc
  31              		@ args = 0, pretend = 0, frame = 24
  32              		@ frame_needed = 0, uses_anonymous_args = 0
  33              		@ link register save eliminated.
  34              	.LVL0:
  35 0000 F0B4     		push	{r4, r5, r6, r7}
  36              		.cfi_def_cfa_offset 16
  37              		.cfi_offset 4, -16
  38              		.cfi_offset 5, -12
  39              		.cfi_offset 6, -8
  40              		.cfi_offset 7, -4
  41 0002 86B0     		sub	sp, sp, #24
  42              		.cfi_def_cfa_offset 40
  43              		.loc 1 2273 0
  44 0004 8268     		ldr	r2, [r0, #8]
  45 0006 0192     		str	r2, [sp, #4]
  46              		.loc 1 2274 0
  47 0008 4268     		ldr	r2, [r0, #4]
  48 000a 0292     		str	r2, [sp, #8]
  49              		.loc 1 2275 0
  50 000c C268     		ldr	r2, [r0, #12]
  51 000e 0392     		str	r2, [sp, #12]
  52              		.loc 1 2276 0
  53 0010 0269     		ldr	r2, [r0, #16]
  54 0012 0492     		str	r2, [sp, #16]
  55              		.loc 1 2277 0
  56 0014 4269     		ldr	r2, [r0, #20]
  57              		.loc 1 2283 0
ARM GAS  /tmp/ccwIw6h8.s 			page 2


  58 0016 724B     		ldr	r3, .L44
  59              		.loc 1 2277 0
  60 0018 0592     		str	r2, [sp, #20]
  61              		.loc 1 2283 0
  62 001a DDED027A 		flds	s15, [sp, #8]	@ int
  63 001e 1B68     		ldr	r3, [r3]
  64 0020 F8EE677A 		fuitos	s15, s15
  65 0024 93ED167A 		flds	s14, [r3, #88]
  66 0028 019A     		ldr	r2, [sp, #4]
  67 002a 67EE877A 		fmuls	s15, s15, s14
  68 002e FCEEE77A 		ftouizs	s15, s15
  69 0032 17EE901A 		fmrs	r1, s15	@ int
  70 0036 9142     		cmp	r1, r2
  71 0038 0BD2     		bcs	.L2
  72              		.loc 1 2284 0
  73 003a DDED027A 		flds	s15, [sp, #8]	@ int
  74 003e 93ED167A 		flds	s14, [r3, #88]
  75 0042 F8EE677A 		fuitos	s15, s15
  76 0046 67EE877A 		fmuls	s15, s15, s14
  77 004a FCEEE77A 		ftouizs	s15, s15
  78 004e CDED017A 		fsts	s15, [sp, #4]	@ int
  79              	.L2:
  80              		.loc 1 2287 0
  81 0052 644A     		ldr	r2, .L44+4
  82 0054 0021     		movs	r1, #0
  83 0056 1160     		str	r1, [r2]
  84              		.loc 1 2289 0
  85 0058 9978     		ldrb	r1, [r3, #2]	@ zero_extendqisi2
  86 005a C9B2     		uxtb	r1, r1
  87 005c 0129     		cmp	r1, #1
  88 005e 3FD0     		beq	.L41
  89              		.loc 1 2310 0
  90 0060 6149     		ldr	r1, .L44+8
  91 0062 0978     		ldrb	r1, [r1]	@ zero_extendqisi2
  92 0064 0129     		cmp	r1, #1
  93 0066 00F08280 		beq	.L42
  94              		.loc 1 2321 0
  95 006a 1B78     		ldrb	r3, [r3]	@ zero_extendqisi2
  96 006c 022B     		cmp	r3, #2
  97 006e 45D0     		beq	.L43
  98              		.loc 1 2406 0
  99 0070 019B     		ldr	r3, [sp, #4]
 100 0072 5B08     		lsrs	r3, r3, #1
 101 0074 0393     		str	r3, [sp, #12]
 102              		.loc 1 2409 0
 103 0076 029C     		ldr	r4, [sp, #8]
 104 0078 019B     		ldr	r3, [sp, #4]
 105 007a 0199     		ldr	r1, [sp, #4]
 106 007c E31A     		subs	r3, r4, r3
 107 007e 01EB5303 		add	r3, r1, r3, lsr #1
 108 0082 0493     		str	r3, [sp, #16]
 109              		.loc 1 2410 0
 110 0084 0299     		ldr	r1, [sp, #8]
 111 0086 049B     		ldr	r3, [sp, #16]
 112 0088 4639     		subs	r1, r1, #70
 113 008a 9942     		cmp	r1, r3
 114 008c 02D2     		bcs	.L21
ARM GAS  /tmp/ccwIw6h8.s 			page 3


 115              		.loc 1 2411 0
 116 008e 029B     		ldr	r3, [sp, #8]
 117 0090 463B     		subs	r3, r3, #70
 118 0092 0493     		str	r3, [sp, #16]
 119              	.L21:
 120              		.loc 1 2414 0
 121 0094 049B     		ldr	r3, [sp, #16]
 122 0096 0593     		str	r3, [sp, #20]
 123              		.loc 1 2421 0
 124 0098 0299     		ldr	r1, [sp, #8]
 125 009a 019B     		ldr	r3, [sp, #4]
 126 009c B3EB510F 		cmp	r3, r1, lsr #1
 127 00a0 15D9     		bls	.L5
 128              		.loc 1 2466 0
 129 00a2 524B     		ldr	r3, .L44+12
 130 00a4 1B68     		ldr	r3, [r3]
 131 00a6 002B     		cmp	r3, #0
 132 00a8 51D0     		beq	.L22
 133              		.loc 1 2467 0
 134 00aa 514B     		ldr	r3, .L44+16
 135 00ac 1B68     		ldr	r3, [r3]
 136 00ae 013B     		subs	r3, r3, #1
 137 00b0 052B     		cmp	r3, #5
 138 00b2 0CD8     		bhi	.L5
 139 00b4 DFE803F0 		tbb	[pc, r3]
 140              	.L24:
 141 00b8 55       		.byte	(.L36-.L24)/2
 142 00b9 58       		.byte	(.L33-.L24)/2
 143 00ba 58       		.byte	(.L33-.L24)/2
 144 00bb 55       		.byte	(.L36-.L24)/2
 145 00bc 55       		.byte	(.L36-.L24)/2
 146 00bd 55       		.byte	(.L36-.L24)/2
 147              	.LVL1:
 148              		.p2align 1
 149              	.L13:
 150              	.LBB72:
 151              		.loc 1 2381 0
 152 00be 4B4B     		ldr	r3, .L44+12
 153 00c0 1B68     		ldr	r3, [r3]
 154 00c2 002B     		cmp	r3, #0
 155 00c4 69D0     		beq	.L39
 156              	.L20:
 157              		.loc 1 2400 0
 158 00c6 0123     		movs	r3, #1
 159              		.loc 1 2398 0
 160 00c8 0496     		str	r6, [sp, #16]
 161              		.loc 1 2399 0
 162 00ca 0594     		str	r4, [sp, #20]
 163              		.loc 1 2400 0
 164 00cc 1360     		str	r3, [r2]
 165              	.LVL2:
 166              	.L5:
 167              	.LBE72:
 168              		.loc 1 2493 0
 169 00ce 039B     		ldr	r3, [sp, #12]
 170 00d0 C360     		str	r3, [r0, #12]
 171              		.loc 1 2494 0
ARM GAS  /tmp/ccwIw6h8.s 			page 4


 172 00d2 049B     		ldr	r3, [sp, #16]
 173 00d4 0361     		str	r3, [r0, #16]
 174              		.loc 1 2495 0
 175 00d6 059B     		ldr	r3, [sp, #20]
 176 00d8 4361     		str	r3, [r0, #20]
 177              		.loc 1 2499 0
 178 00da 06B0     		add	sp, sp, #24
 179              		@ sp needed
 180 00dc F0BC     		pop	{r4, r5, r6, r7}
 181 00de 7047     		bx	lr
 182              	.L41:
 183              		.loc 1 2290 0
 184 00e0 029B     		ldr	r3, [sp, #8]
 185 00e2 0A3B     		subs	r3, r3, #10
 186 00e4 0493     		str	r3, [sp, #16]
 187              		.loc 1 2291 0
 188 00e6 029B     		ldr	r3, [sp, #8]
 189 00e8 0A3B     		subs	r3, r3, #10
 190 00ea 0593     		str	r3, [sp, #20]
 191              		.loc 1 2296 0
 192 00ec 019B     		ldr	r3, [sp, #4]
 193 00ee B3F57A7F 		cmp	r3, #1000
 194              		.loc 1 2297 0
 195 00f2 019B     		ldr	r3, [sp, #4]
 196              		.loc 1 2296 0
 197 00f4 26D9     		bls	.L4
 198              		.loc 1 2297 0
 199 00f6 5B08     		lsrs	r3, r3, #1
 200 00f8 0393     		str	r3, [sp, #12]
 201 00fa E8E7     		b	.L5
 202              	.L43:
 203              	.LBB73:
 204              		.loc 1 2322 0
 205 00fc 029E     		ldr	r6, [sp, #8]
 206              		.loc 1 2323 0
 207 00fe 029F     		ldr	r7, [sp, #8]
 208 0100 019D     		ldr	r5, [sp, #4]
 209 0102 019C     		ldr	r4, [sp, #4]
 210              		.loc 1 2324 0
 211 0104 0299     		ldr	r1, [sp, #8]
 212              		.loc 1 2327 0
 213 0106 DDF808C0 		ldr	ip, [sp, #8]
 214              		.loc 1 2335 0
 215 010a 394B     		ldr	r3, .L44+16
 216              		.loc 1 2327 0
 217 010c 4FEA9C0C 		lsr	ip, ip, #2
 218 0110 CDF80CC0 		str	ip, [sp, #12]
 219              		.loc 1 2335 0
 220 0114 1B68     		ldr	r3, [r3]
 221              		.loc 1 2323 0
 222 0116 7D1B     		subs	r5, r7, r5
 223              		.loc 1 2335 0
 224 0118 013B     		subs	r3, r3, #1
 225              		.loc 1 2322 0
 226 011a 023E     		subs	r6, r6, #2
 227              	.LVL3:
 228              		.loc 1 2323 0
ARM GAS  /tmp/ccwIw6h8.s 			page 5


 229 011c 04EB5504 		add	r4, r4, r5, lsr #1
 230              	.LVL4:
 231              		.loc 1 2324 0
 232 0120 0239     		subs	r1, r1, #2
 233              	.LVL5:
 234              		.loc 1 2335 0
 235 0122 052B     		cmp	r3, #5
 236 0124 D3D8     		bhi	.L5
 237 0126 01A5     		adr	r5, .L9
 238 0128 55F823F0 		ldr	pc, [r5, r3, lsl #2]
 239              		.p2align 2
 240              	.L9:
 241 012c CF010000 		.word	.L8+1
 242 0130 BD010000 		.word	.L10+1
 243 0134 B1010000 		.word	.L11+1
 244 0138 A5010000 		.word	.L12+1
 245 013c BF000000 		.word	.L13+1
 246 0140 93010000 		.word	.L14+1
 247              	.LVL6:
 248              		.p2align 1
 249              	.L4:
 250              	.LBE73:
 251              		.loc 1 2299 0
 252 0144 03F54873 		add	r3, r3, #800
 253 0148 0393     		str	r3, [sp, #12]
 254              		.loc 1 2300 0
 255 014a 1160     		str	r1, [r2]
 256 014c BFE7     		b	.L5
 257              	.L22:
 258              		.loc 1 2477 0
 259 014e 284B     		ldr	r3, .L44+16
 260 0150 1B68     		ldr	r3, [r3]
 261 0152 013B     		subs	r3, r3, #1
 262 0154 052B     		cmp	r3, #5
 263 0156 BAD8     		bhi	.L5
 264 0158 DFE803F0 		tbb	[pc, r3]
 265              	.L31:
 266 015c 03       		.byte	(.L36-.L31)/2
 267 015d 06       		.byte	(.L33-.L31)/2
 268 015e 06       		.byte	(.L33-.L31)/2
 269 015f 03       		.byte	(.L36-.L31)/2
 270 0160 03       		.byte	(.L36-.L31)/2
 271 0161 03       		.byte	(.L36-.L31)/2
 272              		.p2align 1
 273              	.L36:
 274              		.loc 1 2483 0
 275 0162 0123     		movs	r3, #1
 276 0164 1360     		str	r3, [r2]
 277 0166 B2E7     		b	.L5
 278              	.L33:
 279              		.loc 1 2480 0
 280 0168 0223     		movs	r3, #2
 281 016a 1360     		str	r3, [r2]
 282 016c AFE7     		b	.L5
 283              	.L42:
 284              		.loc 1 2312 0
 285 016e 019B     		ldr	r3, [sp, #4]
ARM GAS  /tmp/ccwIw6h8.s 			page 6


 286 0170 5B08     		lsrs	r3, r3, #1
 287 0172 0393     		str	r3, [sp, #12]
 288              		.loc 1 2315 0
 289 0174 0299     		ldr	r1, [sp, #8]
 290 0176 019B     		ldr	r3, [sp, #4]
 291 0178 019A     		ldr	r2, [sp, #4]
 292 017a CB1A     		subs	r3, r1, r3
 293 017c 02EB5303 		add	r3, r2, r3, lsr #1
 294 0180 0493     		str	r3, [sp, #16]
 295              		.loc 1 2316 0
 296 0182 0299     		ldr	r1, [sp, #8]
 297 0184 019B     		ldr	r3, [sp, #4]
 298 0186 019A     		ldr	r2, [sp, #4]
 299 0188 CB1A     		subs	r3, r1, r3
 300 018a 02EB5303 		add	r3, r2, r3, lsr #1
 301 018e 0593     		str	r3, [sp, #20]
 302 0190 9DE7     		b	.L5
 303              	.LVL7:
 304              	.L14:
 305              	.LBB74:
 306              		.loc 1 2393 0
 307 0192 164B     		ldr	r3, .L44+12
 308 0194 1B68     		ldr	r3, [r3]
 309 0196 002B     		cmp	r3, #0
 310 0198 95D0     		beq	.L20
 311              	.L39:
 312              		.loc 1 2396 0
 313 019a 0123     		movs	r3, #1
 314              		.loc 1 2394 0
 315 019c 0496     		str	r6, [sp, #16]
 316              		.loc 1 2395 0
 317 019e 0591     		str	r1, [sp, #20]
 318              		.loc 1 2396 0
 319 01a0 1360     		str	r3, [r2]
 320 01a2 94E7     		b	.L5
 321              	.L12:
 322              		.loc 1 2370 0
 323 01a4 114B     		ldr	r3, .L44+12
 324 01a6 1B68     		ldr	r3, [r3]
 325 01a8 ABB1     		cbz	r3, .L18
 326              	.L37:
 327              		.loc 1 2371 0
 328 01aa 0491     		str	r1, [sp, #16]
 329              		.loc 1 2372 0
 330 01ac 0594     		str	r4, [sp, #20]
 331 01ae 8EE7     		b	.L5
 332              	.L11:
 333              		.loc 1 2359 0
 334 01b0 0E4B     		ldr	r3, .L44+12
 335 01b2 1B68     		ldr	r3, [r3]
 336 01b4 33B1     		cbz	r3, .L17
 337              	.L38:
 338              		.loc 1 2360 0
 339 01b6 0494     		str	r4, [sp, #16]
 340              		.loc 1 2361 0
 341 01b8 0591     		str	r1, [sp, #20]
 342 01ba 88E7     		b	.L5
ARM GAS  /tmp/ccwIw6h8.s 			page 7


 343              	.L10:
 344              		.loc 1 2348 0
 345 01bc 0B4B     		ldr	r3, .L44+12
 346 01be 1B68     		ldr	r3, [r3]
 347 01c0 002B     		cmp	r3, #0
 348 01c2 F8D0     		beq	.L38
 349              	.L17:
 350              		.loc 1 2365 0
 351 01c4 0223     		movs	r3, #2
 352              		.loc 1 2363 0
 353 01c6 0494     		str	r4, [sp, #16]
 354              		.loc 1 2364 0
 355 01c8 0596     		str	r6, [sp, #20]
 356              		.loc 1 2365 0
 357 01ca 1360     		str	r3, [r2]
 358 01cc 7FE7     		b	.L5
 359              	.L8:
 360              		.loc 1 2337 0
 361 01ce 074B     		ldr	r3, .L44+12
 362 01d0 1B68     		ldr	r3, [r3]
 363 01d2 002B     		cmp	r3, #0
 364 01d4 E9D0     		beq	.L37
 365              	.L18:
 366              		.loc 1 2376 0
 367 01d6 0223     		movs	r3, #2
 368              		.loc 1 2374 0
 369 01d8 0491     		str	r1, [sp, #16]
 370              		.loc 1 2375 0
 371 01da 0596     		str	r6, [sp, #20]
 372              		.loc 1 2376 0
 373 01dc 1360     		str	r3, [r2]
 374 01de 76E7     		b	.L5
 375              	.L45:
 376              		.align	2
 377              	.L44:
 378 01e0 00000000 		.word	.LANCHOR0
 379 01e4 00000000 		.word	.LANCHOR1
 380 01e8 00000000 		.word	.LANCHOR2
 381 01ec 00000000 		.word	.LANCHOR4
 382 01f0 00000000 		.word	.LANCHOR3
 383              	.LBE74:
 384              		.cfi_endproc
 385              	.LFE312:
 386              		.size	update_adc_sample_pos, .-update_adc_sample_pos
 387 01f4 AFF30080 		.section	.text.update_rpm_tacho,"ax",%progbits
 387      AFF30080 
 387      AFF30080 
 388              		.align	2
 389              		.p2align 4,,15
 390              		.thumb
 391              		.thumb_func
 392              		.type	update_rpm_tacho, %function
 393              	update_rpm_tacho:
 394              	.LFB313:
 395              		.loc 1 2501 0
 396              		.cfi_startproc
 397              		@ args = 0, pretend = 0, frame = 0
ARM GAS  /tmp/ccwIw6h8.s 			page 8


 398              		@ frame_needed = 0, uses_anonymous_args = 0
 399              		@ link register save eliminated.
 400              		.loc 1 2502 0
 401 0000 1E4B     		ldr	r3, .L58
 402              		.loc 1 2504 0
 403 0002 1F49     		ldr	r1, .L58+4
 404              		.loc 1 2502 0
 405 0004 1868     		ldr	r0, [r3]
 406              		.loc 1 2504 0
 407 0006 0A68     		ldr	r2, [r1]
 408 0008 1E4B     		ldr	r3, .L58+8
 409              		.loc 1 2502 0
 410 000a 0138     		subs	r0, r0, #1
 411              	.LVL8:
 412              		.loc 1 2504 0
 413 000c 821A     		subs	r2, r0, r2
 414              		.loc 1 2501 0
 415 000e 30B4     		push	{r4, r5}
 416              		.cfi_def_cfa_offset 8
 417              		.cfi_offset 4, -8
 418              		.cfi_offset 5, -4
 419              		.loc 1 2504 0
 420 0010 83FB0243 		smull	r4, r3, r3, r2
 421 0014 A3EBE273 		sub	r3, r3, r2, asr #31
 422 0018 03EB4303 		add	r3, r3, r3, lsl #1
 423 001c A2EB4303 		sub	r3, r2, r3, lsl #1
 424              	.LVL9:
 425              		.loc 1 2507 0
 426 0020 032B     		cmp	r3, #3
 427              		.loc 1 2505 0
 428 0022 0860     		str	r0, [r1]
 429              		.loc 1 2507 0
 430 0024 1DDD     		ble	.L47
 431              		.loc 1 2508 0
 432 0026 063B     		subs	r3, r3, #6
 433              	.LVL10:
 434              	.L53:
 435              		.loc 1 2514 0
 436 0028 174A     		ldr	r2, .L58+12
 437 002a 5069     		ldr	r0, [r2, #20]
 438              	.LVL11:
 439              		.loc 1 2515 0
 440 002c 4FF08041 		mov	r1, #1073741824
 441              		.loc 1 2514 0
 442 0030 1844     		add	r0, r0, r3
 443 0032 5061     		str	r0, [r2, #20]
 444              		.loc 1 2515 0
 445 0034 9469     		ldr	r4, [r2, #24]
 446 0036 4D6A     		ldr	r5, [r1, #36]
 447              		.loc 1 2516 0
 448 0038 0020     		movs	r0, #0
 449              		.loc 1 2515 0
 450 003a 2C44     		add	r4, r4, r5
 451 003c 9461     		str	r4, [r2, #24]
 452              		.loc 1 2516 0
 453 003e 4862     		str	r0, [r1, #36]
 454              	.LVL12:
ARM GAS  /tmp/ccwIw6h8.s 			page 9


 455              	.L50:
 456              		.loc 1 2520 0
 457 0040 1249     		ldr	r1, .L58+16
 458              		.loc 1 2521 0
 459 0042 134A     		ldr	r2, .L58+20
 460              		.loc 1 2520 0
 461 0044 0C68     		ldr	r4, [r1]
 462              		.loc 1 2523 0
 463 0046 1348     		ldr	r0, .L58+24
 464              		.loc 1 2520 0
 465 0048 1C44     		add	r4, r4, r3
 466 004a 0C60     		str	r4, [r1]
 467              		.loc 1 2521 0
 468 004c 1168     		ldr	r1, [r2]
 469 004e 1944     		add	r1, r1, r3
 470 0050 1160     		str	r1, [r2]
 471              		.loc 1 2523 0
 472 0052 0268     		ldr	r2, [r0]
 473 0054 62B9     		cbnz	r2, .L57
 474              		.loc 1 2526 0
 475 0056 104A     		ldr	r2, .L58+28
 476 0058 1168     		ldr	r1, [r2]
 477 005a CB1A     		subs	r3, r1, r3
 478              	.LVL13:
 479 005c 1360     		str	r3, [r2]
 480              		.loc 1 2528 0
 481 005e 30BC     		pop	{r4, r5}
 482 0060 7047     		bx	lr
 483              	.LVL14:
 484              	.L47:
 485              		.loc 1 2509 0
 486 0062 9A1C     		adds	r2, r3, #2
 487 0064 01DA     		bge	.L49
 488              		.loc 1 2510 0
 489 0066 0633     		adds	r3, r3, #6
 490              	.LVL15:
 491 0068 DEE7     		b	.L53
 492              	.L49:
 493              		.loc 1 2513 0
 494 006a 002B     		cmp	r3, #0
 495 006c E8D0     		beq	.L50
 496 006e DBE7     		b	.L53
 497              	.LVL16:
 498              	.L57:
 499              		.loc 1 2524 0
 500 0070 094A     		ldr	r2, .L58+28
 501 0072 1168     		ldr	r1, [r2]
 502 0074 0B44     		add	r3, r3, r1
 503              	.LVL17:
 504 0076 1360     		str	r3, [r2]
 505              		.loc 1 2528 0
 506 0078 30BC     		pop	{r4, r5}
 507 007a 7047     		bx	lr
 508              	.L59:
 509              		.align	2
 510              	.L58:
 511 007c 00000000 		.word	.LANCHOR3
ARM GAS  /tmp/ccwIw6h8.s 			page 10


 512 0080 00000000 		.word	.LANCHOR5
 513 0084 ABAAAA2A 		.word	715827883
 514 0088 00000000 		.word	.LANCHOR6
 515 008c 00000000 		.word	.LANCHOR7
 516 0090 00000000 		.word	.LANCHOR8
 517 0094 00000000 		.word	.LANCHOR4
 518 0098 00000000 		.word	.LANCHOR9
 519              		.cfi_endproc
 520              	.LFE313:
 521              		.size	update_rpm_tacho, .-update_rpm_tacho
 522 009c AFF30080 		.section	.text.update_sensor_mode,"ax",%progbits
 523              		.align	2
 524              		.p2align 4,,15
 525              		.thumb
 526              		.thumb_func
 527              		.type	update_sensor_mode, %function
 528              	update_sensor_mode:
 529              	.LFB314:
 530              		.loc 1 2530 0
 531              		.cfi_startproc
 532              		@ args = 0, pretend = 0, frame = 0
 533              		@ frame_needed = 0, uses_anonymous_args = 0
 534              		@ link register save eliminated.
 535              		.loc 1 2531 0
 536 0000 114B     		ldr	r3, .L71
 537 0002 1B68     		ldr	r3, [r3]
 538 0004 DA78     		ldrb	r2, [r3, #3]	@ zero_extendqisi2
 539 0006 BAB1     		cbz	r2, .L61
 540              		.loc 1 2532 0 discriminator 1
 541 0008 DA78     		ldrb	r2, [r3, #3]	@ zero_extendqisi2
 542              		.loc 1 2531 0 discriminator 1
 543 000a 022A     		cmp	r2, #2
 544 000c 03D0     		beq	.L70
 545              	.L62:
 546              		.loc 1 2536 0
 547 000e 0F4B     		ldr	r3, .L71+4
 548 0010 0022     		movs	r2, #0
 549 0012 1A70     		strb	r2, [r3]
 550 0014 7047     		bx	lr
 551              	.L70:
 552              	.LBB75:
 553              	.LBB76:
 554              		.loc 1 733 0
 555 0016 0E4A     		ldr	r2, .L71+8
 556 0018 1268     		ldr	r2, [r2]
 557 001a 8AB9     		cbnz	r2, .L63
 558 001c 0D4A     		ldr	r2, .L71+12
 559 001e 92ED007A 		flds	s14, [r2]
 560 0022 B1EE477A 		fnegs	s14, s14
 561              	.L64:
 562              	.LBE76:
 563              	.LBE75:
 564              		.loc 1 2533 0
 565 0026 D3ED287A 		flds	s15, [r3, #160]
 566 002a B0EEC77A 		fabss	s14, s14
 567              		.loc 1 2532 0
 568 002e B4EEE77A 		fcmpes	s14, s15
ARM GAS  /tmp/ccwIw6h8.s 			page 11


 569 0032 F1EE10FA 		fmstat
 570 0036 EADD     		ble	.L62
 571              	.L61:
 572              		.loc 1 2534 0
 573 0038 044B     		ldr	r3, .L71+4
 574 003a 0122     		movs	r2, #1
 575 003c 1A70     		strb	r2, [r3]
 576 003e 7047     		bx	lr
 577              	.L63:
 578              	.LBB78:
 579              	.LBB77:
 580              		.loc 1 733 0
 581 0040 044A     		ldr	r2, .L71+12
 582 0042 92ED007A 		flds	s14, [r2]
 583 0046 EEE7     		b	.L64
 584              	.L72:
 585              		.align	2
 586              	.L71:
 587 0048 00000000 		.word	.LANCHOR0
 588 004c 00000000 		.word	.LANCHOR11
 589 0050 00000000 		.word	.LANCHOR4
 590 0054 00000000 		.word	.LANCHOR10
 591              	.LBE77:
 592              	.LBE78:
 593              		.cfi_endproc
 594              	.LFE314:
 595              		.size	update_sensor_mode, .-update_sensor_mode
 596 0058 AFF30080 		.section	.text.update_timer_attempt,"ax",%progbits
 596      AFF30080 
 597              		.align	2
 598              		.p2align 4,,15
 599              		.thumb
 600              		.thumb_func
 601              		.type	update_timer_attempt, %function
 602              	update_timer_attempt:
 603              	.LFB317:
 604              		.loc 1 2593 0
 605              		.cfi_startproc
 606              		@ args = 0, pretend = 0, frame = 0
 607              		@ frame_needed = 0, uses_anonymous_args = 0
 608 0000 08B5     		push	{r3, lr}
 609              		.cfi_def_cfa_offset 8
 610              		.cfi_offset 3, -8
 611              		.cfi_offset 14, -4
 612              		.loc 1 2594 0
 613 0002 FFF7FEFF 		bl	utils_sys_lock_cnt
 614              	.LVL18:
 615              		.loc 1 2597 0
 616 0006 194A     		ldr	r2, .L75
 617 0008 1378     		ldrb	r3, [r2]	@ zero_extendqisi2
 618 000a 002B     		cmp	r3, #0
 619 000c 2AD1     		bne	.L74
 620              		.loc 1 2597 0 is_stmt 0 discriminator 1
 621 000e 184B     		ldr	r3, .L75+4
 622 0010 596A     		ldr	r1, [r3, #36]
 623 0012 0A29     		cmp	r1, #10
 624 0014 26D9     		bls	.L74
ARM GAS  /tmp/ccwIw6h8.s 			page 12


 625 0016 586A     		ldr	r0, [r3, #36]
 626 0018 D96A     		ldr	r1, [r3, #44]
 627 001a A1F5FA71 		sub	r1, r1, #500
 628 001e 8842     		cmp	r0, r1
 629 0020 20D2     		bcs	.L74
 630              		.loc 1 2599 0 is_stmt 1
 631 0022 1868     		ldr	r0, [r3]
 632              		.loc 1 2600 0
 633 0024 1349     		ldr	r1, .L75+8
 634              		.loc 1 2599 0
 635 0026 40F00200 		orr	r0, r0, #2
 636 002a 1860     		str	r0, [r3]
 637              		.loc 1 2600 0
 638 002c 0868     		ldr	r0, [r1]
 639 002e 40F00200 		orr	r0, r0, #2
 640 0032 0860     		str	r0, [r1]
 641              		.loc 1 2603 0
 642 0034 5068     		ldr	r0, [r2, #4]
 643 0036 D862     		str	r0, [r3, #44]
 644              		.loc 1 2604 0
 645 0038 9068     		ldr	r0, [r2, #8]
 646 003a 5863     		str	r0, [r3, #52]
 647              		.loc 1 2605 0
 648 003c 9068     		ldr	r0, [r2, #8]
 649 003e 9863     		str	r0, [r3, #56]
 650              		.loc 1 2606 0
 651 0040 9068     		ldr	r0, [r2, #8]
 652 0042 D863     		str	r0, [r3, #60]
 653              		.loc 1 2607 0
 654 0044 D068     		ldr	r0, [r2, #12]
 655 0046 4863     		str	r0, [r1, #52]
 656              		.loc 1 2608 0
 657 0048 1069     		ldr	r0, [r2, #16]
 658 004a 1864     		str	r0, [r3, #64]
 659              		.loc 1 2609 0
 660 004c 5069     		ldr	r0, [r2, #20]
 661 004e 8863     		str	r0, [r1, #56]
 662              		.loc 1 2615 0
 663 0050 1868     		ldr	r0, [r3]
 664 0052 20F00200 		bic	r0, r0, #2
 665 0056 1860     		str	r0, [r3]
 666              		.loc 1 2616 0
 667 0058 0868     		ldr	r0, [r1]
 668              		.loc 1 2617 0
 669 005a 0123     		movs	r3, #1
 670              		.loc 1 2616 0
 671 005c 20F00200 		bic	r0, r0, #2
 672 0060 0860     		str	r0, [r1]
 673              		.loc 1 2617 0
 674 0062 1370     		strb	r3, [r2]
 675              	.L74:
 676              		.loc 1 2621 0
 677 0064 BDE80840 		pop	{r3, lr}
 678              		.loc 1 2620 0
 679 0068 FFF7FEBF 		b	utils_sys_unlock_cnt
 680              	.LVL19:
 681              	.L76:
ARM GAS  /tmp/ccwIw6h8.s 			page 13


 682              		.align	2
 683              	.L75:
 684 006c 00000000 		.word	.LANCHOR12
 685 0070 00000140 		.word	1073807360
 686 0074 00040140 		.word	1073808384
 687              		.cfi_endproc
 688              	.LFE317:
 689              		.size	update_timer_attempt, .-update_timer_attempt
 690 0078 AFF30080 		.section	.text.set_next_timer_settings,"ax",%progbits
 690      AFF30080 
 691              		.align	2
 692              		.p2align 4,,15
 693              		.thumb
 694              		.thumb_func
 695              		.type	set_next_timer_settings, %function
 696              	set_next_timer_settings:
 697              	.LFB316:
 698              		.loc 1 2580 0
 699              		.cfi_startproc
 700              		@ args = 0, pretend = 0, frame = 0
 701              		@ frame_needed = 0, uses_anonymous_args = 0
 702              	.LVL20:
 703 0000 70B5     		push	{r4, r5, r6, lr}
 704              		.cfi_def_cfa_offset 16
 705              		.cfi_offset 4, -16
 706              		.cfi_offset 5, -12
 707              		.cfi_offset 6, -8
 708              		.cfi_offset 14, -4
 709              		.loc 1 2580 0
 710 0002 0546     		mov	r5, r0
 711              		.loc 1 2581 0
 712 0004 FFF7FEFF 		bl	utils_sys_lock_cnt
 713              	.LVL21:
 714              		.loc 1 2582 0
 715 0008 0FCD     		ldmia	r5!, {r0, r1, r2, r3}
 716              	.LVL22:
 717 000a 074E     		ldr	r6, .L78
 718 000c 3446     		mov	r4, r6
 719 000e 0FC4     		stmia	r4!, {r0, r1, r2, r3}
 720 0010 95E80300 		ldmia	r5, {r0, r1}
 721              		.loc 1 2583 0
 722 0014 0023     		movs	r3, #0
 723              		.loc 1 2582 0
 724 0016 84E80300 		stmia	r4, {r0, r1}
 725              		.loc 1 2583 0
 726 001a 3370     		strb	r3, [r6]
 727              		.loc 1 2584 0
 728 001c FFF7FEFF 		bl	utils_sys_unlock_cnt
 729              	.LVL23:
 730              		.loc 1 2587 0
 731 0020 BDE87040 		pop	{r4, r5, r6, lr}
 732              	.LVL24:
 733              		.loc 1 2586 0
 734 0024 FFF7FEBF 		b	update_timer_attempt
 735              	.LVL25:
 736              	.L79:
 737              		.align	2
ARM GAS  /tmp/ccwIw6h8.s 			page 14


 738              	.L78:
 739 0028 00000000 		.word	.LANCHOR12
 740              		.cfi_endproc
 741              	.LFE316:
 742              		.size	set_next_timer_settings, .-set_next_timer_settings
 743 002c AFF30080 		.section	.text.set_switching_frequency,"ax",%progbits
 744              		.align	2
 745              		.p2align 4,,15
 746              		.thumb
 747              		.thumb_func
 748              		.type	set_switching_frequency, %function
 749              	set_switching_frequency:
 750              	.LFB318:
 751              		.loc 1 2623 0
 752              		.cfi_startproc
 753              		@ args = 0, pretend = 0, frame = 24
 754              		@ frame_needed = 0, uses_anonymous_args = 0
 755              	.LVL26:
 756 0000 70B5     		push	{r4, r5, r6, lr}
 757              		.cfi_def_cfa_offset 16
 758              		.cfi_offset 4, -16
 759              		.cfi_offset 5, -12
 760              		.cfi_offset 6, -8
 761              		.cfi_offset 14, -4
 762              		.loc 1 2624 0
 763 0002 114E     		ldr	r6, .L81
 764              		.loc 1 2628 0
 765 0004 114D     		ldr	r5, .L81+4
 766              		.loc 1 2624 0
 767 0006 86ED000A 		fsts	s0, [r6]
 768              		.loc 1 2623 0
 769 000a 86B0     		sub	sp, sp, #24
 770              		.cfi_def_cfa_offset 40
 771              		.loc 1 2627 0
 772 000c FFF7FEFF 		bl	utils_sys_lock_cnt
 773              	.LVL27:
 774              		.loc 1 2628 0
 775 0010 0FCD     		ldmia	r5!, {r0, r1, r2, r3}
 776 0012 6C46     		mov	r4, sp
 777 0014 0FC4     		stmia	r4!, {r0, r1, r2, r3}
 778 0016 95E80300 		ldmia	r5, {r0, r1}
 779 001a 84E80300 		stmia	r4, {r0, r1}
 780              		.loc 1 2629 0
 781 001e FFF7FEFF 		bl	utils_sys_unlock_cnt
 782              	.LVL28:
 783              		.loc 1 2631 0
 784 0022 D6ED007A 		flds	s15, [r6]
 785 0026 0A4A     		ldr	r2, .L81+8
 786 0028 FDEEE77A 		ftosizs	s15, s15
 787              		.loc 1 2632 0
 788 002c 6846     		mov	r0, sp
 789              		.loc 1 2631 0
 790 002e 17EE903A 		fmrs	r3, s15	@ int
 791 0032 92FBF3F3 		sdiv	r3, r2, r3
 792 0036 0193     		str	r3, [sp, #4]
 793              		.loc 1 2632 0
 794 0038 FFF7FEFF 		bl	update_adc_sample_pos
ARM GAS  /tmp/ccwIw6h8.s 			page 15


 795              	.LVL29:
 796              		.loc 1 2633 0
 797 003c 6846     		mov	r0, sp
 798 003e FFF7FEFF 		bl	set_next_timer_settings
 799              	.LVL30:
 800              		.loc 1 2634 0
 801 0042 06B0     		add	sp, sp, #24
 802              		@ sp needed
 803 0044 70BD     		pop	{r4, r5, r6, pc}
 804              	.L82:
 805 0046 00BF     		.align	2
 806              	.L81:
 807 0048 00000000 		.word	.LANCHOR13
 808 004c 00000000 		.word	.LANCHOR12
 809 0050 007A030A 		.word	168000000
 810              		.cfi_endproc
 811              	.LFE318:
 812              		.size	set_switching_frequency, .-set_switching_frequency
 813 0054 AFF30080 		.section	.text.set_duty_cycle_hw,"ax",%progbits
 813      AFF30080 
 813      AFF30080 
 814              		.align	2
 815              		.p2align 4,,15
 816              		.thumb
 817              		.thumb_func
 818              		.type	set_duty_cycle_hw, %function
 819              	set_duty_cycle_hw:
 820              	.LFB291:
 821              		.loc 1 1087 0
 822              		.cfi_startproc
 823              		@ args = 0, pretend = 0, frame = 32
 824              		@ frame_needed = 0, uses_anonymous_args = 0
 825              	.LVL31:
 826 0000 70B5     		push	{r4, r5, r6, lr}
 827              		.cfi_def_cfa_offset 16
 828              		.cfi_offset 4, -16
 829              		.cfi_offset 5, -12
 830              		.cfi_offset 6, -8
 831              		.cfi_offset 14, -4
 832              		.loc 1 1091 0
 833 0002 414D     		ldr	r5, .L98
 834              		.loc 1 1094 0
 835 0004 414E     		ldr	r6, .L98+4
 836              		.loc 1 1087 0
 837 0006 88B0     		sub	sp, sp, #32
 838              		.cfi_def_cfa_offset 48
 839              		.loc 1 1087 0
 840 0008 8DED010A 		fsts	s0, [sp, #4]
 841              		.loc 1 1090 0
 842 000c FFF7FEFF 		bl	utils_sys_lock_cnt
 843              	.LVL32:
 844              		.loc 1 1091 0
 845 0010 0FCD     		ldmia	r5!, {r0, r1, r2, r3}
 846 0012 02AC     		add	r4, sp, #8
 847 0014 0FC4     		stmia	r4!, {r0, r1, r2, r3}
 848 0016 95E80300 		ldmia	r5, {r0, r1}
 849 001a 84E80300 		stmia	r4, {r0, r1}
ARM GAS  /tmp/ccwIw6h8.s 			page 16


 850              		.loc 1 1092 0
 851 001e FFF7FEFF 		bl	utils_sys_unlock_cnt
 852              	.LVL33:
 853              		.loc 1 1094 0
 854 0022 3368     		ldr	r3, [r6]
 855 0024 01A8     		add	r0, sp, #4
 856              	.LVL34:
 857 0026 93ED150A 		flds	s0, [r3, #84]
 858 002a D3ED160A 		flds	s1, [r3, #88]
 859 002e FFF7FEFF 		bl	utils_truncate_number
 860              	.LVL35:
 861              		.loc 1 1096 0
 862 0032 3368     		ldr	r3, [r6]
 863 0034 9A78     		ldrb	r2, [r3, #2]	@ zero_extendqisi2
 864 0036 012A     		cmp	r2, #1
 865 0038 43D0     		beq	.L96
 866              		.loc 1 1099 0
 867 003a 354A     		ldr	r2, .L98+8
 868 003c 1278     		ldrb	r2, [r2]	@ zero_extendqisi2
 869 003e 012A     		cmp	r2, #1
 870 0040 38D0     		beq	.L86
 871              		.loc 1 1099 0 is_stmt 0 discriminator 1
 872 0042 1A78     		ldrb	r2, [r3]	@ zero_extendqisi2
 873 0044 022A     		cmp	r2, #2
 874 0046 35D0     		beq	.L86
 875              		.loc 1 1102 0 is_stmt 1
 876 0048 9DED017A 		flds	s14, [sp, #4]
 877 004c 93ED596A 		flds	s12, [r3, #356]
 878              		.loc 1 1103 0
 879 0050 D3ED5A7A 		flds	s15, [r3, #360]
 880              		.loc 1 1102 0
 881 0054 2F4A     		ldr	r2, .L98+12
 882 0056 F0EEC76A 		fabss	s13, s14
 883 005a F7EE005A 		fconsts	s11, #112
 884              		.loc 1 1103 0
 885 005e 66EEA77A 		fmuls	s15, s13, s15
 886              		.loc 1 1102 0
 887 0062 75EEE66A 		fsubs	s13, s11, s13
 888 0066 E6EE267A 		vfma.f32	s15, s12, s13
 889 006a C2ED007A 		fsts	s15, [r2]
 890              	.L85:
 891              		.loc 1 1107 0
 892 006e D2ED007A 		flds	s15, [r2]
 893 0072 2949     		ldr	r1, .L98+16
 894 0074 FDEEE77A 		ftosizs	s15, s15
 895 0078 17EE902A 		fmrs	r2, s15	@ int
 896 007c 91FBF2F2 		sdiv	r2, r1, r2
 897 0080 0392     		str	r2, [sp, #12]
 898              		.loc 1 1109 0
 899 0082 9A78     		ldrb	r2, [r3, #2]	@ zero_extendqisi2
 900 0084 12B9     		cbnz	r2, .L88
 901              		.loc 1 1109 0 is_stmt 0 discriminator 1
 902 0086 1B78     		ldrb	r3, [r3]	@ zero_extendqisi2
 903 0088 022B     		cmp	r3, #2
 904 008a 21D0     		beq	.L97
 905              	.L88:
 906              		.loc 1 1113 0 is_stmt 1
ARM GAS  /tmp/ccwIw6h8.s 			page 17


 907 008c DDED037A 		flds	s15, [sp, #12]	@ int
 908 0090 F8EE677A 		fuitos	s15, s15
 909 0094 27EE877A 		fmuls	s14, s15, s14
 910 0098 BCEEC77A 		ftouizs	s14, s14
 911 009c 17EE103A 		fmrs	r3, s14	@ int
 912 00a0 9BB2     		uxth	r3, r3
 913 00a2 0493     		str	r3, [sp, #16]
 914              	.L89:
 915              		.loc 1 1116 0
 916 00a4 02A8     		add	r0, sp, #8
 917 00a6 FFF7FEFF 		bl	update_adc_sample_pos
 918              	.LVL36:
 919              		.loc 1 1117 0
 920 00aa 02A8     		add	r0, sp, #8
 921 00ac FFF7FEFF 		bl	set_next_timer_settings
 922              	.LVL37:
 923              		.loc 1 1118 0
 924 00b0 08B0     		add	sp, sp, #32
 925              		@ sp needed
 926 00b2 70BD     		pop	{r4, r5, r6, pc}
 927              	.LVL38:
 928              	.L86:
 929              		.loc 1 1100 0
 930 00b4 174A     		ldr	r2, .L98+12
 931 00b6 D3F86811 		ldr	r1, [r3, #360]	@ float
 932 00ba 9DED017A 		flds	s14, [sp, #4]
 933 00be 1160     		str	r1, [r2]	@ float
 934 00c0 D5E7     		b	.L85
 935              	.L96:
 936              		.loc 1 1097 0
 937 00c2 144A     		ldr	r2, .L98+12
 938 00c4 D3F86C11 		ldr	r1, [r3, #364]	@ float
 939 00c8 9DED017A 		flds	s14, [sp, #4]
 940 00cc 1160     		str	r1, [r2]	@ float
 941 00ce CEE7     		b	.L85
 942              	.L97:
 943              		.loc 1 1109 0 discriminator 1
 944 00d0 0F4B     		ldr	r3, .L98+8
 945 00d2 1B78     		ldrb	r3, [r3]	@ zero_extendqisi2
 946 00d4 012B     		cmp	r3, #1
 947 00d6 D9D0     		beq	.L88
 948              		.loc 1 1110 0
 949 00d8 9DED036A 		flds	s12, [sp, #12]	@ int
 950              		.loc 1 1111 0
 951 00dc DDED037A 		flds	s15, [sp, #12]	@ int
 952              		.loc 1 1110 0
 953 00e0 B8EE466A 		fuitos	s12, s12
 954              		.loc 1 1111 0
 955 00e4 F8EE677A 		fuitos	s15, s15
 956              		.loc 1 1110 0
 957 00e8 F6EE006A 		fconsts	s13, #96
 958 00ec 26EE266A 		fmuls	s12, s12, s13
 959              		.loc 1 1111 0
 960 00f0 67EEA67A 		fmuls	s15, s15, s13
 961 00f4 E6EE077A 		vfma.f32	s15, s12, s14
 962              		.loc 1 1110 0
 963 00f8 FCEEE77A 		ftouizs	s15, s15
ARM GAS  /tmp/ccwIw6h8.s 			page 18


 964 00fc 17EE903A 		fmrs	r3, s15	@ int
 965 0100 9BB2     		uxth	r3, r3
 966 0102 0493     		str	r3, [sp, #16]
 967 0104 CEE7     		b	.L89
 968              	.L99:
 969 0106 00BF     		.align	2
 970              	.L98:
 971 0108 00000000 		.word	.LANCHOR12
 972 010c 00000000 		.word	.LANCHOR0
 973 0110 00000000 		.word	.LANCHOR2
 974 0114 00000000 		.word	.LANCHOR13
 975 0118 007A030A 		.word	168000000
 976              		.cfi_endproc
 977              	.LFE291:
 978              		.size	set_duty_cycle_hw, .-set_duty_cycle_hw
 979 011c AFF30080 		.section	.text.set_next_comm_step,"ax",%progbits
 980              		.align	2
 981              		.p2align 4,,15
 982              		.thumb
 983              		.thumb_func
 984              		.type	set_next_comm_step, %function
 985              	set_next_comm_step:
 986              	.LFB319:
 987              		.loc 1 2636 0
 988              		.cfi_startproc
 989              		@ args = 0, pretend = 0, frame = 0
 990              		@ frame_needed = 0, uses_anonymous_args = 0
 991              	.LVL39:
 992 0000 F8B5     		push	{r3, r4, r5, r6, r7, lr}
 993              		.cfi_def_cfa_offset 24
 994              		.cfi_offset 3, -24
 995              		.cfi_offset 4, -20
 996              		.cfi_offset 5, -16
 997              		.cfi_offset 6, -12
 998              		.cfi_offset 7, -8
 999              		.cfi_offset 14, -4
 1000              		.loc 1 2637 0
 1001 0002 B34B     		ldr	r3, .L134
 1002 0004 1B68     		ldr	r3, [r3]
 1003 0006 9D78     		ldrb	r5, [r3, #2]	@ zero_extendqisi2
 1004 0008 EDB2     		uxtb	r5, r5
 1005 000a 012D     		cmp	r5, #1
 1006              		.loc 1 2636 0
 1007 000c 0446     		mov	r4, r0
 1008              		.loc 1 2637 0
 1009 000e 00F00981 		beq	.L128
 1010              	.LVL40:
 1011              		.loc 1 2677 0
 1012 0012 B04A     		ldr	r2, .L134+4
 1013 0014 1278     		ldrb	r2, [r2]	@ zero_extendqisi2
 1014 0016 012A     		cmp	r2, #1
 1015 0018 00F08580 		beq	.L118
 1016              		.loc 1 2678 0
 1017 001c 1B78     		ldrb	r3, [r3]	@ zero_extendqisi2
 1018 001e 03F0FF06 		and	r6, r3, #255
 1019 0022 002B     		cmp	r3, #0
 1020 0024 49D0     		beq	.L119
ARM GAS  /tmp/ccwIw6h8.s 			page 19


 1021              		.loc 1 2672 0
 1022 0026 022E     		cmp	r6, #2
 1023 0028 0CBF     		ite	eq
 1024 002a 7025     		moveq	r5, #112
 1025 002c 2025     		movne	r5, #32
 1026 002e 0426     		movs	r6, #4
 1027              	.L103:
 1028              	.LVL41:
 1029              		.loc 1 2692 0
 1030 0030 012C     		cmp	r4, #1
 1031 0032 46D0     		beq	.L129
 1032              	.LVL42:
 1033              	.L106:
 1034              		.loc 1 2734 0
 1035 0034 022C     		cmp	r4, #2
 1036 0036 00F0C980 		beq	.L130
 1037              		.loc 1 2776 0
 1038 003a 032C     		cmp	r4, #3
 1039 003c 00F01C81 		beq	.L131
 1040              		.loc 1 2818 0
 1041 0040 042C     		cmp	r4, #4
 1042 0042 00F04D81 		beq	.L132
 1043              		.loc 1 2860 0
 1044 0046 052C     		cmp	r4, #5
 1045 0048 00F09E80 		beq	.L133
 1046              		.loc 1 2902 0
 1047 004c 062C     		cmp	r4, #6
 1048 004e 40F09781 		bne	.L116
 1049              		.loc 1 2903 0
 1050 0052 A14B     		ldr	r3, .L134+8
 1051              		.loc 1 2910 0
 1052 0054 A148     		ldr	r0, .L134+12
 1053              	.LVL43:
 1054              		.loc 1 2903 0
 1055 0056 1C68     		ldr	r4, [r3]
 1056              	.LVL44:
 1057 0058 002C     		cmp	r4, #0
 1058 005a 00F02982 		beq	.L117
 1059              		.loc 1 2910 0
 1060 005e 0821     		movs	r1, #8
 1061 0060 2022     		movs	r2, #32
 1062 0062 FFF7FEFF 		bl	TIM_SelectOCxM
 1063              	.LVL45:
 1064              		.loc 1 2911 0
 1065 0066 9D48     		ldr	r0, .L134+12
 1066 0068 0821     		movs	r1, #8
 1067 006a 0122     		movs	r2, #1
 1068 006c FFF7FEFF 		bl	TIM_CCxCmd
 1069              	.LVL46:
 1070              		.loc 1 2912 0
 1071 0070 9A48     		ldr	r0, .L134+12
 1072 0072 0821     		movs	r1, #8
 1073 0074 0022     		movs	r2, #0
 1074 0076 FFF7FEFF 		bl	TIM_CCxNCmd
 1075              	.LVL47:
 1076              		.loc 1 2915 0
 1077 007a 9848     		ldr	r0, .L134+12
ARM GAS  /tmp/ccwIw6h8.s 			page 20


 1078 007c 0421     		movs	r1, #4
 1079 007e 6022     		movs	r2, #96
 1080 0080 FFF7FEFF 		bl	TIM_SelectOCxM
 1081              	.LVL48:
 1082              		.loc 1 2916 0
 1083 0084 9548     		ldr	r0, .L134+12
 1084 0086 0421     		movs	r1, #4
 1085 0088 0122     		movs	r2, #1
 1086 008a FFF7FEFF 		bl	TIM_CCxCmd
 1087              	.LVL49:
 1088              		.loc 1 2917 0
 1089 008e 9348     		ldr	r0, .L134+12
 1090 0090 3246     		mov	r2, r6
 1091 0092 0421     		movs	r1, #4
 1092              	.L124:
 1093 0094 FFF7FEFF 		bl	TIM_CCxNCmd
 1094              	.LVL50:
 1095              		.loc 1 2920 0
 1096 0098 2A46     		mov	r2, r5
 1097 009a 9048     		ldr	r0, .L134+12
 1098 009c 0021     		movs	r1, #0
 1099 009e FFF7FEFF 		bl	TIM_SelectOCxM
 1100              	.LVL51:
 1101              		.loc 1 2921 0
 1102 00a2 8E48     		ldr	r0, .L134+12
 1103 00a4 0021     		movs	r1, #0
 1104 00a6 0122     		movs	r2, #1
 1105 00a8 FFF7FEFF 		bl	TIM_CCxCmd
 1106              	.LVL52:
 1107              		.loc 1 2922 0
 1108 00ac 8B48     		ldr	r0, .L134+12
 1109 00ae 0021     		movs	r1, #0
 1110 00b0 0422     		movs	r2, #4
 1111              		.loc 1 2963 0
 1112 00b2 BDE8F840 		pop	{r3, r4, r5, r6, r7, lr}
 1113              		.loc 1 2922 0
 1114 00b6 FFF7FEBF 		b	TIM_CCxNCmd
 1115              	.LVL53:
 1116              	.L119:
 1117              		.loc 1 2692 0
 1118 00ba 012C     		cmp	r4, #1
 1119              		.loc 1 2669 0
 1120 00bc 4FF02005 		mov	r5, #32
 1121              	.LVL54:
 1122              		.loc 1 2692 0
 1123 00c0 B8D1     		bne	.L106
 1124              	.LVL55:
 1125              	.L129:
 1126              		.loc 1 2693 0
 1127 00c2 854B     		ldr	r3, .L134+8
 1128              		.loc 1 2700 0
 1129 00c4 8548     		ldr	r0, .L134+12
 1130              	.LVL56:
 1131              		.loc 1 2693 0
 1132 00c6 1F68     		ldr	r7, [r3]
 1133 00c8 87B3     		cbz	r7, .L107
 1134              		.loc 1 2700 0
ARM GAS  /tmp/ccwIw6h8.s 			page 21


 1135 00ca 0021     		movs	r1, #0
 1136 00cc 2022     		movs	r2, #32
 1137 00ce FFF7FEFF 		bl	TIM_SelectOCxM
 1138              	.LVL57:
 1139              		.loc 1 2701 0
 1140 00d2 8248     		ldr	r0, .L134+12
 1141 00d4 0021     		movs	r1, #0
 1142 00d6 2246     		mov	r2, r4
 1143 00d8 FFF7FEFF 		bl	TIM_CCxCmd
 1144              	.LVL58:
 1145              		.loc 1 2702 0
 1146 00dc 0021     		movs	r1, #0
 1147 00de 0A46     		mov	r2, r1
 1148 00e0 7E48     		ldr	r0, .L134+12
 1149 00e2 FFF7FEFF 		bl	TIM_CCxNCmd
 1150              	.LVL59:
 1151              		.loc 1 2705 0
 1152 00e6 7D48     		ldr	r0, .L134+12
 1153 00e8 0421     		movs	r1, #4
 1154 00ea 6022     		movs	r2, #96
 1155 00ec FFF7FEFF 		bl	TIM_SelectOCxM
 1156              	.LVL60:
 1157              		.loc 1 2706 0
 1158 00f0 7A48     		ldr	r0, .L134+12
 1159 00f2 0421     		movs	r1, #4
 1160 00f4 2246     		mov	r2, r4
 1161 00f6 FFF7FEFF 		bl	TIM_CCxCmd
 1162              	.LVL61:
 1163              		.loc 1 2707 0
 1164 00fa 3246     		mov	r2, r6
 1165 00fc 7748     		ldr	r0, .L134+12
 1166 00fe 0421     		movs	r1, #4
 1167 0100 FFF7FEFF 		bl	TIM_CCxNCmd
 1168              	.LVL62:
 1169              		.loc 1 2710 0
 1170 0104 2A46     		mov	r2, r5
 1171 0106 7548     		ldr	r0, .L134+12
 1172 0108 0821     		movs	r1, #8
 1173 010a FFF7FEFF 		bl	TIM_SelectOCxM
 1174              	.LVL63:
 1175              		.loc 1 2711 0
 1176 010e 2246     		mov	r2, r4
 1177              	.LVL64:
 1178              	.L120:
 1179 0110 7248     		ldr	r0, .L134+12
 1180 0112 0821     		movs	r1, #8
 1181              	.L125:
 1182 0114 FFF7FEFF 		bl	TIM_CCxCmd
 1183              	.LVL65:
 1184              		.loc 1 2712 0
 1185 0118 7048     		ldr	r0, .L134+12
 1186 011a 0821     		movs	r1, #8
 1187 011c 0422     		movs	r2, #4
 1188              		.loc 1 2963 0
 1189 011e BDE8F840 		pop	{r3, r4, r5, r6, r7, lr}
 1190              		.loc 1 2712 0
 1191 0122 FFF7FEBF 		b	TIM_CCxNCmd
ARM GAS  /tmp/ccwIw6h8.s 			page 22


 1192              	.LVL66:
 1193              	.L118:
 1194              		.loc 1 2672 0
 1195 0126 0426     		movs	r6, #4
 1196              		.loc 1 2669 0
 1197 0128 2025     		movs	r5, #32
 1198 012a 81E7     		b	.L103
 1199              	.LVL67:
 1200              	.L107:
 1201              		.loc 1 2720 0
 1202 012c 3946     		mov	r1, r7
 1203 012e 2022     		movs	r2, #32
 1204 0130 FFF7FEFF 		bl	TIM_SelectOCxM
 1205              	.LVL68:
 1206              		.loc 1 2721 0
 1207 0134 6948     		ldr	r0, .L134+12
 1208 0136 3946     		mov	r1, r7
 1209 0138 2246     		mov	r2, r4
 1210 013a FFF7FEFF 		bl	TIM_CCxCmd
 1211              	.LVL69:
 1212              		.loc 1 2722 0
 1213 013e 3946     		mov	r1, r7
 1214 0140 3A46     		mov	r2, r7
 1215 0142 6648     		ldr	r0, .L134+12
 1216 0144 FFF7FEFF 		bl	TIM_CCxNCmd
 1217              	.LVL70:
 1218              		.loc 1 2725 0
 1219 0148 6448     		ldr	r0, .L134+12
 1220 014a 0821     		movs	r1, #8
 1221 014c 6022     		movs	r2, #96
 1222 014e FFF7FEFF 		bl	TIM_SelectOCxM
 1223              	.LVL71:
 1224              		.loc 1 2726 0
 1225 0152 6248     		ldr	r0, .L134+12
 1226 0154 0821     		movs	r1, #8
 1227 0156 2246     		mov	r2, r4
 1228 0158 FFF7FEFF 		bl	TIM_CCxCmd
 1229              	.LVL72:
 1230              		.loc 1 2727 0
 1231 015c 3246     		mov	r2, r6
 1232 015e 5F48     		ldr	r0, .L134+12
 1233 0160 0821     		movs	r1, #8
 1234 0162 FFF7FEFF 		bl	TIM_CCxNCmd
 1235              	.LVL73:
 1236              		.loc 1 2730 0
 1237 0166 2A46     		mov	r2, r5
 1238 0168 5C48     		ldr	r0, .L134+12
 1239 016a 0421     		movs	r1, #4
 1240 016c FFF7FEFF 		bl	TIM_SelectOCxM
 1241              	.LVL74:
 1242              		.loc 1 2731 0
 1243 0170 5A48     		ldr	r0, .L134+12
 1244 0172 2246     		mov	r2, r4
 1245 0174 0421     		movs	r1, #4
 1246              	.LVL75:
 1247              	.L122:
 1248              		.loc 1 2773 0
ARM GAS  /tmp/ccwIw6h8.s 			page 23


 1249 0176 FFF7FEFF 		bl	TIM_CCxCmd
 1250              	.LVL76:
 1251              		.loc 1 2774 0
 1252 017a 0421     		movs	r1, #4
 1253 017c 0A46     		mov	r2, r1
 1254 017e 5748     		ldr	r0, .L134+12
 1255              		.loc 1 2963 0
 1256 0180 BDE8F840 		pop	{r3, r4, r5, r6, r7, lr}
 1257              		.loc 1 2774 0
 1258 0184 FFF7FEBF 		b	TIM_CCxNCmd
 1259              	.LVL77:
 1260              	.L133:
 1261              		.loc 1 2861 0
 1262 0188 534B     		ldr	r3, .L134+8
 1263              		.loc 1 2868 0
 1264 018a 5448     		ldr	r0, .L134+12
 1265              	.LVL78:
 1266              		.loc 1 2861 0
 1267 018c 1C68     		ldr	r4, [r3]
 1268              	.LVL79:
 1269 018e 002C     		cmp	r4, #0
 1270 0190 00F0B481 		beq	.L115
 1271              		.loc 1 2868 0
 1272 0194 0421     		movs	r1, #4
 1273 0196 2022     		movs	r2, #32
 1274 0198 FFF7FEFF 		bl	TIM_SelectOCxM
 1275              	.LVL80:
 1276              		.loc 1 2869 0
 1277 019c 4F48     		ldr	r0, .L134+12
 1278 019e 0421     		movs	r1, #4
 1279 01a0 0122     		movs	r2, #1
 1280 01a2 FFF7FEFF 		bl	TIM_CCxCmd
 1281              	.LVL81:
 1282              		.loc 1 2870 0
 1283 01a6 4D48     		ldr	r0, .L134+12
 1284 01a8 0421     		movs	r1, #4
 1285 01aa 0022     		movs	r2, #0
 1286 01ac FFF7FEFF 		bl	TIM_CCxNCmd
 1287              	.LVL82:
 1288              		.loc 1 2873 0
 1289 01b0 4A48     		ldr	r0, .L134+12
 1290 01b2 0821     		movs	r1, #8
 1291 01b4 6022     		movs	r2, #96
 1292 01b6 FFF7FEFF 		bl	TIM_SelectOCxM
 1293              	.LVL83:
 1294              		.loc 1 2874 0
 1295 01ba 4848     		ldr	r0, .L134+12
 1296 01bc 0821     		movs	r1, #8
 1297 01be 0122     		movs	r2, #1
 1298 01c0 FFF7FEFF 		bl	TIM_CCxCmd
 1299              	.LVL84:
 1300              		.loc 1 2875 0
 1301 01c4 3246     		mov	r2, r6
 1302 01c6 4548     		ldr	r0, .L134+12
 1303 01c8 0821     		movs	r1, #8
 1304 01ca 63E7     		b	.L124
 1305              	.LVL85:
ARM GAS  /tmp/ccwIw6h8.s 			page 24


 1306              	.L130:
 1307              		.loc 1 2735 0
 1308 01cc 424B     		ldr	r3, .L134+8
 1309              		.loc 1 2742 0
 1310 01ce 4348     		ldr	r0, .L134+12
 1311              	.LVL86:
 1312              		.loc 1 2735 0
 1313 01d0 1C68     		ldr	r4, [r3]
 1314              	.LVL87:
 1315 01d2 002C     		cmp	r4, #0
 1316 01d4 00F0B880 		beq	.L109
 1317              		.loc 1 2742 0
 1318 01d8 0421     		movs	r1, #4
 1319 01da 2022     		movs	r2, #32
 1320 01dc FFF7FEFF 		bl	TIM_SelectOCxM
 1321              	.LVL88:
 1322              		.loc 1 2743 0
 1323 01e0 3E48     		ldr	r0, .L134+12
 1324 01e2 0421     		movs	r1, #4
 1325 01e4 0122     		movs	r2, #1
 1326 01e6 FFF7FEFF 		bl	TIM_CCxCmd
 1327              	.LVL89:
 1328              		.loc 1 2744 0
 1329 01ea 3C48     		ldr	r0, .L134+12
 1330 01ec 0421     		movs	r1, #4
 1331 01ee 0022     		movs	r2, #0
 1332 01f0 FFF7FEFF 		bl	TIM_CCxNCmd
 1333              	.LVL90:
 1334              		.loc 1 2747 0
 1335 01f4 3948     		ldr	r0, .L134+12
 1336 01f6 0021     		movs	r1, #0
 1337 01f8 6022     		movs	r2, #96
 1338 01fa FFF7FEFF 		bl	TIM_SelectOCxM
 1339              	.LVL91:
 1340              		.loc 1 2748 0
 1341 01fe 3748     		ldr	r0, .L134+12
 1342 0200 0021     		movs	r1, #0
 1343 0202 0122     		movs	r2, #1
 1344 0204 FFF7FEFF 		bl	TIM_CCxCmd
 1345              	.LVL92:
 1346              		.loc 1 2749 0
 1347 0208 3448     		ldr	r0, .L134+12
 1348 020a 3246     		mov	r2, r6
 1349 020c 0021     		movs	r1, #0
 1350              	.L127:
 1351              		.loc 1 2811 0
 1352 020e FFF7FEFF 		bl	TIM_CCxNCmd
 1353              	.LVL93:
 1354              		.loc 1 2814 0
 1355 0212 2A46     		mov	r2, r5
 1356 0214 3148     		ldr	r0, .L134+12
 1357 0216 0821     		movs	r1, #8
 1358 0218 FFF7FEFF 		bl	TIM_SelectOCxM
 1359              	.LVL94:
 1360              		.loc 1 2815 0
 1361 021c 2F48     		ldr	r0, .L134+12
 1362 021e 0821     		movs	r1, #8
ARM GAS  /tmp/ccwIw6h8.s 			page 25


 1363 0220 0122     		movs	r2, #1
 1364 0222 77E7     		b	.L125
 1365              	.LVL95:
 1366              	.L128:
 1367              		.loc 1 2639 0
 1368 0224 2D48     		ldr	r0, .L134+12
 1369              	.LVL96:
 1370 0226 0421     		movs	r1, #4
 1371 0228 2022     		movs	r2, #32
 1372 022a FFF7FEFF 		bl	TIM_SelectOCxM
 1373              	.LVL97:
 1374              		.loc 1 2640 0
 1375 022e 2B48     		ldr	r0, .L134+12
 1376 0230 0421     		movs	r1, #4
 1377 0232 2A46     		mov	r2, r5
 1378 0234 FFF7FEFF 		bl	TIM_CCxCmd
 1379              	.LVL98:
 1380              		.loc 1 2641 0
 1381 0238 2848     		ldr	r0, .L134+12
 1382 023a 0421     		movs	r1, #4
 1383 023c 0022     		movs	r2, #0
 1384 023e FFF7FEFF 		bl	TIM_CCxNCmd
 1385              	.LVL99:
 1386              		.loc 1 2643 0
 1387 0242 254B     		ldr	r3, .L134+8
 1388              		.loc 1 2645 0
 1389 0244 2548     		ldr	r0, .L134+12
 1390              		.loc 1 2643 0
 1391 0246 1C68     		ldr	r4, [r3]
 1392              	.LVL100:
 1393 0248 002C     		cmp	r4, #0
 1394 024a 00F0C880 		beq	.L102
 1395              		.loc 1 2645 0
 1396 024e 0021     		movs	r1, #0
 1397 0250 6022     		movs	r2, #96
 1398 0252 FFF7FEFF 		bl	TIM_SelectOCxM
 1399              	.LVL101:
 1400              		.loc 1 2646 0
 1401 0256 2148     		ldr	r0, .L134+12
 1402 0258 0021     		movs	r1, #0
 1403 025a 2A46     		mov	r2, r5
 1404 025c FFF7FEFF 		bl	TIM_CCxCmd
 1405              	.LVL102:
 1406              		.loc 1 2647 0
 1407 0260 1E48     		ldr	r0, .L134+12
 1408 0262 0021     		movs	r1, #0
 1409 0264 0422     		movs	r2, #4
 1410 0266 FFF7FEFF 		bl	TIM_CCxNCmd
 1411              	.LVL103:
 1412              		.loc 1 2650 0
 1413 026a 2022     		movs	r2, #32
 1414 026c 1B48     		ldr	r0, .L134+12
 1415 026e 0821     		movs	r1, #8
 1416 0270 FFF7FEFF 		bl	TIM_SelectOCxM
 1417              	.LVL104:
 1418              		.loc 1 2651 0
 1419 0274 2A46     		mov	r2, r5
ARM GAS  /tmp/ccwIw6h8.s 			page 26


 1420 0276 4BE7     		b	.L120
 1421              	.LVL105:
 1422              	.L131:
 1423              		.loc 1 2777 0
 1424 0278 174B     		ldr	r3, .L134+8
 1425              		.loc 1 2784 0
 1426 027a 1848     		ldr	r0, .L134+12
 1427              	.LVL106:
 1428              		.loc 1 2777 0
 1429 027c 1C68     		ldr	r4, [r3]
 1430              	.LVL107:
 1431 027e 002C     		cmp	r4, #0
 1432 0280 00F0CC80 		beq	.L111
 1433              		.loc 1 2784 0
 1434 0284 0821     		movs	r1, #8
 1435 0286 2022     		movs	r2, #32
 1436 0288 FFF7FEFF 		bl	TIM_SelectOCxM
 1437              	.LVL108:
 1438              		.loc 1 2785 0
 1439 028c 1348     		ldr	r0, .L134+12
 1440 028e 0821     		movs	r1, #8
 1441 0290 0122     		movs	r2, #1
 1442 0292 FFF7FEFF 		bl	TIM_CCxCmd
 1443              	.LVL109:
 1444              		.loc 1 2786 0
 1445 0296 1148     		ldr	r0, .L134+12
 1446 0298 0821     		movs	r1, #8
 1447 029a 0022     		movs	r2, #0
 1448 029c FFF7FEFF 		bl	TIM_CCxNCmd
 1449              	.LVL110:
 1450              		.loc 1 2789 0
 1451 02a0 0E48     		ldr	r0, .L134+12
 1452 02a2 0021     		movs	r1, #0
 1453 02a4 6022     		movs	r2, #96
 1454 02a6 FFF7FEFF 		bl	TIM_SelectOCxM
 1455              	.LVL111:
 1456              		.loc 1 2790 0
 1457 02aa 0C48     		ldr	r0, .L134+12
 1458 02ac 0021     		movs	r1, #0
 1459 02ae 0122     		movs	r2, #1
 1460 02b0 FFF7FEFF 		bl	TIM_CCxCmd
 1461              	.LVL112:
 1462              		.loc 1 2791 0
 1463 02b4 0948     		ldr	r0, .L134+12
 1464 02b6 3246     		mov	r2, r6
 1465 02b8 0021     		movs	r1, #0
 1466              	.L126:
 1467              		.loc 1 2769 0
 1468 02ba FFF7FEFF 		bl	TIM_CCxNCmd
 1469              	.LVL113:
 1470              		.loc 1 2772 0
 1471 02be 2A46     		mov	r2, r5
 1472 02c0 0648     		ldr	r0, .L134+12
 1473 02c2 0421     		movs	r1, #4
 1474 02c4 FFF7FEFF 		bl	TIM_SelectOCxM
 1475              	.LVL114:
 1476              		.loc 1 2773 0
ARM GAS  /tmp/ccwIw6h8.s 			page 27


 1477 02c8 0448     		ldr	r0, .L134+12
 1478 02ca 0421     		movs	r1, #4
 1479 02cc 0122     		movs	r2, #1
 1480 02ce 52E7     		b	.L122
 1481              	.L135:
 1482              		.align	2
 1483              	.L134:
 1484 02d0 00000000 		.word	.LANCHOR0
 1485 02d4 00000000 		.word	.LANCHOR2
 1486 02d8 00000000 		.word	.LANCHOR4
 1487 02dc 00000140 		.word	1073807360
 1488              	.LVL115:
 1489              	.L132:
 1490              		.loc 1 2819 0
 1491 02e0 944B     		ldr	r3, .L136
 1492              		.loc 1 2826 0
 1493 02e2 9548     		ldr	r0, .L136+4
 1494              	.LVL116:
 1495              		.loc 1 2819 0
 1496 02e4 1F68     		ldr	r7, [r3]
 1497 02e6 002F     		cmp	r7, #0
 1498 02e8 00F0B480 		beq	.L113
 1499              		.loc 1 2826 0
 1500 02ec 0021     		movs	r1, #0
 1501 02ee 2022     		movs	r2, #32
 1502 02f0 FFF7FEFF 		bl	TIM_SelectOCxM
 1503              	.LVL117:
 1504              		.loc 1 2827 0
 1505 02f4 9048     		ldr	r0, .L136+4
 1506 02f6 0021     		movs	r1, #0
 1507 02f8 0122     		movs	r2, #1
 1508 02fa FFF7FEFF 		bl	TIM_CCxCmd
 1509              	.LVL118:
 1510              		.loc 1 2828 0
 1511 02fe 0021     		movs	r1, #0
 1512 0300 0A46     		mov	r2, r1
 1513 0302 8D48     		ldr	r0, .L136+4
 1514 0304 FFF7FEFF 		bl	TIM_CCxNCmd
 1515              	.LVL119:
 1516              		.loc 1 2831 0
 1517 0308 8B48     		ldr	r0, .L136+4
 1518 030a 0821     		movs	r1, #8
 1519 030c 6022     		movs	r2, #96
 1520 030e FFF7FEFF 		bl	TIM_SelectOCxM
 1521              	.LVL120:
 1522              		.loc 1 2832 0
 1523 0312 8948     		ldr	r0, .L136+4
 1524 0314 0821     		movs	r1, #8
 1525 0316 0122     		movs	r2, #1
 1526 0318 FFF7FEFF 		bl	TIM_CCxCmd
 1527              	.LVL121:
 1528              		.loc 1 2833 0
 1529 031c 3246     		mov	r2, r6
 1530 031e 8648     		ldr	r0, .L136+4
 1531 0320 0821     		movs	r1, #8
 1532 0322 FFF7FEFF 		bl	TIM_CCxNCmd
 1533              	.LVL122:
ARM GAS  /tmp/ccwIw6h8.s 			page 28


 1534              		.loc 1 2836 0
 1535 0326 2A46     		mov	r2, r5
 1536 0328 2146     		mov	r1, r4
 1537 032a 8348     		ldr	r0, .L136+4
 1538 032c FFF7FEFF 		bl	TIM_SelectOCxM
 1539              	.LVL123:
 1540              		.loc 1 2837 0
 1541 0330 2146     		mov	r1, r4
 1542 0332 8148     		ldr	r0, .L136+4
 1543 0334 0122     		movs	r2, #1
 1544 0336 FFF7FEFF 		bl	TIM_CCxCmd
 1545              	.LVL124:
 1546              		.loc 1 2838 0
 1547 033a 2146     		mov	r1, r4
 1548 033c 2246     		mov	r2, r4
 1549 033e 7E48     		ldr	r0, .L136+4
 1550              		.loc 1 2963 0
 1551 0340 BDE8F840 		pop	{r3, r4, r5, r6, r7, lr}
 1552              	.LVL125:
 1553              		.loc 1 2838 0
 1554 0344 FFF7FEBF 		b	TIM_CCxNCmd
 1555              	.LVL126:
 1556              	.L109:
 1557              		.loc 1 2762 0
 1558 0348 0821     		movs	r1, #8
 1559 034a 2022     		movs	r2, #32
 1560 034c FFF7FEFF 		bl	TIM_SelectOCxM
 1561              	.LVL127:
 1562              		.loc 1 2763 0
 1563 0350 7948     		ldr	r0, .L136+4
 1564 0352 0821     		movs	r1, #8
 1565 0354 0122     		movs	r2, #1
 1566 0356 FFF7FEFF 		bl	TIM_CCxCmd
 1567              	.LVL128:
 1568              		.loc 1 2764 0
 1569 035a 7748     		ldr	r0, .L136+4
 1570 035c 0821     		movs	r1, #8
 1571 035e 2246     		mov	r2, r4
 1572 0360 FFF7FEFF 		bl	TIM_CCxNCmd
 1573              	.LVL129:
 1574              		.loc 1 2767 0
 1575 0364 7448     		ldr	r0, .L136+4
 1576 0366 2146     		mov	r1, r4
 1577 0368 6022     		movs	r2, #96
 1578 036a FFF7FEFF 		bl	TIM_SelectOCxM
 1579              	.LVL130:
 1580              		.loc 1 2768 0
 1581 036e 7248     		ldr	r0, .L136+4
 1582 0370 2146     		mov	r1, r4
 1583 0372 0122     		movs	r2, #1
 1584 0374 FFF7FEFF 		bl	TIM_CCxCmd
 1585              	.LVL131:
 1586              		.loc 1 2769 0
 1587 0378 2146     		mov	r1, r4
 1588 037a 3246     		mov	r2, r6
 1589 037c 6E48     		ldr	r0, .L136+4
 1590 037e 9CE7     		b	.L126
ARM GAS  /tmp/ccwIw6h8.s 			page 29


 1591              	.LVL132:
 1592              	.L116:
 1593              		.loc 1 2951 0
 1594 0380 6D48     		ldr	r0, .L136+4
 1595              	.LVL133:
 1596 0382 0021     		movs	r1, #0
 1597 0384 4022     		movs	r2, #64
 1598 0386 FFF7FEFF 		bl	TIM_SelectOCxM
 1599              	.LVL134:
 1600              		.loc 1 2952 0
 1601 038a 6B48     		ldr	r0, .L136+4
 1602 038c 0021     		movs	r1, #0
 1603 038e 0122     		movs	r2, #1
 1604 0390 FFF7FEFF 		bl	TIM_CCxCmd
 1605              	.LVL135:
 1606              		.loc 1 2953 0
 1607 0394 0021     		movs	r1, #0
 1608 0396 0A46     		mov	r2, r1
 1609 0398 6748     		ldr	r0, .L136+4
 1610 039a FFF7FEFF 		bl	TIM_CCxNCmd
 1611              	.LVL136:
 1612              		.loc 1 2955 0
 1613 039e 6648     		ldr	r0, .L136+4
 1614 03a0 0421     		movs	r1, #4
 1615 03a2 4022     		movs	r2, #64
 1616 03a4 FFF7FEFF 		bl	TIM_SelectOCxM
 1617              	.LVL137:
 1618              		.loc 1 2956 0
 1619 03a8 6348     		ldr	r0, .L136+4
 1620 03aa 0421     		movs	r1, #4
 1621 03ac 0122     		movs	r2, #1
 1622 03ae FFF7FEFF 		bl	TIM_CCxCmd
 1623              	.LVL138:
 1624              		.loc 1 2957 0
 1625 03b2 6148     		ldr	r0, .L136+4
 1626 03b4 0421     		movs	r1, #4
 1627 03b6 0022     		movs	r2, #0
 1628 03b8 FFF7FEFF 		bl	TIM_CCxNCmd
 1629              	.LVL139:
 1630              		.loc 1 2959 0
 1631 03bc 5E48     		ldr	r0, .L136+4
 1632 03be 0821     		movs	r1, #8
 1633 03c0 4022     		movs	r2, #64
 1634 03c2 FFF7FEFF 		bl	TIM_SelectOCxM
 1635              	.LVL140:
 1636              		.loc 1 2960 0
 1637 03c6 5C48     		ldr	r0, .L136+4
 1638 03c8 0821     		movs	r1, #8
 1639 03ca 0122     		movs	r2, #1
 1640 03cc FFF7FEFF 		bl	TIM_CCxCmd
 1641              	.LVL141:
 1642              		.loc 1 2961 0
 1643 03d0 5948     		ldr	r0, .L136+4
 1644 03d2 0821     		movs	r1, #8
 1645 03d4 0022     		movs	r2, #0
 1646              		.loc 1 2963 0
 1647 03d6 BDE8F840 		pop	{r3, r4, r5, r6, r7, lr}
ARM GAS  /tmp/ccwIw6h8.s 			page 30


 1648              	.LVL142:
 1649              		.loc 1 2961 0
 1650 03da FFF7FEBF 		b	TIM_CCxNCmd
 1651              	.LVL143:
 1652              	.L102:
 1653              		.loc 1 2655 0
 1654 03de 0821     		movs	r1, #8
 1655 03e0 6022     		movs	r2, #96
 1656 03e2 FFF7FEFF 		bl	TIM_SelectOCxM
 1657              	.LVL144:
 1658              		.loc 1 2656 0
 1659 03e6 5448     		ldr	r0, .L136+4
 1660 03e8 0821     		movs	r1, #8
 1661 03ea 2A46     		mov	r2, r5
 1662 03ec FFF7FEFF 		bl	TIM_CCxCmd
 1663              	.LVL145:
 1664              		.loc 1 2657 0
 1665 03f0 5148     		ldr	r0, .L136+4
 1666 03f2 0821     		movs	r1, #8
 1667 03f4 0422     		movs	r2, #4
 1668 03f6 FFF7FEFF 		bl	TIM_CCxNCmd
 1669              	.LVL146:
 1670              		.loc 1 2660 0
 1671 03fa 4F48     		ldr	r0, .L136+4
 1672 03fc 2146     		mov	r1, r4
 1673 03fe 2022     		movs	r2, #32
 1674 0400 FFF7FEFF 		bl	TIM_SelectOCxM
 1675              	.LVL147:
 1676              		.loc 1 2661 0
 1677 0404 4C48     		ldr	r0, .L136+4
 1678 0406 2A46     		mov	r2, r5
 1679 0408 2146     		mov	r1, r4
 1680              	.L121:
 1681              		.loc 1 2941 0
 1682 040a FFF7FEFF 		bl	TIM_CCxCmd
 1683              	.LVL148:
 1684              		.loc 1 2942 0
 1685 040e 2146     		mov	r1, r4
 1686 0410 4948     		ldr	r0, .L136+4
 1687 0412 0422     		movs	r2, #4
 1688              		.loc 1 2963 0
 1689 0414 BDE8F840 		pop	{r3, r4, r5, r6, r7, lr}
 1690              		.loc 1 2942 0
 1691 0418 FFF7FEBF 		b	TIM_CCxNCmd
 1692              	.LVL149:
 1693              	.L111:
 1694              		.loc 1 2804 0
 1695 041c 0421     		movs	r1, #4
 1696 041e 2022     		movs	r2, #32
 1697 0420 FFF7FEFF 		bl	TIM_SelectOCxM
 1698              	.LVL150:
 1699              		.loc 1 2805 0
 1700 0424 4448     		ldr	r0, .L136+4
 1701 0426 0421     		movs	r1, #4
 1702 0428 0122     		movs	r2, #1
 1703 042a FFF7FEFF 		bl	TIM_CCxCmd
 1704              	.LVL151:
ARM GAS  /tmp/ccwIw6h8.s 			page 31


 1705              		.loc 1 2806 0
 1706 042e 4248     		ldr	r0, .L136+4
 1707 0430 0421     		movs	r1, #4
 1708 0432 2246     		mov	r2, r4
 1709 0434 FFF7FEFF 		bl	TIM_CCxNCmd
 1710              	.LVL152:
 1711              		.loc 1 2809 0
 1712 0438 3F48     		ldr	r0, .L136+4
 1713 043a 2146     		mov	r1, r4
 1714 043c 6022     		movs	r2, #96
 1715 043e FFF7FEFF 		bl	TIM_SelectOCxM
 1716              	.LVL153:
 1717              		.loc 1 2810 0
 1718 0442 3D48     		ldr	r0, .L136+4
 1719 0444 2146     		mov	r1, r4
 1720 0446 0122     		movs	r2, #1
 1721 0448 FFF7FEFF 		bl	TIM_CCxCmd
 1722              	.LVL154:
 1723              		.loc 1 2811 0
 1724 044c 2146     		mov	r1, r4
 1725 044e 3246     		mov	r2, r6
 1726 0450 3948     		ldr	r0, .L136+4
 1727 0452 DCE6     		b	.L127
 1728              	.LVL155:
 1729              	.L113:
 1730              		.loc 1 2846 0
 1731 0454 3946     		mov	r1, r7
 1732 0456 2022     		movs	r2, #32
 1733 0458 FFF7FEFF 		bl	TIM_SelectOCxM
 1734              	.LVL156:
 1735              		.loc 1 2847 0
 1736 045c 3946     		mov	r1, r7
 1737 045e 3648     		ldr	r0, .L136+4
 1738 0460 0122     		movs	r2, #1
 1739 0462 FFF7FEFF 		bl	TIM_CCxCmd
 1740              	.LVL157:
 1741              		.loc 1 2848 0
 1742 0466 3946     		mov	r1, r7
 1743 0468 3A46     		mov	r2, r7
 1744 046a 3348     		ldr	r0, .L136+4
 1745 046c FFF7FEFF 		bl	TIM_CCxNCmd
 1746              	.LVL158:
 1747              		.loc 1 2851 0
 1748 0470 2146     		mov	r1, r4
 1749 0472 3148     		ldr	r0, .L136+4
 1750 0474 6022     		movs	r2, #96
 1751 0476 FFF7FEFF 		bl	TIM_SelectOCxM
 1752              	.LVL159:
 1753              		.loc 1 2852 0
 1754 047a 2146     		mov	r1, r4
 1755 047c 2E48     		ldr	r0, .L136+4
 1756 047e 0122     		movs	r2, #1
 1757 0480 FFF7FEFF 		bl	TIM_CCxCmd
 1758              	.LVL160:
 1759              		.loc 1 2853 0
 1760 0484 3246     		mov	r2, r6
 1761 0486 2146     		mov	r1, r4
ARM GAS  /tmp/ccwIw6h8.s 			page 32


 1762 0488 2B48     		ldr	r0, .L136+4
 1763 048a FFF7FEFF 		bl	TIM_CCxNCmd
 1764              	.LVL161:
 1765              		.loc 1 2856 0
 1766 048e 2A46     		mov	r2, r5
 1767 0490 2948     		ldr	r0, .L136+4
 1768 0492 0821     		movs	r1, #8
 1769 0494 FFF7FEFF 		bl	TIM_SelectOCxM
 1770              	.LVL162:
 1771              		.loc 1 2857 0
 1772 0498 2748     		ldr	r0, .L136+4
 1773 049a 0821     		movs	r1, #8
 1774 049c 0122     		movs	r2, #1
 1775 049e FFF7FEFF 		bl	TIM_CCxCmd
 1776              	.LVL163:
 1777              		.loc 1 2858 0
 1778 04a2 2246     		mov	r2, r4
 1779 04a4 2448     		ldr	r0, .L136+4
 1780 04a6 0821     		movs	r1, #8
 1781              		.loc 1 2963 0
 1782 04a8 BDE8F840 		pop	{r3, r4, r5, r6, r7, lr}
 1783              	.LVL164:
 1784              		.loc 1 2858 0
 1785 04ac FFF7FEBF 		b	TIM_CCxNCmd
 1786              	.LVL165:
 1787              	.L117:
 1788              		.loc 1 2930 0
 1789 04b0 0421     		movs	r1, #4
 1790 04b2 2022     		movs	r2, #32
 1791 04b4 FFF7FEFF 		bl	TIM_SelectOCxM
 1792              	.LVL166:
 1793              		.loc 1 2931 0
 1794 04b8 1F48     		ldr	r0, .L136+4
 1795 04ba 0421     		movs	r1, #4
 1796 04bc 0122     		movs	r2, #1
 1797 04be FFF7FEFF 		bl	TIM_CCxCmd
 1798              	.LVL167:
 1799              		.loc 1 2932 0
 1800 04c2 1D48     		ldr	r0, .L136+4
 1801 04c4 0421     		movs	r1, #4
 1802 04c6 2246     		mov	r2, r4
 1803 04c8 FFF7FEFF 		bl	TIM_CCxNCmd
 1804              	.LVL168:
 1805              		.loc 1 2935 0
 1806 04cc 1A48     		ldr	r0, .L136+4
 1807 04ce 0821     		movs	r1, #8
 1808 04d0 6022     		movs	r2, #96
 1809 04d2 FFF7FEFF 		bl	TIM_SelectOCxM
 1810              	.LVL169:
 1811              		.loc 1 2936 0
 1812 04d6 1848     		ldr	r0, .L136+4
 1813 04d8 0821     		movs	r1, #8
 1814 04da 0122     		movs	r2, #1
 1815 04dc FFF7FEFF 		bl	TIM_CCxCmd
 1816              	.LVL170:
 1817              		.loc 1 2937 0
 1818 04e0 1548     		ldr	r0, .L136+4
ARM GAS  /tmp/ccwIw6h8.s 			page 33


 1819 04e2 3246     		mov	r2, r6
 1820 04e4 0821     		movs	r1, #8
 1821              	.L123:
 1822 04e6 FFF7FEFF 		bl	TIM_CCxNCmd
 1823              	.LVL171:
 1824              		.loc 1 2940 0
 1825 04ea 2A46     		mov	r2, r5
 1826 04ec 1248     		ldr	r0, .L136+4
 1827 04ee 2146     		mov	r1, r4
 1828 04f0 FFF7FEFF 		bl	TIM_SelectOCxM
 1829              	.LVL172:
 1830              		.loc 1 2941 0
 1831 04f4 1048     		ldr	r0, .L136+4
 1832 04f6 2146     		mov	r1, r4
 1833 04f8 0122     		movs	r2, #1
 1834 04fa 86E7     		b	.L121
 1835              	.L115:
 1836              		.loc 1 2888 0
 1837 04fc 0821     		movs	r1, #8
 1838 04fe 2022     		movs	r2, #32
 1839 0500 FFF7FEFF 		bl	TIM_SelectOCxM
 1840              	.LVL173:
 1841              		.loc 1 2889 0
 1842 0504 0C48     		ldr	r0, .L136+4
 1843 0506 0821     		movs	r1, #8
 1844 0508 0122     		movs	r2, #1
 1845 050a FFF7FEFF 		bl	TIM_CCxCmd
 1846              	.LVL174:
 1847              		.loc 1 2890 0
 1848 050e 0A48     		ldr	r0, .L136+4
 1849 0510 0821     		movs	r1, #8
 1850 0512 2246     		mov	r2, r4
 1851 0514 FFF7FEFF 		bl	TIM_CCxNCmd
 1852              	.LVL175:
 1853              		.loc 1 2893 0
 1854 0518 0748     		ldr	r0, .L136+4
 1855 051a 0421     		movs	r1, #4
 1856 051c 6022     		movs	r2, #96
 1857 051e FFF7FEFF 		bl	TIM_SelectOCxM
 1858              	.LVL176:
 1859              		.loc 1 2894 0
 1860 0522 0548     		ldr	r0, .L136+4
 1861 0524 0421     		movs	r1, #4
 1862 0526 0122     		movs	r2, #1
 1863 0528 FFF7FEFF 		bl	TIM_CCxCmd
 1864              	.LVL177:
 1865              		.loc 1 2895 0
 1866 052c 3246     		mov	r2, r6
 1867 052e 0248     		ldr	r0, .L136+4
 1868 0530 0421     		movs	r1, #4
 1869 0532 D8E7     		b	.L123
 1870              	.L137:
 1871              		.align	2
 1872              	.L136:
 1873 0534 00000000 		.word	.LANCHOR4
 1874 0538 00000140 		.word	1073807360
 1875              		.cfi_endproc
ARM GAS  /tmp/ccwIw6h8.s 			page 34


 1876              	.LFE319:
 1877              		.size	set_next_comm_step, .-set_next_comm_step
 1878 053c AFF30080 		.section	.text.full_brake_hw,"ax",%progbits
 1879              		.align	2
 1880              		.p2align 4,,15
 1881              		.thumb
 1882              		.thumb_func
 1883              		.type	full_brake_hw, %function
 1884              	full_brake_hw:
 1885              	.LFB288:
 1886              		.loc 1 918 0
 1887              		.cfi_startproc
 1888              		@ args = 0, pretend = 0, frame = 0
 1889              		@ frame_needed = 0, uses_anonymous_args = 0
 1890 0000 10B5     		push	{r4, lr}
 1891              		.cfi_def_cfa_offset 8
 1892              		.cfi_offset 4, -8
 1893              		.cfi_offset 14, -4
 1894              		.loc 1 923 0
 1895 0002 1D4C     		ldr	r4, .L139
 1896 0004 0021     		movs	r1, #0
 1897 0006 2046     		mov	r0, r4
 1898 0008 4022     		movs	r2, #64
 1899 000a FFF7FEFF 		bl	TIM_SelectOCxM
 1900              	.LVL178:
 1901              		.loc 1 924 0
 1902 000e 2046     		mov	r0, r4
 1903 0010 0021     		movs	r1, #0
 1904 0012 0122     		movs	r2, #1
 1905 0014 FFF7FEFF 		bl	TIM_CCxCmd
 1906              	.LVL179:
 1907              		.loc 1 925 0
 1908 0018 2046     		mov	r0, r4
 1909 001a 0021     		movs	r1, #0
 1910 001c 0422     		movs	r2, #4
 1911 001e FFF7FEFF 		bl	TIM_CCxNCmd
 1912              	.LVL180:
 1913              		.loc 1 927 0
 1914 0022 2046     		mov	r0, r4
 1915 0024 0421     		movs	r1, #4
 1916 0026 4022     		movs	r2, #64
 1917 0028 FFF7FEFF 		bl	TIM_SelectOCxM
 1918              	.LVL181:
 1919              		.loc 1 928 0
 1920 002c 2046     		mov	r0, r4
 1921 002e 0421     		movs	r1, #4
 1922 0030 0122     		movs	r2, #1
 1923 0032 FFF7FEFF 		bl	TIM_CCxCmd
 1924              	.LVL182:
 1925              		.loc 1 929 0
 1926 0036 0421     		movs	r1, #4
 1927 0038 2046     		mov	r0, r4
 1928 003a 0A46     		mov	r2, r1
 1929 003c FFF7FEFF 		bl	TIM_CCxNCmd
 1930              	.LVL183:
 1931              		.loc 1 931 0
 1932 0040 2046     		mov	r0, r4
ARM GAS  /tmp/ccwIw6h8.s 			page 35


 1933 0042 0821     		movs	r1, #8
 1934 0044 4022     		movs	r2, #64
 1935 0046 FFF7FEFF 		bl	TIM_SelectOCxM
 1936              	.LVL184:
 1937              		.loc 1 932 0
 1938 004a 2046     		mov	r0, r4
 1939 004c 0821     		movs	r1, #8
 1940 004e 0122     		movs	r2, #1
 1941 0050 FFF7FEFF 		bl	TIM_CCxCmd
 1942              	.LVL185:
 1943              		.loc 1 933 0
 1944 0054 2046     		mov	r0, r4
 1945 0056 0821     		movs	r1, #8
 1946 0058 0422     		movs	r2, #4
 1947 005a FFF7FEFF 		bl	TIM_CCxNCmd
 1948              	.LVL186:
 1949              		.loc 1 935 0
 1950 005e 2046     		mov	r0, r4
 1951 0060 2021     		movs	r1, #32
 1952 0062 FFF7FEFF 		bl	TIM_GenerateEvent
 1953              	.LVL187:
 1954              		.loc 1 937 0
 1955 0066 054B     		ldr	r3, .L139+4
 1956 0068 1B68     		ldr	r3, [r3]
 1957              		.loc 1 938 0
 1958 006a BDE81040 		pop	{r4, lr}
 1959              		.loc 1 937 0
 1960 006e 93ED5A0A 		flds	s0, [r3, #360]
 1961 0072 FFF7FEBF 		b	set_switching_frequency
 1962              	.LVL188:
 1963              	.L140:
 1964 0076 00BF     		.align	2
 1965              	.L139:
 1966 0078 00000140 		.word	1073807360
 1967 007c 00000000 		.word	.LANCHOR0
 1968              		.cfi_endproc
 1969              	.LFE288:
 1970              		.size	full_brake_hw, .-full_brake_hw
 1971              		.section	.text.stop_pwm_hw,"ax",%progbits
 1972              		.align	2
 1973              		.p2align 4,,15
 1974              		.thumb
 1975              		.thumb_func
 1976              		.type	stop_pwm_hw, %function
 1977              	stop_pwm_hw:
 1978              	.LFB286:
 1979              		.loc 1 890 0
 1980              		.cfi_startproc
 1981              		@ args = 0, pretend = 0, frame = 0
 1982              		@ frame_needed = 0, uses_anonymous_args = 0
 1983 0000 10B5     		push	{r4, lr}
 1984              		.cfi_def_cfa_offset 8
 1985              		.cfi_offset 4, -8
 1986              		.cfi_offset 14, -4
 1987              		.loc 1 895 0
 1988 0002 1D4C     		ldr	r4, .L142
 1989 0004 0021     		movs	r1, #0
ARM GAS  /tmp/ccwIw6h8.s 			page 36


 1990 0006 2046     		mov	r0, r4
 1991 0008 4022     		movs	r2, #64
 1992 000a FFF7FEFF 		bl	TIM_SelectOCxM
 1993              	.LVL189:
 1994              		.loc 1 896 0
 1995 000e 2046     		mov	r0, r4
 1996 0010 0021     		movs	r1, #0
 1997 0012 0122     		movs	r2, #1
 1998 0014 FFF7FEFF 		bl	TIM_CCxCmd
 1999              	.LVL190:
 2000              		.loc 1 897 0
 2001 0018 0021     		movs	r1, #0
 2002 001a 2046     		mov	r0, r4
 2003 001c 0A46     		mov	r2, r1
 2004 001e FFF7FEFF 		bl	TIM_CCxNCmd
 2005              	.LVL191:
 2006              		.loc 1 899 0
 2007 0022 2046     		mov	r0, r4
 2008 0024 0421     		movs	r1, #4
 2009 0026 4022     		movs	r2, #64
 2010 0028 FFF7FEFF 		bl	TIM_SelectOCxM
 2011              	.LVL192:
 2012              		.loc 1 900 0
 2013 002c 2046     		mov	r0, r4
 2014 002e 0421     		movs	r1, #4
 2015 0030 0122     		movs	r2, #1
 2016 0032 FFF7FEFF 		bl	TIM_CCxCmd
 2017              	.LVL193:
 2018              		.loc 1 901 0
 2019 0036 2046     		mov	r0, r4
 2020 0038 0421     		movs	r1, #4
 2021 003a 0022     		movs	r2, #0
 2022 003c FFF7FEFF 		bl	TIM_CCxNCmd
 2023              	.LVL194:
 2024              		.loc 1 903 0
 2025 0040 2046     		mov	r0, r4
 2026 0042 0821     		movs	r1, #8
 2027 0044 4022     		movs	r2, #64
 2028 0046 FFF7FEFF 		bl	TIM_SelectOCxM
 2029              	.LVL195:
 2030              		.loc 1 904 0
 2031 004a 2046     		mov	r0, r4
 2032 004c 0821     		movs	r1, #8
 2033 004e 0122     		movs	r2, #1
 2034 0050 FFF7FEFF 		bl	TIM_CCxCmd
 2035              	.LVL196:
 2036              		.loc 1 905 0
 2037 0054 2046     		mov	r0, r4
 2038 0056 0821     		movs	r1, #8
 2039 0058 0022     		movs	r2, #0
 2040 005a FFF7FEFF 		bl	TIM_CCxNCmd
 2041              	.LVL197:
 2042              		.loc 1 907 0
 2043 005e 2046     		mov	r0, r4
 2044 0060 2021     		movs	r1, #32
 2045 0062 FFF7FEFF 		bl	TIM_GenerateEvent
 2046              	.LVL198:
ARM GAS  /tmp/ccwIw6h8.s 			page 37


 2047              		.loc 1 909 0
 2048 0066 054B     		ldr	r3, .L142+4
 2049 0068 1B68     		ldr	r3, [r3]
 2050              		.loc 1 910 0
 2051 006a BDE81040 		pop	{r4, lr}
 2052              		.loc 1 909 0
 2053 006e 93ED5A0A 		flds	s0, [r3, #360]
 2054 0072 FFF7FEBF 		b	set_switching_frequency
 2055              	.LVL199:
 2056              	.L143:
 2057 0076 00BF     		.align	2
 2058              	.L142:
 2059 0078 00000140 		.word	1073807360
 2060 007c 00000000 		.word	.LANCHOR0
 2061              		.cfi_endproc
 2062              	.LFE286:
 2063              		.size	stop_pwm_hw, .-stop_pwm_hw
 2064              		.section	.text.commutate,"ax",%progbits
 2065              		.align	2
 2066              		.p2align 4,,15
 2067              		.thumb
 2068              		.thumb_func
 2069              		.type	commutate, %function
 2070              	commutate:
 2071              	.LFB315:
 2072              		.loc 1 2540 0
 2073              		.cfi_startproc
 2074              		@ args = 0, pretend = 0, frame = 24
 2075              		@ frame_needed = 0, uses_anonymous_args = 0
 2076              	.LVL200:
 2077              		.loc 1 2541 0
 2078 0000 304B     		ldr	r3, .L163
 2079 0002 314A     		ldr	r2, .L163+4
 2080 0004 1968     		ldr	r1, [r3]	@ float
 2081              		.loc 1 2540 0
 2082 0006 F0B5     		push	{r4, r5, r6, r7, lr}
 2083              		.cfi_def_cfa_offset 20
 2084              		.cfi_offset 4, -20
 2085              		.cfi_offset 5, -16
 2086              		.cfi_offset 6, -12
 2087              		.cfi_offset 7, -8
 2088              		.cfi_offset 14, -4
 2089              		.loc 1 2542 0
 2090 0008 304C     		ldr	r4, .L163+8
 2091              		.loc 1 2541 0
 2092 000a 1160     		str	r1, [r2]	@ float
 2093              		.loc 1 2542 0
 2094 000c 2768     		ldr	r7, [r4]
 2095 000e 304E     		ldr	r6, .L163+12
 2096              		.loc 1 2546 0
 2097 0010 304D     		ldr	r5, .L163+16
 2098              		.loc 1 2544 0
 2099 0012 3149     		ldr	r1, .L163+20
 2100              		.loc 1 2542 0
 2101 0014 D3F800C0 		ldr	ip, [r3]	@ float
 2102              		.loc 1 2546 0
 2103 0018 2A68     		ldr	r2, [r5]
ARM GAS  /tmp/ccwIw6h8.s 			page 38


 2104              		.loc 1 2542 0
 2105 001a 013F     		subs	r7, r7, #1
 2106 001c 06EB8707 		add	r7, r6, r7, lsl #2
 2107              		.loc 1 2543 0
 2108 0020 4FF0000E 		mov	lr, #0
 2109              		.loc 1 2544 0
 2110 0024 0026     		movs	r6, #0
 2111              		.loc 1 2542 0
 2112 0026 C7F800C0 		str	ip, [r7]	@ float
 2113              		.loc 1 2543 0
 2114 002a C3F800E0 		str	lr, [r3]	@ float
 2115              		.loc 1 2544 0
 2116 002e 0E60     		str	r6, [r1]
 2117              		.loc 1 2546 0
 2118 0030 9378     		ldrb	r3, [r2, #2]	@ zero_extendqisi2
 2119              		.loc 1 2540 0
 2120 0032 87B0     		sub	sp, sp, #28
 2121              		.cfi_def_cfa_offset 48
 2122              		.loc 1 2546 0
 2123 0034 23BB     		cbnz	r3, .L145
 2124              		.loc 1 2546 0 is_stmt 0 discriminator 1
 2125 0036 294B     		ldr	r3, .L163+24
 2126 0038 1B78     		ldrb	r3, [r3]	@ zero_extendqisi2
 2127 003a 0BB3     		cbz	r3, .L145
 2128              		.loc 1 2547 0 is_stmt 1
 2129 003c 2368     		ldr	r3, [r4]
 2130 003e 1844     		add	r0, r0, r3
 2131              	.LVL201:
 2132 0040 2060     		str	r0, [r4]
 2133              		.loc 1 2548 0
 2134 0042 2368     		ldr	r3, [r4]
 2135 0044 062B     		cmp	r3, #6
 2136 0046 0BDD     		ble	.L160
 2137              	.L150:
 2138              		.loc 1 2549 0
 2139 0048 2368     		ldr	r3, [r4]
 2140 004a 063B     		subs	r3, r3, #6
 2141 004c 2360     		str	r3, [r4]
 2142              		.loc 1 2548 0
 2143 004e 2368     		ldr	r3, [r4]
 2144 0050 062B     		cmp	r3, #6
 2145 0052 F9DC     		bgt	.L150
 2146              		.loc 1 2551 0
 2147 0054 2368     		ldr	r3, [r4]
 2148 0056 002B     		cmp	r3, #0
 2149 0058 05DC     		bgt	.L161
 2150              	.L153:
 2151              		.loc 1 2552 0
 2152 005a 2368     		ldr	r3, [r4]
 2153 005c 0633     		adds	r3, r3, #6
 2154 005e 2360     		str	r3, [r4]
 2155              	.L160:
 2156              		.loc 1 2551 0
 2157 0060 2368     		ldr	r3, [r4]
 2158 0062 002B     		cmp	r3, #0
 2159 0064 F9DD     		ble	.L153
 2160              	.L161:
ARM GAS  /tmp/ccwIw6h8.s 			page 39


 2161              		.loc 1 2555 0
 2162 0066 FFF7FEFF 		bl	update_rpm_tacho
 2163              	.LVL202:
 2164              		.loc 1 2557 0
 2165 006a 1D4B     		ldr	r3, .L163+28
 2166 006c 1B78     		ldrb	r3, [r3]	@ zero_extendqisi2
 2167 006e 022B     		cmp	r3, #2
 2168 0070 03D0     		beq	.L162
 2169              		.loc 1 2558 0
 2170 0072 FFF7FEFF 		bl	update_sensor_mode
 2171              	.LVL203:
 2172              		.loc 1 2578 0
 2173 0076 07B0     		add	sp, sp, #28
 2174              		@ sp needed
 2175 0078 F0BD     		pop	{r4, r5, r6, r7, pc}
 2176              	.L162:
 2177              		.loc 1 2562 0
 2178 007a 2068     		ldr	r0, [r4]
 2179 007c FFF7FEFF 		bl	set_next_comm_step
 2180              	.LVL204:
 2181              	.L145:
 2182              		.loc 1 2565 0
 2183 0080 1848     		ldr	r0, .L163+32
 2184              		.loc 1 2571 0
 2185 0082 194E     		ldr	r6, .L163+36
 2186              		.loc 1 2565 0
 2187 0084 2021     		movs	r1, #32
 2188 0086 FFF7FEFF 		bl	TIM_GenerateEvent
 2189              	.LVL205:
 2190              		.loc 1 2566 0
 2191 008a 184B     		ldr	r3, .L163+40
 2192 008c 0122     		movs	r2, #1
 2193 008e 1A60     		str	r2, [r3]
 2194              		.loc 1 2570 0
 2195 0090 FFF7FEFF 		bl	utils_sys_lock_cnt
 2196              	.LVL206:
 2197              		.loc 1 2571 0
 2198 0094 0FCE     		ldmia	r6!, {r0, r1, r2, r3}
 2199 0096 6C46     		mov	r4, sp
 2200 0098 0FC4     		stmia	r4!, {r0, r1, r2, r3}
 2201 009a 96E80300 		ldmia	r6, {r0, r1}
 2202 009e 84E80300 		stmia	r4, {r0, r1}
 2203              		.loc 1 2572 0
 2204 00a2 FFF7FEFF 		bl	utils_sys_unlock_cnt
 2205              	.LVL207:
 2206              		.loc 1 2574 0
 2207 00a6 6846     		mov	r0, sp
 2208 00a8 FFF7FEFF 		bl	update_adc_sample_pos
 2209              	.LVL208:
 2210              		.loc 1 2575 0
 2211 00ac 6846     		mov	r0, sp
 2212 00ae FFF7FEFF 		bl	set_next_timer_settings
 2213              	.LVL209:
 2214              		.loc 1 2576 0
 2215 00b2 FFF7FEFF 		bl	update_sensor_mode
 2216              	.LVL210:
 2217              		.loc 1 2577 0
ARM GAS  /tmp/ccwIw6h8.s 			page 40


 2218 00b6 0E4A     		ldr	r2, .L163+44
 2219 00b8 2B68     		ldr	r3, [r5]
 2220 00ba 1278     		ldrb	r2, [r2]	@ zero_extendqisi2
 2221 00bc D2B2     		uxtb	r2, r2
 2222 00be 5A70     		strb	r2, [r3, #1]
 2223              		.loc 1 2578 0
 2224 00c0 07B0     		add	sp, sp, #28
 2225              		@ sp needed
 2226 00c2 F0BD     		pop	{r4, r5, r6, r7, pc}
 2227              	.L164:
 2228              		.align	2
 2229              	.L163:
 2230 00c4 00000000 		.word	.LANCHOR14
 2231 00c8 00000000 		.word	.LANCHOR15
 2232 00cc 00000000 		.word	.LANCHOR3
 2233 00d0 00000000 		.word	.LANCHOR16
 2234 00d4 00000000 		.word	.LANCHOR0
 2235 00d8 00000000 		.word	.LANCHOR17
 2236 00dc 00000000 		.word	.LANCHOR11
 2237 00e0 00000000 		.word	.LANCHOR2
 2238 00e4 00000140 		.word	1073807360
 2239 00e8 00000000 		.word	.LANCHOR12
 2240 00ec 00000000 		.word	.LANCHOR18
 2241 00f0 00000000 		.word	.LANCHOR19
 2242              		.cfi_endproc
 2243              	.LFE315:
 2244              		.size	commutate, .-commutate
 2245 00f4 AFF30080 		.section	.text.timer_thread,"ax",%progbits
 2245      AFF30080 
 2245      AFF30080 
 2246              		.align	2
 2247              		.p2align 4,,15
 2248              		.thumb
 2249              		.thumb_func
 2250              		.type	timer_thread, %function
 2251              	timer_thread:
 2252              	.LFB295:
 2253              		.loc 1 1317 0
 2254              		.cfi_startproc
 2255              		@ args = 0, pretend = 0, frame = 0
 2256              		@ frame_needed = 0, uses_anonymous_args = 0
 2257              	.LVL211:
 2258 0000 2DE9F843 		push	{r3, r4, r5, r6, r7, r8, r9, lr}
 2259              		.cfi_def_cfa_offset 32
 2260              		.cfi_offset 3, -32
 2261              		.cfi_offset 4, -28
 2262              		.cfi_offset 5, -24
 2263              		.cfi_offset 6, -20
 2264              		.cfi_offset 7, -16
 2265              		.cfi_offset 8, -12
 2266              		.cfi_offset 9, -8
 2267              		.cfi_offset 14, -4
 2268              	.LBB79:
 2269              	.LBB80:
 2270              		.file 2 "ChibiOS_3.0.2/os/rt/include/chregistry.h"
 2271              		.loc 2 135 0
 2272 0004 844B     		ldr	r3, .L217
ARM GAS  /tmp/ccwIw6h8.s 			page 41


 2273              	.LBE80:
 2274              	.LBE79:
 2275              	.LBB84:
 2276              		.loc 1 1327 0
 2277 0006 854D     		ldr	r5, .L217+4
 2278              	.LBE84:
 2279              	.LBB98:
 2280              	.LBB81:
 2281              		.loc 2 135 0
 2282 0008 9A69     		ldr	r2, [r3, #24]
 2283              	.LBE81:
 2284              	.LBE98:
 2285              	.LBB99:
 2286              		.loc 1 1327 0
 2287 000a 2B78     		ldrb	r3, [r5]	@ zero_extendqisi2
 2288              	.LBE99:
 2289              	.LBB100:
 2290              	.LBB82:
 2291              		.loc 2 135 0
 2292 000c 8449     		ldr	r1, .L217+8
 2293              	.LBE82:
 2294              	.LBE100:
 2295              		.loc 1 1317 0
 2296 000e 2DED028B 		fstmfdd	sp!, {d8}
 2297              		.cfi_def_cfa_offset 40
 2298              		.cfi_offset 80, -40
 2299              	.LBB101:
 2300              	.LBB83:
 2301              		.loc 2 135 0
 2302 0012 9161     		str	r1, [r2, #24]
 2303              	.LBE83:
 2304              	.LBE101:
 2305              	.LBB102:
 2306              		.loc 1 1327 0
 2307 0014 002B     		cmp	r3, #0
 2308 0016 54D1     		bne	.L194
 2309              		.loc 1 1404 0
 2310 0018 824E     		ldr	r6, .L217+12
 2311 001a 834C     		ldr	r4, .L217+16
 2312 001c 834F     		ldr	r7, .L217+20
 2313              		.loc 1 1369 0
 2314 001e DFED848A 		flds	s17, .L217+24
 2315              	.LBB85:
 2316              	.LBB86:
 2317              		.loc 1 749 0
 2318 0022 9FED848A 		flds	s16, .L217+28
 2319              	.LBE86:
 2320              	.LBE85:
 2321              		.loc 1 1384 0
 2322 0026 B046     		mov	r8, r6
 2323 0028 06E0     		b	.L195
 2324              	.LVL212:
 2325              	.L213:
 2326              		.loc 1 1409 0
 2327 002a 1360     		str	r3, [r2]
 2328              	.L190:
 2329              		.loc 1 1423 0
ARM GAS  /tmp/ccwIw6h8.s 			page 42


 2330 002c 0A20     		movs	r0, #10
 2331 002e FFF7FEFF 		bl	chThdSleep
 2332              	.LVL213:
 2333              		.loc 1 1327 0
 2334 0032 2B78     		ldrb	r3, [r5]	@ zero_extendqisi2
 2335 0034 002B     		cmp	r3, #0
 2336 0036 44D1     		bne	.L194
 2337              	.L195:
 2338              		.loc 1 1332 0
 2339 0038 2378     		ldrb	r3, [r4]	@ zero_extendqisi2
 2340 003a 03F0FF09 		and	r9, r3, #255
 2341 003e 002B     		cmp	r3, #0
 2342 0040 45D0     		beq	.L212
 2343              		.loc 1 1404 0
 2344 0042 0023     		movs	r3, #0
 2345 0044 3360     		str	r3, [r6]
 2346              	.L188:
 2347              		.loc 1 1409 0
 2348 0046 3B68     		ldr	r3, [r7]
 2349 0048 784A     		ldr	r2, .L217+20
 2350 004a 0133     		adds	r3, r3, #1
 2351              		.loc 1 1410 0
 2352 004c 092B     		cmp	r3, #9
 2353 004e ECDD     		ble	.L213
 2354              		.loc 1 1412 0
 2355 0050 2378     		ldrb	r3, [r4]	@ zero_extendqisi2
 2356 0052 7548     		ldr	r0, .L217+16
 2357              		.loc 1 1411 0
 2358 0054 0021     		movs	r1, #0
 2359              		.loc 1 1412 0
 2360 0056 022B     		cmp	r3, #2
 2361              		.loc 1 1411 0
 2362 0058 1160     		str	r1, [r2]
 2363              		.loc 1 1412 0
 2364 005a 00F0BA80 		beq	.L214
 2365              		.loc 1 1415 0
 2366 005e 0378     		ldrb	r3, [r0]	@ zero_extendqisi2
 2367 0060 002B     		cmp	r3, #0
 2368 0062 E3D1     		bne	.L190
 2369              		.loc 1 1416 0
 2370 0064 744A     		ldr	r2, .L217+32
 2371 0066 754B     		ldr	r3, .L217+36
 2372 0068 1268     		ldr	r2, [r2]
 2373 006a 92ED157A 		flds	s14, [r2, #84]
 2374 006e D3ED007A 		flds	s15, [r3]
 2375 0072 B4EEE77A 		fcmpes	s14, s15
 2376 0076 F1EE10FA 		fmstat
 2377 007a D7D8     		bhi	.L190
 2378              	.LBB90:
 2379              	.LBB87:
 2380              		.loc 1 749 0
 2381 007c 7049     		ldr	r1, .L217+40
 2382 007e 714A     		ldr	r2, .L217+44
 2383 0080 91ED000A 		flds	s0, [r1]
 2384 0084 118A     		ldrh	r1, [r2, #16]
 2385 0086 DFED706A 		flds	s13, .L217+48
 2386 008a 93ED007A 		flds	s14, [r3]
ARM GAS  /tmp/ccwIw6h8.s 			page 43


 2387              	.LBE87:
 2388              	.LBE90:
 2389              		.loc 1 1417 0
 2390 008e 6F48     		ldr	r0, .L217+52
 2391 0090 6F4A     		ldr	r2, .L217+56
 2392              	.LBB91:
 2393              	.LBB88:
 2394              		.loc 1 749 0
 2395 0092 89B2     		uxth	r1, r1
 2396 0094 06EE101A 		fmsr	s12, r1	@ int
 2397              	.L211:
 2398 0098 F8EE467A 		fuitos	s15, s12
 2399 009c B0EEC77A 		fabss	s14, s14
 2400 00a0 67EE887A 		fmuls	s15, s15, s16
 2401              	.LBE88:
 2402              	.LBE91:
 2403              		.loc 1 1417 0
 2404 00a4 0721     		movs	r1, #7
 2405              	.LBB92:
 2406              	.LBB89:
 2407              		.loc 1 749 0
 2408 00a6 67EEA67A 		fmuls	s15, s15, s13
 2409 00aa 67EE877A 		fmuls	s15, s15, s14
 2410              	.LBE89:
 2411              	.LBE92:
 2412              		.loc 1 1417 0
 2413 00ae 80EE270A 		fdivs	s0, s0, s15
 2414 00b2 FFF7FEFF 		bl	filter_add_sample
 2415              	.LVL214:
 2416              		.loc 1 1423 0
 2417 00b6 0A20     		movs	r0, #10
 2418 00b8 FFF7FEFF 		bl	chThdSleep
 2419              	.LVL215:
 2420              		.loc 1 1327 0
 2421 00bc 2B78     		ldrb	r3, [r5]	@ zero_extendqisi2
 2422 00be 002B     		cmp	r3, #0
 2423 00c0 BAD0     		beq	.L195
 2424              	.L194:
 2425              	.LBE102:
 2426              		.loc 1 1425 0
 2427 00c2 BDEC028B 		fldmfdd	sp!, {d8}
 2428              	.LBB103:
 2429              		.loc 1 1328 0
 2430 00c6 0023     		movs	r3, #0
 2431 00c8 2B70     		strb	r3, [r5]
 2432              	.LBE103:
 2433              		.loc 1 1425 0
 2434 00ca BDE8F883 		pop	{r3, r4, r5, r6, r7, r8, r9, pc}
 2435              	.L212:
 2436              	.LBB104:
 2437              		.loc 1 1335 0
 2438 00ce 614B     		ldr	r3, .L217+60
 2439 00d0 6148     		ldr	r0, .L217+64
 2440 00d2 1B68     		ldr	r3, [r3]
 2441 00d4 6149     		ldr	r1, .L217+68
 2442 00d6 0722     		movs	r2, #7
 2443 00d8 FFF7FEFF 		bl	filter_run_fir_iteration
ARM GAS  /tmp/ccwIw6h8.s 			page 44


 2444              	.LVL216:
 2445              		.loc 1 1339 0
 2446 00dc 564B     		ldr	r3, .L217+32
 2447 00de D3F800E0 		ldr	lr, [r3]
 2448 00e2 9EF80220 		ldrb	r2, [lr, #2]	@ zero_extendqisi2
 2449 00e6 D2B2     		uxtb	r2, r2
 2450 00e8 012A     		cmp	r2, #1
 2451 00ea 5DD0     		beq	.L215
 2452              		.loc 1 1347 0
 2453 00ec 5C4B     		ldr	r3, .L217+72
 2454 00ee 1B78     		ldrb	r3, [r3]	@ zero_extendqisi2
 2455 00f0 03F0FF02 		and	r2, r3, #255
 2456 00f4 002B     		cmp	r3, #0
 2457 00f6 4BD0     		beq	.L172
 2458 00f8 9FED5A7A 		flds	s14, .L217+76
 2459 00fc DFED5A7A 		flds	s15, .L217+80
 2460 0100 5A48     		ldr	r0, .L217+84
 2461 0102 4B46     		mov	r3, r9
 2462              	.L178:
 2463              	.LVL217:
 2464              	.LBB93:
 2465              		.loc 1 1352 0
 2466 0104 9A00     		lsls	r2, r3, #2
 2467 0106 8118     		adds	r1, r0, r2
 2468 0108 D1ED006A 		flds	s13, [r1]
 2469 010c F4EEE76A 		fcmpes	s13, s15
 2470 0110 F1EE10FA 		fmstat
 2471              		.loc 1 1353 0
 2472 0114 48BF     		it	mi
 2473 0116 D1ED007A 		fldsmi	s15, [r1]
 2474              	.LVL218:
 2475              		.loc 1 1356 0
 2476 011a D1ED006A 		flds	s13, [r1]
 2477 011e F4EEC76A 		fcmpes	s13, s14
 2478 0122 F1EE10FA 		fmstat
 2479              		.loc 1 1351 0
 2480 0126 03F10103 		add	r3, r3, #1
 2481              	.LVL219:
 2482              		.loc 1 1357 0
 2483 012a C8BF     		it	gt
 2484 012c 91ED007A 		fldsgt	s14, [r1]
 2485              	.LVL220:
 2486              		.loc 1 1351 0
 2487 0130 062B     		cmp	r3, #6
 2488 0132 E7D1     		bne	.L178
 2489              	.LBE93:
 2490              		.loc 1 1369 0
 2491 0134 37EE876A 		fadds	s12, s15, s14
 2492 0138 F6EE006A 		fconsts	s13, #96
 2493 013c 77EE677A 		fsubs	s15, s14, s15
 2494              	.LVL221:
 2495 0140 66EE266A 		fmuls	s13, s12, s13
 2496 0144 C7EEA67A 		fdivs	s15, s15, s13
 2497 0148 F4EEE87A 		fcmpes	s15, s17
 2498 014c F1EE10FA 		fmstat
 2499 0150 57DD     		ble	.L206
 2500              		.loc 1 1370 0
ARM GAS  /tmp/ccwIw6h8.s 			page 45


 2501 0152 3368     		ldr	r3, [r6]
 2502              	.LVL222:
 2503 0154 0C2B     		cmp	r3, #12
 2504              		.loc 1 1371 0
 2505 0156 464B     		ldr	r3, .L217+88
 2506              		.loc 1 1370 0
 2507 0158 57DC     		bgt	.L207
 2508              	.LVL223:
 2509              	.L171:
 2510              		.loc 1 1398 0
 2511 015a 3A4A     		ldr	r2, .L217+44
 2512              		.loc 1 1397 0
 2513 015c 1B68     		ldr	r3, [r3]
 2514              		.loc 1 1398 0
 2515 015e 128A     		ldrh	r2, [r2, #16]
 2516              		.loc 1 1397 0
 2517 0160 012B     		cmp	r3, #1
 2518              		.loc 1 1398 0
 2519 0162 92B2     		uxth	r2, r2
 2520 0164 354B     		ldr	r3, .L217+36
 2521              		.loc 1 1397 0
 2522 0166 2BD0     		beq	.L216
 2523              		.loc 1 1400 0
 2524 0168 07EE102A 		fmsr	s14, r2	@ int
 2525 016c F8EE477A 		fuitos	s15, s14
 2526 0170 B1EE400A 		fnegs	s0, s0
 2527              	.LVL224:
 2528 0174 80EE270A 		fdivs	s0, s0, s15
 2529 0178 83ED000A 		fsts	s0, [r3]
 2530              	.L187:
 2531              		.loc 1 1402 0 discriminator 4
 2532 017c 9EED160A 		flds	s0, [lr, #88]
 2533 0180 2E48     		ldr	r0, .L217+36
 2534 0182 DEED160A 		flds	s1, [lr, #88]
 2535 0186 B1EE400A 		fnegs	s0, s0
 2536 018a FFF7FEFF 		bl	utils_truncate_number
 2537              	.LVL225:
 2538 018e 5AE7     		b	.L188
 2539              	.LVL226:
 2540              	.L172:
 2541              		.loc 1 1384 0
 2542 0190 3368     		ldr	r3, [r6]
 2543 0192 0333     		adds	r3, r3, #3
 2544 0194 2DDA     		bge	.L183
 2545              		.loc 1 1385 0
 2546 0196 364B     		ldr	r3, .L217+88
 2547 0198 1968     		ldr	r1, [r3]
 2548 019a 0129     		cmp	r1, #1
 2549 019c 00D0     		beq	.L209
 2550              	.L184:
 2551              		.loc 1 1388 0
 2552 019e 0122     		movs	r2, #1
 2553              	.L209:
 2554 01a0 1A60     		str	r2, [r3]
 2555              	.L210:
 2556              		.loc 1 1390 0 discriminator 3
 2557 01a2 0022     		movs	r2, #0
ARM GAS  /tmp/ccwIw6h8.s 			page 46


 2558 01a4 3260     		str	r2, [r6]
 2559 01a6 D8E7     		b	.L171
 2560              	.L215:
 2561              		.loc 1 1340 0
 2562 01a8 B5EEC00A 		fcmpezs	s0
 2563              		.loc 1 1341 0
 2564 01ac 304B     		ldr	r3, .L217+88
 2565              		.loc 1 1340 0
 2566 01ae F1EE10FA 		fmstat
 2567              		.loc 1 1341 0
 2568 01b2 CEBF     		itee	gt
 2569 01b4 C3F80090 		strgt	r9, [r3]
 2570              		.loc 1 1344 0
 2571 01b8 B1EE400A 		fnegsle	s0, s0
 2572              	.LVL227:
 2573              		.loc 1 1343 0
 2574 01bc 1A60     		strle	r2, [r3]
 2575 01be CCE7     		b	.L171
 2576              	.L216:
 2577              		.loc 1 1398 0
 2578 01c0 06EE102A 		fmsr	s12, r2	@ int
 2579 01c4 F8EE467A 		fuitos	s15, s12
 2580 01c8 80EE270A 		fdivs	s0, s0, s15
 2581              	.LVL228:
 2582 01cc 83ED000A 		fsts	s0, [r3]
 2583 01d0 D4E7     		b	.L187
 2584              	.L214:
 2585              	.LBB94:
 2586              	.LBB95:
 2587              		.loc 1 749 0
 2588 01d2 1B4A     		ldr	r2, .L217+40
 2589 01d4 1B4B     		ldr	r3, .L217+44
 2590 01d6 92ED000A 		flds	s0, [r2]
 2591 01da 1B8A     		ldrh	r3, [r3, #16]
 2592 01dc 174A     		ldr	r2, .L217+36
 2593 01de DFED1A6A 		flds	s13, .L217+48
 2594 01e2 92ED007A 		flds	s14, [r2]
 2595              	.LBE95:
 2596              	.LBE94:
 2597              		.loc 1 1413 0
 2598 01e6 1948     		ldr	r0, .L217+52
 2599 01e8 194A     		ldr	r2, .L217+56
 2600              	.LBB97:
 2601              	.LBB96:
 2602              		.loc 1 749 0
 2603 01ea 9BB2     		uxth	r3, r3
 2604 01ec 06EE103A 		fmsr	s12, r3	@ int
 2605 01f0 52E7     		b	.L211
 2606              	.LVL229:
 2607              	.L183:
 2608              	.LBE96:
 2609              	.LBE97:
 2610              		.loc 1 1391 0
 2611 01f2 D8F80030 		ldr	r3, [r8]
 2612 01f6 002B     		cmp	r3, #0
 2613              		.loc 1 1392 0
 2614 01f8 C8BF     		it	gt
ARM GAS  /tmp/ccwIw6h8.s 			page 47


 2615 01fa C8F80020 		strgt	r2, [r8]
 2616 01fe 1C4B     		ldr	r3, .L217+88
 2617 0200 ABE7     		b	.L171
 2618              	.LVL230:
 2619              	.L206:
 2620              		.loc 1 1379 0
 2621 0202 0023     		movs	r3, #0
 2622              	.LVL231:
 2623 0204 3360     		str	r3, [r6]
 2624 0206 1A4B     		ldr	r3, .L217+88
 2625 0208 A7E7     		b	.L171
 2626              	.L207:
 2627              		.loc 1 1371 0
 2628 020a 1A68     		ldr	r2, [r3]
 2629 020c 012A     		cmp	r2, #1
 2630 020e C6D1     		bne	.L184
 2631              		.loc 1 1372 0
 2632 0210 0022     		movs	r2, #0
 2633 0212 1A60     		str	r2, [r3]
 2634 0214 C5E7     		b	.L210
 2635              	.L218:
 2636 0216 00BF     		.align	2
 2637              	.L217:
 2638 0218 00000000 		.word	ch
 2639 021c 00000000 		.word	.LANCHOR20
 2640 0220 00000000 		.word	.LC1
 2641 0224 00000000 		.word	.LANCHOR7
 2642 0228 00000000 		.word	.LANCHOR2
 2643 022c 00000000 		.word	.LANCHOR25
 2644 0230 9A99993F 		.word	1067030938
 2645 0234 6740533A 		.word	978534503
 2646 0238 00000000 		.word	.LANCHOR0
 2647 023c 00000000 		.word	.LANCHOR24
 2648 0240 00000000 		.word	.LANCHOR10
 2649 0244 00000000 		.word	ADC_Value
 2650 0248 74D19541 		.word	1100337524
 2651 024c 00000000 		.word	.LANCHOR26
 2652 0250 00000000 		.word	.LANCHOR27
 2653 0254 00000000 		.word	.LANCHOR21
 2654 0258 00000000 		.word	.LANCHOR22
 2655 025c 00000000 		.word	.LANCHOR23
 2656 0260 00000000 		.word	.LANCHOR11
 2657 0264 00000000 		.word	0
 2658 0268 E7841155 		.word	1427211495
 2659 026c 00000000 		.word	.LANCHOR16
 2660 0270 00000000 		.word	.LANCHOR4
 2661              	.LBE104:
 2662              		.cfi_endproc
 2663              	.LFE295:
 2664              		.size	timer_thread, .-timer_thread
 2665 0274 AFF30080 		.section	.text.mcpwm_deinit,"ax",%progbits
 2665      AFF30080 
 2665      AFF30080 
 2666              		.align	2
 2667              		.p2align 4,,15
 2668              		.global	mcpwm_deinit
 2669              		.thumb
ARM GAS  /tmp/ccwIw6h8.s 			page 48


 2670              		.thumb_func
 2671              		.type	mcpwm_deinit, %function
 2672              	mcpwm_deinit:
 2673              	.LFB257:
 2674              		.loc 1 476 0
 2675              		.cfi_startproc
 2676              		@ args = 0, pretend = 0, frame = 0
 2677              		@ frame_needed = 0, uses_anonymous_args = 0
 2678 0000 38B5     		push	{r3, r4, r5, lr}
 2679              		.cfi_def_cfa_offset 16
 2680              		.cfi_offset 3, -16
 2681              		.cfi_offset 4, -12
 2682              		.cfi_offset 5, -8
 2683              		.cfi_offset 14, -4
 2684              		.loc 1 477 0
 2685 0002 174B     		ldr	r3, .L222
 2686              		.loc 1 481 0
 2687 0004 174C     		ldr	r4, .L222+4
 2688              		.loc 1 482 0
 2689 0006 184D     		ldr	r5, .L222+8
 2690              		.loc 1 477 0
 2691 0008 0022     		movs	r2, #0
 2692 000a 1A70     		strb	r2, [r3]
 2693              		.loc 1 479 0
 2694 000c FFF7FEFF 		bl	WWDG_DeInit
 2695              	.LVL232:
 2696              		.loc 1 481 0
 2697 0010 0123     		movs	r3, #1
 2698 0012 2370     		strb	r3, [r4]
 2699              		.loc 1 482 0
 2700 0014 2B70     		strb	r3, [r5]
 2701              		.loc 1 484 0
 2702 0016 01E0     		b	.L220
 2703              	.L221:
 2704              		.loc 1 485 0
 2705 0018 FFF7FEFF 		bl	chThdSleep
 2706              	.LVL233:
 2707              	.L220:
 2708              		.loc 1 484 0 discriminator 1
 2709 001c 2378     		ldrb	r3, [r4]	@ zero_extendqisi2
 2710              		.loc 1 485 0 discriminator 1
 2711 001e 0A20     		movs	r0, #10
 2712              		.loc 1 484 0 discriminator 1
 2713 0020 002B     		cmp	r3, #0
 2714 0022 F9D1     		bne	.L221
 2715              		.loc 1 484 0 is_stmt 0 discriminator 2
 2716 0024 2B78     		ldrb	r3, [r5]	@ zero_extendqisi2
 2717 0026 002B     		cmp	r3, #0
 2718 0028 F6D1     		bne	.L221
 2719              		.loc 1 488 0 is_stmt 1
 2720 002a 1048     		ldr	r0, .L222+12
 2721 002c FFF7FEFF 		bl	TIM_DeInit
 2722              	.LVL234:
 2723              		.loc 1 489 0
 2724 0030 4FF08040 		mov	r0, #1073741824
 2725 0034 FFF7FEFF 		bl	TIM_DeInit
 2726              	.LVL235:
ARM GAS  /tmp/ccwIw6h8.s 			page 49


 2727              		.loc 1 490 0
 2728 0038 0D48     		ldr	r0, .L222+16
 2729 003a FFF7FEFF 		bl	TIM_DeInit
 2730              	.LVL236:
 2731              		.loc 1 491 0
 2732 003e 0D48     		ldr	r0, .L222+20
 2733 0040 FFF7FEFF 		bl	TIM_DeInit
 2734              	.LVL237:
 2735              		.loc 1 492 0
 2736 0044 FFF7FEFF 		bl	ADC_DeInit
 2737              	.LVL238:
 2738              		.loc 1 493 0
 2739 0048 0B48     		ldr	r0, .L222+24
 2740 004a FFF7FEFF 		bl	DMA_DeInit
 2741              	.LVL239:
 2742              		.loc 1 494 0
 2743 004e 1220     		movs	r0, #18
 2744 0050 FFF7FEFF 		bl	nvicDisableVector
 2745              	.LVL240:
 2746              		.loc 1 495 0
 2747 0054 0948     		ldr	r0, .L222+28
 2748              		.loc 1 496 0
 2749 0056 BDE83840 		pop	{r3, r4, r5, lr}
 2750              		.loc 1 495 0
 2751 005a FFF7FEBF 		b	dmaStreamRelease
 2752              	.LVL241:
 2753              	.L223:
 2754 005e 00BF     		.align	2
 2755              	.L222:
 2756 0060 00000000 		.word	.LANCHOR28
 2757 0064 00000000 		.word	.LANCHOR20
 2758 0068 00000000 		.word	.LANCHOR29
 2759 006c 00000140 		.word	1073807360
 2760 0070 00040140 		.word	1073808384
 2761 0074 00180040 		.word	1073747968
 2762 0078 70640240 		.word	1073898608
 2763 007c 90000000 		.word	_stm32_dma_streams+144
 2764              		.cfi_endproc
 2765              	.LFE257:
 2766              		.size	mcpwm_deinit, .-mcpwm_deinit
 2767              		.section	.text.mcpwm_init_done,"ax",%progbits
 2768              		.align	2
 2769              		.p2align 4,,15
 2770              		.global	mcpwm_init_done
 2771              		.thumb
 2772              		.thumb_func
 2773              		.type	mcpwm_init_done, %function
 2774              	mcpwm_init_done:
 2775              	.LFB258:
 2776              		.loc 1 498 0
 2777              		.cfi_startproc
 2778              		@ args = 0, pretend = 0, frame = 0
 2779              		@ frame_needed = 0, uses_anonymous_args = 0
 2780              		@ link register save eliminated.
 2781              		.loc 1 499 0
 2782 0000 014B     		ldr	r3, .L225
 2783 0002 1878     		ldrb	r0, [r3]	@ zero_extendqisi2
ARM GAS  /tmp/ccwIw6h8.s 			page 50


 2784              		.loc 1 500 0
 2785 0004 7047     		bx	lr
 2786              	.L226:
 2787 0006 00BF     		.align	2
 2788              	.L225:
 2789 0008 00000000 		.word	.LANCHOR28
 2790              		.cfi_endproc
 2791              	.LFE258:
 2792              		.size	mcpwm_init_done, .-mcpwm_init_done
 2793 000c AFF30080 		.section	.text.mcpwm_init_hall_table,"ax",%progbits
 2794              		.align	2
 2795              		.p2align 4,,15
 2796              		.global	mcpwm_init_hall_table
 2797              		.thumb
 2798              		.thumb_func
 2799              		.type	mcpwm_init_hall_table, %function
 2800              	mcpwm_init_hall_table:
 2801              	.LFB260:
 2802              		.loc 1 521 0
 2803              		.cfi_startproc
 2804              		@ args = 0, pretend = 0, frame = 32
 2805              		@ frame_needed = 0, uses_anonymous_args = 0
 2806              		@ link register save eliminated.
 2807              	.LVL242:
 2808 0000 F0B4     		push	{r4, r5, r6, r7}
 2809              		.cfi_def_cfa_offset 16
 2810              		.cfi_offset 4, -16
 2811              		.cfi_offset 5, -12
 2812              		.cfi_offset 6, -8
 2813              		.cfi_offset 7, -4
 2814              		.loc 1 522 0
 2815 0002 104E     		ldr	r6, .L234
 2816 0004 104C     		ldr	r4, .L234+4
 2817              		.loc 1 521 0
 2818 0006 0746     		mov	r7, r0
 2819              		.loc 1 522 0
 2820 0008 0FCE     		ldmia	r6!, {r0, r1, r2, r3}
 2821              	.LVL243:
 2822              		.loc 1 521 0
 2823 000a 88B0     		sub	sp, sp, #32
 2824              		.cfi_def_cfa_offset 48
 2825              		.loc 1 522 0
 2826 000c 01AD     		add	r5, sp, #4
 2827 000e 0FC5     		stmia	r5!, {r0, r1, r2, r3}
 2828 0010 96E80700 		ldmia	r6, {r0, r1, r2}
 2829 0014 85E80700 		stmia	r5, {r0, r1, r2}
 2830              	.LVL244:
 2831 0018 781E     		subs	r0, r7, #1
 2832 001a 04F12001 		add	r1, r4, #32
 2833              	.LVL245:
 2834              	.L231:
 2835              	.LBB105:
 2836              	.LBB106:
 2837              		.loc 1 525 0
 2838 001e 10F9013F 		ldrsb	r3, [r0, #1]!
 2839              	.LVL246:
 2840 0022 44F8043F 		str	r3, [r4, #4]!
ARM GAS  /tmp/ccwIw6h8.s 			page 51


 2841              	.LVL247:
 2842              		.loc 1 533 0
 2843 0026 08AD     		add	r5, sp, #32
 2844 0028 05EB8302 		add	r2, r5, r3, lsl #2
 2845              		.loc 1 528 0
 2846 002c 002B     		cmp	r3, #0
 2847              		.loc 1 533 0
 2848 002e C8BF     		it	gt
 2849 0030 52F81C3C 		ldrgt	r3, [r2, #-28]
 2850              	.LVL248:
 2851 0034 44F8203C 		str	r3, [r4, #-32]
 2852              	.LVL249:
 2853              	.LBE106:
 2854              		.loc 1 524 0
 2855 0038 8C42     		cmp	r4, r1
 2856 003a F0D1     		bne	.L231
 2857              	.LBE105:
 2858              		.loc 1 535 0
 2859 003c 08B0     		add	sp, sp, #32
 2860              		@ sp needed
 2861 003e F0BC     		pop	{r4, r5, r6, r7}
 2862              	.LVL250:
 2863 0040 7047     		bx	lr
 2864              	.L235:
 2865 0042 00BF     		.align	2
 2866              	.L234:
 2867 0044 00000000 		.word	.LANCHOR30
 2868 0048 1C000000 		.word	.LANCHOR31+28
 2869              		.cfi_endproc
 2870              	.LFE260:
 2871              		.size	mcpwm_init_hall_table, .-mcpwm_init_hall_table
 2872 004c AFF30080 		.section	.text.mcpwm_init,"ax",%progbits
 2873              		.align	2
 2874              		.p2align 4,,15
 2875              		.global	mcpwm_init
 2876              		.thumb
 2877              		.thumb_func
 2878              		.type	mcpwm_init, %function
 2879              	mcpwm_init:
 2880              	.LFB256:
 2881              		.loc 1 163 0
 2882              		.cfi_startproc
 2883              		@ args = 0, pretend = 0, frame = 184
 2884              		@ frame_needed = 0, uses_anonymous_args = 0
 2885              	.LVL251:
 2886 0000 2DE9F04F 		push	{r4, r5, r6, r7, r8, r9, r10, fp, lr}
 2887              		.cfi_def_cfa_offset 36
 2888              		.cfi_offset 4, -36
 2889              		.cfi_offset 5, -32
 2890              		.cfi_offset 6, -28
 2891              		.cfi_offset 7, -24
 2892              		.cfi_offset 8, -20
 2893              		.cfi_offset 9, -16
 2894              		.cfi_offset 10, -12
 2895              		.cfi_offset 11, -8
 2896              		.cfi_offset 14, -4
 2897 0004 B1B0     		sub	sp, sp, #196
ARM GAS  /tmp/ccwIw6h8.s 			page 52


 2898              		.cfi_def_cfa_offset 232
 2899              		.loc 1 163 0
 2900 0006 8246     		mov	r10, r0
 2901              		.loc 1 166 0
 2902 0008 DFF890B3 		ldr	fp, .L243+136
 2903              		.loc 1 175 0
 2904 000c C14F     		ldr	r7, .L243
 2905              		.loc 1 178 0
 2906 000e DFF89093 		ldr	r9, .L243+140
 2907              		.loc 1 179 0
 2908 0012 DFF89083 		ldr	r8, .L243+144
 2909              		.loc 1 196 0
 2910 0016 C04E     		ldr	r6, .L243+4
 2911              		.loc 1 164 0
 2912 0018 FFF7FEFF 		bl	utils_sys_lock_cnt
 2913              	.LVL252:
 2914              		.loc 1 172 0
 2915 001c BF4B     		ldr	r3, .L243+8
 2916              		.loc 1 178 0
 2917 001e DFEDC07A 		flds	s15, .L243+12
 2918              		.loc 1 172 0
 2919 0022 C3F800A0 		str	r10, [r3]
 2920              		.loc 1 166 0
 2921 0026 0024     		movs	r4, #0
 2922 0028 8BF80040 		strb	r4, [fp]
 2923              		.loc 1 176 0
 2924 002c BD4B     		ldr	r3, .L243+16
 2925              		.loc 1 177 0
 2926 002e BE4A     		ldr	r2, .L243+20
 2927              		.loc 1 180 0
 2928 0030 DFF874C3 		ldr	ip, .L243+148
 2929              		.loc 1 181 0
 2930 0034 DFF874E3 		ldr	lr, .L243+152
 2931              		.loc 1 182 0
 2932 0038 BC48     		ldr	r0, .L243+24
 2933              		.loc 1 183 0
 2934 003a DFF874B3 		ldr	fp, .L243+156
 2935              		.loc 1 190 0
 2936 003e BC49     		ldr	r1, .L243+28
 2937              		.loc 1 196 0
 2938 0040 3460     		str	r4, [r6]
 2939              		.loc 1 175 0
 2940 0042 0125     		movs	r5, #1
 2941 0044 3D60     		str	r5, [r7]
 2942              		.loc 1 176 0
 2943 0046 1C60     		str	r4, [r3]
 2944              		.loc 1 177 0
 2945 0048 1560     		str	r5, [r2]
 2946              		.loc 1 178 0
 2947 004a C9ED007A 		fsts	s15, [r9]
 2948              		.loc 1 179 0
 2949 004e C8ED007A 		fsts	s15, [r8]
 2950              		.loc 1 180 0
 2951 0052 CCED007A 		fsts	s15, [ip]
 2952              		.loc 1 181 0
 2953 0056 CEED007A 		fsts	s15, [lr]
 2954              		.loc 1 182 0
ARM GAS  /tmp/ccwIw6h8.s 			page 53


 2955 005a C0ED007A 		fsts	s15, [r0]
 2956              		.loc 1 183 0
 2957 005e CBED007A 		fsts	s15, [fp]
 2958              		.loc 1 184 0
 2959 0062 B448     		ldr	r0, .L243+32
 2960              		.loc 1 185 0
 2961 0064 DFF84CB3 		ldr	fp, .L243+160
 2962              		.loc 1 184 0
 2963 0068 0460     		str	r4, [r0]
 2964              		.loc 1 185 0
 2965 006a CBF80040 		str	r4, [fp]
 2966              		.loc 1 186 0
 2967 006e B248     		ldr	r0, .L243+36
 2968              		.loc 1 187 0
 2969 0070 DFF844B3 		ldr	fp, .L243+164
 2970              		.loc 1 186 0
 2971 0074 0460     		str	r4, [r0]
 2972              		.loc 1 187 0
 2973 0076 8BF80040 		strb	r4, [fp]
 2974              		.loc 1 188 0
 2975 007a B048     		ldr	r0, .L243+40
 2976              		.loc 1 189 0
 2977 007c DFF83CB3 		ldr	fp, .L243+168
 2978              		.loc 1 197 0
 2979 0080 DFF83CE3 		ldr	lr, .L243+172
 2980              		.loc 1 195 0
 2981 0084 DFF83CC3 		ldr	ip, .L243+176
 2982              		.loc 1 202 0
 2983 0088 AD4A     		ldr	r2, .L243+44
 2984              		.loc 1 196 0
 2985 008a 7460     		str	r4, [r6, #4]
 2986              		.loc 1 188 0
 2987 008c 0727     		movs	r7, #7
 2988              		.loc 1 196 0
 2989 008e 06F11803 		add	r3, r6, #24
 2990              		.loc 1 188 0
 2991 0092 0770     		strb	r7, [r0]
 2992              		.loc 1 189 0
 2993 0094 CBED007A 		fsts	s15, [fp]
 2994              		.loc 1 190 0
 2995 0098 C1ED007A 		fsts	s15, [r1]
 2996              		.loc 1 191 0
 2997 009c 9AED5A7A 		flds	s14, [r10, #360]
 2998              		.loc 1 196 0
 2999 00a0 B460     		str	r4, [r6, #8]
 3000 00a2 F460     		str	r4, [r6, #12]
 3001 00a4 3461     		str	r4, [r6, #16]
 3002 00a6 7461     		str	r4, [r6, #20]
 3003              		.loc 1 191 0
 3004 00a8 DFF81C83 		ldr	r8, .L243+180
 3005              		.loc 1 196 0
 3006 00ac 1C60     		str	r4, [r3]
 3007              		.loc 1 192 0
 3008 00ae DFF81CB3 		ldr	fp, .L243+184
 3009              		.loc 1 194 0
 3010 00b2 DFF81C93 		ldr	r9, .L243+188
 3011              		.loc 1 198 0
ARM GAS  /tmp/ccwIw6h8.s 			page 54


 3012 00b6 A348     		ldr	r0, .L243+48
 3013              		.loc 1 199 0
 3014 00b8 A349     		ldr	r1, .L243+52
 3015              		.loc 1 193 0
 3016 00ba A44B     		ldr	r3, .L243+56
 3017              		.loc 1 191 0
 3018 00bc 88ED007A 		fsts	s14, [r8]
 3019              		.loc 1 202 0
 3020 00c0 02F11406 		add	r6, r2, #20
 3021              		.loc 1 192 0
 3022 00c4 CBF80040 		str	r4, [fp]
 3023              		.loc 1 193 0
 3024 00c8 1C60     		str	r4, [r3]
 3025              		.loc 1 194 0
 3026 00ca C9F80040 		str	r4, [r9]
 3027              		.loc 1 195 0
 3028 00ce CCF80040 		str	r4, [ip]
 3029              		.loc 1 197 0
 3030 00d2 CEED007A 		fsts	s15, [lr]
 3031              		.loc 1 198 0
 3032 00d6 C0ED007A 		fsts	s15, [r0]
 3033              		.loc 1 199 0
 3034 00da C1ED007A 		fsts	s15, [r1]
 3035              		.loc 1 200 0
 3036 00de 9C49     		ldr	r1, .L243+60
 3037              		.loc 1 201 0
 3038 00e0 9C4B     		ldr	r3, .L243+64
 3039              		.loc 1 203 0
 3040 00e2 DFF8F0B2 		ldr	fp, .L243+192
 3041              		.loc 1 200 0
 3042 00e6 0C60     		str	r4, [r1]
 3043              		.loc 1 202 0
 3044 00e8 1460     		str	r4, [r2]
 3045              		.loc 1 204 0
 3046 00ea 2146     		mov	r1, r4
 3047              		.loc 1 202 0
 3048 00ec 5460     		str	r4, [r2, #4]
 3049 00ee 9460     		str	r4, [r2, #8]
 3050 00f0 D460     		str	r4, [r2, #12]
 3051 00f2 1461     		str	r4, [r2, #16]
 3052              		.loc 1 204 0
 3053 00f4 9848     		ldr	r0, .L243+68
 3054              		.loc 1 202 0
 3055 00f6 3460     		str	r4, [r6]
 3056              		.loc 1 204 0
 3057 00f8 E022     		movs	r2, #224
 3058              		.loc 1 201 0
 3059 00fa C3ED007A 		fsts	s15, [r3]
 3060              		.loc 1 203 0
 3061 00fe 8BF80040 		strb	r4, [fp]
 3062              		.loc 1 204 0
 3063 0102 FFF7FEFF 		bl	memset
 3064              	.LVL253:
 3065              		.loc 1 205 0
 3066 0106 FFF7FEFF 		bl	update_sensor_mode
 3067              	.LVL254:
 3068              		.loc 1 206 0
ARM GAS  /tmp/ccwIw6h8.s 			page 55


 3069 010a 9AF80120 		ldrb	r2, [r10, #1]	@ zero_extendqisi2
 3070 010e 934B     		ldr	r3, .L243+72
 3071              		.loc 1 219 0
 3072 0110 934E     		ldr	r6, .L243+76
 3073              		.loc 1 220 0
 3074 0112 DFF8C492 		ldr	r9, .L243+196
 3075              		.loc 1 206 0
 3076 0116 D2B2     		uxtb	r2, r2
 3077              		.loc 1 208 0
 3078 0118 0AF19800 		add	r0, r10, #152
 3079              		.loc 1 206 0
 3080 011c 1A70     		strb	r2, [r3]
 3081              		.loc 1 208 0
 3082 011e FFF7FEFF 		bl	mcpwm_init_hall_table
 3083              	.LVL255:
 3084              		.loc 1 211 0
 3085 0122 3946     		mov	r1, r7
 3086 0124 2A46     		mov	r2, r5
 3087 0126 8F48     		ldr	r0, .L243+80
 3088 0128 9FED8F0A 		flds	s0, .L243+84
 3089 012c FFF7FEFF 		bl	filter_create_fir_lowpass
 3090              	.LVL256:
 3091              		.loc 1 214 0
 3092 0130 3946     		mov	r1, r7
 3093 0132 2A46     		mov	r2, r5
 3094 0134 8D48     		ldr	r0, .L243+88
 3095 0136 9FED8C0A 		flds	s0, .L243+84
 3096 013a FFF7FEFF 		bl	filter_create_fir_lowpass
 3097              	.LVL257:
 3098              		.loc 1 217 0
 3099 013e 9FED8C0A 		flds	s0, .L243+92
 3100 0142 8C48     		ldr	r0, .L243+96
 3101 0144 2A46     		mov	r2, r5
 3102 0146 0421     		movs	r1, #4
 3103 0148 FFF7FEFF 		bl	filter_create_fir_lowpass
 3104              	.LVL258:
 3105              		.loc 1 219 0
 3106 014c 3046     		mov	r0, r6
 3107 014e FFF7FEFF 		bl	TIM_DeInit
 3108              	.LVL259:
 3109              		.loc 1 220 0
 3110 0152 4846     		mov	r0, r9
 3111 0154 FFF7FEFF 		bl	TIM_DeInit
 3112              	.LVL260:
 3113              		.loc 1 221 0
 3114 0158 7462     		str	r4, [r6, #36]
 3115              		.loc 1 225 0
 3116 015a 2846     		mov	r0, r5
 3117 015c 2946     		mov	r1, r5
 3118              		.loc 1 222 0
 3119 015e C9F82440 		str	r4, [r9, #36]
 3120              		.loc 1 225 0
 3121 0162 FFF7FEFF 		bl	RCC_APB2PeriphClockCmd
 3122              	.LVL261:
 3123              		.loc 1 230 0
 3124 0166 D8ED007A 		flds	s15, [r8]
 3125 016a 834A     		ldr	r2, .L243+100
ARM GAS  /tmp/ccwIw6h8.s 			page 56


 3126              		.loc 1 228 0
 3127 016c ADF81440 		strh	r4, [sp, #20]	@ movhi
 3128              		.loc 1 230 0
 3129 0170 FDEEE77A 		ftosizs	s15, s15
 3130              		.loc 1 234 0
 3131 0174 3046     		mov	r0, r6
 3132              		.loc 1 230 0
 3133 0176 17EE903A 		fmrs	r3, s15	@ int
 3134              		.loc 1 234 0
 3135 017a 05A9     		add	r1, sp, #20
 3136              		.loc 1 230 0
 3137 017c 92FBF3F3 		sdiv	r3, r2, r3
 3138              		.loc 1 229 0
 3139 0180 ADF81640 		strh	r4, [sp, #22]	@ movhi
 3140              		.loc 1 231 0
 3141 0184 ADF81C40 		strh	r4, [sp, #28]	@ movhi
 3142              		.loc 1 232 0
 3143 0188 8DF81E40 		strb	r4, [sp, #30]
 3144              		.loc 1 230 0
 3145 018c 0693     		str	r3, [sp, #24]
 3146              		.loc 1 234 0
 3147 018e FFF7FEFF 		bl	TIM_TimeBaseInit
 3148              	.LVL262:
 3149              		.loc 1 240 0
 3150 0192 F36A     		ldr	r3, [r6, #44]
 3151              		.loc 1 238 0
 3152 0194 ADF84250 		strh	r5, [sp, #66]	@ movhi
 3153              		.loc 1 237 0
 3154 0198 4FF06002 		mov	r2, #96	@ movhi
 3155              		.loc 1 240 0
 3156 019c EB40     		lsrs	r3, r3, r5
 3157              		.loc 1 239 0
 3158 019e 4FF0040A 		mov	r10, #4
 3159              	.LVL263:
 3160              		.loc 1 243 0
 3161 01a2 4FF48078 		mov	r8, #256
 3162              		.loc 1 246 0
 3163 01a6 3046     		mov	r0, r6
 3164 01a8 10A9     		add	r1, sp, #64
 3165              		.loc 1 244 0
 3166 01aa 4FF4007B 		mov	fp, #512
 3167              		.loc 1 237 0
 3168 01ae ADF84020 		strh	r2, [sp, #64]	@ movhi
 3169              		.loc 1 240 0
 3170 01b2 1293     		str	r3, [sp, #72]
 3171              		.loc 1 241 0
 3172 01b4 ADF84C40 		strh	r4, [sp, #76]	@ movhi
 3173              		.loc 1 242 0
 3174 01b8 ADF84E40 		strh	r4, [sp, #78]	@ movhi
 3175              		.loc 1 239 0
 3176 01bc ADF844A0 		strh	r10, [sp, #68]	@ movhi
 3177              		.loc 1 243 0
 3178 01c0 ADF85080 		strh	r8, [sp, #80]	@ movhi
 3179              		.loc 1 244 0
 3180 01c4 ADF852B0 		strh	fp, [sp, #82]	@ movhi
 3181              		.loc 1 246 0
 3182 01c8 FFF7FEFF 		bl	TIM_OC1Init
ARM GAS  /tmp/ccwIw6h8.s 			page 57


 3183              	.LVL264:
 3184              		.loc 1 247 0
 3185 01cc 3046     		mov	r0, r6
 3186 01ce 10A9     		add	r1, sp, #64
 3187 01d0 FFF7FEFF 		bl	TIM_OC2Init
 3188              	.LVL265:
 3189              		.loc 1 248 0
 3190 01d4 3046     		mov	r0, r6
 3191 01d6 10A9     		add	r1, sp, #64
 3192 01d8 FFF7FEFF 		bl	TIM_OC3Init
 3193              	.LVL266:
 3194              		.loc 1 249 0
 3195 01dc 3046     		mov	r0, r6
 3196 01de 10A9     		add	r1, sp, #64
 3197 01e0 FFF7FEFF 		bl	TIM_OC4Init
 3198              	.LVL267:
 3199              		.loc 1 251 0
 3200 01e4 3046     		mov	r0, r6
 3201 01e6 0821     		movs	r1, #8
 3202 01e8 FFF7FEFF 		bl	TIM_OC1PreloadConfig
 3203              	.LVL268:
 3204              		.loc 1 252 0
 3205 01ec 3046     		mov	r0, r6
 3206 01ee 0821     		movs	r1, #8
 3207 01f0 FFF7FEFF 		bl	TIM_OC2PreloadConfig
 3208              	.LVL269:
 3209              		.loc 1 253 0
 3210 01f4 3046     		mov	r0, r6
 3211 01f6 0821     		movs	r1, #8
 3212 01f8 FFF7FEFF 		bl	TIM_OC3PreloadConfig
 3213              	.LVL270:
 3214              		.loc 1 254 0
 3215 01fc 3046     		mov	r0, r6
 3216 01fe 0821     		movs	r1, #8
 3217 0200 FFF7FEFF 		bl	TIM_OC4PreloadConfig
 3218              	.LVL271:
 3219              		.loc 1 260 0
 3220 0204 3C23     		movs	r3, #60
 3221              		.loc 1 257 0
 3222 0206 4FF4006C 		mov	ip, #2048
 3223              		.loc 1 258 0
 3224 020a 4FF48067 		mov	r7, #1024
 3225              		.loc 1 265 0
 3226 020e 3046     		mov	r0, r6
 3227 0210 08A9     		add	r1, sp, #32
 3228              		.loc 1 260 0
 3229 0212 ADF82630 		strh	r3, [sp, #38]	@ movhi
 3230              		.loc 1 262 0
 3231 0216 4FF40053 		mov	r3, #8192	@ movhi
 3232              		.loc 1 257 0
 3233 021a ADF820C0 		strh	ip, [sp, #32]	@ movhi
 3234              		.loc 1 265 0
 3235 021e CDF80CC0 		str	ip, [sp, #12]
 3236              		.loc 1 262 0
 3237 0222 ADF82A30 		strh	r3, [sp, #42]	@ movhi
 3238              		.loc 1 259 0
 3239 0226 ADF82440 		strh	r4, [sp, #36]	@ movhi
ARM GAS  /tmp/ccwIw6h8.s 			page 58


 3240              		.loc 1 261 0
 3241 022a ADF82840 		strh	r4, [sp, #40]	@ movhi
 3242              		.loc 1 263 0
 3243 022e ADF82C40 		strh	r4, [sp, #44]	@ movhi
 3244              		.loc 1 258 0
 3245 0232 ADF82270 		strh	r7, [sp, #34]	@ movhi
 3246              		.loc 1 265 0
 3247 0236 FFF7FEFF 		bl	TIM_BDTRConfig
 3248              	.LVL272:
 3249              		.loc 1 266 0
 3250 023a 2946     		mov	r1, r5
 3251 023c 3046     		mov	r0, r6
 3252 023e FFF7FEFF 		bl	TIM_CCPreloadControl
 3253              	.LVL273:
 3254              		.loc 1 267 0
 3255 0242 2946     		mov	r1, r5
 3256 0244 3046     		mov	r0, r6
 3257 0246 FFF7FEFF 		bl	TIM_ARRPreloadConfig
 3258              	.LVL274:
 3259              		.loc 1 277 0
 3260 024a 2946     		mov	r1, r5
 3261 024c 4B48     		ldr	r0, .L243+104
 3262 024e FFF7FEFF 		bl	RCC_AHB1PeriphClockCmd
 3263              	.LVL275:
 3264              		.loc 1 278 0
 3265 0252 2946     		mov	r1, r5
 3266 0254 4FF4E060 		mov	r0, #1792
 3267 0258 FFF7FEFF 		bl	RCC_APB2PeriphClockCmd
 3268              	.LVL276:
 3269              		.loc 1 280 0
 3270 025c 2346     		mov	r3, r4
 3271 025e 484A     		ldr	r2, .L243+108
 3272 0260 4848     		ldr	r0, .L243+112
 3273 0262 0321     		movs	r1, #3
 3274 0264 FFF7FEFF 		bl	dmaStreamAllocate
 3275              	.LVL277:
 3276              		.loc 1 293 0
 3277 0268 DDF80CC0 		ldr	ip, [sp, #12]
 3278              		.loc 1 287 0
 3279 026c DFF86CE1 		ldr	lr, .L243+200
 3280              		.loc 1 301 0
 3281 0270 4548     		ldr	r0, .L243+116
 3282              		.loc 1 293 0
 3283 0272 CDF8A0C0 		str	ip, [sp, #160]
 3284              		.loc 1 294 0
 3285 0276 4FF40052 		mov	r2, #8192
 3286              		.loc 1 290 0
 3287 027a 4FF00C0C 		mov	ip, #12
 3288              		.loc 1 296 0
 3289 027e 4FF40033 		mov	r3, #131072
 3290              		.loc 1 301 0
 3291 0282 21A9     		add	r1, sp, #132
 3292              		.loc 1 294 0
 3293 0284 2992     		str	r2, [sp, #164]
 3294              		.loc 1 288 0
 3295 0286 414A     		ldr	r2, .L243+120
 3296              		.loc 1 287 0
ARM GAS  /tmp/ccwIw6h8.s 			page 59


 3297 0288 CDF88CE0 		str	lr, [sp, #140]
 3298              		.loc 1 290 0
 3299 028c CDF894C0 		str	ip, [sp, #148]
 3300              		.loc 1 296 0
 3301 0290 2B93     		str	r3, [sp, #172]
 3302              		.loc 1 288 0
 3303 0292 2292     		str	r2, [sp, #136]
 3304              		.loc 1 286 0
 3305 0294 2194     		str	r4, [sp, #132]
 3306              		.loc 1 289 0
 3307 0296 2494     		str	r4, [sp, #144]
 3308              		.loc 1 291 0
 3309 0298 2694     		str	r4, [sp, #152]
 3310              		.loc 1 297 0
 3311 029a 2C94     		str	r4, [sp, #176]
 3312              		.loc 1 298 0
 3313 029c 2D94     		str	r4, [sp, #180]
 3314              		.loc 1 299 0
 3315 029e 2E94     		str	r4, [sp, #184]
 3316              		.loc 1 300 0
 3317 02a0 2F94     		str	r4, [sp, #188]
 3318              		.loc 1 292 0
 3319 02a2 2797     		str	r7, [sp, #156]
 3320              		.loc 1 295 0
 3321 02a4 CDF8A880 		str	r8, [sp, #168]
 3322              		.loc 1 301 0
 3323 02a8 FFF7FEFF 		bl	DMA_Init
 3324              	.LVL278:
 3325              		.loc 1 304 0
 3326 02ac 2946     		mov	r1, r5
 3327 02ae 3648     		ldr	r0, .L243+116
 3328 02b0 FFF7FEFF 		bl	DMA_Cmd
 3329              	.LVL279:
 3330              		.loc 1 307 0
 3331 02b4 2A46     		mov	r2, r5
 3332 02b6 1021     		movs	r1, #16
 3333 02b8 3348     		ldr	r0, .L243+116
 3334 02ba FFF7FEFF 		bl	DMA_ITConfig
 3335              	.LVL280:
 3336              		.loc 1 312 0
 3337 02be 1622     		movs	r2, #22
 3338              		.loc 1 314 0
 3339 02c0 4FF48043 		mov	r3, #16384
 3340              		.loc 1 316 0
 3341 02c4 0CA8     		add	r0, sp, #48
 3342              		.loc 1 313 0
 3343 02c6 0D94     		str	r4, [sp, #52]
 3344              		.loc 1 315 0
 3345 02c8 0F94     		str	r4, [sp, #60]
 3346              		.loc 1 312 0
 3347 02ca 0C92     		str	r2, [sp, #48]
 3348              		.loc 1 314 0
 3349 02cc 0E93     		str	r3, [sp, #56]
 3350              		.loc 1 316 0
 3351 02ce FFF7FEFF 		bl	ADC_CommonInit
 3352              	.LVL281:
 3353              		.loc 1 323 0
ARM GAS  /tmp/ccwIw6h8.s 			page 60


 3354 02d2 4FF05063 		mov	r3, #218103808
 3355              		.loc 1 322 0
 3356 02d6 4FF00052 		mov	r2, #536870912
 3357              		.loc 1 327 0
 3358 02da 15A9     		add	r1, sp, #84
 3359 02dc 2C48     		ldr	r0, .L243+124
 3360              		.loc 1 323 0
 3361 02de 1893     		str	r3, [sp, #96]
 3362              		.loc 1 322 0
 3363 02e0 1792     		str	r2, [sp, #92]
 3364              		.loc 1 319 0
 3365 02e2 1594     		str	r4, [sp, #84]
 3366              		.loc 1 320 0
 3367 02e4 8DF85850 		strb	r5, [sp, #88]
 3368              		.loc 1 321 0
 3369 02e8 8DF85940 		strb	r4, [sp, #89]
 3370              		.loc 1 324 0
 3371 02ec 1994     		str	r4, [sp, #100]
 3372              		.loc 1 325 0
 3373 02ee 8DF868A0 		strb	r10, [sp, #104]
 3374              		.loc 1 327 0
 3375 02f2 FFF7FEFF 		bl	ADC_Init
 3376              	.LVL282:
 3377              		.loc 1 330 0
 3378 02f6 15A9     		add	r1, sp, #84
 3379 02f8 2648     		ldr	r0, .L243+128
 3380              		.loc 1 328 0
 3381 02fa 1794     		str	r4, [sp, #92]
 3382              		.loc 1 329 0
 3383 02fc 1894     		str	r4, [sp, #96]
 3384              		.loc 1 330 0
 3385 02fe FFF7FEFF 		bl	ADC_Init
 3386              	.LVL283:
 3387              		.loc 1 331 0
 3388 0302 15A9     		add	r1, sp, #84
 3389 0304 2448     		ldr	r0, .L243+132
 3390 0306 FFF7FEFF 		bl	ADC_Init
 3391              	.LVL284:
 3392              		.loc 1 334 0
 3393 030a 2846     		mov	r0, r5
 3394 030c FFF7FEFF 		bl	ADC_TempSensorVrefintCmd
 3395              	.LVL285:
 3396              		.loc 1 337 0
 3397 0310 2846     		mov	r0, r5
 3398 0312 65E0     		b	.L244
 3399              	.L245:
 3400              		.align	2
 3401              	.L243:
 3402 0314 00000000 		.word	.LANCHOR3
 3403 0318 00000000 		.word	.LANCHOR6
 3404 031c 00000000 		.word	.LANCHOR0
 3405 0320 00000000 		.word	0
 3406 0324 00000000 		.word	.LANCHOR32
 3407 0328 00000000 		.word	.LANCHOR4
 3408 032c 00000000 		.word	.LANCHOR35
 3409 0330 00000000 		.word	.LANCHOR39
 3410 0334 00000000 		.word	.LANCHOR9
ARM GAS  /tmp/ccwIw6h8.s 			page 61


 3411 0338 00000000 		.word	.LANCHOR7
 3412 033c 00000000 		.word	.LANCHOR37
 3413 0340 00000000 		.word	.LANCHOR16
 3414 0344 00000000 		.word	.LANCHOR43
 3415 0348 00000000 		.word	.LANCHOR14
 3416 034c 00000000 		.word	.LANCHOR1
 3417 0350 00000000 		.word	.LANCHOR17
 3418 0354 00000000 		.word	.LANCHOR15
 3419 0358 00000000 		.word	.LANCHOR45
 3420 035c 00000000 		.word	.LANCHOR19
 3421 0360 00000140 		.word	1073807360
 3422 0364 00000000 		.word	.LANCHOR46
 3423 0368 0AD7A33C 		.word	1017370378
 3424 036c 00000000 		.word	.LANCHOR23
 3425 0370 9A99193E 		.word	1041865114
 3426 0374 00000000 		.word	.LANCHOR47
 3427 0378 007A030A 		.word	168000000
 3428 037c 05004000 		.word	4194309
 3429 0380 00000000 		.word	mcpwm_adc_int_handler
 3430 0384 90000000 		.word	_stm32_dma_streams+144
 3431 0388 70640240 		.word	1073898608
 3432 038c 08230140 		.word	1073816328
 3433 0390 00200140 		.word	1073815552
 3434 0394 00210140 		.word	1073815808
 3435 0398 00220140 		.word	1073816064
 3436 039c 00000000 		.word	.LANCHOR28
 3437 03a0 00000000 		.word	.LANCHOR10
 3438 03a4 00000000 		.word	.LANCHOR33
 3439 03a8 00000000 		.word	.LANCHOR24
 3440 03ac 00000000 		.word	.LANCHOR34
 3441 03b0 00000000 		.word	.LANCHOR36
 3442 03b4 00000000 		.word	.LANCHOR8
 3443 03b8 00000000 		.word	.LANCHOR2
 3444 03bc 00000000 		.word	.LANCHOR38
 3445 03c0 00000000 		.word	.LANCHOR42
 3446 03c4 00000000 		.word	.LANCHOR18
 3447 03c8 00000000 		.word	.LANCHOR13
 3448 03cc 00000000 		.word	.LANCHOR40
 3449 03d0 00000000 		.word	.LANCHOR41
 3450 03d4 00000000 		.word	.LANCHOR44
 3451 03d8 00040140 		.word	1073808384
 3452 03dc 00000000 		.word	ADC_Value
 3453              	.L244:
 3454 03e0 FFF7FEFF 		bl	ADC_MultiModeDMARequestAfterLastTransferCmd
 3455              	.LVL286:
 3456              		.loc 1 340 0
 3457 03e4 2146     		mov	r1, r4
 3458 03e6 9B48     		ldr	r0, .L246
 3459 03e8 FFF7FEFF 		bl	ADC_ExternalTrigInjectedConvConfig
 3460              	.LVL287:
 3461              		.loc 1 341 0
 3462 03ec 9A48     		ldr	r0, .L246+4
 3463 03ee 4FF44021 		mov	r1, #786432
 3464 03f2 FFF7FEFF 		bl	ADC_ExternalTrigInjectedConvConfig
 3465              	.LVL288:
 3466              		.loc 1 345 0
 3467 03f6 9748     		ldr	r0, .L246
ARM GAS  /tmp/ccwIw6h8.s 			page 62


 3468 03f8 4FF40011 		mov	r1, #2097152
 3469 03fc FFF7FEFF 		bl	ADC_ExternalTrigInjectedConvEdgeConfig
 3470              	.LVL289:
 3471              		.loc 1 346 0
 3472 0400 9548     		ldr	r0, .L246+4
 3473 0402 4FF40011 		mov	r1, #2097152
 3474 0406 FFF7FEFF 		bl	ADC_ExternalTrigInjectedConvEdgeConfig
 3475              	.LVL290:
 3476              		.loc 1 350 0
 3477 040a 9248     		ldr	r0, .L246
 3478 040c 0221     		movs	r1, #2
 3479 040e FFF7FEFF 		bl	ADC_InjectedSequencerLengthConfig
 3480              	.LVL291:
 3481              		.loc 1 351 0
 3482 0412 9148     		ldr	r0, .L246+4
 3483 0414 0221     		movs	r1, #2
 3484 0416 FFF7FEFF 		bl	ADC_InjectedSequencerLengthConfig
 3485              	.LVL292:
 3486              		.loc 1 356 0
 3487 041a FFF7FEFF 		bl	hw_setup_adc_channels
 3488              	.LVL293:
 3489              		.loc 1 359 0
 3490 041e 2A46     		mov	r2, r5
 3491 0420 8C48     		ldr	r0, .L246
 3492 0422 40F20741 		movw	r1, #1031
 3493 0426 FFF7FEFF 		bl	ADC_ITConfig
 3494              	.LVL294:
 3495              		.loc 1 360 0
 3496 042a 1220     		movs	r0, #18
 3497 042c 0621     		movs	r1, #6
 3498 042e FFF7FEFF 		bl	nvicEnableVector
 3499              	.LVL295:
 3500              		.loc 1 363 0
 3501 0432 2946     		mov	r1, r5
 3502 0434 8748     		ldr	r0, .L246
 3503 0436 FFF7FEFF 		bl	ADC_Cmd
 3504              	.LVL296:
 3505              		.loc 1 366 0
 3506 043a 2946     		mov	r1, r5
 3507 043c 8648     		ldr	r0, .L246+4
 3508 043e FFF7FEFF 		bl	ADC_Cmd
 3509              	.LVL297:
 3510              		.loc 1 369 0
 3511 0442 2946     		mov	r1, r5
 3512 0444 8548     		ldr	r0, .L246+8
 3513 0446 FFF7FEFF 		bl	ADC_Cmd
 3514              	.LVL298:
 3515              		.loc 1 373 0
 3516 044a 2946     		mov	r1, r5
 3517 044c 0220     		movs	r0, #2
 3518 044e FFF7FEFF 		bl	RCC_APB2PeriphClockCmd
 3519              	.LVL299:
 3520              		.loc 1 377 0
 3521 0452 4FF6FF73 		movw	r3, #65535
 3522              		.loc 1 380 0
 3523 0456 4846     		mov	r0, r9
 3524 0458 05A9     		add	r1, sp, #20
ARM GAS  /tmp/ccwIw6h8.s 			page 63


 3525              		.loc 1 375 0
 3526 045a ADF81440 		strh	r4, [sp, #20]	@ movhi
 3527              		.loc 1 376 0
 3528 045e ADF81640 		strh	r4, [sp, #22]	@ movhi
 3529              		.loc 1 378 0
 3530 0462 ADF81C40 		strh	r4, [sp, #28]	@ movhi
 3531              		.loc 1 379 0
 3532 0466 8DF81E40 		strb	r4, [sp, #30]
 3533              		.loc 1 377 0
 3534 046a 0693     		str	r3, [sp, #24]
 3535              		.loc 1 380 0
 3536 046c FFF7FEFF 		bl	TIM_TimeBaseInit
 3537              	.LVL300:
 3538              		.loc 1 384 0
 3539 0470 4FF4FA73 		mov	r3, #500
 3540              		.loc 1 382 0
 3541 0474 4FF06002 		mov	r2, #96	@ movhi
 3542              		.loc 1 389 0
 3543 0478 4846     		mov	r0, r9
 3544 047a 10A9     		add	r1, sp, #64
 3545              		.loc 1 382 0
 3546 047c ADF84020 		strh	r2, [sp, #64]	@ movhi
 3547              		.loc 1 384 0
 3548 0480 1293     		str	r3, [sp, #72]
 3549              		.loc 1 383 0
 3550 0482 ADF84250 		strh	r5, [sp, #66]	@ movhi
 3551              		.loc 1 385 0
 3552 0486 ADF84C40 		strh	r4, [sp, #76]	@ movhi
 3553              		.loc 1 386 0
 3554 048a ADF84E40 		strh	r4, [sp, #78]	@ movhi
 3555              		.loc 1 387 0
 3556 048e ADF85080 		strh	r8, [sp, #80]	@ movhi
 3557              		.loc 1 388 0
 3558 0492 ADF852B0 		strh	fp, [sp, #82]	@ movhi
 3559              		.loc 1 389 0
 3560 0496 FFF7FEFF 		bl	TIM_OC1Init
 3561              	.LVL301:
 3562              		.loc 1 390 0
 3563 049a 4846     		mov	r0, r9
 3564 049c 0821     		movs	r1, #8
 3565 049e FFF7FEFF 		bl	TIM_OC1PreloadConfig
 3566              	.LVL302:
 3567              		.loc 1 391 0
 3568 04a2 4846     		mov	r0, r9
 3569 04a4 10A9     		add	r1, sp, #64
 3570 04a6 FFF7FEFF 		bl	TIM_OC2Init
 3571              	.LVL303:
 3572              		.loc 1 392 0
 3573 04aa 4846     		mov	r0, r9
 3574 04ac 0821     		movs	r1, #8
 3575 04ae FFF7FEFF 		bl	TIM_OC2PreloadConfig
 3576              	.LVL304:
 3577              		.loc 1 393 0
 3578 04b2 4846     		mov	r0, r9
 3579 04b4 10A9     		add	r1, sp, #64
 3580 04b6 FFF7FEFF 		bl	TIM_OC3Init
 3581              	.LVL305:
ARM GAS  /tmp/ccwIw6h8.s 			page 64


 3582              		.loc 1 394 0
 3583 04ba 4846     		mov	r0, r9
 3584 04bc 0821     		movs	r1, #8
 3585 04be FFF7FEFF 		bl	TIM_OC3PreloadConfig
 3586              	.LVL306:
 3587              		.loc 1 396 0
 3588 04c2 2946     		mov	r1, r5
 3589 04c4 4846     		mov	r0, r9
 3590 04c6 FFF7FEFF 		bl	TIM_ARRPreloadConfig
 3591              	.LVL307:
 3592              		.loc 1 397 0
 3593 04ca 2946     		mov	r1, r5
 3594 04cc 4846     		mov	r0, r9
 3595 04ce FFF7FEFF 		bl	TIM_CCPreloadControl
 3596              	.LVL308:
 3597              		.loc 1 400 0
 3598 04d2 2946     		mov	r1, r5
 3599 04d4 4846     		mov	r0, r9
 3600 04d6 FFF7FEFF 		bl	TIM_CtrlPWMOutputs
 3601              	.LVL309:
 3602              		.loc 1 403 0
 3603 04da 3046     		mov	r0, r6
 3604 04dc 2021     		movs	r1, #32
 3605 04de FFF7FEFF 		bl	TIM_SelectOutputTrigger
 3606              	.LVL310:
 3607              		.loc 1 404 0
 3608 04e2 3046     		mov	r0, r6
 3609 04e4 8021     		movs	r1, #128
 3610 04e6 FFF7FEFF 		bl	TIM_SelectMasterSlaveMode
 3611              	.LVL311:
 3612              		.loc 1 405 0
 3613 04ea 2146     		mov	r1, r4
 3614 04ec 4846     		mov	r0, r9
 3615 04ee FFF7FEFF 		bl	TIM_SelectInputTrigger
 3616              	.LVL312:
 3617              		.loc 1 406 0
 3618 04f2 4846     		mov	r0, r9
 3619 04f4 5146     		mov	r1, r10
 3620 04f6 FFF7FEFF 		bl	TIM_SelectSlaveMode
 3621              	.LVL313:
 3622              		.loc 1 409 0
 3623 04fa 2946     		mov	r1, r5
 3624 04fc 3046     		mov	r0, r6
 3625 04fe FFF7FEFF 		bl	TIM_Cmd
 3626              	.LVL314:
 3627              		.loc 1 410 0
 3628 0502 2946     		mov	r1, r5
 3629 0504 4846     		mov	r0, r9
 3630 0506 FFF7FEFF 		bl	TIM_Cmd
 3631              	.LVL315:
 3632              		.loc 1 413 0
 3633 050a 2946     		mov	r1, r5
 3634 050c 3046     		mov	r0, r6
 3635 050e FFF7FEFF 		bl	TIM_CtrlPWMOutputs
 3636              	.LVL316:
 3637              		.loc 1 416 0
 3638 0512 2846     		mov	r0, r5
ARM GAS  /tmp/ccwIw6h8.s 			page 65


 3639 0514 2946     		mov	r1, r5
 3640 0516 FFF7FEFF 		bl	RCC_APB1PeriphClockCmd
 3641              	.LVL317:
 3642              		.loc 1 420 0
 3643 051a 4FF0FF32 		mov	r2, #-1
 3644              		.loc 1 421 0
 3645 051e 5323     		movs	r3, #83
 3646              		.loc 1 424 0
 3647 0520 05A9     		add	r1, sp, #20
 3648 0522 4FF08040 		mov	r0, #1073741824
 3649              		.loc 1 420 0
 3650 0526 0692     		str	r2, [sp, #24]
 3651              		.loc 1 421 0
 3652 0528 ADF81430 		strh	r3, [sp, #20]	@ movhi
 3653              		.loc 1 422 0
 3654 052c ADF81C40 		strh	r4, [sp, #28]	@ movhi
 3655              		.loc 1 423 0
 3656 0530 ADF81640 		strh	r4, [sp, #22]	@ movhi
 3657              		.loc 1 424 0
 3658 0534 FFF7FEFF 		bl	TIM_TimeBaseInit
 3659              	.LVL318:
 3660              		.loc 1 427 0
 3661 0538 2946     		mov	r1, r5
 3662 053a 4FF08040 		mov	r0, #1073741824
 3663 053e FFF7FEFF 		bl	TIM_Cmd
 3664              	.LVL319:
 3665              		.loc 1 430 0
 3666 0542 FFF7FEFF 		bl	stop_pwm_hw
 3667              	.LVL320:
 3668              		.loc 1 432 0
 3669 0546 F36A     		ldr	r3, [r6, #44]
 3670 0548 1C93     		str	r3, [sp, #112]
 3671              		.loc 1 433 0
 3672 054a F36A     		ldr	r3, [r6, #44]
 3673              		.loc 1 434 0
 3674 054c 1BA8     		add	r0, sp, #108
 3675              		.loc 1 433 0
 3676 054e EB40     		lsrs	r3, r3, r5
 3677 0550 1D93     		str	r3, [sp, #116]
 3678              		.loc 1 434 0
 3679 0552 FFF7FEFF 		bl	update_adc_sample_pos
 3680              	.LVL321:
 3681              		.loc 1 435 0
 3682 0556 1BA8     		add	r0, sp, #108
 3683 0558 FFF7FEFF 		bl	set_next_timer_settings
 3684              	.LVL322:
 3685              		.loc 1 440 0
 3686 055c 404D     		ldr	r5, .L246+12
 3687              		.loc 1 437 0
 3688 055e FFF7FEFF 		bl	utils_sys_unlock_cnt
 3689              	.LVL323:
 3690              		.loc 1 441 0
 3691 0562 404B     		ldr	r3, .L246+16
 3692              		.loc 1 440 0
 3693 0564 2F83     		strh	r7, [r5, #24]	@ movhi
 3694              		.loc 1 441 0
 3695 0566 4FF48052 		mov	r2, #4096
ARM GAS  /tmp/ccwIw6h8.s 			page 66


 3696 056a 5A83     		strh	r2, [r3, #26]	@ movhi
 3697              	.LBB109:
 3698              	.LBB110:
 3699              		.loc 1 538 0
 3700 056c 41F28934 		movw	r4, #5001
 3701 0570 1A83     		strh	r2, [r3, #24]	@ movhi
 3702              	.LVL324:
 3703 0572 03E0     		b	.L237
 3704              	.LVL325:
 3705              	.L240:
 3706              		.loc 1 543 0
 3707 0574 FFF7FEFF 		bl	chThdSleep
 3708              	.LVL326:
 3709              		.loc 1 545 0
 3710 0578 013C     		subs	r4, r4, #1
 3711              	.LVL327:
 3712 057a 04D0     		beq	.L241
 3713              	.LVL328:
 3714              	.L237:
 3715              		.loc 1 542 0
 3716 057c 2B69     		ldr	r3, [r5, #16]
 3717 057e DB04     		lsls	r3, r3, #19
 3718              		.loc 1 543 0
 3719 0580 4FF00A00 		mov	r0, #10
 3720              		.loc 1 542 0
 3721 0584 F6D5     		bpl	.L240
 3722              	.LVL329:
 3723              	.L241:
 3724              		.loc 1 550 0
 3725 0586 42F21070 		movw	r0, #10000
 3726 058a FFF7FEFF 		bl	chThdSleep
 3727              	.LVL330:
 3728              		.loc 1 551 0
 3729 058e 364C     		ldr	r4, .L246+20
 3730              		.loc 1 552 0
 3731 0590 3648     		ldr	r0, .L246+24
 3732              		.loc 1 558 0
 3733 0592 3749     		ldr	r1, .L246+28
 3734              		.loc 1 551 0
 3735 0594 0023     		movs	r3, #0
 3736 0596 2360     		str	r3, [r4]
 3737              		.loc 1 552 0
 3738 0598 0360     		str	r3, [r0]
 3739              		.loc 1 558 0
 3740 059a 0B60     		str	r3, [r1]
 3741              	.L239:
 3742              		.loc 1 559 0
 3743 059c 0B68     		ldr	r3, [r1]
 3744 059e 344A     		ldr	r2, .L246+28
 3745 05a0 B3F57A6F 		cmp	r3, #4000
 3746 05a4 FADB     		blt	.L239
 3747              		.loc 1 560 0
 3748 05a6 2668     		ldr	r6, [r4]
 3749 05a8 1568     		ldr	r5, [r2]
 3750 05aa 324C     		ldr	r4, .L246+32
 3751              		.loc 1 561 0
 3752 05ac 3249     		ldr	r1, .L246+36
ARM GAS  /tmp/ccwIw6h8.s 			page 67


 3753              		.loc 1 567 0
 3754 05ae 2D4B     		ldr	r3, .L246+16
 3755              	.LBE110:
 3756              	.LBE109:
 3757              		.loc 1 470 0
 3758 05b0 DFF8F0B0 		ldr	fp, .L246+80
 3759              	.LBB114:
 3760              	.LBB111:
 3761              		.loc 1 560 0
 3762 05b4 96FBF5F5 		sdiv	r5, r6, r5
 3763 05b8 2560     		str	r5, [r4]
 3764              		.loc 1 561 0
 3765 05ba 0468     		ldr	r4, [r0]
 3766 05bc 1068     		ldr	r0, [r2]
 3767              	.LBE111:
 3768              	.LBE114:
 3769              		.loc 1 459 0
 3770 05be 2F4E     		ldr	r6, .L246+40
 3771              	.LBB115:
 3772              	.LBB112:
 3773              		.loc 1 567 0
 3774 05c0 4FF48052 		mov	r2, #4096
 3775              		.loc 1 561 0
 3776 05c4 94FBF0F0 		sdiv	r0, r4, r0
 3777              		.loc 1 568 0
 3778 05c8 0125     		movs	r5, #1
 3779              		.loc 1 561 0
 3780 05ca 0860     		str	r0, [r1]
 3781              		.loc 1 567 0
 3782 05cc 5A83     		strh	r2, [r3, #26]	@ movhi
 3783              		.loc 1 568 0
 3784 05ce 2C4B     		ldr	r3, .L246+44
 3785              	.LBE112:
 3786              	.LBE115:
 3787              		.loc 1 445 0
 3788 05d0 2946     		mov	r1, r5
 3789 05d2 4020     		movs	r0, #64
 3790              		.loc 1 451 0
 3791 05d4 0024     		movs	r4, #0
 3792              	.LBB116:
 3793              	.LBB113:
 3794              		.loc 1 568 0
 3795 05d6 1D70     		strb	r5, [r3]
 3796              	.LBE113:
 3797              	.LBE116:
 3798              		.loc 1 445 0
 3799 05d8 FFF7FEFF 		bl	RCC_APB1PeriphClockCmd
 3800              	.LVL331:
 3801              		.loc 1 449 0
 3802 05dc 4FF0FF32 		mov	r2, #-1
 3803              		.loc 1 450 0
 3804 05e0 0723     		movs	r3, #7
 3805              		.loc 1 453 0
 3806 05e2 05A9     		add	r1, sp, #20
 3807 05e4 2748     		ldr	r0, .L246+48
 3808              		.loc 1 449 0
 3809 05e6 0692     		str	r2, [sp, #24]
ARM GAS  /tmp/ccwIw6h8.s 			page 68


 3810              		.loc 1 450 0
 3811 05e8 ADF81430 		strh	r3, [sp, #20]	@ movhi
 3812              		.loc 1 451 0
 3813 05ec ADF81C40 		strh	r4, [sp, #28]	@ movhi
 3814              		.loc 1 452 0
 3815 05f0 ADF81640 		strh	r4, [sp, #22]	@ movhi
 3816              		.loc 1 453 0
 3817 05f4 FFF7FEFF 		bl	TIM_TimeBaseInit
 3818              	.LVL332:
 3819              		.loc 1 455 0
 3820 05f8 2946     		mov	r1, r5
 3821 05fa 2248     		ldr	r0, .L246+48
 3822 05fc FFF7FEFF 		bl	TIM_Cmd
 3823              	.LVL333:
 3824              		.loc 1 458 0
 3825 0600 214A     		ldr	r2, .L246+52
 3826              		.loc 1 460 0
 3827 0602 0094     		str	r4, [sp]
 3828 0604 214B     		ldr	r3, .L246+56
 3829              		.loc 1 458 0
 3830 0606 1470     		strb	r4, [r2]
 3831              		.loc 1 460 0
 3832 0608 40F69811 		movw	r1, #2456
 3833 060c 4022     		movs	r2, #64
 3834              		.loc 1 459 0
 3835 060e 3470     		strb	r4, [r6]
 3836              		.loc 1 460 0
 3837 0610 1F48     		ldr	r0, .L246+60
 3838 0612 FFF7FEFF 		bl	chThdCreateStatic
 3839              	.LVL334:
 3840              		.loc 1 461 0
 3841 0616 1F4B     		ldr	r3, .L246+64
 3842 0618 0094     		str	r4, [sp]
 3843 061a 4022     		movs	r2, #64
 3844 061c 4FF4B361 		mov	r1, #1432
 3845 0620 1D48     		ldr	r0, .L246+68
 3846 0622 FFF7FEFF 		bl	chThdCreateStatic
 3847              	.LVL335:
 3848              		.loc 1 464 0
 3849 0626 2946     		mov	r1, r5
 3850 0628 4FF40060 		mov	r0, #2048
 3851 062c FFF7FEFF 		bl	RCC_APB1PeriphClockCmd
 3852              	.LVL336:
 3853              		.loc 1 465 0
 3854 0630 2046     		mov	r0, r4
 3855 0632 FFF7FEFF 		bl	WWDG_SetPrescaler
 3856              	.LVL337:
 3857              		.loc 1 466 0
 3858 0636 FF20     		movs	r0, #255
 3859 0638 FFF7FEFF 		bl	WWDG_SetWindowValue
 3860              	.LVL338:
 3861              		.loc 1 467 0
 3862 063c 6420     		movs	r0, #100
 3863 063e FFF7FEFF 		bl	WWDG_Enable
 3864              	.LVL339:
 3865              		.loc 1 471 0
 3866 0642 1648     		ldr	r0, .L246+72
ARM GAS  /tmp/ccwIw6h8.s 			page 69


 3867              		.loc 1 473 0
 3868 0644 164A     		ldr	r2, .L246+76
 3869              		.loc 1 470 0
 3870 0646 CBF80040 		str	r4, [fp]
 3871              		.loc 1 471 0
 3872 064a 0460     		str	r4, [r0]
 3873              		.loc 1 473 0
 3874 064c 1570     		strb	r5, [r2]
 3875              		.loc 1 474 0
 3876 064e 31B0     		add	sp, sp, #196
 3877              		@ sp needed
 3878 0650 BDE8F08F 		pop	{r4, r5, r6, r7, r8, r9, r10, fp, pc}
 3879              	.L247:
 3880              		.align	2
 3881              	.L246:
 3882 0654 00200140 		.word	1073815552
 3883 0658 00210140 		.word	1073815808
 3884 065c 00220140 		.word	1073816064
 3885 0660 00080240 		.word	1073874944
 3886 0664 00040240 		.word	1073873920
 3887 0668 00000000 		.word	.LANCHOR48
 3888 066c 00000000 		.word	.LANCHOR49
 3889 0670 00000000 		.word	.LANCHOR50
 3890 0674 00000000 		.word	.LANCHOR51
 3891 0678 00000000 		.word	.LANCHOR52
 3892 067c 00000000 		.word	.LANCHOR29
 3893 0680 00000000 		.word	.LANCHOR44
 3894 0684 00180040 		.word	1073747968
 3895 0688 00000000 		.word	.LANCHOR20
 3896 068c 00000000 		.word	timer_thread
 3897 0690 00000000 		.word	.LANCHOR53
 3898 0694 00000000 		.word	rpm_thread
 3899 0698 00000000 		.word	.LANCHOR54
 3900 069c 00000000 		.word	.LANCHOR8
 3901 06a0 00000000 		.word	.LANCHOR28
 3902 06a4 00000000 		.word	.LANCHOR9
 3903              		.cfi_endproc
 3904              	.LFE256:
 3905              		.size	mcpwm_init, .-mcpwm_init
 3906 06a8 AFF30080 		.section	.text.mcpwm_set_configuration,"ax",%progbits
 3906      AFF30080 
 3907              		.align	2
 3908              		.p2align 4,,15
 3909              		.global	mcpwm_set_configuration
 3910              		.thumb
 3911              		.thumb_func
 3912              		.type	mcpwm_set_configuration, %function
 3913              	mcpwm_set_configuration:
 3914              	.LFB259:
 3915              		.loc 1 502 0
 3916              		.cfi_startproc
 3917              		@ args = 0, pretend = 0, frame = 0
 3918              		@ frame_needed = 0, uses_anonymous_args = 0
 3919              	.LVL340:
 3920 0000 38B5     		push	{r3, r4, r5, lr}
 3921              		.cfi_def_cfa_offset 16
 3922              		.cfi_offset 3, -16
ARM GAS  /tmp/ccwIw6h8.s 			page 70


 3923              		.cfi_offset 4, -12
 3924              		.cfi_offset 5, -8
 3925              		.cfi_offset 14, -4
 3926              	.LBB117:
 3927              	.LBB118:
 3928              		.loc 1 885 0
 3929 0002 0E49     		ldr	r1, .L249
 3930              		.loc 1 886 0
 3931 0004 0E4A     		ldr	r2, .L249+4
 3932              	.LBE118:
 3933              	.LBE117:
 3934              		.loc 1 502 0
 3935 0006 0446     		mov	r4, r0
 3936              		.loc 1 504 0
 3937 0008 0E48     		ldr	r0, .L249+8
 3938              	.LVL341:
 3939              	.LBB121:
 3940              	.LBB119:
 3941              		.loc 1 885 0
 3942 000a 0023     		movs	r3, #0
 3943              	.LBE119:
 3944              	.LBE121:
 3945              		.loc 1 504 0
 3946 000c 0725     		movs	r5, #7
 3947 000e 0570     		strb	r5, [r0]
 3948              	.LBB122:
 3949              	.LBB120:
 3950              		.loc 1 885 0
 3951 0010 0B70     		strb	r3, [r1]
 3952              		.loc 1 886 0
 3953 0012 1360     		str	r3, [r2]
 3954              		.loc 1 887 0
 3955 0014 FFF7FEFF 		bl	stop_pwm_hw
 3956              	.LVL342:
 3957              	.LBE120:
 3958              	.LBE122:
 3959              		.loc 1 507 0
 3960 0018 FFF7FEFF 		bl	utils_sys_lock_cnt
 3961              	.LVL343:
 3962              		.loc 1 509 0
 3963 001c 6278     		ldrb	r2, [r4, #1]	@ zero_extendqisi2
 3964 001e 0A4B     		ldr	r3, .L249+12
 3965              		.loc 1 508 0
 3966 0020 0A49     		ldr	r1, .L249+16
 3967              		.loc 1 509 0
 3968 0022 D2B2     		uxtb	r2, r2
 3969              		.loc 1 510 0
 3970 0024 04F19800 		add	r0, r4, #152
 3971              		.loc 1 508 0
 3972 0028 0C60     		str	r4, [r1]
 3973              		.loc 1 509 0
 3974 002a 1A70     		strb	r2, [r3]
 3975              		.loc 1 510 0
 3976 002c FFF7FEFF 		bl	mcpwm_init_hall_table
 3977              	.LVL344:
 3978              		.loc 1 511 0
 3979 0030 FFF7FEFF 		bl	update_sensor_mode
ARM GAS  /tmp/ccwIw6h8.s 			page 71


 3980              	.LVL345:
 3981              		.loc 1 513 0
 3982 0034 BDE83840 		pop	{r3, r4, r5, lr}
 3983              	.LVL346:
 3984              		.loc 1 512 0
 3985 0038 FFF7FEBF 		b	utils_sys_unlock_cnt
 3986              	.LVL347:
 3987              	.L250:
 3988              		.align	2
 3989              	.L249:
 3990 003c 00000000 		.word	.LANCHOR2
 3991 0040 00000000 		.word	.LANCHOR40
 3992 0044 00000000 		.word	.LANCHOR37
 3993 0048 00000000 		.word	.LANCHOR19
 3994 004c 00000000 		.word	.LANCHOR0
 3995              		.cfi_endproc
 3996              	.LFE259:
 3997              		.size	mcpwm_set_configuration, .-mcpwm_set_configuration
 3998              		.section	.text.mcpwm_set_pid_speed,"ax",%progbits
 3999              		.align	2
 4000              		.p2align 4,,15
 4001              		.global	mcpwm_set_pid_speed
 4002              		.thumb
 4003              		.thumb_func
 4004              		.type	mcpwm_set_pid_speed, %function
 4005              	mcpwm_set_pid_speed:
 4006              	.LFB264:
 4007              		.loc 1 612 0
 4008              		.cfi_startproc
 4009              		@ args = 0, pretend = 0, frame = 0
 4010              		@ frame_needed = 0, uses_anonymous_args = 0
 4011              		@ link register save eliminated.
 4012              	.LVL348:
 4013              		.loc 1 613 0
 4014 0000 034A     		ldr	r2, .L252
 4015              		.loc 1 614 0
 4016 0002 044B     		ldr	r3, .L252+4
 4017              		.loc 1 613 0
 4018 0004 0121     		movs	r1, #1
 4019 0006 1170     		strb	r1, [r2]
 4020              		.loc 1 614 0
 4021 0008 83ED000A 		fsts	s0, [r3]
 4022 000c 7047     		bx	lr
 4023              	.L253:
 4024 000e 00BF     		.align	2
 4025              	.L252:
 4026 0010 00000000 		.word	.LANCHOR37
 4027 0014 00000000 		.word	.LANCHOR34
 4028              		.cfi_endproc
 4029              	.LFE264:
 4030              		.size	mcpwm_set_pid_speed, .-mcpwm_set_pid_speed
 4031 0018 AFF30080 		.section	.text.mcpwm_set_brake_current,"ax",%progbits
 4031      AFF30080 
 4032              		.align	2
 4033              		.p2align 4,,15
 4034              		.global	mcpwm_set_brake_current
 4035              		.thumb
ARM GAS  /tmp/ccwIw6h8.s 			page 72


 4036              		.thumb_func
 4037              		.type	mcpwm_set_brake_current, %function
 4038              	mcpwm_set_brake_current:
 4039              	.LFB267:
 4040              		.loc 1 665 0
 4041              		.cfi_startproc
 4042              		@ args = 0, pretend = 0, frame = 8
 4043              		@ frame_needed = 0, uses_anonymous_args = 0
 4044              	.LVL349:
 4045 0000 30B5     		push	{r4, r5, lr}
 4046              		.cfi_def_cfa_offset 12
 4047              		.cfi_offset 4, -12
 4048              		.cfi_offset 5, -8
 4049              		.cfi_offset 14, -4
 4050              		.loc 1 666 0
 4051 0002 2E4C     		ldr	r4, .L278
 4052 0004 2368     		ldr	r3, [r4]
 4053 0006 D3ED507A 		flds	s15, [r3, #320]
 4054 000a B0EEC07A 		fabss	s14, s0
 4055 000e B4EEE77A 		fcmpes	s14, s15
 4056              		.loc 1 665 0
 4057 0012 83B0     		sub	sp, sp, #12
 4058              		.cfi_def_cfa_offset 24
 4059              		.loc 1 666 0
 4060 0014 F1EE10FA 		fmstat
 4061              		.loc 1 665 0
 4062 0018 8DED010A 		fsts	s0, [sp, #4]
 4063              		.loc 1 666 0
 4064 001c 2DD4     		bmi	.L276
 4065              		.loc 1 672 0
 4066 001e 93ED020A 		flds	s0, [r3, #8]
 4067              	.LVL350:
 4068 0022 D3ED020A 		flds	s1, [r3, #8]
 4069 0026 B0EEC00A 		fabss	s0, s0
 4070 002a B1EE400A 		fnegs	s0, s0
 4071 002e F0EEE00A 		fabss	s1, s1
 4072 0032 01A8     		add	r0, sp, #4
 4073              	.LVL351:
 4074 0034 FFF7FEFF 		bl	utils_truncate_number
 4075              	.LVL352:
 4076              		.loc 1 675 0
 4077 0038 2149     		ldr	r1, .L278+4
 4078              		.loc 1 674 0
 4079 003a 2248     		ldr	r0, .L278+8
 4080              		.loc 1 675 0
 4081 003c 019D     		ldr	r5, [sp, #4]	@ float
 4082              		.loc 1 677 0
 4083 003e 224B     		ldr	r3, .L278+12
 4084              		.loc 1 674 0
 4085 0040 0322     		movs	r2, #3
 4086 0042 0270     		strb	r2, [r0]
 4087              		.loc 1 675 0
 4088 0044 0D60     		str	r5, [r1]	@ float
 4089              		.loc 1 677 0
 4090 0046 1978     		ldrb	r1, [r3]	@ zero_extendqisi2
 4091 0048 0229     		cmp	r1, #2
 4092 004a 14D0     		beq	.L254
ARM GAS  /tmp/ccwIw6h8.s 			page 73


 4093              		.loc 1 677 0 is_stmt 0 discriminator 1
 4094 004c 1978     		ldrb	r1, [r3]	@ zero_extendqisi2
 4095 004e 9142     		cmp	r1, r2
 4096 0050 11D0     		beq	.L254
 4097              		.loc 1 680 0 is_stmt 1
 4098 0052 2168     		ldr	r1, [r4]
 4099 0054 8878     		ldrb	r0, [r1, #2]	@ zero_extendqisi2
 4100 0056 0128     		cmp	r0, #1
 4101 0058 1BD0     		beq	.L277
 4102              		.loc 1 687 0
 4103 005a 1C48     		ldr	r0, .L278+16
 4104 005c 90ED007A 		flds	s14, [r0]
 4105 0060 D1ED097A 		flds	s15, [r1, #36]
 4106 0064 B0EEC77A 		fabss	s14, s14
 4107 0068 B4EEE77A 		fcmpes	s14, s15
 4108 006c F1EE10FA 		fmstat
 4109 0070 1BDD     		ble	.L274
 4110              	.L275:
 4111              		.loc 1 688 0
 4112 0072 0222     		movs	r2, #2
 4113 0074 1A70     		strb	r2, [r3]
 4114              	.L254:
 4115              		.loc 1 694 0
 4116 0076 03B0     		add	sp, sp, #12
 4117              		@ sp needed
 4118 0078 30BD     		pop	{r4, r5, pc}
 4119              	.LVL353:
 4120              	.L276:
 4121              		.loc 1 667 0
 4122 007a 1248     		ldr	r0, .L278+8
 4123              	.LBB123:
 4124              	.LBB124:
 4125              		.loc 1 885 0
 4126 007c 1249     		ldr	r1, .L278+12
 4127              		.loc 1 886 0
 4128 007e 144A     		ldr	r2, .L278+20
 4129              		.loc 1 885 0
 4130 0080 0023     		movs	r3, #0
 4131              	.LBE124:
 4132              	.LBE123:
 4133              		.loc 1 667 0
 4134 0082 0724     		movs	r4, #7
 4135 0084 0470     		strb	r4, [r0]
 4136              	.LBB126:
 4137              	.LBB125:
 4138              		.loc 1 885 0
 4139 0086 0B70     		strb	r3, [r1]
 4140              		.loc 1 886 0
 4141 0088 1360     		str	r3, [r2]
 4142              		.loc 1 887 0
 4143 008a FFF7FEFF 		bl	stop_pwm_hw
 4144              	.LVL354:
 4145              	.LBE125:
 4146              	.LBE126:
 4147              		.loc 1 694 0
 4148 008e 03B0     		add	sp, sp, #12
 4149              		@ sp needed
ARM GAS  /tmp/ccwIw6h8.s 			page 74


 4150 0090 30BD     		pop	{r4, r5, pc}
 4151              	.LVL355:
 4152              	.L277:
 4153              		.loc 1 681 0
 4154 0092 1049     		ldr	r1, .L278+24
 4155 0094 DFED107A 		flds	s15, .L278+28
 4156 0098 91ED007A 		flds	s14, [r1]
 4157 009c B0EEC77A 		fabss	s14, s14
 4158 00a0 B4EEE77A 		fcmpes	s14, s15
 4159 00a4 F1EE10FA 		fmstat
 4160 00a8 E3DC     		bgt	.L275
 4161              	.L274:
 4162              	.LBB127:
 4163              	.LBB128:
 4164              		.loc 1 914 0
 4165 00aa 0949     		ldr	r1, .L278+20
 4166              		.loc 1 913 0
 4167 00ac 1A70     		strb	r2, [r3]
 4168              		.loc 1 914 0
 4169 00ae 0023     		movs	r3, #0
 4170 00b0 0B60     		str	r3, [r1]
 4171              		.loc 1 915 0
 4172 00b2 FFF7FEFF 		bl	full_brake_hw
 4173              	.LVL356:
 4174              	.LBE128:
 4175              	.LBE127:
 4176              		.loc 1 694 0
 4177 00b6 03B0     		add	sp, sp, #12
 4178              		@ sp needed
 4179 00b8 30BD     		pop	{r4, r5, pc}
 4180              	.LVL357:
 4181              	.L279:
 4182 00ba 00BF     		.align	2
 4183              	.L278:
 4184 00bc 00000000 		.word	.LANCHOR0
 4185 00c0 00000000 		.word	.LANCHOR36
 4186 00c4 00000000 		.word	.LANCHOR37
 4187 00c8 00000000 		.word	.LANCHOR2
 4188 00cc 00000000 		.word	.LANCHOR10
 4189 00d0 00000000 		.word	.LANCHOR40
 4190 00d4 00000000 		.word	.LANCHOR24
 4191 00d8 CDCCCC3D 		.word	1036831949
 4192              		.cfi_endproc
 4193              	.LFE267:
 4194              		.size	mcpwm_set_brake_current, .-mcpwm_set_brake_current
 4195 00dc AFF30080 		.section	.text.mcpwm_get_comm_step,"ax",%progbits
 4196              		.align	2
 4197              		.p2align 4,,15
 4198              		.global	mcpwm_get_comm_step
 4199              		.thumb
 4200              		.thumb_func
 4201              		.type	mcpwm_get_comm_step, %function
 4202              	mcpwm_get_comm_step:
 4203              	.LFB268:
 4204              		.loc 1 702 0
 4205              		.cfi_startproc
 4206              		@ args = 0, pretend = 0, frame = 0
ARM GAS  /tmp/ccwIw6h8.s 			page 75


 4207              		@ frame_needed = 0, uses_anonymous_args = 0
 4208              		@ link register save eliminated.
 4209              		.loc 1 703 0
 4210 0000 014B     		ldr	r3, .L281
 4211 0002 1868     		ldr	r0, [r3]
 4212              		.loc 1 704 0
 4213 0004 7047     		bx	lr
 4214              	.L282:
 4215 0006 00BF     		.align	2
 4216              	.L281:
 4217 0008 00000000 		.word	.LANCHOR3
 4218              		.cfi_endproc
 4219              	.LFE268:
 4220              		.size	mcpwm_get_comm_step, .-mcpwm_get_comm_step
 4221 000c AFF30080 		.section	.text.mcpwm_get_duty_cycle_set,"ax",%progbits
 4222              		.align	2
 4223              		.p2align 4,,15
 4224              		.global	mcpwm_get_duty_cycle_set
 4225              		.thumb
 4226              		.thumb_func
 4227              		.type	mcpwm_get_duty_cycle_set, %function
 4228              	mcpwm_get_duty_cycle_set:
 4229              	.LFB269:
 4230              		.loc 1 706 0
 4231              		.cfi_startproc
 4232              		@ args = 0, pretend = 0, frame = 0
 4233              		@ frame_needed = 0, uses_anonymous_args = 0
 4234              		@ link register save eliminated.
 4235              		.loc 1 707 0
 4236 0000 014B     		ldr	r3, .L284
 4237 0002 93ED000A 		flds	s0, [r3]
 4238              		.loc 1 708 0
 4239 0006 7047     		bx	lr
 4240              	.L285:
 4241              		.align	2
 4242              	.L284:
 4243 0008 00000000 		.word	.LANCHOR33
 4244              		.cfi_endproc
 4245              	.LFE269:
 4246              		.size	mcpwm_get_duty_cycle_set, .-mcpwm_get_duty_cycle_set
 4247 000c AFF30080 		.section	.text.mcpwm_get_duty_cycle_now,"ax",%progbits
 4248              		.align	2
 4249              		.p2align 4,,15
 4250              		.global	mcpwm_get_duty_cycle_now
 4251              		.thumb
 4252              		.thumb_func
 4253              		.type	mcpwm_get_duty_cycle_now, %function
 4254              	mcpwm_get_duty_cycle_now:
 4255              	.LFB270:
 4256              		.loc 1 710 0
 4257              		.cfi_startproc
 4258              		@ args = 0, pretend = 0, frame = 0
 4259              		@ frame_needed = 0, uses_anonymous_args = 0
 4260              		@ link register save eliminated.
 4261              		.loc 1 711 0
 4262 0000 014B     		ldr	r3, .L287
 4263 0002 93ED000A 		flds	s0, [r3]
ARM GAS  /tmp/ccwIw6h8.s 			page 76


 4264              		.loc 1 712 0
 4265 0006 7047     		bx	lr
 4266              	.L288:
 4267              		.align	2
 4268              	.L287:
 4269 0008 00000000 		.word	.LANCHOR24
 4270              		.cfi_endproc
 4271              	.LFE270:
 4272              		.size	mcpwm_get_duty_cycle_now, .-mcpwm_get_duty_cycle_now
 4273 000c AFF30080 		.section	.text.mcpwm_get_switching_frequency_now,"ax",%progbits
 4274              		.align	2
 4275              		.p2align 4,,15
 4276              		.global	mcpwm_get_switching_frequency_now
 4277              		.thumb
 4278              		.thumb_func
 4279              		.type	mcpwm_get_switching_frequency_now, %function
 4280              	mcpwm_get_switching_frequency_now:
 4281              	.LFB271:
 4282              		.loc 1 720 0
 4283              		.cfi_startproc
 4284              		@ args = 0, pretend = 0, frame = 0
 4285              		@ frame_needed = 0, uses_anonymous_args = 0
 4286              		@ link register save eliminated.
 4287              		.loc 1 721 0
 4288 0000 014B     		ldr	r3, .L290
 4289 0002 93ED000A 		flds	s0, [r3]
 4290              		.loc 1 722 0
 4291 0006 7047     		bx	lr
 4292              	.L291:
 4293              		.align	2
 4294              	.L290:
 4295 0008 00000000 		.word	.LANCHOR13
 4296              		.cfi_endproc
 4297              	.LFE271:
 4298              		.size	mcpwm_get_switching_frequency_now, .-mcpwm_get_switching_frequency_now
 4299 000c AFF30080 		.section	.text.mcpwm_get_rpm,"ax",%progbits
 4300              		.align	2
 4301              		.p2align 4,,15
 4302              		.global	mcpwm_get_rpm
 4303              		.thumb
 4304              		.thumb_func
 4305              		.type	mcpwm_get_rpm, %function
 4306              	mcpwm_get_rpm:
 4307              	.LFB272:
 4308              		.loc 1 732 0
 4309              		.cfi_startproc
 4310              		@ args = 0, pretend = 0, frame = 0
 4311              		@ frame_needed = 0, uses_anonymous_args = 0
 4312              		@ link register save eliminated.
 4313              		.loc 1 733 0
 4314 0000 064B     		ldr	r3, .L296
 4315 0002 1B68     		ldr	r3, [r3]
 4316 0004 1BB1     		cbz	r3, .L295
 4317              		.loc 1 733 0 is_stmt 0 discriminator 2
 4318 0006 064B     		ldr	r3, .L296+4
 4319 0008 93ED000A 		flds	s0, [r3]
 4320              		.loc 1 734 0 is_stmt 1 discriminator 2
ARM GAS  /tmp/ccwIw6h8.s 			page 77


 4321 000c 7047     		bx	lr
 4322              	.L295:
 4323              		.loc 1 733 0 discriminator 1
 4324 000e 044B     		ldr	r3, .L296+4
 4325 0010 93ED000A 		flds	s0, [r3]
 4326 0014 B1EE400A 		fnegs	s0, s0
 4327 0018 7047     		bx	lr
 4328              	.L297:
 4329 001a 00BF     		.align	2
 4330              	.L296:
 4331 001c 00000000 		.word	.LANCHOR4
 4332 0020 00000000 		.word	.LANCHOR10
 4333              		.cfi_endproc
 4334              	.LFE272:
 4335              		.size	mcpwm_get_rpm, .-mcpwm_get_rpm
 4336 0024 AFF30080 		.section	.text.mcpwm_get_state,"ax",%progbits
 4336      AFF30080 
 4336      AFF30080 
 4337              		.align	2
 4338              		.p2align 4,,15
 4339              		.global	mcpwm_get_state
 4340              		.thumb
 4341              		.thumb_func
 4342              		.type	mcpwm_get_state, %function
 4343              	mcpwm_get_state:
 4344              	.LFB273:
 4345              		.loc 1 736 0
 4346              		.cfi_startproc
 4347              		@ args = 0, pretend = 0, frame = 0
 4348              		@ frame_needed = 0, uses_anonymous_args = 0
 4349              		@ link register save eliminated.
 4350              		.loc 1 737 0
 4351 0000 014B     		ldr	r3, .L299
 4352 0002 1878     		ldrb	r0, [r3]	@ zero_extendqisi2
 4353              		.loc 1 738 0
 4354 0004 7047     		bx	lr
 4355              	.L300:
 4356 0006 00BF     		.align	2
 4357              	.L299:
 4358 0008 00000000 		.word	.LANCHOR2
 4359              		.cfi_endproc
 4360              	.LFE273:
 4361              		.size	mcpwm_get_state, .-mcpwm_get_state
 4362 000c AFF30080 		.section	.text.mcpwm_get_kv,"ax",%progbits
 4363              		.align	2
 4364              		.p2align 4,,15
 4365              		.global	mcpwm_get_kv
 4366              		.thumb
 4367              		.thumb_func
 4368              		.type	mcpwm_get_kv, %function
 4369              	mcpwm_get_kv:
 4370              	.LFB274:
 4371              		.loc 1 748 0
 4372              		.cfi_startproc
 4373              		@ args = 0, pretend = 0, frame = 0
 4374              		@ frame_needed = 0, uses_anonymous_args = 0
 4375              		@ link register save eliminated.
ARM GAS  /tmp/ccwIw6h8.s 			page 78


 4376              		.loc 1 749 0
 4377 0000 0D4A     		ldr	r2, .L302
 4378 0002 0E4B     		ldr	r3, .L302+4
 4379 0004 92ED000A 		flds	s0, [r2]
 4380 0008 1B8A     		ldrh	r3, [r3, #16]
 4381 000a 9FED0D6A 		flds	s12, .L302+8
 4382 000e 0D4A     		ldr	r2, .L302+12
 4383 0010 DFED0D6A 		flds	s13, .L302+16
 4384 0014 92ED007A 		flds	s14, [r2]
 4385 0018 9BB2     		uxth	r3, r3
 4386 001a 05EE903A 		fmsr	s11, r3	@ int
 4387 001e F8EE657A 		fuitos	s15, s11
 4388 0022 B0EEC77A 		fabss	s14, s14
 4389 0026 67EE867A 		fmuls	s15, s15, s12
 4390 002a 67EEA67A 		fmuls	s15, s15, s13
 4391 002e 67EE877A 		fmuls	s15, s15, s14
 4392              		.loc 1 750 0
 4393 0032 80EE270A 		fdivs	s0, s0, s15
 4394 0036 7047     		bx	lr
 4395              	.L303:
 4396              		.align	2
 4397              	.L302:
 4398 0038 00000000 		.word	.LANCHOR10
 4399 003c 00000000 		.word	ADC_Value
 4400 0040 6740533A 		.word	978534503
 4401 0044 00000000 		.word	.LANCHOR24
 4402 0048 74D19541 		.word	1100337524
 4403              		.cfi_endproc
 4404              	.LFE274:
 4405              		.size	mcpwm_get_kv, .-mcpwm_get_kv
 4406 004c AFF30080 		.section	.text.mcpwm_get_kv_filtered,"ax",%progbits
 4407              		.align	2
 4408              		.p2align 4,,15
 4409              		.global	mcpwm_get_kv_filtered
 4410              		.thumb
 4411              		.thumb_func
 4412              		.type	mcpwm_get_kv_filtered, %function
 4413              	mcpwm_get_kv_filtered:
 4414              	.LFB275:
 4415              		.loc 1 760 0
 4416              		.cfi_startproc
 4417              		@ args = 0, pretend = 0, frame = 0
 4418              		@ frame_needed = 0, uses_anonymous_args = 0
 4419              		@ link register save eliminated.
 4420              		.loc 1 761 0
 4421 0000 034B     		ldr	r3, .L305
 4422 0002 0448     		ldr	r0, .L305+4
 4423 0004 1B68     		ldr	r3, [r3]
 4424 0006 0449     		ldr	r1, .L305+8
 4425 0008 0722     		movs	r2, #7
 4426 000a FFF7FEBF 		b	filter_run_fir_iteration
 4427              	.LVL358:
 4428              	.L306:
 4429 000e 00BF     		.align	2
 4430              	.L305:
 4431 0010 00000000 		.word	.LANCHOR27
 4432 0014 00000000 		.word	.LANCHOR26
ARM GAS  /tmp/ccwIw6h8.s 			page 79


 4433 0018 00000000 		.word	.LANCHOR46
 4434              		.cfi_endproc
 4435              	.LFE275:
 4436              		.size	mcpwm_get_kv_filtered, .-mcpwm_get_kv_filtered
 4437 001c AFF30080 		.section	.text.mcpwm_get_tot_current,"ax",%progbits
 4438              		.align	2
 4439              		.p2align 4,,15
 4440              		.global	mcpwm_get_tot_current
 4441              		.thumb
 4442              		.thumb_func
 4443              		.type	mcpwm_get_tot_current, %function
 4444              	mcpwm_get_tot_current:
 4445              	.LFB276:
 4446              		.loc 1 775 0
 4447              		.cfi_startproc
 4448              		@ args = 0, pretend = 0, frame = 0
 4449              		@ frame_needed = 0, uses_anonymous_args = 0
 4450              		@ link register save eliminated.
 4451              		.loc 1 776 0
 4452 0000 014B     		ldr	r3, .L308
 4453 0002 93ED000A 		flds	s0, [r3]
 4454              		.loc 1 777 0
 4455 0006 7047     		bx	lr
 4456              	.L309:
 4457              		.align	2
 4458              	.L308:
 4459 0008 00000000 		.word	.LANCHOR38
 4460              		.cfi_endproc
 4461              	.LFE276:
 4462              		.size	mcpwm_get_tot_current, .-mcpwm_get_tot_current
 4463 000c AFF30080 		.section	.text.mcpwm_get_tot_current_filtered,"ax",%progbits
 4464              		.align	2
 4465              		.p2align 4,,15
 4466              		.global	mcpwm_get_tot_current_filtered
 4467              		.thumb
 4468              		.thumb_func
 4469              		.type	mcpwm_get_tot_current_filtered, %function
 4470              	mcpwm_get_tot_current_filtered:
 4471              	.LFB277:
 4472              		.loc 1 787 0
 4473              		.cfi_startproc
 4474              		@ args = 0, pretend = 0, frame = 0
 4475              		@ frame_needed = 0, uses_anonymous_args = 0
 4476              		@ link register save eliminated.
 4477              		.loc 1 788 0
 4478 0000 014B     		ldr	r3, .L311
 4479 0002 93ED000A 		flds	s0, [r3]
 4480              		.loc 1 789 0
 4481 0006 7047     		bx	lr
 4482              	.L312:
 4483              		.align	2
 4484              	.L311:
 4485 0008 00000000 		.word	.LANCHOR39
 4486              		.cfi_endproc
 4487              	.LFE277:
 4488              		.size	mcpwm_get_tot_current_filtered, .-mcpwm_get_tot_current_filtered
 4489 000c AFF30080 		.section	.text.mcpwm_get_tot_current_directional,"ax",%progbits
ARM GAS  /tmp/ccwIw6h8.s 			page 80


 4490              		.align	2
 4491              		.p2align 4,,15
 4492              		.global	mcpwm_get_tot_current_directional
 4493              		.thumb
 4494              		.thumb_func
 4495              		.type	mcpwm_get_tot_current_directional, %function
 4496              	mcpwm_get_tot_current_directional:
 4497              	.LFB278:
 4498              		.loc 1 798 0
 4499              		.cfi_startproc
 4500              		@ args = 0, pretend = 0, frame = 0
 4501              		@ frame_needed = 0, uses_anonymous_args = 0
 4502              		@ link register save eliminated.
 4503              	.LBB129:
 4504              	.LBB130:
 4505              		.loc 1 776 0
 4506 0000 064A     		ldr	r2, .L316
 4507              	.LBE130:
 4508              	.LBE129:
 4509              		.loc 1 800 0
 4510 0002 074B     		ldr	r3, .L316+4
 4511              	.LBB132:
 4512              	.LBB131:
 4513              		.loc 1 776 0
 4514 0004 92ED000A 		flds	s0, [r2]
 4515              	.LBE131:
 4516              	.LBE132:
 4517              		.loc 1 800 0
 4518 0008 D3ED007A 		flds	s15, [r3]
 4519 000c F5EEC07A 		fcmpezs	s15
 4520 0010 F1EE10FA 		fmstat
 4521 0014 D8BF     		it	le
 4522 0016 B1EE400A 		fnegsle	s0, s0
 4523              		.loc 1 801 0
 4524 001a 7047     		bx	lr
 4525              	.L317:
 4526              		.align	2
 4527              	.L316:
 4528 001c 00000000 		.word	.LANCHOR38
 4529 0020 00000000 		.word	.LANCHOR24
 4530              		.cfi_endproc
 4531              	.LFE278:
 4532              		.size	mcpwm_get_tot_current_directional, .-mcpwm_get_tot_current_directional
 4533 0024 AFF30080 		.section	.text.mcpwm_get_tot_current_directional_filtered,"ax",%progbits
 4533      AFF30080 
 4533      AFF30080 
 4534              		.align	2
 4535              		.p2align 4,,15
 4536              		.global	mcpwm_get_tot_current_directional_filtered
 4537              		.thumb
 4538              		.thumb_func
 4539              		.type	mcpwm_get_tot_current_directional_filtered, %function
 4540              	mcpwm_get_tot_current_directional_filtered:
 4541              	.LFB279:
 4542              		.loc 1 810 0
 4543              		.cfi_startproc
 4544              		@ args = 0, pretend = 0, frame = 0
ARM GAS  /tmp/ccwIw6h8.s 			page 81


 4545              		@ frame_needed = 0, uses_anonymous_args = 0
 4546              		@ link register save eliminated.
 4547              	.LBB133:
 4548              	.LBB134:
 4549              		.loc 1 788 0
 4550 0000 064A     		ldr	r2, .L321
 4551              	.LBE134:
 4552              	.LBE133:
 4553              		.loc 1 812 0
 4554 0002 074B     		ldr	r3, .L321+4
 4555              	.LBB136:
 4556              	.LBB135:
 4557              		.loc 1 788 0
 4558 0004 92ED000A 		flds	s0, [r2]
 4559              	.LBE135:
 4560              	.LBE136:
 4561              		.loc 1 812 0
 4562 0008 D3ED007A 		flds	s15, [r3]
 4563 000c F5EEC07A 		fcmpezs	s15
 4564 0010 F1EE10FA 		fmstat
 4565 0014 D8BF     		it	le
 4566 0016 B1EE400A 		fnegsle	s0, s0
 4567              		.loc 1 813 0
 4568 001a 7047     		bx	lr
 4569              	.L322:
 4570              		.align	2
 4571              	.L321:
 4572 001c 00000000 		.word	.LANCHOR39
 4573 0020 00000000 		.word	.LANCHOR24
 4574              		.cfi_endproc
 4575              	.LFE279:
 4576              		.size	mcpwm_get_tot_current_directional_filtered, .-mcpwm_get_tot_current_directional_filtered
 4577 0024 AFF30080 		.section	.text.mcpwm_get_tot_current_in,"ax",%progbits
 4577      AFF30080 
 4577      AFF30080 
 4578              		.align	2
 4579              		.p2align 4,,15
 4580              		.global	mcpwm_get_tot_current_in
 4581              		.thumb
 4582              		.thumb_func
 4583              		.type	mcpwm_get_tot_current_in, %function
 4584              	mcpwm_get_tot_current_in:
 4585              	.LFB280:
 4586              		.loc 1 821 0
 4587              		.cfi_startproc
 4588              		@ args = 0, pretend = 0, frame = 0
 4589              		@ frame_needed = 0, uses_anonymous_args = 0
 4590              		@ link register save eliminated.
 4591              	.LBB137:
 4592              	.LBB138:
 4593              		.loc 1 776 0
 4594 0000 054A     		ldr	r2, .L324
 4595              	.LBE138:
 4596              	.LBE137:
 4597              		.loc 1 822 0
 4598 0002 064B     		ldr	r3, .L324+4
 4599              	.LBB140:
ARM GAS  /tmp/ccwIw6h8.s 			page 82


 4600              	.LBB139:
 4601              		.loc 1 776 0
 4602 0004 D2ED007A 		flds	s15, [r2]
 4603              	.LBE139:
 4604              	.LBE140:
 4605              		.loc 1 822 0
 4606 0008 93ED000A 		flds	s0, [r3]
 4607 000c B0EEC00A 		fabss	s0, s0
 4608              		.loc 1 823 0
 4609 0010 20EE270A 		fmuls	s0, s0, s15
 4610 0014 7047     		bx	lr
 4611              	.L325:
 4612 0016 00BF     		.align	2
 4613              	.L324:
 4614 0018 00000000 		.word	.LANCHOR38
 4615 001c 00000000 		.word	.LANCHOR24
 4616              		.cfi_endproc
 4617              	.LFE280:
 4618              		.size	mcpwm_get_tot_current_in, .-mcpwm_get_tot_current_in
 4619              		.section	.text.mcpwm_get_tot_current_in_filtered,"ax",%progbits
 4620              		.align	2
 4621              		.p2align 4,,15
 4622              		.global	mcpwm_get_tot_current_in_filtered
 4623              		.thumb
 4624              		.thumb_func
 4625              		.type	mcpwm_get_tot_current_in_filtered, %function
 4626              	mcpwm_get_tot_current_in_filtered:
 4627              	.LFB281:
 4628              		.loc 1 831 0
 4629              		.cfi_startproc
 4630              		@ args = 0, pretend = 0, frame = 0
 4631              		@ frame_needed = 0, uses_anonymous_args = 0
 4632              		@ link register save eliminated.
 4633              	.LBB141:
 4634              	.LBB142:
 4635              		.loc 1 788 0
 4636 0000 054A     		ldr	r2, .L327
 4637              	.LBE142:
 4638              	.LBE141:
 4639              		.loc 1 832 0
 4640 0002 064B     		ldr	r3, .L327+4
 4641              	.LBB144:
 4642              	.LBB143:
 4643              		.loc 1 788 0
 4644 0004 D2ED007A 		flds	s15, [r2]
 4645              	.LBE143:
 4646              	.LBE144:
 4647              		.loc 1 832 0
 4648 0008 93ED000A 		flds	s0, [r3]
 4649 000c B0EEC00A 		fabss	s0, s0
 4650              		.loc 1 833 0
 4651 0010 20EE270A 		fmuls	s0, s0, s15
 4652 0014 7047     		bx	lr
 4653              	.L328:
 4654 0016 00BF     		.align	2
 4655              	.L327:
 4656 0018 00000000 		.word	.LANCHOR39
ARM GAS  /tmp/ccwIw6h8.s 			page 83


 4657 001c 00000000 		.word	.LANCHOR24
 4658              		.cfi_endproc
 4659              	.LFE281:
 4660              		.size	mcpwm_get_tot_current_in_filtered, .-mcpwm_get_tot_current_in_filtered
 4661              		.section	.text.mcpwm_get_tachometer_value,"ax",%progbits
 4662              		.align	2
 4663              		.p2align 4,,15
 4664              		.global	mcpwm_get_tachometer_value
 4665              		.thumb
 4666              		.thumb_func
 4667              		.type	mcpwm_get_tachometer_value, %function
 4668              	mcpwm_get_tachometer_value:
 4669              	.LFB282:
 4670              		.loc 1 846 0
 4671              		.cfi_startproc
 4672              		@ args = 0, pretend = 0, frame = 0
 4673              		@ frame_needed = 0, uses_anonymous_args = 0
 4674              		@ link register save eliminated.
 4675              	.LVL359:
 4676              		.loc 1 847 0
 4677 0000 034B     		ldr	r3, .L334
 4678 0002 1A68     		ldr	r2, [r3]
 4679              	.LVL360:
 4680              		.loc 1 849 0
 4681 0004 08B1     		cbz	r0, .L330
 4682              		.loc 1 850 0
 4683 0006 0021     		movs	r1, #0
 4684 0008 1960     		str	r1, [r3]
 4685              	.L330:
 4686              		.loc 1 854 0
 4687 000a 1046     		mov	r0, r2
 4688              	.LVL361:
 4689 000c 7047     		bx	lr
 4690              	.L335:
 4691 000e 00BF     		.align	2
 4692              	.L334:
 4693 0010 00000000 		.word	.LANCHOR9
 4694              		.cfi_endproc
 4695              	.LFE282:
 4696              		.size	mcpwm_get_tachometer_value, .-mcpwm_get_tachometer_value
 4697 0014 AFF30080 		.section	.text.mcpwm_get_tachometer_abs_value,"ax",%progbits
 4697      AFF30080 
 4697      AFF30080 
 4698              		.align	2
 4699              		.p2align 4,,15
 4700              		.global	mcpwm_get_tachometer_abs_value
 4701              		.thumb
 4702              		.thumb_func
 4703              		.type	mcpwm_get_tachometer_abs_value, %function
 4704              	mcpwm_get_tachometer_abs_value:
 4705              	.LFB283:
 4706              		.loc 1 866 0
 4707              		.cfi_startproc
 4708              		@ args = 0, pretend = 0, frame = 0
 4709              		@ frame_needed = 0, uses_anonymous_args = 0
 4710              		@ link register save eliminated.
 4711              	.LVL362:
ARM GAS  /tmp/ccwIw6h8.s 			page 84


 4712              		.loc 1 867 0
 4713 0000 034B     		ldr	r3, .L341
 4714 0002 1A68     		ldr	r2, [r3]
 4715              	.LVL363:
 4716              		.loc 1 869 0
 4717 0004 08B1     		cbz	r0, .L337
 4718              		.loc 1 870 0
 4719 0006 0021     		movs	r1, #0
 4720 0008 1960     		str	r1, [r3]
 4721              	.L337:
 4722              		.loc 1 874 0
 4723 000a 1046     		mov	r0, r2
 4724              	.LVL364:
 4725 000c 7047     		bx	lr
 4726              	.L342:
 4727 000e 00BF     		.align	2
 4728              	.L341:
 4729 0010 00000000 		.word	.LANCHOR8
 4730              		.cfi_endproc
 4731              	.LFE283:
 4732              		.size	mcpwm_get_tachometer_abs_value, .-mcpwm_get_tachometer_abs_value
 4733 0014 AFF30080 		.section	.text.mcpwm_stop_pwm,"ax",%progbits
 4733      AFF30080 
 4733      AFF30080 
 4734              		.align	2
 4735              		.p2align 4,,15
 4736              		.global	mcpwm_stop_pwm
 4737              		.thumb
 4738              		.thumb_func
 4739              		.type	mcpwm_stop_pwm, %function
 4740              	mcpwm_stop_pwm:
 4741              	.LFB284:
 4742              		.loc 1 879 0
 4743              		.cfi_startproc
 4744              		@ args = 0, pretend = 0, frame = 0
 4745              		@ frame_needed = 0, uses_anonymous_args = 0
 4746              		@ link register save eliminated.
 4747              		.loc 1 880 0
 4748 0000 0648     		ldr	r0, .L344
 4749              	.LBB145:
 4750              	.LBB146:
 4751              		.loc 1 885 0
 4752 0002 0749     		ldr	r1, .L344+4
 4753              		.loc 1 886 0
 4754 0004 074A     		ldr	r2, .L344+8
 4755              	.LBE146:
 4756              	.LBE145:
 4757              		.loc 1 879 0
 4758 0006 10B4     		push	{r4}
 4759              		.cfi_def_cfa_offset 4
 4760              		.cfi_offset 4, -4
 4761              		.loc 1 880 0
 4762 0008 0724     		movs	r4, #7
 4763 000a 0470     		strb	r4, [r0]
 4764              	.LBB149:
 4765              	.LBB147:
 4766              		.loc 1 885 0
ARM GAS  /tmp/ccwIw6h8.s 			page 85


 4767 000c 0023     		movs	r3, #0
 4768              	.LBE147:
 4769              	.LBE149:
 4770              		.loc 1 882 0
 4771 000e 5DF8044B 		ldr	r4, [sp], #4
 4772              	.LBB150:
 4773              	.LBB148:
 4774              		.loc 1 885 0
 4775 0012 0B70     		strb	r3, [r1]
 4776              		.loc 1 886 0
 4777 0014 1360     		str	r3, [r2]
 4778              		.loc 1 887 0
 4779 0016 FFF7FEBF 		b	stop_pwm_hw
 4780              	.LVL365:
 4781              	.L345:
 4782 001a 00BF     		.align	2
 4783              	.L344:
 4784 001c 00000000 		.word	.LANCHOR37
 4785 0020 00000000 		.word	.LANCHOR2
 4786 0024 00000000 		.word	.LANCHOR40
 4787              	.LBE148:
 4788              	.LBE150:
 4789              		.cfi_endproc
 4790              	.LFE284:
 4791              		.size	mcpwm_stop_pwm, .-mcpwm_stop_pwm
 4792 0028 AFF30080 		.section	.text.mcpwm_adc_inj_int_handler,"ax",%progbits
 4792      AFF30080 
 4793              		.align	2
 4794              		.p2align 4,,15
 4795              		.global	mcpwm_adc_inj_int_handler
 4796              		.thumb
 4797              		.thumb_func
 4798              		.type	mcpwm_adc_inj_int_handler, %function
 4799              	mcpwm_adc_inj_int_handler:
 4800              	.LFB296:
 4801              		.loc 1 1427 0
 4802              		.cfi_startproc
 4803              		@ args = 0, pretend = 0, frame = 0
 4804              		@ frame_needed = 0, uses_anonymous_args = 0
 4805 0000 2DE9F041 		push	{r4, r5, r6, r7, r8, lr}
 4806              		.cfi_def_cfa_offset 24
 4807              		.cfi_offset 4, -24
 4808              		.cfi_offset 5, -20
 4809              		.cfi_offset 6, -16
 4810              		.cfi_offset 7, -12
 4811              		.cfi_offset 8, -8
 4812              		.cfi_offset 14, -4
 4813              		.loc 1 1428 0
 4814 0004 AA4B     		ldr	r3, .L414
 4815              		.loc 1 1430 0
 4816 0006 AB48     		ldr	r0, .L414+4
 4817              		.loc 1 1428 0
 4818 0008 0022     		movs	r2, #0
 4819              		.loc 1 1427 0
 4820 000a 2DED028B 		fstmfdd	sp!, {d8}
 4821              		.cfi_def_cfa_offset 32
 4822              		.cfi_offset 80, -32
ARM GAS  /tmp/ccwIw6h8.s 			page 86


 4823              		.loc 1 1430 0
 4824 000e 1421     		movs	r1, #20
 4825              		.loc 1 1428 0
 4826 0010 5A62     		str	r2, [r3, #36]
 4827              		.loc 1 1430 0
 4828 0012 FFF7FEFF 		bl	ADC_GetInjectedConversionValue
 4829              	.LVL366:
 4830              		.loc 1 1431 0
 4831 0016 1421     		movs	r1, #20
 4832              		.loc 1 1430 0
 4833 0018 0446     		mov	r4, r0
 4834              	.LVL367:
 4835              		.loc 1 1431 0
 4836 001a A748     		ldr	r0, .L414+8
 4837              	.LVL368:
 4838 001c FFF7FEFF 		bl	ADC_GetInjectedConversionValue
 4839              	.LVL369:
 4840              		.loc 1 1433 0
 4841 0020 1821     		movs	r1, #24
 4842              		.loc 1 1431 0
 4843 0022 0746     		mov	r7, r0
 4844              	.LVL370:
 4845              		.loc 1 1433 0
 4846 0024 A448     		ldr	r0, .L414+8
 4847              	.LVL371:
 4848 0026 FFF7FEFF 		bl	ADC_GetInjectedConversionValue
 4849              	.LVL372:
 4850              		.loc 1 1434 0
 4851 002a A248     		ldr	r0, .L414+4
 4852 002c 1821     		movs	r1, #24
 4853 002e FFF7FEFF 		bl	ADC_GetInjectedConversionValue
 4854              	.LVL373:
 4855              		.loc 1 1446 0
 4856 0032 A24B     		ldr	r3, .L414+12
 4857 0034 1A68     		ldr	r2, [r3]
 4858 0036 D207     		lsls	r2, r2, #31
 4859              		.loc 1 1447 0
 4860 0038 44BF     		itt	mi
 4861 003a A14A     		ldrmi	r2, .L414+16
 4862 003c B2F808E0 		ldrhmi	lr, [r2, #8]
 4863              		.loc 1 1450 0
 4864 0040 1B68     		ldr	r3, [r3]
 4865              		.loc 1 1430 0
 4866 0042 54BF     		ite	pl
 4867 0044 A646     		movpl	lr, r4
 4868              		.loc 1 1447 0
 4869 0046 1FFA8EFE 		uxthmi	lr, lr
 4870              	.LVL374:
 4871              		.loc 1 1450 0
 4872 004a 9B07     		lsls	r3, r3, #30
 4873 004c 02D5     		bpl	.L350
 4874              		.loc 1 1451 0
 4875 004e 9C4B     		ldr	r3, .L414+16
 4876 0050 DF88     		ldrh	r7, [r3, #6]
 4877              	.LVL375:
 4878 0052 BFB2     		uxth	r7, r7
 4879              	.LVL376:
ARM GAS  /tmp/ccwIw6h8.s 			page 87


 4880              	.L350:
 4881              		.loc 1 1473 0
 4882 0054 9B4E     		ldr	r6, .L414+20
 4883              		.loc 1 1474 0
 4884 0056 9C4D     		ldr	r5, .L414+24
 4885              		.loc 1 1473 0
 4886 0058 3068     		ldr	r0, [r6]
 4887              		.loc 1 1479 0
 4888 005a 9C49     		ldr	r1, .L414+28
 4889              		.loc 1 1481 0
 4890 005c 9C4B     		ldr	r3, .L414+32
 4891              		.loc 1 1482 0
 4892 005e 9D4A     		ldr	r2, .L414+36
 4893              		.loc 1 1511 0
 4894 0060 9D4C     		ldr	r4, .L414+40
 4895              	.LVL377:
 4896              		.loc 1 1521 0
 4897 0062 DFF8C082 		ldr	r8, .L414+116
 4898              		.loc 1 1473 0
 4899 0066 7044     		add	r0, r0, lr
 4900 0068 3060     		str	r0, [r6]
 4901              		.loc 1 1474 0
 4902 006a 2E68     		ldr	r6, [r5]
 4903              		.loc 1 1521 0
 4904 006c D8F80000 		ldr	r0, [r8]
 4905              		.loc 1 1474 0
 4906 0070 3E44     		add	r6, r6, r7
 4907 0072 2E60     		str	r6, [r5]
 4908              		.loc 1 1479 0
 4909 0074 0D68     		ldr	r5, [r1]
 4910 0076 0135     		adds	r5, r5, #1
 4911 0078 0D60     		str	r5, [r1]
 4912              		.loc 1 1481 0
 4913 007a 1968     		ldr	r1, [r3]
 4914              		.loc 1 1482 0
 4915 007c 1168     		ldr	r1, [r2]
 4916              		.loc 1 1483 0
 4917 007e 1968     		ldr	r1, [r3]
 4918              		.loc 1 1484 0
 4919 0080 1568     		ldr	r5, [r2]
 4920              		.loc 1 1485 0
 4921 0082 1E68     		ldr	r6, [r3]
 4922              		.loc 1 1486 0
 4923 0084 1668     		ldr	r6, [r2]
 4924              		.loc 1 1483 0
 4925 0086 C1EB0E01 		rsb	r1, r1, lr
 4926              	.LVL378:
 4927              		.loc 1 1484 0
 4928 008a 7F1B     		subs	r7, r7, r5
 4929              	.LVL379:
 4930              		.loc 1 1511 0
 4931 008c 2160     		str	r1, [r4]
 4932              		.loc 1 1512 0
 4933 008e 6760     		str	r7, [r4, #4]
 4934              		.loc 1 1517 0
 4935 0090 2568     		ldr	r5, [r4]
 4936 0092 6168     		ldr	r1, [r4, #4]
ARM GAS  /tmp/ccwIw6h8.s 			page 88


 4937              	.LVL380:
 4938 0094 2944     		add	r1, r1, r5
 4939 0096 4942     		negs	r1, r1
 4940 0098 A160     		str	r1, [r4, #8]
 4941              	.LVL381:
 4942              		.loc 1 1521 0
 4943 009a 8178     		ldrb	r1, [r0, #2]	@ zero_extendqisi2
 4944 009c 0129     		cmp	r1, #1
 4945 009e 23D0     		beq	.L409
 4946              	.LBB151:
 4947              		.loc 1 1554 0
 4948 00a0 8E4E     		ldr	r6, .L414+44
 4949 00a2 3378     		ldrb	r3, [r6]	@ zero_extendqisi2
 4950 00a4 032B     		cmp	r3, #3
 4951 00a6 00F08A81 		beq	.L410
 4952              	.LBB152:
 4953              		.loc 1 1583 0
 4954 00aa 8D4B     		ldr	r3, .L414+48
 4955 00ac 1B68     		ldr	r3, [r3]
 4956 00ae 6BB1     		cbz	r3, .L357
 4957              		.loc 1 1584 0
 4958 00b0 8C4B     		ldr	r3, .L414+52
 4959 00b2 1A68     		ldr	r2, [r3]
 4960 00b4 013A     		subs	r2, r2, #1
 4961 00b6 052A     		cmp	r2, #5
 4962 00b8 00F2B481 		bhi	.L392
 4963 00bc DFE812F0 		tbh	[pc, r2, lsl #1]
 4964              	.L360:
 4965 00c0 7500     		.2byte	(.L370-.L360)/2
 4966 00c2 7500     		.2byte	(.L370-.L360)/2
 4967 00c4 ED00     		.2byte	(.L368-.L360)/2
 4968 00c6 F200     		.2byte	(.L366-.L360)/2
 4969 00c8 E600     		.2byte	(.L372-.L360)/2
 4970 00ca E600     		.2byte	(.L372-.L360)/2
 4971              		.p2align 1
 4972              	.L357:
 4973              		.loc 1 1594 0
 4974 00cc 854B     		ldr	r3, .L414+52
 4975 00ce 1A68     		ldr	r2, [r3]
 4976 00d0 013A     		subs	r2, r2, #1
 4977 00d2 052A     		cmp	r2, #5
 4978 00d4 00F2A681 		bhi	.L392
 4979 00d8 DFE812F0 		tbh	[pc, r2, lsl #1]
 4980              	.L367:
 4981 00dc E400     		.2byte	(.L366-.L367)/2
 4982 00de DF00     		.2byte	(.L368-.L367)/2
 4983 00e0 6700     		.2byte	(.L370-.L367)/2
 4984 00e2 6700     		.2byte	(.L370-.L367)/2
 4985 00e4 D800     		.2byte	(.L372-.L367)/2
 4986 00e6 D800     		.2byte	(.L372-.L367)/2
 4987              		.p2align 1
 4988              	.L409:
 4989              	.LBE152:
 4990              	.LBE151:
 4991              		.loc 1 1522 0
 4992 00e8 7D49     		ldr	r1, .L414+48
 4993 00ea 0968     		ldr	r1, [r1]
ARM GAS  /tmp/ccwIw6h8.s 			page 89


 4994 00ec 0029     		cmp	r1, #0
 4995 00ee 57D1     		bne	.L411
 4996              		.loc 1 1529 0
 4997 00f0 734A     		ldr	r2, .L414+16
 4998 00f2 1289     		ldrh	r2, [r2, #8]
 4999 00f4 1B68     		ldr	r3, [r3]
 5000 00f6 92B2     		uxth	r2, r2
 5001              	.L407:
 5002 00f8 D31A     		subs	r3, r2, r3
 5003 00fa 08EE103A 		fmsr	s16, r3	@ int
 5004 00fe B8EEC88A 		fsitos	s16, s16
 5005 0102 0246     		mov	r2, r0
 5006 0104 B1EE488A 		fnegs	s16, s16
 5007              	.LVL382:
 5008              	.L353:
 5009              		.loc 1 1684 0
 5010 0108 DFED776A 		flds	s13, .L414+56
 5011 010c 774B     		ldr	r3, .L414+60
 5012              		.loc 1 1687 0
 5013 010e DFED787A 		flds	s15, .L414+64
 5014              		.loc 1 1684 0
 5015 0112 28EE267A 		fmuls	s14, s16, s13
 5016 0116 83ED007A 		fsts	s14, [r3]
 5017              		.loc 1 1687 0
 5018 011a D3ED006A 		flds	s13, [r3]
 5019 011e 92ED057A 		flds	s14, [r2, #20]
 5020 0122 27EE277A 		fmuls	s14, s14, s15
 5021 0126 F0EEE66A 		fabss	s13, s13
 5022 012a F4EEC76A 		fcmpes	s13, s14
 5023 012e F1EE10FA 		fmstat
 5024 0132 14DD     		ble	.L387
 5025              		.loc 1 1688 0
 5026 0134 93ED007A 		flds	s14, [r3]
 5027 0138 D2ED056A 		flds	s13, [r2, #20]
 5028 013c B5EEC07A 		fcmpezs	s14
 5029 0140 F1EE10FA 		fmstat
 5030 0144 BFEE006A 		fconsts	s12, #240
 5031 0148 B7EE007A 		fconsts	s14, #112
 5032 014c 48BF     		it	mi
 5033 014e B0EE467A 		fcpysmi	s14, s12
 5034 0152 27EE267A 		fmuls	s14, s14, s13
 5035 0156 67EE277A 		fmuls	s15, s14, s15
 5036 015a C3ED007A 		fsts	s15, [r3]
 5037              	.L387:
 5038              		.loc 1 1691 0
 5039 015e 654C     		ldr	r4, .L414+68
 5040 0160 93ED000A 		flds	s0, [r3]
 5041 0164 6448     		ldr	r0, .L414+72
 5042 0166 2246     		mov	r2, r4
 5043 0168 0421     		movs	r1, #4
 5044 016a FFF7FEFF 		bl	filter_add_sample
 5045              	.LVL383:
 5046              		.loc 1 1693 0
 5047 016e 2368     		ldr	r3, [r4]
 5048 0170 6148     		ldr	r0, .L414+72
 5049 0172 6249     		ldr	r1, .L414+76
 5050 0174 0422     		movs	r2, #4
ARM GAS  /tmp/ccwIw6h8.s 			page 90


 5051 0176 FFF7FEFF 		bl	filter_run_fir_iteration
 5052              	.LVL384:
 5053 017a 614A     		ldr	r2, .L414+80
 5054              		.loc 1 1697 0
 5055 017c 4C4B     		ldr	r3, .L414
 5056              		.loc 1 1693 0
 5057 017e 82ED000A 		fsts	s0, [r2]
 5058              		.loc 1 1697 0
 5059 0182 D3ED097A 		flds	s15, [r3, #36]	@ int
 5060 0186 9FED5F7A 		flds	s14, .L414+84
 5061 018a 5F4B     		ldr	r3, .L414+88
 5062 018c F8EE677A 		fuitos	s15, s15
 5063              		.loc 1 1698 0
 5064 0190 BDEC028B 		fldmfdd	sp!, {d8}
 5065              	.LVL385:
 5066              		.loc 1 1697 0
 5067 0194 C7EE877A 		fdivs	s15, s15, s14
 5068 0198 C3ED007A 		fsts	s15, [r3]
 5069              		.loc 1 1698 0
 5070 019c BDE8F081 		pop	{r4, r5, r6, r7, r8, pc}
 5071              	.LVL386:
 5072              	.L411:
 5073              		.loc 1 1526 0
 5074 01a0 474B     		ldr	r3, .L414+16
 5075 01a2 D988     		ldrh	r1, [r3, #6]
 5076 01a4 1368     		ldr	r3, [r2]
 5077 01a6 8AB2     		uxth	r2, r1
 5078 01a8 A6E7     		b	.L407
 5079              	.L370:
 5080              	.LBB160:
 5081              	.LBB153:
 5082              		.loc 1 1598 0
 5083 01aa D4ED017A 		flds	s15, [r4, #4]	@ int
 5084 01ae F8EEE77A 		fsitos	s15, s15
 5085 01b2 F1EE677A 		fnegs	s15, s15
 5086              	.LVL387:
 5087              	.L358:
 5088              		.loc 1 1609 0
 5089 01b6 554A     		ldr	r2, .L414+92
 5090 01b8 1868     		ldr	r0, [r3]
 5091 01ba 1168     		ldr	r1, [r2]
 5092              		.loc 1 1612 0
 5093 01bc 1B68     		ldr	r3, [r3]
 5094 01be 1360     		str	r3, [r2]
 5095              		.loc 1 1609 0
 5096 01c0 8842     		cmp	r0, r1
 5097              		.loc 1 1610 0
 5098 01c2 16BF     		itet	ne
 5099 01c4 5249     		ldrne	r1, .L414+96
 5100 01c6 5249     		ldreq	r1, .L414+96
 5101 01c8 91ED008A 		fldsne	s16, [r1]
 5102              	.LVL388:
 5103              		.loc 1 1613 0
 5104 01cc C1ED007A 		fsts	s15, [r1]
 5105 01d0 08BF     		it	eq
 5106 01d2 B0EE678A 		fcpyseq	s16, s15
 5107              	.LVL389:
ARM GAS  /tmp/ccwIw6h8.s 			page 91


 5108              	.L356:
 5109              	.LBE153:
 5110              		.loc 1 1616 0
 5111 01d6 4F4D     		ldr	r5, .L414+100
 5112 01d8 2B68     		ldr	r3, [r5]
 5113 01da 042B     		cmp	r3, #4
 5114 01dc 09D0     		beq	.L412
 5115              	.LVL390:
 5116              	.L374:
 5117              		.loc 1 1663 0
 5118 01de 0BB1     		cbz	r3, .L383
 5119              		.loc 1 1664 0
 5120 01e0 013B     		subs	r3, r3, #1
 5121 01e2 2B60     		str	r3, [r5]
 5122              	.L383:
 5123              		.loc 1 1667 0
 5124 01e4 3378     		ldrb	r3, [r6]	@ zero_extendqisi2
 5125 01e6 012B     		cmp	r3, #1
 5126 01e8 00F09E80 		beq	.L384
 5127              	.L408:
 5128 01ec D8F80020 		ldr	r2, [r8]
 5129 01f0 8AE7     		b	.L353
 5130              	.LVL391:
 5131              	.L412:
 5132              	.LBB154:
 5133              		.loc 1 1617 0
 5134 01f2 94ED007A 		flds	s14, [r4]	@ int
 5135              		.loc 1 1618 0
 5136 01f6 D4ED017A 		flds	s15, [r4, #4]	@ int
 5137              		.loc 1 1621 0
 5138 01fa 474B     		ldr	r3, .L414+104
 5139 01fc 474A     		ldr	r2, .L414+108
 5140 01fe 1968     		ldr	r1, [r3]
 5141              		.loc 1 1617 0
 5142 0200 B8EEC77A 		fsitos	s14, s14
 5143              		.loc 1 1618 0
 5144 0204 F8EEE77A 		fsitos	s15, s15
 5145              		.loc 1 1617 0
 5146 0208 B0EEC77A 		fabss	s14, s14
 5147              	.LVL392:
 5148              		.loc 1 1618 0
 5149 020c F0EEE77A 		fabss	s15, s15
 5150              	.LVL393:
 5151              		.loc 1 1620 0
 5152 0210 B4EEE77A 		fcmpes	s14, s15
 5153 0214 F1EE10FA 		fmstat
 5154              		.loc 1 1621 0
 5155 0218 02EB8101 		add	r1, r2, r1, lsl #2
 5156 021c CCBF     		ite	gt
 5157 021e 81ED007A 		fstsgt	s14, [r1]
 5158              		.loc 1 1623 0
 5159 0222 C1ED007A 		fstsle	s15, [r1]
 5160              		.loc 1 1626 0
 5161 0226 1868     		ldr	r0, [r3]
 5162 0228 3B49     		ldr	r1, .L414+104
 5163 022a 0028     		cmp	r0, #0
 5164 022c 40F3E780 		ble	.L378
ARM GAS  /tmp/ccwIw6h8.s 			page 92


 5165              		.loc 1 1627 0
 5166 0230 0C68     		ldr	r4, [r1]
 5167              		.loc 1 1628 0
 5168 0232 0F68     		ldr	r7, [r1]
 5169              	.LVL394:
 5170              		.loc 1 1627 0
 5171 0234 3A48     		ldr	r0, .L414+112
 5172              		.loc 1 1628 0
 5173 0236 013F     		subs	r7, r7, #1
 5174 0238 02EB8707 		add	r7, r2, r7, lsl #2
 5175 023c 97ED007A 		flds	s14, [r7]
 5176              	.LVL395:
 5177 0240 0968     		ldr	r1, [r1]
 5178 0242 02EB8101 		add	r1, r2, r1, lsl #2
 5179 0246 D1ED007A 		flds	s15, [r1]
 5180              	.LVL396:
 5181 024a 77EE677A 		fsubs	s15, s14, s15
 5182              		.loc 1 1627 0
 5183 024e 00EB8401 		add	r1, r0, r4, lsl #2
 5184 0252 C1ED007A 		fsts	s15, [r1]
 5185              	.L379:
 5186              		.loc 1 1634 0
 5187 0256 1A48     		ldr	r0, .L414+16
 5188              		.loc 1 1637 0
 5189 0258 2249     		ldr	r1, .L414+52
 5190              		.loc 1 1634 0
 5191 025a 048A     		ldrh	r4, [r0, #16]
 5192              		.loc 1 1637 0
 5193 025c 0968     		ldr	r1, [r1]
 5194 025e 0139     		subs	r1, r1, #1
 5195 0260 0529     		cmp	r1, #5
 5196              		.loc 1 1634 0
 5197 0262 A4B2     		uxth	r4, r4
 5198              	.LVL397:
 5199 0264 00F28C80 		bhi	.L380
 5200 0268 0127     		movs	r7, #1
 5201 026a 07FA01F1 		lsl	r1, r7, r1
 5202 026e 11F0240F 		tst	r1, #36
 5203 0272 24FA07F4 		lsr	r4, r4, r7
 5204              	.LVL398:
 5205 0276 76D1     		bne	.L381
 5206 0278 11F0120F 		tst	r1, #18
 5207 027c 40F0CF80 		bne	.L382
 5208 0280 11F0090F 		tst	r1, #9
 5209 0284 7CD0     		beq	.L380
 5210              		.loc 1 1640 0
 5211 0286 1F68     		ldr	r7, [r3]
 5212 0288 8088     		ldrh	r0, [r0, #4]
 5213 028a 6EE0     		b	.L406
 5214              	.LVL399:
 5215              	.L372:
 5216              	.LBE154:
 5217              	.LBB155:
 5218              		.loc 1 1600 0
 5219 028c D4ED007A 		flds	s15, [r4]	@ int
 5220 0290 F8EEE77A 		fsitos	s15, s15
 5221 0294 F1EE677A 		fnegs	s15, s15
ARM GAS  /tmp/ccwIw6h8.s 			page 93


 5222              	.LVL400:
 5223 0298 8DE7     		b	.L358
 5224              	.LVL401:
 5225              	.L368:
 5226              		.loc 1 1596 0
 5227 029a D4ED007A 		flds	s15, [r4]	@ int
 5228 029e F8EEE77A 		fsitos	s15, s15
 5229              	.LVL402:
 5230 02a2 88E7     		b	.L358
 5231              	.LVL403:
 5232              	.L366:
 5233              		.loc 1 1595 0
 5234 02a4 D4ED017A 		flds	s15, [r4, #4]	@ int
 5235 02a8 F8EEE77A 		fsitos	s15, s15
 5236              	.LVL404:
 5237 02ac 83E7     		b	.L358
 5238              	.L415:
 5239 02ae 00BF     		.align	2
 5240              	.L414:
 5241 02b0 00180040 		.word	1073747968
 5242 02b4 00200140 		.word	1073815552
 5243 02b8 00210140 		.word	1073815808
 5244 02bc 00000000 		.word	.LANCHOR1
 5245 02c0 00000000 		.word	ADC_Value
 5246 02c4 00000000 		.word	.LANCHOR48
 5247 02c8 00000000 		.word	.LANCHOR49
 5248 02cc 00000000 		.word	.LANCHOR50
 5249 02d0 00000000 		.word	.LANCHOR51
 5250 02d4 00000000 		.word	.LANCHOR52
 5251 02d8 00000000 		.word	ADC_curr_norm_value
 5252 02dc 00000000 		.word	.LANCHOR2
 5253 02e0 00000000 		.word	.LANCHOR4
 5254 02e4 00000000 		.word	.LANCHOR3
 5255 02e8 500AA53D 		.word	1034226256
 5256 02ec 00000000 		.word	.LANCHOR38
 5257 02f0 9A99993F 		.word	1067030938
 5258 02f4 00000000 		.word	.LANCHOR64
 5259 02f8 00000000 		.word	.LANCHOR63
 5260 02fc 00000000 		.word	.LANCHOR47
 5261 0300 00000000 		.word	.LANCHOR39
 5262 0304 8096184B 		.word	1259902592
 5263 0308 00000000 		.word	.LANCHOR65
 5264 030c 00000000 		.word	.LANCHOR55
 5265 0310 00000000 		.word	.LANCHOR56
 5266 0314 00000000 		.word	.LANCHOR57
 5267 0318 00000000 		.word	.LANCHOR32
 5268 031c 00000000 		.word	.LANCHOR58
 5269 0320 00000000 		.word	.LANCHOR59
 5270 0324 00000000 		.word	.LANCHOR0
 5271              	.LVL405:
 5272              	.L384:
 5273              	.LBE155:
 5274              		.loc 1 1667 0 discriminator 1
 5275 0328 2C68     		ldr	r4, [r5]
 5276 032a 424B     		ldr	r3, .L416
 5277 032c 002C     		cmp	r4, #0
 5278 032e 7FF45DAF 		bne	.L408
ARM GAS  /tmp/ccwIw6h8.s 			page 94


 5279              		.loc 1 1668 0
 5280 0332 0522     		movs	r2, #5
 5281              		.loc 1 1670 0
 5282 0334 9FED400A 		flds	s0, .L416+4
 5283              		.loc 1 1668 0
 5284 0338 1A60     		str	r2, [r3]
 5285              		.loc 1 1670 0
 5286 033a FFF7FEFF 		bl	set_duty_cycle_hw
 5287              	.LVL406:
 5288              		.loc 1 1672 0
 5289 033e 3F4B     		ldr	r3, .L416+8
 5290 0340 1A68     		ldr	r2, [r3]
 5291 0342 0132     		adds	r2, r2, #1
 5292 0344 1A60     		str	r2, [r3]
 5293              		.loc 1 1673 0
 5294 0346 1A68     		ldr	r2, [r3]
 5295 0348 052A     		cmp	r2, #5
 5296              		.loc 1 1674 0
 5297 034a C8BF     		it	gt
 5298 034c 1C60     		strgt	r4, [r3]
 5299              		.loc 1 1677 0
 5300 034e 1A68     		ldr	r2, [r3]
 5301 0350 3B4B     		ldr	r3, .L416+12
 5302 0352 0132     		adds	r2, r2, #1
 5303 0354 1A60     		str	r2, [r3]
 5304              		.loc 1 1679 0
 5305 0356 1868     		ldr	r0, [r3]
 5306 0358 FFF7FEFF 		bl	set_next_comm_step
 5307              	.LVL407:
 5308              		.loc 1 1680 0
 5309 035c 3948     		ldr	r0, .L416+16
 5310 035e 2021     		movs	r1, #32
 5311 0360 FFF7FEFF 		bl	TIM_GenerateEvent
 5312              	.LVL408:
 5313 0364 42E7     		b	.L408
 5314              	.L381:
 5315              	.LBB156:
 5316              		.loc 1 1650 0
 5317 0366 1F68     		ldr	r7, [r3]
 5318 0368 0088     		ldrh	r0, [r0]
 5319              	.L406:
 5320 036a 3749     		ldr	r1, .L416+20
 5321 036c 80B2     		uxth	r0, r0
 5322 036e 041B     		subs	r4, r0, r4
 5323 0370 07EE104A 		fmsr	s14, r4	@ int
 5324 0374 F8EEC77A 		fsitos	s15, s14
 5325 0378 01EB8701 		add	r1, r1, r7, lsl #2
 5326 037c C1ED007A 		fsts	s15, [r1]
 5327              	.L380:
 5328              		.loc 1 1657 0
 5329 0380 1C68     		ldr	r4, [r3]
 5330 0382 3249     		ldr	r1, .L416+24
 5331              		.loc 1 1658 0
 5332 0384 3248     		ldr	r0, .L416+28
 5333              		.loc 1 1657 0
 5334 0386 01EB8401 		add	r1, r1, r4, lsl #2
 5335 038a 91ED007A 		flds	s14, [r1]
ARM GAS  /tmp/ccwIw6h8.s 			page 95


 5336 038e 1C68     		ldr	r4, [r3]
 5337 0390 02EB8402 		add	r2, r2, r4, lsl #2
 5338 0394 D2ED007A 		flds	s15, [r2]
 5339 0398 37EE277A 		fadds	s14, s14, s15
 5340              		.loc 1 1658 0
 5341 039c F7EE007A 		fconsts	s15, #112
 5342              		.loc 1 1657 0
 5343 03a0 81ED007A 		fsts	s14, [r1]
 5344              		.loc 1 1658 0
 5345 03a4 1B68     		ldr	r3, [r3]
 5346 03a6 00EB8303 		add	r3, r0, r3, lsl #2
 5347 03aa 93ED007A 		flds	s14, [r3]
 5348 03ae 77EE277A 		fadds	s15, s14, s15
 5349 03b2 C3ED007A 		fsts	s15, [r3]
 5350              		.loc 1 1660 0
 5351 03b6 FFF7FEFF 		bl	stop_pwm_hw
 5352              	.LVL409:
 5353 03ba 2B68     		ldr	r3, [r5]
 5354 03bc 0FE7     		b	.L374
 5355              	.LVL410:
 5356              	.L410:
 5357              	.LBE156:
 5358              	.LBB157:
 5359              		.loc 1 1555 0
 5360 03be D4ED006A 		flds	s13, [r4]	@ int
 5361              		.loc 1 1556 0
 5362 03c2 D4ED017A 		flds	s15, [r4, #4]	@ int
 5363              		.loc 1 1557 0
 5364 03c6 94ED027A 		flds	s14, [r4, #8]	@ int
 5365              		.loc 1 1556 0
 5366 03ca F8EEE77A 		fsitos	s15, s15
 5367              		.loc 1 1555 0
 5368 03ce F8EEE66A 		fsitos	s13, s13
 5369              	.LVL411:
 5370              		.loc 1 1558 0
 5371 03d2 67EEA77A 		fmuls	s15, s15, s15
 5372              	.LVL412:
 5373              		.loc 1 1557 0
 5374 03d6 B8EEC77A 		fsitos	s14, s14
 5375              	.LVL413:
 5376              		.loc 1 1558 0
 5377 03da E6EEA67A 		vfma.f32	s15, s13, s13
 5378 03de F7EE086A 		fconsts	s13, #120
 5379              	.LVL414:
 5380 03e2 E7EE077A 		vfma.f32	s15, s14, s14
 5381 03e6 C7EEA67A 		fdivs	s15, s15, s13
 5382 03ea B1EEE70A 		fsqrts	s0, s15
 5383 03ee B4EE400A 		fcmps	s0, s0
 5384 03f2 F1EE10FA 		fmstat
 5385 03f6 18D1     		bne	.L413
 5386              	.LVL415:
 5387              	.L355:
 5388 03f8 B0EE408A 		fcpys	s16, s0
 5389              	.LVL416:
 5390              	.LBE157:
 5391 03fc EBE6     		b	.L356
 5392              	.LVL417:
ARM GAS  /tmp/ccwIw6h8.s 			page 96


 5393              	.L378:
 5394              	.LBB158:
 5395              		.loc 1 1630 0
 5396 03fe 0868     		ldr	r0, [r1]
 5397              		.loc 1 1631 0
 5398 0400 92ED057A 		flds	s14, [r2, #20]
 5399              	.LVL418:
 5400 0404 0C68     		ldr	r4, [r1]
 5401              		.loc 1 1630 0
 5402 0406 1349     		ldr	r1, .L416+32
 5403              		.loc 1 1631 0
 5404 0408 02EB8404 		add	r4, r2, r4, lsl #2
 5405 040c D4ED007A 		flds	s15, [r4]
 5406              	.LVL419:
 5407 0410 77EE677A 		fsubs	s15, s14, s15
 5408              		.loc 1 1630 0
 5409 0414 01EB8001 		add	r1, r1, r0, lsl #2
 5410 0418 C1ED007A 		fsts	s15, [r1]
 5411 041c 1BE7     		b	.L379
 5412              	.LVL420:
 5413              	.L382:
 5414              		.loc 1 1645 0
 5415 041e 1F68     		ldr	r7, [r3]
 5416 0420 4088     		ldrh	r0, [r0, #2]
 5417 0422 A2E7     		b	.L406
 5418              	.LVL421:
 5419              	.L392:
 5420              	.LBE158:
 5421              	.LBE160:
 5422              		.loc 1 1520 0
 5423 0424 DFED0C7A 		flds	s15, .L416+36
 5424 0428 C5E6     		b	.L358
 5425              	.LVL422:
 5426              	.L413:
 5427              	.LBB161:
 5428              	.LBB159:
 5429              		.loc 1 1558 0
 5430 042a B0EE670A 		fcpys	s0, s15
 5431 042e FFF7FEFF 		bl	sqrtf
 5432              	.LVL423:
 5433 0432 E1E7     		b	.L355
 5434              	.L417:
 5435              		.align	2
 5436              	.L416:
 5437 0434 00000000 		.word	.LANCHOR57
 5438 0438 CDCC4C3E 		.word	1045220557
 5439 043c 00000000 		.word	.LANCHOR32
 5440 0440 00000000 		.word	.LANCHOR3
 5441 0444 00000140 		.word	1073807360
 5442 0448 00000000 		.word	.LANCHOR60
 5443 044c 00000000 		.word	.LANCHOR61
 5444 0450 00000000 		.word	.LANCHOR62
 5445 0454 00000000 		.word	.LANCHOR59
 5446 0458 00000000 		.word	0
 5447              	.LBE159:
 5448              	.LBE161:
 5449              		.cfi_endproc
ARM GAS  /tmp/ccwIw6h8.s 			page 97


 5450              	.LFE296:
 5451              		.size	mcpwm_adc_inj_int_handler, .-mcpwm_adc_inj_int_handler
 5452 045c AFF30080 		.section	.text.mcpwm_set_detect,"ax",%progbits
 5453              		.align	2
 5454              		.p2align 4,,15
 5455              		.global	mcpwm_set_detect
 5456              		.thumb
 5457              		.thumb_func
 5458              		.type	mcpwm_set_detect, %function
 5459              	mcpwm_set_detect:
 5460              	.LFB298:
 5461              		.loc 1 2074 0
 5462              		.cfi_startproc
 5463              		@ args = 0, pretend = 0, frame = 0
 5464              		@ frame_needed = 0, uses_anonymous_args = 0
 5465 0000 F8B5     		push	{r3, r4, r5, r6, r7, lr}
 5466              		.cfi_def_cfa_offset 24
 5467              		.cfi_offset 3, -24
 5468              		.cfi_offset 4, -20
 5469              		.cfi_offset 5, -16
 5470              		.cfi_offset 6, -12
 5471              		.cfi_offset 7, -8
 5472              		.cfi_offset 14, -4
 5473              		.loc 1 2075 0
 5474 0002 FFF7FEFF 		bl	mc_interface_try_input
 5475              	.LVL424:
 5476 0006 0446     		mov	r4, r0
 5477 0008 00B1     		cbz	r0, .L423
 5478 000a F8BD     		pop	{r3, r4, r5, r6, r7, pc}
 5479              	.L423:
 5480              		.loc 1 2079 0
 5481 000c 0E4B     		ldr	r3, .L424
 5482 000e 0F4F     		ldr	r7, .L424+4
 5483 0010 0F4E     		ldr	r6, .L424+8
 5484 0012 104D     		ldr	r5, .L424+12
 5485 0014 0722     		movs	r2, #7
 5486 0016 1A70     		strb	r2, [r3]
 5487              		.loc 1 2080 0
 5488 0018 FFF7FEFF 		bl	stop_pwm_hw
 5489              	.LVL425:
 5490              		.loc 1 2082 0
 5491 001c 0E4B     		ldr	r3, .L424+16
 5492 001e 1B68     		ldr	r3, [r3]
 5493 0020 93ED5A0A 		flds	s0, [r3, #360]
 5494 0024 FFF7FEFF 		bl	set_switching_frequency
 5495              	.LVL426:
 5496              	.LBB162:
 5497              		.loc 1 2085 0
 5498 0028 0022     		movs	r2, #0
 5499              		.loc 1 2084 0
 5500 002a 2046     		mov	r0, r4
 5501              	.LVL427:
 5502              	.L421:
 5503              		.loc 1 2085 0 discriminator 2
 5504 002c 8300     		lsls	r3, r0, #2
 5505 002e FC18     		adds	r4, r7, r3
 5506              		.loc 1 2086 0 discriminator 2
ARM GAS  /tmp/ccwIw6h8.s 			page 98


 5507 0030 F118     		adds	r1, r6, r3
 5508              		.loc 1 2084 0 discriminator 2
 5509 0032 0130     		adds	r0, r0, #1
 5510              	.LVL428:
 5511              		.loc 1 2087 0 discriminator 2
 5512 0034 2B44     		add	r3, r3, r5
 5513              		.loc 1 2084 0 discriminator 2
 5514 0036 0628     		cmp	r0, #6
 5515              		.loc 1 2085 0 discriminator 2
 5516 0038 2260     		str	r2, [r4]	@ float
 5517              		.loc 1 2086 0 discriminator 2
 5518 003a 0A60     		str	r2, [r1]	@ float
 5519              		.loc 1 2087 0 discriminator 2
 5520 003c 1A60     		str	r2, [r3]	@ float
 5521              		.loc 1 2084 0 discriminator 2
 5522 003e F5D1     		bne	.L421
 5523              	.LBE162:
 5524              		.loc 1 2090 0
 5525 0040 064B     		ldr	r3, .L424+20
 5526 0042 0122     		movs	r2, #1
 5527 0044 1A70     		strb	r2, [r3]
 5528 0046 F8BD     		pop	{r3, r4, r5, r6, r7, pc}
 5529              	.L425:
 5530              		.align	2
 5531              	.L424:
 5532 0048 00000000 		.word	.LANCHOR37
 5533 004c 00000000 		.word	.LANCHOR58
 5534 0050 00000000 		.word	.LANCHOR61
 5535 0054 00000000 		.word	.LANCHOR62
 5536 0058 00000000 		.word	.LANCHOR0
 5537 005c 00000000 		.word	.LANCHOR2
 5538              		.cfi_endproc
 5539              	.LFE298:
 5540              		.size	mcpwm_set_detect, .-mcpwm_set_detect
 5541              		.section	.text.mcpwm_get_detect_pos,"ax",%progbits
 5542              		.align	2
 5543              		.p2align 4,,15
 5544              		.global	mcpwm_get_detect_pos
 5545              		.thumb
 5546              		.thumb_func
 5547              		.type	mcpwm_get_detect_pos, %function
 5548              	mcpwm_get_detect_pos:
 5549              	.LFB299:
 5550              		.loc 1 2093 0
 5551              		.cfi_startproc
 5552              		@ args = 0, pretend = 0, frame = 8
 5553              		@ frame_needed = 0, uses_anonymous_args = 0
 5554 0000 30B5     		push	{r4, r5, lr}
 5555              		.cfi_def_cfa_offset 12
 5556              		.cfi_offset 4, -12
 5557              		.cfi_offset 5, -8
 5558              		.cfi_offset 14, -4
 5559              		.loc 1 2095 0
 5560 0002 3F48     		ldr	r0, .L435
 5561 0004 3F4C     		ldr	r4, .L435+4
 5562              		.loc 1 2093 0
 5563 0006 2DED048B 		fstmfdd	sp!, {d8, d9}
ARM GAS  /tmp/ccwIw6h8.s 			page 99


 5564              		.cfi_def_cfa_offset 28
 5565              		.cfi_offset 80, -28
 5566              		.cfi_offset 82, -20
 5567              		.loc 1 2095 0
 5568 000a D4ED009A 		flds	s19, [r4]
 5569 000e D0ED003A 		flds	s7, [r0]
 5570              		.loc 1 2096 0
 5571 0012 94ED019A 		flds	s18, [r4, #4]
 5572 0016 90ED014A 		flds	s8, [r0, #4]
 5573              		.loc 1 2097 0
 5574 001a D4ED028A 		flds	s17, [r4, #8]
 5575 001e D0ED024A 		flds	s9, [r0, #8]
 5576              		.loc 1 2098 0
 5577 0022 94ED035A 		flds	s10, [r4, #12]
 5578 0026 D0ED036A 		flds	s13, [r0, #12]
 5579              		.loc 1 2099 0
 5580 002a D4ED045A 		flds	s11, [r4, #16]
 5581 002e 90ED047A 		flds	s14, [r0, #16]
 5582              		.loc 1 2100 0
 5583 0032 94ED056A 		flds	s12, [r4, #20]
 5584 0036 D0ED057A 		flds	s15, [r0, #20]
 5585              		.loc 1 2095 0
 5586 003a C9EEA39A 		fdivs	s19, s19, s7
 5587              	.LVL429:
 5588              		.loc 1 2093 0
 5589 003e 83B0     		sub	sp, sp, #12
 5590              		.cfi_def_cfa_offset 40
 5591              	.LBB163:
 5592              		.loc 1 2103 0
 5593 0040 0021     		movs	r1, #0
 5594              		.loc 1 2102 0
 5595 0042 0023     		movs	r3, #0
 5596              	.LBE163:
 5597              		.loc 1 2096 0
 5598 0044 89EE049A 		fdivs	s18, s18, s8
 5599              	.LVL430:
 5600              		.loc 1 2097 0
 5601 0048 C8EEA48A 		fdivs	s17, s17, s9
 5602              	.LVL431:
 5603              		.loc 1 2098 0
 5604 004c C5EE266A 		fdivs	s13, s10, s13
 5605              	.LVL432:
 5606              		.loc 1 2099 0
 5607 0050 85EE877A 		fdivs	s14, s11, s14
 5608              	.LVL433:
 5609              		.loc 1 2100 0
 5610 0054 C6EE277A 		fdivs	s15, s12, s15
 5611              	.LVL434:
 5612              	.L428:
 5613              	.LBB164:
 5614              		.loc 1 2103 0 discriminator 2
 5615 0058 9A00     		lsls	r2, r3, #2
 5616 005a A518     		adds	r5, r4, r2
 5617              		.loc 1 2102 0 discriminator 2
 5618 005c 0133     		adds	r3, r3, #1
 5619              	.LVL435:
 5620              		.loc 1 2104 0 discriminator 2
ARM GAS  /tmp/ccwIw6h8.s 			page 100


 5621 005e 0244     		add	r2, r2, r0
 5622              		.loc 1 2102 0 discriminator 2
 5623 0060 062B     		cmp	r3, #6
 5624              		.loc 1 2103 0 discriminator 2
 5625 0062 2960     		str	r1, [r5]	@ float
 5626              		.loc 1 2104 0 discriminator 2
 5627 0064 1160     		str	r1, [r2]	@ float
 5628              		.loc 1 2102 0 discriminator 2
 5629 0066 F7D1     		bne	.L428
 5630              	.LBE164:
 5631              		.loc 1 2107 0
 5632 0068 79EEA69A 		fadds	s19, s19, s13
 5633              	.LVL436:
 5634              		.loc 1 2108 0
 5635 006c 39EE079A 		fadds	s18, s18, s14
 5636              	.LVL437:
 5637              		.loc 1 2109 0
 5638 0070 78EEA78A 		fadds	s17, s17, s15
 5639              	.LVL438:
 5640              		.loc 1 2111 0
 5641 0074 39EE897A 		fadds	s14, s19, s18
 5642              	.LVL439:
 5643 0078 F0EE087A 		fconsts	s15, #8
 5644              	.LVL440:
 5645 007c 37EE287A 		fadds	s14, s14, s17
 5646              		.loc 1 2116 0
 5647 0080 F7EE086A 		fconsts	s13, #120
 5648              	.LVL441:
 5649              		.loc 1 2111 0
 5650 0084 87EE277A 		fdivs	s14, s14, s15
 5651              	.LVL442:
 5652              		.loc 1 2113 0
 5653 0088 39EE479A 		fsubs	s18, s18, s14
 5654              	.LVL443:
 5655              		.loc 1 2112 0
 5656 008c 79EEC79A 		fsubs	s19, s19, s14
 5657              	.LVL444:
 5658              		.loc 1 2116 0
 5659 0090 69EE097A 		fmuls	s15, s18, s18
 5660              		.loc 1 2114 0
 5661 0094 78EEC78A 		fsubs	s17, s17, s14
 5662              	.LVL445:
 5663              		.loc 1 2116 0
 5664 0098 E9EEA97A 		vfma.f32	s15, s19, s19
 5665 009c E8EEA87A 		vfma.f32	s15, s17, s17
 5666 00a0 87EEA60A 		fdivs	s0, s15, s13
 5667 00a4 B1EEC08A 		fsqrts	s16, s0
 5668 00a8 B4EE488A 		fcmps	s16, s16
 5669 00ac F1EE10FA 		fmstat
 5670 00b0 21D1     		bne	.L434
 5671              	.LVL446:
 5672              	.L429:
 5673              		.loc 1 2122 0
 5674 00b2 89EE880A 		fdivs	s0, s19, s16
 5675              	.LVL447:
 5676 00b6 FFF7FEFF 		bl	asinf
 5677              	.LVL448:
ARM GAS  /tmp/ccwIw6h8.s 			page 101


 5678              		.loc 1 2129 0
 5679 00ba 01A8     		add	r0, sp, #4
 5680              		.loc 1 2122 0
 5681 00bc DFED127A 		flds	s15, .L435+8
 5682 00c0 9FED127A 		flds	s14, .L435+12
 5683 00c4 20EE270A 		fmuls	s0, s0, s15
 5684              		.loc 1 2118 0
 5685 00c8 89EE089A 		fdivs	s18, s18, s16
 5686              	.LVL449:
 5687              		.loc 1 2119 0
 5688 00cc 88EE888A 		fdivs	s16, s17, s16
 5689              	.LVL450:
 5690              		.loc 1 2122 0
 5691 00d0 80EE077A 		fdivs	s14, s0, s14
 5692              	.LVL451:
 5693              		.loc 1 2125 0
 5694 00d4 B4EEC89A 		fcmpes	s18, s16
 5695 00d8 F1EE10FA 		fmstat
 5696              		.loc 1 2126 0
 5697 00dc 48BF     		it	mi
 5698 00de 37EEC77A 		fsubsmi	s14, s15, s14
 5699              	.LVL452:
 5700 00e2 8DED017A 		fsts	s14, [sp, #4]
 5701              		.loc 1 2129 0
 5702 00e6 FFF7FEFF 		bl	utils_norm_angle
 5703              	.LVL453:
 5704              		.loc 1 2132 0
 5705 00ea 9DED010A 		flds	s0, [sp, #4]
 5706 00ee 03B0     		add	sp, sp, #12
 5707              		@ sp needed
 5708 00f0 BDEC048B 		fldmfdd	sp!, {d8-d9}
 5709              	.LVL454:
 5710 00f4 30BD     		pop	{r4, r5, pc}
 5711              	.LVL455:
 5712              	.L434:
 5713              		.loc 1 2116 0
 5714 00f6 FFF7FEFF 		bl	sqrtf
 5715              	.LVL456:
 5716 00fa B0EE408A 		fcpys	s16, s0
 5717 00fe D8E7     		b	.L429
 5718              	.L436:
 5719              		.align	2
 5720              	.L435:
 5721 0100 00000000 		.word	.LANCHOR62
 5722 0104 00000000 		.word	.LANCHOR61
 5723 0108 00003443 		.word	1127481344
 5724 010c DB0F4940 		.word	1078530011
 5725              		.cfi_endproc
 5726              	.LFE299:
 5727              		.size	mcpwm_get_detect_pos, .-mcpwm_get_detect_pos
 5728              		.section	.text.mcpwm_read_reset_avg_cycle_integrator,"ax",%progbits
 5729              		.align	2
 5730              		.p2align 4,,15
 5731              		.global	mcpwm_read_reset_avg_cycle_integrator
 5732              		.thumb
 5733              		.thumb_func
 5734              		.type	mcpwm_read_reset_avg_cycle_integrator, %function
ARM GAS  /tmp/ccwIw6h8.s 			page 102


 5735              	mcpwm_read_reset_avg_cycle_integrator:
 5736              	.LFB300:
 5737              		.loc 1 2134 0
 5738              		.cfi_startproc
 5739              		@ args = 0, pretend = 0, frame = 0
 5740              		@ frame_needed = 0, uses_anonymous_args = 0
 5741              		@ link register save eliminated.
 5742              		.loc 1 2135 0
 5743 0000 054A     		ldr	r2, .L438
 5744 0002 064B     		ldr	r3, .L438+4
 5745 0004 92ED000A 		flds	s0, [r2]
 5746 0008 D3ED007A 		flds	s15, [r3]
 5747              	.LVL457:
 5748              		.loc 1 2136 0
 5749 000c 0021     		movs	r1, #0
 5750 000e 1160     		str	r1, [r2]	@ float
 5751              		.loc 1 2139 0
 5752 0010 80EE270A 		fdivs	s0, s0, s15
 5753              	.LVL458:
 5754              		.loc 1 2137 0
 5755 0014 1960     		str	r1, [r3]	@ float
 5756              		.loc 1 2139 0
 5757 0016 7047     		bx	lr
 5758              	.L439:
 5759              		.align	2
 5760              	.L438:
 5761 0018 00000000 		.word	.LANCHOR42
 5762 001c 00000000 		.word	.LANCHOR43
 5763              		.cfi_endproc
 5764              	.LFE300:
 5765              		.size	mcpwm_read_reset_avg_cycle_integrator, .-mcpwm_read_reset_avg_cycle_integrator
 5766              		.section	.text.mcpwm_set_comm_mode,"ax",%progbits
 5767              		.align	2
 5768              		.p2align 4,,15
 5769              		.global	mcpwm_set_comm_mode
 5770              		.thumb
 5771              		.thumb_func
 5772              		.type	mcpwm_set_comm_mode, %function
 5773              	mcpwm_set_comm_mode:
 5774              	.LFB301:
 5775              		.loc 1 2150 0
 5776              		.cfi_startproc
 5777              		@ args = 0, pretend = 0, frame = 0
 5778              		@ frame_needed = 0, uses_anonymous_args = 0
 5779              		@ link register save eliminated.
 5780              	.LVL459:
 5781              		.loc 1 2151 0
 5782 0000 014B     		ldr	r3, .L441
 5783 0002 1B68     		ldr	r3, [r3]
 5784 0004 5870     		strb	r0, [r3, #1]
 5785 0006 7047     		bx	lr
 5786              	.L442:
 5787              		.align	2
 5788              	.L441:
 5789 0008 00000000 		.word	.LANCHOR0
 5790              		.cfi_endproc
 5791              	.LFE301:
ARM GAS  /tmp/ccwIw6h8.s 			page 103


 5792              		.size	mcpwm_set_comm_mode, .-mcpwm_set_comm_mode
 5793 000c AFF30080 		.section	.text.mcpwm_get_comm_mode,"ax",%progbits
 5794              		.align	2
 5795              		.p2align 4,,15
 5796              		.global	mcpwm_get_comm_mode
 5797              		.thumb
 5798              		.thumb_func
 5799              		.type	mcpwm_get_comm_mode, %function
 5800              	mcpwm_get_comm_mode:
 5801              	.LFB302:
 5802              		.loc 1 2154 0
 5803              		.cfi_startproc
 5804              		@ args = 0, pretend = 0, frame = 0
 5805              		@ frame_needed = 0, uses_anonymous_args = 0
 5806              		@ link register save eliminated.
 5807              		.loc 1 2155 0
 5808 0000 014B     		ldr	r3, .L444
 5809 0002 1B68     		ldr	r3, [r3]
 5810 0004 5878     		ldrb	r0, [r3, #1]	@ zero_extendqisi2
 5811              		.loc 1 2156 0
 5812 0006 7047     		bx	lr
 5813              	.L445:
 5814              		.align	2
 5815              	.L444:
 5816 0008 00000000 		.word	.LANCHOR0
 5817              		.cfi_endproc
 5818              	.LFE302:
 5819              		.size	mcpwm_get_comm_mode, .-mcpwm_get_comm_mode
 5820 000c AFF30080 		.section	.text.mcpwm_get_last_adc_isr_duration,"ax",%progbits
 5821              		.align	2
 5822              		.p2align 4,,15
 5823              		.global	mcpwm_get_last_adc_isr_duration
 5824              		.thumb
 5825              		.thumb_func
 5826              		.type	mcpwm_get_last_adc_isr_duration, %function
 5827              	mcpwm_get_last_adc_isr_duration:
 5828              	.LFB303:
 5829              		.loc 1 2158 0
 5830              		.cfi_startproc
 5831              		@ args = 0, pretend = 0, frame = 0
 5832              		@ frame_needed = 0, uses_anonymous_args = 0
 5833              		@ link register save eliminated.
 5834              		.loc 1 2159 0
 5835 0000 014B     		ldr	r3, .L447
 5836 0002 93ED000A 		flds	s0, [r3]
 5837              		.loc 1 2160 0
 5838 0006 7047     		bx	lr
 5839              	.L448:
 5840              		.align	2
 5841              	.L447:
 5842 0008 00000000 		.word	.LANCHOR66
 5843              		.cfi_endproc
 5844              	.LFE303:
 5845              		.size	mcpwm_get_last_adc_isr_duration, .-mcpwm_get_last_adc_isr_duration
 5846 000c AFF30080 		.section	.text.mcpwm_get_last_inj_adc_isr_duration,"ax",%progbits
 5847              		.align	2
 5848              		.p2align 4,,15
ARM GAS  /tmp/ccwIw6h8.s 			page 104


 5849              		.global	mcpwm_get_last_inj_adc_isr_duration
 5850              		.thumb
 5851              		.thumb_func
 5852              		.type	mcpwm_get_last_inj_adc_isr_duration, %function
 5853              	mcpwm_get_last_inj_adc_isr_duration:
 5854              	.LFB304:
 5855              		.loc 1 2162 0
 5856              		.cfi_startproc
 5857              		@ args = 0, pretend = 0, frame = 0
 5858              		@ frame_needed = 0, uses_anonymous_args = 0
 5859              		@ link register save eliminated.
 5860              		.loc 1 2163 0
 5861 0000 014B     		ldr	r3, .L450
 5862 0002 93ED000A 		flds	s0, [r3]
 5863              		.loc 1 2164 0
 5864 0006 7047     		bx	lr
 5865              	.L451:
 5866              		.align	2
 5867              	.L450:
 5868 0008 00000000 		.word	.LANCHOR65
 5869              		.cfi_endproc
 5870              	.LFE304:
 5871              		.size	mcpwm_get_last_inj_adc_isr_duration, .-mcpwm_get_last_inj_adc_isr_duration
 5872 000c AFF30080 		.section	.text.mcpwm_get_rpm_dep,"ax",%progbits
 5873              		.align	2
 5874              		.p2align 4,,15
 5875              		.global	mcpwm_get_rpm_dep
 5876              		.thumb
 5877              		.thumb_func
 5878              		.type	mcpwm_get_rpm_dep, %function
 5879              	mcpwm_get_rpm_dep:
 5880              	.LFB305:
 5881              		.loc 1 2166 0
 5882              		.cfi_startproc
 5883              		@ args = 0, pretend = 0, frame = 0
 5884              		@ frame_needed = 0, uses_anonymous_args = 0
 5885              		@ link register save eliminated.
 5886              	.LVL460:
 5887 0000 70B4     		push	{r4, r5, r6}
 5888              		.cfi_def_cfa_offset 12
 5889              		.cfi_offset 4, -12
 5890              		.cfi_offset 5, -8
 5891              		.cfi_offset 6, -4
 5892              		.loc 1 2167 0
 5893 0002 064D     		ldr	r5, .L453
 5894              		.loc 1 2166 0
 5895 0004 0646     		mov	r6, r0
 5896              		.loc 1 2167 0
 5897 0006 0FCD     		ldmia	r5!, {r0, r1, r2, r3}
 5898              	.LVL461:
 5899 0008 3446     		mov	r4, r6
 5900 000a 0FC4     		stmia	r4!, {r0, r1, r2, r3}
 5901 000c 95E80700 		ldmia	r5, {r0, r1, r2}
 5902 0010 84E80700 		stmia	r4, {r0, r1, r2}
 5903              		.loc 1 2168 0
 5904 0014 3046     		mov	r0, r6
 5905 0016 70BC     		pop	{r4, r5, r6}
ARM GAS  /tmp/ccwIw6h8.s 			page 105


 5906              	.LVL462:
 5907 0018 7047     		bx	lr
 5908              	.L454:
 5909 001a 00BF     		.align	2
 5910              	.L453:
 5911 001c 00000000 		.word	.LANCHOR6
 5912              		.cfi_endproc
 5913              	.LFE305:
 5914              		.size	mcpwm_get_rpm_dep, .-mcpwm_get_rpm_dep
 5915              		.section	.text.mcpwm_is_dccal_done,"ax",%progbits
 5916              		.align	2
 5917              		.p2align 4,,15
 5918              		.global	mcpwm_is_dccal_done
 5919              		.thumb
 5920              		.thumb_func
 5921              		.type	mcpwm_is_dccal_done, %function
 5922              	mcpwm_is_dccal_done:
 5923              	.LFB306:
 5924              		.loc 1 2170 0
 5925              		.cfi_startproc
 5926              		@ args = 0, pretend = 0, frame = 0
 5927              		@ frame_needed = 0, uses_anonymous_args = 0
 5928              		@ link register save eliminated.
 5929              		.loc 1 2171 0
 5930 0000 014B     		ldr	r3, .L456
 5931 0002 1878     		ldrb	r0, [r3]	@ zero_extendqisi2
 5932              		.loc 1 2172 0
 5933 0004 7047     		bx	lr
 5934              	.L457:
 5935 0006 00BF     		.align	2
 5936              	.L456:
 5937 0008 00000000 		.word	.LANCHOR44
 5938              		.cfi_endproc
 5939              	.LFE306:
 5940              		.size	mcpwm_is_dccal_done, .-mcpwm_is_dccal_done
 5941 000c AFF30080 		.section	.text.mcpwm_switch_comm_mode,"ax",%progbits
 5942              		.align	2
 5943              		.p2align 4,,15
 5944              		.global	mcpwm_switch_comm_mode
 5945              		.thumb
 5946              		.thumb_func
 5947              		.type	mcpwm_switch_comm_mode, %function
 5948              	mcpwm_switch_comm_mode:
 5949              	.LFB307:
 5950              		.loc 1 2174 0
 5951              		.cfi_startproc
 5952              		@ args = 0, pretend = 0, frame = 0
 5953              		@ frame_needed = 0, uses_anonymous_args = 0
 5954              		@ link register save eliminated.
 5955              	.LVL463:
 5956              		.loc 1 2175 0
 5957 0000 014B     		ldr	r3, .L459
 5958 0002 1870     		strb	r0, [r3]
 5959 0004 7047     		bx	lr
 5960              	.L460:
 5961 0006 00BF     		.align	2
 5962              	.L459:
ARM GAS  /tmp/ccwIw6h8.s 			page 106


 5963 0008 00000000 		.word	.LANCHOR19
 5964              		.cfi_endproc
 5965              	.LFE307:
 5966              		.size	mcpwm_switch_comm_mode, .-mcpwm_switch_comm_mode
 5967 000c AFF30080 		.section	.text.mcpwm_reset_hall_detect_table,"ax",%progbits
 5968              		.align	2
 5969              		.p2align 4,,15
 5970              		.global	mcpwm_reset_hall_detect_table
 5971              		.thumb
 5972              		.thumb_func
 5973              		.type	mcpwm_reset_hall_detect_table, %function
 5974              	mcpwm_reset_hall_detect_table:
 5975              	.LFB308:
 5976              		.loc 1 2181 0
 5977              		.cfi_startproc
 5978              		@ args = 0, pretend = 0, frame = 0
 5979              		@ frame_needed = 0, uses_anonymous_args = 0
 5980              		@ link register save eliminated.
 5981              		.loc 1 2182 0
 5982 0000 0248     		ldr	r0, .L462
 5983 0002 0021     		movs	r1, #0
 5984 0004 E022     		movs	r2, #224
 5985 0006 FFF7FEBF 		b	memset
 5986              	.LVL464:
 5987              	.L463:
 5988 000a 00BF     		.align	2
 5989              	.L462:
 5990 000c 00000000 		.word	.LANCHOR45
 5991              		.cfi_endproc
 5992              	.LFE308:
 5993              		.size	mcpwm_reset_hall_detect_table, .-mcpwm_reset_hall_detect_table
 5994              		.section	.text.mcpwm_get_hall_detect_result,"ax",%progbits
 5995              		.align	2
 5996              		.p2align 4,,15
 5997              		.global	mcpwm_get_hall_detect_result
 5998              		.thumb
 5999              		.thumb_func
 6000              		.type	mcpwm_get_hall_detect_result, %function
 6001              	mcpwm_get_hall_detect_result:
 6002              	.LFB309:
 6003              		.loc 1 2197 0
 6004              		.cfi_startproc
 6005              		@ args = 0, pretend = 0, frame = 32
 6006              		@ frame_needed = 0, uses_anonymous_args = 0
 6007              		@ link register save eliminated.
 6008              	.LVL465:
 6009              		.loc 1 2200 0
 6010 0000 2A4B     		ldr	r3, .L481
 6011              		.loc 1 2197 0
 6012 0002 2DE9F001 		push	{r4, r5, r6, r7, r8}
 6013              		.cfi_def_cfa_offset 20
 6014              		.cfi_offset 4, -20
 6015              		.cfi_offset 5, -16
 6016              		.cfi_offset 6, -12
 6017              		.cfi_offset 7, -8
 6018              		.cfi_offset 8, -4
 6019              		.loc 1 2200 0
ARM GAS  /tmp/ccwIw6h8.s 			page 107


 6020 0006 1B68     		ldr	r3, [r3]
 6021 0008 93F85C31 		ldrb	r3, [r3, #348]	@ zero_extendqisi2
 6022              		.loc 1 2197 0
 6023 000c 89B0     		sub	sp, sp, #36
 6024              		.cfi_def_cfa_offset 56
 6025              		.loc 1 2200 0
 6026 000e 03F0FF06 		and	r6, r3, #255
 6027 0012 002B     		cmp	r3, #0
 6028 0014 47D1     		bne	.L475
 6029 0016 DFF898C0 		ldr	ip, .L481+4
 6030              	.LBB165:
 6031              	.LBB166:
 6032              	.LBB167:
 6033              		.loc 1 2208 0
 6034 001a E046     		mov	r8, ip
 6035              	.L466:
 6036              	.LVL466:
 6037              	.LBE167:
 6038              	.LBE166:
 6039              	.LBE165:
 6040              		.loc 1 2197 0 discriminator 1
 6041 001c 0123     		movs	r3, #1
 6042 001e 4FF0FF34 		mov	r4, #-1
 6043 0022 0021     		movs	r1, #0
 6044              	.LBB170:
 6045              	.LBB169:
 6046              	.LBB168:
 6047              		.loc 1 2208 0 discriminator 1
 6048 0024 C6EBC607 		rsb	r7, r6, r6, lsl #3
 6049              	.LVL467:
 6050              	.L470:
 6051              		.loc 1 2208 0 is_stmt 0
 6052 0028 FA18     		adds	r2, r7, r3
 6053 002a 5CF82250 		ldr	r5, [ip, r2, lsl #2]
 6054 002e 8D42     		cmp	r5, r1
 6055 0030 04DD     		ble	.L467
 6056              		.loc 1 2209 0 is_stmt 1
 6057 0032 58F82210 		ldr	r1, [r8, r2, lsl #2]
 6058              	.LVL468:
 6059 0036 0F29     		cmp	r1, #15
 6060 0038 C8BF     		it	gt
 6061 003a 1C46     		movgt	r4, r3
 6062              	.LVL469:
 6063              	.L467:
 6064              		.loc 1 2207 0
 6065 003c 0133     		adds	r3, r3, #1
 6066              	.LVL470:
 6067 003e 072B     		cmp	r3, #7
 6068              		.loc 1 2214 0
 6069 0040 8455     		strb	r4, [r0, r6]
 6070              		.loc 1 2207 0
 6071 0042 F1D1     		bne	.L470
 6072              	.LBE168:
 6073              	.LBE169:
 6074              		.loc 1 2204 0
 6075 0044 0136     		adds	r6, r6, #1
 6076              	.LVL471:
ARM GAS  /tmp/ccwIw6h8.s 			page 108


 6077 0046 082E     		cmp	r6, #8
 6078 0048 E8D1     		bne	.L466
 6079              	.LVL472:
 6080              	.LBE170:
 6081              		.loc 1 2219 0
 6082 004a 0022     		movs	r2, #0
 6083              	.LBB171:
 6084              		.loc 1 2221 0
 6085 004c 1346     		mov	r3, r2
 6086              	.LVL473:
 6087              	.LBE171:
 6088              		.loc 1 2219 0
 6089 004e 0192     		str	r2, [sp, #4]
 6090 0050 0292     		str	r2, [sp, #8]
 6091 0052 0392     		str	r2, [sp, #12]
 6092 0054 0492     		str	r2, [sp, #16]
 6093 0056 0592     		str	r2, [sp, #20]
 6094 0058 0692     		str	r2, [sp, #24]
 6095 005a 0792     		str	r2, [sp, #28]
 6096              	.LVL474:
 6097              		.loc 1 2220 0
 6098 005c 1446     		mov	r4, r2
 6099              	.LVL475:
 6100              		.loc 1 2218 0
 6101 005e 1546     		mov	r5, r2
 6102              	.LBB172:
 6103              		.loc 1 2226 0
 6104 0060 0126     		movs	r6, #1
 6105              	.LVL476:
 6106 0062 08E0     		b	.L474
 6107              	.LVL477:
 6108              	.L471:
 6109              		.loc 1 2225 0
 6110 0064 51F81C2C 		ldr	r2, [r1, #-28]
 6111 0068 12B9     		cbnz	r2, .L472
 6112              		.loc 1 2226 0
 6113 006a 41F81C6C 		str	r6, [r1, #-28]
 6114              		.loc 1 2227 0
 6115 006e 0134     		adds	r4, r4, #1
 6116              	.LVL478:
 6117              	.L472:
 6118              		.loc 1 2221 0
 6119 0070 0133     		adds	r3, r3, #1
 6120              	.LVL479:
 6121 0072 082B     		cmp	r3, #8
 6122 0074 0AD0     		beq	.L480
 6123              	.LVL480:
 6124              	.L474:
 6125              		.loc 1 2222 0
 6126 0076 C256     		ldrsb	r2, [r0, r3]
 6127              		.loc 1 2225 0
 6128 0078 08AF     		add	r7, sp, #32
 6129 007a 07EB8201 		add	r1, r7, r2, lsl #2
 6130              		.loc 1 2222 0
 6131 007e 0132     		adds	r2, r2, #1
 6132 0080 F0D1     		bne	.L471
 6133              		.loc 1 2221 0
ARM GAS  /tmp/ccwIw6h8.s 			page 109


 6134 0082 0133     		adds	r3, r3, #1
 6135              	.LVL481:
 6136 0084 082B     		cmp	r3, #8
 6137              		.loc 1 2223 0
 6138 0086 05F10105 		add	r5, r5, #1
 6139              	.LVL482:
 6140              		.loc 1 2221 0
 6141 008a F4D1     		bne	.L474
 6142              	.L480:
 6143              	.LBE172:
 6144              		.loc 1 2232 0
 6145 008c 022D     		cmp	r5, #2
 6146 008e 07D1     		bne	.L477
 6147              		.loc 1 2232 0 is_stmt 0 discriminator 1
 6148 0090 A01F     		subs	r0, r4, #6
 6149 0092 18BF     		it	ne
 6150 0094 6FF00000 		mvnne	r0, #0
 6151              	.LVL483:
 6152              	.L465:
 6153              		.loc 1 2237 0 is_stmt 1
 6154 0098 09B0     		add	sp, sp, #36
 6155              		@ sp needed
 6156 009a BDE8F001 		pop	{r4, r5, r6, r7, r8}
 6157 009e 7047     		bx	lr
 6158              	.LVL484:
 6159              	.L477:
 6160              		.loc 1 2235 0
 6161 00a0 4FF0FF30 		mov	r0, #-1
 6162              	.LVL485:
 6163 00a4 F8E7     		b	.L465
 6164              	.LVL486:
 6165              	.L475:
 6166              		.loc 1 2201 0
 6167 00a6 6FF00200 		mvn	r0, #2
 6168              	.LVL487:
 6169 00aa F5E7     		b	.L465
 6170              	.L482:
 6171              		.align	2
 6172              	.L481:
 6173 00ac 00000000 		.word	.LANCHOR0
 6174 00b0 00000000 		.word	.LANCHOR45
 6175              		.cfi_endproc
 6176              	.LFE309:
 6177              		.size	mcpwm_get_hall_detect_result, .-mcpwm_get_hall_detect_result
 6178 00b4 AFF30080 		.section	.text.mcpwm_read_hall_phase,"ax",%progbits
 6178      AFF30080 
 6178      AFF30080 
 6179              		.align	2
 6180              		.p2align 4,,15
 6181              		.global	mcpwm_read_hall_phase
 6182              		.thumb
 6183              		.thumb_func
 6184              		.type	mcpwm_read_hall_phase, %function
 6185              	mcpwm_read_hall_phase:
 6186              	.LFB310:
 6187              		.loc 1 2244 0
 6188              		.cfi_startproc
ARM GAS  /tmp/ccwIw6h8.s 			page 110


 6189              		@ args = 0, pretend = 0, frame = 0
 6190              		@ frame_needed = 0, uses_anonymous_args = 0
 6191              		@ link register save eliminated.
 6192              	.LBB173:
 6193              	.LBB174:
 6194              		.loc 1 2249 0
 6195 0000 0E4B     		ldr	r3, .L486
 6196              	.LBE174:
 6197              	.LBE173:
 6198              		.loc 1 2245 0
 6199 0002 0F48     		ldr	r0, .L486+4
 6200              	.LBB179:
 6201              	.LBB175:
 6202              		.loc 1 2249 0
 6203 0004 1969     		ldr	r1, [r3, #16]
 6204 0006 1A69     		ldr	r2, [r3, #16]
 6205              	.LBE175:
 6206              	.LBE179:
 6207              		.loc 1 2245 0
 6208 0008 0E4B     		ldr	r3, .L486+8
 6209              		.loc 1 2244 0
 6210 000a 10B4     		push	{r4}
 6211              		.cfi_def_cfa_offset 4
 6212              		.cfi_offset 4, -4
 6213              	.LBB180:
 6214              	.LBB176:
 6215              		.loc 1 2249 0
 6216 000c 0E4C     		ldr	r4, .L486+12
 6217 000e 2469     		ldr	r4, [r4, #16]
 6218              	.LBE176:
 6219              	.LBE180:
 6220              		.loc 1 2245 0
 6221 0010 0068     		ldr	r0, [r0]
 6222              	.LBB181:
 6223              	.LBB177:
 6224              		.loc 1 2249 0
 6225 0012 C4F3C024 		ubfx	r4, r4, #11, #1
 6226 0016 A400     		lsls	r4, r4, #2
 6227 0018 C2F3C012 		ubfx	r2, r2, #7, #1
 6228 001c C1F38011 		ubfx	r1, r1, #6, #1
 6229 0020 44EA4202 		orr	r2, r4, r2, lsl #1
 6230              	.LBE177:
 6231              	.LBE181:
 6232              		.loc 1 2245 0
 6233 0024 0028     		cmp	r0, #0
 6234              	.LBB182:
 6235              	.LBB178:
 6236              		.loc 1 2249 0
 6237 0026 42EA0102 		orr	r2, r2, r1
 6238              	.LBE178:
 6239              	.LBE182:
 6240              		.loc 1 2245 0
 6241 002a 0CBF     		ite	eq
 6242 002c 0021     		moveq	r1, #0
 6243 002e 0821     		movne	r1, #8
 6244 0030 0A44     		add	r2, r2, r1
 6245              		.loc 1 2246 0
ARM GAS  /tmp/ccwIw6h8.s 			page 111


 6246 0032 5DF8044B 		ldr	r4, [sp], #4
 6247 0036 53F82200 		ldr	r0, [r3, r2, lsl #2]
 6248 003a 7047     		bx	lr
 6249              	.L487:
 6250              		.align	2
 6251              	.L486:
 6252 003c 00040240 		.word	1073873920
 6253 0040 00000000 		.word	.LANCHOR4
 6254 0044 00000000 		.word	.LANCHOR31
 6255 0048 00080240 		.word	1073874944
 6256              		.cfi_endproc
 6257              	.LFE310:
 6258              		.size	mcpwm_read_hall_phase, .-mcpwm_read_hall_phase
 6259 004c AFF30080 		.section	.text.set_duty_cycle_ll,"ax",%progbits
 6260              		.align	2
 6261              		.p2align 4,,15
 6262              		.thumb
 6263              		.thumb_func
 6264              		.type	set_duty_cycle_ll, %function
 6265              	set_duty_cycle_ll:
 6266              	.LFB290:
 6267              		.loc 1 1001 0
 6268              		.cfi_startproc
 6269              		@ args = 0, pretend = 0, frame = 0
 6270              		@ frame_needed = 0, uses_anonymous_args = 0
 6271              	.LVL488:
 6272 0000 38B5     		push	{r3, r4, r5, lr}
 6273              		.cfi_def_cfa_offset 16
 6274              		.cfi_offset 3, -16
 6275              		.cfi_offset 4, -12
 6276              		.cfi_offset 5, -8
 6277              		.cfi_offset 14, -4
 6278              		.loc 1 1002 0
 6279 0002 634C     		ldr	r4, .L538
 6280 0004 2368     		ldr	r3, [r4]
 6281 0006 D3ED157A 		flds	s15, [r3, #84]
 6282 000a F4EEC07A 		fcmpes	s15, s0
 6283 000e F1EE10FA 		fmstat
 6284 0012 22D8     		bhi	.L530
 6285              		.loc 1 1003 0
 6286 0014 5F4A     		ldr	r2, .L538+4
 6287 0016 0121     		movs	r1, #1
 6288 0018 1160     		str	r1, [r2]
 6289              	.L491:
 6290              		.loc 1 1009 0
 6291 001a D3ED157A 		flds	s15, [r3, #84]
 6292 001e B4EEE70A 		fcmpes	s0, s15
 6293 0022 F1EE10FA 		fmstat
 6294 0026 2DD5     		bpl	.L531
 6295              	.L536:
 6296              	.LBB183:
 6297              		.loc 1 1012 0
 6298 0028 5B4A     		ldr	r2, .L538+8
 6299 002a 1178     		ldrb	r1, [r2]	@ zero_extendqisi2
 6300 002c 0229     		cmp	r1, #2
 6301 002e 65D0     		beq	.L495
 6302              		.loc 1 1013 0 discriminator 1
ARM GAS  /tmp/ccwIw6h8.s 			page 112


 6303 0030 1178     		ldrb	r1, [r2]	@ zero_extendqisi2
 6304              		.loc 1 1012 0 discriminator 1
 6305 0032 0329     		cmp	r1, #3
 6306 0034 62D0     		beq	.L495
 6307              		.loc 1 1014 0
 6308 0036 1278     		ldrb	r2, [r2]	@ zero_extendqisi2
 6309              		.loc 1 1013 0
 6310 0038 012A     		cmp	r2, #1
 6311 003a 5FD0     		beq	.L495
 6312              		.loc 1 1023 0
 6313 003c 574D     		ldr	r5, .L538+12
 6314              		.loc 1 1020 0
 6315 003e D3ED097A 		flds	s15, [r3, #36]
 6316              	.LVL489:
 6317              		.loc 1 1023 0
 6318 0042 2A78     		ldrb	r2, [r5]	@ zero_extendqisi2
 6319 0044 D2B2     		uxtb	r2, r2
 6320 0046 012A     		cmp	r2, #1
 6321 0048 5FD1     		bne	.L535
 6322              	.L499:
 6323              	.LBB184:
 6324              	.LBB185:
 6325              		.loc 1 886 0
 6326 004a 554A     		ldr	r2, .L538+16
 6327              		.loc 1 885 0
 6328 004c 0023     		movs	r3, #0
 6329 004e 2B70     		strb	r3, [r5]
 6330              		.loc 1 886 0
 6331 0050 1360     		str	r3, [r2]
 6332              	.LBE185:
 6333              	.LBE184:
 6334              	.LBE183:
 6335              		.loc 1 1077 0
 6336 0052 BDE83840 		pop	{r3, r4, r5, lr}
 6337              	.LBB192:
 6338              	.LBB187:
 6339              	.LBB186:
 6340              		.loc 1 887 0
 6341 0056 FFF7FEBF 		b	stop_pwm_hw
 6342              	.LVL490:
 6343              	.L530:
 6344              	.LBE186:
 6345              	.LBE187:
 6346              	.LBE192:
 6347              		.loc 1 1004 0
 6348 005a D3ED157A 		flds	s15, [r3, #84]
 6349 005e F1EE677A 		fnegs	s15, s15
 6350 0062 B4EEE70A 		fcmpes	s0, s15
 6351 0066 F1EE10FA 		fmstat
 6352 006a D6D8     		bhi	.L491
 6353              		.loc 1 1006 0
 6354 006c 494A     		ldr	r2, .L538+4
 6355 006e 0021     		movs	r1, #0
 6356 0070 1160     		str	r1, [r2]
 6357              		.loc 1 1009 0
 6358 0072 D3ED157A 		flds	s15, [r3, #84]
 6359              		.loc 1 1005 0
ARM GAS  /tmp/ccwIw6h8.s 			page 113


 6360 0076 B1EE400A 		fnegs	s0, s0
 6361              	.LVL491:
 6362              		.loc 1 1009 0
 6363 007a B4EEE70A 		fcmpes	s0, s15
 6364 007e F1EE10FA 		fmstat
 6365 0082 D1D4     		bmi	.L536
 6366              	.L531:
 6367              		.loc 1 1042 0
 6368 0084 D3ED167A 		flds	s15, [r3, #88]
 6369 0088 444D     		ldr	r5, .L538+12
 6370 008a B4EEE70A 		fcmpes	s0, s15
 6371 008e F1EE10FA 		fmstat
 6372              		.loc 1 1043 0
 6373 0092 C8BF     		it	gt
 6374 0094 93ED160A 		fldsgt	s0, [r3, #88]
 6375              	.LVL492:
 6376              	.L503:
 6377              		.loc 1 1046 0
 6378 0098 FFF7FEFF 		bl	set_duty_cycle_hw
 6379              	.LVL493:
 6380              		.loc 1 1048 0
 6381 009c 2368     		ldr	r3, [r4]
 6382 009e 9C78     		ldrb	r4, [r3, #2]	@ zero_extendqisi2
 6383 00a0 E4B2     		uxtb	r4, r4
 6384 00a2 012C     		cmp	r4, #1
 6385 00a4 60D0     		beq	.L537
 6386              		.loc 1 1053 0
 6387 00a6 3F4A     		ldr	r2, .L538+20
 6388 00a8 1278     		ldrb	r2, [r2]	@ zero_extendqisi2
 6389 00aa AAB1     		cbz	r2, .L506
 6390              		.loc 1 1054 0
 6391 00ac 2978     		ldrb	r1, [r5]	@ zero_extendqisi2
 6392 00ae 3B4A     		ldr	r2, .L538+12
 6393 00b0 0229     		cmp	r1, #2
 6394 00b2 10D0     		beq	.L488
 6395              		.loc 1 1055 0
 6396 00b4 1178     		ldrb	r1, [r2]	@ zero_extendqisi2
 6397 00b6 0029     		cmp	r1, #0
 6398 00b8 36D1     		bne	.L508
 6399              		.loc 1 1056 0
 6400 00ba 0220     		movs	r0, #2
 6401              		.loc 1 1058 0
 6402 00bc 3A49     		ldr	r1, .L538+24
 6403              		.loc 1 1056 0
 6404 00be 1070     		strb	r0, [r2]
 6405              		.loc 1 1058 0
 6406 00c0 91ED007A 		flds	s14, [r1]
 6407 00c4 D3ED1F7A 		flds	s15, [r3, #124]
 6408 00c8 B0EEC77A 		fabss	s14, s14
 6409 00cc B4EEE77A 		fcmpes	s14, s15
 6410 00d0 F1EE10FA 		fmstat
 6411 00d4 0DD4     		bmi	.L534
 6412              	.L488:
 6413 00d6 38BD     		pop	{r3, r4, r5, pc}
 6414              	.L506:
 6415              		.loc 1 1069 0
 6416 00d8 2B78     		ldrb	r3, [r5]	@ zero_extendqisi2
ARM GAS  /tmp/ccwIw6h8.s 			page 114


 6417 00da 304A     		ldr	r2, .L538+12
 6418 00dc 022B     		cmp	r3, #2
 6419 00de FAD0     		beq	.L488
 6420              		.loc 1 1070 0
 6421 00e0 0223     		movs	r3, #2
 6422 00e2 1370     		strb	r3, [r2]
 6423              		.loc 1 1071 0
 6424 00e4 FFF7FEFF 		bl	mcpwm_read_hall_phase
 6425              	.LVL494:
 6426 00e8 304B     		ldr	r3, .L538+28
 6427 00ea 1860     		str	r0, [r3]
 6428              		.loc 1 1072 0
 6429 00ec 1868     		ldr	r0, [r3]
 6430 00ee FFF7FEFF 		bl	set_next_comm_step
 6431              	.LVL495:
 6432              	.L534:
 6433              		.loc 1 1073 0
 6434 00f2 0120     		movs	r0, #1
 6435              		.loc 1 1077 0
 6436 00f4 BDE83840 		pop	{r3, r4, r5, lr}
 6437              		.loc 1 1073 0
 6438 00f8 FFF7FEBF 		b	commutate
 6439              	.LVL496:
 6440              	.L495:
 6441              	.LBB193:
 6442              		.loc 1 1023 0
 6443 00fc 274D     		ldr	r5, .L538+12
 6444              		.loc 1 1018 0
 6445 00fe D3ED0A7A 		flds	s15, [r3, #40]
 6446              	.LVL497:
 6447              		.loc 1 1023 0
 6448 0102 2A78     		ldrb	r2, [r5]	@ zero_extendqisi2
 6449 0104 D2B2     		uxtb	r2, r2
 6450 0106 012A     		cmp	r2, #1
 6451 0108 9FD0     		beq	.L499
 6452              	.L535:
 6453 010a 022A     		cmp	r2, #2
 6454 010c E3D1     		bne	.L488
 6455              		.loc 1 1026 0
 6456 010e 264A     		ldr	r2, .L538+24
 6457 0110 92ED007A 		flds	s14, [r2]
 6458 0114 B0EEC77A 		fabss	s14, s14
 6459 0118 F4EEC77A 		fcmpes	s15, s14
 6460 011c F1EE10FA 		fmstat
 6461 0120 2DD5     		bpl	.L532
 6462              		.loc 1 1027 0
 6463 0122 93ED150A 		flds	s0, [r3, #84]
 6464              	.LVL498:
 6465              		.loc 1 1032 0
 6466 0126 B7E7     		b	.L503
 6467              	.LVL499:
 6468              	.L508:
 6469              	.LBE193:
 6470              		.loc 1 1061 0
 6471 0128 1178     		ldrb	r1, [r2]	@ zero_extendqisi2
 6472 012a 0329     		cmp	r1, #3
 6473 012c D3D1     		bne	.L488
ARM GAS  /tmp/ccwIw6h8.s 			page 115


 6474              		.loc 1 1062 0
 6475 012e 1E49     		ldr	r1, .L538+24
 6476 0130 91ED007A 		flds	s14, [r1]
 6477 0134 D3ED1F7A 		flds	s15, [r3, #124]
 6478 0138 B0EEC77A 		fabss	s14, s14
 6479 013c B4EEE77A 		fcmpes	s14, s15
 6480 0140 F1EE10FA 		fmstat
 6481 0144 C7D5     		bpl	.L488
 6482              	.LBB194:
 6483              	.LBB195:
 6484              		.loc 1 788 0
 6485 0146 1A49     		ldr	r1, .L538+32
 6486 0148 D1ED007A 		flds	s15, [r1]
 6487              	.LBE195:
 6488              	.LBE194:
 6489              		.loc 1 1062 0
 6490 014c 93ED217A 		flds	s14, [r3, #132]
 6491 0150 B4EEE77A 		fcmpes	s14, s15
 6492 0154 F1EE10FA 		fmstat
 6493 0158 BDDD     		ble	.L488
 6494              		.loc 1 1063 0
 6495 015a 0223     		movs	r3, #2
 6496 015c 1370     		strb	r3, [r2]
 6497              		.loc 1 1064 0
 6498 015e 0120     		movs	r0, #1
 6499              		.loc 1 1077 0
 6500 0160 BDE83840 		pop	{r3, r4, r5, lr}
 6501              		.loc 1 1064 0
 6502 0164 FFF7FEBF 		b	commutate
 6503              	.LVL500:
 6504              	.L537:
 6505              		.loc 1 1050 0
 6506 0168 104B     		ldr	r3, .L538+28
 6507              		.loc 1 1049 0
 6508 016a 0222     		movs	r2, #2
 6509 016c 2A70     		strb	r2, [r5]
 6510              		.loc 1 1050 0
 6511 016e 1868     		ldr	r0, [r3]
 6512 0170 FFF7FEFF 		bl	set_next_comm_step
 6513              	.LVL501:
 6514              		.loc 1 1051 0
 6515 0174 2046     		mov	r0, r4
 6516              		.loc 1 1077 0
 6517 0176 BDE83840 		pop	{r3, r4, r5, lr}
 6518              		.loc 1 1051 0
 6519 017a FFF7FEBF 		b	commutate
 6520              	.LVL502:
 6521              	.L532:
 6522              	.LBB196:
 6523              	.LBB188:
 6524              	.LBB189:
 6525              		.loc 1 914 0
 6526 017e 084B     		ldr	r3, .L538+16
 6527              		.loc 1 913 0
 6528 0180 0321     		movs	r1, #3
 6529              		.loc 1 914 0
 6530 0182 0022     		movs	r2, #0
ARM GAS  /tmp/ccwIw6h8.s 			page 116


 6531              		.loc 1 913 0
 6532 0184 2970     		strb	r1, [r5]
 6533              		.loc 1 914 0
 6534 0186 1A60     		str	r2, [r3]
 6535              	.LBE189:
 6536              	.LBE188:
 6537              	.LBE196:
 6538              		.loc 1 1077 0
 6539 0188 BDE83840 		pop	{r3, r4, r5, lr}
 6540              	.LBB197:
 6541              	.LBB191:
 6542              	.LBB190:
 6543              		.loc 1 915 0
 6544 018c FFF7FEBF 		b	full_brake_hw
 6545              	.LVL503:
 6546              	.L539:
 6547              		.align	2
 6548              	.L538:
 6549 0190 00000000 		.word	.LANCHOR0
 6550 0194 00000000 		.word	.LANCHOR4
 6551 0198 00000000 		.word	.LANCHOR37
 6552 019c 00000000 		.word	.LANCHOR2
 6553 01a0 00000000 		.word	.LANCHOR40
 6554 01a4 00000000 		.word	.LANCHOR11
 6555 01a8 00000000 		.word	.LANCHOR10
 6556 01ac 00000000 		.word	.LANCHOR3
 6557 01b0 00000000 		.word	.LANCHOR39
 6558              	.LBE190:
 6559              	.LBE191:
 6560              	.LBE197:
 6561              		.cfi_endproc
 6562              	.LFE290:
 6563              		.size	set_duty_cycle_ll, .-set_duty_cycle_ll
 6564 01b4 AFF30080 		.section	.text.set_duty_cycle_hl,"ax",%progbits
 6564      AFF30080 
 6564      AFF30080 
 6565              		.align	2
 6566              		.p2align 4,,15
 6567              		.thumb
 6568              		.thumb_func
 6569              		.type	set_duty_cycle_hl, %function
 6570              	set_duty_cycle_hl:
 6571              	.LFB289:
 6572              		.loc 1 950 0
 6573              		.cfi_startproc
 6574              		@ args = 0, pretend = 0, frame = 8
 6575              		@ frame_needed = 0, uses_anonymous_args = 0
 6576              	.LVL504:
 6577 0000 10B5     		push	{r4, lr}
 6578              		.cfi_def_cfa_offset 8
 6579              		.cfi_offset 4, -8
 6580              		.cfi_offset 14, -4
 6581              		.loc 1 951 0
 6582 0002 3B4C     		ldr	r4, .L569
 6583 0004 2368     		ldr	r3, [r4]
 6584              		.loc 1 950 0
 6585 0006 82B0     		sub	sp, sp, #8
ARM GAS  /tmp/ccwIw6h8.s 			page 117


 6586              		.cfi_def_cfa_offset 16
 6587              		.loc 1 951 0
 6588 0008 D3ED167A 		flds	s15, [r3, #88]
 6589 000c D3ED160A 		flds	s1, [r3, #88]
 6590              		.loc 1 950 0
 6591 0010 02A8     		add	r0, sp, #8
 6592 0012 20ED010A 		fstmdbs	r0!, {s0}
 6593              		.loc 1 951 0
 6594 0016 B1EE670A 		fnegs	s0, s15
 6595              	.LVL505:
 6596 001a FFF7FEFF 		bl	utils_truncate_number
 6597              	.LVL506:
 6598              		.loc 1 953 0
 6599 001e 354B     		ldr	r3, .L569+4
 6600 0020 1A78     		ldrb	r2, [r3]	@ zero_extendqisi2
 6601 0022 012A     		cmp	r2, #1
 6602 0024 5CD0     		beq	.L567
 6603              		.loc 1 958 0
 6604 0026 344A     		ldr	r2, .L569+8
 6605 0028 DDED017A 		flds	s15, [sp, #4]
 6606 002c C2ED007A 		fsts	s15, [r2]
 6607              		.loc 1 960 0
 6608 0030 1A78     		ldrb	r2, [r3]	@ zero_extendqisi2
 6609 0032 022A     		cmp	r2, #2
 6610 0034 2AD0     		beq	.L540
 6611              		.loc 1 961 0
 6612 0036 2268     		ldr	r2, [r4]
 6613 0038 92ED157A 		flds	s14, [r2, #84]
 6614 003c F0EEE76A 		fabss	s13, s15
 6615 0040 F4EEC76A 		fcmpes	s13, s14
 6616 0044 F1EE10FA 		fmstat
 6617 0048 22DB     		blt	.L563
 6618              		.loc 1 964 0
 6619 004a 2C4B     		ldr	r3, .L569+12
 6620 004c D3ED006A 		flds	s13, [r3]
 6621 0050 92ED157A 		flds	s14, [r2, #84]
 6622 0054 F0EEE66A 		fabss	s13, s13
 6623 0058 F4EEC76A 		fcmpes	s13, s14
 6624 005c F1EE10FA 		fmstat
 6625 0060 10D5     		bpl	.L545
 6626              		.loc 1 965 0
 6627 0062 F5EEC07A 		fcmpezs	s15
 6628 0066 92ED157A 		flds	s14, [r2, #84]
 6629 006a F1EE10FA 		fmstat
 6630 006e FFEE006A 		fconsts	s13, #240
 6631 0072 F7EE007A 		fconsts	s15, #112
 6632 0076 48BF     		it	mi
 6633 0078 F0EE667A 		fcpysmi	s15, s13
 6634 007c 67EE877A 		fmuls	s15, s15, s14
 6635 0080 C3ED007A 		fsts	s15, [r3]
 6636              	.L545:
 6637              		.loc 1 968 0
 6638 0084 93ED000A 		flds	s0, [r3]
 6639 0088 FFF7FEFF 		bl	set_duty_cycle_ll
 6640              	.LVL507:
 6641              	.L540:
 6642              		.loc 1 987 0
ARM GAS  /tmp/ccwIw6h8.s 			page 118


 6643 008c 02B0     		add	sp, sp, #8
 6644              	.LVL508:
 6645              		@ sp needed
 6646 008e 10BD     		pop	{r4, pc}
 6647              	.LVL509:
 6648              	.L563:
 6649              		.loc 1 972 0
 6650 0090 9178     		ldrb	r1, [r2, #2]	@ zero_extendqisi2
 6651 0092 0129     		cmp	r1, #1
 6652 0094 0FD0     		beq	.L568
 6653              		.loc 1 979 0
 6654 0096 1A49     		ldr	r1, .L569+16
 6655 0098 91ED007A 		flds	s14, [r1]
 6656 009c D2ED097A 		flds	s15, [r2, #36]
 6657 00a0 B0EEC77A 		fabss	s14, s14
 6658 00a4 B4EEE77A 		fcmpes	s14, s15
 6659 00a8 F1EE10FA 		fmstat
 6660 00ac 0FDD     		ble	.L565
 6661              	.L566:
 6662              		.loc 1 980 0
 6663 00ae 0222     		movs	r2, #2
 6664 00b0 1A70     		strb	r2, [r3]
 6665              		.loc 1 987 0
 6666 00b2 02B0     		add	sp, sp, #8
 6667              	.LVL510:
 6668              		@ sp needed
 6669 00b4 10BD     		pop	{r4, pc}
 6670              	.LVL511:
 6671              	.L568:
 6672              		.loc 1 973 0
 6673 00b6 114A     		ldr	r2, .L569+12
 6674 00b8 DFED127A 		flds	s15, .L569+20
 6675 00bc 92ED007A 		flds	s14, [r2]
 6676 00c0 B0EEC77A 		fabss	s14, s14
 6677 00c4 B4EEE77A 		fcmpes	s14, s15
 6678 00c8 F1EE10FA 		fmstat
 6679 00cc EFDC     		bgt	.L566
 6680              	.L565:
 6681              	.LBB198:
 6682              	.LBB199:
 6683              		.loc 1 914 0
 6684 00ce 0E4A     		ldr	r2, .L569+24
 6685              		.loc 1 913 0
 6686 00d0 0320     		movs	r0, #3
 6687              		.loc 1 914 0
 6688 00d2 0021     		movs	r1, #0
 6689              		.loc 1 913 0
 6690 00d4 1870     		strb	r0, [r3]
 6691              		.loc 1 914 0
 6692 00d6 1160     		str	r1, [r2]
 6693              		.loc 1 915 0
 6694 00d8 FFF7FEFF 		bl	full_brake_hw
 6695              	.LVL512:
 6696              	.LBE199:
 6697              	.LBE198:
 6698              		.loc 1 987 0
 6699 00dc 02B0     		add	sp, sp, #8
ARM GAS  /tmp/ccwIw6h8.s 			page 119


 6700              	.LVL513:
 6701              		@ sp needed
 6702 00de 10BD     		pop	{r4, pc}
 6703              	.LVL514:
 6704              	.L567:
 6705              	.LBB200:
 6706              	.LBB201:
 6707              		.loc 1 886 0
 6708 00e0 0949     		ldr	r1, .L569+24
 6709              		.loc 1 885 0
 6710 00e2 0022     		movs	r2, #0
 6711 00e4 1A70     		strb	r2, [r3]
 6712              		.loc 1 886 0
 6713 00e6 0A60     		str	r2, [r1]
