ARM GAS  /tmp/ccqi2nze.s 			page 1


   1              		.syntax unified
   2              		.cpu cortex-m4
   3              		.eabi_attribute 27, 3
   4              		.eabi_attribute 28, 1
   5              		.fpu fpv4-sp-d16
   6              		.eabi_attribute 20, 1
   7              		.eabi_attribute 21, 1
   8              		.eabi_attribute 23, 3
   9              		.eabi_attribute 24, 1
  10              		.eabi_attribute 25, 1
  11              		.eabi_attribute 26, 1
  12              		.eabi_attribute 30, 2
  13              		.eabi_attribute 34, 1
  14              		.eabi_attribute 18, 4
  15              		.thumb
  16              		.file	"misc.c"
  17              		.text
  18              	.Ltext0:
  19              		.cfi_sections	.debug_frame
  20              		.section	.text.NVIC_PriorityGroupConfig,"ax",%progbits
  21              		.align	2
  22              		.p2align 4,,15
  23              		.global	NVIC_PriorityGroupConfig
  24              		.thumb
  25              		.thumb_func
  26              		.type	NVIC_PriorityGroupConfig, %function
  27              	NVIC_PriorityGroupConfig:
  28              	.LFB112:
  29              		.file 1 "ChibiOS_3.0.2/ext/stdperiph_stm32f4/src/misc.c"
  30              		.loc 1 123 0
  31              		.cfi_startproc
  32              		@ args = 0, pretend = 0, frame = 0
  33              		@ frame_needed = 0, uses_anonymous_args = 0
  34              		@ link register save eliminated.
  35              	.LVL0:
  36              		.loc 1 128 0
  37 0000 40F0BF60 		orr	r0, r0, #100139008
  38              	.LVL1:
  39 0004 024B     		ldr	r3, .L2
  40 0006 40F40030 		orr	r0, r0, #131072
  41 000a D860     		str	r0, [r3, #12]
  42 000c 7047     		bx	lr
  43              	.L3:
  44 000e 00BF     		.align	2
  45              	.L2:
  46 0010 00ED00E0 		.word	-536810240
  47              		.cfi_endproc
  48              	.LFE112:
  49              		.size	NVIC_PriorityGroupConfig, .-NVIC_PriorityGroupConfig
  50 0014 AFF30080 		.section	.text.NVIC_Init,"ax",%progbits
  50      AFF30080 
  50      AFF30080 
  51              		.align	2
  52              		.p2align 4,,15
  53              		.global	NVIC_Init
  54              		.thumb
  55              		.thumb_func
ARM GAS  /tmp/ccqi2nze.s 			page 2


  56              		.type	NVIC_Init, %function
  57              	NVIC_Init:
  58              	.LFB113:
  59              		.loc 1 141 0
  60              		.cfi_startproc
  61              		@ args = 0, pretend = 0, frame = 0
  62              		@ frame_needed = 0, uses_anonymous_args = 0
  63              		@ link register save eliminated.
  64              	.LVL2:
  65              		.loc 1 149 0
  66 0000 C378     		ldrb	r3, [r0, #3]	@ zero_extendqisi2
  67              		.loc 1 141 0
  68 0002 F0B4     		push	{r4, r5, r6, r7}
  69              		.cfi_def_cfa_offset 16
  70              		.cfi_offset 4, -16
  71              		.cfi_offset 5, -12
  72              		.cfi_offset 6, -8
  73              		.cfi_offset 7, -4
  74              		.loc 1 149 0
  75 0004 63B9     		cbnz	r3, .L8
  76              		.loc 1 170 0
  77 0006 0378     		ldrb	r3, [r0]	@ zero_extendqisi2
  78 0008 194A     		ldr	r2, .L9
  79 000a 5909     		lsrs	r1, r3, #5
  80 000c 2031     		adds	r1, r1, #32
  81              		.loc 1 171 0
  82 000e 03F01F03 		and	r3, r3, #31
  83 0012 0120     		movs	r0, #1
  84              	.LVL3:
  85 0014 00FA03F3 		lsl	r3, r0, r3
  86              		.loc 1 170 0
  87 0018 42F82130 		str	r3, [r2, r1, lsl #2]
  88              		.loc 1 173 0
  89 001c F0BC     		pop	{r4, r5, r6, r7}
  90 001e 7047     		bx	lr
  91              	.LVL4:
  92              	.L8:
  93              		.loc 1 152 0
  94 0020 144B     		ldr	r3, .L9+4
  95              		.loc 1 156 0
  96 0022 4778     		ldrb	r7, [r0, #1]	@ zero_extendqisi2
  97              		.loc 1 152 0
  98 0024 DA68     		ldr	r2, [r3, #12]
  99              		.loc 1 157 0
 100 0026 8578     		ldrb	r5, [r0, #2]	@ zero_extendqisi2
 101              		.loc 1 161 0
 102 0028 0378     		ldrb	r3, [r0]	@ zero_extendqisi2
 103 002a 1149     		ldr	r1, .L9
 104              		.loc 1 152 0
 105 002c D243     		mvns	r2, r2
 106 002e C2F30222 		ubfx	r2, r2, #8, #3
 107              	.LVL5:
 108              		.loc 1 153 0
 109 0032 C2F10404 		rsb	r4, r2, #4
 110              		.loc 1 154 0
 111 0036 0F26     		movs	r6, #15
 112              		.loc 1 156 0
ARM GAS  /tmp/ccqi2nze.s 			page 3


 113 0038 E4B2     		uxtb	r4, r4
 114 003a 07FA04F4 		lsl	r4, r7, r4
 115              		.loc 1 154 0
 116 003e 46FA02F2 		asr	r2, r6, r2
 117              	.LVL6:
 118              		.loc 1 156 0
 119 0042 E4B2     		uxtb	r4, r4
 120              	.LVL7:
 121              		.loc 1 157 0
 122 0044 2A40     		ands	r2, r2, r5
 123 0046 2243     		orrs	r2, r2, r4
 124              	.LVL8:
 125              		.loc 1 161 0
 126 0048 03F16043 		add	r3, r3, #-536870912
 127 004c 03F56143 		add	r3, r3, #57600
 128              		.loc 1 159 0
 129 0050 1201     		lsls	r2, r2, #4
 130              	.LVL9:
 131 0052 D2B2     		uxtb	r2, r2
 132              	.LVL10:
 133              		.loc 1 161 0
 134 0054 83F80023 		strb	r2, [r3, #768]
 135              		.loc 1 164 0
 136 0058 0378     		ldrb	r3, [r0]	@ zero_extendqisi2
 137              		.loc 1 165 0
 138 005a 0120     		movs	r0, #1
 139              	.LVL11:
 140 005c 03F01F02 		and	r2, r3, #31
 141              	.LVL12:
 142              		.loc 1 164 0
 143 0060 5B09     		lsrs	r3, r3, #5
 144              		.loc 1 165 0
 145 0062 00FA02F2 		lsl	r2, r0, r2
 146              		.loc 1 164 0
 147 0066 41F82320 		str	r2, [r1, r3, lsl #2]
 148              		.loc 1 173 0
 149 006a F0BC     		pop	{r4, r5, r6, r7}
 150 006c 7047     		bx	lr
 151              	.L10:
 152 006e 00BF     		.align	2
 153              	.L9:
 154 0070 00E100E0 		.word	-536813312
 155 0074 00ED00E0 		.word	-536810240
 156              		.cfi_endproc
 157              	.LFE113:
 158              		.size	NVIC_Init, .-NVIC_Init
 159 0078 AFF30080 		.section	.text.NVIC_SetVectorTable,"ax",%progbits
 159      AFF30080 
 160              		.align	2
 161              		.p2align 4,,15
 162              		.global	NVIC_SetVectorTable
 163              		.thumb
 164              		.thumb_func
 165              		.type	NVIC_SetVectorTable, %function
 166              	NVIC_SetVectorTable:
 167              	.LFB114:
 168              		.loc 1 185 0
ARM GAS  /tmp/ccqi2nze.s 			page 4


 169              		.cfi_startproc
 170              		@ args = 0, pretend = 0, frame = 0
 171              		@ frame_needed = 0, uses_anonymous_args = 0
 172              		@ link register save eliminated.
 173              	.LVL13:
 174              		.loc 1 190 0
 175 0000 21F06041 		bic	r1, r1, #-536870912
 176              	.LVL14:
 177 0004 21F07F01 		bic	r1, r1, #127
 178 0008 014B     		ldr	r3, .L12
 179 000a 0843     		orrs	r0, r0, r1
 180              	.LVL15:
 181 000c 9860     		str	r0, [r3, #8]
 182 000e 7047     		bx	lr
 183              	.L13:
 184              		.align	2
 185              	.L12:
 186 0010 00ED00E0 		.word	-536810240
 187              		.cfi_endproc
 188              	.LFE114:
 189              		.size	NVIC_SetVectorTable, .-NVIC_SetVectorTable
 190 0014 AFF30080 		.section	.text.NVIC_SystemLPConfig,"ax",%progbits
 190      AFF30080 
 190      AFF30080 
 191              		.align	2
 192              		.p2align 4,,15
 193              		.global	NVIC_SystemLPConfig
 194              		.thumb
 195              		.thumb_func
 196              		.type	NVIC_SystemLPConfig, %function
 197              	NVIC_SystemLPConfig:
 198              	.LFB115:
 199              		.loc 1 204 0
 200              		.cfi_startproc
 201              		@ args = 0, pretend = 0, frame = 0
 202              		@ frame_needed = 0, uses_anonymous_args = 0
 203              		@ link register save eliminated.
 204              	.LVL16:
 205              		.loc 1 211 0
 206 0000 044B     		ldr	r3, .L18
 207 0002 1A69     		ldr	r2, [r3, #16]
 208              		.loc 1 209 0
 209 0004 19B9     		cbnz	r1, .L17
 210              		.loc 1 215 0
 211 0006 22EA0000 		bic	r0, r2, r0
 212              	.LVL17:
 213 000a 1861     		str	r0, [r3, #16]
 214 000c 7047     		bx	lr
 215              	.LVL18:
 216              	.L17:
 217              		.loc 1 211 0
 218 000e 1043     		orrs	r0, r0, r2
 219              	.LVL19:
 220 0010 1861     		str	r0, [r3, #16]
 221 0012 7047     		bx	lr
 222              	.L19:
 223              		.align	2
ARM GAS  /tmp/ccqi2nze.s 			page 5


 224              	.L18:
 225 0014 00ED00E0 		.word	-536810240
 226              		.cfi_endproc
 227              	.LFE115:
 228              		.size	NVIC_SystemLPConfig, .-NVIC_SystemLPConfig
 229 0018 AFF30080 		.section	.text.SysTick_CLKSourceConfig,"ax",%progbits
 229      AFF30080 
 230              		.align	2
 231              		.p2align 4,,15
 232              		.global	SysTick_CLKSourceConfig
 233              		.thumb
 234              		.thumb_func
 235              		.type	SysTick_CLKSourceConfig, %function
 236              	SysTick_CLKSourceConfig:
 237              	.LFB116:
 238              		.loc 1 228 0
 239              		.cfi_startproc
 240              		@ args = 0, pretend = 0, frame = 0
 241              		@ frame_needed = 0, uses_anonymous_args = 0
 242              		@ link register save eliminated.
 243              	.LVL20:
 244              		.loc 1 233 0
 245 0000 044B     		ldr	r3, .L23
 246 0002 1A68     		ldr	r2, [r3]
 247              		.loc 1 231 0
 248 0004 0428     		cmp	r0, #4
 249              		.loc 1 233 0
 250 0006 0CBF     		ite	eq
 251 0008 42F00402 		orreq	r2, r2, #4
 252              		.loc 1 237 0
 253 000c 22F00402 		bicne	r2, r2, #4
 254 0010 1A60     		str	r2, [r3]
 255 0012 7047     		bx	lr
 256              	.L24:
 257              		.align	2
 258              	.L23:
 259 0014 10E000E0 		.word	-536813552
 260              		.cfi_endproc
 261              	.LFE116:
 262              		.size	SysTick_CLKSourceConfig, .-SysTick_CLKSourceConfig
 263 0018 AFF30080 		.text
 263      AFF30080 
 264              	.Letext0:
 265              		.file 2 "/usr/include/newlib/machine/_default_types.h"
 266              		.file 3 "/usr/include/newlib/stdint.h"
 267              		.file 4 "ChibiOS_3.0.2/os/ext/CMSIS/include/core_cm4.h"
 268              		.file 5 "ChibiOS_3.0.2/os/ext/CMSIS/ST/stm32f4xx.h"
 269              		.file 6 "ChibiOS_3.0.2/ext/stdperiph_stm32f4/inc/misc.h"