ARM GAS  /tmp/cc2g8b25.s 			page 1


   1              		.syntax unified
   2              		.cpu cortex-m4
   3              		.eabi_attribute 27, 3
   4              		.eabi_attribute 28, 1
   5              		.fpu fpv4-sp-d16
   6              		.eabi_attribute 20, 1
   7              		.eabi_attribute 21, 1
   8              		.eabi_attribute 23, 3
   9              		.eabi_attribute 24, 1
  10              		.eabi_attribute 25, 1
  11              		.eabi_attribute 26, 1
  12              		.eabi_attribute 30, 2
  13              		.eabi_attribute 34, 1
  14              		.eabi_attribute 18, 4
  15              		.thumb
  16              		.file	"nrf_driver.c"
  17              		.text
  18              	.Ltext0:
  19              		.cfi_sections	.debug_frame
  20              		.section	.text.tx_thread,"ax",%progbits
  21              		.align	2
  22              		.p2align 4,,15
  23              		.thumb
  24              		.thumb_func
  25              		.type	tx_thread, %function
  26              	tx_thread:
  27              	.LFB223:
  28              		.file 1 "nrf/nrf_driver.c"
  29              		.loc 1 144 0
  30              		.cfi_startproc
  31              		@ args = 0, pretend = 0, frame = 8
  32              		@ frame_needed = 0, uses_anonymous_args = 0
  33              	.LVL0:
  34              	.LBB35:
  35              	.LBB36:
  36              		.file 2 "ChibiOS_3.0.2/os/rt/include/chregistry.h"
  37              		.loc 2 135 0
  38 0000 1C4B     		ldr	r3, .L9
  39 0002 1D49     		ldr	r1, .L9+4
  40 0004 9A69     		ldr	r2, [r3, #24]
  41              	.LBE36:
  42              	.LBE35:
  43              		.loc 1 144 0
  44 0006 2DE9F043 		push	{r4, r5, r6, r7, r8, r9, lr}
  45              		.cfi_def_cfa_offset 28
  46              		.cfi_offset 4, -28
  47              		.cfi_offset 5, -24
  48              		.cfi_offset 6, -20
  49              		.cfi_offset 7, -16
  50              		.cfi_offset 8, -12
  51              		.cfi_offset 9, -8
  52              		.cfi_offset 14, -4
  53              		.loc 1 148 0
  54 000a 1C4F     		ldr	r7, .L9+8
  55              		.loc 1 151 0
  56 000c 1C4D     		ldr	r5, .L9+12
  57              	.LBB38:
ARM GAS  /tmp/cc2g8b25.s 			page 2


  58              	.LBB37:
  59              		.loc 2 135 0
  60 000e 9161     		str	r1, [r2, #24]
  61              	.LBE37:
  62              	.LBE38:
  63              		.loc 1 148 0
  64 0010 0123     		movs	r3, #1
  65 0012 3B70     		strb	r3, [r7]
  66              		.loc 1 151 0
  67 0014 2B78     		ldrb	r3, [r5]	@ zero_extendqisi2
  68              		.loc 1 144 0
  69 0016 83B0     		sub	sp, sp, #12
  70              		.cfi_def_cfa_offset 40
  71              		.loc 1 151 0
  72 0018 33BB     		cbnz	r3, .L5
  73 001a 1A4C     		ldr	r4, .L9+16
  74              		.loc 1 158 0
  75 001c 1A4E     		ldr	r6, .L9+20
  76              	.LBB39:
  77              	.LBB40:
  78              	.LBB41:
  79              		.loc 1 138 0
  80 001e DFF86C90 		ldr	r9, .L9+24
  81              	.LBE41:
  82              	.LBE40:
  83              		.loc 1 161 0
  84 0022 4FF00208 		mov	r8, #2
  85 0026 04E0     		b	.L6
  86              	.LVL1:
  87              	.L3:
  88              	.LBE39:
  89              		.loc 1 166 0
  90 0028 0A20     		movs	r0, #10
  91 002a FFF7FEFF 		bl	chThdSleep
  92              	.LVL2:
  93              		.loc 1 151 0
  94 002e 2B78     		ldrb	r3, [r5]	@ zero_extendqisi2
  95 0030 D3B9     		cbnz	r3, .L5
  96              	.L6:
  97              		.loc 1 156 0
  98 0032 2368     		ldr	r3, [r4]
  99 0034 0133     		adds	r3, r3, #1
 100              		.loc 1 158 0
 101 0036 312B     		cmp	r3, #49
 102              		.loc 1 156 0
 103 0038 2360     		str	r3, [r4]
 104              		.loc 1 158 0
 105 003a F5DD     		ble	.L3
 106              		.loc 1 158 0 is_stmt 0 discriminator 1
 107 003c 3378     		ldrb	r3, [r6]	@ zero_extendqisi2
 108 003e 002B     		cmp	r3, #0
 109 0040 F2D1     		bne	.L3
 110              	.LVL3:
 111              	.LBB48:
 112              		.loc 1 161 0 is_stmt 1
 113 0042 02A8     		add	r0, sp, #8
 114              	.LBB45:
ARM GAS  /tmp/cc2g8b25.s 			page 3


 115              	.LBB42:
 116              		.loc 1 135 0
 117 0044 0121     		movs	r1, #1
 118              	.LBE42:
 119              	.LBE45:
 120              		.loc 1 161 0
 121 0046 00F8048D 		strb	r8, [r0, #-4]!
 122              	.LVL4:
 123              	.LBB46:
 124              	.LBB43:
 125              		.loc 1 135 0
 126 004a FFF7FEFF 		bl	rfhelp_send_data_crc
 127              	.LVL5:
 128              	.LBE43:
 129              	.LBE46:
 130              		.loc 1 163 0
 131 004e 0023     		movs	r3, #0
 132              	.LBB47:
 133              	.LBB44:
 134              		.loc 1 138 0
 135 0050 4FF4FA72 		mov	r2, #500
 136              		.loc 1 137 0
 137 0054 08B9     		cbnz	r0, .L4
 138              		.loc 1 138 0
 139 0056 C9F80020 		str	r2, [r9]
 140              	.L4:
 141              	.LBE44:
 142              	.LBE47:
 143              	.LBE48:
 144              		.loc 1 166 0
 145 005a 0A20     		movs	r0, #10
 146              	.LVL6:
 147              	.LBB49:
 148              		.loc 1 163 0
 149 005c 2360     		str	r3, [r4]
 150              	.LBE49:
 151              		.loc 1 166 0
 152 005e FFF7FEFF 		bl	chThdSleep
 153              	.LVL7:
 154              		.loc 1 151 0
 155 0062 2B78     		ldrb	r3, [r5]	@ zero_extendqisi2
 156 0064 002B     		cmp	r3, #0
 157 0066 E4D0     		beq	.L6
 158              	.LVL8:
 159              	.L5:
 160              		.loc 1 152 0
 161 0068 0023     		movs	r3, #0
 162 006a 3B70     		strb	r3, [r7]
 163              		.loc 1 169 0
 164 006c 03B0     		add	sp, sp, #12
 165              		@ sp needed
 166 006e BDE8F083 		pop	{r4, r5, r6, r7, r8, r9, pc}
 167              	.L10:
 168 0072 00BF     		.align	2
 169              	.L9:
 170 0074 00000000 		.word	ch
 171 0078 00000000 		.word	.LC0
ARM GAS  /tmp/cc2g8b25.s 			page 4


 172 007c 00000000 		.word	.LANCHOR0
 173 0080 00000000 		.word	.LANCHOR1
 174 0084 00000000 		.word	.LANCHOR2
 175 0088 00000000 		.word	.LANCHOR3
 176 008c 00000000 		.word	.LANCHOR4
 177              		.cfi_endproc
 178              	.LFE223:
 179              		.size	tx_thread, .-tx_thread
 180              		.section	.text.nrf_driver_send_buffer,"ax",%progbits
 181              		.align	2
 182              		.p2align 4,,15
 183              		.global	nrf_driver_send_buffer
 184              		.thumb
 185              		.thumb_func
 186              		.type	nrf_driver_send_buffer, %function
 187              	nrf_driver_send_buffer:
 188              	.LFB225:
 189              		.loc 1 344 0
 190              		.cfi_startproc
 191              		@ args = 0, pretend = 0, frame = 40
 192              		@ frame_needed = 0, uses_anonymous_args = 0
 193              	.LVL9:
 194 0000 2DE9F04F 		push	{r4, r5, r6, r7, r8, r9, r10, fp, lr}
 195              		.cfi_def_cfa_offset 36
 196              		.cfi_offset 4, -36
 197              		.cfi_offset 5, -32
 198              		.cfi_offset 6, -28
 199              		.cfi_offset 7, -24
 200              		.cfi_offset 8, -20
 201              		.cfi_offset 9, -16
 202              		.cfi_offset 10, -12
 203              		.cfi_offset 11, -8
 204              		.cfi_offset 14, -4
 205              		.loc 1 347 0
 206 0004 1829     		cmp	r1, #24
 207              		.loc 1 344 0
 208 0006 8BB0     		sub	sp, sp, #44
 209              		.cfi_def_cfa_offset 80
 210              		.loc 1 344 0
 211 0008 8946     		mov	r9, r1
 212 000a 8246     		mov	r10, r0
 213              		.loc 1 347 0
 214 000c 40F2AE80 		bls	.L34
 215              	.LVL10:
 216              	.LBB50:
 217              		.loc 1 356 0
 218 0010 4FF0000B 		mov	fp, #0
 219 0014 674F     		ldr	r7, .L36
 220              		.loc 1 355 0
 221 0016 5C46     		mov	r4, fp
 222              		.loc 1 356 0
 223 0018 A1F11406 		sub	r6, r1, #20
 224              	.LVL11:
 225 001c 0546     		mov	r5, r0
 226              	.LBB51:
 227              	.LBB52:
 228              		.loc 1 366 0
ARM GAS  /tmp/cc2g8b25.s 			page 5


 229 001e 4FF00308 		mov	r8, #3
 230              	.LVL12:
 231              	.L15:
 232              		.loc 1 363 0
 233 0022 1734     		adds	r4, r4, #23
 234              	.LVL13:
 235              		.loc 1 367 0
 236 0024 5FFA8BF3 		uxtb	r3, fp
 237              		.loc 1 369 0
 238 0028 A642     		cmp	r6, r4
 239              		.loc 1 366 0
 240 002a 8DF80C80 		strb	r8, [sp, #12]
 241              		.loc 1 367 0
 242 002e 8DF80D30 		strb	r3, [sp, #13]
 243              		.loc 1 369 0
 244 0032 C0F0B280 		bcc	.L17
 245              		.loc 1 370 0
 246 0036 2B68     		ldr	r3, [r5]	@ unaligned
 247 0038 A968     		ldr	r1, [r5, #8]	@ unaligned
 248 003a EA68     		ldr	r2, [r5, #12]	@ unaligned
 249 003c CDF80E30 		str	r3, [sp, #14]	@ unaligned
 250 0040 6B68     		ldr	r3, [r5, #4]	@ unaligned
 251 0042 CDF81230 		str	r3, [sp, #18]	@ unaligned
 252 0046 CDF81610 		str	r1, [sp, #22]	@ unaligned
 253 004a 2B69     		ldr	r3, [r5, #16]	@ unaligned
 254 004c A98A     		ldrh	r1, [r5, #20]	@ unaligned
 255 004e CDF81A20 		str	r2, [sp, #26]	@ unaligned
 256 0052 AA7D     		ldrb	r2, [r5, #22]	@ zero_extendqisi2
 257 0054 ADF82210 		strh	r1, [sp, #34]	@ unaligned
 258 0058 CDF81E30 		str	r3, [sp, #30]	@ unaligned
 259 005c 8DF82420 		strb	r2, [sp, #36]
 260 0060 1921     		movs	r1, #25
 261              	.LVL14:
 262              	.L18:
 263              	.LBB53:
 264              	.LBB54:
 265              		.loc 1 135 0
 266 0062 03A8     		add	r0, sp, #12
 267              	.LVL15:
 268 0064 FFF7FEFF 		bl	rfhelp_send_data_crc
 269              	.LVL16:
 270 0068 0BF1170B 		add	fp, fp, #23
 271              	.LBE54:
 272              	.LBE53:
 273              		.loc 1 377 0
 274 006c 0023     		movs	r3, #0
 275 006e 1735     		adds	r5, r5, #23
 276              	.LBB56:
 277              	.LBB55:
 278              		.loc 1 138 0
 279 0070 4FF4FA72 		mov	r2, #500
 280              		.loc 1 137 0
 281 0074 08B9     		cbnz	r0, .L19
 282              		.loc 1 138 0
 283 0076 5049     		ldr	r1, .L36+4
 284 0078 0A60     		str	r2, [r1]
 285              	.L19:
ARM GAS  /tmp/cc2g8b25.s 			page 6


 286              	.LBE55:
 287              	.LBE56:
 288              	.LBE52:
 289              		.loc 1 358 0
 290 007a A642     		cmp	r6, r4
 291              	.LBB57:
 292              		.loc 1 377 0
 293 007c 3B60     		str	r3, [r7]
 294              	.LBE57:
 295              		.loc 1 358 0
 296 007e 42D9     		bls	.L25
 297              	.LBB58:
 298              		.loc 1 359 0
 299 0080 B4F58A7F 		cmp	r4, #276
 300 0084 CDD1     		bne	.L15
 301 0086 A6F11403 		sub	r3, r6, #20
 302 008a 5FFA83FB 		uxtb	fp, r3
 303 008e 0AF58A75 		add	r5, r10, #276
 304              	.LBE58:
 305              	.LBE51:
 306              	.LBB60:
 307              	.LBB61:
 308              		.loc 1 382 0
 309 0092 4FF00408 		mov	r8, #4
 310 0096 23E0     		b	.L26
 311              	.LVL17:
 312              	.L35:
 313              		.loc 1 387 0
 314 0098 2A68     		ldr	r2, [r5]	@ unaligned
 315 009a A968     		ldr	r1, [r5, #8]	@ unaligned
 316 009c CDF80F20 		str	r2, [sp, #15]	@ unaligned
 317 00a0 6A68     		ldr	r2, [r5, #4]	@ unaligned
 318 00a2 E868     		ldr	r0, [r5, #12]	@ unaligned
 319 00a4 CDF81320 		str	r2, [sp, #19]	@ unaligned
 320 00a8 CDF81710 		str	r1, [sp, #23]	@ unaligned
 321 00ac 2A69     		ldr	r2, [r5, #16]	@ unaligned
 322 00ae A98A     		ldrh	r1, [r5, #20]	@ unaligned
 323 00b0 ADF82310 		strh	r1, [sp, #35]	@ unaligned
 324 00b4 CDF81B00 		str	r0, [sp, #27]	@ unaligned
 325 00b8 CDF81F20 		str	r2, [sp, #31]	@ unaligned
 326 00bc 1921     		movs	r1, #25
 327              	.L23:
 328              	.LVL18:
 329              	.LBB62:
 330              	.LBB63:
 331              		.loc 1 135 0
 332 00be 03A8     		add	r0, sp, #12
 333              	.LVL19:
 334 00c0 FFF7FEFF 		bl	rfhelp_send_data_crc
 335              	.LVL20:
 336 00c4 ABF11603 		sub	r3, fp, #22
 337              	.LBE63:
 338              	.LBE62:
 339              		.loc 1 394 0
 340 00c8 0022     		movs	r2, #0
 341 00ca 1635     		adds	r5, r5, #22
 342 00cc 5FFA83FB 		uxtb	fp, r3
ARM GAS  /tmp/cc2g8b25.s 			page 7


 343              	.LBB65:
 344              	.LBB64:
 345              		.loc 1 138 0
 346 00d0 4FF4FA71 		mov	r1, #500
 347              		.loc 1 137 0
 348 00d4 08B9     		cbnz	r0, .L24
 349              		.loc 1 138 0
 350 00d6 384B     		ldr	r3, .L36+4
 351 00d8 1960     		str	r1, [r3]
 352              	.L24:
 353              	.LBE64:
 354              	.LBE65:
 355              	.LBE61:
 356              		.loc 1 380 0
 357 00da A642     		cmp	r6, r4
 358              	.LBB66:
 359              		.loc 1 394 0
 360 00dc 3A60     		str	r2, [r7]
 361              	.LVL21:
 362              	.LBE66:
 363              		.loc 1 380 0
 364 00de 12D9     		bls	.L25
 365              	.LVL22:
 366              	.L26:
 367              	.LBB67:
 368              		.loc 1 383 0
 369 00e0 220A     		lsrs	r2, r4, #8
 370              		.loc 1 384 0
 371 00e2 8DF80E40 		strb	r4, [sp, #14]
 372              		.loc 1 386 0
 373 00e6 1634     		adds	r4, r4, #22
 374              	.LVL23:
 375 00e8 A642     		cmp	r6, r4
 376              		.loc 1 382 0
 377 00ea 8DF80C80 		strb	r8, [sp, #12]
 378              		.loc 1 383 0
 379 00ee 8DF80D20 		strb	r2, [sp, #13]
 380              		.loc 1 386 0
 381 00f2 D1D2     		bcs	.L35
 382              		.loc 1 390 0
 383 00f4 2946     		mov	r1, r5
 384 00f6 0DF10F00 		add	r0, sp, #15
 385 00fa 5A46     		mov	r2, fp
 386 00fc FFF7FEFF 		bl	memcpy
 387              	.LVL24:
 388 0100 0BF10301 		add	r1, fp, #3
 389 0104 DBE7     		b	.L23
 390              	.LVL25:
 391              	.L25:
 392              	.LBE67:
 393              	.LBE60:
 394              		.loc 1 398 0
 395 0106 0522     		movs	r2, #5
 396              		.loc 1 399 0
 397 0108 4FEA1923 		lsr	r3, r9, #8
 398              		.loc 1 401 0
 399 010c 4946     		mov	r1, r9
ARM GAS  /tmp/cc2g8b25.s 			page 8


 400 010e 5046     		mov	r0, r10
 401              		.loc 1 404 0
 402 0110 5644     		add	r6, r6, r10
 403              	.LVL26:
 404              		.loc 1 398 0
 405 0112 8DF80C20 		strb	r2, [sp, #12]
 406              	.LVL27:
 407              		.loc 1 399 0
 408 0116 8DF80D30 		strb	r3, [sp, #13]
 409              	.LVL28:
 410              		.loc 1 400 0
 411 011a 8DF80E90 		strb	r9, [sp, #14]
 412              		.loc 1 401 0
 413 011e FFF7FEFF 		bl	crc16
 414              	.LVL29:
 415              		.loc 1 404 0
 416 0122 3368     		ldr	r3, [r6]	@ unaligned
 417 0124 CDF81130 		str	r3, [sp, #17]	@ unaligned
 418              		.loc 1 401 0
 419 0128 0246     		mov	r2, r0
 420              	.LVL30:
 421              		.loc 1 402 0
 422 012a 4FEA102C 		lsr	ip, r0, #8
 423              		.loc 1 404 0
 424 012e D6F804E0 		ldr	lr, [r6, #4]	@ unaligned
 425 0132 B568     		ldr	r5, [r6, #8]	@ unaligned
 426 0134 F468     		ldr	r4, [r6, #12]	@ unaligned
 427 0136 3369     		ldr	r3, [r6, #16]	@ unaligned
 428              		.loc 1 403 0
 429 0138 8DF81020 		strb	r2, [sp, #16]
 430              	.LBB68:
 431              	.LBB69:
 432              		.loc 1 135 0
 433 013c 03A8     		add	r0, sp, #12
 434              	.LVL31:
 435 013e 1921     		movs	r1, #25
 436              	.LBE69:
 437              	.LBE68:
 438              		.loc 1 402 0
 439 0140 8DF80FC0 		strb	ip, [sp, #15]
 440              	.LVL32:
 441              		.loc 1 404 0
 442 0144 CDF815E0 		str	lr, [sp, #21]	@ unaligned
 443 0148 CDF81950 		str	r5, [sp, #25]	@ unaligned
 444 014c CDF81D40 		str	r4, [sp, #29]	@ unaligned
 445 0150 CDF82130 		str	r3, [sp, #33]	@ unaligned
 446              	.LVL33:
 447              	.LBB71:
 448              	.LBB70:
 449              		.loc 1 135 0
 450 0154 FFF7FEFF 		bl	rfhelp_send_data_crc
 451              	.LVL34:
 452              		.loc 1 137 0
 453 0158 18B9     		cbnz	r0, .L14
 454              	.LBE70:
 455              	.LBE71:
 456              	.LBE50:
ARM GAS  /tmp/cc2g8b25.s 			page 9


 457              	.LBB73:
 458              	.LBB74:
 459              	.LBB75:
 460              		.loc 1 138 0
 461 015a 174B     		ldr	r3, .L36+4
 462 015c 4FF4FA72 		mov	r2, #500
 463 0160 1A60     		str	r2, [r3]
 464              	.LVL35:
 465              	.L14:
 466              	.LBE75:
 467              	.LBE74:
 468              		.loc 1 353 0
 469 0162 0023     		movs	r3, #0
 470 0164 3B60     		str	r3, [r7]
 471              	.LBE73:
 472              		.loc 1 410 0
 473 0166 0BB0     		add	sp, sp, #44
 474              		@ sp needed
 475 0168 BDE8F08F 		pop	{r4, r5, r6, r7, r8, r9, r10, fp, pc}
 476              	.LVL36:
 477              	.L34:
 478              	.LBB78:
 479              		.loc 1 349 0
 480 016c 0AAC     		add	r4, sp, #40
 481 016e 0623     		movs	r3, #6
 482 0170 04F81C3D 		strb	r3, [r4, #-28]!
 483              		.loc 1 350 0
 484 0174 0146     		mov	r1, r0
 485              	.LVL37:
 486 0176 4A46     		mov	r2, r9
 487 0178 0DF10D00 		add	r0, sp, #13
 488              	.LVL38:
 489 017c FFF7FEFF 		bl	memcpy
 490              	.LVL39:
 491              	.LBB77:
 492              	.LBB76:
 493              		.loc 1 135 0
 494 0180 2046     		mov	r0, r4
 495 0182 09F10101 		add	r1, r9, #1
 496              	.LVL40:
 497 0186 FFF7FEFF 		bl	rfhelp_send_data_crc
 498              	.LVL41:
 499 018a 0A4F     		ldr	r7, .L36
 500              		.loc 1 137 0
 501 018c 0028     		cmp	r0, #0
 502 018e E8D1     		bne	.L14
 503              		.loc 1 138 0
 504 0190 094B     		ldr	r3, .L36+4
 505 0192 4FF4FA72 		mov	r2, #500
 506 0196 1A60     		str	r2, [r3]
 507 0198 E3E7     		b	.L14
 508              	.LVL42:
 509              	.L17:
 510 019a F31A     		subs	r3, r6, r3
 511 019c DBB2     		uxtb	r3, r3
 512              	.LVL43:
 513              	.LBE76:
ARM GAS  /tmp/cc2g8b25.s 			page 10


 514              	.LBE77:
 515              	.LBE78:
 516              	.LBB79:
 517              	.LBB72:
 518              	.LBB59:
 519              		.loc 1 373 0
 520 019e 1A46     		mov	r2, r3
 521 01a0 2946     		mov	r1, r5
 522 01a2 0DF10E00 		add	r0, sp, #14
 523 01a6 0193     		str	r3, [sp, #4]
 524 01a8 FFF7FEFF 		bl	memcpy
 525              	.LVL44:
 526 01ac 019B     		ldr	r3, [sp, #4]
 527 01ae 991C     		adds	r1, r3, #2
 528 01b0 57E7     		b	.L18
 529              	.L37:
 530 01b2 00BF     		.align	2
 531              	.L36:
 532 01b4 00000000 		.word	.LANCHOR2
 533 01b8 00000000 		.word	.LANCHOR4
 534              	.LBE59:
 535              	.LBE72:
 536              	.LBE79:
 537              		.cfi_endproc
 538              	.LFE225:
 539              		.size	nrf_driver_send_buffer, .-nrf_driver_send_buffer
 540 01bc AFF30080 		.section	.text.rx_thread,"ax",%progbits
 541              		.align	2
 542              		.p2align 4,,15
 543              		.thumb
 544              		.thumb_func
 545              		.type	rx_thread, %function
 546              	rx_thread:
 547              	.LFB224:
 548              		.loc 1 171 0
 549              		.cfi_startproc
 550              		@ args = 0, pretend = 0, frame = 256
 551              		@ frame_needed = 0, uses_anonymous_args = 0
 552              	.LVL45:
 553 0000 2DE9F04F 		push	{r4, r5, r6, r7, r8, r9, r10, fp, lr}
 554              		.cfi_def_cfa_offset 36
 555              		.cfi_offset 4, -36
 556              		.cfi_offset 5, -32
 557              		.cfi_offset 6, -28
 558              		.cfi_offset 7, -24
 559              		.cfi_offset 8, -20
 560              		.cfi_offset 9, -16
 561              		.cfi_offset 10, -12
 562              		.cfi_offset 11, -8
 563              		.cfi_offset 14, -4
 564              		.loc 1 175 0
 565 0004 B248     		ldr	r0, .L64
 566              	.LVL46:
 567              	.LBB80:
 568              	.LBB81:
 569              		.loc 2 135 0
 570 0006 B34F     		ldr	r7, .L64+4
ARM GAS  /tmp/cc2g8b25.s 			page 11


 571 0008 B349     		ldr	r1, .L64+8
 572 000a BB69     		ldr	r3, [r7, #24]
 573              	.LBE81:
 574              	.LBE80:
 575              		.loc 1 175 0
 576 000c 0122     		movs	r2, #1
 577              		.loc 1 171 0
 578 000e 2DED028B 		fstmfdd	sp!, {d8}
 579              		.cfi_def_cfa_offset 44
 580              		.cfi_offset 80, -44
 581              		.loc 1 175 0
 582 0012 0270     		strb	r2, [r0]
 583              	.LBB83:
 584              		.loc 1 178 0
 585 0014 B148     		ldr	r0, .L64+12
 586              	.LBE83:
 587              	.LBB96:
 588              	.LBB82:
 589              		.loc 2 135 0
 590 0016 9961     		str	r1, [r3, #24]
 591              	.LBE82:
 592              	.LBE96:
 593              	.LBB97:
 594              		.loc 1 178 0
 595 0018 0278     		ldrb	r2, [r0]	@ zero_extendqisi2
 596              	.LBE97:
 597              		.loc 1 171 0
 598 001a C1B0     		sub	sp, sp, #260
 599              		.cfi_def_cfa_offset 304
 600              	.LBB98:
 601              		.loc 1 178 0
 602 001c 002A     		cmp	r2, #0
 603 001e 40F02C81 		bne	.L39
 604 0022 AF4D     		ldr	r5, .L64+16
 605 0024 DFF8D082 		ldr	r8, .L64+40
 606              	.LBB84:
 607              	.LBB85:
 608              	.LBB86:
 609              		.loc 1 289 0
 610 0028 DFF8D0A2 		ldr	r10, .L64+44
 611              		.loc 1 291 0
 612 002c AD4E     		ldr	r6, .L64+20
 613              	.LBE86:
 614              		.loc 1 213 0
 615 002e 9FEDAE8A 		flds	s16, .L64+24
 616              	.L40:
 617              	.LBE85:
 618              		.loc 1 188 0
 619 0032 06A8     		add	r0, sp, #24
 620 0034 03A9     		add	r1, sp, #12
 621 0036 04AA     		add	r2, sp, #16
 622 0038 FFF7FEFF 		bl	rfhelp_read_rx_data_crc
 623              	.LVL47:
 624              		.loc 1 191 0
 625 003c 0023     		movs	r3, #0
 626              		.loc 1 195 0
 627 003e 041E     		subs	r4, r0, #0
ARM GAS  /tmp/cc2g8b25.s 			page 12


 628              		.loc 1 191 0
 629 0040 0593     		str	r3, [sp, #20]
 630              		.loc 1 195 0
 631 0042 C0F2FE80 		blt	.L41
 632              	.LBB90:
 633              		.loc 1 196 0
 634 0046 9DF81830 		ldrb	r3, [sp, #24]	@ zero_extendqisi2
 635              	.LVL48:
 636              		.loc 1 198 0
 637 004a 4FF4FA72 		mov	r2, #500
 638              		.loc 1 200 0
 639 004e 013B     		subs	r3, r3, #1
 640              		.loc 1 198 0
 641 0050 2A60     		str	r2, [r5]
 642              		.loc 1 200 0
 643 0052 062B     		cmp	r3, #6
 644 0054 3ED8     		bhi	.L42
 645 0056 DFE803F0 		tbb	[pc, r3]
 646              	.LVL49:
 647              	.L44:
 648 005a 04       		.byte	(.L43-.L44)/2
 649 005b 3D       		.byte	(.L42-.L44)/2
 650 005c A2       		.byte	(.L45-.L44)/2
 651 005d 90       		.byte	(.L46-.L44)/2
 652 005e 55       		.byte	(.L47-.L44)/2
 653 005f 44       		.byte	(.L48-.L44)/2
 654 0060 AD       		.byte	(.L49-.L44)/2
 655 0061 00       		.p2align 1
 656              	.L43:
 657              		.loc 1 209 0
 658 0062 9DF81B30 		ldrb	r3, [sp, #27]	@ zero_extendqisi2
 659              	.LVL50:
 660              		.loc 1 207 0
 661 0066 DFF89892 		ldr	r9, .L64+48
 662 006a 9DF81920 		ldrb	r2, [sp, #25]	@ zero_extendqisi2
 663 006e 89F80020 		strb	r2, [r9]
 664              		.loc 1 210 0
 665 0072 03F00101 		and	r1, r3, #1
 666              		.loc 1 208 0
 667 0076 9DF81A20 		ldrb	r2, [sp, #26]	@ zero_extendqisi2
 668              		.loc 1 210 0
 669 007a 89F80210 		strb	r1, [r9, #2]
 670              		.loc 1 211 0
 671 007e C3F34001 		ubfx	r1, r3, #1, #1
 672              		.loc 1 208 0
 673 0082 89F80120 		strb	r2, [r9, #1]
 674              		.loc 1 212 0
 675 0086 C3F38003 		ubfx	r3, r3, #2, #1
 676              	.LVL51:
 677              		.loc 1 209 0
 678 008a 0422     		movs	r2, #4
 679              		.loc 1 211 0
 680 008c 89F80310 		strb	r1, [r9, #3]
 681              		.loc 1 213 0
 682 0090 06A8     		add	r0, sp, #24
 683              	.LVL52:
 684 0092 05A9     		add	r1, sp, #20
ARM GAS  /tmp/cc2g8b25.s 			page 13


 685              		.loc 1 212 0
 686 0094 89F80430 		strb	r3, [r9, #4]
 687              		.loc 1 209 0
 688 0098 0592     		str	r2, [sp, #20]
 689              		.loc 1 213 0
 690 009a FFF7FEFF 		bl	buffer_get_int16
 691              	.LVL53:
 692 009e 07EE100A 		fmsr	s14, r0	@ int
 693 00a2 F8EEC77A 		fsitos	s15, s14
 694              		.loc 1 215 0
 695 00a6 99F80010 		ldrb	r1, [r9]	@ zero_extendqisi2
 696              		.loc 1 216 0
 697 00aa 99F80130 		ldrb	r3, [r9, #1]	@ zero_extendqisi2
 698 00ae 0F93     		str	r3, [sp, #60]
 699              		.loc 1 213 0
 700 00b0 C7EE887A 		fdivs	s15, s15, s16
 701              		.loc 1 215 0
 702 00b4 C1F1FF01 		rsb	r1, r1, #255
 703              		.loc 1 217 0
 704 00b8 99F80220 		ldrb	r2, [r9, #2]	@ zero_extendqisi2
 705              		.loc 1 218 0
 706 00bc 99F80330 		ldrb	r3, [r9, #3]	@ zero_extendqisi2
 707              		.loc 1 215 0
 708 00c0 0E91     		str	r1, [sp, #56]
 709              		.loc 1 220 0
 710 00c2 0EA8     		add	r0, sp, #56
 711              		.loc 1 217 0
 712 00c4 8DF84C20 		strb	r2, [sp, #76]
 713              		.loc 1 218 0
 714 00c8 8DF84D30 		strb	r3, [sp, #77]
 715              		.loc 1 213 0
 716 00cc C9ED027A 		fsts	s15, [r9, #8]
 717              		.loc 1 220 0
 718 00d0 FFF7FEFF 		bl	app_nunchuk_update_output
 719              	.LVL54:
 720              	.L42:
 721              	.LBE90:
 722              		.loc 1 310 0
 723 00d4 002C     		cmp	r4, #0
 724 00d6 00F0B480 		beq	.L41
 725              		.loc 1 314 0
 726 00da 0A20     		movs	r0, #10
 727 00dc FFF7FEFF 		bl	chThdSleep
 728              	.LVL55:
 729              	.LBE84:
 730              		.loc 1 316 0
 731 00e0 A7E7     		b	.L40
 732              	.LVL56:
 733              	.L48:
 734              	.LBB92:
 735              	.LBB91:
 736              		.loc 1 267 0
 737 00e2 1420     		movs	r0, #20
 738 00e4 FFF7FEFF 		bl	chThdSleep
 739              	.LVL57:
 740              		.loc 1 269 0
 741 00e8 8048     		ldr	r0, .L64+28
ARM GAS  /tmp/cc2g8b25.s 			page 14


 742 00ea FFF7FEFF 		bl	commands_set_send_func
 743              	.LVL58:
 744              		.loc 1 271 0
 745 00ee 0399     		ldr	r1, [sp, #12]
 746              		.loc 1 270 0
 747 00f0 0123     		movs	r3, #1
 748              		.loc 1 271 0
 749 00f2 0139     		subs	r1, r1, #1
 750 00f4 0DF11900 		add	r0, sp, #25
 751              		.loc 1 270 0
 752 00f8 3370     		strb	r3, [r6]
 753              		.loc 1 271 0
 754 00fa FFF7FEFF 		bl	commands_process_packet
 755              	.LVL59:
 756              		.loc 1 272 0
 757 00fe 0023     		movs	r3, #0
 758 0100 3370     		strb	r3, [r6]
 759              		.loc 1 273 0
 760 0102 E7E7     		b	.L42
 761              	.LVL60:
 762              	.L47:
 763              	.LBB87:
 764              		.loc 1 239 0
 765 0104 9DF81A30 		ldrb	r3, [sp, #26]	@ zero_extendqisi2
 766              		.loc 1 238 0
 767 0108 9DF81990 		ldrb	r9, [sp, #25]	@ zero_extendqisi2
 768              	.LVL61:
 769              		.loc 1 239 0
 770 010c 43EA0929 		orr	r9, r3, r9, lsl #8
 771              	.LVL62:
 772              		.loc 1 241 0
 773 0110 B9F5806F 		cmp	r9, #1024
 774              		.loc 1 239 0
 775 0114 4FF00303 		mov	r3, #3
 776 0118 0593     		str	r3, [sp, #20]
 777              		.loc 1 241 0
 778 011a DBDC     		bgt	.L42
 779              		.loc 1 248 0
 780 011c 039A     		ldr	r2, [sp, #12]
 781 011e DFF8D0B1 		ldr	fp, .L64+32
 782              		.loc 1 246 0
 783 0122 9DF81C30 		ldrb	r3, [sp, #28]	@ zero_extendqisi2
 784              		.loc 1 245 0
 785 0126 9DF81BC0 		ldrb	ip, [sp, #27]	@ zero_extendqisi2
 786              	.LVL63:
 787              		.loc 1 246 0
 788 012a 0193     		str	r3, [sp, #4]
 789              	.LVL64:
 790              		.loc 1 248 0
 791 012c C2F10500 		rsb	r0, r2, #5
 792 0130 4844     		add	r0, r0, r9
 793              		.loc 1 246 0
 794 0132 0523     		movs	r3, #5
 795              		.loc 1 248 0
 796 0134 053A     		subs	r2, r2, #5
 797 0136 0DF11D01 		add	r1, sp, #29
 798 013a 5844     		add	r0, r0, fp
ARM GAS  /tmp/cc2g8b25.s 			page 15


 799              		.loc 1 246 0
 800 013c 0593     		str	r3, [sp, #20]
 801              		.loc 1 248 0
 802 013e CDF800C0 		str	ip, [sp]
 803 0142 FFF7FEFF 		bl	memcpy
 804              	.LVL65:
 805              		.loc 1 250 0
 806 0146 5846     		mov	r0, fp
 807 0148 4946     		mov	r1, r9
 808 014a FFF7FEFF 		bl	crc16
 809              	.LVL66:
 810              		.loc 1 252 0
 811 014e DDF800C0 		ldr	ip, [sp]
 812 0152 019A     		ldr	r2, [sp, #4]
 813 0154 42EA0C23 		orr	r3, r2, ip, lsl #8
 814              		.loc 1 250 0
 815 0158 9842     		cmp	r0, r3
 816 015a BBD1     		bne	.L42
 817              		.loc 1 255 0
 818 015c 1420     		movs	r0, #20
 819 015e FFF7FEFF 		bl	chThdSleep
 820              	.LVL67:
 821              		.loc 1 257 0
 822 0162 6248     		ldr	r0, .L64+28
 823 0164 FFF7FEFF 		bl	commands_set_send_func
 824              	.LVL68:
 825              		.loc 1 258 0
 826 0168 0123     		movs	r3, #1
 827              		.loc 1 259 0
 828 016a 5846     		mov	r0, fp
 829 016c 4946     		mov	r1, r9
 830              		.loc 1 258 0
 831 016e 3370     		strb	r3, [r6]
 832              		.loc 1 259 0
 833 0170 FFF7FEFF 		bl	commands_process_packet
 834              	.LVL69:
 835              		.loc 1 260 0
 836 0174 0023     		movs	r3, #0
 837 0176 3370     		strb	r3, [r6]
 838 0178 ACE7     		b	.L42
 839              	.LVL70:
 840              	.L46:
 841              	.LBE87:
 842              	.LBB88:
 843              		.loc 1 228 0
 844 017a 9DF81920 		ldrb	r2, [sp, #25]	@ zero_extendqisi2
 845              	.LVL71:
 846              		.loc 1 229 0
 847 017e 9DF81A30 		ldrb	r3, [sp, #26]	@ zero_extendqisi2
 848 0182 43EA0223 		orr	r3, r3, r2, lsl #8
 849              	.LVL72:
 850              		.loc 1 230 0
 851 0186 B3F5806F 		cmp	r3, #1024
 852 018a A3DA     		bge	.L42
 853              		.loc 1 231 0
 854 018c 039A     		ldr	r2, [sp, #12]
 855 018e 5848     		ldr	r0, .L64+32
ARM GAS  /tmp/cc2g8b25.s 			page 16


 856 0190 033A     		subs	r2, r2, #3
 857 0192 1844     		add	r0, r0, r3
 858 0194 0DF11B01 		add	r1, sp, #27
 859 0198 FFF7FEFF 		bl	memcpy
 860              	.LVL73:
 861 019c 9AE7     		b	.L42
 862              	.LVL74:
 863              	.L45:
 864              	.LBE88:
 865              		.loc 1 224 0
 866 019e 9DF81930 		ldrb	r3, [sp, #25]	@ zero_extendqisi2
 867 01a2 039A     		ldr	r2, [sp, #12]
 868 01a4 5248     		ldr	r0, .L64+32
 869 01a6 023A     		subs	r2, r2, #2
 870 01a8 1844     		add	r0, r0, r3
 871 01aa 0DF11A01 		add	r1, sp, #26
 872 01ae FFF7FEFF 		bl	memcpy
 873              	.LVL75:
 874              		.loc 1 225 0
 875 01b2 8FE7     		b	.L42
 876              	.LVL76:
 877              	.L49:
 878              	.LBB89:
 879              		.loc 1 276 0
 880 01b4 4FF00109 		mov	r9, #1
 881 01b8 CDF81490 		str	r9, [sp, #20]
 882              		.loc 1 278 0
 883 01bc FFF7FEFF 		bl	app_get_configuration
 884              	.LVL77:
 885 01c0 C822     		movs	r2, #200
 886 01c2 0146     		mov	r1, r0
 887 01c4 0EA8     		add	r0, sp, #56
 888 01c6 FFF7FEFF 		bl	memcpy
 889              	.LVL78:
 890              		.loc 1 279 0
 891 01ca 059A     		ldr	r2, [sp, #20]
 892              		.loc 1 283 0
 893 01cc 8DF8F690 		strb	r9, [sp, #246]
 894              		.loc 1 279 0
 895 01d0 40AB     		add	r3, sp, #256
 896 01d2 1344     		add	r3, r3, r2
 897              		.loc 1 282 0
 898 01d4 0432     		adds	r2, r2, #4
 899              		.loc 1 279 0
 900 01d6 13F8E80C 		ldrb	r0, [r3, #-232]	@ zero_extendqisi2
 901              		.loc 1 280 0
 902 01da 13F8E7EC 		ldrb	lr, [r3, #-231]	@ zero_extendqisi2
 903              		.loc 1 281 0
 904 01de 13F8E61C 		ldrb	r1, [r3, #-230]	@ zero_extendqisi2
 905              		.loc 1 282 0
 906 01e2 0592     		str	r2, [sp, #20]
 907              		.loc 1 287 0
 908 01e4 4FF0000B 		mov	fp, #0
 909              		.loc 1 282 0
 910 01e8 13F8E52C 		ldrb	r2, [r3, #-229]	@ zero_extendqisi2
 911              		.loc 1 279 0
 912 01ec 8DF8FA00 		strb	r0, [sp, #250]
ARM GAS  /tmp/cc2g8b25.s 			page 17


 913              		.loc 1 284 0
 914 01f0 0323     		movs	r3, #3
 915              		.loc 1 292 0
 916 01f2 0EA8     		add	r0, sp, #56
 917              		.loc 1 280 0
 918 01f4 8DF8FBE0 		strb	lr, [sp, #251]
 919              		.loc 1 282 0
 920 01f8 8DF8F920 		strb	r2, [sp, #249]
 921              		.loc 1 284 0
 922 01fc 8DF8F830 		strb	r3, [sp, #248]
 923              		.loc 1 285 0
 924 0200 8DF8F730 		strb	r3, [sp, #247]
 925              		.loc 1 281 0
 926 0204 8DF8FC10 		strb	r1, [sp, #252]
 927              		.loc 1 286 0
 928 0208 8DF8FD90 		strb	r9, [sp, #253]
 929              		.loc 1 291 0
 930 020c 86F80090 		strb	r9, [r6]
 931              		.loc 1 287 0
 932 0210 8DF8F4B0 		strb	fp, [sp, #244]
 933              		.loc 1 289 0
 934 0214 8AF800B0 		strb	fp, [r10]
 935              		.loc 1 292 0
 936 0218 FFF7FEFF 		bl	conf_general_store_app_configuration
 937              	.LVL79:
 938              		.loc 1 293 0
 939 021c 0EA8     		add	r0, sp, #56
 940 021e FFF7FEFF 		bl	app_set_configuration
 941              	.LVL80:
 942              		.loc 1 294 0
 943 0222 0EA9     		add	r1, sp, #56
 944 0224 1120     		movs	r0, #17
 945 0226 FFF7FEFF 		bl	commands_send_appconf
 946              	.LVL81:
 947              		.loc 1 297 0
 948 022a 2523     		movs	r3, #37
 949              		.loc 1 299 0
 950 022c 02A8     		add	r0, sp, #8
 951 022e 0221     		movs	r1, #2
 952              		.loc 1 298 0
 953 0230 8DF80990 		strb	r9, [sp, #9]
 954              		.loc 1 297 0
 955 0234 8DF80830 		strb	r3, [sp, #8]
 956              		.loc 1 299 0
 957 0238 FFF7FEFF 		bl	commands_send_packet
 958              	.LVL82:
 959              		.loc 1 301 0
 960 023c 86F800B0 		strb	fp, [r6]
 961              	.LBE89:
 962              		.loc 1 302 0
 963 0240 48E7     		b	.L42
 964              	.L41:
 965              	.LBE91:
 966              	.LBE92:
 967              	.LBB93:
 968              	.LBB94:
 969              		.file 3 "ChibiOS_3.0.2/os/rt/include/chvt.h"
ARM GAS  /tmp/cc2g8b25.s 			page 18


 970              		.loc 3 231 0
 971 0242 BA6A     		ldr	r2, [r7, #40]
 972              	.LBE94:
 973              	.LBE93:
 974              		.loc 1 318 0
 975 0244 D8F80030 		ldr	r3, [r8]
 976 0248 9342     		cmp	r3, r2
 977 024a 02D2     		bcs	.L52
 978              		.loc 1 318 0 is_stmt 0 discriminator 1
 979 024c 9AF80030 		ldrb	r3, [r10]	@ zero_extendqisi2
 980 0250 2BBB     		cbnz	r3, .L63
 981              	.L52:
 982              		.loc 1 329 0 is_stmt 1
 983 0252 3220     		movs	r0, #50
 984 0254 FFF7FEFF 		bl	chThdSleep
 985              	.LVL83:
 986              		.loc 1 332 0
 987 0258 2B68     		ldr	r3, [r5]
 988 025a 2149     		ldr	r1, .L64+16
 989 025c 002B     		cmp	r3, #0
 990 025e 14DD     		ble	.L53
 991              		.loc 1 332 0 is_stmt 0 discriminator 1
 992 0260 2448     		ldr	r0, .L64+36
 993 0262 0268     		ldr	r2, [r0]
 994 0264 002A     		cmp	r2, #0
 995 0266 10DD     		ble	.L53
 996              		.loc 1 333 0 is_stmt 1
 997 0268 053B     		subs	r3, r3, #5
 998              		.loc 1 334 0
 999 026a 053A     		subs	r2, r2, #5
 1000              		.loc 1 333 0
 1001 026c 0B60     		str	r3, [r1]
 1002              		.loc 1 334 0
 1003 026e 0260     		str	r2, [r0]
 1004              	.L54:
 1005              		.loc 1 178 0
 1006 0270 1A48     		ldr	r0, .L64+12
 1007 0272 0378     		ldrb	r3, [r0]	@ zero_extendqisi2
 1008 0274 002B     		cmp	r3, #0
 1009 0276 3FF4DCAE 		beq	.L40
 1010              	.LVL84:
 1011              	.L39:
 1012              		.loc 1 179 0
 1013 027a 154A     		ldr	r2, .L64
 1014 027c 0023     		movs	r3, #0
 1015 027e 1370     		strb	r3, [r2]
 1016              	.LBE98:
 1017              		.loc 1 342 0
 1018 0280 41B0     		add	sp, sp, #260
 1019              		@ sp needed
 1020 0282 BDEC028B 		fldmfdd	sp!, {d8}
 1021 0286 BDE8F08F 		pop	{r4, r5, r6, r7, r8, r9, r10, fp, pc}
 1022              	.LVL85:
 1023              	.L53:
 1024              	.LBB99:
 1025              		.loc 1 336 0
 1026 028a FFF7FEFF 		bl	rfhelp_power_up
ARM GAS  /tmp/cc2g8b25.s 			page 19


 1027              	.LVL86:
 1028              		.loc 1 337 0
 1029 028e FFF7FEFF 		bl	rfhelp_restart
 1030              	.LVL87:
 1031              		.loc 1 339 0
 1032 0292 184A     		ldr	r2, .L64+36
 1033              		.loc 1 338 0
 1034 0294 4FF4FA73 		mov	r3, #500
 1035 0298 2B60     		str	r3, [r5]
 1036              		.loc 1 339 0
 1037 029a 1360     		str	r3, [r2]
 1038 029c E8E7     		b	.L54
 1039              	.L63:
 1040              	.LBB95:
 1041              		.loc 1 319 0
 1042 029e 0023     		movs	r3, #0
 1043 02a0 8AF80030 		strb	r3, [r10]
 1044              		.loc 1 320 0
 1045 02a4 FFF7FEFF 		bl	app_get_configuration
 1046              	.LVL88:
 1047 02a8 BC30     		adds	r0, r0, #188
 1048 02aa 07C8     		ldmia	r0, {r0, r1, r2}
 1049 02ac 0EAB     		add	r3, sp, #56
 1050 02ae 03C3     		stmia	r3!, {r0, r1}
 1051              		.loc 1 321 0
 1052 02b0 0EA8     		add	r0, sp, #56
 1053              		.loc 1 320 0
 1054 02b2 1A80     		strh	r2, [r3]	@ movhi
 1055              		.loc 1 321 0
 1056 02b4 FFF7FEFF 		bl	rfhelp_update_conf
 1057              	.LVL89:
 1058              		.loc 1 325 0
 1059 02b8 0223     		movs	r3, #2
 1060              		.loc 1 324 0
 1061 02ba 2522     		movs	r2, #37
 1062              		.loc 1 326 0
 1063 02bc 1946     		mov	r1, r3
 1064 02be 05A8     		add	r0, sp, #20
 1065              		.loc 1 325 0
 1066 02c0 8DF81530 		strb	r3, [sp, #21]
 1067              		.loc 1 324 0
 1068 02c4 8DF81420 		strb	r2, [sp, #20]
 1069              		.loc 1 326 0
 1070 02c8 FFF7FEFF 		bl	commands_send_packet
 1071              	.LVL90:
 1072 02cc C1E7     		b	.L52
 1073              	.L65:
 1074 02ce 00BF     		.align	2
 1075              	.L64:
 1076 02d0 00000000 		.word	.LANCHOR5
 1077 02d4 00000000 		.word	ch
 1078 02d8 08000000 		.word	.LC1
 1079 02dc 00000000 		.word	.LANCHOR6
 1080 02e0 00000000 		.word	.LANCHOR7
 1081 02e4 00000000 		.word	.LANCHOR10
 1082 02e8 00007A44 		.word	1148846080
 1083 02ec 00000000 		.word	nrf_driver_send_buffer
ARM GAS  /tmp/cc2g8b25.s 			page 20


 1084 02f0 00000000 		.word	.LANCHOR9
 1085 02f4 00000000 		.word	.LANCHOR4
 1086 02f8 00000000 		.word	.LANCHOR11
 1087 02fc 00000000 		.word	.LANCHOR3
 1088 0300 00000000 		.word	.LANCHOR8
 1089              	.LBE95:
 1090              	.LBE99:
 1091              		.cfi_endproc
 1092              	.LFE224:
 1093              		.size	rx_thread, .-rx_thread
 1094 0304 AFF30080 		.section	.text.nrf_driver_stop,"ax",%progbits
 1094      AFF30080 
 1094      AFF30080 
 1095              		.align	2
 1096              		.p2align 4,,15
 1097              		.global	nrf_driver_stop
 1098              		.thumb
 1099              		.thumb_func
 1100              		.type	nrf_driver_stop, %function
 1101              	nrf_driver_stop:
 1102              	.LFB220:
 1103              		.loc 1 92 0
 1104              		.cfi_startproc
 1105              		@ args = 0, pretend = 0, frame = 0
 1106              		@ frame_needed = 0, uses_anonymous_args = 0
 1107 0000 38B5     		push	{r3, r4, r5, lr}
 1108              		.cfi_def_cfa_offset 16
 1109              		.cfi_offset 3, -16
 1110              		.cfi_offset 4, -12
 1111              		.cfi_offset 5, -8
 1112              		.cfi_offset 14, -4
 1113              		.loc 1 93 0
 1114 0002 0D4B     		ldr	r3, .L78
 1115 0004 1B78     		ldrb	r3, [r3]	@ zero_extendqisi2
 1116 0006 B3B9     		cbnz	r3, .L66
 1117              		.loc 1 97 0
 1118 0008 0C49     		ldr	r1, .L78+4
 1119              		.loc 1 98 0
 1120 000a 0D4A     		ldr	r2, .L78+8
 1121              		.loc 1 100 0
 1122 000c 0D4C     		ldr	r4, .L78+12
 1123 000e 0E4D     		ldr	r5, .L78+16
 1124              		.loc 1 97 0
 1125 0010 0123     		movs	r3, #1
 1126 0012 0B70     		strb	r3, [r1]
 1127              		.loc 1 98 0
 1128 0014 1370     		strb	r3, [r2]
 1129              		.loc 1 100 0
 1130 0016 2378     		ldrb	r3, [r4]	@ zero_extendqisi2
 1131 0018 0BB9     		cbnz	r3, .L68
 1132              		.loc 1 100 0 is_stmt 0 discriminator 1
 1133 001a 2B78     		ldrb	r3, [r5]	@ zero_extendqisi2
 1134 001c 23B1     		cbz	r3, .L70
 1135              	.L68:
 1136              		.loc 1 101 0 is_stmt 1
 1137 001e FFF7FEFF 		bl	rfhelp_stop
 1138              	.LVL91:
ARM GAS  /tmp/cc2g8b25.s 			page 21


 1139 0022 01E0     		b	.L70
 1140              	.L71:
 1141              		.loc 1 105 0
 1142 0024 FFF7FEFF 		bl	chThdSleep
 1143              	.LVL92:
 1144              	.L70:
 1145              		.loc 1 104 0 discriminator 1
 1146 0028 2378     		ldrb	r3, [r4]	@ zero_extendqisi2
 1147              		.loc 1 105 0 discriminator 1
 1148 002a 0A20     		movs	r0, #10
 1149              		.loc 1 104 0 discriminator 1
 1150 002c 002B     		cmp	r3, #0
 1151 002e F9D1     		bne	.L71
 1152              		.loc 1 104 0 is_stmt 0 discriminator 2
 1153 0030 2B78     		ldrb	r3, [r5]	@ zero_extendqisi2
 1154 0032 002B     		cmp	r3, #0
 1155 0034 F6D1     		bne	.L71
 1156              	.L66:
 1157 0036 38BD     		pop	{r3, r4, r5, pc}
 1158              	.L79:
 1159              		.align	2
 1160              	.L78:
 1161 0038 00000000 		.word	.LANCHOR10
 1162 003c 00000000 		.word	.LANCHOR1
 1163 0040 00000000 		.word	.LANCHOR6
 1164 0044 00000000 		.word	.LANCHOR5
 1165 0048 00000000 		.word	.LANCHOR0
 1166              		.cfi_endproc
 1167              	.LFE220:
 1168              		.size	nrf_driver_stop, .-nrf_driver_stop
 1169 004c AFF30080 		.section	.text.nrf_driver_init,"ax",%progbits
 1170              		.align	2
 1171              		.p2align 4,,15
 1172              		.global	nrf_driver_init
 1173              		.thumb
 1174              		.thumb_func
 1175              		.type	nrf_driver_init, %function
 1176              	nrf_driver_init:
 1177              	.LFB219:
 1178              		.loc 1 64 0 is_stmt 1
 1179              		.cfi_startproc
 1180              		@ args = 0, pretend = 0, frame = 0
 1181              		@ frame_needed = 0, uses_anonymous_args = 0
 1182 0000 2DE9F043 		push	{r4, r5, r6, r7, r8, r9, lr}
 1183              		.cfi_def_cfa_offset 28
 1184              		.cfi_offset 4, -28
 1185              		.cfi_offset 5, -24
 1186              		.cfi_offset 6, -20
 1187              		.cfi_offset 7, -16
 1188              		.cfi_offset 8, -12
 1189              		.cfi_offset 9, -8
 1190              		.cfi_offset 14, -4
 1191              		.loc 1 65 0
 1192 0004 204B     		ldr	r3, .L87
 1193 0006 1B78     		ldrb	r3, [r3]	@ zero_extendqisi2
 1194              		.loc 1 64 0
 1195 0008 83B0     		sub	sp, sp, #12
ARM GAS  /tmp/cc2g8b25.s 			page 22


 1196              		.cfi_def_cfa_offset 40
 1197              		.loc 1 65 0
 1198 000a 03F0FF05 		and	r5, r3, #255
 1199 000e 23B1     		cbz	r3, .L86
 1200              		.loc 1 66 0
 1201 0010 0124     		movs	r4, #1
 1202              	.L81:
 1203              		.loc 1 90 0
 1204 0012 2046     		mov	r0, r4
 1205 0014 03B0     		add	sp, sp, #12
 1206              		@ sp needed
 1207 0016 BDE8F083 		pop	{r4, r5, r6, r7, r8, r9, pc}
 1208              	.L86:
 1209              		.loc 1 69 0
 1210 001a FFF7FEFF 		bl	nrf_driver_stop
 1211              	.LVL93:
 1212              		.loc 1 71 0
 1213 001e FFF7FEFF 		bl	rfhelp_init
 1214              	.LVL94:
 1215 0022 0446     		mov	r4, r0
 1216 0024 0028     		cmp	r0, #0
 1217 0026 F4D0     		beq	.L81
 1218              		.loc 1 79 0
 1219 0028 DFF884E0 		ldr	lr, .L87+40
 1220              		.loc 1 82 0
 1221 002c 174A     		ldr	r2, .L87+4
 1222              		.loc 1 80 0
 1223 002e 184F     		ldr	r7, .L87+8
 1224              		.loc 1 77 0
 1225 0030 DFF880C0 		ldr	ip, .L87+44
 1226              		.loc 1 75 0
 1227 0034 DFF88090 		ldr	r9, .L87+48
 1228              		.loc 1 76 0
 1229 0038 DFF88080 		ldr	r8, .L87+52
 1230              		.loc 1 83 0
 1231 003c 154E     		ldr	r6, .L87+12
 1232              		.loc 1 84 0
 1233 003e 0095     		str	r5, [sp]
 1234 0040 154B     		ldr	r3, .L87+16
 1235              		.loc 1 82 0
 1236 0042 1570     		strb	r5, [r2]
 1237              		.loc 1 79 0
 1238 0044 CEF80050 		str	r5, [lr]
 1239              		.loc 1 84 0
 1240 0048 40F69811 		movw	r1, #2456
 1241 004c 3F22     		movs	r2, #63
 1242              		.loc 1 80 0
 1243 004e 3D70     		strb	r5, [r7]
 1244              		.loc 1 84 0
 1245 0050 1248     		ldr	r0, .L87+20
 1246              		.loc 1 77 0
 1247 0052 CCF80050 		str	r5, [ip]
 1248              		.loc 1 75 0
 1249 0056 C9F80050 		str	r5, [r9]
 1250              		.loc 1 76 0
 1251 005a C8F80050 		str	r5, [r8]
 1252              		.loc 1 83 0
ARM GAS  /tmp/cc2g8b25.s 			page 23


 1253 005e 3570     		strb	r5, [r6]
 1254              		.loc 1 84 0
 1255 0060 FFF7FEFF 		bl	chThdCreateStatic
 1256              	.LVL95:
 1257              		.loc 1 85 0
 1258 0064 0095     		str	r5, [sp]
 1259 0066 0E4B     		ldr	r3, .L87+24
 1260 0068 0E48     		ldr	r0, .L87+28
 1261 006a 4FF46671 		mov	r1, #920
 1262 006e 3F22     		movs	r2, #63
 1263 0070 FFF7FEFF 		bl	chThdCreateStatic
 1264              	.LVL96:
 1265              		.loc 1 86 0
 1266 0074 0C49     		ldr	r1, .L87+32
 1267              		.loc 1 87 0
 1268 0076 0D4A     		ldr	r2, .L87+36
 1269              		.loc 1 86 0
 1270 0078 0123     		movs	r3, #1
 1271              		.loc 1 90 0
 1272 007a 2046     		mov	r0, r4
 1273              		.loc 1 86 0
 1274 007c 0B70     		strb	r3, [r1]
 1275              		.loc 1 87 0
 1276 007e 1370     		strb	r3, [r2]
 1277              		.loc 1 90 0
 1278 0080 03B0     		add	sp, sp, #12
 1279              		@ sp needed
 1280 0082 BDE8F083 		pop	{r4, r5, r6, r7, r8, r9, pc}
 1281              	.L88:
 1282 0086 00BF     		.align	2
 1283              	.L87:
 1284 0088 00000000 		.word	.LANCHOR10
 1285 008c 00000000 		.word	.LANCHOR6
 1286 0090 00000000 		.word	.LANCHOR3
 1287 0094 00000000 		.word	.LANCHOR1
 1288 0098 00000000 		.word	rx_thread
 1289 009c 00000000 		.word	.LANCHOR12
 1290 00a0 00000000 		.word	tx_thread
 1291 00a4 00000000 		.word	.LANCHOR13
 1292 00a8 00000000 		.word	.LANCHOR5
 1293 00ac 00000000 		.word	.LANCHOR0
 1294 00b0 00000000 		.word	.LANCHOR11
 1295 00b4 00000000 		.word	.LANCHOR4
 1296 00b8 00000000 		.word	.LANCHOR2
 1297 00bc 00000000 		.word	.LANCHOR7
 1298              		.cfi_endproc
 1299              	.LFE219:
 1300              		.size	nrf_driver_init, .-nrf_driver_init
 1301              		.section	.text.nrf_driver_start_pairing,"ax",%progbits
 1302              		.align	2
 1303              		.p2align 4,,15
 1304              		.global	nrf_driver_start_pairing
 1305              		.thumb
 1306              		.thumb_func
 1307              		.type	nrf_driver_start_pairing, %function
 1308              	nrf_driver_start_pairing:
 1309              	.LFB221:
ARM GAS  /tmp/cc2g8b25.s 			page 24


 1310              		.loc 1 109 0
 1311              		.cfi_startproc
 1312              		@ args = 0, pretend = 0, frame = 16
 1313              		@ frame_needed = 0, uses_anonymous_args = 0
 1314              	.LVL97:
 1315 0000 70B5     		push	{r4, r5, r6, lr}
 1316              		.cfi_def_cfa_offset 16
 1317              		.cfi_offset 4, -16
 1318              		.cfi_offset 5, -12
 1319              		.cfi_offset 6, -8
 1320              		.cfi_offset 14, -4
 1321              		.loc 1 110 0
 1322 0002 1E4B     		ldr	r3, .L94
 1323 0004 1B78     		ldrb	r3, [r3]	@ zero_extendqisi2
 1324              		.loc 1 109 0
 1325 0006 84B0     		sub	sp, sp, #16
 1326              		.cfi_def_cfa_offset 32
 1327              		.loc 1 110 0
 1328 0008 8BB1     		cbz	r3, .L89
 1329              		.loc 1 114 0
 1330 000a 42F21076 		movw	r6, #10000
 1331              	.LBB100:
 1332              	.LBB101:
 1333              		.loc 3 231 0
 1334 000e 1C4A     		ldr	r2, .L94+4
 1335              	.LBE101:
 1336              	.LBE100:
 1337              		.loc 1 114 0
 1338 0010 1C4D     		ldr	r5, .L94+8
 1339              		.loc 1 116 0
 1340 0012 1D4B     		ldr	r3, .L94+12
 1341              	.LBB103:
 1342              	.LBB102:
 1343              		.loc 3 231 0
 1344 0014 916A     		ldr	r1, [r2, #40]
 1345              	.LBE102:
 1346              	.LBE103:
 1347              		.loc 1 116 0
 1348 0016 1C78     		ldrb	r4, [r3]	@ zero_extendqisi2
 1349              		.loc 1 114 0
 1350 0018 1C4A     		ldr	r2, .L94+16
 1351 001a 06FB00F0 		mul	r0, r6, r0
 1352              	.LVL98:
 1353 001e 00F2E730 		addw	r0, r0, #999
 1354 0022 A5FB0060 		umull	r6, r0, r5, r0
 1355 0026 01EB9010 		add	r0, r1, r0, lsr #6
 1356 002a 1060     		str	r0, [r2]
 1357              		.loc 1 116 0
 1358 002c 0CB1     		cbz	r4, .L93
 1359              	.L89:
 1360              		.loc 1 132 0
 1361 002e 04B0     		add	sp, sp, #16
 1362              		@ sp needed
 1363 0030 70BD     		pop	{r4, r5, r6, pc}
 1364              	.L93:
 1365              	.LBB104:
 1366              		.loc 1 117 0
ARM GAS  /tmp/cc2g8b25.s 			page 25


 1367 0032 0125     		movs	r5, #1
 1368 0034 1D70     		strb	r5, [r3]
 1369              		.loc 1 119 0
 1370 0036 FFF7FEFF 		bl	app_get_configuration
 1371              	.LVL99:
 1372 003a BC30     		adds	r0, r0, #188
 1373 003c 07C8     		ldmia	r0, {r0, r1, r2}
 1374              		.loc 1 128 0
 1375 003e 04AA     		add	r2, sp, #16
 1376              		.loc 1 119 0
 1377 0040 01AB     		add	r3, sp, #4
 1378 0042 03C3     		stmia	r3!, {r0, r1}
 1379              		.loc 1 128 0
 1380 0044 02F80C4D 		strb	r4, [r2, #-12]!
 1381              		.loc 1 125 0
 1382 0048 0323     		movs	r3, #3
 1383              		.loc 1 130 0
 1384 004a 1046     		mov	r0, r2
 1385              		.loc 1 121 0
 1386 004c C521     		movs	r1, #197
 1387              		.loc 1 123 0
 1388 004e 7C22     		movs	r2, #124
 1389              		.loc 1 120 0
 1390 0050 C626     		movs	r6, #198
 1391              		.loc 1 127 0
 1392 0052 8DF80D50 		strb	r5, [sp, #13]
 1393              		.loc 1 122 0
 1394 0056 8DF80C40 		strb	r4, [sp, #12]
 1395              		.loc 1 124 0
 1396 005a 8DF80650 		strb	r5, [sp, #6]
 1397              		.loc 1 120 0
 1398 005e 8DF80A60 		strb	r6, [sp, #10]
 1399              		.loc 1 121 0
 1400 0062 8DF80B10 		strb	r1, [sp, #11]
 1401              		.loc 1 123 0
 1402 0066 8DF80920 		strb	r2, [sp, #9]
 1403              		.loc 1 125 0
 1404 006a 8DF80830 		strb	r3, [sp, #8]
 1405              		.loc 1 126 0
 1406 006e 8DF80730 		strb	r3, [sp, #7]
 1407              		.loc 1 130 0
 1408 0072 FFF7FEFF 		bl	rfhelp_update_conf
 1409              	.LVL100:
 1410              	.LBE104:
 1411              		.loc 1 132 0
 1412 0076 04B0     		add	sp, sp, #16
 1413              		@ sp needed
 1414 0078 70BD     		pop	{r4, r5, r6, pc}
 1415              	.L95:
 1416 007a 00BF     		.align	2
 1417              	.L94:
 1418 007c 00000000 		.word	.LANCHOR5
 1419 0080 00000000 		.word	ch
 1420 0084 D34D6210 		.word	274877907
 1421 0088 00000000 		.word	.LANCHOR3
 1422 008c 00000000 		.word	.LANCHOR11
 1423              		.cfi_endproc
ARM GAS  /tmp/cc2g8b25.s 			page 26


 1424              	.LFE221:
 1425              		.size	nrf_driver_start_pairing, .-nrf_driver_start_pairing
 1426              		.section	.data.rx_stop,"aw",%progbits
 1427              		.set	.LANCHOR6,. + 0
 1428              		.type	rx_stop, %object
 1429              		.size	rx_stop, 1
 1430              	rx_stop:
 1431 0000 01       		.byte	1
 1432              		.section	.bss.nosend_cnt,"aw",%nobits
 1433              		.align	2
 1434              		.set	.LANCHOR2,. + 0
 1435              		.type	nosend_cnt, %object
 1436              		.size	nosend_cnt, 4
 1437              	nosend_cnt:
 1438 0000 00000000 		.space	4
 1439              		.section	.bss.tx_running,"aw",%nobits
 1440              		.set	.LANCHOR0,. + 0
 1441              		.type	tx_running, %object
 1442              		.size	tx_running, 1
 1443              	tx_running:
 1444 0000 00       		.space	1
 1445              		.section	.bss.nrf_restart_tx_time,"aw",%nobits
 1446              		.align	2
 1447              		.set	.LANCHOR4,. + 0
 1448              		.type	nrf_restart_tx_time, %object
 1449              		.size	nrf_restart_tx_time, 4
 1450              	nrf_restart_tx_time:
 1451 0000 00000000 		.space	4
 1452              		.section	.bss.pairing_time_end,"aw",%nobits
 1453              		.align	2
 1454              		.set	.LANCHOR11,. + 0
 1455              		.type	pairing_time_end, %object
 1456              		.size	pairing_time_end, 4
 1457              	pairing_time_end:
 1458 0000 00000000 		.space	4
 1459              		.section	.rodata.str1.4,"aMS",%progbits,1
 1460              		.align	2
 1461              	.LC0:
 1462 0000 4E726620 		.ascii	"Nrf TX\000"
 1462      545800
 1463 0007 00       		.space	1
 1464              	.LC1:
 1465 0008 4E726620 		.ascii	"Nrf RX\000"
 1465      525800
 1466 000f 00       		.section	.bss.rx_running,"aw",%nobits
 1467              		.set	.LANCHOR5,. + 0
 1468              		.type	rx_running, %object
 1469              		.size	rx_running, 1
 1470              	rx_running:
 1471 0000 00       		.space	1
 1472              		.section	.bss.from_nrf,"aw",%nobits
 1473              		.set	.LANCHOR10,. + 0
 1474              		.type	from_nrf, %object
 1475              		.size	from_nrf, 1
 1476              	from_nrf:
 1477 0000 00       		.space	1
 1478              		.section	.bss.rx_thread_wa,"aw",%nobits
ARM GAS  /tmp/cc2g8b25.s 			page 27


 1479              		.align	3
 1480              		.set	.LANCHOR12,. + 0
 1481              		.type	rx_thread_wa, %object
 1482              		.size	rx_thread_wa, 2456
 1483              	rx_thread_wa:
 1484 0000 00000000 		.space	2456
 1484      00000000 
 1484      00000000 
 1484      00000000 
 1484      00000000 
 1485              		.section	.bss.nrf_restart_rx_time,"aw",%nobits
 1486              		.align	2
 1487              		.set	.LANCHOR7,. + 0
 1488              		.type	nrf_restart_rx_time, %object
 1489              		.size	nrf_restart_rx_time, 4
 1490              	nrf_restart_rx_time:
 1491 0000 00000000 		.space	4
 1492              		.section	.data.tx_stop,"aw",%progbits
 1493              		.set	.LANCHOR1,. + 0
 1494              		.type	tx_stop, %object
 1495              		.size	tx_stop, 1
 1496              	tx_stop:
 1497 0000 01       		.byte	1
 1498              		.section	.bss.rx_buffer,"aw",%nobits
 1499              		.align	2
 1500              		.set	.LANCHOR9,. + 0
 1501              		.type	rx_buffer, %object
 1502              		.size	rx_buffer, 1024
 1503              	rx_buffer:
 1504 0000 00000000 		.space	1024
 1504      00000000 
 1504      00000000 
 1504      00000000 
 1504      00000000 
 1505              		.section	.bss.pairing_active,"aw",%nobits
 1506              		.set	.LANCHOR3,. + 0
 1507              		.type	pairing_active, %object
 1508              		.size	pairing_active, 1
 1509              	pairing_active:
 1510 0000 00       		.space	1
 1511              		.section	.bss.mstate,"aw",%nobits
 1512              		.align	2
 1513              		.set	.LANCHOR8,. + 0
 1514              		.type	mstate, %object
 1515              		.size	mstate, 12
 1516              	mstate:
 1517 0000 00000000 		.space	12
 1517      00000000 
 1517      00000000 
 1518              		.section	.bss.tx_thread_wa,"aw",%nobits
 1519              		.align	3
 1520              		.set	.LANCHOR13,. + 0
 1521              		.type	tx_thread_wa, %object
 1522              		.size	tx_thread_wa, 920
 1523              	tx_thread_wa:
 1524 0000 00000000 		.space	920
 1524      00000000 
ARM GAS  /tmp/cc2g8b25.s 			page 28


 1524      00000000 
 1524      00000000 
 1524      00000000 
 1525              		.text
 1526              	.Letext0:
 1527              		.file 4 "/usr/lib/gcc/arm-none-eabi/4.8/include/stddef.h"
 1528              		.file 5 "/usr/include/newlib/machine/_default_types.h"
 1529              		.file 6 "/usr/include/newlib/stdint.h"
 1530              		.file 7 "ChibiOS_3.0.2/os/rt/ports/ARMCMx/compilers/GCC/chtypes.h"
 1531              		.file 8 "ChibiOS_3.0.2/os/rt/include/chsystypes.h"
 1532              		.file 9 "ChibiOS_3.0.2/os/rt/include/chschd.h"
 1533              		.file 10 "ChibiOS_3.0.2/os/rt/ports/ARMCMx/chcore.h"
 1534              		.file 11 "ChibiOS_3.0.2/os/rt/ports/ARMCMx/chcore_v7m.h"
 1535              		.file 12 "ChibiOS_3.0.2/os/rt/include/chtm.h"
 1536              		.file 13 "ChibiOS_3.0.2/os/rt/include/chsem.h"
 1537              		.file 14 "ChibiOS_3.0.2/os/rt/include/chmtx.h"
 1538              		.file 15 "ChibiOS_3.0.2/os/rt/include/chthreads.h"
 1539              		.file 16 "./datatypes.h"
 1540              		.file 17 "nrf/rfhelp.h"
 1541              		.file 18 "./crc.h"
 1542              		.file 19 "./conf_general.h"
 1543              		.file 20 "applications/app.h"
 1544              		.file 21 "./commands.h"
 1545              		.file 22 "./buffer.h"
 1546              		.file 23 "ChibiOS_3.0.2/os/ext/CMSIS/include/core_cm4.h"