ARM GAS  /tmp/cckKTpo0.s 			page 1


   1              		.syntax unified
   2              		.cpu cortex-m4
   3              		.eabi_attribute 27, 3
   4              		.eabi_attribute 28, 1
   5              		.fpu fpv4-sp-d16
   6              		.eabi_attribute 20, 1
   7              		.eabi_attribute 21, 1
   8              		.eabi_attribute 23, 3
   9              		.eabi_attribute 24, 1
  10              		.eabi_attribute 25, 1
  11              		.eabi_attribute 26, 1
  12              		.eabi_attribute 30, 2
  13              		.eabi_attribute 34, 1
  14              		.eabi_attribute 18, 4
  15              		.thumb
  16              		.file	"nvic.c"
  17              		.text
  18              	.Ltext0:
  19              		.cfi_sections	.debug_frame
  20              		.section	.text.nvicEnableVector,"ax",%progbits
  21              		.align	2
  22              		.p2align 4,,15
  23              		.global	nvicEnableVector
  24              		.thumb
  25              		.thumb_func
  26              		.type	nvicEnableVector, %function
  27              	nvicEnableVector:
  28              	.LFB256:
  29              		.file 1 "ChibiOS_3.0.2/os/hal/ports/common/ARMCMx/nvic.c"
  30              		.loc 1 57 0
  31              		.cfi_startproc
  32              		@ args = 0, pretend = 0, frame = 0
  33              		@ frame_needed = 0, uses_anonymous_args = 0
  34              		@ link register save eliminated.
  35              	.LVL0:
  36              		.loc 1 60 0
  37 0000 4309     		lsrs	r3, r0, #5
  38 0002 9B00     		lsls	r3, r3, #2
  39              		.loc 1 59 0
  40 0004 00F16042 		add	r2, r0, #-536870912
  41 0008 03F16043 		add	r3, r3, #-536870912
  42              		.loc 1 57 0
  43 000c 10B4     		push	{r4}
  44              		.cfi_def_cfa_offset 4
  45              		.cfi_offset 4, -4
  46 000e 03F56143 		add	r3, r3, #57600
  47              		.loc 1 60 0
  48 0012 0124     		movs	r4, #1
  49              		.loc 1 59 0
  50 0014 0901     		lsls	r1, r1, #4
  51              	.LVL1:
  52 0016 02F56142 		add	r2, r2, #57600
  53              		.loc 1 60 0
  54 001a 00F01F00 		and	r0, r0, #31
  55              	.LVL2:
  56 001e 04FA00F0 		lsl	r0, r4, r0
  57              		.loc 1 59 0
ARM GAS  /tmp/cckKTpo0.s 			page 2


  58 0022 C9B2     		uxtb	r1, r1
  59 0024 82F80013 		strb	r1, [r2, #768]
  60              		.loc 1 60 0
  61 0028 C3F88001 		str	r0, [r3, #384]
  62              		.loc 1 61 0
  63 002c 1860     		str	r0, [r3]
  64              		.loc 1 62 0
  65 002e 5DF8044B 		ldr	r4, [sp], #4
  66 0032 7047     		bx	lr
  67              		.cfi_endproc
  68              	.LFE256:
  69              		.size	nvicEnableVector, .-nvicEnableVector
  70 0034 AFF30080 		.section	.text.nvicDisableVector,"ax",%progbits
  70      AFF30080 
  70      AFF30080 
  71              		.align	2
  72              		.p2align 4,,15
  73              		.global	nvicDisableVector
  74              		.thumb
  75              		.thumb_func
  76              		.type	nvicDisableVector, %function
  77              	nvicDisableVector:
  78              	.LFB257:
  79              		.loc 1 69 0
  80              		.cfi_startproc
  81              		@ args = 0, pretend = 0, frame = 0
  82              		@ frame_needed = 0, uses_anonymous_args = 0
  83              		@ link register save eliminated.
  84              	.LVL3:
  85              		.loc 1 71 0
  86 0000 084B     		ldr	r3, .L3
  87 0002 4109     		lsrs	r1, r0, #5
  88              		.loc 1 69 0
  89 0004 10B4     		push	{r4}
  90              		.cfi_def_cfa_offset 4
  91              		.cfi_offset 4, -4
  92              		.loc 1 71 0
  93 0006 00F01F02 		and	r2, r0, #31
  94 000a 2031     		adds	r1, r1, #32
  95 000c 0124     		movs	r4, #1
  96              		.loc 1 72 0
  97 000e 1844     		add	r0, r0, r3
  98              	.LVL4:
  99              		.loc 1 71 0
 100 0010 9440     		lsls	r4, r4, r2
 101              		.loc 1 72 0
 102 0012 0022     		movs	r2, #0
 103              		.loc 1 71 0
 104 0014 43F82140 		str	r4, [r3, r1, lsl #2]
 105              		.loc 1 72 0
 106 0018 80F80023 		strb	r2, [r0, #768]
 107              		.loc 1 73 0
 108 001c 5DF8044B 		ldr	r4, [sp], #4
 109 0020 7047     		bx	lr
 110              	.L4:
 111 0022 00BF     		.align	2
 112              	.L3:
ARM GAS  /tmp/cckKTpo0.s 			page 3


 113 0024 00E100E0 		.word	-536813312
 114              		.cfi_endproc
 115              	.LFE257:
 116              		.size	nvicDisableVector, .-nvicDisableVector
 117 0028 AFF30080 		.section	.text.nvicSetSystemHandlerPriority,"ax",%progbits
 117      AFF30080 
 118              		.align	2
 119              		.p2align 4,,15
 120              		.global	nvicSetSystemHandlerPriority
 121              		.thumb
 122              		.thumb_func
 123              		.type	nvicSetSystemHandlerPriority, %function
 124              	nvicSetSystemHandlerPriority:
 125              	.LFB258:
 126              		.loc 1 81 0
 127              		.cfi_startproc
 128              		@ args = 0, pretend = 0, frame = 0
 129              		@ frame_needed = 0, uses_anonymous_args = 0
 130              		@ link register save eliminated.
 131              	.LVL5:
 132              		.loc 1 85 0
 133 0000 00F16040 		add	r0, r0, #-536870912
 134              	.LVL6:
 135 0004 00F56D40 		add	r0, r0, #60672
 136              	.LVL7:
 137 0008 0901     		lsls	r1, r1, #4
 138              	.LVL8:
 139 000a C9B2     		uxtb	r1, r1
 140 000c 0176     		strb	r1, [r0, #24]
 141 000e 7047     		bx	lr
 142              		.cfi_endproc
 143              	.LFE258:
 144              		.size	nvicSetSystemHandlerPriority, .-nvicSetSystemHandlerPriority
 145              		.section	.text.nvicClearPending,"ax",%progbits
 146              		.align	2
 147              		.p2align 4,,15
 148              		.global	nvicClearPending
 149              		.thumb
 150              		.thumb_func
 151              		.type	nvicClearPending, %function
 152              	nvicClearPending:
 153              	.LFB259:
 154              		.loc 1 93 0
 155              		.cfi_startproc
 156              		@ args = 0, pretend = 0, frame = 0
 157              		@ frame_needed = 0, uses_anonymous_args = 0
 158              		@ link register save eliminated.
 159              	.LVL9:
 160              		.loc 1 95 0
 161 0000 4209     		lsrs	r2, r0, #5
 162 0002 6032     		adds	r2, r2, #96
 163 0004 00F01F00 		and	r0, r0, #31
 164              	.LVL10:
 165 0008 0121     		movs	r1, #1
 166 000a 034B     		ldr	r3, .L7
 167 000c 01FA00F0 		lsl	r0, r1, r0
 168 0010 43F82200 		str	r0, [r3, r2, lsl #2]
ARM GAS  /tmp/cckKTpo0.s 			page 4


 169 0014 7047     		bx	lr
 170              	.L8:
 171 0016 00BF     		.align	2
 172              	.L7:
 173 0018 00E100E0 		.word	-536813312
 174              		.cfi_endproc
 175              	.LFE259:
 176              		.size	nvicClearPending, .-nvicClearPending
 177 001c AFF30080 		.text
 178              	.Letext0:
 179              		.file 2 "/usr/include/newlib/machine/_default_types.h"
 180              		.file 3 "/usr/include/newlib/stdint.h"
 181              		.file 4 "ChibiOS_3.0.2/os/rt/ports/ARMCMx/compilers/GCC/chtypes.h"
 182              		.file 5 "ChibiOS_3.0.2/os/rt/include/chsystypes.h"
 183              		.file 6 "ChibiOS_3.0.2/os/rt/include/chschd.h"
 184              		.file 7 "ChibiOS_3.0.2/os/ext/CMSIS/include/core_cm4.h"
 185              		.file 8 "ChibiOS_3.0.2/os/rt/ports/ARMCMx/chcore.h"
 186              		.file 9 "ChibiOS_3.0.2/os/rt/ports/ARMCMx/chcore_v7m.h"
 187              		.file 10 "ChibiOS_3.0.2/os/rt/include/chtm.h"
 188              		.file 11 "ChibiOS_3.0.2/os/rt/include/chsem.h"
 189              		.file 12 "ChibiOS_3.0.2/os/rt/include/chmtx.h"