ARM GAS  /tmp/ccqwOXn8.s 			page 1


   1              		.syntax unified
   2              		.cpu cortex-m4
   3              		.eabi_attribute 27, 3
   4              		.eabi_attribute 28, 1
   5              		.fpu fpv4-sp-d16
   6              		.eabi_attribute 20, 1
   7              		.eabi_attribute 21, 1
   8              		.eabi_attribute 23, 3
   9              		.eabi_attribute 24, 1
  10              		.eabi_attribute 25, 1
  11              		.eabi_attribute 26, 1
  12              		.eabi_attribute 30, 2
  13              		.eabi_attribute 34, 1
  14              		.eabi_attribute 18, 4
  15              		.thumb
  16              		.file	"packet.c"
  17              		.text
  18              	.Ltext0:
  19              		.cfi_sections	.debug_frame
  20              		.section	.text.packet_init,"ax",%progbits
  21              		.align	2
  22              		.p2align 4,,15
  23              		.global	packet_init
  24              		.thumb
  25              		.thumb_func
  26              		.type	packet_init, %function
  27              	packet_init:
  28              	.LFB0:
  29              		.file 1 "packet.c"
  30              		.loc 1 40 0
  31              		.cfi_startproc
  32              		@ args = 0, pretend = 0, frame = 0
  33              		@ frame_needed = 0, uses_anonymous_args = 0
  34              		@ link register save eliminated.
  35              	.LVL0:
  36              		.loc 1 41 0
  37 0000 034B     		ldr	r3, .L2
  38 0002 02EB8212 		add	r2, r2, r2, lsl #6
  39              	.LVL1:
  40 0006 03EB4212 		add	r2, r3, r2, lsl #5
  41 000a 5060     		str	r0, [r2, #4]
  42              		.loc 1 42 0
  43 000c 9160     		str	r1, [r2, #8]
  44 000e 7047     		bx	lr
  45              	.L3:
  46              		.align	2
  47              	.L2:
  48 0010 00000000 		.word	.LANCHOR0
  49              		.cfi_endproc
  50              	.LFE0:
  51              		.size	packet_init, .-packet_init
  52 0014 AFF30080 		.section	.text.packet_send_packet,"ax",%progbits
  52      AFF30080 
  52      AFF30080 
  53              		.align	2
  54              		.p2align 4,,15
  55              		.global	packet_send_packet
ARM GAS  /tmp/ccqwOXn8.s 			page 2


  56              		.thumb
  57              		.thumb_func
  58              		.type	packet_send_packet, %function
  59              	packet_send_packet:
  60              	.LFB1:
  61              		.loc 1 45 0
  62              		.cfi_startproc
  63              		@ args = 0, pretend = 0, frame = 0
  64              		@ frame_needed = 0, uses_anonymous_args = 0
  65              	.LVL2:
  66              		.loc 1 46 0
  67 0000 B1F5806F 		cmp	r1, #1024
  68              		.loc 1 45 0
  69 0004 2DE9F843 		push	{r3, r4, r5, r6, r7, r8, r9, lr}
  70              		.cfi_def_cfa_offset 32
  71              		.cfi_offset 3, -32
  72              		.cfi_offset 4, -28
  73              		.cfi_offset 5, -24
  74              		.cfi_offset 6, -20
  75              		.cfi_offset 7, -16
  76              		.cfi_offset 8, -12
  77              		.cfi_offset 9, -8
  78              		.cfi_offset 14, -4
  79              		.loc 1 45 0
  80 0008 0C46     		mov	r4, r1
  81 000a 0646     		mov	r6, r0
  82              		.loc 1 46 0
  83 000c 31D8     		bhi	.L4
  84              	.LVL3:
  85              		.loc 1 53 0
  86 000e 4FEA8218 		lsl	r8, r2, #6
  87 0012 1C4D     		ldr	r5, .L15
  88 0014 08EB0203 		add	r3, r8, r2
  89              		.loc 1 52 0
  90 0018 B1F5807F 		cmp	r1, #256
  91              		.loc 1 53 0
  92 001c 05EB4313 		add	r3, r5, r3, lsl #5
  93              		.loc 1 52 0
  94 0020 29D9     		bls	.L14
  95              	.LVL4:
  96              		.loc 1 57 0
  97 0022 090A     		lsrs	r1, r1, #8
  98              	.LVL5:
  99              		.loc 1 56 0
 100 0024 0327     		movs	r7, #3
 101              		.loc 1 58 0
 102 0026 83F81244 		strb	r4, [r3, #1042]
 103              		.loc 1 57 0
 104 002a 83F81114 		strb	r1, [r3, #1041]
 105              		.loc 1 56 0
 106 002e 83F81074 		strb	r7, [r3, #1040]
 107              	.LVL6:
 108              	.L8:
 109              		.loc 1 61 0
 110 0032 9044     		add	r8, r8, r2
 111 0034 4FEA4818 		lsl	r8, r8, #5
 112 0038 08F58269 		add	r9, r8, #1040
ARM GAS  /tmp/ccqwOXn8.s 			page 3


 113 003c A944     		add	r9, r9, r5
 114 003e 2246     		mov	r2, r4
 115              	.LVL7:
 116 0040 3146     		mov	r1, r6
 117 0042 09EB0700 		add	r0, r9, r7
 118              	.LVL8:
 119 0046 FFF7FEFF 		bl	memcpy
 120              	.LVL9:
 121              		.loc 1 64 0
 122 004a 2146     		mov	r1, r4
 123 004c 3046     		mov	r0, r6
 124 004e FFF7FEFF 		bl	crc16
 125              	.LVL10:
 126              		.loc 1 65 0
 127 0052 4544     		add	r5, r5, r8
 128              		.loc 1 62 0
 129 0054 3C44     		add	r4, r4, r7
 130              	.LVL11:
 131              		.loc 1 65 0
 132 0056 2B19     		adds	r3, r5, r4
 133              		.loc 1 69 0
 134 0058 6A68     		ldr	r2, [r5, #4]
 135              		.loc 1 66 0
 136 005a 83F81104 		strb	r0, [r3, #1041]
 137              		.loc 1 67 0
 138 005e 0325     		movs	r5, #3
 139              		.loc 1 65 0
 140 0060 000A     		lsrs	r0, r0, #8
 141              	.LVL12:
 142 0062 83F81004 		strb	r0, [r3, #1040]
 143              	.LVL13:
 144              		.loc 1 67 0
 145 0066 6119     		adds	r1, r4, r5
 146              	.LVL14:
 147 0068 83F81254 		strb	r5, [r3, #1042]
 148              		.loc 1 69 0
 149 006c 0AB1     		cbz	r2, .L4
 150              		.loc 1 70 0
 151 006e 4846     		mov	r0, r9
 152 0070 9047     		blx	r2
 153              	.LVL15:
 154              	.L4:
 155 0072 BDE8F883 		pop	{r3, r4, r5, r6, r7, r8, r9, pc}
 156              	.LVL16:
 157              	.L14:
 158              		.loc 1 53 0
 159 0076 0227     		movs	r7, #2
 160              		.loc 1 54 0
 161 0078 83F81114 		strb	r1, [r3, #1041]
 162              		.loc 1 53 0
 163 007c 83F81074 		strb	r7, [r3, #1040]
 164              	.LVL17:
 165 0080 D7E7     		b	.L8
 166              	.L16:
 167 0082 00BF     		.align	2
 168              	.L15:
 169 0084 00000000 		.word	.LANCHOR0
ARM GAS  /tmp/ccqwOXn8.s 			page 4


 170              		.cfi_endproc
 171              	.LFE1:
 172              		.size	packet_send_packet, .-packet_send_packet
 173 0088 AFF30080 		.section	.text.packet_timerfunc,"ax",%progbits
 173      AFF30080 
 174              		.align	2
 175              		.p2align 4,,15
 176              		.global	packet_timerfunc
 177              		.thumb
 178              		.thumb_func
 179              		.type	packet_timerfunc, %function
 180              	packet_timerfunc:
 181              	.LFB2:
 182              		.loc 1 77 0
 183              		.cfi_startproc
 184              		@ args = 0, pretend = 0, frame = 0
 185              		@ frame_needed = 0, uses_anonymous_args = 0
 186              		@ link register save eliminated.
 187              	.LVL18:
 188              	.LBB2:
 189              		.loc 1 79 0
 190 0000 0F4B     		ldr	r3, .L23
 191 0002 5A88     		ldrh	r2, [r3, #2]
 192 0004 92B2     		uxth	r2, r2
 193 0006 7AB9     		cbnz	r2, .L18
 194              	.LVL19:
 195              		.loc 1 82 0
 196 0008 1A70     		strb	r2, [r3]
 197              		.loc 1 79 0
 198 000a B3F82238 		ldrh	r3, [r3, #2082]
 199 000e 0C4A     		ldr	r2, .L23
 200 0010 9BB2     		uxth	r3, r3
 201 0012 33B1     		cbz	r3, .L22
 202              	.L20:
 203              		.loc 1 80 0
 204 0014 B2F82238 		ldrh	r3, [r2, #2082]
 205 0018 013B     		subs	r3, r3, #1
 206 001a 9BB2     		uxth	r3, r3
 207 001c A2F82238 		strh	r3, [r2, #2082]	@ movhi
 208              	.LVL20:
 209 0020 7047     		bx	lr
 210              	.LVL21:
 211              	.L22:
 212              		.loc 1 82 0
 213 0022 82F82038 		strb	r3, [r2, #2080]
 214 0026 7047     		bx	lr
 215              	.LVL22:
 216              	.L18:
 217              		.loc 1 80 0
 218 0028 5A88     		ldrh	r2, [r3, #2]
 219 002a 013A     		subs	r2, r2, #1
 220 002c 92B2     		uxth	r2, r2
 221 002e 5A80     		strh	r2, [r3, #2]	@ movhi
 222              	.LVL23:
 223              		.loc 1 79 0
 224 0030 B3F82238 		ldrh	r3, [r3, #2082]
 225 0034 024A     		ldr	r2, .L23
ARM GAS  /tmp/ccqwOXn8.s 			page 5


 226 0036 9BB2     		uxth	r3, r3
 227 0038 002B     		cmp	r3, #0
 228 003a EBD1     		bne	.L20
 229 003c F1E7     		b	.L22
 230              	.L24:
 231 003e 00BF     		.align	2
 232              	.L23:
 233 0040 00000000 		.word	.LANCHOR0
 234              	.LBE2:
 235              		.cfi_endproc
 236              	.LFE2:
 237              		.size	packet_timerfunc, .-packet_timerfunc
 238 0044 AFF30080 		.section	.text.packet_process_byte,"ax",%progbits
 238      AFF30080 
 238      AFF30080 
 239              		.align	2
 240              		.p2align 4,,15
 241              		.global	packet_process_byte
 242              		.thumb
 243              		.thumb_func
 244              		.type	packet_process_byte, %function
 245              	packet_process_byte:
 246              	.LFB3:
 247              		.loc 1 87 0
 248              		.cfi_startproc
 249              		@ args = 0, pretend = 0, frame = 0
 250              		@ frame_needed = 0, uses_anonymous_args = 0
 251              	.LVL24:
 252 0000 2DE9F843 		push	{r3, r4, r5, r6, r7, r8, r9, lr}
 253              		.cfi_def_cfa_offset 32
 254              		.cfi_offset 3, -32
 255              		.cfi_offset 4, -28
 256              		.cfi_offset 5, -24
 257              		.cfi_offset 6, -20
 258              		.cfi_offset 7, -16
 259              		.cfi_offset 8, -12
 260              		.cfi_offset 9, -8
 261              		.cfi_offset 14, -4
 262              		.loc 1 88 0
 263 0004 8E01     		lsls	r6, r1, #6
 264 0006 7318     		adds	r3, r6, r1
 265 0008 5B01     		lsls	r3, r3, #5
 266 000a 4E4D     		ldr	r5, .L50
 267 000c EB5C     		ldrb	r3, [r5, r3]	@ zero_extendqisi2
 268              		.loc 1 87 0
 269 000e 0C46     		mov	r4, r1
 270              		.loc 1 88 0
 271 0010 062B     		cmp	r3, #6
 272 0012 1ED8     		bhi	.L26
 273 0014 DFE803F0 		tbb	[pc, r3]
 274              	.L28:
 275 0018 23       		.byte	(.L27-.L28)/2
 276 0019 38       		.byte	(.L29-.L28)/2
 277 001a 46       		.byte	(.L30-.L28)/2
 278 001b 5A       		.byte	(.L31-.L28)/2
 279 001c 79       		.byte	(.L32-.L28)/2
 280 001d 87       		.byte	(.L33-.L28)/2
ARM GAS  /tmp/ccqwOXn8.s 			page 6


 281 001e 04       		.byte	(.L34-.L28)/2
 282 001f 00       		.p2align 1
 283              	.L34:
 284              		.loc 1 145 0
 285 0020 0328     		cmp	r0, #3
 286 0022 16D1     		bne	.L26
 287              		.loc 1 146 0
 288 0024 7318     		adds	r3, r6, r1
 289 0026 5B01     		lsls	r3, r3, #5
 290 0028 EF18     		adds	r7, r5, r3
 291 002a 1033     		adds	r3, r3, #16
 292 002c 05EB0309 		add	r9, r5, r3
 293 0030 4846     		mov	r0, r9
 294              	.LVL25:
 295 0032 F968     		ldr	r1, [r7, #12]
 296              	.LVL26:
 297 0034 FFF7FEFF 		bl	crc16
 298              	.LVL27:
 299              		.loc 1 147 0
 300 0038 97F81D28 		ldrb	r2, [r7, #2077]	@ zero_extendqisi2
 301              		.loc 1 148 0
 302 003c 97F81C38 		ldrb	r3, [r7, #2076]	@ zero_extendqisi2
 303 0040 43EA0223 		orr	r3, r3, r2, lsl #8
 304              		.loc 1 146 0
 305 0044 9842     		cmp	r0, r3
 306 0046 04D1     		bne	.L26
 307              		.loc 1 150 0
 308 0048 BB68     		ldr	r3, [r7, #8]
 309 004a 13B1     		cbz	r3, .L26
 310              		.loc 1 151 0
 311 004c 4846     		mov	r0, r9
 312 004e F968     		ldr	r1, [r7, #12]
 313 0050 9847     		blx	r3
 314              	.LVL28:
 315              	.L26:
 316              		.loc 1 160 0
 317 0052 3444     		add	r4, r4, r6
 318              	.LVL29:
 319 0054 6401     		lsls	r4, r4, #5
 320              	.L48:
 321 0056 0023     		movs	r3, #0
 322 0058 2B55     		strb	r3, [r5, r4]
 323 005a BDE8F883 		pop	{r3, r4, r5, r6, r7, r8, r9, pc}
 324              	.LVL30:
 325              	.L27:
 326              		.loc 1 92 0
 327 005e 3444     		add	r4, r4, r6
 328              		.loc 1 90 0
 329 0060 0228     		cmp	r0, #2
 330              		.loc 1 92 0
 331 0062 4FEA4414 		lsl	r4, r4, #5
 332              		.loc 1 90 0
 333 0066 69D0     		beq	.L49
 334              		.loc 1 96 0
 335 0068 0328     		cmp	r0, #3
 336 006a F4D1     		bne	.L48
 337              		.loc 1 98 0
ARM GAS  /tmp/ccqwOXn8.s 			page 7


 338 006c 2E5D     		ldrb	r6, [r5, r4]	@ zero_extendqisi2
 339 006e 2B19     		adds	r3, r5, r4
 340 0070 0136     		adds	r6, r6, #1
 341              	.L46:
 342 0072 F6B2     		uxtb	r6, r6
 343 0074 2E55     		strb	r6, [r5, r4]
 344              		.loc 1 100 0
 345 0076 0022     		movs	r2, #0
 346              		.loc 1 99 0
 347 0078 4FF47A70 		mov	r0, #1000
 348              	.LVL31:
 349 007c 5880     		strh	r0, [r3, #2]	@ movhi
 350              		.loc 1 100 0
 351 007e C3F81828 		str	r2, [r3, #2072]
 352              		.loc 1 101 0
 353 0082 DA60     		str	r2, [r3, #12]
 354 0084 BDE8F883 		pop	{r3, r4, r5, r6, r7, r8, r9, pc}
 355              	.LVL32:
 356              	.L29:
 357              		.loc 1 108 0
 358 0088 3444     		add	r4, r4, r6
 359 008a 6401     		lsls	r4, r4, #5
 360 008c 2B19     		adds	r3, r5, r4
 361              		.loc 1 109 0
 362 008e 295D     		ldrb	r1, [r5, r4]	@ zero_extendqisi2
 363              	.LVL33:
 364 0090 0131     		adds	r1, r1, #1
 365              		.loc 1 108 0
 366 0092 0002     		lsls	r0, r0, #8
 367              	.LVL34:
 368              		.loc 1 109 0
 369 0094 C9B2     		uxtb	r1, r1
 370              		.loc 1 108 0
 371 0096 D860     		str	r0, [r3, #12]
 372              		.loc 1 109 0
 373 0098 2955     		strb	r1, [r5, r4]
 374              		.loc 1 110 0
 375 009a 4FF47A72 		mov	r2, #1000
 376 009e 5A80     		strh	r2, [r3, #2]	@ movhi
 377              		.loc 1 111 0
 378 00a0 BDE8F883 		pop	{r3, r4, r5, r6, r7, r8, r9, pc}
 379              	.LVL35:
 380              	.L30:
 381              		.loc 1 114 0
 382 00a4 3444     		add	r4, r4, r6
 383 00a6 6401     		lsls	r4, r4, #5
 384 00a8 2544     		add	r5, r5, r4
 385 00aa 264A     		ldr	r2, .L50
 386 00ac E968     		ldr	r1, [r5, #12]
 387              	.LVL36:
 388 00ae 0843     		orrs	r0, r0, r1
 389              	.LVL37:
 390              		.loc 1 115 0
 391 00b0 411E     		subs	r1, r0, #1
 392 00b2 B1F5806F 		cmp	r1, #1024
 393              		.loc 1 114 0
 394 00b6 E860     		str	r0, [r5, #12]
ARM GAS  /tmp/ccqwOXn8.s 			page 8


 395              		.loc 1 115 0
 396 00b8 3CD2     		bcs	.L38
 397              		.loc 1 117 0
 398 00ba 115D     		ldrb	r1, [r2, r4]	@ zero_extendqisi2
 399 00bc 0131     		adds	r1, r1, #1
 400 00be C9B2     		uxtb	r1, r1
 401 00c0 1155     		strb	r1, [r2, r4]
 402              		.loc 1 118 0
 403 00c2 4FF47A73 		mov	r3, #1000
 404 00c6 6B80     		strh	r3, [r5, #2]	@ movhi
 405 00c8 BDE8F883 		pop	{r3, r4, r5, r6, r7, r8, r9, pc}
 406              	.LVL38:
 407              	.L31:
 408              		.loc 1 125 0
 409 00cc 7118     		adds	r1, r6, r1
 410              	.LVL39:
 411 00ce 4901     		lsls	r1, r1, #5
 412 00d0 6B18     		adds	r3, r5, r1
 413 00d2 DFF87080 		ldr	r8, .L50
 414 00d6 D3F81828 		ldr	r2, [r3, #2072]
 415              		.loc 1 126 0
 416 00da DF68     		ldr	r7, [r3, #12]
 417              		.loc 1 125 0
 418 00dc 03EB020C 		add	ip, r3, r2
 419 00e0 0132     		adds	r2, r2, #1
 420              		.loc 1 126 0
 421 00e2 BA42     		cmp	r2, r7
 422              		.loc 1 125 0
 423 00e4 C3F81828 		str	r2, [r3, #2072]
 424 00e8 8CF81000 		strb	r0, [ip, #16]
 425              		.loc 1 126 0
 426 00ec 05D1     		bne	.L39
 427              		.loc 1 127 0
 428 00ee 18F80130 		ldrb	r3, [r8, r1]	@ zero_extendqisi2
 429 00f2 0133     		adds	r3, r3, #1
 430 00f4 DBB2     		uxtb	r3, r3
 431 00f6 08F80130 		strb	r3, [r8, r1]
 432              	.L39:
 433              		.loc 1 129 0
 434 00fa 3444     		add	r4, r4, r6
 435              	.LVL40:
 436 00fc 05EB4415 		add	r5, r5, r4, lsl #5
 437 0100 4FF47A73 		mov	r3, #1000
 438 0104 6B80     		strh	r3, [r5, #2]	@ movhi
 439              		.loc 1 130 0
 440 0106 BDE8F883 		pop	{r3, r4, r5, r6, r7, r8, r9, pc}
 441              	.LVL41:
 442              	.L32:
 443              		.loc 1 133 0
 444 010a 3444     		add	r4, r4, r6
 445 010c 6401     		lsls	r4, r4, #5
 446 010e 2B19     		adds	r3, r5, r4
 447              		.loc 1 134 0
 448 0110 295D     		ldrb	r1, [r5, r4]	@ zero_extendqisi2
 449              	.LVL42:
 450              		.loc 1 133 0
 451 0112 83F81D08 		strb	r0, [r3, #2077]
ARM GAS  /tmp/ccqwOXn8.s 			page 9


 452              	.L47:
 453              		.loc 1 140 0
 454 0116 0131     		adds	r1, r1, #1
 455 0118 C9B2     		uxtb	r1, r1
 456 011a 2955     		strb	r1, [r5, r4]
 457              		.loc 1 141 0
 458 011c 4FF47A72 		mov	r2, #1000
 459 0120 5A80     		strh	r2, [r3, #2]	@ movhi
 460              		.loc 1 142 0
 461 0122 BDE8F883 		pop	{r3, r4, r5, r6, r7, r8, r9, pc}
 462              	.LVL43:
 463              	.L33:
 464              		.loc 1 139 0
 465 0126 3444     		add	r4, r4, r6
 466 0128 6401     		lsls	r4, r4, #5
 467 012a 2B19     		adds	r3, r5, r4
 468              		.loc 1 140 0
 469 012c 295D     		ldrb	r1, [r5, r4]	@ zero_extendqisi2
 470              	.LVL44:
 471              		.loc 1 139 0
 472 012e 83F81C08 		strb	r0, [r3, #2076]
 473 0132 F0E7     		b	.L47
 474              	.LVL45:
 475              	.L38:
 476              		.loc 1 120 0
 477 0134 0023     		movs	r3, #0
 478 0136 1355     		strb	r3, [r2, r4]
 479 0138 BDE8F883 		pop	{r3, r4, r5, r6, r7, r8, r9, pc}
 480              	.LVL46:
 481              	.L49:
 482              		.loc 1 92 0
 483 013c 2E5D     		ldrb	r6, [r5, r4]	@ zero_extendqisi2
 484 013e 2B19     		adds	r3, r5, r4
 485 0140 0236     		adds	r6, r6, #2
 486 0142 96E7     		b	.L46
 487              	.L51:
 488              		.align	2
 489              	.L50:
 490 0144 00000000 		.word	.LANCHOR0
 491              		.cfi_endproc
 492              	.LFE3:
 493              		.size	packet_process_byte, .-packet_process_byte
 494 0148 AFF30080 		.section	.bss.handler_states,"aw",%nobits
 494      AFF30080 
 495              		.align	2
 496              		.set	.LANCHOR0,. + 0
 497              		.type	handler_states, %object
 498              		.size	handler_states, 4160
 499              	handler_states:
 500 0000 00000000 		.space	4160
 500      00000000 
 500      00000000 
 500      00000000 
 500      00000000 
 501              		.text
 502              	.Letext0:
 503              		.file 2 "/usr/include/newlib/machine/_default_types.h"
ARM GAS  /tmp/ccqwOXn8.s 			page 10


 504              		.file 3 "/usr/include/newlib/stdint.h"
 505              		.file 4 "crc.h"