ARM GAS  /tmp/ccgqUuww.s 			page 1


   1              		.syntax unified
   2              		.cpu cortex-m4
   3              		.eabi_attribute 27, 3
   4              		.eabi_attribute 28, 1
   5              		.fpu fpv4-sp-d16
   6              		.eabi_attribute 20, 1
   7              		.eabi_attribute 21, 1
   8              		.eabi_attribute 23, 3
   9              		.eabi_attribute 24, 1
  10              		.eabi_attribute 25, 1
  11              		.eabi_attribute 26, 1
  12              		.eabi_attribute 30, 2
  13              		.eabi_attribute 34, 1
  14              		.eabi_attribute 18, 4
  15              		.thumb
  16              		.file	"pal.c"
  17              		.text
  18              	.Ltext0:
  19              		.cfi_sections	.debug_frame
  20              		.section	.text.palReadBus,"ax",%progbits
  21              		.align	2
  22              		.p2align 4,,15
  23              		.global	palReadBus
  24              		.thumb
  25              		.thumb_func
  26              		.type	palReadBus, %function
  27              	palReadBus:
  28              	.LFB256:
  29              		.file 1 "ChibiOS_3.0.2/os/hal/src/pal.c"
  30              		.loc 1 65 0
  31              		.cfi_startproc
  32              		@ args = 0, pretend = 0, frame = 0
  33              		@ frame_needed = 0, uses_anonymous_args = 0
  34              		@ link register save eliminated.
  35              	.LVL0:
  36              		.loc 1 69 0
  37 0000 0368     		ldr	r3, [r0]
  38 0002 8268     		ldr	r2, [r0, #8]
  39 0004 1969     		ldr	r1, [r3, #16]
  40 0006 4368     		ldr	r3, [r0, #4]
  41 0008 21FA02F0 		lsr	r0, r1, r2
  42              	.LVL1:
  43              		.loc 1 70 0
  44 000c 1840     		ands	r0, r0, r3
  45 000e 7047     		bx	lr
  46              		.cfi_endproc
  47              	.LFE256:
  48              		.size	palReadBus, .-palReadBus
  49              		.section	.text.palWriteBus,"ax",%progbits
  50              		.align	2
  51              		.p2align 4,,15
  52              		.global	palWriteBus
  53              		.thumb
  54              		.thumb_func
  55              		.type	palWriteBus, %function
  56              	palWriteBus:
  57              	.LFB257:
ARM GAS  /tmp/ccgqUuww.s 			page 2


  58              		.loc 1 90 0
  59              		.cfi_startproc
  60              		@ args = 0, pretend = 0, frame = 0
  61              		@ frame_needed = 0, uses_anonymous_args = 0
  62              		@ link register save eliminated.
  63              	.LVL2:
  64              		.loc 1 94 0
  65 0000 0DC8     		ldmia	r0, {r0, r2, r3}
  66              	.LVL3:
  67              		.loc 1 90 0
  68 0002 30B4     		push	{r4, r5}
  69              		.cfi_def_cfa_offset 8
  70              		.cfi_offset 4, -8
  71              		.cfi_offset 5, -4
  72              		.loc 1 94 0
  73 0004 22EA0105 		bic	r5, r2, r1
  74 0008 03F11004 		add	r4, r3, #16
  75 000c 0A40     		ands	r2, r2, r1
  76 000e 02FA03F3 		lsl	r3, r2, r3
  77 0012 05FA04F2 		lsl	r2, r5, r4
  78 0016 1343     		orrs	r3, r3, r2
  79 0018 8361     		str	r3, [r0, #24]
  80              		.loc 1 95 0
  81 001a 30BC     		pop	{r4, r5}
  82 001c 7047     		bx	lr
  83              		.cfi_endproc
  84              	.LFE257:
  85              		.size	palWriteBus, .-palWriteBus
  86 001e 00BF     		.section	.text.palSetBusMode,"ax",%progbits
  87              		.align	2
  88              		.p2align 4,,15
  89              		.global	palSetBusMode
  90              		.thumb
  91              		.thumb_func
  92              		.type	palSetBusMode, %function
  93              	palSetBusMode:
  94              	.LFB258:
  95              		.loc 1 113 0
  96              		.cfi_startproc
  97              		@ args = 0, pretend = 0, frame = 0
  98              		@ frame_needed = 0, uses_anonymous_args = 0
  99              		@ link register save eliminated.
 100              	.LVL4:
 101 0000 10B4     		push	{r4}
 102              		.cfi_def_cfa_offset 4
 103              		.cfi_offset 4, -4
 104              		.loc 1 113 0
 105 0002 0A46     		mov	r2, r1
 106              		.loc 1 117 0
 107 0004 4468     		ldr	r4, [r0, #4]
 108 0006 8168     		ldr	r1, [r0, #8]
 109              	.LVL5:
 110 0008 0068     		ldr	r0, [r0]
 111              	.LVL6:
 112 000a 04FA01F1 		lsl	r1, r4, r1
 113              		.loc 1 118 0
 114 000e 5DF8044B 		ldr	r4, [sp], #4
ARM GAS  /tmp/ccgqUuww.s 			page 3


 115              		.loc 1 117 0
 116 0012 FFF7FEBF 		b	_pal_lld_setgroupmode
 117              	.LVL7:
 118              		.cfi_endproc
 119              	.LFE258:
 120              		.size	palSetBusMode, .-palSetBusMode
 121 0016 00BFAFF3 		.text
 121      0080AFF3 
 121      0080
 122              	.Letext0:
 123              		.file 2 "/usr/include/newlib/machine/_default_types.h"
 124              		.file 3 "/usr/include/newlib/stdint.h"
 125              		.file 4 "ChibiOS_3.0.2/os/rt/ports/ARMCMx/compilers/GCC/chtypes.h"
 126              		.file 5 "ChibiOS_3.0.2/os/rt/include/chsystypes.h"
 127              		.file 6 "ChibiOS_3.0.2/os/rt/include/chschd.h"
 128              		.file 7 "ChibiOS_3.0.2/os/rt/ports/ARMCMx/chcore.h"
 129              		.file 8 "ChibiOS_3.0.2/os/rt/ports/ARMCMx/chcore_v7m.h"
 130              		.file 9 "ChibiOS_3.0.2/os/rt/include/chtm.h"
 131              		.file 10 "ChibiOS_3.0.2/os/rt/include/chsem.h"
 132              		.file 11 "ChibiOS_3.0.2/os/rt/include/chmtx.h"
 133              		.file 12 "ChibiOS_3.0.2/os/hal/ports/STM32/LLD/GPIOv2/pal_lld.h"
 134              		.file 13 "ChibiOS_3.0.2/os/hal/include/pal.h"
 135              		.file 14 "ChibiOS_3.0.2/os/ext/CMSIS/include/core_cm4.h"