ARM GAS  /tmp/ccQw4agE.s 			page 1


   1              		.syntax unified
   2              		.cpu cortex-m4
   3              		.eabi_attribute 27, 3
   4              		.eabi_attribute 28, 1
   5              		.fpu fpv4-sp-d16
   6              		.eabi_attribute 20, 1
   7              		.eabi_attribute 21, 1
   8              		.eabi_attribute 23, 3
   9              		.eabi_attribute 24, 1
  10              		.eabi_attribute 25, 1
  11              		.eabi_attribute 26, 1
  12              		.eabi_attribute 30, 2
  13              		.eabi_attribute 34, 1
  14              		.eabi_attribute 18, 4
  15              		.thumb
  16              		.file	"pal_lld.c"
  17              		.text
  18              	.Ltext0:
  19              		.cfi_sections	.debug_frame
  20              		.section	.text._pal_lld_init,"ax",%progbits
  21              		.align	2
  22              		.p2align 4,,15
  23              		.global	_pal_lld_init
  24              		.thumb
  25              		.thumb_func
  26              		.type	_pal_lld_init, %function
  27              	_pal_lld_init:
  28              	.LFB257:
  29              		.file 1 "ChibiOS_3.0.2/os/hal/ports/STM32/LLD/GPIOv2/pal_lld.c"
  30              		.loc 1 92 0
  31              		.cfi_startproc
  32              		@ args = 0, pretend = 0, frame = 0
  33              		@ frame_needed = 0, uses_anonymous_args = 0
  34              		@ link register save eliminated.
  35              	.LVL0:
  36 0000 2DE9F00F 		push	{r4, r5, r6, r7, r8, r9, r10, fp}
  37              		.cfi_def_cfa_offset 32
  38              		.cfi_offset 4, -32
  39              		.cfi_offset 5, -28
  40              		.cfi_offset 6, -24
  41              		.cfi_offset 7, -20
  42              		.cfi_offset 8, -16
  43              		.cfi_offset 9, -12
  44              		.cfi_offset 10, -8
  45              		.cfi_offset 11, -4
  46              		.loc 1 105 0
  47 0004 DFF8AC91 		ldr	r9, .L2+28
  48              	.LBB20:
  49              	.LBB21:
  50              		.loc 1 67 0
  51 0008 DFF8AC81 		ldr	r8, .L2+32
  52              	.LBE21:
  53              	.LBE20:
  54              		.loc 1 105 0
  55 000c D9F830B0 		ldr	fp, [r9, #48]
  56              	.LBB23:
  57              	.LBB24:
ARM GAS  /tmp/ccQw4agE.s 			page 2


  58              		.loc 1 67 0
  59 0010 DFF8A8C1 		ldr	ip, .L2+36
  60              	.LBE24:
  61              	.LBE23:
  62              	.LBB26:
  63              	.LBB27:
  64 0014 604F     		ldr	r7, .L2
  65              	.LBE27:
  66              	.LBE26:
  67              	.LBB29:
  68              	.LBB30:
  69 0016 614E     		ldr	r6, .L2+4
  70              	.LBE30:
  71              	.LBE29:
  72              	.LBB32:
  73              	.LBB33:
  74 0018 614D     		ldr	r5, .L2+8
  75              	.LBE33:
  76              	.LBE32:
  77              	.LBB35:
  78              	.LBB36:
  79 001a 624C     		ldr	r4, .L2+12
  80              	.LBE36:
  81              	.LBE35:
  82              	.LBB38:
  83              	.LBB39:
  84 001c 6249     		ldr	r1, .L2+16
  85              	.LBE39:
  86              	.LBE38:
  87              	.LBB41:
  88              	.LBB42:
  89 001e 634A     		ldr	r2, .L2+20
  90              	.LBE42:
  91              	.LBE41:
  92              		.loc 1 105 0
  93 0020 40F2FF1A 		movw	r10, #511
  94 0024 4BEA0A0B 		orr	fp, fp, r10
  95 0028 C9F830B0 		str	fp, [r9, #48]
  96              		.loc 1 106 0
  97 002c D9F850B0 		ldr	fp, [r9, #80]
  98 0030 4BEA0A0A 		orr	r10, fp, r10
  99 0034 C9F850A0 		str	r10, [r9, #80]
 100              	.LVL1:
 101              	.LBB44:
 102              	.LBB22:
 103              		.loc 1 67 0
 104 0038 4368     		ldr	r3, [r0, #4]
 105 003a C8F80430 		str	r3, [r8, #4]
 106              		.loc 1 68 0
 107 003e 8368     		ldr	r3, [r0, #8]
 108 0040 C8F80830 		str	r3, [r8, #8]
 109              		.loc 1 69 0
 110 0044 C368     		ldr	r3, [r0, #12]
 111 0046 C8F80C30 		str	r3, [r8, #12]
 112              		.loc 1 70 0
 113 004a 0369     		ldr	r3, [r0, #16]
 114 004c C8F81430 		str	r3, [r8, #20]
ARM GAS  /tmp/ccQw4agE.s 			page 3


 115              		.loc 1 71 0
 116 0050 4369     		ldr	r3, [r0, #20]
 117 0052 C8F82030 		str	r3, [r8, #32]
 118              		.loc 1 72 0
 119 0056 8369     		ldr	r3, [r0, #24]
 120 0058 C8F82430 		str	r3, [r8, #36]
 121              		.loc 1 73 0
 122 005c 0368     		ldr	r3, [r0]
 123 005e C8F80030 		str	r3, [r8]
 124              	.LVL2:
 125              	.LBE22:
 126              	.LBE44:
 127              	.LBB45:
 128              	.LBB25:
 129              		.loc 1 67 0
 130 0062 036A     		ldr	r3, [r0, #32]
 131 0064 CCF80430 		str	r3, [ip, #4]
 132              		.loc 1 68 0
 133 0068 436A     		ldr	r3, [r0, #36]
 134 006a CCF80830 		str	r3, [ip, #8]
 135              		.loc 1 69 0
 136 006e 836A     		ldr	r3, [r0, #40]
 137 0070 CCF80C30 		str	r3, [ip, #12]
 138              		.loc 1 70 0
 139 0074 C36A     		ldr	r3, [r0, #44]
 140 0076 CCF81430 		str	r3, [ip, #20]
 141              		.loc 1 71 0
 142 007a 036B     		ldr	r3, [r0, #48]
 143 007c CCF82030 		str	r3, [ip, #32]
 144              		.loc 1 72 0
 145 0080 436B     		ldr	r3, [r0, #52]
 146 0082 CCF82430 		str	r3, [ip, #36]
 147              		.loc 1 73 0
 148 0086 C369     		ldr	r3, [r0, #28]
 149 0088 CCF80030 		str	r3, [ip]
 150              	.LVL3:
 151              	.LBE25:
 152              	.LBE45:
 153              	.LBB46:
 154              	.LBB28:
 155              		.loc 1 67 0
 156 008c C36B     		ldr	r3, [r0, #60]
 157 008e 7B60     		str	r3, [r7, #4]
 158              		.loc 1 68 0
 159 0090 036C     		ldr	r3, [r0, #64]
 160 0092 BB60     		str	r3, [r7, #8]
 161              		.loc 1 69 0
 162 0094 436C     		ldr	r3, [r0, #68]
 163 0096 FB60     		str	r3, [r7, #12]
 164              		.loc 1 70 0
 165 0098 836C     		ldr	r3, [r0, #72]
 166 009a 7B61     		str	r3, [r7, #20]
 167              		.loc 1 71 0
 168 009c C36C     		ldr	r3, [r0, #76]
 169 009e 3B62     		str	r3, [r7, #32]
 170              		.loc 1 72 0
 171 00a0 036D     		ldr	r3, [r0, #80]
ARM GAS  /tmp/ccQw4agE.s 			page 4


 172 00a2 7B62     		str	r3, [r7, #36]
 173              		.loc 1 73 0
 174 00a4 836B     		ldr	r3, [r0, #56]
 175 00a6 3B60     		str	r3, [r7]
 176              	.LVL4:
 177              	.LBE28:
 178              	.LBE46:
 179              	.LBB47:
 180              	.LBB31:
 181              		.loc 1 67 0
 182 00a8 876D     		ldr	r7, [r0, #88]
 183 00aa 7760     		str	r7, [r6, #4]
 184              		.loc 1 68 0
 185 00ac C76D     		ldr	r7, [r0, #92]
 186 00ae B760     		str	r7, [r6, #8]
 187              		.loc 1 69 0
 188 00b0 076E     		ldr	r7, [r0, #96]
 189 00b2 F760     		str	r7, [r6, #12]
 190              		.loc 1 70 0
 191 00b4 476E     		ldr	r7, [r0, #100]
 192 00b6 7761     		str	r7, [r6, #20]
 193              		.loc 1 71 0
 194 00b8 876E     		ldr	r7, [r0, #104]
 195 00ba 3762     		str	r7, [r6, #32]
 196              		.loc 1 72 0
 197 00bc C76E     		ldr	r7, [r0, #108]
 198 00be 7762     		str	r7, [r6, #36]
 199              		.loc 1 73 0
 200 00c0 476D     		ldr	r7, [r0, #84]
 201 00c2 3760     		str	r7, [r6]
 202              	.LVL5:
 203              	.LBE31:
 204              	.LBE47:
 205              	.LBB48:
 206              	.LBB34:
 207              		.loc 1 67 0
 208 00c4 466F     		ldr	r6, [r0, #116]
 209 00c6 6E60     		str	r6, [r5, #4]
 210              		.loc 1 68 0
 211 00c8 866F     		ldr	r6, [r0, #120]
 212 00ca AE60     		str	r6, [r5, #8]
 213              		.loc 1 69 0
 214 00cc C66F     		ldr	r6, [r0, #124]
 215 00ce EE60     		str	r6, [r5, #12]
 216              		.loc 1 70 0
 217 00d0 D0F88060 		ldr	r6, [r0, #128]
 218 00d4 6E61     		str	r6, [r5, #20]
 219              		.loc 1 71 0
 220 00d6 D0F88460 		ldr	r6, [r0, #132]
 221 00da 2E62     		str	r6, [r5, #32]
 222              		.loc 1 72 0
 223 00dc D0F88860 		ldr	r6, [r0, #136]
 224 00e0 6E62     		str	r6, [r5, #36]
 225              		.loc 1 73 0
 226 00e2 066F     		ldr	r6, [r0, #112]
 227 00e4 2E60     		str	r6, [r5]
 228              	.LVL6:
ARM GAS  /tmp/ccQw4agE.s 			page 5


 229              	.LBE34:
 230              	.LBE48:
 231              	.LBB49:
 232              	.LBB37:
 233              		.loc 1 67 0
 234 00e6 D0F89050 		ldr	r5, [r0, #144]
 235 00ea 6560     		str	r5, [r4, #4]
 236              		.loc 1 68 0
 237 00ec D0F89450 		ldr	r5, [r0, #148]
 238 00f0 A560     		str	r5, [r4, #8]
 239              		.loc 1 69 0
 240 00f2 D0F89850 		ldr	r5, [r0, #152]
 241 00f6 E560     		str	r5, [r4, #12]
 242              		.loc 1 70 0
 243 00f8 D0F89C50 		ldr	r5, [r0, #156]
 244 00fc 6561     		str	r5, [r4, #20]
 245              		.loc 1 71 0
 246 00fe D0F8A050 		ldr	r5, [r0, #160]
 247 0102 2562     		str	r5, [r4, #32]
 248              		.loc 1 72 0
 249 0104 D0F8A450 		ldr	r5, [r0, #164]
 250 0108 6562     		str	r5, [r4, #36]
 251              		.loc 1 73 0
 252 010a D0F88C50 		ldr	r5, [r0, #140]
 253 010e 2560     		str	r5, [r4]
 254              	.LVL7:
 255              	.LBE37:
 256              	.LBE49:
 257              	.LBB50:
 258              	.LBB40:
 259              		.loc 1 67 0
 260 0110 D0F8AC40 		ldr	r4, [r0, #172]
 261 0114 4C60     		str	r4, [r1, #4]
 262              		.loc 1 68 0
 263 0116 D0F8B040 		ldr	r4, [r0, #176]
 264 011a 8C60     		str	r4, [r1, #8]
 265              		.loc 1 69 0
 266 011c D0F8B440 		ldr	r4, [r0, #180]
 267 0120 CC60     		str	r4, [r1, #12]
 268              		.loc 1 70 0
 269 0122 D0F8B840 		ldr	r4, [r0, #184]
 270 0126 4C61     		str	r4, [r1, #20]
 271              		.loc 1 71 0
 272 0128 D0F8BC40 		ldr	r4, [r0, #188]
 273 012c 0C62     		str	r4, [r1, #32]
 274              		.loc 1 72 0
 275 012e D0F8C040 		ldr	r4, [r0, #192]
 276 0132 4C62     		str	r4, [r1, #36]
 277              		.loc 1 73 0
 278 0134 D0F8A840 		ldr	r4, [r0, #168]
 279 0138 0C60     		str	r4, [r1]
 280              	.LVL8:
 281              	.LBE40:
 282              	.LBE50:
 283              	.LBB51:
 284              	.LBB43:
 285              		.loc 1 67 0
ARM GAS  /tmp/ccQw4agE.s 			page 6


 286 013a D0F8C810 		ldr	r1, [r0, #200]
 287 013e 5160     		str	r1, [r2, #4]
 288              		.loc 1 68 0
 289 0140 D0F8CC10 		ldr	r1, [r0, #204]
 290 0144 9160     		str	r1, [r2, #8]
 291              		.loc 1 69 0
 292 0146 D0F8D010 		ldr	r1, [r0, #208]
 293 014a D160     		str	r1, [r2, #12]
 294              		.loc 1 70 0
 295 014c D0F8D410 		ldr	r1, [r0, #212]
 296 0150 5161     		str	r1, [r2, #20]
 297              		.loc 1 71 0
 298 0152 D0F8D810 		ldr	r1, [r0, #216]
 299 0156 1162     		str	r1, [r2, #32]
 300              		.loc 1 72 0
 301 0158 D0F8DC10 		ldr	r1, [r0, #220]
 302 015c 5162     		str	r1, [r2, #36]
 303              		.loc 1 73 0
 304 015e D0F8C410 		ldr	r1, [r0, #196]
 305 0162 1160     		str	r1, [r2]
 306              	.LVL9:
 307              	.LBE43:
 308              	.LBE51:
 309              	.LBB52:
 310              	.LBB53:
 311              		.loc 1 67 0
 312 0164 124B     		ldr	r3, .L2+24
 313 0166 D0F8E420 		ldr	r2, [r0, #228]
 314 016a 5A60     		str	r2, [r3, #4]
 315              		.loc 1 68 0
 316 016c D0F8E820 		ldr	r2, [r0, #232]
 317 0170 9A60     		str	r2, [r3, #8]
 318              		.loc 1 69 0
 319 0172 D0F8EC20 		ldr	r2, [r0, #236]
 320 0176 DA60     		str	r2, [r3, #12]
 321              		.loc 1 70 0
 322 0178 D0F8F020 		ldr	r2, [r0, #240]
 323 017c 5A61     		str	r2, [r3, #20]
 324              		.loc 1 71 0
 325 017e D0F8F420 		ldr	r2, [r0, #244]
 326 0182 1A62     		str	r2, [r3, #32]
 327              		.loc 1 72 0
 328 0184 D0F8F820 		ldr	r2, [r0, #248]
 329 0188 5A62     		str	r2, [r3, #36]
 330              		.loc 1 73 0
 331 018a D0F8E020 		ldr	r2, [r0, #224]
 332 018e 1A60     		str	r2, [r3]
 333              	.LBE53:
 334              	.LBE52:
 335              		.loc 1 139 0
 336 0190 BDE8F00F 		pop	{r4, r5, r6, r7, r8, r9, r10, fp}
 337 0194 7047     		bx	lr
 338              	.L3:
 339 0196 00BF     		.align	2
 340              	.L2:
 341 0198 00080240 		.word	1073874944
 342 019c 000C0240 		.word	1073875968
ARM GAS  /tmp/ccQw4agE.s 			page 7


 343 01a0 00100240 		.word	1073876992
 344 01a4 00140240 		.word	1073878016
 345 01a8 00180240 		.word	1073879040
 346 01ac 001C0240 		.word	1073880064
 347 01b0 00200240 		.word	1073881088
 348 01b4 00380240 		.word	1073887232
 349 01b8 00000240 		.word	1073872896
 350 01bc 00040240 		.word	1073873920
 351              		.cfi_endproc
 352              	.LFE257:
 353              		.size	_pal_lld_init, .-_pal_lld_init
 354              		.section	.text._pal_lld_setgroupmode,"ax",%progbits
 355              		.align	2
 356              		.p2align 4,,15
 357              		.global	_pal_lld_setgroupmode
 358              		.thumb
 359              		.thumb_func
 360              		.type	_pal_lld_setgroupmode, %function
 361              	_pal_lld_setgroupmode:
 362              	.LFB258:
 363              		.loc 1 157 0
 364              		.cfi_startproc
 365              		@ args = 0, pretend = 0, frame = 0
 366              		@ frame_needed = 0, uses_anonymous_args = 0
 367              		@ link register save eliminated.
 368              	.LVL10:
 369 0000 2DE9F00F 		push	{r4, r5, r6, r7, r8, r9, r10, fp}
 370              		.cfi_def_cfa_offset 32
 371              		.cfi_offset 4, -32
 372              		.cfi_offset 5, -28
 373              		.cfi_offset 6, -24
 374              		.cfi_offset 7, -20
 375              		.cfi_offset 8, -16
 376              		.cfi_offset 9, -12
 377              		.cfi_offset 10, -8
 378              		.cfi_offset 11, -4
 379              		.loc 1 164 0
 380 0004 0023     		movs	r3, #0
 381              		.loc 1 159 0
 382 0006 02F00307 		and	r7, r2, #3
 383              	.LVL11:
 384              		.loc 1 160 0
 385 000a C2F38006 		ubfx	r6, r2, #2, #1
 386              	.LVL12:
 387              		.loc 1 161 0
 388 000e C2F3C105 		ubfx	r5, r2, #3, #2
 389              	.LVL13:
 390              		.loc 1 162 0
 391 0012 C2F34114 		ubfx	r4, r2, #5, #2
 392              	.LVL14:
 393              	.LBB54:
 394              		.loc 1 170 0
 395 0016 4FF00F09 		mov	r9, #15
 396              	.LBE54:
 397              		.loc 1 163 0
 398 001a C2F3C312 		ubfx	r2, r2, #7, #4
 399              	.LVL15:
ARM GAS  /tmp/ccQw4agE.s 			page 8


 400              	.LBB55:
 401              		.loc 1 175 0
 402 001e 4FF0010A 		mov	r10, #1
 403 0022 38E0     		b	.L9
 404              	.LVL16:
 405              	.L14:
 406              		.loc 1 172 0
 407 0024 D0F820B0 		ldr	fp, [r0, #32]
 408 0028 2BEA0C0C 		bic	ip, fp, ip
 409              	.LVL17:
 410 002c 4CEA0808 		orr	r8, ip, r8
 411              	.LVL18:
 412 0030 C0F82080 		str	r8, [r0, #32]
 413              	.L7:
 414              	.LVL19:
 415              		.loc 1 176 0
 416 0034 D0F804C0 		ldr	ip, [r0, #4]
 417              		.loc 1 175 0
 418 0038 0AFA03F8 		lsl	r8, r10, r3
 419              		.loc 1 176 0
 420 003c 2CEA080C 		bic	ip, ip, r8
 421 0040 4CEA060C 		orr	ip, ip, r6
 422 0044 C0F804C0 		str	ip, [r0, #4]
 423              	.LVL20:
 424              		.loc 1 177 0
 425 0048 4FF0030B 		mov	fp, #3
 426 004c 4FEA430C 		lsl	ip, r3, #1
 427              		.loc 1 178 0
 428 0050 D0F80880 		ldr	r8, [r0, #8]
 429              		.loc 1 177 0
 430 0054 0BFA0CFC 		lsl	ip, fp, ip
 431              	.LVL21:
 432              		.loc 1 178 0
 433 0058 6FEA0C0C 		mvn	ip, ip
 434              	.LVL22:
 435 005c 0CEA0808 		and	r8, ip, r8
 436 0060 48EA0508 		orr	r8, r8, r5
 437 0064 C0F80880 		str	r8, [r0, #8]
 438              		.loc 1 179 0
 439 0068 D0F80C80 		ldr	r8, [r0, #12]
 440 006c 0CEA0808 		and	r8, ip, r8
 441 0070 48EA0408 		orr	r8, r8, r4
 442 0074 C0F80C80 		str	r8, [r0, #12]
 443              		.loc 1 180 0
 444 0078 D0F80080 		ldr	r8, [r0]
 445 007c 0CEA080C 		and	ip, ip, r8
 446              	.LVL23:
 447 0080 4CEA070C 		orr	ip, ip, r7
 448 0084 C0F800C0 		str	ip, [r0]
 449              	.LVL24:
 450              	.L5:
 451              	.LBE55:
 452              		.loc 1 183 0
 453 0088 4908     		lsrs	r1, r1, #1
 454              	.LVL25:
 455 008a 1AD0     		beq	.L4
 456              		.loc 1 185 0
ARM GAS  /tmp/ccQw4agE.s 			page 9


 457 008c 7600     		lsls	r6, r6, #1
 458              	.LVL26:
 459              		.loc 1 186 0
 460 008e AD00     		lsls	r5, r5, #2
 461              	.LVL27:
 462              		.loc 1 187 0
 463 0090 A400     		lsls	r4, r4, #2
 464              	.LVL28:
 465              		.loc 1 188 0
 466 0092 BF00     		lsls	r7, r7, #2
 467              	.LVL29:
 468              		.loc 1 189 0
 469 0094 0133     		adds	r3, r3, #1
 470              	.LVL30:
 471              	.L9:
 472              	.LBB56:
 473              		.loc 1 169 0
 474 0096 03F0070C 		and	ip, r3, #7
 475 009a 4FEA8C0C 		lsl	ip, ip, #2
 476              	.LBE56:
 477              		.loc 1 166 0
 478 009e 11F0010F 		tst	r1, #1
 479              	.LBB57:
 480              		.loc 1 169 0
 481 00a2 02FA0CF8 		lsl	r8, r2, ip
 482              	.LVL31:
 483              		.loc 1 170 0
 484 00a6 09FA0CFC 		lsl	ip, r9, ip
 485              	.LVL32:
 486              	.LBE57:
 487              		.loc 1 166 0
 488 00aa EDD0     		beq	.L5
 489              	.LBB58:
 490              		.loc 1 171 0
 491 00ac 072B     		cmp	r3, #7
 492 00ae B9D9     		bls	.L14
 493              		.loc 1 174 0
 494 00b0 D0F824B0 		ldr	fp, [r0, #36]
 495 00b4 2BEA0C0C 		bic	ip, fp, ip
 496              	.LVL33:
 497 00b8 4CEA0808 		orr	r8, ip, r8
 498              	.LVL34:
 499 00bc C0F82480 		str	r8, [r0, #36]
 500 00c0 B8E7     		b	.L7
 501              	.L4:
 502              	.LBE58:
 503              		.loc 1 191 0
 504 00c2 BDE8F00F 		pop	{r4, r5, r6, r7, r8, r9, r10, fp}
 505              	.LVL35:
 506 00c6 7047     		bx	lr
 507              		.cfi_endproc
 508              	.LFE258:
 509              		.size	_pal_lld_setgroupmode, .-_pal_lld_setgroupmode
 510 00c8 AFF30080 		.text
 510      AFF30080 
 511              	.Letext0:
 512              		.file 2 "/usr/include/newlib/machine/_default_types.h"
ARM GAS  /tmp/ccQw4agE.s 			page 10


 513              		.file 3 "/usr/include/newlib/stdint.h"
 514              		.file 4 "ChibiOS_3.0.2/os/rt/ports/ARMCMx/compilers/GCC/chtypes.h"
 515              		.file 5 "ChibiOS_3.0.2/os/rt/include/chsystypes.h"
 516              		.file 6 "ChibiOS_3.0.2/os/rt/include/chschd.h"
 517              		.file 7 "ChibiOS_3.0.2/os/ext/CMSIS/ST/stm32f407xx.h"
 518              		.file 8 "ChibiOS_3.0.2/os/rt/ports/ARMCMx/chcore.h"
 519              		.file 9 "ChibiOS_3.0.2/os/rt/ports/ARMCMx/chcore_v7m.h"
 520              		.file 10 "ChibiOS_3.0.2/os/rt/include/chtm.h"
 521              		.file 11 "ChibiOS_3.0.2/os/rt/include/chsem.h"
 522              		.file 12 "ChibiOS_3.0.2/os/rt/include/chmtx.h"
 523              		.file 13 "ChibiOS_3.0.2/os/hal/ports/STM32/LLD/GPIOv2/pal_lld.h"
 524              		.file 14 "ChibiOS_3.0.2/os/ext/CMSIS/include/core_cm4.h"