ARM GAS  /tmp/ccLavTdR.s 			page 1


   1              		.syntax unified
   2              		.cpu cortex-m4
   3              		.eabi_attribute 27, 3
   4              		.eabi_attribute 28, 1
   5              		.fpu fpv4-sp-d16
   6              		.eabi_attribute 20, 1
   7              		.eabi_attribute 21, 1
   8              		.eabi_attribute 23, 3
   9              		.eabi_attribute 24, 1
  10              		.eabi_attribute 25, 1
  11              		.eabi_attribute 26, 1
  12              		.eabi_attribute 30, 2
  13              		.eabi_attribute 34, 1
  14              		.eabi_attribute 18, 4
  15              		.thumb
  16              		.file	"rf.c"
  17              		.text
  18              	.Ltext0:
  19              		.cfi_sections	.debug_frame
  20              		.section	.text.rf_init,"ax",%progbits
  21              		.align	2
  22              		.p2align 4,,15
  23              		.global	rf_init
  24              		.thumb
  25              		.thumb_func
  26              		.type	rf_init, %function
  27              	rf_init:
  28              	.LFB256:
  29              		.file 1 "nrf/rf.c"
  30              		.loc 1 25 0
  31              		.cfi_startproc
  32              		@ args = 0, pretend = 0, frame = 0
  33              		@ frame_needed = 0, uses_anonymous_args = 0
  34              		@ link register save eliminated.
  35              		.loc 1 26 0
  36 0000 FFF7FEBF 		b	spi_sw_init
  37              	.LVL0:
  38              		.cfi_endproc
  39              	.LFE256:
  40              		.size	rf_init, .-rf_init
  41 0004 AFF30080 		.section	.text.rf_stop,"ax",%progbits
  41      AFF30080 
  41      AFF30080 
  42              		.align	2
  43              		.p2align 4,,15
  44              		.global	rf_stop
  45              		.thumb
  46              		.thumb_func
  47              		.type	rf_stop, %function
  48              	rf_stop:
  49              	.LFB257:
  50              		.loc 1 29 0
  51              		.cfi_startproc
  52              		@ args = 0, pretend = 0, frame = 0
  53              		@ frame_needed = 0, uses_anonymous_args = 0
  54              		@ link register save eliminated.
  55              		.loc 1 30 0
ARM GAS  /tmp/ccLavTdR.s 			page 2


  56 0000 FFF7FEBF 		b	spi_sw_stop
  57              	.LVL1:
  58              		.cfi_endproc
  59              	.LFE257:
  60              		.size	rf_stop, .-rf_stop
  61 0004 AFF30080 		.section	.text.rf_write_tx_payload,"ax",%progbits
  61      AFF30080 
  61      AFF30080 
  62              		.align	2
  63              		.p2align 4,,15
  64              		.global	rf_write_tx_payload
  65              		.thumb
  66              		.thumb_func
  67              		.type	rf_write_tx_payload, %function
  68              	rf_write_tx_payload:
  69              	.LFB266:
  70              		.loc 1 141 0
  71              		.cfi_startproc
  72              		@ args = 0, pretend = 0, frame = 8
  73              		@ frame_needed = 0, uses_anonymous_args = 0
  74              	.LVL2:
  75 0000 70B5     		push	{r4, r5, r6, lr}
  76              		.cfi_def_cfa_offset 16
  77              		.cfi_offset 4, -16
  78              		.cfi_offset 5, -12
  79              		.cfi_offset 6, -8
  80              		.cfi_offset 14, -4
  81 0002 82B0     		sub	sp, sp, #8
  82              		.cfi_def_cfa_offset 24
  83              		.loc 1 142 0
  84 0004 02AC     		add	r4, sp, #8
  85 0006 A023     		movs	r3, #160
  86 0008 04F8013D 		strb	r3, [r4, #-1]!
  87              		.loc 1 141 0
  88 000c 0646     		mov	r6, r0
  89 000e 0D46     		mov	r5, r1
  90              		.loc 1 143 0
  91 0010 FFF7FEFF 		bl	spi_sw_begin
  92              	.LVL3:
  93              		.loc 1 144 0
  94 0014 2146     		mov	r1, r4
  95 0016 0020     		movs	r0, #0
  96 0018 0122     		movs	r2, #1
  97 001a FFF7FEFF 		bl	spi_sw_transfer
  98              	.LVL4:
  99              		.loc 1 145 0
 100 001e 3146     		mov	r1, r6
 101 0020 2A46     		mov	r2, r5
 102 0022 0020     		movs	r0, #0
 103 0024 FFF7FEFF 		bl	spi_sw_transfer
 104              	.LVL5:
 105              		.loc 1 146 0
 106 0028 FFF7FEFF 		bl	spi_sw_end
 107              	.LVL6:
 108              		.loc 1 148 0
 109 002c 02B0     		add	sp, sp, #8
 110              		@ sp needed
ARM GAS  /tmp/ccLavTdR.s 			page 3


 111 002e 70BD     		pop	{r4, r5, r6, pc}
 112              		.cfi_endproc
 113              	.LFE266:
 114              		.size	rf_write_tx_payload, .-rf_write_tx_payload
 115              		.section	.text.rf_write_tx_payload_no_ack,"ax",%progbits
 116              		.align	2
 117              		.p2align 4,,15
 118              		.global	rf_write_tx_payload_no_ack
 119              		.thumb
 120              		.thumb_func
 121              		.type	rf_write_tx_payload_no_ack, %function
 122              	rf_write_tx_payload_no_ack:
 123              	.LFB267:
 124              		.loc 1 151 0
 125              		.cfi_startproc
 126              		@ args = 0, pretend = 0, frame = 8
 127              		@ frame_needed = 0, uses_anonymous_args = 0
 128              	.LVL7:
 129 0000 70B5     		push	{r4, r5, r6, lr}
 130              		.cfi_def_cfa_offset 16
 131              		.cfi_offset 4, -16
 132              		.cfi_offset 5, -12
 133              		.cfi_offset 6, -8
 134              		.cfi_offset 14, -4
 135 0002 82B0     		sub	sp, sp, #8
 136              		.cfi_def_cfa_offset 24
 137              		.loc 1 152 0
 138 0004 02AC     		add	r4, sp, #8
 139 0006 B023     		movs	r3, #176
 140 0008 04F8013D 		strb	r3, [r4, #-1]!
 141              		.loc 1 151 0
 142 000c 0646     		mov	r6, r0
 143 000e 0D46     		mov	r5, r1
 144              		.loc 1 153 0
 145 0010 FFF7FEFF 		bl	spi_sw_begin
 146              	.LVL8:
 147              		.loc 1 154 0
 148 0014 2146     		mov	r1, r4
 149 0016 0020     		movs	r0, #0
 150 0018 0122     		movs	r2, #1
 151 001a FFF7FEFF 		bl	spi_sw_transfer
 152              	.LVL9:
 153              		.loc 1 155 0
 154 001e 3146     		mov	r1, r6
 155 0020 2A46     		mov	r2, r5
 156 0022 0020     		movs	r0, #0
 157 0024 FFF7FEFF 		bl	spi_sw_transfer
 158              	.LVL10:
 159              		.loc 1 156 0
 160 0028 FFF7FEFF 		bl	spi_sw_end
 161              	.LVL11:
 162              		.loc 1 158 0
 163 002c 02B0     		add	sp, sp, #8
 164              		@ sp needed
 165 002e 70BD     		pop	{r4, r5, r6, pc}
 166              		.cfi_endproc
 167              	.LFE267:
ARM GAS  /tmp/ccLavTdR.s 			page 4


 168              		.size	rf_write_tx_payload_no_ack, .-rf_write_tx_payload_no_ack
 169              		.section	.text.rf_write_ack_payload,"ax",%progbits
 170              		.align	2
 171              		.p2align 4,,15
 172              		.global	rf_write_ack_payload
 173              		.thumb
 174              		.thumb_func
 175              		.type	rf_write_ack_payload, %function
 176              	rf_write_ack_payload:
 177              	.LFB268:
 178              		.loc 1 161 0
 179              		.cfi_startproc
 180              		@ args = 0, pretend = 0, frame = 8
 181              		@ frame_needed = 0, uses_anonymous_args = 0
 182              	.LVL12:
 183 0000 70B5     		push	{r4, r5, r6, lr}
 184              		.cfi_def_cfa_offset 16
 185              		.cfi_offset 4, -16
 186              		.cfi_offset 5, -12
 187              		.cfi_offset 6, -8
 188              		.cfi_offset 14, -4
 189 0002 82B0     		sub	sp, sp, #8
 190              		.cfi_def_cfa_offset 24
 191              		.loc 1 162 0
 192 0004 02AC     		add	r4, sp, #8
 193 0006 00F00700 		and	r0, r0, #7
 194              	.LVL13:
 195 000a 60F05700 		orn	r0, r0, #87
 196 000e 04F8010D 		strb	r0, [r4, #-1]!
 197              		.loc 1 161 0
 198 0012 0E46     		mov	r6, r1
 199 0014 1546     		mov	r5, r2
 200              		.loc 1 163 0
 201 0016 FFF7FEFF 		bl	spi_sw_begin
 202              	.LVL14:
 203              		.loc 1 164 0
 204 001a 2146     		mov	r1, r4
 205 001c 0020     		movs	r0, #0
 206 001e 0122     		movs	r2, #1
 207 0020 FFF7FEFF 		bl	spi_sw_transfer
 208              	.LVL15:
 209              		.loc 1 165 0
 210 0024 3146     		mov	r1, r6
 211 0026 2A46     		mov	r2, r5
 212 0028 0020     		movs	r0, #0
 213 002a FFF7FEFF 		bl	spi_sw_transfer
 214              	.LVL16:
 215              		.loc 1 166 0
 216 002e FFF7FEFF 		bl	spi_sw_end
 217              	.LVL17:
 218              		.loc 1 168 0
 219 0032 02B0     		add	sp, sp, #8
 220              		@ sp needed
 221 0034 70BD     		pop	{r4, r5, r6, pc}
 222              		.cfi_endproc
 223              	.LFE268:
 224              		.size	rf_write_ack_payload, .-rf_write_ack_payload
ARM GAS  /tmp/ccLavTdR.s 			page 5


 225 0036 00BFAFF3 		.section	.text.rf_read_rx_payload,"ax",%progbits
 225      0080AFF3 
 225      0080
 226              		.align	2
 227              		.p2align 4,,15
 228              		.global	rf_read_rx_payload
 229              		.thumb
 230              		.thumb_func
 231              		.type	rf_read_rx_payload, %function
 232              	rf_read_rx_payload:
 233              	.LFB269:
 234              		.loc 1 171 0
 235              		.cfi_startproc
 236              		@ args = 0, pretend = 0, frame = 8
 237              		@ frame_needed = 0, uses_anonymous_args = 0
 238              	.LVL18:
 239 0000 70B5     		push	{r4, r5, r6, lr}
 240              		.cfi_def_cfa_offset 16
 241              		.cfi_offset 4, -16
 242              		.cfi_offset 5, -12
 243              		.cfi_offset 6, -8
 244              		.cfi_offset 14, -4
 245 0002 82B0     		sub	sp, sp, #8
 246              		.cfi_def_cfa_offset 24
 247              		.loc 1 172 0
 248 0004 02AC     		add	r4, sp, #8
 249 0006 6123     		movs	r3, #97
 250 0008 04F8013D 		strb	r3, [r4, #-1]!
 251              		.loc 1 171 0
 252 000c 0646     		mov	r6, r0
 253 000e 0D46     		mov	r5, r1
 254              		.loc 1 173 0
 255 0010 FFF7FEFF 		bl	spi_sw_begin
 256              	.LVL19:
 257              		.loc 1 174 0
 258 0014 2146     		mov	r1, r4
 259 0016 0020     		movs	r0, #0
 260 0018 0122     		movs	r2, #1
 261 001a FFF7FEFF 		bl	spi_sw_transfer
 262              	.LVL20:
 263              		.loc 1 175 0
 264 001e 3046     		mov	r0, r6
 265 0020 2A46     		mov	r2, r5
 266 0022 0021     		movs	r1, #0
 267 0024 FFF7FEFF 		bl	spi_sw_transfer
 268              	.LVL21:
 269              		.loc 1 176 0
 270 0028 FFF7FEFF 		bl	spi_sw_end
 271              	.LVL22:
 272              		.loc 1 178 0
 273 002c 02B0     		add	sp, sp, #8
 274              		@ sp needed
 275 002e 70BD     		pop	{r4, r5, r6, pc}
 276              		.cfi_endproc
 277              	.LFE269:
 278              		.size	rf_read_rx_payload, .-rf_read_rx_payload
 279              		.section	.text.rf_flush_tx,"ax",%progbits
ARM GAS  /tmp/ccLavTdR.s 			page 6


 280              		.align	2
 281              		.p2align 4,,15
 282              		.global	rf_flush_tx
 283              		.thumb
 284              		.thumb_func
 285              		.type	rf_flush_tx, %function
 286              	rf_flush_tx:
 287              	.LFB281:
 288              		.loc 1 268 0
 289              		.cfi_startproc
 290              		@ args = 0, pretend = 0, frame = 8
 291              		@ frame_needed = 0, uses_anonymous_args = 0
 292 0000 10B5     		push	{r4, lr}
 293              		.cfi_def_cfa_offset 8
 294              		.cfi_offset 4, -8
 295              		.cfi_offset 14, -4
 296 0002 82B0     		sub	sp, sp, #8
 297              		.cfi_def_cfa_offset 16
 298              		.loc 1 269 0
 299 0004 02AC     		add	r4, sp, #8
 300 0006 E123     		movs	r3, #225
 301 0008 04F8013D 		strb	r3, [r4, #-1]!
 302              		.loc 1 270 0
 303 000c FFF7FEFF 		bl	spi_sw_begin
 304              	.LVL23:
 305              		.loc 1 271 0
 306 0010 2146     		mov	r1, r4
 307 0012 0020     		movs	r0, #0
 308 0014 0122     		movs	r2, #1
 309 0016 FFF7FEFF 		bl	spi_sw_transfer
 310              	.LVL24:
 311              		.loc 1 272 0
 312 001a FFF7FEFF 		bl	spi_sw_end
 313              	.LVL25:
 314              		.loc 1 273 0
 315 001e 02B0     		add	sp, sp, #8
 316              		@ sp needed
 317 0020 10BD     		pop	{r4, pc}
 318              		.cfi_endproc
 319              	.LFE281:
 320              		.size	rf_flush_tx, .-rf_flush_tx
 321 0022 00BFAFF3 		.section	.text.rf_flush_rx,"ax",%progbits
 321      0080AFF3 
 321      0080AFF3 
 321      0080
 322              		.align	2
 323              		.p2align 4,,15
 324              		.global	rf_flush_rx
 325              		.thumb
 326              		.thumb_func
 327              		.type	rf_flush_rx, %function
 328              	rf_flush_rx:
 329              	.LFB282:
 330              		.loc 1 275 0
 331              		.cfi_startproc
 332              		@ args = 0, pretend = 0, frame = 8
 333              		@ frame_needed = 0, uses_anonymous_args = 0
ARM GAS  /tmp/ccLavTdR.s 			page 7


 334 0000 10B5     		push	{r4, lr}
 335              		.cfi_def_cfa_offset 8
 336              		.cfi_offset 4, -8
 337              		.cfi_offset 14, -4
 338 0002 82B0     		sub	sp, sp, #8
 339              		.cfi_def_cfa_offset 16
 340              		.loc 1 276 0
 341 0004 02AC     		add	r4, sp, #8
 342 0006 E223     		movs	r3, #226
 343 0008 04F8013D 		strb	r3, [r4, #-1]!
 344              		.loc 1 277 0
 345 000c FFF7FEFF 		bl	spi_sw_begin
 346              	.LVL26:
 347              		.loc 1 278 0
 348 0010 2146     		mov	r1, r4
 349 0012 0020     		movs	r0, #0
 350 0014 0122     		movs	r2, #1
 351 0016 FFF7FEFF 		bl	spi_sw_transfer
 352              	.LVL27:
 353              		.loc 1 279 0
 354 001a FFF7FEFF 		bl	spi_sw_end
 355              	.LVL28:
 356              		.loc 1 280 0
 357 001e 02B0     		add	sp, sp, #8
 358              		@ sp needed
 359 0020 10BD     		pop	{r4, pc}
 360              		.cfi_endproc
 361              	.LFE282:
 362              		.size	rf_flush_rx, .-rf_flush_rx
 363 0022 00BFAFF3 		.section	.text.rf_flush_all,"ax",%progbits
 363      0080AFF3 
 363      0080AFF3 
 363      0080
 364              		.align	2
 365              		.p2align 4,,15
 366              		.global	rf_flush_all
 367              		.thumb
 368              		.thumb_func
 369              		.type	rf_flush_all, %function
 370              	rf_flush_all:
 371              	.LFB283:
 372              		.loc 1 282 0
 373              		.cfi_startproc
 374              		@ args = 0, pretend = 0, frame = 0
 375              		@ frame_needed = 0, uses_anonymous_args = 0
 376 0000 08B5     		push	{r3, lr}
 377              		.cfi_def_cfa_offset 8
 378              		.cfi_offset 3, -8
 379              		.cfi_offset 14, -4
 380              		.loc 1 283 0
 381 0002 FFF7FEFF 		bl	rf_flush_rx
 382              	.LVL29:
 383              		.loc 1 285 0
 384 0006 BDE80840 		pop	{r3, lr}
 385              		.loc 1 284 0
 386 000a FFF7FEBF 		b	rf_flush_tx
 387              	.LVL30:
ARM GAS  /tmp/ccLavTdR.s 			page 8


 388              		.cfi_endproc
 389              	.LFE283:
 390              		.size	rf_flush_all, .-rf_flush_all
 391 000e 00BF     		.section	.text.rf_get_payload_width,"ax",%progbits
 392              		.align	2
 393              		.p2align 4,,15
 394              		.global	rf_get_payload_width
 395              		.thumb
 396              		.thumb_func
 397              		.type	rf_get_payload_width, %function
 398              	rf_get_payload_width:
 399              	.LFB288:
 400              		.loc 1 303 0
 401              		.cfi_startproc
 402              		@ args = 0, pretend = 0, frame = 8
 403              		@ frame_needed = 0, uses_anonymous_args = 0
 404 0000 10B5     		push	{r4, lr}
 405              		.cfi_def_cfa_offset 8
 406              		.cfi_offset 4, -8
 407              		.cfi_offset 14, -4
 408 0002 82B0     		sub	sp, sp, #8
 409              		.cfi_def_cfa_offset 16
 410              		.loc 1 305 0
 411 0004 02AC     		add	r4, sp, #8
 412 0006 6023     		movs	r3, #96
 413 0008 04F8013D 		strb	r3, [r4, #-1]!
 414              		.loc 1 306 0
 415 000c FFF7FEFF 		bl	spi_sw_begin
 416              	.LVL31:
 417              		.loc 1 307 0
 418 0010 2146     		mov	r1, r4
 419 0012 0020     		movs	r0, #0
 420 0014 0122     		movs	r2, #1
 421 0016 FFF7FEFF 		bl	spi_sw_transfer
 422              	.LVL32:
 423              		.loc 1 308 0
 424 001a 0DF10600 		add	r0, sp, #6
 425 001e 0021     		movs	r1, #0
 426 0020 0122     		movs	r2, #1
 427 0022 FFF7FEFF 		bl	spi_sw_transfer
 428              	.LVL33:
 429              		.loc 1 309 0
 430 0026 FFF7FEFF 		bl	spi_sw_end
 431              	.LVL34:
 432              		.loc 1 311 0
 433 002a 9DF80600 		ldrb	r0, [sp, #6]	@ zero_extendqisi2
 434 002e 02B0     		add	sp, sp, #8
 435              		@ sp needed
 436 0030 10BD     		pop	{r4, pc}
 437              		.cfi_endproc
 438              	.LFE288:
 439              		.size	rf_get_payload_width, .-rf_get_payload_width
 440 0032 00BFAFF3 		.section	.text.rf_status,"ax",%progbits
 440      0080AFF3 
 440      0080AFF3 
 440      0080
 441              		.align	2
ARM GAS  /tmp/ccLavTdR.s 			page 9


 442              		.p2align 4,,15
 443              		.global	rf_status
 444              		.thumb
 445              		.thumb_func
 446              		.type	rf_status, %function
 447              	rf_status:
 448              	.LFB289:
 449              		.loc 1 313 0
 450              		.cfi_startproc
 451              		@ args = 0, pretend = 0, frame = 8
 452              		@ frame_needed = 0, uses_anonymous_args = 0
 453 0000 10B5     		push	{r4, lr}
 454              		.cfi_def_cfa_offset 8
 455              		.cfi_offset 4, -8
 456              		.cfi_offset 14, -4
 457 0002 82B0     		sub	sp, sp, #8
 458              		.cfi_def_cfa_offset 16
 459              		.loc 1 314 0
 460 0004 02AC     		add	r4, sp, #8
 461 0006 FF23     		movs	r3, #255
 462 0008 04F8013D 		strb	r3, [r4, #-1]!
 463              		.loc 1 315 0
 464 000c FFF7FEFF 		bl	spi_sw_begin
 465              	.LVL35:
 466              		.loc 1 316 0
 467 0010 2046     		mov	r0, r4
 468 0012 2146     		mov	r1, r4
 469 0014 0122     		movs	r2, #1
 470 0016 FFF7FEFF 		bl	spi_sw_transfer
 471              	.LVL36:
 472              		.loc 1 317 0
 473 001a FFF7FEFF 		bl	spi_sw_end
 474              	.LVL37:
 475              		.loc 1 319 0
 476 001e 9DF80700 		ldrb	r0, [sp, #7]	@ zero_extendqisi2
 477 0022 02B0     		add	sp, sp, #8
 478              		@ sp needed
 479 0024 10BD     		pop	{r4, pc}
 480              		.cfi_endproc
 481              	.LFE289:
 482              		.size	rf_status, .-rf_status
 483 0026 00BFAFF3 		.section	.text.rf_write_reg,"ax",%progbits
 483      0080AFF3 
 483      0080
 484              		.align	2
 485              		.p2align 4,,15
 486              		.global	rf_write_reg
 487              		.thumb
 488              		.thumb_func
 489              		.type	rf_write_reg, %function
 490              	rf_write_reg:
 491              	.LFB292:
 492              		.loc 1 329 0
 493              		.cfi_startproc
 494              		@ args = 0, pretend = 0, frame = 8
 495              		@ frame_needed = 0, uses_anonymous_args = 0
 496              	.LVL38:
ARM GAS  /tmp/ccLavTdR.s 			page 10


 497 0000 70B5     		push	{r4, r5, r6, lr}
 498              		.cfi_def_cfa_offset 16
 499              		.cfi_offset 4, -16
 500              		.cfi_offset 5, -12
 501              		.cfi_offset 6, -8
 502              		.cfi_offset 14, -4
 503 0002 82B0     		sub	sp, sp, #8
 504              		.cfi_def_cfa_offset 24
 505              		.loc 1 330 0
 506 0004 02AC     		add	r4, sp, #8
 507 0006 40F02000 		orr	r0, r0, #32
 508              	.LVL39:
 509 000a 04F8010D 		strb	r0, [r4, #-1]!
 510              		.loc 1 329 0
 511 000e 0E46     		mov	r6, r1
 512 0010 1546     		mov	r5, r2
 513              		.loc 1 332 0
 514 0012 FFF7FEFF 		bl	spi_sw_begin
 515              	.LVL40:
 516              		.loc 1 333 0
 517 0016 2146     		mov	r1, r4
 518 0018 0020     		movs	r0, #0
 519 001a 0122     		movs	r2, #1
 520 001c FFF7FEFF 		bl	spi_sw_transfer
 521              	.LVL41:
 522              		.loc 1 334 0
 523 0020 3146     		mov	r1, r6
 524 0022 2A46     		mov	r2, r5
 525 0024 0020     		movs	r0, #0
 526 0026 FFF7FEFF 		bl	spi_sw_transfer
 527              	.LVL42:
 528              		.loc 1 335 0
 529 002a FFF7FEFF 		bl	spi_sw_end
 530              	.LVL43:
 531              		.loc 1 336 0
 532 002e 02B0     		add	sp, sp, #8
 533              		@ sp needed
 534 0030 70BD     		pop	{r4, r5, r6, pc}
 535              		.cfi_endproc
 536              	.LFE292:
 537              		.size	rf_write_reg, .-rf_write_reg
 538 0032 00BFAFF3 		.section	.text.rf_set_rx_addr,"ax",%progbits
 538      0080AFF3 
 538      0080AFF3 
 538      0080
 539              		.align	2
 540              		.p2align 4,,15
 541              		.global	rf_set_rx_addr
 542              		.thumb
 543              		.thumb_func
 544              		.type	rf_set_rx_addr, %function
 545              	rf_set_rx_addr:
 546              	.LFB264:
 547              		.loc 1 133 0
 548              		.cfi_startproc
 549              		@ args = 0, pretend = 0, frame = 0
 550              		@ frame_needed = 0, uses_anonymous_args = 0
ARM GAS  /tmp/ccLavTdR.s 			page 11


 551              		@ link register save eliminated.
 552              	.LVL44:
 553              		.loc 1 134 0
 554 0000 0A30     		adds	r0, r0, #10
 555              	.LVL45:
 556 0002 FFF7FEBF 		b	rf_write_reg
 557              	.LVL46:
 558              		.cfi_endproc
 559              	.LFE264:
 560              		.size	rf_set_rx_addr, .-rf_set_rx_addr
 561 0006 00BFAFF3 		.section	.text.rf_set_tx_addr,"ax",%progbits
 561      0080AFF3 
 561      0080
 562              		.align	2
 563              		.p2align 4,,15
 564              		.global	rf_set_tx_addr
 565              		.thumb
 566              		.thumb_func
 567              		.type	rf_set_tx_addr, %function
 568              	rf_set_tx_addr:
 569              	.LFB265:
 570              		.loc 1 137 0
 571              		.cfi_startproc
 572              		@ args = 0, pretend = 0, frame = 0
 573              		@ frame_needed = 0, uses_anonymous_args = 0
 574              		@ link register save eliminated.
 575              	.LVL47:
 576              		.loc 1 137 0
 577 0000 0A46     		mov	r2, r1
 578              		.loc 1 138 0
 579 0002 0146     		mov	r1, r0
 580              	.LVL48:
 581 0004 1020     		movs	r0, #16
 582              	.LVL49:
 583 0006 FFF7FEBF 		b	rf_write_reg
 584              	.LVL50:
 585              		.cfi_endproc
 586              	.LFE265:
 587              		.size	rf_set_tx_addr, .-rf_set_tx_addr
 588 000a 00BFAFF3 		.section	.text.rf_set_address_width,"ax",%progbits
 588      0080
 589              		.align	2
 590              		.p2align 4,,15
 591              		.global	rf_set_address_width
 592              		.thumb
 593              		.thumb_func
 594              		.type	rf_set_address_width, %function
 595              	rf_set_address_width:
 596              	.LFB260:
 597              		.loc 1 78 0
 598              		.cfi_startproc
 599              		@ args = 0, pretend = 0, frame = 8
 600              		@ frame_needed = 0, uses_anonymous_args = 0
 601              	.LVL51:
 602 0000 00B5     		push	{lr}
 603              		.cfi_def_cfa_offset 4
 604              		.cfi_offset 14, -4
ARM GAS  /tmp/ccLavTdR.s 			page 12


 605 0002 83B0     		sub	sp, sp, #12
 606              		.cfi_def_cfa_offset 16
 607 0004 02A9     		add	r1, sp, #8
 608              		.loc 1 79 0
 609 0006 0130     		adds	r0, r0, #1
 610              	.LVL52:
 611 0008 01F8010D 		strb	r0, [r1, #-1]!
 612              	.LVL53:
 613              	.LBB74:
 614              	.LBB75:
 615              		.loc 1 339 0
 616 000c 0122     		movs	r2, #1
 617 000e 0320     		movs	r0, #3
 618 0010 FFF7FEFF 		bl	rf_write_reg
 619              	.LVL54:
 620              	.LBE75:
 621              	.LBE74:
 622              		.loc 1 80 0
 623 0014 03B0     		add	sp, sp, #12
 624              		@ sp needed
 625 0016 5DF804FB 		ldr	pc, [sp], #4
 626              		.cfi_endproc
 627              	.LFE260:
 628              		.size	rf_set_address_width, .-rf_set_address_width
 629 001a 00BFAFF3 		.section	.text.rf_set_frequency,"ax",%progbits
 629      0080
 630              		.align	2
 631              		.p2align 4,,15
 632              		.global	rf_set_frequency
 633              		.thumb
 634              		.thumb_func
 635              		.type	rf_set_frequency, %function
 636              	rf_set_frequency:
 637              	.LFB270:
 638              		.loc 1 181 0
 639              		.cfi_startproc
 640              		@ args = 0, pretend = 0, frame = 8
 641              		@ frame_needed = 0, uses_anonymous_args = 0
 642              	.LVL55:
 643 0000 00B5     		push	{lr}
 644              		.cfi_def_cfa_offset 4
 645              		.cfi_offset 14, -4
 646 0002 83B0     		sub	sp, sp, #12
 647              		.cfi_def_cfa_offset 16
 648 0004 02A9     		add	r1, sp, #8
 649              		.loc 1 182 0
 650 0006 6038     		subs	r0, r0, #96
 651              	.LVL56:
 652 0008 00F07F00 		and	r0, r0, #127
 653              	.LVL57:
 654 000c 01F8010D 		strb	r0, [r1, #-1]!
 655              	.LVL58:
 656              	.LBB76:
 657              	.LBB77:
 658              		.loc 1 339 0
 659 0010 0122     		movs	r2, #1
 660 0012 0520     		movs	r0, #5
ARM GAS  /tmp/ccLavTdR.s 			page 13


 661 0014 FFF7FEFF 		bl	rf_write_reg
 662              	.LVL59:
 663              	.LBE77:
 664              	.LBE76:
 665              		.loc 1 184 0
 666 0018 03B0     		add	sp, sp, #12
 667              		@ sp needed
 668 001a 5DF804FB 		ldr	pc, [sp], #4
 669              		.cfi_endproc
 670              	.LFE270:
 671              		.size	rf_set_frequency, .-rf_set_frequency
 672 001e 00BF     		.section	.text.rf_clear_irq,"ax",%progbits
 673              		.align	2
 674              		.p2align 4,,15
 675              		.global	rf_clear_irq
 676              		.thumb
 677              		.thumb_func
 678              		.type	rf_clear_irq, %function
 679              	rf_clear_irq:
 680              	.LFB284:
 681              		.loc 1 287 0
 682              		.cfi_startproc
 683              		@ args = 0, pretend = 0, frame = 8
 684              		@ frame_needed = 0, uses_anonymous_args = 0
 685              	.LVL60:
 686 0000 00B5     		push	{lr}
 687              		.cfi_def_cfa_offset 4
 688              		.cfi_offset 14, -4
 689 0002 83B0     		sub	sp, sp, #12
 690              		.cfi_def_cfa_offset 16
 691 0004 02A9     		add	r1, sp, #8
 692 0006 7023     		movs	r3, #112
 693 0008 01F8013D 		strb	r3, [r1, #-1]!
 694              	.LVL61:
 695              	.LBB78:
 696              	.LBB79:
 697              		.loc 1 339 0
 698 000c 0720     		movs	r0, #7
 699 000e 0122     		movs	r2, #1
 700 0010 FFF7FEFF 		bl	rf_write_reg
 701              	.LVL62:
 702              	.LBE79:
 703              	.LBE78:
 704              		.loc 1 289 0
 705 0014 03B0     		add	sp, sp, #12
 706              		@ sp needed
 707 0016 5DF804FB 		ldr	pc, [sp], #4
 708              		.cfi_endproc
 709              	.LFE284:
 710              		.size	rf_clear_irq, .-rf_clear_irq
 711 001a 00BFAFF3 		.section	.text.rf_clear_rx_irq,"ax",%progbits
 711      0080
 712              		.align	2
 713              		.p2align 4,,15
 714              		.global	rf_clear_rx_irq
 715              		.thumb
 716              		.thumb_func
ARM GAS  /tmp/ccLavTdR.s 			page 14


 717              		.type	rf_clear_rx_irq, %function
 718              	rf_clear_rx_irq:
 719              	.LFB285:
 720              		.loc 1 291 0
 721              		.cfi_startproc
 722              		@ args = 0, pretend = 0, frame = 8
 723              		@ frame_needed = 0, uses_anonymous_args = 0
 724              	.LVL63:
 725 0000 00B5     		push	{lr}
 726              		.cfi_def_cfa_offset 4
 727              		.cfi_offset 14, -4
 728 0002 83B0     		sub	sp, sp, #12
 729              		.cfi_def_cfa_offset 16
 730 0004 02A9     		add	r1, sp, #8
 731 0006 4023     		movs	r3, #64
 732 0008 01F8013D 		strb	r3, [r1, #-1]!
 733              	.LVL64:
 734              	.LBB80:
 735              	.LBB81:
 736              		.loc 1 339 0
 737 000c 0720     		movs	r0, #7
 738 000e 0122     		movs	r2, #1
 739 0010 FFF7FEFF 		bl	rf_write_reg
 740              	.LVL65:
 741              	.LBE81:
 742              	.LBE80:
 743              		.loc 1 293 0
 744 0014 03B0     		add	sp, sp, #12
 745              		@ sp needed
 746 0016 5DF804FB 		ldr	pc, [sp], #4
 747              		.cfi_endproc
 748              	.LFE285:
 749              		.size	rf_clear_rx_irq, .-rf_clear_rx_irq
 750 001a 00BFAFF3 		.section	.text.rf_clear_tx_irq,"ax",%progbits
 750      0080
 751              		.align	2
 752              		.p2align 4,,15
 753              		.global	rf_clear_tx_irq
 754              		.thumb
 755              		.thumb_func
 756              		.type	rf_clear_tx_irq, %function
 757              	rf_clear_tx_irq:
 758              	.LFB286:
 759              		.loc 1 295 0
 760              		.cfi_startproc
 761              		@ args = 0, pretend = 0, frame = 8
 762              		@ frame_needed = 0, uses_anonymous_args = 0
 763              	.LVL66:
 764 0000 00B5     		push	{lr}
 765              		.cfi_def_cfa_offset 4
 766              		.cfi_offset 14, -4
 767 0002 83B0     		sub	sp, sp, #12
 768              		.cfi_def_cfa_offset 16
 769 0004 02A9     		add	r1, sp, #8
 770 0006 2023     		movs	r3, #32
 771 0008 01F8013D 		strb	r3, [r1, #-1]!
 772              	.LVL67:
ARM GAS  /tmp/ccLavTdR.s 			page 15


 773              	.LBB82:
 774              	.LBB83:
 775              		.loc 1 339 0
 776 000c 0720     		movs	r0, #7
 777 000e 0122     		movs	r2, #1
 778 0010 FFF7FEFF 		bl	rf_write_reg
 779              	.LVL68:
 780              	.LBE83:
 781              	.LBE82:
 782              		.loc 1 297 0
 783 0014 03B0     		add	sp, sp, #12
 784              		@ sp needed
 785 0016 5DF804FB 		ldr	pc, [sp], #4
 786              		.cfi_endproc
 787              	.LFE286:
 788              		.size	rf_clear_tx_irq, .-rf_clear_tx_irq
 789 001a 00BFAFF3 		.section	.text.rf_clear_maxrt_irq,"ax",%progbits
 789      0080
 790              		.align	2
 791              		.p2align 4,,15
 792              		.global	rf_clear_maxrt_irq
 793              		.thumb
 794              		.thumb_func
 795              		.type	rf_clear_maxrt_irq, %function
 796              	rf_clear_maxrt_irq:
 797              	.LFB287:
 798              		.loc 1 299 0
 799              		.cfi_startproc
 800              		@ args = 0, pretend = 0, frame = 8
 801              		@ frame_needed = 0, uses_anonymous_args = 0
 802              	.LVL69:
 803 0000 00B5     		push	{lr}
 804              		.cfi_def_cfa_offset 4
 805              		.cfi_offset 14, -4
 806 0002 83B0     		sub	sp, sp, #12
 807              		.cfi_def_cfa_offset 16
 808 0004 02A9     		add	r1, sp, #8
 809 0006 1023     		movs	r3, #16
 810 0008 01F8013D 		strb	r3, [r1, #-1]!
 811              	.LVL70:
 812              	.LBB84:
 813              	.LBB85:
 814              		.loc 1 339 0
 815 000c 0720     		movs	r0, #7
 816 000e 0122     		movs	r2, #1
 817 0010 FFF7FEFF 		bl	rf_write_reg
 818              	.LVL71:
 819              	.LBE85:
 820              	.LBE84:
 821              		.loc 1 301 0
 822 0014 03B0     		add	sp, sp, #12
 823              		@ sp needed
 824 0016 5DF804FB 		ldr	pc, [sp], #4
 825              		.cfi_endproc
 826              	.LFE287:
 827              		.size	rf_clear_maxrt_irq, .-rf_clear_maxrt_irq
 828 001a 00BFAFF3 		.section	.text.rf_write_reg_byte,"ax",%progbits
ARM GAS  /tmp/ccLavTdR.s 			page 16


 828      0080
 829              		.align	2
 830              		.p2align 4,,15
 831              		.global	rf_write_reg_byte
 832              		.thumb
 833              		.thumb_func
 834              		.type	rf_write_reg_byte, %function
 835              	rf_write_reg_byte:
 836              	.LFB293:
 837              		.loc 1 338 0
 838              		.cfi_startproc
 839              		@ args = 0, pretend = 0, frame = 8
 840              		@ frame_needed = 0, uses_anonymous_args = 0
 841              	.LVL72:
 842 0000 00B5     		push	{lr}
 843              		.cfi_def_cfa_offset 4
 844              		.cfi_offset 14, -4
 845 0002 83B0     		sub	sp, sp, #12
 846              		.cfi_def_cfa_offset 16
 847              		.loc 1 338 0
 848 0004 02AB     		add	r3, sp, #8
 849              		.loc 1 339 0
 850 0006 0122     		movs	r2, #1
 851              		.loc 1 338 0
 852 0008 03F8011D 		strb	r1, [r3, #-1]!
 853              		.loc 1 339 0
 854 000c 1946     		mov	r1, r3
 855              	.LVL73:
 856 000e FFF7FEFF 		bl	rf_write_reg
 857              	.LVL74:
 858              		.loc 1 340 0
 859 0012 03B0     		add	sp, sp, #12
 860              		@ sp needed
 861 0014 5DF804FB 		ldr	pc, [sp], #4
 862              		.cfi_endproc
 863              	.LFE293:
 864              		.size	rf_write_reg_byte, .-rf_write_reg_byte
 865 0018 AFF30080 		.section	.text.rf_read_reg,"ax",%progbits
 865      AFF30080 
 866              		.align	2
 867              		.p2align 4,,15
 868              		.global	rf_read_reg
 869              		.thumb
 870              		.thumb_func
 871              		.type	rf_read_reg, %function
 872              	rf_read_reg:
 873              	.LFB294:
 874              		.loc 1 342 0
 875              		.cfi_startproc
 876              		@ args = 0, pretend = 0, frame = 8
 877              		@ frame_needed = 0, uses_anonymous_args = 0
 878              	.LVL75:
 879 0000 70B5     		push	{r4, r5, r6, lr}
 880              		.cfi_def_cfa_offset 16
 881              		.cfi_offset 4, -16
 882              		.cfi_offset 5, -12
 883              		.cfi_offset 6, -8
ARM GAS  /tmp/ccLavTdR.s 			page 17


 884              		.cfi_offset 14, -4
 885 0002 82B0     		sub	sp, sp, #8
 886              		.cfi_def_cfa_offset 24
 887              		.loc 1 343 0
 888 0004 02AC     		add	r4, sp, #8
 889              		.loc 1 342 0
 890 0006 0E46     		mov	r6, r1
 891              		.loc 1 343 0
 892 0008 04F8010D 		strb	r0, [r4, #-1]!
 893              		.loc 1 342 0
 894 000c 1546     		mov	r5, r2
 895              		.loc 1 345 0
 896 000e FFF7FEFF 		bl	spi_sw_begin
 897              	.LVL76:
 898              		.loc 1 346 0
 899 0012 2146     		mov	r1, r4
 900 0014 0020     		movs	r0, #0
 901 0016 0122     		movs	r2, #1
 902 0018 FFF7FEFF 		bl	spi_sw_transfer
 903              	.LVL77:
 904              		.loc 1 347 0
 905 001c 3046     		mov	r0, r6
 906 001e 2A46     		mov	r2, r5
 907 0020 0021     		movs	r1, #0
 908 0022 FFF7FEFF 		bl	spi_sw_transfer
 909              	.LVL78:
 910              		.loc 1 348 0
 911 0026 FFF7FEFF 		bl	spi_sw_end
 912              	.LVL79:
 913              		.loc 1 349 0
 914 002a 02B0     		add	sp, sp, #8
 915              		@ sp needed
 916 002c 70BD     		pop	{r4, r5, r6, pc}
 917              		.cfi_endproc
 918              	.LFE294:
 919              		.size	rf_read_reg, .-rf_read_reg
 920 002e 00BF     		.section	.text.rf_set_speed,"ax",%progbits
 921              		.align	2
 922              		.p2align 4,,15
 923              		.global	rf_set_speed
 924              		.thumb
 925              		.thumb_func
 926              		.type	rf_set_speed, %function
 927              	rf_set_speed:
 928              	.LFB258:
 929              		.loc 1 33 0
 930              		.cfi_startproc
 931              		@ args = 0, pretend = 0, frame = 8
 932              		@ frame_needed = 0, uses_anonymous_args = 0
 933              	.LVL80:
 934 0000 10B5     		push	{r4, lr}
 935              		.cfi_def_cfa_offset 8
 936              		.cfi_offset 4, -8
 937              		.cfi_offset 14, -4
 938 0002 82B0     		sub	sp, sp, #8
 939              		.cfi_def_cfa_offset 16
 940              	.LBB86:
ARM GAS  /tmp/ccLavTdR.s 			page 18


 941              	.LBB87:
 942              		.loc 1 353 0
 943 0004 0122     		movs	r2, #1
 944              	.LBE87:
 945              	.LBE86:
 946              		.loc 1 33 0
 947 0006 0446     		mov	r4, r0
 948              	.LBB89:
 949              	.LBB88:
 950              		.loc 1 353 0
 951 0008 0DF10701 		add	r1, sp, #7
 952 000c 0620     		movs	r0, #6
 953              	.LVL81:
 954 000e FFF7FEFF 		bl	rf_read_reg
 955              	.LVL82:
 956              		.loc 1 354 0
 957 0012 9DF80720 		ldrb	r2, [sp, #7]	@ zero_extendqisi2
 958              	.LVL83:
 959              	.LBE88:
 960              	.LBE89:
 961              		.loc 1 37 0
 962 0016 02F0D703 		and	r3, r2, #215
 963              	.LVL84:
 964              		.loc 1 39 0
 965 001a 84B1     		cbz	r4, .L25
 966 001c 022C     		cmp	r4, #2
 967 001e 0BD0     		beq	.L26
 968              	.LVL85:
 969              	.L24:
 970              		.loc 1 55 0
 971 0020 9342     		cmp	r3, r2
 972 0022 07D0     		beq	.L23
 973              	.LVL86:
 974              	.LBB90:
 975              	.LBB91:
 976              		.loc 1 339 0
 977 0024 0DF10701 		add	r1, sp, #7
 978 0028 0620     		movs	r0, #6
 979 002a 0122     		movs	r2, #1
 980 002c 8DF80730 		strb	r3, [sp, #7]
 981              	.LVL87:
 982 0030 FFF7FEFF 		bl	rf_write_reg
 983              	.LVL88:
 984              	.L23:
 985              	.LBE91:
 986              	.LBE90:
 987              		.loc 1 58 0
 988 0034 02B0     		add	sp, sp, #8
 989              		@ sp needed
 990 0036 10BD     		pop	{r4, pc}
 991              	.LVL89:
 992              	.L26:
 993              		.loc 1 48 0
 994 0038 43F00803 		orr	r3, r3, #8
 995              	.LVL90:
 996              		.loc 1 49 0
 997 003c F0E7     		b	.L24
ARM GAS  /tmp/ccLavTdR.s 			page 19


 998              	.L25:
 999              		.loc 1 41 0
 1000 003e 43F02003 		orr	r3, r3, #32
 1001              	.LVL91:
 1002              		.loc 1 42 0
 1003 0042 EDE7     		b	.L24
 1004              		.cfi_endproc
 1005              	.LFE258:
 1006              		.size	rf_set_speed, .-rf_set_speed
 1007 0044 AFF30080 		.section	.text.rf_set_power,"ax",%progbits
 1007      AFF30080 
 1007      AFF30080 
 1008              		.align	2
 1009              		.p2align 4,,15
 1010              		.global	rf_set_power
 1011              		.thumb
 1012              		.thumb_func
 1013              		.type	rf_set_power, %function
 1014              	rf_set_power:
 1015              	.LFB259:
 1016              		.loc 1 60 0
 1017              		.cfi_startproc
 1018              		@ args = 0, pretend = 0, frame = 8
 1019              		@ frame_needed = 0, uses_anonymous_args = 0
 1020              	.LVL92:
 1021 0000 10B5     		push	{r4, lr}
 1022              		.cfi_def_cfa_offset 8
 1023              		.cfi_offset 4, -8
 1024              		.cfi_offset 14, -4
 1025 0002 82B0     		sub	sp, sp, #8
 1026              		.cfi_def_cfa_offset 16
 1027              		.loc 1 60 0
 1028 0004 0446     		mov	r4, r0
 1029              	.LBB92:
 1030              	.LBB93:
 1031              		.loc 1 353 0
 1032 0006 0122     		movs	r2, #1
 1033 0008 0DF10701 		add	r1, sp, #7
 1034 000c 0620     		movs	r0, #6
 1035              	.LVL93:
 1036 000e FFF7FEFF 		bl	rf_read_reg
 1037              	.LVL94:
 1038              		.loc 1 354 0
 1039 0012 9DF80720 		ldrb	r2, [sp, #7]	@ zero_extendqisi2
 1040              	.LVL95:
 1041              	.LBE93:
 1042              	.LBE92:
 1043              		.loc 1 64 0
 1044 0016 22F00703 		bic	r3, r2, #7
 1045              		.loc 1 65 0
 1046 001a 43EA4403 		orr	r3, r3, r4, lsl #1
 1047 001e 03F0FE03 		and	r3, r3, #254
 1048              	.LVL96:
 1049              		.loc 1 69 0
 1050 0022 032C     		cmp	r4, #3
 1051              		.loc 1 70 0
 1052 0024 08BF     		it	eq
ARM GAS  /tmp/ccLavTdR.s 			page 20


 1053 0026 43F00103 		orreq	r3, r3, #1
 1054              	.LVL97:
 1055              		.loc 1 73 0
 1056 002a 9342     		cmp	r3, r2
 1057 002c 07D0     		beq	.L29
 1058              	.LVL98:
 1059              	.LBB94:
 1060              	.LBB95:
 1061              		.loc 1 339 0
 1062 002e 0DF10701 		add	r1, sp, #7
 1063 0032 0620     		movs	r0, #6
 1064 0034 0122     		movs	r2, #1
 1065 0036 8DF80730 		strb	r3, [sp, #7]
 1066              	.LVL99:
 1067 003a FFF7FEFF 		bl	rf_write_reg
 1068              	.LVL100:
 1069              	.L29:
 1070              	.LBE95:
 1071              	.LBE94:
 1072              		.loc 1 76 0
 1073 003e 02B0     		add	sp, sp, #8
 1074              		@ sp needed
 1075 0040 10BD     		pop	{r4, pc}
 1076              		.cfi_endproc
 1077              	.LFE259:
 1078              		.size	rf_set_power, .-rf_set_power
 1079 0042 00BFAFF3 		.section	.text.rf_set_crc_type,"ax",%progbits
 1079      0080AFF3 
 1079      0080AFF3 
 1079      0080
 1080              		.align	2
 1081              		.p2align 4,,15
 1082              		.global	rf_set_crc_type
 1083              		.thumb
 1084              		.thumb_func
 1085              		.type	rf_set_crc_type, %function
 1086              	rf_set_crc_type:
 1087              	.LFB261:
 1088              		.loc 1 82 0
 1089              		.cfi_startproc
 1090              		@ args = 0, pretend = 0, frame = 8
 1091              		@ frame_needed = 0, uses_anonymous_args = 0
 1092              	.LVL101:
 1093 0000 10B5     		push	{r4, lr}
 1094              		.cfi_def_cfa_offset 8
 1095              		.cfi_offset 4, -8
 1096              		.cfi_offset 14, -4
 1097 0002 82B0     		sub	sp, sp, #8
 1098              		.cfi_def_cfa_offset 16
 1099              		.loc 1 82 0
 1100 0004 0446     		mov	r4, r0
 1101              	.LBB96:
 1102              	.LBB97:
 1103              		.loc 1 353 0
 1104 0006 0122     		movs	r2, #1
 1105 0008 0DF10701 		add	r1, sp, #7
 1106 000c 0020     		movs	r0, #0
ARM GAS  /tmp/ccLavTdR.s 			page 21


 1107              	.LVL102:
 1108 000e FFF7FEFF 		bl	rf_read_reg
 1109              	.LVL103:
 1110              		.loc 1 354 0
 1111 0012 9DF80720 		ldrb	r2, [sp, #7]	@ zero_extendqisi2
 1112              	.LVL104:
 1113              	.LBE97:
 1114              	.LBE96:
 1115              		.loc 1 88 0
 1116 0016 012C     		cmp	r4, #1
 1117              		.loc 1 86 0
 1118 0018 02F0F303 		and	r3, r2, #243
 1119              	.LVL105:
 1120              		.loc 1 88 0
 1121 001c 10D0     		beq	.L34
 1122 001e 022C     		cmp	r4, #2
 1123 0020 0BD0     		beq	.L35
 1124              	.LVL106:
 1125              	.L33:
 1126              		.loc 1 104 0
 1127 0022 9342     		cmp	r3, r2
 1128 0024 07D0     		beq	.L32
 1129              	.LVL107:
 1130              	.LBB98:
 1131              	.LBB99:
 1132              		.loc 1 339 0
 1133 0026 0DF10701 		add	r1, sp, #7
 1134 002a 0020     		movs	r0, #0
 1135 002c 0122     		movs	r2, #1
 1136 002e 8DF80730 		strb	r3, [sp, #7]
 1137              	.LVL108:
 1138 0032 FFF7FEFF 		bl	rf_write_reg
 1139              	.LVL109:
 1140              	.L32:
 1141              	.LBE99:
 1142              	.LBE98:
 1143              		.loc 1 107 0
 1144 0036 02B0     		add	sp, sp, #8
 1145              		@ sp needed
 1146 0038 10BD     		pop	{r4, pc}
 1147              	.LVL110:
 1148              	.L35:
 1149              		.loc 1 97 0
 1150 003a 43F00C03 		orr	r3, r3, #12
 1151              	.LVL111:
 1152              		.loc 1 98 0
 1153 003e F0E7     		b	.L33
 1154              	.L34:
 1155              		.loc 1 93 0
 1156 0040 43F00803 		orr	r3, r3, #8
 1157              	.LVL112:
 1158              		.loc 1 94 0
 1159 0044 EDE7     		b	.L33
 1160              		.cfi_endproc
 1161              	.LFE261:
 1162              		.size	rf_set_crc_type, .-rf_set_crc_type
 1163 0046 00BFAFF3 		.section	.text.rf_set_retr_retries,"ax",%progbits
ARM GAS  /tmp/ccLavTdR.s 			page 22


 1163      0080AFF3 
 1163      0080
 1164              		.align	2
 1165              		.p2align 4,,15
 1166              		.global	rf_set_retr_retries
 1167              		.thumb
 1168              		.thumb_func
 1169              		.type	rf_set_retr_retries, %function
 1170              	rf_set_retr_retries:
 1171              	.LFB262:
 1172              		.loc 1 109 0
 1173              		.cfi_startproc
 1174              		@ args = 0, pretend = 0, frame = 8
 1175              		@ frame_needed = 0, uses_anonymous_args = 0
 1176              	.LVL113:
 1177 0000 10B5     		push	{r4, lr}
 1178              		.cfi_def_cfa_offset 8
 1179              		.cfi_offset 4, -8
 1180              		.cfi_offset 14, -4
 1181 0002 82B0     		sub	sp, sp, #8
 1182              		.cfi_def_cfa_offset 16
 1183              		.loc 1 109 0
 1184 0004 0446     		mov	r4, r0
 1185              	.LBB100:
 1186              	.LBB101:
 1187              		.loc 1 353 0
 1188 0006 0122     		movs	r2, #1
 1189 0008 0DF10701 		add	r1, sp, #7
 1190 000c 0420     		movs	r0, #4
 1191              	.LVL114:
 1192 000e FFF7FEFF 		bl	rf_read_reg
 1193              	.LVL115:
 1194              		.loc 1 354 0
 1195 0012 9DF80730 		ldrb	r3, [sp, #7]	@ zero_extendqisi2
 1196              	.LVL116:
 1197              	.LBE101:
 1198              	.LBE100:
 1199              		.loc 1 114 0
 1200 0016 04F00F04 		and	r4, r4, #15
 1201              	.LVL117:
 1202              		.loc 1 113 0
 1203 001a 23F00F02 		bic	r2, r3, #15
 1204              		.loc 1 114 0
 1205 001e 1443     		orrs	r4, r4, r2
 1206              	.LVL118:
 1207              		.loc 1 116 0
 1208 0020 9C42     		cmp	r4, r3
 1209 0022 07D0     		beq	.L37
 1210              	.LVL119:
 1211              	.LBB102:
 1212              	.LBB103:
 1213              		.loc 1 339 0
 1214 0024 0DF10701 		add	r1, sp, #7
 1215 0028 0420     		movs	r0, #4
 1216 002a 0122     		movs	r2, #1
 1217 002c 8DF80740 		strb	r4, [sp, #7]
 1218              	.LVL120:
ARM GAS  /tmp/ccLavTdR.s 			page 23


 1219 0030 FFF7FEFF 		bl	rf_write_reg
 1220              	.LVL121:
 1221              	.L37:
 1222              	.LBE103:
 1223              	.LBE102:
 1224              		.loc 1 119 0
 1225 0034 02B0     		add	sp, sp, #8
 1226              		@ sp needed
 1227 0036 10BD     		pop	{r4, pc}
 1228              		.cfi_endproc
 1229              	.LFE262:
 1230              		.size	rf_set_retr_retries, .-rf_set_retr_retries
 1231 0038 AFF30080 		.section	.text.rf_set_retr_delay,"ax",%progbits
 1231      AFF30080 
 1232              		.align	2
 1233              		.p2align 4,,15
 1234              		.global	rf_set_retr_delay
 1235              		.thumb
 1236              		.thumb_func
 1237              		.type	rf_set_retr_delay, %function
 1238              	rf_set_retr_delay:
 1239              	.LFB263:
 1240              		.loc 1 121 0
 1241              		.cfi_startproc
 1242              		@ args = 0, pretend = 0, frame = 8
 1243              		@ frame_needed = 0, uses_anonymous_args = 0
 1244              	.LVL122:
 1245 0000 10B5     		push	{r4, lr}
 1246              		.cfi_def_cfa_offset 8
 1247              		.cfi_offset 4, -8
 1248              		.cfi_offset 14, -4
 1249 0002 82B0     		sub	sp, sp, #8
 1250              		.cfi_def_cfa_offset 16
 1251              		.loc 1 121 0
 1252 0004 0446     		mov	r4, r0
 1253              	.LBB104:
 1254              	.LBB105:
 1255              		.loc 1 353 0
 1256 0006 0122     		movs	r2, #1
 1257 0008 0DF10701 		add	r1, sp, #7
 1258 000c 0420     		movs	r0, #4
 1259              	.LVL123:
 1260 000e FFF7FEFF 		bl	rf_read_reg
 1261              	.LVL124:
 1262              		.loc 1 354 0
 1263 0012 9DF80730 		ldrb	r3, [sp, #7]	@ zero_extendqisi2
 1264              	.LVL125:
 1265              	.LBE105:
 1266              	.LBE104:
 1267              		.loc 1 125 0
 1268 0016 03F00F02 		and	r2, r3, #15
 1269              		.loc 1 126 0
 1270 001a 42EA0414 		orr	r4, r2, r4, lsl #4
 1271 001e E4B2     		uxtb	r4, r4
 1272              	.LVL126:
 1273              		.loc 1 128 0
 1274 0020 9C42     		cmp	r4, r3
ARM GAS  /tmp/ccLavTdR.s 			page 24


 1275 0022 07D0     		beq	.L39
 1276              	.LVL127:
 1277              	.LBB106:
 1278              	.LBB107:
 1279              		.loc 1 339 0
 1280 0024 0DF10701 		add	r1, sp, #7
 1281 0028 0420     		movs	r0, #4
 1282 002a 0122     		movs	r2, #1
 1283 002c 8DF80740 		strb	r4, [sp, #7]
 1284              	.LVL128:
 1285 0030 FFF7FEFF 		bl	rf_write_reg
 1286              	.LVL129:
 1287              	.L39:
 1288              	.LBE107:
 1289              	.LBE106:
 1290              		.loc 1 131 0
 1291 0034 02B0     		add	sp, sp, #8
 1292              		@ sp needed
 1293 0036 10BD     		pop	{r4, pc}
 1294              		.cfi_endproc
 1295              	.LFE263:
 1296              		.size	rf_set_retr_delay, .-rf_set_retr_delay
 1297 0038 AFF30080 		.section	.text.rf_get_frequency,"ax",%progbits
 1297      AFF30080 
 1298              		.align	2
 1299              		.p2align 4,,15
 1300              		.global	rf_get_frequency
 1301              		.thumb
 1302              		.thumb_func
 1303              		.type	rf_get_frequency, %function
 1304              	rf_get_frequency:
 1305              	.LFB271:
 1306              		.loc 1 187 0
 1307              		.cfi_startproc
 1308              		@ args = 0, pretend = 0, frame = 8
 1309              		@ frame_needed = 0, uses_anonymous_args = 0
 1310              	.LVL130:
 1311 0000 00B5     		push	{lr}
 1312              		.cfi_def_cfa_offset 4
 1313              		.cfi_offset 14, -4
 1314 0002 83B0     		sub	sp, sp, #12
 1315              		.cfi_def_cfa_offset 16
 1316              	.LBB108:
 1317              	.LBB109:
 1318              		.loc 1 353 0
 1319 0004 0520     		movs	r0, #5
 1320 0006 0DF10701 		add	r1, sp, #7
 1321 000a 0122     		movs	r2, #1
 1322 000c FFF7FEFF 		bl	rf_read_reg
 1323              	.LVL131:
 1324              		.loc 1 354 0
 1325 0010 9DF80700 		ldrb	r0, [sp, #7]	@ zero_extendqisi2
 1326              	.LBE109:
 1327              	.LBE108:
 1328              		.loc 1 190 0
 1329 0014 00F51660 		add	r0, r0, #2400
 1330 0018 03B0     		add	sp, sp, #12
ARM GAS  /tmp/ccLavTdR.s 			page 25


 1331              		@ sp needed
 1332 001a 5DF804FB 		ldr	pc, [sp], #4
 1333              		.cfi_endproc
 1334              	.LFE271:
 1335              		.size	rf_get_frequency, .-rf_get_frequency
 1336 001e 00BF     		.section	.text.rf_get_address_width,"ax",%progbits
 1337              		.align	2
 1338              		.p2align 4,,15
 1339              		.global	rf_get_address_width
 1340              		.thumb
 1341              		.thumb_func
 1342              		.type	rf_get_address_width, %function
 1343              	rf_get_address_width:
 1344              	.LFB272:
 1345              		.loc 1 192 0
 1346              		.cfi_startproc
 1347              		@ args = 0, pretend = 0, frame = 8
 1348              		@ frame_needed = 0, uses_anonymous_args = 0
 1349              	.LVL132:
 1350 0000 00B5     		push	{lr}
 1351              		.cfi_def_cfa_offset 4
 1352              		.cfi_offset 14, -4
 1353 0002 83B0     		sub	sp, sp, #12
 1354              		.cfi_def_cfa_offset 16
 1355              	.LBB110:
 1356              	.LBB111:
 1357              		.loc 1 353 0
 1358 0004 0320     		movs	r0, #3
 1359 0006 0DF10701 		add	r1, sp, #7
 1360 000a 0122     		movs	r2, #1
 1361 000c FFF7FEFF 		bl	rf_read_reg
 1362              	.LVL133:
 1363              		.loc 1 354 0
 1364 0010 9DF80700 		ldrb	r0, [sp, #7]	@ zero_extendqisi2
 1365              	.LBE111:
 1366              	.LBE110:
 1367              		.loc 1 194 0
 1368 0014 0230     		adds	r0, r0, #2
 1369 0016 03B0     		add	sp, sp, #12
 1370              		@ sp needed
 1371 0018 5DF804FB 		ldr	pc, [sp], #4
 1372              		.cfi_endproc
 1373              	.LFE272:
 1374              		.size	rf_get_address_width, .-rf_get_address_width
 1375 001c AFF30080 		.section	.text.rf_power_up,"ax",%progbits
 1376              		.align	2
 1377              		.p2align 4,,15
 1378              		.global	rf_power_up
 1379              		.thumb
 1380              		.thumb_func
 1381              		.type	rf_power_up, %function
 1382              	rf_power_up:
 1383              	.LFB273:
 1384              		.loc 1 197 0
 1385              		.cfi_startproc
 1386              		@ args = 0, pretend = 0, frame = 8
 1387              		@ frame_needed = 0, uses_anonymous_args = 0
ARM GAS  /tmp/ccLavTdR.s 			page 26


 1388              	.LVL134:
 1389 0000 00B5     		push	{lr}
 1390              		.cfi_def_cfa_offset 4
 1391              		.cfi_offset 14, -4
 1392 0002 83B0     		sub	sp, sp, #12
 1393              		.cfi_def_cfa_offset 16
 1394              	.LBB112:
 1395              	.LBB113:
 1396              		.loc 1 353 0
 1397 0004 0020     		movs	r0, #0
 1398 0006 0122     		movs	r2, #1
 1399 0008 0DF10701 		add	r1, sp, #7
 1400 000c FFF7FEFF 		bl	rf_read_reg
 1401              	.LVL135:
 1402              		.loc 1 354 0
 1403 0010 9DF80720 		ldrb	r2, [sp, #7]	@ zero_extendqisi2
 1404              	.LVL136:
 1405              	.LBE113:
 1406              	.LBE112:
 1407              		.loc 1 199 0
 1408 0014 02F00203 		and	r3, r2, #2
 1409 0018 03F0FF00 		and	r0, r3, #255
 1410 001c 43B9     		cbnz	r3, .L43
 1411              	.LVL137:
 1412              		.loc 1 200 0
 1413 001e 42F00203 		orr	r3, r2, #2
 1414              	.LBB114:
 1415              	.LBB115:
 1416              		.loc 1 339 0
 1417 0022 0DF10701 		add	r1, sp, #7
 1418 0026 0122     		movs	r2, #1
 1419              	.LVL138:
 1420 0028 8DF80730 		strb	r3, [sp, #7]
 1421              	.LVL139:
 1422 002c FFF7FEFF 		bl	rf_write_reg
 1423              	.LVL140:
 1424              	.L43:
 1425              	.LBE115:
 1426              	.LBE114:
 1427              		.loc 1 203 0
 1428 0030 03B0     		add	sp, sp, #12
 1429              		@ sp needed
 1430 0032 5DF804FB 		ldr	pc, [sp], #4
 1431              		.cfi_endproc
 1432              	.LFE273:
 1433              		.size	rf_power_up, .-rf_power_up
 1434 0036 00BFAFF3 		.section	.text.rf_power_down,"ax",%progbits
 1434      0080AFF3 
 1434      0080
 1435              		.align	2
 1436              		.p2align 4,,15
 1437              		.global	rf_power_down
 1438              		.thumb
 1439              		.thumb_func
 1440              		.type	rf_power_down, %function
 1441              	rf_power_down:
 1442              	.LFB274:
ARM GAS  /tmp/ccLavTdR.s 			page 27


 1443              		.loc 1 206 0
 1444              		.cfi_startproc
 1445              		@ args = 0, pretend = 0, frame = 8
 1446              		@ frame_needed = 0, uses_anonymous_args = 0
 1447              	.LVL141:
 1448 0000 00B5     		push	{lr}
 1449              		.cfi_def_cfa_offset 4
 1450              		.cfi_offset 14, -4
 1451 0002 83B0     		sub	sp, sp, #12
 1452              		.cfi_def_cfa_offset 16
 1453              	.LBB116:
 1454              	.LBB117:
 1455              		.loc 1 353 0
 1456 0004 0122     		movs	r2, #1
 1457 0006 0DF10701 		add	r1, sp, #7
 1458 000a 0020     		movs	r0, #0
 1459 000c FFF7FEFF 		bl	rf_read_reg
 1460              	.LVL142:
 1461              		.loc 1 354 0
 1462 0010 9DF80730 		ldrb	r3, [sp, #7]	@ zero_extendqisi2
 1463              	.LVL143:
 1464              	.LBE117:
 1465              	.LBE116:
 1466              		.loc 1 208 0
 1467 0014 9A07     		lsls	r2, r3, #30
 1468 0016 09D5     		bpl	.L45
 1469              	.LVL144:
 1470              		.loc 1 209 0
 1471 0018 23F00203 		bic	r3, r3, #2
 1472              	.LVL145:
 1473              	.LBB118:
 1474              	.LBB119:
 1475              		.loc 1 339 0
 1476 001c 0DF10701 		add	r1, sp, #7
 1477 0020 0020     		movs	r0, #0
 1478 0022 0122     		movs	r2, #1
 1479              	.LBE119:
 1480              	.LBE118:
 1481              		.loc 1 210 0
 1482 0024 8DF80730 		strb	r3, [sp, #7]
 1483              	.LVL146:
 1484              	.LBB121:
 1485              	.LBB120:
 1486              		.loc 1 339 0
 1487 0028 FFF7FEFF 		bl	rf_write_reg
 1488              	.LVL147:
 1489              	.L45:
 1490              	.LBE120:
 1491              	.LBE121:
 1492              		.loc 1 212 0
 1493 002c 03B0     		add	sp, sp, #12
 1494              		@ sp needed
 1495 002e 5DF804FB 		ldr	pc, [sp], #4
 1496              		.cfi_endproc
 1497              	.LFE274:
 1498              		.size	rf_power_down, .-rf_power_down
 1499 0032 00BFAFF3 		.section	.text.rf_mode_tx,"ax",%progbits
ARM GAS  /tmp/ccLavTdR.s 			page 28


 1499      0080AFF3 
 1499      0080AFF3 
 1499      0080
 1500              		.align	2
 1501              		.p2align 4,,15
 1502              		.global	rf_mode_tx
 1503              		.thumb
 1504              		.thumb_func
 1505              		.type	rf_mode_tx, %function
 1506              	rf_mode_tx:
 1507              	.LFB275:
 1508              		.loc 1 215 0
 1509              		.cfi_startproc
 1510              		@ args = 0, pretend = 0, frame = 8
 1511              		@ frame_needed = 0, uses_anonymous_args = 0
 1512              	.LVL148:
 1513 0000 00B5     		push	{lr}
 1514              		.cfi_def_cfa_offset 4
 1515              		.cfi_offset 14, -4
 1516 0002 83B0     		sub	sp, sp, #12
 1517              		.cfi_def_cfa_offset 16
 1518              	.LBB122:
 1519              	.LBB123:
 1520              		.loc 1 353 0
 1521 0004 0122     		movs	r2, #1
 1522 0006 0DF10701 		add	r1, sp, #7
 1523 000a 0020     		movs	r0, #0
 1524 000c FFF7FEFF 		bl	rf_read_reg
 1525              	.LVL149:
 1526              		.loc 1 354 0
 1527 0010 9DF80730 		ldrb	r3, [sp, #7]	@ zero_extendqisi2
 1528              	.LVL150:
 1529              	.LBE123:
 1530              	.LBE122:
 1531              		.loc 1 217 0
 1532 0014 DA07     		lsls	r2, r3, #31
 1533 0016 09D5     		bpl	.L50
 1534              	.LVL151:
 1535              		.loc 1 218 0
 1536 0018 23F00103 		bic	r3, r3, #1
 1537              	.LVL152:
 1538              	.LBB124:
 1539              	.LBB125:
 1540              		.loc 1 339 0
 1541 001c 0DF10701 		add	r1, sp, #7
 1542 0020 0020     		movs	r0, #0
 1543 0022 0122     		movs	r2, #1
 1544              	.LBE125:
 1545              	.LBE124:
 1546              		.loc 1 219 0
 1547 0024 8DF80730 		strb	r3, [sp, #7]
 1548              	.LVL153:
 1549              	.LBB127:
 1550              	.LBB126:
 1551              		.loc 1 339 0
 1552 0028 FFF7FEFF 		bl	rf_write_reg
 1553              	.LVL154:
ARM GAS  /tmp/ccLavTdR.s 			page 29


 1554              	.L50:
 1555              	.LBE126:
 1556              	.LBE127:
 1557              		.loc 1 221 0
 1558 002c 03B0     		add	sp, sp, #12
 1559              		@ sp needed
 1560 002e 5DF804FB 		ldr	pc, [sp], #4
 1561              		.cfi_endproc
 1562              	.LFE275:
 1563              		.size	rf_mode_tx, .-rf_mode_tx
 1564 0032 00BFAFF3 		.section	.text.rf_mode_rx,"ax",%progbits
 1564      0080AFF3 
 1564      0080AFF3 
 1564      0080
 1565              		.align	2
 1566              		.p2align 4,,15
 1567              		.global	rf_mode_rx
 1568              		.thumb
 1569              		.thumb_func
 1570              		.type	rf_mode_rx, %function
 1571              	rf_mode_rx:
 1572              	.LFB276:
 1573              		.loc 1 224 0
 1574              		.cfi_startproc
 1575              		@ args = 0, pretend = 0, frame = 8
 1576              		@ frame_needed = 0, uses_anonymous_args = 0
 1577              	.LVL155:
 1578 0000 00B5     		push	{lr}
 1579              		.cfi_def_cfa_offset 4
 1580              		.cfi_offset 14, -4
 1581 0002 83B0     		sub	sp, sp, #12
 1582              		.cfi_def_cfa_offset 16
 1583              	.LBB128:
 1584              	.LBB129:
 1585              		.loc 1 353 0
 1586 0004 0020     		movs	r0, #0
 1587 0006 0DF10701 		add	r1, sp, #7
 1588 000a 0122     		movs	r2, #1
 1589 000c FFF7FEFF 		bl	rf_read_reg
 1590              	.LVL156:
 1591              		.loc 1 354 0
 1592 0010 9DF80730 		ldrb	r3, [sp, #7]	@ zero_extendqisi2
 1593              	.LVL157:
 1594              	.LBE129:
 1595              	.LBE128:
 1596              		.loc 1 226 0
 1597 0014 13F00100 		ands	r0, r3, #1
 1598 0018 08D1     		bne	.L55
 1599              	.LVL158:
 1600              		.loc 1 227 0
 1601 001a 43F00103 		orr	r3, r3, #1
 1602              	.LVL159:
 1603              	.LBB130:
 1604              	.LBB131:
 1605              		.loc 1 339 0
 1606 001e 0DF10701 		add	r1, sp, #7
 1607              	.LVL160:
ARM GAS  /tmp/ccLavTdR.s 			page 30


 1608 0022 0122     		movs	r2, #1
 1609 0024 8DF80730 		strb	r3, [sp, #7]
 1610              	.LVL161:
 1611 0028 FFF7FEFF 		bl	rf_write_reg
 1612              	.LVL162:
 1613              	.L55:
 1614              	.LBE131:
 1615              	.LBE130:
 1616              		.loc 1 230 0
 1617 002c 03B0     		add	sp, sp, #12
 1618              		@ sp needed
 1619 002e 5DF804FB 		ldr	pc, [sp], #4
 1620              		.cfi_endproc
 1621              	.LFE276:
 1622              		.size	rf_mode_rx, .-rf_mode_rx
 1623 0032 00BFAFF3 		.section	.text.rf_enable_pipe_autoack,"ax",%progbits
 1623      0080AFF3 
 1623      0080AFF3 
 1623      0080
 1624              		.align	2
 1625              		.p2align 4,,15
 1626              		.global	rf_enable_pipe_autoack
 1627              		.thumb
 1628              		.thumb_func
 1629              		.type	rf_enable_pipe_autoack, %function
 1630              	rf_enable_pipe_autoack:
 1631              	.LFB277:
 1632              		.loc 1 233 0
 1633              		.cfi_startproc
 1634              		@ args = 0, pretend = 0, frame = 8
 1635              		@ frame_needed = 0, uses_anonymous_args = 0
 1636              	.LVL163:
 1637 0000 10B5     		push	{r4, lr}
 1638              		.cfi_def_cfa_offset 8
 1639              		.cfi_offset 4, -8
 1640              		.cfi_offset 14, -4
 1641 0002 0446     		mov	r4, r0
 1642 0004 82B0     		sub	sp, sp, #8
 1643              		.cfi_def_cfa_offset 16
 1644              	.LBB132:
 1645              	.LBB133:
 1646              		.loc 1 353 0
 1647 0006 0120     		movs	r0, #1
 1648              	.LVL164:
 1649 0008 0246     		mov	r2, r0
 1650 000a 0DF10701 		add	r1, sp, #7
 1651 000e FFF7FEFF 		bl	rf_read_reg
 1652              	.LVL165:
 1653              		.loc 1 354 0
 1654 0012 9DF80730 		ldrb	r3, [sp, #7]	@ zero_extendqisi2
 1655              	.LVL166:
 1656              	.LBE133:
 1657              	.LBE132:
 1658              		.loc 1 235 0
 1659 0016 04EA0302 		and	r2, r4, r3
 1660 001a A242     		cmp	r2, r4
 1661 001c 08D0     		beq	.L57
ARM GAS  /tmp/ccLavTdR.s 			page 31


 1662              	.LVL167:
 1663              	.LBB134:
 1664              	.LBB135:
 1665              		.loc 1 339 0
 1666 001e 0120     		movs	r0, #1
 1667              	.LBE135:
 1668              	.LBE134:
 1669              		.loc 1 236 0
 1670 0020 1C43     		orrs	r4, r4, r3
 1671              	.LVL168:
 1672              	.LBB138:
 1673              	.LBB136:
 1674              		.loc 1 339 0
 1675 0022 0DF10701 		add	r1, sp, #7
 1676 0026 0246     		mov	r2, r0
 1677              	.LBE136:
 1678              	.LBE138:
 1679              		.loc 1 237 0
 1680 0028 8DF80740 		strb	r4, [sp, #7]
 1681              	.LVL169:
 1682              	.LBB139:
 1683              	.LBB137:
 1684              		.loc 1 339 0
 1685 002c FFF7FEFF 		bl	rf_write_reg
 1686              	.LVL170:
 1687              	.L57:
 1688              	.LBE137:
 1689              	.LBE139:
 1690              		.loc 1 239 0
 1691 0030 02B0     		add	sp, sp, #8
 1692              		@ sp needed
 1693 0032 10BD     		pop	{r4, pc}
 1694              		.cfi_endproc
 1695              	.LFE277:
 1696              		.size	rf_enable_pipe_autoack, .-rf_enable_pipe_autoack
 1697 0034 AFF30080 		.section	.text.rf_enable_pipe_address,"ax",%progbits
 1697      AFF30080 
 1697      AFF30080 
 1698              		.align	2
 1699              		.p2align 4,,15
 1700              		.global	rf_enable_pipe_address
 1701              		.thumb
 1702              		.thumb_func
 1703              		.type	rf_enable_pipe_address, %function
 1704              	rf_enable_pipe_address:
 1705              	.LFB278:
 1706              		.loc 1 242 0
 1707              		.cfi_startproc
 1708              		@ args = 0, pretend = 0, frame = 8
 1709              		@ frame_needed = 0, uses_anonymous_args = 0
 1710              	.LVL171:
 1711 0000 10B5     		push	{r4, lr}
 1712              		.cfi_def_cfa_offset 8
 1713              		.cfi_offset 4, -8
 1714              		.cfi_offset 14, -4
 1715 0002 82B0     		sub	sp, sp, #8
 1716              		.cfi_def_cfa_offset 16
ARM GAS  /tmp/ccLavTdR.s 			page 32


 1717              		.loc 1 242 0
 1718 0004 0446     		mov	r4, r0
 1719              	.LBB140:
 1720              	.LBB141:
 1721              		.loc 1 353 0
 1722 0006 0122     		movs	r2, #1
 1723 0008 0DF10701 		add	r1, sp, #7
 1724 000c 0220     		movs	r0, #2
 1725              	.LVL172:
 1726 000e FFF7FEFF 		bl	rf_read_reg
 1727              	.LVL173:
 1728              		.loc 1 354 0
 1729 0012 9DF80730 		ldrb	r3, [sp, #7]	@ zero_extendqisi2
 1730              	.LVL174:
 1731              	.LBE141:
 1732              	.LBE140:
 1733              		.loc 1 244 0
 1734 0016 04EA0302 		and	r2, r4, r3
 1735 001a A242     		cmp	r2, r4
 1736 001c 08D0     		beq	.L59
 1737              	.LVL175:
 1738              		.loc 1 245 0
 1739 001e 1C43     		orrs	r4, r4, r3
 1740              	.LVL176:
 1741              	.LBB142:
 1742              	.LBB143:
 1743              		.loc 1 339 0
 1744 0020 0DF10701 		add	r1, sp, #7
 1745 0024 0220     		movs	r0, #2
 1746 0026 0122     		movs	r2, #1
 1747              	.LBE143:
 1748              	.LBE142:
 1749              		.loc 1 246 0
 1750 0028 8DF80740 		strb	r4, [sp, #7]
 1751              	.LVL177:
 1752              	.LBB145:
 1753              	.LBB144:
 1754              		.loc 1 339 0
 1755 002c FFF7FEFF 		bl	rf_write_reg
 1756              	.LVL178:
 1757              	.L59:
 1758              	.LBE144:
 1759              	.LBE145:
 1760              		.loc 1 248 0
 1761 0030 02B0     		add	sp, sp, #8
 1762              		@ sp needed
 1763 0032 10BD     		pop	{r4, pc}
 1764              		.cfi_endproc
 1765              	.LFE278:
 1766              		.size	rf_enable_pipe_address, .-rf_enable_pipe_address
 1767 0034 AFF30080 		.section	.text.rf_enable_pipe_dlp,"ax",%progbits
 1767      AFF30080 
 1767      AFF30080 
 1768              		.align	2
 1769              		.p2align 4,,15
 1770              		.global	rf_enable_pipe_dlp
 1771              		.thumb
ARM GAS  /tmp/ccLavTdR.s 			page 33


 1772              		.thumb_func
 1773              		.type	rf_enable_pipe_dlp, %function
 1774              	rf_enable_pipe_dlp:
 1775              	.LFB279:
 1776              		.loc 1 251 0
 1777              		.cfi_startproc
 1778              		@ args = 0, pretend = 0, frame = 8
 1779              		@ frame_needed = 0, uses_anonymous_args = 0
 1780              	.LVL179:
 1781 0000 10B5     		push	{r4, lr}
 1782              		.cfi_def_cfa_offset 8
 1783              		.cfi_offset 4, -8
 1784              		.cfi_offset 14, -4
 1785 0002 82B0     		sub	sp, sp, #8
 1786              		.cfi_def_cfa_offset 16
 1787              		.loc 1 251 0
 1788 0004 0446     		mov	r4, r0
 1789              	.LBB146:
 1790              	.LBB147:
 1791              		.loc 1 353 0
 1792 0006 0122     		movs	r2, #1
 1793 0008 0DF10701 		add	r1, sp, #7
 1794 000c 1C20     		movs	r0, #28
 1795              	.LVL180:
 1796 000e FFF7FEFF 		bl	rf_read_reg
 1797              	.LVL181:
 1798              		.loc 1 354 0
 1799 0012 9DF80730 		ldrb	r3, [sp, #7]	@ zero_extendqisi2
 1800              	.LVL182:
 1801              	.LBE147:
 1802              	.LBE146:
 1803              		.loc 1 253 0
 1804 0016 04EA0302 		and	r2, r4, r3
 1805 001a A242     		cmp	r2, r4
 1806 001c 08D0     		beq	.L61
 1807              	.LVL183:
 1808              		.loc 1 254 0
 1809 001e 1C43     		orrs	r4, r4, r3
 1810              	.LVL184:
 1811              	.LBB148:
 1812              	.LBB149:
 1813              		.loc 1 339 0
 1814 0020 0DF10701 		add	r1, sp, #7
 1815 0024 1C20     		movs	r0, #28
 1816 0026 0122     		movs	r2, #1
 1817              	.LBE149:
 1818              	.LBE148:
 1819              		.loc 1 255 0
 1820 0028 8DF80740 		strb	r4, [sp, #7]
 1821              	.LVL185:
 1822              	.LBB151:
 1823              	.LBB150:
 1824              		.loc 1 339 0
 1825 002c FFF7FEFF 		bl	rf_write_reg
 1826              	.LVL186:
 1827              	.L61:
 1828              	.LBE150:
ARM GAS  /tmp/ccLavTdR.s 			page 34


 1829              	.LBE151:
 1830              		.loc 1 257 0
 1831 0030 02B0     		add	sp, sp, #8
 1832              		@ sp needed
 1833 0032 10BD     		pop	{r4, pc}
 1834              		.cfi_endproc
 1835              	.LFE279:
 1836              		.size	rf_enable_pipe_dlp, .-rf_enable_pipe_dlp
 1837 0034 AFF30080 		.section	.text.rf_enable_features,"ax",%progbits
 1837      AFF30080 
 1837      AFF30080 
 1838              		.align	2
 1839              		.p2align 4,,15
 1840              		.global	rf_enable_features
 1841              		.thumb
 1842              		.thumb_func
 1843              		.type	rf_enable_features, %function
 1844              	rf_enable_features:
 1845              	.LFB280:
 1846              		.loc 1 260 0
 1847              		.cfi_startproc
 1848              		@ args = 0, pretend = 0, frame = 8
 1849              		@ frame_needed = 0, uses_anonymous_args = 0
 1850              	.LVL187:
 1851 0000 10B5     		push	{r4, lr}
 1852              		.cfi_def_cfa_offset 8
 1853              		.cfi_offset 4, -8
 1854              		.cfi_offset 14, -4
 1855 0002 82B0     		sub	sp, sp, #8
 1856              		.cfi_def_cfa_offset 16
 1857              		.loc 1 260 0
 1858 0004 0446     		mov	r4, r0
 1859              	.LBB152:
 1860              	.LBB153:
 1861              		.loc 1 353 0
 1862 0006 0122     		movs	r2, #1
 1863 0008 0DF10701 		add	r1, sp, #7
 1864 000c 1D20     		movs	r0, #29
 1865              	.LVL188:
 1866 000e FFF7FEFF 		bl	rf_read_reg
 1867              	.LVL189:
 1868              		.loc 1 354 0
 1869 0012 9DF80730 		ldrb	r3, [sp, #7]	@ zero_extendqisi2
 1870              	.LVL190:
 1871              	.LBE153:
 1872              	.LBE152:
 1873              		.loc 1 262 0
 1874 0016 04EA0302 		and	r2, r4, r3
 1875 001a A242     		cmp	r2, r4
 1876 001c 08D0     		beq	.L63
 1877              	.LVL191:
 1878              		.loc 1 263 0
 1879 001e 1C43     		orrs	r4, r4, r3
 1880              	.LVL192:
 1881              	.LBB154:
 1882              	.LBB155:
 1883              		.loc 1 339 0
ARM GAS  /tmp/ccLavTdR.s 			page 35


 1884 0020 0DF10701 		add	r1, sp, #7
 1885 0024 1D20     		movs	r0, #29
 1886 0026 0122     		movs	r2, #1
 1887              	.LBE155:
 1888              	.LBE154:
 1889              		.loc 1 264 0
 1890 0028 8DF80740 		strb	r4, [sp, #7]
 1891              	.LVL193:
 1892              	.LBB157:
 1893              	.LBB156:
 1894              		.loc 1 339 0
 1895 002c FFF7FEFF 		bl	rf_write_reg
 1896              	.LVL194:
 1897              	.L63:
 1898              	.LBE156:
 1899              	.LBE157:
 1900              		.loc 1 266 0
 1901 0030 02B0     		add	sp, sp, #8
 1902              		@ sp needed
 1903 0032 10BD     		pop	{r4, pc}
 1904              		.cfi_endproc
 1905              	.LFE280:
 1906              		.size	rf_enable_features, .-rf_enable_features
 1907 0034 AFF30080 		.section	.text.rf_fifo_status,"ax",%progbits
 1907      AFF30080 
 1907      AFF30080 
 1908              		.align	2
 1909              		.p2align 4,,15
 1910              		.global	rf_fifo_status
 1911              		.thumb
 1912              		.thumb_func
 1913              		.type	rf_fifo_status, %function
 1914              	rf_fifo_status:
 1915              	.LFB290:
 1916              		.loc 1 321 0
 1917              		.cfi_startproc
 1918              		@ args = 0, pretend = 0, frame = 8
 1919              		@ frame_needed = 0, uses_anonymous_args = 0
 1920              	.LVL195:
 1921 0000 00B5     		push	{lr}
 1922              		.cfi_def_cfa_offset 4
 1923              		.cfi_offset 14, -4
 1924 0002 83B0     		sub	sp, sp, #12
 1925              		.cfi_def_cfa_offset 16
 1926              	.LBB158:
 1927              	.LBB159:
 1928              		.loc 1 353 0
 1929 0004 1720     		movs	r0, #23
 1930 0006 0DF10701 		add	r1, sp, #7
 1931 000a 0122     		movs	r2, #1
 1932 000c FFF7FEFF 		bl	rf_read_reg
 1933              	.LVL196:
 1934              	.LBE159:
 1935              	.LBE158:
 1936              		.loc 1 323 0
 1937 0010 9DF80700 		ldrb	r0, [sp, #7]	@ zero_extendqisi2
 1938 0014 03B0     		add	sp, sp, #12
ARM GAS  /tmp/ccLavTdR.s 			page 36


 1939              		@ sp needed
 1940 0016 5DF804FB 		ldr	pc, [sp], #4
 1941              		.cfi_endproc
 1942              	.LFE290:
 1943              		.size	rf_fifo_status, .-rf_fifo_status
 1944 001a 00BFAFF3 		.section	.text.rf_rx_power_detect,"ax",%progbits
 1944      0080
 1945              		.align	2
 1946              		.p2align 4,,15
 1947              		.global	rf_rx_power_detect
 1948              		.thumb
 1949              		.thumb_func
 1950              		.type	rf_rx_power_detect, %function
 1951              	rf_rx_power_detect:
 1952              	.LFB291:
 1953              		.loc 1 325 0
 1954              		.cfi_startproc
 1955              		@ args = 0, pretend = 0, frame = 8
 1956              		@ frame_needed = 0, uses_anonymous_args = 0
 1957              	.LVL197:
 1958 0000 00B5     		push	{lr}
 1959              		.cfi_def_cfa_offset 4
 1960              		.cfi_offset 14, -4
 1961 0002 83B0     		sub	sp, sp, #12
 1962              		.cfi_def_cfa_offset 16
 1963              	.LBB160:
 1964              	.LBB161:
 1965              		.loc 1 353 0
 1966 0004 0920     		movs	r0, #9
 1967 0006 0DF10701 		add	r1, sp, #7
 1968 000a 0122     		movs	r2, #1
 1969 000c FFF7FEFF 		bl	rf_read_reg
 1970              	.LVL198:
 1971              		.loc 1 354 0
 1972 0010 9DF80700 		ldrb	r0, [sp, #7]	@ zero_extendqisi2
 1973              	.LBE161:
 1974              	.LBE160:
 1975              		.loc 1 327 0
 1976 0014 4008     		lsrs	r0, r0, #1
 1977 0016 03B0     		add	sp, sp, #12
 1978              		@ sp needed
 1979 0018 5DF804FB 		ldr	pc, [sp], #4
 1980              		.cfi_endproc
 1981              	.LFE291:
 1982              		.size	rf_rx_power_detect, .-rf_rx_power_detect
 1983 001c AFF30080 		.section	.text.rf_read_reg_byte,"ax",%progbits
 1984              		.align	2
 1985              		.p2align 4,,15
 1986              		.global	rf_read_reg_byte
 1987              		.thumb
 1988              		.thumb_func
 1989              		.type	rf_read_reg_byte, %function
 1990              	rf_read_reg_byte:
 1991              	.LFB295:
 1992              		.loc 1 351 0
 1993              		.cfi_startproc
 1994              		@ args = 0, pretend = 0, frame = 8
ARM GAS  /tmp/ccLavTdR.s 			page 37


 1995              		@ frame_needed = 0, uses_anonymous_args = 0
 1996              	.LVL199:
 1997 0000 00B5     		push	{lr}
 1998              		.cfi_def_cfa_offset 4
 1999              		.cfi_offset 14, -4
 2000 0002 83B0     		sub	sp, sp, #12
 2001              		.cfi_def_cfa_offset 16
 2002              		.loc 1 353 0
 2003 0004 0DF10701 		add	r1, sp, #7
 2004 0008 0122     		movs	r2, #1
 2005 000a FFF7FEFF 		bl	rf_read_reg
 2006              	.LVL200:
 2007              		.loc 1 355 0
 2008 000e 9DF80700 		ldrb	r0, [sp, #7]	@ zero_extendqisi2
 2009 0012 03B0     		add	sp, sp, #12
 2010              		@ sp needed
 2011 0014 5DF804FB 		ldr	pc, [sp], #4
 2012              		.cfi_endproc
 2013              	.LFE295:
 2014              		.size	rf_read_reg_byte, .-rf_read_reg_byte
 2015 0018 AFF30080 		.text
 2015      AFF30080 
 2016              	.Letext0:
 2017              		.file 2 "/usr/include/newlib/machine/_default_types.h"
 2018              		.file 3 "/usr/include/newlib/stdint.h"
 2019              		.file 4 "ChibiOS_3.0.2/os/rt/ports/ARMCMx/compilers/GCC/chtypes.h"
 2020              		.file 5 "ChibiOS_3.0.2/os/rt/include/chsystypes.h"
 2021              		.file 6 "ChibiOS_3.0.2/os/rt/include/chschd.h"
 2022              		.file 7 "ChibiOS_3.0.2/os/rt/ports/ARMCMx/chcore.h"
 2023              		.file 8 "ChibiOS_3.0.2/os/rt/ports/ARMCMx/chcore_v7m.h"
 2024              		.file 9 "ChibiOS_3.0.2/os/rt/include/chtm.h"
 2025              		.file 10 "ChibiOS_3.0.2/os/rt/include/chsem.h"
 2026              		.file 11 "ChibiOS_3.0.2/os/rt/include/chmtx.h"
 2027              		.file 12 "./datatypes.h"
 2028              		.file 13 "nrf/spi_sw.h"
 2029              		.file 14 "ChibiOS_3.0.2/os/ext/CMSIS/include/core_cm4.h"