ARM GAS  /tmp/cchld9VU.s 			page 1


   1              		.syntax unified
   2              		.cpu cortex-m4
   3              		.eabi_attribute 27, 3
   4              		.eabi_attribute 28, 1
   5              		.fpu fpv4-sp-d16
   6              		.eabi_attribute 20, 1
   7              		.eabi_attribute 21, 1
   8              		.eabi_attribute 23, 3
   9              		.eabi_attribute 24, 1
  10              		.eabi_attribute 25, 1
  11              		.eabi_attribute 26, 1
  12              		.eabi_attribute 30, 2
  13              		.eabi_attribute 34, 1
  14              		.eabi_attribute 18, 4
  15              		.thumb
  16              		.file	"rfhelp.c"
  17              		.text
  18              	.Ltext0:
  19              		.cfi_sections	.debug_frame
  20              		.section	.text.rfhelp_init,"ax",%progbits
  21              		.align	2
  22              		.p2align 4,,15
  23              		.global	rfhelp_init
  24              		.thumb
  25              		.thumb_func
  26              		.type	rfhelp_init, %function
  27              	rfhelp_init:
  28              	.LFB256:
  29              		.file 1 "nrf/rfhelp.c"
  30              		.loc 1 45 0
  31              		.cfi_startproc
  32              		@ args = 0, pretend = 0, frame = 16
  33              		@ frame_needed = 0, uses_anonymous_args = 0
  34 0000 2DE9F043 		push	{r4, r5, r6, r7, r8, r9, lr}
  35              		.cfi_def_cfa_offset 28
  36              		.cfi_offset 4, -28
  37              		.cfi_offset 5, -24
  38              		.cfi_offset 6, -20
  39              		.cfi_offset 7, -16
  40              		.cfi_offset 8, -12
  41              		.cfi_offset 9, -8
  42              		.cfi_offset 14, -4
  43              		.loc 1 46 0
  44 0004 2C48     		ldr	r0, .L8
  45              		.loc 1 50 0
  46 0006 2D4E     		ldr	r6, .L8+4
  47              		.loc 1 45 0
  48 0008 85B0     		sub	sp, sp, #20
  49              		.cfi_def_cfa_offset 48
  50              		.loc 1 50 0
  51 000a 0324     		movs	r4, #3
  52              		.loc 1 46 0
  53 000c FFF7FEFF 		bl	chMtxObjectInit
  54              	.LVL0:
  55              		.loc 1 47 0
  56 0010 FFF7FEFF 		bl	rf_init
  57              	.LVL1:
ARM GAS  /tmp/cchld9VU.s 			page 2


  58              		.loc 1 59 0
  59 0014 2246     		mov	r2, r4
  60 0016 01A9     		add	r1, sp, #4
  61 0018 1020     		movs	r0, #16
  62              		.loc 1 50 0
  63 001a 3460     		str	r4, [r6]
  64              		.loc 1 59 0
  65 001c FFF7FEFF 		bl	rf_read_reg
  66              	.LVL2:
  67              		.loc 1 60 0
  68 0020 274B     		ldr	r3, .L8+8
  69 0022 1A88     		ldrh	r2, [r3]	@ unaligned
  70 0024 ADF80820 		strh	r2, [sp, #8]	@ unaligned
  71 0028 9B78     		ldrb	r3, [r3, #2]	@ zero_extendqisi2
  72 002a 8DF80A30 		strb	r3, [sp, #10]
  73              		.loc 1 61 0
  74 002e 02A9     		add	r1, sp, #8
  75 0030 2246     		mov	r2, r4
  76 0032 1020     		movs	r0, #16
  77 0034 FFF7FEFF 		bl	rf_write_reg
  78              	.LVL3:
  79              		.loc 1 63 0
  80 0038 2246     		mov	r2, r4
  81 003a 03A9     		add	r1, sp, #12
  82 003c 1020     		movs	r0, #16
  83 003e FFF7FEFF 		bl	rf_read_reg
  84              	.LVL4:
  85              		.loc 1 64 0
  86 0042 01A9     		add	r1, sp, #4
  87 0044 2246     		mov	r2, r4
  88 0046 1020     		movs	r0, #16
  89 0048 FFF7FEFF 		bl	rf_write_reg
  90              	.LVL5:
  91              		.loc 1 66 0
  92 004c 02A8     		add	r0, sp, #8
  93 004e 03A9     		add	r1, sp, #12
  94 0050 2246     		mov	r2, r4
  95 0052 FFF7FEFF 		bl	memcmp
  96              	.LVL6:
  97 0056 48BB     		cbnz	r0, .L7
  98 0058 1A4D     		ldr	r5, .L8+12
  99 005a DFF87890 		ldr	r9, .L8+28
 100              	.LBB2:
 101              		.loc 1 73 0
 102 005e 8046     		mov	r8, r0
 103              	.LBE2:
 104              		.loc 1 66 0
 105 0060 0A24     		movs	r4, #10
 106              	.L5:
 107              	.LVL7:
 108              	.LBB3:
 109              		.loc 1 72 0 discriminator 2
 110 0062 2046     		mov	r0, r4
 111 0064 2946     		mov	r1, r5
 112 0066 3268     		ldr	r2, [r6]
 113 0068 144F     		ldr	r7, .L8+4
 114 006a FFF7FEFF 		bl	rf_read_reg
ARM GAS  /tmp/cchld9VU.s 			page 3


 115              	.LVL8:
 116 006e 09EB0403 		add	r3, r9, r4
 117 0072 0134     		adds	r4, r4, #1
 118              	.LVL9:
 119              		.loc 1 71 0 discriminator 2
 120 0074 102C     		cmp	r4, #16
 121 0076 05F10505 		add	r5, r5, #5
 122              		.loc 1 73 0 discriminator 2
 123 007a 03F80A8C 		strb	r8, [r3, #-10]
 124              	.LVL10:
 125              		.loc 1 71 0 discriminator 2
 126 007e F0D1     		bne	.L5
 127              	.LBE3:
 128              		.loc 1 76 0
 129 0080 2046     		mov	r0, r4
 130 0082 3A68     		ldr	r2, [r7]
 131 0084 1049     		ldr	r1, .L8+16
 132 0086 FFF7FEFF 		bl	rf_read_reg
 133              	.LVL11:
 134              		.loc 1 77 0
 135 008a 3A68     		ldr	r2, [r7]
 136 008c 0E49     		ldr	r1, .L8+16
 137 008e 0D48     		ldr	r0, .L8+12
 138 0090 FFF7FEFF 		bl	memcmp
 139              	.LVL12:
 140 0094 0D4A     		ldr	r2, .L8+20
 141              		.loc 1 82 0
 142 0096 0E4B     		ldr	r3, .L8+24
 143              		.loc 1 77 0
 144 0098 D0F10101 		rsbs	r1, r0, #1
 145 009c 38BF     		it	cc
 146 009e 0021     		movcc	r1, #0
 147              		.loc 1 82 0
 148 00a0 0120     		movs	r0, #1
 149              		.loc 1 77 0
 150 00a2 1170     		strb	r1, [r2]
 151              		.loc 1 82 0
 152 00a4 1870     		strb	r0, [r3]
 153              		.loc 1 85 0
 154 00a6 05B0     		add	sp, sp, #20
 155              		@ sp needed
 156 00a8 BDE8F083 		pop	{r4, r5, r6, r7, r8, r9, pc}
 157              	.L7:
 158              		.loc 1 67 0
 159 00ac FFF7FEFF 		bl	rf_stop
 160              	.LVL13:
 161              		.loc 1 68 0
 162 00b0 0020     		movs	r0, #0
 163              		.loc 1 85 0
 164 00b2 05B0     		add	sp, sp, #20
 165              		@ sp needed
 166 00b4 BDE8F083 		pop	{r4, r5, r6, r7, r8, r9, pc}
 167              	.L9:
 168              		.align	2
 169              	.L8:
 170 00b8 00000000 		.word	.LANCHOR0
 171 00bc 00000000 		.word	.LANCHOR1
ARM GAS  /tmp/cchld9VU.s 			page 4


 172 00c0 00000000 		.word	.LANCHOR2
 173 00c4 00000000 		.word	.LANCHOR3
 174 00c8 00000000 		.word	.LANCHOR5
 175 00cc 00000000 		.word	.LANCHOR6
 176 00d0 00000000 		.word	.LANCHOR7
 177 00d4 00000000 		.word	.LANCHOR4
 178              		.cfi_endproc
 179              	.LFE256:
 180              		.size	rfhelp_init, .-rfhelp_init
 181 00d8 AFF30080 		.section	.text.rfhelp_stop,"ax",%progbits
 181      AFF30080 
 182              		.align	2
 183              		.p2align 4,,15
 184              		.global	rfhelp_stop
 185              		.thumb
 186              		.thumb_func
 187              		.type	rfhelp_stop, %function
 188              	rfhelp_stop:
 189              	.LFB257:
 190              		.loc 1 87 0
 191              		.cfi_startproc
 192              		@ args = 0, pretend = 0, frame = 0
 193              		@ frame_needed = 0, uses_anonymous_args = 0
 194 0000 08B5     		push	{r3, lr}
 195              		.cfi_def_cfa_offset 8
 196              		.cfi_offset 3, -8
 197              		.cfi_offset 14, -4
 198              		.loc 1 88 0
 199 0002 FFF7FEFF 		bl	rf_stop
 200              	.LVL14:
 201              		.loc 1 89 0
 202 0006 024B     		ldr	r3, .L11
 203 0008 0022     		movs	r2, #0
 204 000a 1A70     		strb	r2, [r3]
 205 000c 08BD     		pop	{r3, pc}
 206              	.L12:
 207 000e 00BF     		.align	2
 208              	.L11:
 209 0010 00000000 		.word	.LANCHOR7
 210              		.cfi_endproc
 211              	.LFE257:
 212              		.size	rfhelp_stop, .-rfhelp_stop
 213 0014 AFF30080 		.section	.text.rfhelp_restart,"ax",%progbits
 213      AFF30080 
 213      AFF30080 
 214              		.align	2
 215              		.p2align 4,,15
 216              		.global	rfhelp_restart
 217              		.thumb
 218              		.thumb_func
 219              		.type	rfhelp_restart, %function
 220              	rfhelp_restart:
 221              	.LFB259:
 222              		.loc 1 103 0
 223              		.cfi_startproc
 224              		@ args = 0, pretend = 0, frame = 0
 225              		@ frame_needed = 0, uses_anonymous_args = 0
ARM GAS  /tmp/cchld9VU.s 			page 5


 226 0000 F8B5     		push	{r3, r4, r5, r6, r7, lr}
 227              		.cfi_def_cfa_offset 24
 228              		.cfi_offset 3, -24
 229              		.cfi_offset 4, -20
 230              		.cfi_offset 5, -16
 231              		.cfi_offset 6, -12
 232              		.cfi_offset 7, -8
 233              		.cfi_offset 14, -4
 234              		.loc 1 104 0
 235 0002 2C4F     		ldr	r7, .L14
 236              		.loc 1 114 0
 237 0004 2C4C     		ldr	r4, .L14+4
 238              		.loc 1 131 0
 239 0006 2D4E     		ldr	r6, .L14+8
 240              		.loc 1 128 0
 241 0008 2D4D     		ldr	r5, .L14+12
 242              		.loc 1 104 0
 243 000a 3846     		mov	r0, r7
 244 000c FFF7FEFF 		bl	chMtxLock
 245              	.LVL15:
 246              		.loc 1 106 0
 247 0010 FFF7FEFF 		bl	rf_power_down
 248              	.LVL16:
 249              		.loc 1 111 0
 250 0014 0220     		movs	r0, #2
 251 0016 0021     		movs	r1, #0
 252 0018 FFF7FEFF 		bl	rf_write_reg_byte
 253              	.LVL17:
 254              		.loc 1 112 0
 255 001c 0021     		movs	r1, #0
 256 001e 1C20     		movs	r0, #28
 257 0020 FFF7FEFF 		bl	rf_write_reg_byte
 258              	.LVL18:
 259              		.loc 1 114 0
 260 0024 A078     		ldrb	r0, [r4, #2]	@ zero_extendqisi2
 261 0026 FFF7FEFF 		bl	rf_set_crc_type
 262              	.LVL19:
 263              		.loc 1 115 0
 264 002a 2079     		ldrb	r0, [r4, #4]	@ zero_extendqisi2
 265 002c FFF7FEFF 		bl	rf_set_retr_retries
 266              	.LVL20:
 267              		.loc 1 116 0
 268 0030 E078     		ldrb	r0, [r4, #3]	@ zero_extendqisi2
 269 0032 FFF7FEFF 		bl	rf_set_retr_delay
 270              	.LVL21:
 271              		.loc 1 117 0
 272 0036 6078     		ldrb	r0, [r4, #1]	@ zero_extendqisi2
 273 0038 FFF7FEFF 		bl	rf_set_power
 274              	.LVL22:
 275              		.loc 1 118 0
 276 003c 2078     		ldrb	r0, [r4]	@ zero_extendqisi2
 277 003e FFF7FEFF 		bl	rf_set_speed
 278              	.LVL23:
 279              		.loc 1 119 0
 280 0042 0020     		movs	r0, #0
 281 0044 FFF7FEFF 		bl	rf_set_address_width
 282              	.LVL24:
ARM GAS  /tmp/cchld9VU.s 			page 6


 283              		.loc 1 120 0
 284 0048 6079     		ldrb	r0, [r4, #5]	@ zero_extendqisi2
 285 004a 00F51660 		add	r0, r0, #2400
 286 004e FFF7FEFF 		bl	rf_set_frequency
 287              	.LVL25:
 288              		.loc 1 121 0
 289 0052 0520     		movs	r0, #5
 290 0054 FFF7FEFF 		bl	rf_enable_features
 291              	.LVL26:
 292              		.loc 1 123 0
 293 0058 0120     		movs	r0, #1
 294 005a FFF7FEFF 		bl	rf_enable_pipe_autoack
 295              	.LVL27:
 296              		.loc 1 124 0
 297 005e 0120     		movs	r0, #1
 298 0060 FFF7FEFF 		bl	rf_enable_pipe_address
 299              	.LVL28:
 300              		.loc 1 125 0
 301 0064 0120     		movs	r0, #1
 302 0066 FFF7FEFF 		bl	rf_enable_pipe_dlp
 303              	.LVL29:
 304              		.loc 1 127 0
 305 006a 34F8062F 		ldrh	r2, [r4, #6]!	@ unaligned
 306 006e 154B     		ldr	r3, .L14+16
 307              		.loc 1 129 0
 308 0070 DFF854E0 		ldr	lr, .L14+20
 309              		.loc 1 127 0
 310 0074 A478     		ldrb	r4, [r4, #2]	@ zero_extendqisi2
 311 0076 1A80     		strh	r2, [r3]	@ unaligned
 312              		.loc 1 131 0
 313 0078 1846     		mov	r0, r3
 314              		.loc 1 127 0
 315 007a 9C70     		strb	r4, [r3, #2]
 316              		.loc 1 129 0
 317 007c 4FF0010C 		mov	ip, #1
 318              		.loc 1 131 0
 319 0080 3168     		ldr	r1, [r6]
 320              		.loc 1 129 0
 321 0082 8EF800C0 		strb	ip, [lr]
 322              		.loc 1 128 0
 323 0086 2A80     		strh	r2, [r5]	@ unaligned
 324 0088 AC70     		strb	r4, [r5, #2]
 325              		.loc 1 131 0
 326 008a FFF7FEFF 		bl	rf_set_tx_addr
 327              	.LVL30:
 328              		.loc 1 132 0
 329 008e 2946     		mov	r1, r5
 330 0090 3268     		ldr	r2, [r6]
 331 0092 0020     		movs	r0, #0
 332 0094 FFF7FEFF 		bl	rf_set_rx_addr
 333              	.LVL31:
 334              		.loc 1 134 0
 335 0098 FFF7FEFF 		bl	rf_power_up
 336              	.LVL32:
 337              		.loc 1 135 0
 338 009c FFF7FEFF 		bl	rf_mode_rx
 339              	.LVL33:
ARM GAS  /tmp/cchld9VU.s 			page 7


 340              		.loc 1 136 0
 341 00a0 FFF7FEFF 		bl	rf_flush_all
 342              	.LVL34:
 343              		.loc 1 137 0
 344 00a4 FFF7FEFF 		bl	rf_clear_irq
 345              	.LVL35:
 346              		.loc 1 139 0
 347 00a8 3846     		mov	r0, r7
 348              		.loc 1 140 0
 349 00aa BDE8F840 		pop	{r3, r4, r5, r6, r7, lr}
 350              		.loc 1 139 0
 351 00ae FFF7FEBF 		b	chMtxUnlock
 352              	.LVL36:
 353              	.L15:
 354 00b2 00BF     		.align	2
 355              	.L14:
 356 00b4 00000000 		.word	.LANCHOR0
 357 00b8 00000000 		.word	.LANCHOR8
 358 00bc 00000000 		.word	.LANCHOR1
 359 00c0 00000000 		.word	.LANCHOR3
 360 00c4 00000000 		.word	.LANCHOR5
 361 00c8 00000000 		.word	.LANCHOR6
 362              		.cfi_endproc
 363              	.LFE259:
 364              		.size	rfhelp_restart, .-rfhelp_restart
 365 00cc AFF30080 		.section	.text.rfhelp_update_conf,"ax",%progbits
 366              		.align	2
 367              		.p2align 4,,15
 368              		.global	rfhelp_update_conf
 369              		.thumb
 370              		.thumb_func
 371              		.type	rfhelp_update_conf, %function
 372              	rfhelp_update_conf:
 373              	.LFB258:
 374              		.loc 1 92 0
 375              		.cfi_startproc
 376              		@ args = 0, pretend = 0, frame = 0
 377              		@ frame_needed = 0, uses_anonymous_args = 0
 378              		@ link register save eliminated.
 379              	.LVL37:
 380 0000 30B4     		push	{r4, r5}
 381              		.cfi_def_cfa_offset 8
 382              		.cfi_offset 4, -8
 383              		.cfi_offset 5, -4
 384              		.loc 1 92 0
 385 0002 0246     		mov	r2, r0
 386              		.loc 1 93 0
 387 0004 064B     		ldr	r3, .L19
 388 0006 5168     		ldr	r1, [r2, #4]	@ unaligned
 389 0008 0068     		ldr	r0, [r0]	@ unaligned
 390              	.LVL38:
 391              		.loc 1 95 0
 392 000a 064D     		ldr	r5, .L19+4
 393              		.loc 1 93 0
 394 000c 1489     		ldrh	r4, [r2, #8]	@ unaligned
 395              		.loc 1 95 0
 396 000e 2A78     		ldrb	r2, [r5]	@ zero_extendqisi2
ARM GAS  /tmp/cchld9VU.s 			page 8


 397              	.LVL39:
 398              		.loc 1 93 0
 399 0010 03C3     		stmia	r3!, {r0, r1}
 400 0012 1C80     		strh	r4, [r3]	@ unaligned
 401              		.loc 1 95 0
 402 0014 0AB9     		cbnz	r2, .L18
 403              		.loc 1 98 0
 404 0016 30BC     		pop	{r4, r5}
 405 0018 7047     		bx	lr
 406              	.L18:
 407 001a 30BC     		pop	{r4, r5}
 408              		.loc 1 96 0
 409 001c FFF7FEBF 		b	rfhelp_restart
 410              	.LVL40:
 411              	.L20:
 412              		.align	2
 413              	.L19:
 414 0020 00000000 		.word	.LANCHOR8
 415 0024 00000000 		.word	.LANCHOR7
 416              		.cfi_endproc
 417              	.LFE258:
 418              		.size	rfhelp_update_conf, .-rfhelp_update_conf
 419 0028 AFF30080 		.section	.text.rfhelp_send_data,"ax",%progbits
 419      AFF30080 
 420              		.align	2
 421              		.p2align 4,,15
 422              		.global	rfhelp_send_data
 423              		.thumb
 424              		.thumb_func
 425              		.type	rfhelp_send_data, %function
 426              	rfhelp_send_data:
 427              	.LFB260:
 428              		.loc 1 156 0
 429              		.cfi_startproc
 430              		@ args = 0, pretend = 0, frame = 0
 431              		@ frame_needed = 0, uses_anonymous_args = 0
 432              	.LVL41:
 433 0000 F8B5     		push	{r3, r4, r5, r6, r7, lr}
 434              		.cfi_def_cfa_offset 24
 435              		.cfi_offset 3, -24
 436              		.cfi_offset 4, -20
 437              		.cfi_offset 5, -16
 438              		.cfi_offset 6, -12
 439              		.cfi_offset 7, -8
 440              		.cfi_offset 14, -4
 441              		.loc 1 167 0
 442 0002 264E     		ldr	r6, .L45
 443              		.loc 1 156 0
 444 0004 0546     		mov	r5, r0
 445              		.loc 1 160 0
 446 0006 2648     		ldr	r0, .L45+4
 447              	.LVL42:
 448              		.loc 1 156 0
 449 0008 0C46     		mov	r4, r1
 450 000a 1746     		mov	r7, r2
 451              		.loc 1 160 0
 452 000c FFF7FEFF 		bl	chMtxLock
ARM GAS  /tmp/cchld9VU.s 			page 9


 453              	.LVL43:
 454              		.loc 1 162 0
 455 0010 FFF7FEFF 		bl	rf_mode_tx
 456              	.LVL44:
 457              		.loc 1 163 0
 458 0014 FFF7FEFF 		bl	rf_clear_irq
 459              	.LVL45:
 460              		.loc 1 164 0
 461 0018 FFF7FEFF 		bl	rf_flush_all
 462              	.LVL46:
 463              		.loc 1 167 0
 464 001c 3078     		ldrb	r0, [r6]	@ zero_extendqisi2
 465 001e 18BB     		cbnz	r0, .L22
 466              		.loc 1 167 0 is_stmt 0 discriminator 1
 467 0020 002F     		cmp	r7, #0
 468 0022 30D1     		bne	.L41
 469              	.L23:
 470              		.loc 1 174 0 is_stmt 1
 471 0024 2846     		mov	r0, r5
 472 0026 2146     		mov	r1, r4
 473 0028 FFF7FEFF 		bl	rf_write_tx_payload_no_ack
 474              	.LVL47:
 475              	.L25:
 476              		.loc 1 156 0
 477 002c 3C25     		movs	r5, #60
 478              	.LVL48:
 479 002e 03E0     		b	.L28
 480              	.LVL49:
 481              	.L44:
 482              	.LBB4:
 483              		.loc 1 186 0
 484 0030 E306     		lsls	r3, r4, #27
 485 0032 20D4     		bmi	.L42
 486              		.loc 1 190 0
 487 0034 013D     		subs	r5, r5, #1
 488              	.LVL50:
 489 0036 23D0     		beq	.L43
 490              	.LVL51:
 491              	.L28:
 492              		.loc 1 178 0
 493 0038 FFF7FEFF 		bl	rf_status
 494              	.LVL52:
 495 003c 0446     		mov	r4, r0
 496              	.LVL53:
 497              		.loc 1 180 0
 498 003e 0A20     		movs	r0, #10
 499              	.LVL54:
 500 0040 FFF7FEFF 		bl	chThdSleep
 501              	.LVL55:
 502              		.loc 1 183 0
 503 0044 A206     		lsls	r2, r4, #26
 504 0046 F3D5     		bpl	.L44
 505              		.loc 1 184 0
 506 0048 0024     		movs	r4, #0
 507              	.LVL56:
 508              	.L26:
 509              	.LBE4:
ARM GAS  /tmp/cchld9VU.s 			page 10


 510              		.loc 1 197 0
 511 004a 3078     		ldrb	r0, [r6]	@ zero_extendqisi2
 512 004c 28B9     		cbnz	r0, .L29
 513              		.loc 1 197 0 is_stmt 0 discriminator 1
 514 004e 27B1     		cbz	r7, .L29
 515              		.loc 1 198 0 is_stmt 1
 516 0050 144A     		ldr	r2, .L45+8
 517 0052 1549     		ldr	r1, .L45+12
 518 0054 1268     		ldr	r2, [r2]
 519 0056 FFF7FEFF 		bl	rf_set_rx_addr
 520              	.LVL57:
 521              	.L29:
 522              		.loc 1 201 0
 523 005a FFF7FEFF 		bl	rf_mode_rx
 524              	.LVL58:
 525              		.loc 1 203 0
 526 005e 1048     		ldr	r0, .L45+4
 527 0060 FFF7FEFF 		bl	chMtxUnlock
 528              	.LVL59:
 529              		.loc 1 206 0
 530 0064 2046     		mov	r0, r4
 531 0066 F8BD     		pop	{r3, r4, r5, r6, r7, pc}
 532              	.LVL60:
 533              	.L22:
 534              		.loc 1 171 0
 535 0068 002F     		cmp	r7, #0
 536 006a DBD0     		beq	.L23
 537              		.loc 1 172 0
 538 006c 2846     		mov	r0, r5
 539 006e 2146     		mov	r1, r4
 540 0070 FFF7FEFF 		bl	rf_write_tx_payload
 541              	.LVL61:
 542 0074 DAE7     		b	.L25
 543              	.LVL62:
 544              	.L42:
 545              	.LBB5:
 546              		.loc 1 187 0
 547 0076 FFF7FEFF 		bl	rf_clear_maxrt_irq
 548              	.LVL63:
 549              		.loc 1 188 0
 550 007a 4FF0FF34 		mov	r4, #-1
 551              	.LVL64:
 552              		.loc 1 189 0
 553 007e E4E7     		b	.L26
 554              	.LVL65:
 555              	.L43:
 556              		.loc 1 191 0
 557 0080 6FF00104 		mvn	r4, #1
 558              	.LVL66:
 559 0084 E1E7     		b	.L26
 560              	.LVL67:
 561              	.L41:
 562              	.LBE5:
 563              		.loc 1 168 0
 564 0086 074A     		ldr	r2, .L45+8
 565 0088 0849     		ldr	r1, .L45+16
 566 008a 1268     		ldr	r2, [r2]
ARM GAS  /tmp/cchld9VU.s 			page 11


 567 008c FFF7FEFF 		bl	rf_set_rx_addr
 568              	.LVL68:
 569              		.loc 1 172 0
 570 0090 2846     		mov	r0, r5
 571 0092 2146     		mov	r1, r4
 572 0094 FFF7FEFF 		bl	rf_write_tx_payload
 573              	.LVL69:
 574 0098 C8E7     		b	.L25
 575              	.L46:
 576 009a 00BF     		.align	2
 577              	.L45:
 578 009c 00000000 		.word	.LANCHOR6
 579 00a0 00000000 		.word	.LANCHOR0
 580 00a4 00000000 		.word	.LANCHOR1
 581 00a8 00000000 		.word	.LANCHOR3
 582 00ac 00000000 		.word	.LANCHOR5
 583              		.cfi_endproc
 584              	.LFE260:
 585              		.size	rfhelp_send_data, .-rfhelp_send_data
 586              		.section	.text.rfhelp_send_data_crc,"ax",%progbits
 587              		.align	2
 588              		.p2align 4,,15
 589              		.global	rfhelp_send_data_crc
 590              		.thumb
 591              		.thumb_func
 592              		.type	rfhelp_send_data_crc, %function
 593              	rfhelp_send_data_crc:
 594              	.LFB261:
 595              		.loc 1 224 0
 596              		.cfi_startproc
 597              		@ args = 0, pretend = 0, frame = 0
 598              		@ frame_needed = 1, uses_anonymous_args = 0
 599              	.LVL70:
 600 0000 F8B5     		push	{r3, r4, r5, r6, r7, lr}
 601              		.cfi_def_cfa_offset 24
 602              		.cfi_offset 3, -24
 603              		.cfi_offset 4, -20
 604              		.cfi_offset 5, -16
 605              		.cfi_offset 6, -12
 606              		.cfi_offset 7, -8
 607              		.cfi_offset 14, -4
 608              		.loc 1 225 0
 609 0002 01F10903 		add	r3, r1, #9
 610 0006 23F00703 		bic	r3, r3, #7
 611              		.loc 1 224 0
 612 000a 00AF     		add	r7, sp, #0
 613              		.cfi_def_cfa_register 7
 614              		.loc 1 225 0
 615 000c ADEB030D 		sub	sp, sp, r3
 616              		.loc 1 224 0
 617 0010 0C46     		mov	r4, r1
 618 0012 0646     		mov	r6, r0
 619              		.loc 1 226 0
 620 0014 FFF7FEFF 		bl	crc16
 621              	.LVL71:
 622              		.loc 1 228 0
 623 0018 3146     		mov	r1, r6
ARM GAS  /tmp/cchld9VU.s 			page 12


 624              		.loc 1 226 0
 625 001a 0546     		mov	r5, r0
 626              		.loc 1 228 0
 627 001c 2246     		mov	r2, r4
 628 001e 6846     		mov	r0, sp
 629 0020 FFF7FEFF 		bl	memcpy
 630              	.LVL72:
 631              		.loc 1 230 0
 632 0024 0DEB0403 		add	r3, sp, r4
 633              		.loc 1 232 0
 634 0028 054A     		ldr	r2, .L48
 635              		.loc 1 229 0
 636 002a 2E0A     		lsrs	r6, r5, #8
 637              	.LVL73:
 638 002c 0DF80460 		strb	r6, [sp, r4]
 639              		.loc 1 225 0
 640 0030 A11C     		adds	r1, r4, #2
 641              	.LVL74:
 642              		.loc 1 232 0
 643 0032 6846     		mov	r0, sp
 644 0034 527A     		ldrb	r2, [r2, #9]	@ zero_extendqisi2
 645              		.loc 1 230 0
 646 0036 5D70     		strb	r5, [r3, #1]
 647              		.loc 1 232 0
 648 0038 FFF7FEFF 		bl	rfhelp_send_data
 649              	.LVL75:
 650              		.loc 1 233 0
 651 003c BD46     		mov	sp, r7
 652              	.LVL76:
 653              		@ sp needed
 654 003e F8BD     		pop	{r3, r4, r5, r6, r7, pc}
 655              	.LVL77:
 656              	.L49:
 657              		.align	2
 658              	.L48:
 659 0040 00000000 		.word	.LANCHOR8
 660              		.cfi_endproc
 661              	.LFE261:
 662              		.size	rfhelp_send_data_crc, .-rfhelp_send_data_crc
 663 0044 AFF30080 		.section	.text.rfhelp_read_rx_data,"ax",%progbits
 663      AFF30080 
 663      AFF30080 
 664              		.align	2
 665              		.p2align 4,,15
 666              		.global	rfhelp_read_rx_data
 667              		.thumb
 668              		.thumb_func
 669              		.type	rfhelp_read_rx_data, %function
 670              	rfhelp_read_rx_data:
 671              	.LFB262:
 672              		.loc 1 253 0
 673              		.cfi_startproc
 674              		@ args = 0, pretend = 0, frame = 0
 675              		@ frame_needed = 0, uses_anonymous_args = 0
 676              	.LVL78:
 677 0000 F8B5     		push	{r3, r4, r5, r6, r7, lr}
 678              		.cfi_def_cfa_offset 24
ARM GAS  /tmp/cchld9VU.s 			page 13


 679              		.cfi_offset 3, -24
 680              		.cfi_offset 4, -20
 681              		.cfi_offset 5, -16
 682              		.cfi_offset 6, -12
 683              		.cfi_offset 7, -8
 684              		.cfi_offset 14, -4
 685              		.loc 1 253 0
 686 0002 0746     		mov	r7, r0
 687              		.loc 1 256 0
 688 0004 1648     		ldr	r0, .L58
 689              	.LVL79:
 690              		.loc 1 253 0
 691 0006 0C46     		mov	r4, r1
 692 0008 1646     		mov	r6, r2
 693              		.loc 1 256 0
 694 000a FFF7FEFF 		bl	chMtxLock
 695              	.LVL80:
 696              		.loc 1 258 0
 697 000e FFF7FEFF 		bl	rf_status
 698              	.LVL81:
 699              		.loc 1 259 0
 700 0012 C0F34205 		ubfx	r5, r0, #1, #3
 701              	.LVL82:
 702              		.loc 1 261 0
 703 0016 072D     		cmp	r5, #7
 704 0018 1ED0     		beq	.L54
 705              		.loc 1 262 0
 706 001a FFF7FEFF 		bl	rf_get_payload_width
 707              	.LVL83:
 708 001e 0146     		mov	r1, r0
 709 0020 2060     		str	r0, [r4]
 710              		.loc 1 263 0
 711 0022 0EB1     		cbz	r6, .L52
 712              		.loc 1 264 0
 713 0024 3560     		str	r5, [r6]
 714 0026 2168     		ldr	r1, [r4]
 715              	.L52:
 716              		.loc 1 266 0
 717 0028 2029     		cmp	r1, #32
 718 002a 10D8     		bhi	.L53
 719              		.loc 1 267 0
 720 002c 3846     		mov	r0, r7
 721 002e FFF7FEFF 		bl	rf_read_rx_payload
 722              	.LVL84:
 723              		.loc 1 268 0
 724 0032 FFF7FEFF 		bl	rf_clear_rx_irq
 725              	.LVL85:
 726              		.loc 1 271 0
 727 0036 FFF7FEFF 		bl	rf_status
 728              	.LVL86:
 729              		.loc 1 272 0
 730 003a C0F34200 		ubfx	r0, r0, #1, #3
 731              	.LVL87:
 732 003e C41F     		subs	r4, r0, #7
 733              	.LVL88:
 734 0040 18BF     		it	ne
 735 0042 0124     		movne	r4, #1
ARM GAS  /tmp/cchld9VU.s 			page 14


 736              	.LVL89:
 737              	.L51:
 738              		.loc 1 283 0
 739 0044 0648     		ldr	r0, .L58
 740 0046 FFF7FEFF 		bl	chMtxUnlock
 741              	.LVL90:
 742              		.loc 1 286 0
 743 004a 2046     		mov	r0, r4
 744 004c F8BD     		pop	{r3, r4, r5, r6, r7, pc}
 745              	.LVL91:
 746              	.L53:
 747              		.loc 1 278 0
 748 004e 0023     		movs	r3, #0
 749 0050 2360     		str	r3, [r4]
 750              	.LVL92:
 751              		.loc 1 279 0
 752 0052 6FF00104 		mvn	r4, #1
 753              	.LVL93:
 754 0056 F5E7     		b	.L51
 755              	.LVL94:
 756              	.L54:
 757              		.loc 1 254 0
 758 0058 4FF0FF34 		mov	r4, #-1
 759              	.LVL95:
 760 005c F2E7     		b	.L51
 761              	.L59:
 762 005e 00BF     		.align	2
 763              	.L58:
 764 0060 00000000 		.word	.LANCHOR0
 765              		.cfi_endproc
 766              	.LFE262:
 767              		.size	rfhelp_read_rx_data, .-rfhelp_read_rx_data
 768 0064 AFF30080 		.section	.text.rfhelp_read_rx_data_crc,"ax",%progbits
 768      AFF30080 
 768      AFF30080 
 769              		.align	2
 770              		.p2align 4,,15
 771              		.global	rfhelp_read_rx_data_crc
 772              		.thumb
 773              		.thumb_func
 774              		.type	rfhelp_read_rx_data_crc, %function
 775              	rfhelp_read_rx_data_crc:
 776              	.LFB263:
 777              		.loc 1 308 0
 778              		.cfi_startproc
 779              		@ args = 0, pretend = 0, frame = 0
 780              		@ frame_needed = 0, uses_anonymous_args = 0
 781              	.LVL96:
 782 0000 70B5     		push	{r4, r5, r6, lr}
 783              		.cfi_def_cfa_offset 16
 784              		.cfi_offset 4, -16
 785              		.cfi_offset 5, -12
 786              		.cfi_offset 6, -8
 787              		.cfi_offset 14, -4
 788              		.loc 1 308 0
 789 0002 0C46     		mov	r4, r1
 790 0004 0646     		mov	r6, r0
ARM GAS  /tmp/cchld9VU.s 			page 15


 791              		.loc 1 309 0
 792 0006 FFF7FEFF 		bl	rfhelp_read_rx_data
 793              	.LVL97:
 794              		.loc 1 311 0
 795 000a 051E     		subs	r5, r0, #0
 796 000c 2368     		ldr	r3, [r4]
 797 000e 01DB     		blt	.L62
 798              		.loc 1 311 0 is_stmt 0 discriminator 1
 799 0010 022B     		cmp	r3, #2
 800 0012 03DC     		bgt	.L64
 801              	.L62:
 802              		.loc 1 319 0 is_stmt 1
 803 0014 023B     		subs	r3, r3, #2
 804 0016 2360     		str	r3, [r4]
 805              		.loc 1 322 0
 806 0018 2846     		mov	r0, r5
 807 001a 70BD     		pop	{r4, r5, r6, pc}
 808              	.LVL98:
 809              	.L64:
 810              	.LBB6:
 811              		.loc 1 312 0
 812 001c 991E     		subs	r1, r3, #2
 813 001e 3046     		mov	r0, r6
 814              	.LVL99:
 815 0020 FFF7FEFF 		bl	crc16
 816              	.LVL100:
 817              		.loc 1 314 0
 818 0024 2368     		ldr	r3, [r4]
 819 0026 1E44     		add	r6, r6, r3
 820              	.LVL101:
 821              	.LBE6:
 822              		.loc 1 319 0
 823 0028 023B     		subs	r3, r3, #2
 824              	.LBB7:
 825              		.loc 1 314 0
 826 002a 16F8021C 		ldrb	r1, [r6, #-2]	@ zero_extendqisi2
 827 002e 16F8012C 		ldrb	r2, [r6, #-1]	@ zero_extendqisi2
 828              	.LBE7:
 829              		.loc 1 319 0
 830 0032 2360     		str	r3, [r4]
 831              	.LBB8:
 832              		.loc 1 314 0
 833 0034 42EA0122 		orr	r2, r2, r1, lsl #8
 834 0038 9042     		cmp	r0, r2
 835              		.loc 1 315 0
 836 003a 18BF     		it	ne
 837 003c 6FF00205 		mvnne	r5, #2
 838              	.LVL102:
 839              	.LBE8:
 840              		.loc 1 322 0
 841 0040 2846     		mov	r0, r5
 842              	.LVL103:
 843 0042 70BD     		pop	{r4, r5, r6, pc}
 844              		.cfi_endproc
 845              	.LFE263:
 846              		.size	rfhelp_read_rx_data_crc, .-rfhelp_read_rx_data_crc
 847 0044 AFF30080 		.section	.text.rfhelp_rf_status,"ax",%progbits
ARM GAS  /tmp/cchld9VU.s 			page 16


 847      AFF30080 
 847      AFF30080 
 848              		.align	2
 849              		.p2align 4,,15
 850              		.global	rfhelp_rf_status
 851              		.thumb
 852              		.thumb_func
 853              		.type	rfhelp_rf_status, %function
 854              	rfhelp_rf_status:
 855              	.LFB264:
 856              		.loc 1 324 0
 857              		.cfi_startproc
 858              		@ args = 0, pretend = 0, frame = 0
 859              		@ frame_needed = 0, uses_anonymous_args = 0
 860 0000 38B5     		push	{r3, r4, r5, lr}
 861              		.cfi_def_cfa_offset 16
 862              		.cfi_offset 3, -16
 863              		.cfi_offset 4, -12
 864              		.cfi_offset 5, -8
 865              		.cfi_offset 14, -4
 866              		.loc 1 325 0
 867 0002 064C     		ldr	r4, .L66
 868 0004 2046     		mov	r0, r4
 869 0006 FFF7FEFF 		bl	chMtxLock
 870              	.LVL104:
 871              		.loc 1 326 0
 872 000a FFF7FEFF 		bl	rf_status
 873              	.LVL105:
 874 000e 0546     		mov	r5, r0
 875              	.LVL106:
 876              		.loc 1 327 0
 877 0010 2046     		mov	r0, r4
 878              	.LVL107:
 879 0012 FFF7FEFF 		bl	chMtxUnlock
 880              	.LVL108:
 881              		.loc 1 330 0
 882 0016 2846     		mov	r0, r5
 883 0018 38BD     		pop	{r3, r4, r5, pc}
 884              	.LVL109:
 885              	.L67:
 886 001a 00BF     		.align	2
 887              	.L66:
 888 001c 00000000 		.word	.LANCHOR0
 889              		.cfi_endproc
 890              	.LFE264:
 891              		.size	rfhelp_rf_status, .-rfhelp_rf_status
 892              		.section	.text.rfhelp_set_tx_addr,"ax",%progbits
 893              		.align	2
 894              		.p2align 4,,15
 895              		.global	rfhelp_set_tx_addr
 896              		.thumb
 897              		.thumb_func
 898              		.type	rfhelp_set_tx_addr, %function
 899              	rfhelp_set_tx_addr:
 900              	.LFB265:
 901              		.loc 1 332 0
 902              		.cfi_startproc
ARM GAS  /tmp/cchld9VU.s 			page 17


 903              		@ args = 0, pretend = 0, frame = 0
 904              		@ frame_needed = 0, uses_anonymous_args = 0
 905              	.LVL110:
 906 0000 F8B5     		push	{r3, r4, r5, r6, r7, lr}
 907              		.cfi_def_cfa_offset 24
 908              		.cfi_offset 3, -24
 909              		.cfi_offset 4, -20
 910              		.cfi_offset 5, -16
 911              		.cfi_offset 6, -12
 912              		.cfi_offset 7, -8
 913              		.cfi_offset 14, -4
 914              		.loc 1 333 0
 915 0002 114E     		ldr	r6, .L69
 916              		.loc 1 334 0
 917 0004 114D     		ldr	r5, .L69+4
 918              		.loc 1 332 0
 919 0006 0C46     		mov	r4, r1
 920 0008 0746     		mov	r7, r0
 921              		.loc 1 333 0
 922 000a 3046     		mov	r0, r6
 923              	.LVL111:
 924 000c FFF7FEFF 		bl	chMtxLock
 925              	.LVL112:
 926              		.loc 1 334 0
 927 0010 3946     		mov	r1, r7
 928 0012 2246     		mov	r2, r4
 929 0014 2846     		mov	r0, r5
 930 0016 FFF7FEFF 		bl	memcpy
 931              	.LVL113:
 932              		.loc 1 335 0
 933 001a 0D4B     		ldr	r3, .L69+8
 934              		.loc 1 337 0
 935 001c 0D48     		ldr	r0, .L69+12
 936              		.loc 1 335 0
 937 001e 1C60     		str	r4, [r3]
 938              		.loc 1 337 0
 939 0020 2946     		mov	r1, r5
 940 0022 2246     		mov	r2, r4
 941 0024 FFF7FEFF 		bl	memcmp
 942              	.LVL114:
 943 0028 0B4B     		ldr	r3, .L69+16
 944 002a D0F10102 		rsbs	r2, r0, #1
 945 002e 38BF     		it	cc
 946 0030 0022     		movcc	r2, #0
 947              		.loc 1 339 0
 948 0032 2846     		mov	r0, r5
 949 0034 2146     		mov	r1, r4
 950              		.loc 1 337 0
 951 0036 1A70     		strb	r2, [r3]
 952              		.loc 1 339 0
 953 0038 FFF7FEFF 		bl	rf_set_tx_addr
 954              	.LVL115:
 955              		.loc 1 340 0
 956 003c 3046     		mov	r0, r6
 957              		.loc 1 341 0
 958 003e BDE8F840 		pop	{r3, r4, r5, r6, r7, lr}
 959              	.LVL116:
ARM GAS  /tmp/cchld9VU.s 			page 18


 960              		.loc 1 340 0
 961 0042 FFF7FEBF 		b	chMtxUnlock
 962              	.LVL117:
 963              	.L70:
 964 0046 00BF     		.align	2
 965              	.L69:
 966 0048 00000000 		.word	.LANCHOR0
 967 004c 00000000 		.word	.LANCHOR5
 968 0050 00000000 		.word	.LANCHOR1
 969 0054 00000000 		.word	.LANCHOR3
 970 0058 00000000 		.word	.LANCHOR6
 971              		.cfi_endproc
 972              	.LFE265:
 973              		.size	rfhelp_set_tx_addr, .-rfhelp_set_tx_addr
 974 005c AFF30080 		.section	.text.rfhelp_set_rx_addr,"ax",%progbits
 975              		.align	2
 976              		.p2align 4,,15
 977              		.global	rfhelp_set_rx_addr
 978              		.thumb
 979              		.thumb_func
 980              		.type	rfhelp_set_rx_addr, %function
 981              	rfhelp_set_rx_addr:
 982              	.LFB266:
 983              		.loc 1 343 0
 984              		.cfi_startproc
 985              		@ args = 0, pretend = 0, frame = 0
 986              		@ frame_needed = 0, uses_anonymous_args = 0
 987              	.LVL118:
 988 0000 2DE9F041 		push	{r4, r5, r6, r7, r8, lr}
 989              		.cfi_def_cfa_offset 24
 990              		.cfi_offset 4, -24
 991              		.cfi_offset 5, -20
 992              		.cfi_offset 6, -16
 993              		.cfi_offset 7, -12
 994              		.cfi_offset 8, -8
 995              		.cfi_offset 14, -4
 996              		.loc 1 344 0
 997 0004 DFF86880 		ldr	r8, .L72+20
 998              		.loc 1 345 0
 999 0008 144F     		ldr	r7, .L72
 1000              		.loc 1 343 0
 1001 000a 0546     		mov	r5, r0
 1002              		.loc 1 344 0
 1003 000c 4046     		mov	r0, r8
 1004              	.LVL119:
 1005              		.loc 1 343 0
 1006 000e 1446     		mov	r4, r2
 1007 0010 0E46     		mov	r6, r1
 1008              		.loc 1 344 0
 1009 0012 FFF7FEFF 		bl	chMtxLock
 1010              	.LVL120:
 1011              		.loc 1 345 0
 1012 0016 05EB8500 		add	r0, r5, r5, lsl #2
 1013 001a 3146     		mov	r1, r6
 1014 001c 2246     		mov	r2, r4
 1015 001e 3844     		add	r0, r0, r7
 1016 0020 FFF7FEFF 		bl	memcpy
ARM GAS  /tmp/cchld9VU.s 			page 19


 1017              	.LVL121:
 1018              		.loc 1 346 0
 1019 0024 0E4B     		ldr	r3, .L72+4
 1020              		.loc 1 348 0
 1021 0026 0F49     		ldr	r1, .L72+8
 1022              		.loc 1 346 0
 1023 0028 1C60     		str	r4, [r3]
 1024              		.loc 1 348 0
 1025 002a 2246     		mov	r2, r4
 1026 002c 3846     		mov	r0, r7
 1027 002e FFF7FEFF 		bl	memcmp
 1028              	.LVL122:
 1029 0032 0D4F     		ldr	r7, .L72+12
 1030              		.loc 1 349 0
 1031 0034 0D4B     		ldr	r3, .L72+16
 1032              		.loc 1 348 0
 1033 0036 D0F1010E 		rsbs	lr, r0, #1
 1034 003a 38BF     		it	cc
 1035 003c 4FF0000E 		movcc	lr, #0
 1036              		.loc 1 351 0
 1037 0040 2846     		mov	r0, r5
 1038 0042 3146     		mov	r1, r6
 1039 0044 2246     		mov	r2, r4
 1040              		.loc 1 349 0
 1041 0046 0124     		movs	r4, #1
 1042              	.LVL123:
 1043              		.loc 1 348 0
 1044 0048 87F800E0 		strb	lr, [r7]
 1045              		.loc 1 349 0
 1046 004c 5C55     		strb	r4, [r3, r5]
 1047              		.loc 1 351 0
 1048 004e FFF7FEFF 		bl	rf_set_rx_addr
 1049              	.LVL124:
 1050              		.loc 1 352 0
 1051 0052 4046     		mov	r0, r8
 1052              		.loc 1 353 0
 1053 0054 BDE8F041 		pop	{r4, r5, r6, r7, r8, lr}
 1054              	.LVL125:
 1055              		.loc 1 352 0
 1056 0058 FFF7FEBF 		b	chMtxUnlock
 1057              	.LVL126:
 1058              	.L73:
 1059              		.align	2
 1060              	.L72:
 1061 005c 00000000 		.word	.LANCHOR3
 1062 0060 00000000 		.word	.LANCHOR1
 1063 0064 00000000 		.word	.LANCHOR5
 1064 0068 00000000 		.word	.LANCHOR6
 1065 006c 00000000 		.word	.LANCHOR4
 1066 0070 00000000 		.word	.LANCHOR0
 1067              		.cfi_endproc
 1068              	.LFE266:
 1069              		.size	rfhelp_set_rx_addr, .-rfhelp_set_rx_addr
 1070 0074 AFF30080 		.section	.text.rfhelp_power_down,"ax",%progbits
 1070      AFF30080 
 1070      AFF30080 
 1071              		.align	2
ARM GAS  /tmp/cchld9VU.s 			page 20


 1072              		.p2align 4,,15
 1073              		.global	rfhelp_power_down
 1074              		.thumb
 1075              		.thumb_func
 1076              		.type	rfhelp_power_down, %function
 1077              	rfhelp_power_down:
 1078              	.LFB267:
 1079              		.loc 1 355 0
 1080              		.cfi_startproc
 1081              		@ args = 0, pretend = 0, frame = 0
 1082              		@ frame_needed = 0, uses_anonymous_args = 0
 1083 0000 10B5     		push	{r4, lr}
 1084              		.cfi_def_cfa_offset 8
 1085              		.cfi_offset 4, -8
 1086              		.cfi_offset 14, -4
 1087              		.loc 1 356 0
 1088 0002 054C     		ldr	r4, .L75
 1089 0004 2046     		mov	r0, r4
 1090 0006 FFF7FEFF 		bl	chMtxLock
 1091              	.LVL127:
 1092              		.loc 1 357 0
 1093 000a FFF7FEFF 		bl	rf_power_down
 1094              	.LVL128:
 1095              		.loc 1 358 0
 1096 000e 2046     		mov	r0, r4
 1097              		.loc 1 359 0
 1098 0010 BDE81040 		pop	{r4, lr}
 1099              		.loc 1 358 0
 1100 0014 FFF7FEBF 		b	chMtxUnlock
 1101              	.LVL129:
 1102              	.L76:
 1103              		.align	2
 1104              	.L75:
 1105 0018 00000000 		.word	.LANCHOR0
 1106              		.cfi_endproc
 1107              	.LFE267:
 1108              		.size	rfhelp_power_down, .-rfhelp_power_down
 1109 001c AFF30080 		.section	.text.rfhelp_power_up,"ax",%progbits
 1110              		.align	2
 1111              		.p2align 4,,15
 1112              		.global	rfhelp_power_up
 1113              		.thumb
 1114              		.thumb_func
 1115              		.type	rfhelp_power_up, %function
 1116              	rfhelp_power_up:
 1117              	.LFB268:
 1118              		.loc 1 361 0
 1119              		.cfi_startproc
 1120              		@ args = 0, pretend = 0, frame = 0
 1121              		@ frame_needed = 0, uses_anonymous_args = 0
 1122 0000 10B5     		push	{r4, lr}
 1123              		.cfi_def_cfa_offset 8
 1124              		.cfi_offset 4, -8
 1125              		.cfi_offset 14, -4
 1126              		.loc 1 362 0
 1127 0002 054C     		ldr	r4, .L78
 1128 0004 2046     		mov	r0, r4
ARM GAS  /tmp/cchld9VU.s 			page 21


 1129 0006 FFF7FEFF 		bl	chMtxLock
 1130              	.LVL130:
 1131              		.loc 1 363 0
 1132 000a FFF7FEFF 		bl	rf_power_up
 1133              	.LVL131:
 1134              		.loc 1 364 0
 1135 000e 2046     		mov	r0, r4
 1136              		.loc 1 365 0
 1137 0010 BDE81040 		pop	{r4, lr}
 1138              		.loc 1 364 0
 1139 0014 FFF7FEBF 		b	chMtxUnlock
 1140              	.LVL132:
 1141              	.L79:
 1142              		.align	2
 1143              	.L78:
 1144 0018 00000000 		.word	.LANCHOR0
 1145              		.cfi_endproc
 1146              	.LFE268:
 1147              		.size	rfhelp_power_up, .-rfhelp_power_up
 1148 001c AFF30080 		.section	.rodata
 1149              		.align	2
 1150              		.set	.LANCHOR2,. + 0
 1151              	.LC0:
 1152 0000 12       		.byte	18
 1153 0001 41       		.byte	65
 1154 0002 F3       		.byte	-13
 1155 0003 00       		.section	.bss.init_done,"aw",%nobits
 1156              		.set	.LANCHOR7,. + 0
 1157              		.type	init_done, %object
 1158              		.size	init_done, 1
 1159              	init_done:
 1160 0000 00       		.space	1
 1161              		.section	.bss.tx_addr,"aw",%nobits
 1162              		.align	2
 1163              		.set	.LANCHOR5,. + 0
 1164              		.type	tx_addr, %object
 1165              		.size	tx_addr, 5
 1166              	tx_addr:
 1167 0000 00000000 		.space	5
 1167      00
 1168 0005 000000   		.section	.bss.nrf_conf,"aw",%nobits
 1169              		.align	2
 1170              		.set	.LANCHOR8,. + 0
 1171              		.type	nrf_conf, %object
 1172              		.size	nrf_conf, 10
 1173              	nrf_conf:
 1174 0000 00000000 		.space	10
 1174      00000000 
 1174      0000
 1175 000a 0000     		.section	.bss.rx_addr_set,"aw",%nobits
 1176              		.align	2
 1177              		.set	.LANCHOR4,. + 0
 1178              		.type	rx_addr_set, %object
 1179              		.size	rx_addr_set, 6
 1180              	rx_addr_set:
 1181 0000 00000000 		.space	6
 1181      0000
ARM GAS  /tmp/cchld9VU.s 			page 22


 1182 0006 0000     		.section	.bss.rf_mutex,"aw",%nobits
 1183              		.align	2
 1184              		.set	.LANCHOR0,. + 0
 1185              		.type	rf_mutex, %object
 1186              		.size	rf_mutex, 16
 1187              	rf_mutex:
 1188 0000 00000000 		.space	16
 1188      00000000 
 1188      00000000 
 1188      00000000 
 1189              		.section	.bss.rx_addr,"aw",%nobits
 1190              		.align	2
 1191              		.set	.LANCHOR3,. + 0
 1192              		.type	rx_addr, %object
 1193              		.size	rx_addr, 30
 1194              	rx_addr:
 1195 0000 00000000 		.space	30
 1195      00000000 
 1195      00000000 
 1195      00000000 
 1195      00000000 
 1196 001e 0000     		.section	.bss.address_length,"aw",%nobits
 1197              		.align	2
 1198              		.set	.LANCHOR1,. + 0
 1199              		.type	address_length, %object
 1200              		.size	address_length, 4
 1201              	address_length:
 1202 0000 00000000 		.space	4
 1203              		.section	.bss.tx_pipe0_addr_eq,"aw",%nobits
 1204              		.set	.LANCHOR6,. + 0
 1205              		.type	tx_pipe0_addr_eq, %object
 1206              		.size	tx_pipe0_addr_eq, 1
 1207              	tx_pipe0_addr_eq:
 1208 0000 00       		.space	1
 1209              		.text
 1210              	.Letext0:
 1211              		.file 2 "/usr/include/newlib/machine/_default_types.h"
 1212              		.file 3 "/usr/include/newlib/stdint.h"
 1213              		.file 4 "/usr/lib/gcc/arm-none-eabi/4.8/include/stddef.h"
 1214              		.file 5 "ChibiOS_3.0.2/os/rt/ports/ARMCMx/compilers/GCC/chtypes.h"
 1215              		.file 6 "ChibiOS_3.0.2/os/rt/include/chsystypes.h"
 1216              		.file 7 "ChibiOS_3.0.2/os/rt/include/chschd.h"
 1217              		.file 8 "ChibiOS_3.0.2/os/rt/ports/ARMCMx/chcore.h"
 1218              		.file 9 "ChibiOS_3.0.2/os/rt/ports/ARMCMx/chcore_v7m.h"
 1219              		.file 10 "ChibiOS_3.0.2/os/rt/include/chtm.h"
 1220              		.file 11 "ChibiOS_3.0.2/os/rt/include/chsem.h"
 1221              		.file 12 "ChibiOS_3.0.2/os/rt/include/chmtx.h"
 1222              		.file 13 "./datatypes.h"
 1223              		.file 14 "nrf/rf.h"
 1224              		.file 15 "ChibiOS_3.0.2/os/rt/include/chthreads.h"
 1225              		.file 16 "/usr/include/newlib/string.h"
 1226              		.file 17 "./crc.h"
 1227              		.file 18 "ChibiOS_3.0.2/os/ext/CMSIS/include/core_cm4.h"