ARM GAS  /tmp/ccukb11x.s 			page 1


   1              		.syntax unified
   2              		.cpu cortex-m4
   3              		.eabi_attribute 27, 3
   4              		.eabi_attribute 28, 1
   5              		.fpu fpv4-sp-d16
   6              		.eabi_attribute 20, 1
   7              		.eabi_attribute 21, 1
   8              		.eabi_attribute 23, 3
   9              		.eabi_attribute 24, 1
  10              		.eabi_attribute 25, 1
  11              		.eabi_attribute 26, 1
  12              		.eabi_attribute 30, 2
  13              		.eabi_attribute 34, 1
  14              		.eabi_attribute 18, 4
  15              		.thumb
  16              		.file	"serial_usb.c"
  17              		.text
  18              	.Ltext0:
  19              		.cfi_sections	.debug_frame
  20              		.section	.text.onotify,"ax",%progbits
  21              		.align	2
  22              		.p2align 4,,15
  23              		.thumb
  24              		.thumb_func
  25              		.type	onotify, %function
  26              	onotify:
  27              	.LFB265:
  28              		.file 1 "ChibiOS_3.0.2/os/hal/src/serial_usb.c"
  29              		.loc 1 144 0
  30              		.cfi_startproc
  31              		@ args = 0, pretend = 0, frame = 0
  32              		@ frame_needed = 0, uses_anonymous_args = 0
  33              	.LVL0:
  34 0000 10B5     		push	{r4, lr}
  35              		.cfi_def_cfa_offset 8
  36              		.cfi_offset 4, -8
  37              		.cfi_offset 14, -4
  38              		.loc 1 146 0
  39 0002 046A     		ldr	r4, [r0, #32]
  40              	.LVL1:
  41              		.loc 1 150 0
  42 0004 D4F85422 		ldr	r2, [r4, #596]
  43 0008 1368     		ldr	r3, [r2]
  44 000a 1978     		ldrb	r1, [r3]	@ zero_extendqisi2
  45 000c 0429     		cmp	r1, #4
  46 000e 00D0     		beq	.L7
  47              	.LVL2:
  48              	.L1:
  49 0010 10BD     		pop	{r4, pc}
  50              	.LVL3:
  51              	.L7:
  52              		.loc 1 150 0 is_stmt 0 discriminator 1
  53 0012 217A     		ldrb	r1, [r4, #8]	@ zero_extendqisi2
  54 0014 0229     		cmp	r1, #2
  55 0016 FBD1     		bne	.L1
  56              		.loc 1 157 0 is_stmt 1
  57 0018 1279     		ldrb	r2, [r2, #4]	@ zero_extendqisi2
ARM GAS  /tmp/ccukb11x.s 			page 2


  58 001a 1B89     		ldrh	r3, [r3, #8]
  59 001c 0121     		movs	r1, #1
  60 001e 01FA02F2 		lsl	r2, r1, r2
  61 0022 1A40     		ands	r2, r2, r3
  62 0024 F4D1     		bne	.L1
  63              	.LVL4:
  64              	.LBB200:
  65              	.LBB201:
  66              		.file 2 "ChibiOS_3.0.2/os/rt/include/chqueues.h"
  67              		.loc 2 357 0
  68 0026 E36B     		ldr	r3, [r4, #60]
  69 0028 206C     		ldr	r0, [r4, #64]
  70              	.LVL5:
  71 002a A16B     		ldr	r1, [r4, #56]
  72 002c C01A     		subs	r0, r0, r3
  73              	.LBE201:
  74              	.LBE200:
  75              		.loc 1 158 0
  76 002e 431A     		subs	r3, r0, r1
  77 0030 EED0     		beq	.L1
  78              	.LVL6:
  79              	.LBB202:
  80              	.LBB203:
  81              	.LBB204:
  82              	.LBB205:
  83              	.LBB206:
  84              	.LBB207:
  85              		.file 3 "ChibiOS_3.0.2/os/ext/CMSIS/include/core_cmFunc.h"
  86              		.loc 3 546 0
  87              	@ 546 "ChibiOS_3.0.2/os/ext/CMSIS/include/core_cmFunc.h" 1
  88 0032 82F31188 		MSR basepri, r2
  89              	@ 0 "" 2
  90              		.thumb
  91              	.LBE207:
  92              	.LBE206:
  93              	.LBE205:
  94              	.LBE204:
  95              	.LBE203:
  96              	.LBE202:
  97              		.loc 1 161 0
  98 0036 D4F85422 		ldr	r2, [r4, #596]
  99 003a 1068     		ldr	r0, [r2]
 100 003c 1179     		ldrb	r1, [r2, #4]	@ zero_extendqisi2
 101 003e 04F13002 		add	r2, r4, #48
 102              	.LVL7:
 103 0042 FFF7FEFF 		bl	usbPrepareQueuedTransmit
 104              	.LVL8:
 105              	.LBB208:
 106              	.LBB209:
 107              	.LBB210:
 108              	.LBB211:
 109              	.LBB212:
 110              		.loc 3 546 0
 111 0046 2023     		movs	r3, #32
 112              	@ 546 "ChibiOS_3.0.2/os/ext/CMSIS/include/core_cmFunc.h" 1
 113 0048 83F31188 		MSR basepri, r3
 114              	@ 0 "" 2
ARM GAS  /tmp/ccukb11x.s 			page 3


 115              		.thumb
 116              	.LBE212:
 117              	.LBE211:
 118              	.LBE210:
 119              	.LBE209:
 120              	.LBE208:
 121              		.loc 1 166 0
 122 004c D4F85432 		ldr	r3, [r4, #596]
 123              		.loc 1 169 0
 124 0050 BDE81040 		pop	{r4, lr}
 125              	.LVL9:
 126              		.loc 1 166 0
 127 0054 1868     		ldr	r0, [r3]
 128 0056 1979     		ldrb	r1, [r3, #4]	@ zero_extendqisi2
 129 0058 FFF7FEBF 		b	usbStartTransmitI
 130              	.LVL10:
 131              		.cfi_endproc
 132              	.LFE265:
 133              		.size	onotify, .-onotify
 134 005c AFF30080 		.section	.text.inotify,"ax",%progbits
 135              		.align	2
 136              		.p2align 4,,15
 137              		.thumb
 138              		.thumb_func
 139              		.type	inotify, %function
 140              	inotify:
 141              	.LFB264:
 142              		.loc 1 109 0
 143              		.cfi_startproc
 144              		@ args = 0, pretend = 0, frame = 0
 145              		@ frame_needed = 0, uses_anonymous_args = 0
 146              	.LVL11:
 147 0000 70B5     		push	{r4, r5, r6, lr}
 148              		.cfi_def_cfa_offset 16
 149              		.cfi_offset 4, -16
 150              		.cfi_offset 5, -12
 151              		.cfi_offset 6, -8
 152              		.cfi_offset 14, -4
 153              		.loc 1 111 0
 154 0002 046A     		ldr	r4, [r0, #32]
 155              	.LVL12:
 156              		.loc 1 115 0
 157 0004 D4F85422 		ldr	r2, [r4, #596]
 158 0008 1368     		ldr	r3, [r2]
 159 000a 1978     		ldrb	r1, [r3]	@ zero_extendqisi2
 160 000c 0429     		cmp	r1, #4
 161 000e 00D0     		beq	.L10
 162              	.LVL13:
 163              	.L8:
 164 0010 70BD     		pop	{r4, r5, r6, pc}
 165              	.LVL14:
 166              	.L10:
 167              		.loc 1 115 0 is_stmt 0 discriminator 1
 168 0012 217A     		ldrb	r1, [r4, #8]	@ zero_extendqisi2
 169 0014 0229     		cmp	r1, #2
 170 0016 FBD1     		bne	.L8
 171              		.loc 1 123 0 is_stmt 1
ARM GAS  /tmp/ccukb11x.s 			page 4


 172 0018 5179     		ldrb	r1, [r2, #5]	@ zero_extendqisi2
 173              		.loc 1 124 0
 174 001a 5A89     		ldrh	r2, [r3, #10]
 175              		.loc 1 123 0
 176 001c 03EB8103 		add	r3, r3, r1, lsl #2
 177              		.loc 1 124 0
 178 0020 0120     		movs	r0, #1
 179              	.LVL15:
 180              		.loc 1 123 0
 181 0022 DB68     		ldr	r3, [r3, #12]
 182              		.loc 1 124 0
 183 0024 00FA01F1 		lsl	r1, r0, r1
 184 0028 0A40     		ands	r2, r1, r2
 185              		.loc 1 123 0
 186 002a 5B8A     		ldrh	r3, [r3, #18]
 187              	.LVL16:
 188              		.loc 1 124 0
 189 002c F0D1     		bne	.L8
 190              	.LVL17:
 191              	.LBB213:
 192              	.LBB214:
 193              		.loc 2 290 0
 194 002e E569     		ldr	r5, [r4, #28]
 195 0030 A169     		ldr	r1, [r4, #24]
 196 0032 6669     		ldr	r6, [r4, #20]
 197 0034 681A     		subs	r0, r5, r1
 198 0036 801B     		subs	r0, r0, r6
 199              	.LBE214:
 200              	.LBE213:
 201              		.loc 1 125 0
 202 0038 8342     		cmp	r3, r0
 203 003a E9D8     		bhi	.L8
 204              	.LVL18:
 205              	.LBB215:
 206              	.LBB216:
 207              	.LBB217:
 208              	.LBB218:
 209              	.LBB219:
 210              	.LBB220:
 211              		.loc 3 546 0
 212              	@ 546 "ChibiOS_3.0.2/os/ext/CMSIS/include/core_cmFunc.h" 1
 213 003c 82F31188 		MSR basepri, r2
 214              	@ 0 "" 2
 215              	.LVL19:
 216              		.thumb
 217              	.LBE220:
 218              	.LBE219:
 219              	.LBE218:
 220              	.LBE217:
 221              	.LBE216:
 222              	.LBE215:
 223              		.loc 1 129 0
 224 0040 D4F85422 		ldr	r2, [r4, #596]
 225              		.loc 1 128 0
 226 0044 B0FBF3F0 		udiv	r0, r0, r3
 227              	.LVL20:
 228              		.loc 1 129 0
ARM GAS  /tmp/ccukb11x.s 			page 5


 229 0048 03FB00F3 		mul	r3, r3, r0
 230              	.LVL21:
 231 004c 5179     		ldrb	r1, [r2, #5]	@ zero_extendqisi2
 232 004e 1068     		ldr	r0, [r2]
 233 0050 04F10C02 		add	r2, r4, #12
 234              	.LVL22:
 235 0054 FFF7FEFF 		bl	usbPrepareQueuedReceive
 236              	.LVL23:
 237              	.LBB221:
 238              	.LBB222:
 239              	.LBB223:
 240              	.LBB224:
 241              	.LBB225:
 242              		.loc 3 546 0
 243 0058 2023     		movs	r3, #32
 244              	@ 546 "ChibiOS_3.0.2/os/ext/CMSIS/include/core_cmFunc.h" 1
 245 005a 83F31188 		MSR basepri, r3
 246              	@ 0 "" 2
 247              		.thumb
 248              	.LBE225:
 249              	.LBE224:
 250              	.LBE223:
 251              	.LBE222:
 252              	.LBE221:
 253              		.loc 1 134 0
 254 005e D4F85432 		ldr	r3, [r4, #596]
 255              		.loc 1 137 0
 256 0062 BDE87040 		pop	{r4, r5, r6, lr}
 257              	.LVL24:
 258              		.loc 1 134 0
 259 0066 1868     		ldr	r0, [r3]
 260 0068 5979     		ldrb	r1, [r3, #5]	@ zero_extendqisi2
 261 006a FFF7FEBF 		b	usbStartReceiveI
 262              	.LVL25:
 263              		.cfi_endproc
 264              	.LFE264:
 265              		.size	inotify, .-inotify
 266 006e 00BF     		.section	.text.readt,"ax",%progbits
 267              		.align	2
 268              		.p2align 4,,15
 269              		.thumb
 270              		.thumb_func
 271              		.type	readt, %function
 272              	readt:
 273              	.LFB263:
 274              		.loc 1 94 0
 275              		.cfi_startproc
 276              		@ args = 0, pretend = 0, frame = 0
 277              		@ frame_needed = 0, uses_anonymous_args = 0
 278              		@ link register save eliminated.
 279              	.LVL26:
 280              		.loc 1 96 0
 281 0000 0C30     		adds	r0, r0, #12
 282              	.LVL27:
 283 0002 FFF7FEBF 		b	chIQReadTimeout
 284              	.LVL28:
 285              		.cfi_endproc
ARM GAS  /tmp/ccukb11x.s 			page 6


 286              	.LFE263:
 287              		.size	readt, .-readt
 288 0006 00BFAFF3 		.section	.text.read,"ax",%progbits
 288      0080AFF3 
 288      0080
 289              		.align	2
 290              		.p2align 4,,15
 291              		.thumb
 292              		.thumb_func
 293              		.type	read, %function
 294              	read:
 295              	.LFB257:
 296              		.loc 1 63 0
 297              		.cfi_startproc
 298              		@ args = 0, pretend = 0, frame = 0
 299              		@ frame_needed = 0, uses_anonymous_args = 0
 300              		@ link register save eliminated.
 301              	.LVL29:
 302              		.loc 1 65 0
 303 0000 0C30     		adds	r0, r0, #12
 304              	.LVL30:
 305 0002 4FF0FF33 		mov	r3, #-1
 306 0006 FFF7FEBF 		b	chIQReadTimeout
 307              	.LVL31:
 308              		.cfi_endproc
 309              	.LFE257:
 310              		.size	read, .-read
 311 000a 00BFAFF3 		.section	.text.writet,"ax",%progbits
 311      0080
 312              		.align	2
 313              		.p2align 4,,15
 314              		.thumb
 315              		.thumb_func
 316              		.type	writet, %function
 317              	writet:
 318              	.LFB262:
 319              		.loc 1 89 0
 320              		.cfi_startproc
 321              		@ args = 0, pretend = 0, frame = 0
 322              		@ frame_needed = 0, uses_anonymous_args = 0
 323              		@ link register save eliminated.
 324              	.LVL32:
 325              		.loc 1 91 0
 326 0000 3030     		adds	r0, r0, #48
 327              	.LVL33:
 328 0002 FFF7FEBF 		b	chOQWriteTimeout
 329              	.LVL34:
 330              		.cfi_endproc
 331              	.LFE262:
 332              		.size	writet, .-writet
 333 0006 00BFAFF3 		.section	.text.write,"ax",%progbits
 333      0080AFF3 
 333      0080
 334              		.align	2
 335              		.p2align 4,,15
 336              		.thumb
 337              		.thumb_func
ARM GAS  /tmp/ccukb11x.s 			page 7


 338              		.type	write, %function
 339              	write:
 340              	.LFB256:
 341              		.loc 1 57 0
 342              		.cfi_startproc
 343              		@ args = 0, pretend = 0, frame = 0
 344              		@ frame_needed = 0, uses_anonymous_args = 0
 345              		@ link register save eliminated.
 346              	.LVL35:
 347              		.loc 1 59 0
 348 0000 3030     		adds	r0, r0, #48
 349              	.LVL36:
 350 0002 4FF0FF33 		mov	r3, #-1
 351 0006 FFF7FEBF 		b	chOQWriteTimeout
 352              	.LVL37:
 353              		.cfi_endproc
 354              	.LFE256:
 355              		.size	write, .-write
 356 000a 00BFAFF3 		.section	.text.gett,"ax",%progbits
 356      0080
 357              		.align	2
 358              		.p2align 4,,15
 359              		.thumb
 360              		.thumb_func
 361              		.type	gett, %function
 362              	gett:
 363              	.LFB261:
 364              		.loc 1 84 0
 365              		.cfi_startproc
 366              		@ args = 0, pretend = 0, frame = 0
 367              		@ frame_needed = 0, uses_anonymous_args = 0
 368              		@ link register save eliminated.
 369              	.LVL38:
 370              		.loc 1 86 0
 371 0000 0C30     		adds	r0, r0, #12
 372              	.LVL39:
 373 0002 FFF7FEBF 		b	chIQGetTimeout
 374              	.LVL40:
 375              		.cfi_endproc
 376              	.LFE261:
 377              		.size	gett, .-gett
 378 0006 00BFAFF3 		.section	.text.get,"ax",%progbits
 378      0080AFF3 
 378      0080
 379              		.align	2
 380              		.p2align 4,,15
 381              		.thumb
 382              		.thumb_func
 383              		.type	get, %function
 384              	get:
 385              	.LFB259:
 386              		.loc 1 74 0
 387              		.cfi_startproc
 388              		@ args = 0, pretend = 0, frame = 0
 389              		@ frame_needed = 0, uses_anonymous_args = 0
 390              		@ link register save eliminated.
 391              	.LVL41:
ARM GAS  /tmp/ccukb11x.s 			page 8


 392              		.loc 1 76 0
 393 0000 0C30     		adds	r0, r0, #12
 394              	.LVL42:
 395 0002 4FF0FF31 		mov	r1, #-1
 396 0006 FFF7FEBF 		b	chIQGetTimeout
 397              	.LVL43:
 398              		.cfi_endproc
 399              	.LFE259:
 400              		.size	get, .-get
 401 000a 00BFAFF3 		.section	.text.putt,"ax",%progbits
 401      0080
 402              		.align	2
 403              		.p2align 4,,15
 404              		.thumb
 405              		.thumb_func
 406              		.type	putt, %function
 407              	putt:
 408              	.LFB260:
 409              		.loc 1 79 0
 410              		.cfi_startproc
 411              		@ args = 0, pretend = 0, frame = 0
 412              		@ frame_needed = 0, uses_anonymous_args = 0
 413              		@ link register save eliminated.
 414              	.LVL44:
 415              		.loc 1 81 0
 416 0000 3030     		adds	r0, r0, #48
 417              	.LVL45:
 418 0002 FFF7FEBF 		b	chOQPutTimeout
 419              	.LVL46:
 420              		.cfi_endproc
 421              	.LFE260:
 422              		.size	putt, .-putt
 423 0006 00BFAFF3 		.section	.text.put,"ax",%progbits
 423      0080AFF3 
 423      0080
 424              		.align	2
 425              		.p2align 4,,15
 426              		.thumb
 427              		.thumb_func
 428              		.type	put, %function
 429              	put:
 430              	.LFB258:
 431              		.loc 1 69 0
 432              		.cfi_startproc
 433              		@ args = 0, pretend = 0, frame = 0
 434              		@ frame_needed = 0, uses_anonymous_args = 0
 435              		@ link register save eliminated.
 436              	.LVL47:
 437              		.loc 1 71 0
 438 0000 3030     		adds	r0, r0, #48
 439              	.LVL48:
 440 0002 4FF0FF32 		mov	r2, #-1
 441 0006 FFF7FEBF 		b	chOQPutTimeout
 442              	.LVL49:
 443              		.cfi_endproc
 444              	.LFE258:
 445              		.size	put, .-put
ARM GAS  /tmp/ccukb11x.s 			page 9


 446 000a 00BFAFF3 		.section	.text.sduInit,"ax",%progbits
 446      0080
 447              		.align	2
 448              		.p2align 4,,15
 449              		.global	sduInit
 450              		.thumb
 451              		.thumb_func
 452              		.type	sduInit, %function
 453              	sduInit:
 454              	.LFB266:
 455              		.loc 1 182 0
 456              		.cfi_startproc
 457              		@ args = 0, pretend = 0, frame = 0
 458              		@ frame_needed = 0, uses_anonymous_args = 0
 459              		@ link register save eliminated.
 460 0000 7047     		bx	lr
 461              		.cfi_endproc
 462              	.LFE266:
 463              		.size	sduInit, .-sduInit
 464 0002 00BFAFF3 		.section	.text.sduObjectInit,"ax",%progbits
 464      0080AFF3 
 464      0080AFF3 
 464      0080
 465              		.align	2
 466              		.p2align 4,,15
 467              		.global	sduObjectInit
 468              		.thumb
 469              		.thumb_func
 470              		.type	sduObjectInit, %function
 471              	sduObjectInit:
 472              	.LFB267:
 473              		.loc 1 194 0
 474              		.cfi_startproc
 475              		@ args = 0, pretend = 0, frame = 0
 476              		@ frame_needed = 0, uses_anonymous_args = 0
 477              	.LVL50:
 478              		.loc 1 194 0
 479 0000 10B5     		push	{r4, lr}
 480              		.cfi_def_cfa_offset 8
 481              		.cfi_offset 4, -8
 482              		.cfi_offset 14, -4
 483              		.loc 1 196 0
 484 0002 0346     		mov	r3, r0
 485 0004 0E4A     		ldr	r2, .L21
 486 0006 43F8042B 		str	r2, [r3], #4
 487              	.LVL51:
 488              		.loc 1 194 0
 489 000a 82B0     		sub	sp, sp, #8
 490              		.cfi_def_cfa_offset 16
 491              		.loc 1 194 0
 492 000c 0446     		mov	r4, r0
 493              		.loc 1 198 0
 494 000e 0122     		movs	r2, #1
 495              		.loc 1 199 0
 496 0010 0090     		str	r0, [sp]
 497 0012 04F15401 		add	r1, r4, #84
 498              	.LBB226:
ARM GAS  /tmp/ccukb11x.s 			page 10


 499              	.LBB227:
 500              	.LBB228:
 501              		.file 4 "ChibiOS_3.0.2/os/rt/include/chevents.h"
 502              		.loc 4 172 0
 503 0016 4360     		str	r3, [r0, #4]
 504              	.LBE228:
 505              	.LBE227:
 506              	.LBE226:
 507              		.loc 1 198 0
 508 0018 0272     		strb	r2, [r0, #8]
 509              		.loc 1 199 0
 510 001a 0A4B     		ldr	r3, .L21+4
 511              	.LVL52:
 512 001c 0C30     		adds	r0, r0, #12
 513              	.LVL53:
 514 001e 4FF48072 		mov	r2, #256
 515 0022 FFF7FEFF 		bl	chIQObjectInit
 516              	.LVL54:
 517              		.loc 1 200 0
 518 0026 0094     		str	r4, [sp]
 519 0028 04F13000 		add	r0, r4, #48
 520 002c 04F5AA71 		add	r1, r4, #340
 521 0030 4FF48072 		mov	r2, #256
 522 0034 044B     		ldr	r3, .L21+8
 523 0036 FFF7FEFF 		bl	chOQObjectInit
 524              	.LVL55:
 525              		.loc 1 201 0
 526 003a 02B0     		add	sp, sp, #8
 527              		@ sp needed
 528 003c 10BD     		pop	{r4, pc}
 529              	.LVL56:
 530              	.L22:
 531 003e 00BF     		.align	2
 532              	.L21:
 533 0040 00000000 		.word	.LANCHOR0
 534 0044 00000000 		.word	inotify
 535 0048 00000000 		.word	onotify
 536              		.cfi_endproc
 537              	.LFE267:
 538              		.size	sduObjectInit, .-sduObjectInit
 539 004c AFF30080 		.section	.text.sduStart,"ax",%progbits
 540              		.align	2
 541              		.p2align 4,,15
 542              		.global	sduStart
 543              		.thumb
 544              		.thumb_func
 545              		.type	sduStart, %function
 546              	sduStart:
 547              	.LFB268:
 548              		.loc 1 211 0
 549              		.cfi_startproc
 550              		@ args = 0, pretend = 0, frame = 0
 551              		@ frame_needed = 0, uses_anonymous_args = 0
 552              		@ link register save eliminated.
 553              	.LVL57:
 554              		.loc 1 212 0
 555 0000 0B68     		ldr	r3, [r1]
ARM GAS  /tmp/ccukb11x.s 			page 11


 556              	.LVL58:
 557              	.LBB229:
 558              	.LBB230:
 559              	.LBB231:
 560              	.LBB232:
 561              	.LBB233:
 562              		.loc 3 546 0
 563 0002 2022     		movs	r2, #32
 564              	@ 546 "ChibiOS_3.0.2/os/ext/CMSIS/include/core_cmFunc.h" 1
 565 0004 82F31188 		MSR basepri, r2
 566              	@ 0 "" 2
 567              		.thumb
 568              	.LBE233:
 569              	.LBE232:
 570              	.LBE231:
 571              	.LBE230:
 572              	.LBE229:
 573              		.loc 1 219 0
 574 0008 0A79     		ldrb	r2, [r1, #4]	@ zero_extendqisi2
 575 000a 03EB8202 		add	r2, r3, r2, lsl #2
 576 000e 9061     		str	r0, [r2, #24]
 577              		.loc 1 220 0
 578 0010 4A79     		ldrb	r2, [r1, #5]	@ zero_extendqisi2
 579 0012 0932     		adds	r2, r2, #9
 580 0014 43F82200 		str	r0, [r3, r2, lsl #2]
 581              		.loc 1 221 0
 582 0018 8A79     		ldrb	r2, [r1, #6]	@ zero_extendqisi2
 583 001a 12B1     		cbz	r2, .L24
 584              		.loc 1 222 0
 585 001c 03EB8203 		add	r3, r3, r2, lsl #2
 586              	.LVL59:
 587 0020 9861     		str	r0, [r3, #24]
 588              	.L24:
 589              		.loc 1 225 0
 590 0022 0223     		movs	r3, #2
 591 0024 0372     		strb	r3, [r0, #8]
 592              	.LVL60:
 593              		.loc 1 224 0
 594 0026 C0F85412 		str	r1, [r0, #596]
 595              	.LBB234:
 596              	.LBB235:
 597              	.LBB236:
 598              	.LBB237:
 599              	.LBB238:
 600              	.LBB239:
 601              		.loc 3 546 0
 602 002a 0023     		movs	r3, #0
 603              	@ 546 "ChibiOS_3.0.2/os/ext/CMSIS/include/core_cmFunc.h" 1
 604 002c 83F31188 		MSR basepri, r3
 605              	@ 0 "" 2
 606              		.thumb
 607 0030 7047     		bx	lr
 608              	.LBE239:
 609              	.LBE238:
 610              	.LBE237:
 611              	.LBE236:
 612              	.LBE235:
ARM GAS  /tmp/ccukb11x.s 			page 12


 613              	.LBE234:
 614              		.cfi_endproc
 615              	.LFE268:
 616              		.size	sduStart, .-sduStart
 617 0032 00BFAFF3 		.section	.text.sduStop,"ax",%progbits
 617      0080AFF3 
 617      0080AFF3 
 617      0080
 618              		.align	2
 619              		.p2align 4,,15
 620              		.global	sduStop
 621              		.thumb
 622              		.thumb_func
 623              		.type	sduStop, %function
 624              	sduStop:
 625              	.LFB269:
 626              		.loc 1 238 0
 627              		.cfi_startproc
 628              		@ args = 0, pretend = 0, frame = 0
 629              		@ frame_needed = 0, uses_anonymous_args = 0
 630              	.LVL61:
 631              		.loc 1 239 0
 632 0000 D0F85432 		ldr	r3, [r0, #596]
 633              		.loc 1 238 0
 634 0004 10B5     		push	{r4, lr}
 635              		.cfi_def_cfa_offset 8
 636              		.cfi_offset 4, -8
 637              		.cfi_offset 14, -4
 638              	.LBB240:
 639              	.LBB241:
 640              	.LBB242:
 641              	.LBB243:
 642              	.LBB244:
 643              		.loc 3 546 0
 644 0006 2022     		movs	r2, #32
 645              	.LBE244:
 646              	.LBE243:
 647              	.LBE242:
 648              	.LBE241:
 649              	.LBE240:
 650              		.loc 1 238 0
 651 0008 0446     		mov	r4, r0
 652              		.loc 1 239 0
 653 000a 1968     		ldr	r1, [r3]
 654              	.LVL62:
 655              	.LBB249:
 656              	.LBB248:
 657              	.LBB247:
 658              	.LBB246:
 659              	.LBB245:
 660              		.loc 3 546 0
 661              	@ 546 "ChibiOS_3.0.2/os/ext/CMSIS/include/core_cmFunc.h" 1
 662 000c 82F31188 		MSR basepri, r2
 663              	@ 0 "" 2
 664              		.thumb
 665              	.LBE245:
 666              	.LBE246:
ARM GAS  /tmp/ccukb11x.s 			page 13


 667              	.LBE247:
 668              	.LBE248:
 669              	.LBE249:
 670              		.loc 1 248 0
 671 0010 D0F85432 		ldr	r3, [r0, #596]
 672 0014 1879     		ldrb	r0, [r3, #4]	@ zero_extendqisi2
 673              	.LVL63:
 674 0016 0530     		adds	r0, r0, #5
 675 0018 01EB8000 		add	r0, r1, r0, lsl #2
 676 001c 0022     		movs	r2, #0
 677 001e 4260     		str	r2, [r0, #4]
 678              		.loc 1 249 0
 679 0020 5879     		ldrb	r0, [r3, #5]	@ zero_extendqisi2
 680 0022 0930     		adds	r0, r0, #9
 681 0024 41F82020 		str	r2, [r1, r0, lsl #2]
 682              		.loc 1 250 0
 683 0028 9B79     		ldrb	r3, [r3, #6]	@ zero_extendqisi2
 684 002a 1BB1     		cbz	r3, .L29
 685              		.loc 1 251 0
 686 002c 0533     		adds	r3, r3, #5
 687 002e 01EB8301 		add	r1, r1, r3, lsl #2
 688              	.LVL64:
 689 0032 4A60     		str	r2, [r1, #4]
 690              	.L29:
 691              		.loc 1 253 0
 692 0034 0123     		movs	r3, #1
 693 0036 2372     		strb	r3, [r4, #8]
 694              	.LVL65:
 695              	.LBB250:
 696              	.LBB251:
 697              		.file 5 "ChibiOS_3.0.2/os/hal/osal/rt/osal.h"
 698              		.loc 5 844 0
 699 0038 0221     		movs	r1, #2
 700 003a 201D     		adds	r0, r4, #4
 701              	.LVL66:
 702 003c FFF7FEFF 		bl	chEvtBroadcastFlagsI
 703              	.LVL67:
 704              	.LBE251:
 705              	.LBE250:
 706              		.loc 1 257 0
 707 0040 04F10C00 		add	r0, r4, #12
 708 0044 FFF7FEFF 		bl	chIQResetI
 709              	.LVL68:
 710              		.loc 1 258 0
 711 0048 04F13000 		add	r0, r4, #48
 712 004c FFF7FEFF 		bl	chIQResetI
 713              	.LVL69:
 714              	.LBB252:
 715              	.LBB253:
 716              		.loc 5 600 0
 717 0050 FFF7FEFF 		bl	chSchRescheduleS
 718              	.LVL70:
 719              	.LBE253:
 720              	.LBE252:
 721              	.LBB254:
 722              	.LBB255:
 723              	.LBB256:
ARM GAS  /tmp/ccukb11x.s 			page 14


 724              	.LBB257:
 725              	.LBB258:
 726              	.LBB259:
 727              		.loc 3 546 0
 728 0054 0023     		movs	r3, #0
 729              	@ 546 "ChibiOS_3.0.2/os/ext/CMSIS/include/core_cmFunc.h" 1
 730 0056 83F31188 		MSR basepri, r3
 731              	@ 0 "" 2
 732              		.thumb
 733 005a 10BD     		pop	{r4, pc}
 734              	.LBE259:
 735              	.LBE258:
 736              	.LBE257:
 737              	.LBE256:
 738              	.LBE255:
 739              	.LBE254:
 740              		.cfi_endproc
 741              	.LFE269:
 742              		.size	sduStop, .-sduStop
 743 005c AFF30080 		.section	.text.sduConfigureHookI,"ax",%progbits
 744              		.align	2
 745              		.p2align 4,,15
 746              		.global	sduConfigureHookI
 747              		.thumb
 748              		.thumb_func
 749              		.type	sduConfigureHookI, %function
 750              	sduConfigureHookI:
 751              	.LFB270:
 752              		.loc 1 270 0
 753              		.cfi_startproc
 754              		@ args = 0, pretend = 0, frame = 0
 755              		@ frame_needed = 0, uses_anonymous_args = 0
 756              	.LVL71:
 757 0000 70B5     		push	{r4, r5, r6, lr}
 758              		.cfi_def_cfa_offset 16
 759              		.cfi_offset 4, -16
 760              		.cfi_offset 5, -12
 761              		.cfi_offset 6, -8
 762              		.cfi_offset 14, -4
 763              		.loc 1 271 0
 764 0002 D0F85432 		ldr	r3, [r0, #596]
 765              		.loc 1 273 0
 766 0006 00F10C06 		add	r6, r0, #12
 767              		.loc 1 270 0
 768 000a 0446     		mov	r4, r0
 769              		.loc 1 273 0
 770 000c 3046     		mov	r0, r6
 771              	.LVL72:
 772              		.loc 1 271 0
 773 000e 1D68     		ldr	r5, [r3]
 774              	.LVL73:
 775              		.loc 1 273 0
 776 0010 FFF7FEFF 		bl	chIQResetI
 777              	.LVL74:
 778              		.loc 1 274 0
 779 0014 04F13000 		add	r0, r4, #48
 780 0018 FFF7FEFF 		bl	chOQResetI
ARM GAS  /tmp/ccukb11x.s 			page 15


 781              	.LVL75:
 782              	.LBB260:
 783              	.LBB261:
 784              		.loc 5 844 0
 785 001c 201D     		adds	r0, r4, #4
 786              	.LVL76:
 787 001e 0121     		movs	r1, #1
 788 0020 FFF7FEFF 		bl	chEvtBroadcastFlagsI
 789              	.LVL77:
 790              	.LBE261:
 791              	.LBE260:
 792              		.loc 1 279 0
 793 0024 D4F85432 		ldr	r3, [r4, #596]
 794 0028 5979     		ldrb	r1, [r3, #5]	@ zero_extendqisi2
 795 002a 05EB8103 		add	r3, r5, r1, lsl #2
 796              		.loc 1 278 0
 797 002e 2846     		mov	r0, r5
 798              		.loc 1 279 0
 799 0030 DB68     		ldr	r3, [r3, #12]
 800              		.loc 1 278 0
 801 0032 3246     		mov	r2, r6
 802 0034 5B8A     		ldrh	r3, [r3, #18]
 803 0036 FFF7FEFF 		bl	usbPrepareQueuedReceive
 804              	.LVL78:
 805              		.loc 1 280 0
 806 003a D4F85432 		ldr	r3, [r4, #596]
 807 003e 2846     		mov	r0, r5
 808 0040 5979     		ldrb	r1, [r3, #5]	@ zero_extendqisi2
 809              		.loc 1 281 0
 810 0042 BDE87040 		pop	{r4, r5, r6, lr}
 811              	.LVL79:
 812              		.loc 1 280 0
 813 0046 FFF7FEBF 		b	usbStartReceiveI
 814              	.LVL80:
 815              		.cfi_endproc
 816              	.LFE270:
 817              		.size	sduConfigureHookI, .-sduConfigureHookI
 818 004a 00BFAFF3 		.section	.text.sduRequestsHook,"ax",%progbits
 818      0080
 819              		.align	2
 820              		.p2align 4,,15
 821              		.global	sduRequestsHook
 822              		.thumb
 823              		.thumb_func
 824              		.type	sduRequestsHook, %function
 825              	sduRequestsHook:
 826              	.LFB271:
 827              		.loc 1 298 0
 828              		.cfi_startproc
 829              		@ args = 0, pretend = 0, frame = 0
 830              		@ frame_needed = 0, uses_anonymous_args = 0
 831              		@ link register save eliminated.
 832              	.LVL81:
 833              		.loc 1 300 0
 834 0000 90F84430 		ldrb	r3, [r0, #68]	@ zero_extendqisi2
 835 0004 03F06003 		and	r3, r3, #96
 836 0008 202B     		cmp	r3, #32
ARM GAS  /tmp/ccukb11x.s 			page 16


 837 000a 01D0     		beq	.L42
 838              	.L41:
 839              		.loc 1 313 0
 840 000c 0020     		movs	r0, #0
 841              	.LVL82:
 842              		.loc 1 317 0
 843 000e 7047     		bx	lr
 844              	.LVL83:
 845              	.L42:
 846              		.loc 1 301 0
 847 0010 90F84530 		ldrb	r3, [r0, #69]	@ zero_extendqisi2
 848 0014 212B     		cmp	r3, #33
 849 0016 03D0     		beq	.L38
 850 0018 222B     		cmp	r3, #34
 851 001a 09D0     		beq	.L37
 852 001c 202B     		cmp	r3, #32
 853 001e F5D1     		bne	.L41
 854              	.L38:
 855              		.loc 1 306 0
 856 0020 064B     		ldr	r3, .L43
 857 0022 8363     		str	r3, [r0, #56]
 858 0024 0722     		movs	r2, #7
 859 0026 0023     		movs	r3, #0
 860 0028 C263     		str	r2, [r0, #60]
 861 002a 0364     		str	r3, [r0, #64]
 862              		.loc 1 307 0
 863 002c 0120     		movs	r0, #1
 864              	.LVL84:
 865 002e 7047     		bx	lr
 866              	.LVL85:
 867              	.L37:
 868              		.loc 1 310 0
 869 0030 0023     		movs	r3, #0
 870 0032 8363     		str	r3, [r0, #56]
 871 0034 C363     		str	r3, [r0, #60]
 872 0036 0364     		str	r3, [r0, #64]
 873              		.loc 1 311 0
 874 0038 0120     		movs	r0, #1
 875              	.LVL86:
 876 003a 7047     		bx	lr
 877              	.L44:
 878              		.align	2
 879              	.L43:
 880 003c 00000000 		.word	.LANCHOR1
 881              		.cfi_endproc
 882              	.LFE271:
 883              		.size	sduRequestsHook, .-sduRequestsHook
 884              		.section	.text.sduDataTransmitted,"ax",%progbits
 885              		.align	2
 886              		.p2align 4,,15
 887              		.global	sduDataTransmitted
 888              		.thumb
 889              		.thumb_func
 890              		.type	sduDataTransmitted, %function
 891              	sduDataTransmitted:
 892              	.LFB272:
 893              		.loc 1 327 0
ARM GAS  /tmp/ccukb11x.s 			page 17


 894              		.cfi_startproc
 895              		@ args = 0, pretend = 0, frame = 0
 896              		@ frame_needed = 0, uses_anonymous_args = 0
 897              	.LVL87:
 898 0000 F8B5     		push	{r3, r4, r5, r6, r7, lr}
 899              		.cfi_def_cfa_offset 24
 900              		.cfi_offset 3, -24
 901              		.cfi_offset 4, -20
 902              		.cfi_offset 5, -16
 903              		.cfi_offset 6, -12
 904              		.cfi_offset 7, -8
 905              		.cfi_offset 14, -4
 906              		.loc 1 329 0
 907 0002 00EB8103 		add	r3, r0, r1, lsl #2
 908              		.loc 1 327 0
 909 0006 0646     		mov	r6, r0
 910              		.loc 1 329 0
 911 0008 9C69     		ldr	r4, [r3, #24]
 912              	.LVL88:
 913              		.loc 1 327 0
 914 000a 0D46     		mov	r5, r1
 915              		.loc 1 331 0
 916 000c ACB1     		cbz	r4, .L45
 917              	.LVL89:
 918              	.LBB262:
 919              	.LBB263:
 920              	.LBB264:
 921              	.LBB265:
 922              	.LBB266:
 923              	.LBB267:
 924              		.loc 3 546 0
 925 000e 2027     		movs	r7, #32
 926              	@ 546 "ChibiOS_3.0.2/os/ext/CMSIS/include/core_cmFunc.h" 1
 927 0010 87F31188 		MSR basepri, r7
 928              	@ 0 "" 2
 929              	.LVL90:
 930              		.thumb
 931              	.LBE267:
 932              	.LBE266:
 933              	.LBE265:
 934              	.LBE264:
 935              	.LBE263:
 936              	.LBE262:
 937              	.LBB268:
 938              	.LBB269:
 939              		.loc 5 844 0
 940 0014 0821     		movs	r1, #8
 941              	.LVL91:
 942 0016 201D     		adds	r0, r4, #4
 943              	.LVL92:
 944 0018 FFF7FEFF 		bl	chEvtBroadcastFlagsI
 945              	.LVL93:
 946              	.LBE269:
 947              	.LBE268:
 948              	.LBB270:
 949              	.LBB271:
 950              		.loc 2 357 0
ARM GAS  /tmp/ccukb11x.s 			page 18


 951 001c 216C     		ldr	r1, [r4, #64]
 952 001e E26B     		ldr	r2, [r4, #60]
 953 0020 A36B     		ldr	r3, [r4, #56]
 954 0022 8A1A     		subs	r2, r1, r2
 955              	.LBE271:
 956              	.LBE270:
 957              		.loc 1 339 0
 958 0024 D31A     		subs	r3, r2, r3
 959 0026 10D1     		bne	.L56
 960              		.loc 1 349 0
 961 0028 06EB8503 		add	r3, r6, r5, lsl #2
 962 002c DA68     		ldr	r2, [r3, #12]
 963 002e 5369     		ldr	r3, [r2, #20]
 964 0030 5B68     		ldr	r3, [r3, #4]
 965 0032 1BB9     		cbnz	r3, .L57
 966              	.L48:
 967              	.LVL94:
 968              	.LBB272:
 969              	.LBB273:
 970              	.LBB274:
 971              	.LBB275:
 972              	.LBB276:
 973              	.LBB277:
 974              		.loc 3 546 0
 975 0034 0023     		movs	r3, #0
 976              	@ 546 "ChibiOS_3.0.2/os/ext/CMSIS/include/core_cmFunc.h" 1
 977 0036 83F31188 		MSR basepri, r3
 978              	@ 0 "" 2
 979              	.LVL95:
 980              		.thumb
 981              	.L45:
 982 003a F8BD     		pop	{r3, r4, r5, r6, r7, pc}
 983              	.LVL96:
 984              	.L57:
 985              	.LBE277:
 986              	.LBE276:
 987              	.LBE275:
 988              	.LBE274:
 989              	.LBE273:
 990              	.LBE272:
 991              		.loc 1 351 0 discriminator 1
 992 003c 128A     		ldrh	r2, [r2, #16]
 993 003e 013A     		subs	r2, r2, #1
 994              		.loc 1 349 0 discriminator 1
 995 0040 1340     		ands	r3, r2, r3
 996 0042 F7D1     		bne	.L48
 997              	.LVL97:
 998              	.LBB278:
 999              	.LBB279:
 1000              	.LBB280:
 1001              	.LBB281:
 1002              	.LBB282:
 1003              	.LBB283:
 1004              		.loc 3 546 0
 1005              	@ 546 "ChibiOS_3.0.2/os/ext/CMSIS/include/core_cmFunc.h" 1
 1006 0044 83F31188 		MSR basepri, r3
 1007              	@ 0 "" 2
ARM GAS  /tmp/ccukb11x.s 			page 19


 1008              		.thumb
 1009 0048 02E0     		b	.L55
 1010              	.LVL98:
 1011              	.L56:
 1012              	.LBE283:
 1013              	.LBE282:
 1014              	.LBE281:
 1015              	.LBE280:
 1016              	.LBE279:
 1017              	.LBE278:
 1018              	.LBB284:
 1019              	.LBB285:
 1020              	.LBB286:
 1021              	.LBB287:
 1022              	.LBB288:
 1023              	.LBB289:
 1024 004a 0022     		movs	r2, #0
 1025              	@ 546 "ChibiOS_3.0.2/os/ext/CMSIS/include/core_cmFunc.h" 1
 1026 004c 82F31188 		MSR basepri, r2
 1027              	@ 0 "" 2
 1028              	.LVL99:
 1029              		.thumb
 1030              	.L55:
 1031              	.LBE289:
 1032              	.LBE288:
 1033              	.LBE287:
 1034              	.LBE286:
 1035              	.LBE285:
 1036              	.LBE284:
 1037              		.loc 1 358 0
 1038 0050 04F13002 		add	r2, r4, #48
 1039 0054 3046     		mov	r0, r6
 1040 0056 2946     		mov	r1, r5
 1041 0058 FFF7FEFF 		bl	usbPrepareQueuedTransmit
 1042              	.LVL100:
 1043              	.LBB290:
 1044              	.LBB291:
 1045              	.LBB292:
 1046              	.LBB293:
 1047              	.LBB294:
 1048              	.LBB295:
 1049              		.loc 3 546 0
 1050              	@ 546 "ChibiOS_3.0.2/os/ext/CMSIS/include/core_cmFunc.h" 1
 1051 005c 87F31188 		MSR basepri, r7
 1052              	@ 0 "" 2
 1053              		.thumb
 1054              	.LBE295:
 1055              	.LBE294:
 1056              	.LBE293:
 1057              	.LBE292:
 1058              	.LBE291:
 1059              	.LBE290:
 1060              		.loc 1 361 0
 1061 0060 3046     		mov	r0, r6
 1062 0062 2946     		mov	r1, r5
 1063 0064 FFF7FEFF 		bl	usbStartTransmitI
 1064              	.LVL101:
ARM GAS  /tmp/ccukb11x.s 			page 20


 1065 0068 E4E7     		b	.L48
 1066              		.cfi_endproc
 1067              	.LFE272:
 1068              		.size	sduDataTransmitted, .-sduDataTransmitted
 1069 006a 00BFAFF3 		.section	.text.sduDataReceived,"ax",%progbits
 1069      0080
 1070              		.align	2
 1071              		.p2align 4,,15
 1072              		.global	sduDataReceived
 1073              		.thumb
 1074              		.thumb_func
 1075              		.type	sduDataReceived, %function
 1076              	sduDataReceived:
 1077              	.LFB273:
 1078              		.loc 1 376 0
 1079              		.cfi_startproc
 1080              		@ args = 0, pretend = 0, frame = 0
 1081              		@ frame_needed = 0, uses_anonymous_args = 0
 1082              	.LVL102:
 1083 0000 F8B5     		push	{r3, r4, r5, r6, r7, lr}
 1084              		.cfi_def_cfa_offset 24
 1085              		.cfi_offset 3, -24
 1086              		.cfi_offset 4, -20
 1087              		.cfi_offset 5, -16
 1088              		.cfi_offset 6, -12
 1089              		.cfi_offset 7, -8
 1090              		.cfi_offset 14, -4
 1091              		.loc 1 378 0
 1092 0002 01F10903 		add	r3, r1, #9
 1093              		.loc 1 376 0
 1094 0006 0D46     		mov	r5, r1
 1095              		.loc 1 378 0
 1096 0008 50F82340 		ldr	r4, [r0, r3, lsl #2]
 1097              	.LVL103:
 1098              		.loc 1 376 0
 1099 000c 0646     		mov	r6, r0
 1100              		.loc 1 380 0
 1101 000e A4B1     		cbz	r4, .L58
 1102              	.LVL104:
 1103              	.LBB296:
 1104              	.LBB297:
 1105              	.LBB298:
 1106              	.LBB299:
 1107              	.LBB300:
 1108              	.LBB301:
 1109              		.loc 3 546 0
 1110 0010 2027     		movs	r7, #32
 1111              	@ 546 "ChibiOS_3.0.2/os/ext/CMSIS/include/core_cmFunc.h" 1
 1112 0012 87F31188 		MSR basepri, r7
 1113              	@ 0 "" 2
 1114              	.LVL105:
 1115              		.thumb
 1116              	.LBE301:
 1117              	.LBE300:
 1118              	.LBE299:
 1119              	.LBE298:
 1120              	.LBE297:
ARM GAS  /tmp/ccukb11x.s 			page 21


 1121              	.LBE296:
 1122              	.LBB302:
 1123              	.LBB303:
 1124              		.loc 5 844 0
 1125 0016 0421     		movs	r1, #4
 1126              	.LVL106:
 1127 0018 6018     		adds	r0, r4, r1
 1128              	.LVL107:
 1129 001a FFF7FEFF 		bl	chEvtBroadcastFlagsI
 1130              	.LVL108:
 1131              	.LBE303:
 1132              	.LBE302:
 1133              		.loc 1 389 0
 1134 001e 06EB8503 		add	r3, r6, r5, lsl #2
 1135              	.LBB304:
 1136              	.LBB305:
 1137              		.loc 2 290 0
 1138 0022 E069     		ldr	r0, [r4, #28]
 1139              	.LBE305:
 1140              	.LBE304:
 1141              		.loc 1 389 0
 1142 0024 DB68     		ldr	r3, [r3, #12]
 1143              	.LBB308:
 1144              	.LBB306:
 1145              		.loc 2 290 0
 1146 0026 A169     		ldr	r1, [r4, #24]
 1147 0028 6269     		ldr	r2, [r4, #20]
 1148              	.LBE306:
 1149              	.LBE308:
 1150              		.loc 1 389 0
 1151 002a 5B8A     		ldrh	r3, [r3, #18]
 1152              	.LVL109:
 1153              	.LBB309:
 1154              	.LBB307:
 1155              		.loc 2 290 0
 1156 002c 411A     		subs	r1, r0, r1
 1157 002e 8A1A     		subs	r2, r1, r2
 1158              	.LBE307:
 1159              	.LBE309:
 1160              		.loc 1 390 0
 1161 0030 9342     		cmp	r3, r2
 1162 0032 03D9     		bls	.L64
 1163              	.LVL110:
 1164              	.L60:
 1165              	.LBB310:
 1166              	.LBB311:
 1167              	.LBB312:
 1168              	.LBB313:
 1169              	.LBB314:
 1170              	.LBB315:
 1171              		.loc 3 546 0
 1172 0034 0023     		movs	r3, #0
 1173              	@ 546 "ChibiOS_3.0.2/os/ext/CMSIS/include/core_cmFunc.h" 1
 1174 0036 83F31188 		MSR basepri, r3
 1175              	@ 0 "" 2
 1176              	.LVL111:
 1177              		.thumb
ARM GAS  /tmp/ccukb11x.s 			page 22


 1178              	.L58:
 1179 003a F8BD     		pop	{r3, r4, r5, r6, r7, pc}
 1180              	.LVL112:
 1181              	.L64:
 1182              	.LBE315:
 1183              	.LBE314:
 1184              	.LBE313:
 1185              	.LBE312:
 1186              	.LBE311:
 1187              	.LBE310:
 1188              	.LBB316:
 1189              	.LBB317:
 1190              	.LBB318:
 1191              	.LBB319:
 1192              	.LBB320:
 1193              	.LBB321:
 1194 003c 0021     		movs	r1, #0
 1195              	@ 546 "ChibiOS_3.0.2/os/ext/CMSIS/include/core_cmFunc.h" 1
 1196 003e 81F31188 		MSR basepri, r1
 1197              	@ 0 "" 2
 1198              	.LVL113:
 1199              		.thumb
 1200              	.LBE321:
 1201              	.LBE320:
 1202              	.LBE319:
 1203              	.LBE318:
 1204              	.LBE317:
 1205              	.LBE316:
 1206              		.loc 1 395 0
 1207 0042 B2FBF3F2 		udiv	r2, r2, r3
 1208              	.LVL114:
 1209              		.loc 1 396 0
 1210 0046 03FB02F3 		mul	r3, r3, r2
 1211              	.LVL115:
 1212 004a 3046     		mov	r0, r6
 1213 004c 04F10C02 		add	r2, r4, #12
 1214 0050 2946     		mov	r1, r5
 1215 0052 FFF7FEFF 		bl	usbPrepareQueuedReceive
 1216              	.LVL116:
 1217              	.LBB322:
 1218              	.LBB323:
 1219              	.LBB324:
 1220              	.LBB325:
 1221              	.LBB326:
 1222              	.LBB327:
 1223              		.loc 3 546 0
 1224              	@ 546 "ChibiOS_3.0.2/os/ext/CMSIS/include/core_cmFunc.h" 1
 1225 0056 87F31188 		MSR basepri, r7
 1226              	@ 0 "" 2
 1227              		.thumb
 1228              	.LBE327:
 1229              	.LBE326:
 1230              	.LBE325:
 1231              	.LBE324:
 1232              	.LBE323:
 1233              	.LBE322:
 1234              		.loc 1 399 0
ARM GAS  /tmp/ccukb11x.s 			page 23


 1235 005a 3046     		mov	r0, r6
 1236 005c 2946     		mov	r1, r5
 1237 005e FFF7FEFF 		bl	usbStartReceiveI
 1238              	.LVL117:
 1239 0062 E7E7     		b	.L60
 1240              		.cfi_endproc
 1241              	.LFE273:
 1242              		.size	sduDataReceived, .-sduDataReceived
 1243              		.section	.text.sduInterruptTransmitted,"ax",%progbits
 1244              		.align	2
 1245              		.p2align 4,,15
 1246              		.global	sduInterruptTransmitted
 1247              		.thumb
 1248              		.thumb_func
 1249              		.type	sduInterruptTransmitted, %function
 1250              	sduInterruptTransmitted:
 1251              	.LFB274:
 1252              		.loc 1 412 0
 1253              		.cfi_startproc
 1254              		@ args = 0, pretend = 0, frame = 0
 1255              		@ frame_needed = 0, uses_anonymous_args = 0
 1256              		@ link register save eliminated.
 1257              	.LVL118:
 1258 0000 7047     		bx	lr
 1259              		.cfi_endproc
 1260              	.LFE274:
 1261              		.size	sduInterruptTransmitted, .-sduInterruptTransmitted
 1262 0002 00BFAFF3 		.section	.rodata.vmt,"a",%progbits
 1262      0080AFF3 
 1262      0080AFF3 
 1262      0080
 1263              		.align	2
 1264              		.set	.LANCHOR0,. + 0
 1265              		.type	vmt, %object
 1266              		.size	vmt, 32
 1267              	vmt:
 1268 0000 00000000 		.word	write
 1269 0004 00000000 		.word	read
 1270 0008 00000000 		.word	put
 1271 000c 00000000 		.word	get
 1272 0010 00000000 		.word	putt
 1273 0014 00000000 		.word	gett
 1274 0018 00000000 		.word	writet
 1275 001c 00000000 		.word	readt
 1276              		.section	.data.linecoding,"aw",%progbits
 1277              		.align	2
 1278              		.set	.LANCHOR1,. + 0
 1279              		.type	linecoding, %object
 1280              		.size	linecoding, 7
 1281              	linecoding:
 1282 0000 00       		.byte	0
 1283 0001 96       		.byte	-106
 1284 0002 00       		.byte	0
 1285 0003 00       		.byte	0
 1286 0004 00       		.byte	0
 1287 0005 00       		.byte	0
 1288 0006 08       		.byte	8
ARM GAS  /tmp/ccukb11x.s 			page 24


 1289 0007 00       		.text
 1290              	.Letext0:
 1291              		.file 6 "/usr/lib/gcc/arm-none-eabi/4.8/include/stddef.h"
 1292              		.file 7 "/usr/include/newlib/machine/_default_types.h"
 1293              		.file 8 "/usr/include/newlib/stdint.h"
 1294              		.file 9 "ChibiOS_3.0.2/os/rt/ports/ARMCMx/compilers/GCC/chtypes.h"
 1295              		.file 10 "ChibiOS_3.0.2/os/rt/include/chsystypes.h"
 1296              		.file 11 "ChibiOS_3.0.2/os/rt/include/chschd.h"
 1297              		.file 12 "ChibiOS_3.0.2/os/rt/ports/ARMCMx/chcore.h"
 1298              		.file 13 "ChibiOS_3.0.2/os/rt/ports/ARMCMx/chcore_v7m.h"
 1299              		.file 14 "ChibiOS_3.0.2/os/rt/include/chtm.h"
 1300              		.file 15 "ChibiOS_3.0.2/os/rt/include/chsem.h"
 1301              		.file 16 "ChibiOS_3.0.2/os/rt/include/chmtx.h"
 1302              		.file 17 "ChibiOS_3.0.2/os/hal/include/usb.h"
 1303              		.file 18 "ChibiOS_3.0.2/os/hal/ports/STM32/LLD/OTGv1/usb_lld.h"
 1304              		.file 19 "ChibiOS_3.0.2/os/hal/ports/STM32/LLD/OTGv1/stm32_otg.h"
 1305              		.file 20 "ChibiOS_3.0.2/os/hal/include/serial_usb.h"
 1306              		.file 21 "ChibiOS_3.0.2/os/rt/include/chsys.h"
 1307              		.file 22 "ChibiOS_3.0.2/os/ext/CMSIS/include/core_cm4.h"