ARM GAS  /tmp/ccuRxgwH.s 			page 1


   1              		.syntax unified
   2              		.cpu cortex-m4
   3              		.eabi_attribute 27, 3
   4              		.eabi_attribute 28, 1
   5              		.fpu fpv4-sp-d16
   6              		.eabi_attribute 20, 1
   7              		.eabi_attribute 21, 1
   8              		.eabi_attribute 23, 3
   9              		.eabi_attribute 24, 1
  10              		.eabi_attribute 25, 1
  11              		.eabi_attribute 26, 1
  12              		.eabi_attribute 30, 2
  13              		.eabi_attribute 34, 1
  14              		.eabi_attribute 18, 4
  15              		.thumb
  16              		.file	"servo_dec.c"
  17              		.text
  18              	.Ltext0:
  19              		.cfi_sections	.debug_frame
  20              		.section	.text.icuperiodcb,"ax",%progbits
  21              		.align	2
  22              		.p2align 4,,15
  23              		.thumb
  24              		.thumb_func
  25              		.type	icuperiodcb, %function
  26              	icuperiodcb:
  27              	.LFB257:
  28              		.file 1 "servo_dec.c"
  29              		.loc 1 89 0
  30              		.cfi_startproc
  31              		@ args = 0, pretend = 0, frame = 0
  32              		@ frame_needed = 0, uses_anonymous_args = 0
  33              		@ link register save eliminated.
  34              	.LVL0:
  35 0000 7047     		bx	lr
  36              		.cfi_endproc
  37              	.LFE257:
  38              		.size	icuperiodcb, .-icuperiodcb
  39 0002 00BFAFF3 		.section	.text.icuwidthcb,"ax",%progbits
  39      0080AFF3 
  39      0080AFF3 
  39      0080
  40              		.align	2
  41              		.p2align 4,,15
  42              		.thumb
  43              		.thumb_func
  44              		.type	icuwidthcb, %function
  45              	icuwidthcb:
  46              	.LFB256:
  47              		.loc 1 45 0
  48              		.cfi_startproc
  49              		@ args = 0, pretend = 0, frame = 0
  50              		@ frame_needed = 0, uses_anonymous_args = 0
  51              	.LVL1:
  52              		.loc 1 45 0
  53 0000 38B5     		push	{r3, r4, r5, lr}
  54              		.cfi_def_cfa_offset 16
ARM GAS  /tmp/ccuRxgwH.s 			page 2


  55              		.cfi_offset 3, -16
  56              		.cfi_offset 4, -12
  57              		.cfi_offset 5, -8
  58              		.cfi_offset 14, -4
  59              		.loc 1 46 0
  60 0002 0369     		ldr	r3, [r0, #16]
  61 0004 9FED3C7A 		flds	s14, .L24
  62 0008 1868     		ldr	r0, [r3]
  63              	.LVL2:
  64 000a 3C4A     		ldr	r2, .L24+4
  65              		.loc 1 47 0
  66 000c 3C4B     		ldr	r3, .L24+8
  67              		.loc 1 48 0
  68 000e 3D49     		ldr	r1, .L24+12
  69              		.loc 1 46 0
  70 0010 0130     		adds	r0, r0, #1
  71 0012 07EE900A 		fmsr	s15, r0	@ int
  72 0016 F8EE677A 		fuitos	s15, s15
  73              		.loc 1 45 0
  74 001a 2DED028B 		fstmfdd	sp!, {d8}
  75              		.cfi_def_cfa_offset 24
  76              		.cfi_offset 80, -24
  77              		.loc 1 46 0
  78 001e C7EE877A 		fdivs	s15, s15, s14
  79 0022 C2ED007A 		fsts	s15, [r2]
  80              		.loc 1 47 0
  81 0026 92ED006A 		flds	s12, [r2]
  82 002a D3ED007A 		flds	s15, [r3]
  83              		.loc 1 48 0
  84 002e D1ED006A 		flds	s13, [r1]
  85 0032 93ED007A 		flds	s14, [r3]
  86              		.loc 1 47 0
  87 0036 76EE677A 		fsubs	s15, s12, s15
  88              	.LVL3:
  89              		.loc 1 48 0
  90 003a 36EEC77A 		fsubs	s14, s13, s14
  91              	.LVL4:
  92              		.loc 1 50 0
  93 003e F4EEC77A 		fcmpes	s15, s14
  94 0042 F1EE10FA 		fmstat
  95 0046 2CDD     		ble	.L21
  96              		.loc 1 51 0
  97 0048 DFED2F6A 		flds	s13, .L24+16
  98 004c 67EE266A 		fmuls	s13, s14, s13
  99 0050 F4EEE67A 		fcmpes	s15, s13
 100 0054 F1EE10FA 		fmstat
 101 0058 20D5     		bpl	.L2
 102              		.loc 1 52 0
 103 005a F0EE477A 		fcpys	s15, s14
 104              	.LVL5:
 105              	.L5:
 106              		.loc 1 66 0
 107 005e F5EEC07A 		fcmpezs	s15
 108 0062 F1EE10FA 		fmstat
 109 0066 19DB     		blt	.L2
 110 0068 77EEA77A 		fadds	s15, s15, s15
 111              	.LVL6:
ARM GAS  /tmp/ccuRxgwH.s 			page 3


 112              	.L8:
 113              		.loc 1 67 0
 114 006c 274B     		ldr	r3, .L24+20
 115 006e 1B78     		ldrb	r3, [r3]	@ zero_extendqisi2
 116              	.LBB46:
 117              		.loc 1 68 0
 118 0070 77EEC77A 		fsubs	s15, s15, s14
 119              	.LBE46:
 120              		.loc 1 67 0
 121 0074 63BB     		cbnz	r3, .L23
 122              		.loc 1 78 0
 123 0076 87EE877A 		fdivs	s14, s15, s14
 124              	.LVL7:
 125 007a 254B     		ldr	r3, .L24+24
 126 007c 83ED007A 		fsts	s14, [r3]
 127              	.L12:
 128              	.LVL8:
 129              	.LBB47:
 130              	.LBB48:
 131              	.LBB49:
 132              	.LBB50:
 133              	.LBB51:
 134              	.LBB52:
 135              		.file 2 "ChibiOS_3.0.2/os/ext/CMSIS/include/core_cmFunc.h"
 136              		.loc 2 546 0
 137 0080 2023     		movs	r3, #32
 138              	@ 546 "ChibiOS_3.0.2/os/ext/CMSIS/include/core_cmFunc.h" 1
 139 0082 83F31188 		MSR basepri, r3
 140              	@ 0 "" 2
 141              		.thumb
 142              	.LBE52:
 143              	.LBE51:
 144              	.LBE50:
 145              	.LBE49:
 146              	.LBB53:
 147              	.LBB54:
 148              		.file 3 "ChibiOS_3.0.2/os/rt/include/chvt.h"
 149              		.loc 3 231 0
 150 0086 234A     		ldr	r2, .L24+28
 151              	.LBE54:
 152              	.LBE53:
 153              	.LBB56:
 154              	.LBB57:
 155              	.LBB58:
 156              	.LBB59:
 157              	.LBB60:
 158              		.loc 2 546 0
 159 0088 0023     		movs	r3, #0
 160              	.LBE60:
 161              	.LBE59:
 162              	.LBE58:
 163              	.LBE57:
 164              	.LBE56:
 165              	.LBB65:
 166              	.LBB55:
 167              		.loc 3 231 0
 168 008a 916A     		ldr	r1, [r2, #40]
ARM GAS  /tmp/ccuRxgwH.s 			page 4


 169              	.LVL9:
 170              	.LBE55:
 171              	.LBE65:
 172              	.LBB66:
 173              	.LBB64:
 174              	.LBB63:
 175              	.LBB62:
 176              	.LBB61:
 177              		.loc 2 546 0
 178              	@ 546 "ChibiOS_3.0.2/os/ext/CMSIS/include/core_cmFunc.h" 1
 179 008c 83F31188 		MSR basepri, r3
 180              	@ 0 "" 2
 181              		.thumb
 182              	.LBE61:
 183              	.LBE62:
 184              	.LBE63:
 185              	.LBE64:
 186              	.LBE66:
 187              	.LBE48:
 188              	.LBE47:
 189              		.loc 1 83 0
 190 0090 214B     		ldr	r3, .L24+32
 191              		.loc 1 81 0
 192 0092 224A     		ldr	r2, .L24+36
 193              		.loc 1 83 0
 194 0094 1B68     		ldr	r3, [r3]
 195              		.loc 1 81 0
 196 0096 1160     		str	r1, [r2]
 197              		.loc 1 83 0
 198 0098 03B1     		cbz	r3, .L2
 199              		.loc 1 84 0
 200 009a 9847     		blx	r3
 201              	.LVL10:
 202              	.L2:
 203              		.loc 1 87 0
 204 009c BDEC028B 		fldmfdd	sp!, {d8}
 205 00a0 38BD     		pop	{r3, r4, r5, pc}
 206              	.LVL11:
 207              	.L21:
 208              		.loc 1 57 0
 209 00a2 F5EEC07A 		fcmpezs	s15
 210 00a6 F1EE10FA 		fmstat
 211 00aa D8D5     		bpl	.L5
 212              		.loc 1 58 0
 213 00ac D3ED005A 		flds	s11, [r3]
 214 00b0 DFED1B6A 		flds	s13, .L24+40
 215 00b4 93ED006A 		flds	s12, [r3]
 216 00b8 77EEA57A 		fadds	s15, s15, s11
 217              	.LVL12:
 218 00bc 66EE266A 		fmuls	s13, s12, s13
 219 00c0 F4EEE67A 		fcmpes	s15, s13
 220 00c4 F1EE10FA 		fmstat
 221 00c8 E8DD     		ble	.L2
 222 00ca DFED167A 		flds	s15, .L24+44
 223 00ce CDE7     		b	.L8
 224              	.L23:
 225              	.LBB67:
ARM GAS  /tmp/ccuRxgwH.s 			page 5


 226              		.loc 1 68 0
 227 00d0 87EE878A 		fdivs	s16, s15, s14
 228              	.LVL13:
 229              		.loc 1 71 0
 230 00d4 144C     		ldr	r4, .L24+48
 231 00d6 154D     		ldr	r5, .L24+52
 232 00d8 D4ED000A 		flds	s1, [r4]
 233 00dc 95ED001A 		flds	s2, [r5]
 234 00e0 B0EE480A 		fcpys	s0, s16
 235 00e4 FFF7FEFF 		bl	utils_middle_of_3
 236              	.LVL14:
 237              		.loc 1 76 0
 238 00e8 094B     		ldr	r3, .L24+24
 239              		.loc 1 73 0
 240 00ea 2268     		ldr	r2, [r4]	@ float
 241 00ec 2A60     		str	r2, [r5]	@ float
 242              		.loc 1 74 0
 243 00ee 84ED008A 		fsts	s16, [r4]
 244              		.loc 1 76 0
 245 00f2 83ED000A 		fsts	s0, [r3]
 246              	.LBE67:
 247 00f6 C3E7     		b	.L12
 248              	.L25:
 249              		.align	2
 250              	.L24:
 251 00f8 00007A44 		.word	1148846080
 252 00fc 00000000 		.word	.LANCHOR0
 253 0100 00000000 		.word	.LANCHOR1
 254 0104 00000000 		.word	.LANCHOR2
 255 0108 9A99993F 		.word	1067030938
 256 010c 00000000 		.word	.LANCHOR3
 257 0110 00000000 		.word	.LANCHOR6
 258 0114 00000000 		.word	ch
 259 0118 00000000 		.word	.LANCHOR8
 260 011c 00000000 		.word	.LANCHOR7
 261 0120 CDCC4C3F 		.word	1061997773
 262 0124 00000000 		.word	0
 263 0128 00000000 		.word	.LANCHOR4
 264 012c 00000000 		.word	.LANCHOR5
 265              		.cfi_endproc
 266              	.LFE256:
 267              		.size	icuwidthcb, .-icuwidthcb
 268              		.section	.text.servodec_init,"ax",%progbits
 269              		.align	2
 270              		.p2align 4,,15
 271              		.global	servodec_init
 272              		.thumb
 273              		.thumb_func
 274              		.type	servodec_init, %function
 275              	servodec_init:
 276              	.LFB258:
 277              		.loc 1 110 0
 278              		.cfi_startproc
 279              		@ args = 0, pretend = 0, frame = 0
 280              		@ frame_needed = 0, uses_anonymous_args = 0
 281              	.LVL15:
 282 0000 38B5     		push	{r3, r4, r5, lr}
ARM GAS  /tmp/ccuRxgwH.s 			page 6


 283              		.cfi_def_cfa_offset 16
 284              		.cfi_offset 3, -16
 285              		.cfi_offset 4, -12
 286              		.cfi_offset 5, -8
 287              		.cfi_offset 14, -4
 288              		.loc 1 111 0
 289 0002 0E4C     		ldr	r4, .L27
 290 0004 0E49     		ldr	r1, .L27+4
 291              		.loc 1 110 0
 292 0006 0546     		mov	r5, r0
 293              		.loc 1 111 0
 294 0008 2046     		mov	r0, r4
 295              	.LVL16:
 296 000a FFF7FEFF 		bl	icuStart
 297              	.LVL17:
 298              		.loc 1 112 0
 299 000e 2021     		movs	r1, #32
 300 0010 4FF48172 		mov	r2, #258
 301 0014 0B48     		ldr	r0, .L27+8
 302 0016 FFF7FEFF 		bl	_pal_lld_setgroupmode
 303              	.LVL18:
 304              		.loc 1 113 0
 305 001a 2046     		mov	r0, r4
 306 001c FFF7FEFF 		bl	icuStartCapture
 307              	.LVL19:
 308              		.loc 1 114 0
 309 0020 2046     		mov	r0, r4
 310 0022 FFF7FEFF 		bl	icuEnableNotifications
 311              	.LVL20:
 312              		.loc 1 122 0
 313 0026 0849     		ldr	r1, .L27+12
 314              	.LBB68:
 315              		.loc 1 117 0
 316 0028 084C     		ldr	r4, .L27+16
 317              		.loc 1 118 0
 318 002a 0948     		ldr	r0, .L27+20
 319              	.LBE68:
 320              		.loc 1 124 0
 321 002c 094A     		ldr	r2, .L27+24
 322              		.loc 1 122 0
 323 002e 0D60     		str	r5, [r1]
 324              	.LBB69:
 325              		.loc 1 117 0
 326 0030 0023     		movs	r3, #0
 327              	.LBE69:
 328              		.loc 1 124 0
 329 0032 0121     		movs	r1, #1
 330              	.LBB70:
 331              		.loc 1 117 0
 332 0034 2360     		str	r3, [r4]	@ float
 333              		.loc 1 118 0
 334 0036 0360     		str	r3, [r0]	@ float
 335              	.LVL21:
 336              	.LBE70:
 337              		.loc 1 124 0
 338 0038 1170     		strb	r1, [r2]
 339 003a 38BD     		pop	{r3, r4, r5, pc}
ARM GAS  /tmp/ccuRxgwH.s 			page 7


 340              	.LVL22:
 341              	.L28:
 342              		.align	2
 343              	.L27:
 344 003c 00000000 		.word	ICUD3
 345 0040 00000000 		.word	.LANCHOR9
 346 0044 00040240 		.word	1073873920
 347 0048 00000000 		.word	.LANCHOR8
 348 004c 00000000 		.word	.LANCHOR6
 349 0050 00000000 		.word	.LANCHOR0
 350 0054 00000000 		.word	.LANCHOR10
 351              		.cfi_endproc
 352              	.LFE258:
 353              		.size	servodec_init, .-servodec_init
 354 0058 AFF30080 		.section	.text.servodec_stop,"ax",%progbits
 354      AFF30080 
 355              		.align	2
 356              		.p2align 4,,15
 357              		.global	servodec_stop
 358              		.thumb
 359              		.thumb_func
 360              		.type	servodec_stop, %function
 361              	servodec_stop:
 362              	.LFB259:
 363              		.loc 1 130 0
 364              		.cfi_startproc
 365              		@ args = 0, pretend = 0, frame = 0
 366              		@ frame_needed = 0, uses_anonymous_args = 0
 367 0000 F8B5     		push	{r3, r4, r5, r6, r7, lr}
 368              		.cfi_def_cfa_offset 24
 369              		.cfi_offset 3, -24
 370              		.cfi_offset 4, -20
 371              		.cfi_offset 5, -16
 372              		.cfi_offset 6, -12
 373              		.cfi_offset 7, -8
 374              		.cfi_offset 14, -4
 375              		.loc 1 131 0
 376 0002 0D4C     		ldr	r4, .L34
 377 0004 2378     		ldrb	r3, [r4]	@ zero_extendqisi2
 378 0006 A3B1     		cbz	r3, .L30
 379              		.loc 1 132 0
 380 0008 0C48     		ldr	r0, .L34+4
 381              		.loc 1 134 0
 382 000a 0D4D     		ldr	r5, .L34+8
 383              		.loc 1 132 0
 384 000c FFF7FEFF 		bl	icuStop
 385              	.LVL23:
 386              		.loc 1 133 0
 387 0010 0C48     		ldr	r0, .L34+12
 388 0012 2021     		movs	r1, #32
 389 0014 0022     		movs	r2, #0
 390 0016 FFF7FEFF 		bl	_pal_lld_setgroupmode
 391              	.LVL24:
 392              		.loc 1 135 0
 393 001a 0B49     		ldr	r1, .L34+16
 394              		.loc 1 136 0
 395 001c 0B4A     		ldr	r2, .L34+20
ARM GAS  /tmp/ccuRxgwH.s 			page 8


 396              		.loc 1 137 0
 397 001e 0C48     		ldr	r0, .L34+24
 398              		.loc 1 136 0
 399 0020 0023     		movs	r3, #0
 400              		.loc 1 134 0
 401 0022 4FF07E57 		mov	r7, #1065353216
 402              		.loc 1 135 0
 403 0026 4FF08046 		mov	r6, #1073741824
 404              		.loc 1 134 0
 405 002a 2F60     		str	r7, [r5]	@ float
 406              		.loc 1 137 0
 407 002c 0360     		str	r3, [r0]
 408              		.loc 1 135 0
 409 002e 0E60     		str	r6, [r1]	@ float
 410              		.loc 1 136 0
 411 0030 1370     		strb	r3, [r2]
 412              	.L30:
 413              		.loc 1 140 0
 414 0032 0023     		movs	r3, #0
 415 0034 2370     		strb	r3, [r4]
 416 0036 F8BD     		pop	{r3, r4, r5, r6, r7, pc}
 417              	.L35:
 418              		.align	2
 419              	.L34:
 420 0038 00000000 		.word	.LANCHOR10
 421 003c 00000000 		.word	ICUD3
 422 0040 00000000 		.word	.LANCHOR1
 423 0044 00040240 		.word	1073873920
 424 0048 00000000 		.word	.LANCHOR2
 425 004c 00000000 		.word	.LANCHOR3
 426 0050 00000000 		.word	.LANCHOR8
 427              		.cfi_endproc
 428              	.LFE259:
 429              		.size	servodec_stop, .-servodec_stop
 430 0054 AFF30080 		.section	.text.servodec_set_pulse_options,"ax",%progbits
 430      AFF30080 
 430      AFF30080 
 431              		.align	2
 432              		.p2align 4,,15
 433              		.global	servodec_set_pulse_options
 434              		.thumb
 435              		.thumb_func
 436              		.type	servodec_set_pulse_options, %function
 437              	servodec_set_pulse_options:
 438              	.LFB260:
 439              		.loc 1 152 0
 440              		.cfi_startproc
 441              		@ args = 0, pretend = 0, frame = 0
 442              		@ frame_needed = 0, uses_anonymous_args = 0
 443              		@ link register save eliminated.
 444              	.LVL25:
 445              		.loc 1 153 0
 446 0000 0449     		ldr	r1, .L37
 447              		.loc 1 154 0
 448 0002 054A     		ldr	r2, .L37+4
 449              		.loc 1 155 0
 450 0004 054B     		ldr	r3, .L37+8
ARM GAS  /tmp/ccuRxgwH.s 			page 9


 451              		.loc 1 153 0
 452 0006 81ED000A 		fsts	s0, [r1]
 453              		.loc 1 154 0
 454 000a C2ED000A 		fsts	s1, [r2]
 455              		.loc 1 155 0
 456 000e 1870     		strb	r0, [r3]
 457 0010 7047     		bx	lr
 458              	.L38:
 459 0012 00BF     		.align	2
 460              	.L37:
 461 0014 00000000 		.word	.LANCHOR1
 462 0018 00000000 		.word	.LANCHOR2
 463 001c 00000000 		.word	.LANCHOR3
 464              		.cfi_endproc
 465              	.LFE260:
 466              		.size	servodec_set_pulse_options, .-servodec_set_pulse_options
 467              		.section	.text.servodec_get_servo,"ax",%progbits
 468              		.align	2
 469              		.p2align 4,,15
 470              		.global	servodec_get_servo
 471              		.thumb
 472              		.thumb_func
 473              		.type	servodec_get_servo, %function
 474              	servodec_get_servo:
 475              	.LFB261:
 476              		.loc 1 167 0
 477              		.cfi_startproc
 478              		@ args = 0, pretend = 0, frame = 0
 479              		@ frame_needed = 0, uses_anonymous_args = 0
 480              		@ link register save eliminated.
 481              	.LVL26:
 482              		.loc 1 168 0
 483 0000 0028     		cmp	r0, #0
 484              		.loc 1 169 0
 485 0002 DDBF     		ittte	le
 486 0004 034B     		ldrle	r3, .L42
 487 0006 03EB8000 		addle	r0, r3, r0, lsl #2
 488              	.LVL27:
 489 000a 90ED000A 		fldsle	s0, [r0]
 490              		.loc 1 171 0
 491 000e 9FED020A 		fldsgt	s0, .L42+4
 492              		.loc 1 173 0
 493 0012 7047     		bx	lr
 494              	.L43:
 495              		.align	2
 496              	.L42:
 497 0014 00000000 		.word	.LANCHOR6
 498 0018 00000000 		.word	0
 499              		.cfi_endproc
 500              	.LFE261:
 501              		.size	servodec_get_servo, .-servodec_get_servo
 502 001c AFF30080 		.section	.text.servodec_get_time_since_update,"ax",%progbits
 503              		.align	2
 504              		.p2align 4,,15
 505              		.global	servodec_get_time_since_update
 506              		.thumb
 507              		.thumb_func
ARM GAS  /tmp/ccuRxgwH.s 			page 10


 508              		.type	servodec_get_time_since_update, %function
 509              	servodec_get_time_since_update:
 510              	.LFB262:
 511              		.loc 1 182 0
 512              		.cfi_startproc
 513              		@ args = 0, pretend = 0, frame = 0
 514              		@ frame_needed = 0, uses_anonymous_args = 0
 515              		@ link register save eliminated.
 516              	.LBB71:
 517              	.LBB72:
 518              	.LBB73:
 519              	.LBB74:
 520              		.loc 3 231 0
 521 0000 044B     		ldr	r3, .L45
 522              	.LBE74:
 523              	.LBE73:
 524              	.LBE72:
 525              	.LBE71:
 526              		.loc 1 183 0
 527 0002 054A     		ldr	r2, .L45+4
 528 0004 1268     		ldr	r2, [r2]
 529              	.LVL28:
 530              	.LBB79:
 531              	.LBB77:
 532              	.LBB76:
 533              	.LBB75:
 534              		.loc 3 231 0
 535 0006 986A     		ldr	r0, [r3, #40]
 536              	.LBE75:
 537              	.LBE76:
 538              	.LBE77:
 539              	.LBE79:
 540              		.loc 1 183 0
 541 0008 044B     		ldr	r3, .L45+8
 542              	.LBB80:
 543              	.LBB78:
 544              		.loc 3 267 0
 545 000a 801A     		subs	r0, r0, r2
 546              	.LBE78:
 547              	.LBE80:
 548              		.loc 1 183 0
 549 000c A3FB0020 		umull	r2, r0, r3, r0
 550              	.LVL29:
 551              		.loc 1 184 0
 552 0010 C008     		lsrs	r0, r0, #3
 553 0012 7047     		bx	lr
 554              	.L46:
 555              		.align	2
 556              	.L45:
 557 0014 00000000 		.word	ch
 558 0018 00000000 		.word	.LANCHOR7
 559 001c CDCCCCCC 		.word	-858993459
 560              		.cfi_endproc
 561              	.LFE262:
 562              		.size	servodec_get_time_since_update, .-servodec_get_time_since_update
 563              		.section	.text.servodec_get_last_pulse_len,"ax",%progbits
 564              		.align	2
ARM GAS  /tmp/ccuRxgwH.s 			page 11


 565              		.p2align 4,,15
 566              		.global	servodec_get_last_pulse_len
 567              		.thumb
 568              		.thumb_func
 569              		.type	servodec_get_last_pulse_len, %function
 570              	servodec_get_last_pulse_len:
 571              	.LFB263:
 572              		.loc 1 195 0
 573              		.cfi_startproc
 574              		@ args = 0, pretend = 0, frame = 0
 575              		@ frame_needed = 0, uses_anonymous_args = 0
 576              		@ link register save eliminated.
 577              	.LVL30:
 578              		.loc 1 196 0
 579 0000 0028     		cmp	r0, #0
 580              		.loc 1 197 0
 581 0002 DDBF     		ittte	le
 582 0004 034B     		ldrle	r3, .L50
 583 0006 03EB8000 		addle	r0, r3, r0, lsl #2
 584              	.LVL31:
 585 000a 90ED000A 		fldsle	s0, [r0]
 586              		.loc 1 199 0
 587 000e 9FED020A 		fldsgt	s0, .L50+4
 588              		.loc 1 201 0
 589 0012 7047     		bx	lr
 590              	.L51:
 591              		.align	2
 592              	.L50:
 593 0014 00000000 		.word	.LANCHOR0
 594 0018 00000000 		.word	0
 595              		.cfi_endproc
 596              	.LFE263:
 597              		.size	servodec_get_last_pulse_len, .-servodec_get_last_pulse_len
 598 001c AFF30080 		.section	.data.c2.9218,"aw",%progbits
 599              		.align	2
 600              		.set	.LANCHOR5,. + 0
 601              		.type	c2.9218, %object
 602              		.size	c2.9218, 4
 603              	c2.9218:
 604 0000 0000003F 		.word	1056964608
 605              		.section	.bss.servo_pos,"aw",%nobits
 606              		.align	2
 607              		.set	.LANCHOR6,. + 0
 608              		.type	servo_pos, %object
 609              		.size	servo_pos, 4
 610              	servo_pos:
 611 0000 00000000 		.space	4
 612              		.section	.data.c1.9217,"aw",%progbits
 613              		.align	2
 614              		.set	.LANCHOR4,. + 0
 615              		.type	c1.9217, %object
 616              		.size	c1.9217, 4
 617              	c1.9217:
 618 0000 0000003F 		.word	1056964608
 619              		.section	.bss.is_running,"aw",%nobits
 620              		.set	.LANCHOR10,. + 0
 621              		.type	is_running, %object
ARM GAS  /tmp/ccuRxgwH.s 			page 12


 622              		.size	is_running, 1
 623              	is_running:
 624 0000 00       		.space	1
 625              		.section	.data.pulse_end,"aw",%progbits
 626              		.align	2
 627              		.set	.LANCHOR2,. + 0
 628              		.type	pulse_end, %object
 629              		.size	pulse_end, 4
 630              	pulse_end:
 631 0000 00000040 		.word	1073741824
 632              		.section	.bss.last_update_time,"aw",%nobits
 633              		.align	2
 634              		.set	.LANCHOR7,. + 0
 635              		.type	last_update_time, %object
 636              		.size	last_update_time, 4
 637              	last_update_time:
 638 0000 00000000 		.space	4
 639              		.section	.bss.last_len_received,"aw",%nobits
 640              		.align	2
 641              		.set	.LANCHOR0,. + 0
 642              		.type	last_len_received, %object
 643              		.size	last_len_received, 4
 644              	last_len_received:
 645 0000 00000000 		.space	4
 646              		.section	.bss.use_median_filter,"aw",%nobits
 647              		.set	.LANCHOR3,. + 0
 648              		.type	use_median_filter, %object
 649              		.size	use_median_filter, 1
 650              	use_median_filter:
 651 0000 00       		.space	1
 652              		.section	.data.pulse_start,"aw",%progbits
 653              		.align	2
 654              		.set	.LANCHOR1,. + 0
 655              		.type	pulse_start, %object
 656              		.size	pulse_start, 4
 657              	pulse_start:
 658 0000 0000803F 		.word	1065353216
 659              		.section	.bss.done_func,"aw",%nobits
 660              		.align	2
 661              		.set	.LANCHOR8,. + 0
 662              		.type	done_func, %object
 663              		.size	done_func, 4
 664              	done_func:
 665 0000 00000000 		.space	4
 666              		.section	.data.icucfg,"aw",%progbits
 667              		.align	2
 668              		.set	.LANCHOR9,. + 0
 669              		.type	icucfg, %object
 670              		.size	icucfg, 28
 671              	icucfg:
 672 0000 00       		.byte	0
 673 0001 000000   		.space	3
 674 0004 40420F00 		.word	1000000
 675 0008 00000000 		.word	icuwidthcb
 676 000c 00000000 		.word	icuperiodcb
 677 0010 00000000 		.word	0
 678 0014 01       		.byte	1
ARM GAS  /tmp/ccuRxgwH.s 			page 13


 679 0015 000000   		.space	3
 680 0018 00000000 		.word	0
 681              		.text
 682              	.Letext0:
 683              		.file 4 "/usr/include/newlib/machine/_default_types.h"
 684              		.file 5 "/usr/include/newlib/stdint.h"
 685              		.file 6 "/usr/lib/gcc/arm-none-eabi/4.8/include/stddef.h"
 686              		.file 7 "ChibiOS_3.0.2/os/rt/ports/ARMCMx/compilers/GCC/chtypes.h"
 687              		.file 8 "ChibiOS_3.0.2/os/rt/include/chsystypes.h"
 688              		.file 9 "ChibiOS_3.0.2/os/rt/include/chschd.h"
 689              		.file 10 "ChibiOS_3.0.2/os/rt/ports/ARMCMx/chcore.h"
 690              		.file 11 "ChibiOS_3.0.2/os/rt/ports/ARMCMx/chcore_v7m.h"
 691              		.file 12 "ChibiOS_3.0.2/os/rt/include/chtm.h"
 692              		.file 13 "ChibiOS_3.0.2/os/rt/include/chsem.h"
 693              		.file 14 "ChibiOS_3.0.2/os/rt/include/chmtx.h"
 694              		.file 15 "ChibiOS_3.0.2/os/hal/ports/STM32/LLD/GPIOv2/pal_lld.h"
 695              		.file 16 "ChibiOS_3.0.2/os/hal/include/icu.h"
 696              		.file 17 "ChibiOS_3.0.2/os/hal/ports/STM32/LLD/TIMv1/icu_lld.h"
 697              		.file 18 "ChibiOS_3.0.2/os/hal/ports/STM32/LLD/TIMv1/stm32_tim.h"
 698              		.file 19 "ChibiOS_3.0.2/os/rt/include/chsys.h"
 699              		.file 20 "ChibiOS_3.0.2/os/ext/CMSIS/include/core_cm4.h"
 700              		.file 21 "utils.h"
 701              		.section	.debug_info,"",%progbits
 702              	.Ldebug_info0:
 703 0000 45100000 		.4byte	0x1045
 704 0004 0400     		.2byte	0x4
 705 0006 00000000 		.4byte	.Ldebug_abbrev0
 706 000a 04       		.byte	0x4
 707 000b 01       		.uleb128 0x1
 708 000c A2020000 		.4byte	.LASF199
 709 0010 01       		.byte	0x1
 710 0011 A8050000 		.4byte	.LASF200
 711 0015 CE080000 		.4byte	.LASF201
 712 0019 A0000000 		.4byte	.Ldebug_ranges0+0xa0
 713 001d 00000000 		.4byte	0
 714 0021 00000000 		.4byte	.Ldebug_line0
 715 0025 02       		.uleb128 0x2
 716 0026 04       		.byte	0x4
 717 0027 04       		.byte	0x4
 718 0028 AE010000 		.4byte	.LASF0
 719 002c 02       		.uleb128 0x2
 720 002d 01       		.byte	0x1
 721 002e 06       		.byte	0x6
 722 002f C2080000 		.4byte	.LASF1
 723 0033 03       		.uleb128 0x3
 724 0034 4C070000 		.4byte	.LASF4
 725 0038 04       		.byte	0x4
 726 0039 1D       		.byte	0x1d
 727 003a 3E000000 		.4byte	0x3e
 728 003e 02       		.uleb128 0x2
 729 003f 01       		.byte	0x1
 730 0040 08       		.byte	0x8
 731 0041 E6070000 		.4byte	.LASF2
 732 0045 02       		.uleb128 0x2
 733 0046 02       		.byte	0x2
 734 0047 05       		.byte	0x5
 735 0048 75060000 		.4byte	.LASF3
ARM GAS  /tmp/ccuRxgwH.s 			page 14


 736 004c 03       		.uleb128 0x3
 737 004d 22020000 		.4byte	.LASF5
 738 0051 04       		.byte	0x4
 739 0052 2B       		.byte	0x2b
 740 0053 57000000 		.4byte	0x57
 741 0057 02       		.uleb128 0x2
 742 0058 02       		.byte	0x2
 743 0059 07       		.byte	0x7
 744 005a 00090000 		.4byte	.LASF6
 745 005e 03       		.uleb128 0x3
 746 005f C3000000 		.4byte	.LASF7
 747 0063 04       		.byte	0x4
 748 0064 3F       		.byte	0x3f
 749 0065 69000000 		.4byte	0x69
 750 0069 02       		.uleb128 0x2
 751 006a 04       		.byte	0x4
 752 006b 05       		.byte	0x5
 753 006c A5060000 		.4byte	.LASF8
 754 0070 03       		.uleb128 0x3
 755 0071 F4070000 		.4byte	.LASF9
 756 0075 04       		.byte	0x4
 757 0076 41       		.byte	0x41
 758 0077 7B000000 		.4byte	0x7b
 759 007b 02       		.uleb128 0x2
 760 007c 04       		.byte	0x4
 761 007d 07       		.byte	0x7
 762 007e 9A070000 		.4byte	.LASF10
 763 0082 02       		.uleb128 0x2
 764 0083 08       		.byte	0x8
 765 0084 05       		.byte	0x5
 766 0085 85040000 		.4byte	.LASF11
 767 0089 03       		.uleb128 0x3
 768 008a 20040000 		.4byte	.LASF12
 769 008e 04       		.byte	0x4
 770 008f 5B       		.byte	0x5b
 771 0090 94000000 		.4byte	0x94
 772 0094 02       		.uleb128 0x2
 773 0095 08       		.byte	0x8
 774 0096 07       		.byte	0x7
 775 0097 EC010000 		.4byte	.LASF13
 776 009b 04       		.uleb128 0x4
 777 009c 04       		.byte	0x4
 778 009d 05       		.byte	0x5
 779 009e 696E7400 		.ascii	"int\000"
 780 00a2 02       		.uleb128 0x2
 781 00a3 04       		.byte	0x4
 782 00a4 07       		.byte	0x7
 783 00a5 87000000 		.4byte	.LASF14
 784 00a9 03       		.uleb128 0x3
 785 00aa A3040000 		.4byte	.LASF15
 786 00ae 05       		.byte	0x5
 787 00af 2A       		.byte	0x2a
 788 00b0 33000000 		.4byte	0x33
 789 00b4 03       		.uleb128 0x3
 790 00b5 E2050000 		.4byte	.LASF16
 791 00b9 05       		.byte	0x5
 792 00ba 36       		.byte	0x36
ARM GAS  /tmp/ccuRxgwH.s 			page 15


 793 00bb 4C000000 		.4byte	0x4c
 794 00bf 03       		.uleb128 0x3
 795 00c0 B9070000 		.4byte	.LASF17
 796 00c4 05       		.byte	0x5
 797 00c5 41       		.byte	0x41
 798 00c6 5E000000 		.4byte	0x5e
 799 00ca 03       		.uleb128 0x3
 800 00cb 75010000 		.4byte	.LASF18
 801 00cf 05       		.byte	0x5
 802 00d0 42       		.byte	0x42
 803 00d1 70000000 		.4byte	0x70
 804 00d5 03       		.uleb128 0x3
 805 00d6 2D070000 		.4byte	.LASF19
 806 00da 05       		.byte	0x5
 807 00db 4E       		.byte	0x4e
 808 00dc 89000000 		.4byte	0x89
 809 00e0 03       		.uleb128 0x3
 810 00e1 AA030000 		.4byte	.LASF20
 811 00e5 06       		.byte	0x6
 812 00e6 D4       		.byte	0xd4
 813 00e7 A2000000 		.4byte	0xa2
 814 00eb 05       		.uleb128 0x5
 815 00ec BF000000 		.4byte	0xbf
 816 00f0 05       		.uleb128 0x5
 817 00f1 CA000000 		.4byte	0xca
 818 00f5 03       		.uleb128 0x3
 819 00f6 15060000 		.4byte	.LASF21
 820 00fa 07       		.byte	0x7
 821 00fb 45       		.byte	0x45
 822 00fc CA000000 		.4byte	0xca
 823 0100 03       		.uleb128 0x3
 824 0101 BA050000 		.4byte	.LASF22
 825 0105 07       		.byte	0x7
 826 0106 48       		.byte	0x48
 827 0107 A9000000 		.4byte	0xa9
 828 010b 03       		.uleb128 0x3
 829 010c 7C040000 		.4byte	.LASF23
 830 0110 07       		.byte	0x7
 831 0111 49       		.byte	0x49
 832 0112 A9000000 		.4byte	0xa9
 833 0116 03       		.uleb128 0x3
 834 0117 80070000 		.4byte	.LASF24
 835 011b 07       		.byte	0x7
 836 011c 4A       		.byte	0x4a
 837 011d A9000000 		.4byte	0xa9
 838 0121 03       		.uleb128 0x3
 839 0122 96050000 		.4byte	.LASF25
 840 0126 07       		.byte	0x7
 841 0127 4B       		.byte	0x4b
 842 0128 A9000000 		.4byte	0xa9
 843 012c 03       		.uleb128 0x3
 844 012d C1010000 		.4byte	.LASF26
 845 0131 07       		.byte	0x7
 846 0132 4C       		.byte	0x4c
 847 0133 CA000000 		.4byte	0xca
 848 0137 03       		.uleb128 0x3
 849 0138 3D050000 		.4byte	.LASF27
ARM GAS  /tmp/ccuRxgwH.s 			page 16


 850 013c 07       		.byte	0x7
 851 013d 4D       		.byte	0x4d
 852 013e BF000000 		.4byte	0xbf
 853 0142 03       		.uleb128 0x3
 854 0143 26050000 		.4byte	.LASF28
 855 0147 07       		.byte	0x7
 856 0148 4F       		.byte	0x4f
 857 0149 CA000000 		.4byte	0xca
 858 014d 03       		.uleb128 0x3
 859 014e 2D020000 		.4byte	.LASF29
 860 0152 07       		.byte	0x7
 861 0153 51       		.byte	0x51
 862 0154 BF000000 		.4byte	0xbf
 863 0158 03       		.uleb128 0x3
 864 0159 5F000000 		.4byte	.LASF30
 865 015d 08       		.byte	0x8
 866 015e 33       		.byte	0x33
 867 015f CA000000 		.4byte	0xca
 868 0163 03       		.uleb128 0x3
 869 0164 91020000 		.4byte	.LASF31
 870 0168 08       		.byte	0x8
 871 0169 3F       		.byte	0x3f
 872 016a 6E010000 		.4byte	0x16e
 873 016e 06       		.uleb128 0x6
 874 016f CE040000 		.4byte	.LASF53
 875 0173 48       		.byte	0x48
 876 0174 09       		.byte	0x9
 877 0175 C2       		.byte	0xc2
 878 0176 73020000 		.4byte	0x273
 879 017a 07       		.uleb128 0x7
 880 017b 1E070000 		.4byte	.LASF32
 881 017f 09       		.byte	0x9
 882 0180 C3       		.byte	0xc3
 883 0181 7E020000 		.4byte	0x27e
 884 0185 00       		.byte	0
 885 0186 07       		.uleb128 0x7
 886 0187 70070000 		.4byte	.LASF33
 887 018b 09       		.byte	0x9
 888 018c C5       		.byte	0xc5
 889 018d 7E020000 		.4byte	0x27e
 890 0191 04       		.byte	0x4
 891 0192 07       		.uleb128 0x7
 892 0193 42000000 		.4byte	.LASF34
 893 0197 09       		.byte	0x9
 894 0198 C7       		.byte	0xc7
 895 0199 2C010000 		.4byte	0x12c
 896 019d 08       		.byte	0x8
 897 019e 07       		.uleb128 0x7
 898 019f 36070000 		.4byte	.LASF35
 899 01a3 09       		.byte	0x9
 900 01a4 C8       		.byte	0xc8
 901 01a5 CE040000 		.4byte	0x4ce
 902 01a9 0C       		.byte	0xc
 903 01aa 07       		.uleb128 0x7
 904 01ab 6C020000 		.4byte	.LASF36
 905 01af 09       		.byte	0x9
 906 01b0 CA       		.byte	0xca
ARM GAS  /tmp/ccuRxgwH.s 			page 17


 907 01b1 7E020000 		.4byte	0x27e
 908 01b5 10       		.byte	0x10
 909 01b6 07       		.uleb128 0x7
 910 01b7 93040000 		.4byte	.LASF37
 911 01bb 09       		.byte	0x9
 912 01bc CB       		.byte	0xcb
 913 01bd 7E020000 		.4byte	0x27e
 914 01c1 14       		.byte	0x14
 915 01c2 07       		.uleb128 0x7
 916 01c3 51040000 		.4byte	.LASF38
 917 01c7 09       		.byte	0x9
 918 01c8 D2       		.byte	0xd2
 919 01c9 13070000 		.4byte	0x713
 920 01cd 18       		.byte	0x18
 921 01ce 07       		.uleb128 0x7
 922 01cf 9B040000 		.4byte	.LASF39
 923 01d3 09       		.byte	0x9
 924 01d4 DD       		.byte	0xdd
 925 01d5 0B010000 		.4byte	0x10b
 926 01d9 1C       		.byte	0x1c
 927 01da 07       		.uleb128 0x7
 928 01db 58050000 		.4byte	.LASF40
 929 01df 09       		.byte	0x9
 930 01e0 E1       		.byte	0xe1
 931 01e1 00010000 		.4byte	0x100
 932 01e5 1D       		.byte	0x1d
 933 01e6 07       		.uleb128 0x7
 934 01e7 15080000 		.4byte	.LASF41
 935 01eb 09       		.byte	0x9
 936 01ec E6       		.byte	0xe6
 937 01ed 16010000 		.4byte	0x116
 938 01f1 1E       		.byte	0x1e
 939 01f2 07       		.uleb128 0x7
 940 01f3 34080000 		.4byte	.LASF42
 941 01f7 09       		.byte	0x9
 942 01f8 EC       		.byte	0xec
 943 01f9 21010000 		.4byte	0x121
 944 01fd 1F       		.byte	0x1f
 945 01fe 07       		.uleb128 0x7
 946 01ff 28000000 		.4byte	.LASF43
 947 0203 09       		.byte	0x9
 948 0204 F3       		.byte	0xf3
 949 0205 25070000 		.4byte	0x725
 950 0209 20       		.byte	0x20
 951 020a 08       		.uleb128 0x8
 952 020b 705F7500 		.ascii	"p_u\000"
 953 020f 09       		.byte	0x9
 954 0210 3101     		.2byte	0x131
 955 0212 4E060000 		.4byte	0x64e
 956 0216 24       		.byte	0x24
 957 0217 09       		.uleb128 0x9
 958 0218 B9000000 		.4byte	.LASF44
 959 021c 09       		.byte	0x9
 960 021d 3601     		.2byte	0x136
 961 021f 84020000 		.4byte	0x284
 962 0223 28       		.byte	0x28
 963 0224 09       		.uleb128 0x9
ARM GAS  /tmp/ccuRxgwH.s 			page 18


 964 0225 7C000000 		.4byte	.LASF45
 965 0229 09       		.byte	0x9
 966 022a 3C01     		.2byte	0x13c
 967 022c A8020000 		.4byte	0x2a8
 968 0230 2C       		.byte	0x2c
 969 0231 09       		.uleb128 0x9
 970 0232 B4050000 		.4byte	.LASF46
 971 0236 09       		.byte	0x9
 972 0237 4001     		.2byte	0x140
 973 0239 37010000 		.4byte	0x137
 974 023d 34       		.byte	0x34
 975 023e 09       		.uleb128 0x9
 976 023f 92060000 		.4byte	.LASF47
 977 0243 09       		.byte	0x9
 978 0244 4601     		.2byte	0x146
 979 0246 42010000 		.4byte	0x142
 980 024a 38       		.byte	0x38
 981 024b 09       		.uleb128 0x9
 982 024c BF040000 		.4byte	.LASF48
 983 0250 09       		.byte	0x9
 984 0251 4D01     		.2byte	0x14d
 985 0253 0D070000 		.4byte	0x70d
 986 0257 3C       		.byte	0x3c
 987 0258 09       		.uleb128 0x9
 988 0259 4E060000 		.4byte	.LASF49
 989 025d 09       		.byte	0x9
 990 025e 5101     		.2byte	0x151
 991 0260 2C010000 		.4byte	0x12c
 992 0264 40       		.byte	0x40
 993 0265 09       		.uleb128 0x9
 994 0266 B7040000 		.4byte	.LASF50
 995 026a 09       		.byte	0x9
 996 026b 5801     		.2byte	0x158
 997 026d 5B030000 		.4byte	0x35b
 998 0271 44       		.byte	0x44
 999 0272 00       		.byte	0
 1000 0273 03       		.uleb128 0x3
 1001 0274 EB050000 		.4byte	.LASF51
 1002 0278 08       		.byte	0x8
 1003 0279 44       		.byte	0x44
 1004 027a 7E020000 		.4byte	0x27e
 1005 027e 0A       		.uleb128 0xa
 1006 027f 04       		.byte	0x4
 1007 0280 63010000 		.4byte	0x163
 1008 0284 03       		.uleb128 0x3
 1009 0285 AA000000 		.4byte	.LASF52
 1010 0289 08       		.byte	0x8
 1011 028a 49       		.byte	0x49
 1012 028b 8F020000 		.4byte	0x28f
 1013 028f 06       		.uleb128 0x6
 1014 0290 33020000 		.4byte	.LASF54
 1015 0294 04       		.byte	0x4
 1016 0295 09       		.byte	0x9
 1017 0296 B0       		.byte	0xb0
 1018 0297 A8020000 		.4byte	0x2a8
 1019 029b 07       		.uleb128 0x7
 1020 029c 1E070000 		.4byte	.LASF32
ARM GAS  /tmp/ccuRxgwH.s 			page 19


 1021 02a0 09       		.byte	0x9
 1022 02a1 B1       		.byte	0xb1
 1023 02a2 7E020000 		.4byte	0x27e
 1024 02a6 00       		.byte	0
 1025 02a7 00       		.byte	0
 1026 02a8 03       		.uleb128 0x3
 1027 02a9 00000000 		.4byte	.LASF55
 1028 02ad 08       		.byte	0x8
 1029 02ae 50       		.byte	0x50
 1030 02af B3020000 		.4byte	0x2b3
 1031 02b3 06       		.uleb128 0x6
 1032 02b4 F1040000 		.4byte	.LASF56
 1033 02b8 08       		.byte	0x8
 1034 02b9 09       		.byte	0x9
 1035 02ba B7       		.byte	0xb7
 1036 02bb D8020000 		.4byte	0x2d8
 1037 02bf 07       		.uleb128 0x7
 1038 02c0 1E070000 		.4byte	.LASF32
 1039 02c4 09       		.byte	0x9
 1040 02c5 B8       		.byte	0xb8
 1041 02c6 7E020000 		.4byte	0x27e
 1042 02ca 00       		.byte	0
 1043 02cb 07       		.uleb128 0x7
 1044 02cc 70070000 		.4byte	.LASF33
 1045 02d0 09       		.byte	0x9
 1046 02d1 B9       		.byte	0xb9
 1047 02d2 7E020000 		.4byte	0x27e
 1048 02d6 04       		.byte	0x4
 1049 02d7 00       		.byte	0
 1050 02d8 03       		.uleb128 0x3
 1051 02d9 AC070000 		.4byte	.LASF57
 1052 02dd 08       		.byte	0x8
 1053 02de 57       		.byte	0x57
 1054 02df E3020000 		.4byte	0x2e3
 1055 02e3 0B       		.uleb128 0xb
 1056 02e4 22010000 		.4byte	.LASF58
 1057 02e8 1C       		.byte	0x1c
 1058 02e9 09       		.byte	0x9
 1059 02ea 9001     		.2byte	0x190
 1060 02ec 3F030000 		.4byte	0x33f
 1061 02f0 09       		.uleb128 0x9
 1062 02f1 0C050000 		.4byte	.LASF59
 1063 02f5 09       		.byte	0x9
 1064 02f6 9101     		.2byte	0x191
 1065 02f8 A8020000 		.4byte	0x2a8
 1066 02fc 00       		.byte	0
 1067 02fd 09       		.uleb128 0x9
 1068 02fe 91010000 		.4byte	.LASF60
 1069 0302 09       		.byte	0x9
 1070 0303 9201     		.2byte	0x192
 1071 0305 2C010000 		.4byte	0x12c
 1072 0309 08       		.byte	0x8
 1073 030a 09       		.uleb128 0x9
 1074 030b 13090000 		.4byte	.LASF61
 1075 030f 09       		.byte	0x9
 1076 0310 9401     		.2byte	0x194
 1077 0312 CE040000 		.4byte	0x4ce
ARM GAS  /tmp/ccuRxgwH.s 			page 20


 1078 0316 0C       		.byte	0xc
 1079 0317 09       		.uleb128 0x9
 1080 0318 6C040000 		.4byte	.LASF62
 1081 031c 09       		.byte	0x9
 1082 031d 9701     		.2byte	0x197
 1083 031f 7E020000 		.4byte	0x27e
 1084 0323 10       		.byte	0x10
 1085 0324 09       		.uleb128 0x9
 1086 0325 A0050000 		.4byte	.LASF63
 1087 0329 09       		.byte	0x9
 1088 032a 9801     		.2byte	0x198
 1089 032c 7E020000 		.4byte	0x27e
 1090 0330 14       		.byte	0x14
 1091 0331 09       		.uleb128 0x9
 1092 0332 88060000 		.4byte	.LASF64
 1093 0336 09       		.byte	0x9
 1094 0337 9B01     		.2byte	0x19b
 1095 0339 7E020000 		.4byte	0x27e
 1096 033d 18       		.byte	0x18
 1097 033e 00       		.byte	0
 1098 033f 03       		.uleb128 0x3
 1099 0340 B8030000 		.4byte	.LASF65
 1100 0344 08       		.byte	0x8
 1101 0345 5C       		.byte	0x5c
 1102 0346 4A030000 		.4byte	0x34a
 1103 034a 0A       		.uleb128 0xa
 1104 034b 04       		.byte	0x4
 1105 034c 50030000 		.4byte	0x350
 1106 0350 0C       		.uleb128 0xc
 1107 0351 5B030000 		.4byte	0x35b
 1108 0355 0D       		.uleb128 0xd
 1109 0356 5B030000 		.4byte	0x35b
 1110 035a 00       		.byte	0
 1111 035b 0E       		.uleb128 0xe
 1112 035c 04       		.byte	0x4
 1113 035d 03       		.uleb128 0x3
 1114 035e 60050000 		.4byte	.LASF66
 1115 0362 08       		.byte	0x8
 1116 0363 61       		.byte	0x61
 1117 0364 68030000 		.4byte	0x368
 1118 0368 0B       		.uleb128 0xb
 1119 0369 C9010000 		.4byte	.LASF67
 1120 036d 14       		.byte	0x14
 1121 036e 09       		.byte	0x9
 1122 036f 6B01     		.2byte	0x16b
 1123 0371 B7030000 		.4byte	0x3b7
 1124 0375 09       		.uleb128 0x9
 1125 0376 6D080000 		.4byte	.LASF68
 1126 037a 09       		.byte	0x9
 1127 037b 6C01     		.2byte	0x16c
 1128 037d 2A070000 		.4byte	0x72a
 1129 0381 00       		.byte	0
 1130 0382 09       		.uleb128 0x9
 1131 0383 54090000 		.4byte	.LASF69
 1132 0387 09       		.byte	0x9
 1133 0388 6D01     		.2byte	0x16d
 1134 038a 2A070000 		.4byte	0x72a
ARM GAS  /tmp/ccuRxgwH.s 			page 21


 1135 038e 04       		.byte	0x4
 1136 038f 09       		.uleb128 0x9
 1137 0390 63040000 		.4byte	.LASF70
 1138 0394 09       		.byte	0x9
 1139 0395 6E01     		.2byte	0x16e
 1140 0397 58010000 		.4byte	0x158
 1141 039b 08       		.byte	0x8
 1142 039c 09       		.uleb128 0x9
 1143 039d 2D090000 		.4byte	.LASF71
 1144 03a1 09       		.byte	0x9
 1145 03a2 6F01     		.2byte	0x16f
 1146 03a4 3F030000 		.4byte	0x33f
 1147 03a8 0C       		.byte	0xc
 1148 03a9 09       		.uleb128 0x9
 1149 03aa 9D010000 		.4byte	.LASF72
 1150 03ae 09       		.byte	0x9
 1151 03af 7101     		.2byte	0x171
 1152 03b1 5B030000 		.4byte	0x35b
 1153 03b5 10       		.byte	0x10
 1154 03b6 00       		.byte	0
 1155 03b7 03       		.uleb128 0x3
 1156 03b8 FF070000 		.4byte	.LASF73
 1157 03bc 08       		.byte	0x8
 1158 03bd 66       		.byte	0x66
 1159 03be C2030000 		.4byte	0x3c2
 1160 03c2 0B       		.uleb128 0xb
 1161 03c3 7A020000 		.4byte	.LASF74
 1162 03c7 10       		.byte	0x10
 1163 03c8 09       		.byte	0x9
 1164 03c9 7B01     		.2byte	0x17b
 1165 03cb 04040000 		.4byte	0x404
 1166 03cf 09       		.uleb128 0x9
 1167 03d0 6D080000 		.4byte	.LASF68
 1168 03d4 09       		.byte	0x9
 1169 03d5 7C01     		.2byte	0x17c
 1170 03d7 2A070000 		.4byte	0x72a
 1171 03db 00       		.byte	0
 1172 03dc 09       		.uleb128 0x9
 1173 03dd 54090000 		.4byte	.LASF69
 1174 03e1 09       		.byte	0x9
 1175 03e2 7E01     		.2byte	0x17e
 1176 03e4 2A070000 		.4byte	0x72a
 1177 03e8 04       		.byte	0x4
 1178 03e9 09       		.uleb128 0x9
 1179 03ea 63040000 		.4byte	.LASF70
 1180 03ee 09       		.byte	0x9
 1181 03ef 8001     		.2byte	0x180
 1182 03f1 58010000 		.4byte	0x158
 1183 03f5 08       		.byte	0x8
 1184 03f6 09       		.uleb128 0x9
 1185 03f7 71000000 		.4byte	.LASF75
 1186 03fb 09       		.byte	0x9
 1187 03fc 8201     		.2byte	0x182
 1188 03fe 25070000 		.4byte	0x725
 1189 0402 0C       		.byte	0xc
 1190 0403 00       		.byte	0
 1191 0404 03       		.uleb128 0x3
ARM GAS  /tmp/ccuRxgwH.s 			page 22


 1192 0405 D8040000 		.4byte	.LASF76
 1193 0409 08       		.byte	0x8
 1194 040a 6B       		.byte	0x6b
 1195 040b 0F040000 		.4byte	0x40f
 1196 040f 0B       		.uleb128 0xb
 1197 0410 65010000 		.4byte	.LASF77
 1198 0414 04       		.byte	0x4
 1199 0415 09       		.byte	0x9
 1200 0416 A201     		.2byte	0x1a2
 1201 0418 2A040000 		.4byte	0x42a
 1202 041c 09       		.uleb128 0x9
 1203 041d 1C080000 		.4byte	.LASF78
 1204 0421 09       		.byte	0x9
 1205 0422 AA01     		.2byte	0x1aa
 1206 0424 30070000 		.4byte	0x730
 1207 0428 00       		.byte	0
 1208 0429 00       		.byte	0
 1209 042a 03       		.uleb128 0x3
 1210 042b 7F080000 		.4byte	.LASF79
 1211 042f 08       		.byte	0x8
 1212 0430 70       		.byte	0x70
 1213 0431 35040000 		.4byte	0x435
 1214 0435 0F       		.uleb128 0xf
 1215 0436 E3060000 		.4byte	.LASF80
 1216 043a 5802     		.2byte	0x258
 1217 043c 09       		.byte	0x9
 1218 043d C201     		.2byte	0x1c2
 1219 043f 91040000 		.4byte	0x491
 1220 0443 09       		.uleb128 0x9
 1221 0444 3C070000 		.4byte	.LASF81
 1222 0448 09       		.byte	0x9
 1223 0449 C601     		.2byte	0x1c6
 1224 044b D8020000 		.4byte	0x2d8
 1225 044f 00       		.byte	0
 1226 0450 09       		.uleb128 0x9
 1227 0451 00010000 		.4byte	.LASF82
 1228 0455 09       		.byte	0x9
 1229 0456 CA01     		.2byte	0x1ca
 1230 0458 B7030000 		.4byte	0x3b7
 1231 045c 1C       		.byte	0x1c
 1232 045d 08       		.uleb128 0x8
 1233 045e 64626700 		.ascii	"dbg\000"
 1234 0462 09       		.byte	0x9
 1235 0463 CE01     		.2byte	0x1ce
 1236 0465 04040000 		.4byte	0x404
 1237 0469 2C       		.byte	0x2c
 1238 046a 09       		.uleb128 0x9
 1239 046b CA050000 		.4byte	.LASF83
 1240 046f 09       		.byte	0x9
 1241 0470 D201     		.2byte	0x1d2
 1242 0472 63010000 		.4byte	0x163
 1243 0476 30       		.byte	0x30
 1244 0477 08       		.uleb128 0x8
 1245 0478 746D00   		.ascii	"tm\000"
 1246 047b 09       		.byte	0x9
 1247 047c D701     		.2byte	0x1d7
 1248 047e 43060000 		.4byte	0x643
ARM GAS  /tmp/ccuRxgwH.s 			page 23


 1249 0482 78       		.byte	0x78
 1250 0483 09       		.uleb128 0x9
 1251 0484 07010000 		.4byte	.LASF84
 1252 0488 09       		.byte	0x9
 1253 0489 E301     		.2byte	0x1e3
 1254 048b 35070000 		.4byte	0x735
 1255 048f 80       		.byte	0x80
 1256 0490 00       		.byte	0
 1257 0491 02       		.uleb128 0x2
 1258 0492 04       		.byte	0x4
 1259 0493 07       		.byte	0x7
 1260 0494 77070000 		.4byte	.LASF85
 1261 0498 10       		.uleb128 0x10
 1262 0499 CA000000 		.4byte	0xca
 1263 049d A8040000 		.4byte	0x4a8
 1264 04a1 11       		.uleb128 0x11
 1265 04a2 91040000 		.4byte	0x491
 1266 04a6 01       		.byte	0x1
 1267 04a7 00       		.byte	0
 1268 04a8 10       		.uleb128 0x10
 1269 04a9 CA000000 		.4byte	0xca
 1270 04ad B8040000 		.4byte	0x4b8
 1271 04b1 11       		.uleb128 0x11
 1272 04b2 91040000 		.4byte	0x491
 1273 04b6 03       		.byte	0x3
 1274 04b7 00       		.byte	0
 1275 04b8 03       		.uleb128 0x3
 1276 04b9 39000000 		.4byte	.LASF86
 1277 04bd 0A       		.byte	0xa
 1278 04be 65       		.byte	0x65
 1279 04bf 5B030000 		.4byte	0x35b
 1280 04c3 03       		.uleb128 0x3
 1281 04c4 19090000 		.4byte	.LASF87
 1282 04c8 0A       		.byte	0xa
 1283 04c9 6D       		.byte	0x6d
 1284 04ca D5000000 		.4byte	0xd5
 1285 04ce 06       		.uleb128 0x6
 1286 04cf 43050000 		.4byte	.LASF88
 1287 04d3 04       		.byte	0x4
 1288 04d4 0A       		.byte	0xa
 1289 04d5 89       		.byte	0x89
 1290 04d6 E7040000 		.4byte	0x4e7
 1291 04da 12       		.uleb128 0x12
 1292 04db 72313300 		.ascii	"r13\000"
 1293 04df 0A       		.byte	0xa
 1294 04e0 8A       		.byte	0x8a
 1295 04e1 28060000 		.4byte	0x628
 1296 04e5 00       		.byte	0
 1297 04e6 00       		.byte	0
 1298 04e7 06       		.uleb128 0x6
 1299 04e8 AE060000 		.4byte	.LASF89
 1300 04ec 64       		.byte	0x64
 1301 04ed 0B       		.byte	0xb
 1302 04ee F4       		.byte	0xf4
 1303 04ef 28060000 		.4byte	0x628
 1304 04f3 12       		.uleb128 0x12
 1305 04f4 73313600 		.ascii	"s16\000"
ARM GAS  /tmp/ccuRxgwH.s 			page 24


 1306 04f8 0B       		.byte	0xb
 1307 04f9 F6       		.byte	0xf6
 1308 04fa B8040000 		.4byte	0x4b8
 1309 04fe 00       		.byte	0
 1310 04ff 12       		.uleb128 0x12
 1311 0500 73313700 		.ascii	"s17\000"
 1312 0504 0B       		.byte	0xb
 1313 0505 F7       		.byte	0xf7
 1314 0506 B8040000 		.4byte	0x4b8
 1315 050a 04       		.byte	0x4
 1316 050b 12       		.uleb128 0x12
 1317 050c 73313800 		.ascii	"s18\000"
 1318 0510 0B       		.byte	0xb
 1319 0511 F8       		.byte	0xf8
 1320 0512 B8040000 		.4byte	0x4b8
 1321 0516 08       		.byte	0x8
 1322 0517 12       		.uleb128 0x12
 1323 0518 73313900 		.ascii	"s19\000"
 1324 051c 0B       		.byte	0xb
 1325 051d F9       		.byte	0xf9
 1326 051e B8040000 		.4byte	0x4b8
 1327 0522 0C       		.byte	0xc
 1328 0523 12       		.uleb128 0x12
 1329 0524 73323000 		.ascii	"s20\000"
 1330 0528 0B       		.byte	0xb
 1331 0529 FA       		.byte	0xfa
 1332 052a B8040000 		.4byte	0x4b8
 1333 052e 10       		.byte	0x10
 1334 052f 12       		.uleb128 0x12
 1335 0530 73323100 		.ascii	"s21\000"
 1336 0534 0B       		.byte	0xb
 1337 0535 FB       		.byte	0xfb
 1338 0536 B8040000 		.4byte	0x4b8
 1339 053a 14       		.byte	0x14
 1340 053b 12       		.uleb128 0x12
 1341 053c 73323200 		.ascii	"s22\000"
 1342 0540 0B       		.byte	0xb
 1343 0541 FC       		.byte	0xfc
 1344 0542 B8040000 		.4byte	0x4b8
 1345 0546 18       		.byte	0x18
 1346 0547 12       		.uleb128 0x12
 1347 0548 73323300 		.ascii	"s23\000"
 1348 054c 0B       		.byte	0xb
 1349 054d FD       		.byte	0xfd
 1350 054e B8040000 		.4byte	0x4b8
 1351 0552 1C       		.byte	0x1c
 1352 0553 12       		.uleb128 0x12
 1353 0554 73323400 		.ascii	"s24\000"
 1354 0558 0B       		.byte	0xb
 1355 0559 FE       		.byte	0xfe
 1356 055a B8040000 		.4byte	0x4b8
 1357 055e 20       		.byte	0x20
 1358 055f 12       		.uleb128 0x12
 1359 0560 73323500 		.ascii	"s25\000"
 1360 0564 0B       		.byte	0xb
 1361 0565 FF       		.byte	0xff
 1362 0566 B8040000 		.4byte	0x4b8
ARM GAS  /tmp/ccuRxgwH.s 			page 25


 1363 056a 24       		.byte	0x24
 1364 056b 08       		.uleb128 0x8
 1365 056c 73323600 		.ascii	"s26\000"
 1366 0570 0B       		.byte	0xb
 1367 0571 0001     		.2byte	0x100
 1368 0573 B8040000 		.4byte	0x4b8
 1369 0577 28       		.byte	0x28
 1370 0578 08       		.uleb128 0x8
 1371 0579 73323700 		.ascii	"s27\000"
 1372 057d 0B       		.byte	0xb
 1373 057e 0101     		.2byte	0x101
 1374 0580 B8040000 		.4byte	0x4b8
 1375 0584 2C       		.byte	0x2c
 1376 0585 08       		.uleb128 0x8
 1377 0586 73323800 		.ascii	"s28\000"
 1378 058a 0B       		.byte	0xb
 1379 058b 0201     		.2byte	0x102
 1380 058d B8040000 		.4byte	0x4b8
 1381 0591 30       		.byte	0x30
 1382 0592 08       		.uleb128 0x8
 1383 0593 73323900 		.ascii	"s29\000"
 1384 0597 0B       		.byte	0xb
 1385 0598 0301     		.2byte	0x103
 1386 059a B8040000 		.4byte	0x4b8
 1387 059e 34       		.byte	0x34
 1388 059f 08       		.uleb128 0x8
 1389 05a0 73333000 		.ascii	"s30\000"
 1390 05a4 0B       		.byte	0xb
 1391 05a5 0401     		.2byte	0x104
 1392 05a7 B8040000 		.4byte	0x4b8
 1393 05ab 38       		.byte	0x38
 1394 05ac 08       		.uleb128 0x8
 1395 05ad 73333100 		.ascii	"s31\000"
 1396 05b1 0B       		.byte	0xb
 1397 05b2 0501     		.2byte	0x105
 1398 05b4 B8040000 		.4byte	0x4b8
 1399 05b8 3C       		.byte	0x3c
 1400 05b9 08       		.uleb128 0x8
 1401 05ba 723400   		.ascii	"r4\000"
 1402 05bd 0B       		.byte	0xb
 1403 05be 0701     		.2byte	0x107
 1404 05c0 B8040000 		.4byte	0x4b8
 1405 05c4 40       		.byte	0x40
 1406 05c5 08       		.uleb128 0x8
 1407 05c6 723500   		.ascii	"r5\000"
 1408 05c9 0B       		.byte	0xb
 1409 05ca 0801     		.2byte	0x108
 1410 05cc B8040000 		.4byte	0x4b8
 1411 05d0 44       		.byte	0x44
 1412 05d1 08       		.uleb128 0x8
 1413 05d2 723600   		.ascii	"r6\000"
 1414 05d5 0B       		.byte	0xb
 1415 05d6 0901     		.2byte	0x109
 1416 05d8 B8040000 		.4byte	0x4b8
 1417 05dc 48       		.byte	0x48
 1418 05dd 08       		.uleb128 0x8
 1419 05de 723700   		.ascii	"r7\000"
ARM GAS  /tmp/ccuRxgwH.s 			page 26


 1420 05e1 0B       		.byte	0xb
 1421 05e2 0A01     		.2byte	0x10a
 1422 05e4 B8040000 		.4byte	0x4b8
 1423 05e8 4C       		.byte	0x4c
 1424 05e9 08       		.uleb128 0x8
 1425 05ea 723800   		.ascii	"r8\000"
 1426 05ed 0B       		.byte	0xb
 1427 05ee 0B01     		.2byte	0x10b
 1428 05f0 B8040000 		.4byte	0x4b8
 1429 05f4 50       		.byte	0x50
 1430 05f5 08       		.uleb128 0x8
 1431 05f6 723900   		.ascii	"r9\000"
 1432 05f9 0B       		.byte	0xb
 1433 05fa 0C01     		.2byte	0x10c
 1434 05fc B8040000 		.4byte	0x4b8
 1435 0600 54       		.byte	0x54
 1436 0601 08       		.uleb128 0x8
 1437 0602 72313000 		.ascii	"r10\000"
 1438 0606 0B       		.byte	0xb
 1439 0607 0D01     		.2byte	0x10d
 1440 0609 B8040000 		.4byte	0x4b8
 1441 060d 58       		.byte	0x58
 1442 060e 08       		.uleb128 0x8
 1443 060f 72313100 		.ascii	"r11\000"
 1444 0613 0B       		.byte	0xb
 1445 0614 0E01     		.2byte	0x10e
 1446 0616 B8040000 		.4byte	0x4b8
 1447 061a 5C       		.byte	0x5c
 1448 061b 08       		.uleb128 0x8
 1449 061c 6C7200   		.ascii	"lr\000"
 1450 061f 0B       		.byte	0xb
 1451 0620 0F01     		.2byte	0x10f
 1452 0622 B8040000 		.4byte	0x4b8
 1453 0626 60       		.byte	0x60
 1454 0627 00       		.byte	0
 1455 0628 0A       		.uleb128 0xa
 1456 0629 04       		.byte	0x4
 1457 062a E7040000 		.4byte	0x4e7
 1458 062e 13       		.uleb128 0x13
 1459 062f 04       		.byte	0x4
 1460 0630 0C       		.byte	0xc
 1461 0631 38       		.byte	0x38
 1462 0632 43060000 		.4byte	0x643
 1463 0636 07       		.uleb128 0x7
 1464 0637 C1030000 		.4byte	.LASF90
 1465 063b 0C       		.byte	0xc
 1466 063c 3C       		.byte	0x3c
 1467 063d F5000000 		.4byte	0xf5
 1468 0641 00       		.byte	0
 1469 0642 00       		.byte	0
 1470 0643 03       		.uleb128 0x3
 1471 0644 17000000 		.4byte	.LASF91
 1472 0648 0C       		.byte	0xc
 1473 0649 3D       		.byte	0x3d
 1474 064a 2E060000 		.4byte	0x62e
 1475 064e 14       		.uleb128 0x14
 1476 064f 04       		.byte	0x4
ARM GAS  /tmp/ccuRxgwH.s 			page 27


 1477 0650 09       		.byte	0x9
 1478 0651 FA       		.byte	0xfa
 1479 0652 AB060000 		.4byte	0x6ab
 1480 0656 15       		.uleb128 0x15
 1481 0657 B1030000 		.4byte	.LASF92
 1482 065b 09       		.byte	0x9
 1483 065c 0101     		.2byte	0x101
 1484 065e 37010000 		.4byte	0x137
 1485 0662 15       		.uleb128 0x15
 1486 0663 62090000 		.4byte	.LASF93
 1487 0667 09       		.byte	0x9
 1488 0668 0801     		.2byte	0x108
 1489 066a 37010000 		.4byte	0x137
 1490 066e 15       		.uleb128 0x15
 1491 066f EF000000 		.4byte	.LASF94
 1492 0673 09       		.byte	0x9
 1493 0674 0F01     		.2byte	0x10f
 1494 0676 5B030000 		.4byte	0x35b
 1495 067a 15       		.uleb128 0x15
 1496 067b 5C090000 		.4byte	.LASF95
 1497 067f 09       		.byte	0x9
 1498 0680 1601     		.2byte	0x116
 1499 0682 AB060000 		.4byte	0x6ab
 1500 0686 15       		.uleb128 0x15
 1501 0687 C1070000 		.4byte	.LASF96
 1502 068b 09       		.byte	0x9
 1503 068c 1E01     		.2byte	0x11e
 1504 068e D6060000 		.4byte	0x6d6
 1505 0692 15       		.uleb128 0x15
 1506 0693 10000000 		.4byte	.LASF97
 1507 0697 09       		.byte	0x9
 1508 0698 2701     		.2byte	0x127
 1509 069a 0D070000 		.4byte	0x70d
 1510 069e 15       		.uleb128 0x15
 1511 069f 16010000 		.4byte	.LASF98
 1512 06a3 09       		.byte	0x9
 1513 06a4 2F01     		.2byte	0x12f
 1514 06a6 42010000 		.4byte	0x142
 1515 06aa 00       		.byte	0
 1516 06ab 0A       		.uleb128 0xa
 1517 06ac 04       		.byte	0x4
 1518 06ad 73020000 		.4byte	0x273
 1519 06b1 06       		.uleb128 0x6
 1520 06b2 B4010000 		.4byte	.LASF99
 1521 06b6 0C       		.byte	0xc
 1522 06b7 0D       		.byte	0xd
 1523 06b8 34       		.byte	0x34
 1524 06b9 D6060000 		.4byte	0x6d6
 1525 06bd 07       		.uleb128 0x7
 1526 06be 69000000 		.4byte	.LASF100
 1527 06c2 0D       		.byte	0xd
 1528 06c3 35       		.byte	0x35
 1529 06c4 A8020000 		.4byte	0x2a8
 1530 06c8 00       		.byte	0
 1531 06c9 07       		.uleb128 0x7
 1532 06ca 5F010000 		.4byte	.LASF101
 1533 06ce 0D       		.byte	0xd
ARM GAS  /tmp/ccuRxgwH.s 			page 28


 1534 06cf 37       		.byte	0x37
 1535 06d0 4D010000 		.4byte	0x14d
 1536 06d4 08       		.byte	0x8
 1537 06d5 00       		.byte	0
 1538 06d6 0A       		.uleb128 0xa
 1539 06d7 04       		.byte	0x4
 1540 06d8 B1060000 		.4byte	0x6b1
 1541 06dc 06       		.uleb128 0x6
 1542 06dd 06040000 		.4byte	.LASF102
 1543 06e1 10       		.byte	0x10
 1544 06e2 0E       		.byte	0xe
 1545 06e3 39       		.byte	0x39
 1546 06e4 0D070000 		.4byte	0x70d
 1547 06e8 07       		.uleb128 0x7
 1548 06e9 9D060000 		.4byte	.LASF103
 1549 06ed 0E       		.byte	0xe
 1550 06ee 3A       		.byte	0x3a
 1551 06ef A8020000 		.4byte	0x2a8
 1552 06f3 00       		.byte	0
 1553 06f4 07       		.uleb128 0x7
 1554 06f5 FE030000 		.4byte	.LASF104
 1555 06f9 0E       		.byte	0xe
 1556 06fa 3C       		.byte	0x3c
 1557 06fb 7E020000 		.4byte	0x27e
 1558 06ff 08       		.byte	0x8
 1559 0700 07       		.uleb128 0x7
 1560 0701 AD080000 		.4byte	.LASF105
 1561 0705 0E       		.byte	0xe
 1562 0706 3E       		.byte	0x3e
 1563 0707 50070000 		.4byte	0x750
 1564 070b 0C       		.byte	0xc
 1565 070c 00       		.byte	0
 1566 070d 0A       		.uleb128 0xa
 1567 070e 04       		.byte	0x4
 1568 070f DC060000 		.4byte	0x6dc
 1569 0713 0A       		.uleb128 0xa
 1570 0714 04       		.byte	0x4
 1571 0715 19070000 		.4byte	0x719
 1572 0719 16       		.uleb128 0x16
 1573 071a 1E070000 		.4byte	0x71e
 1574 071e 02       		.uleb128 0x2
 1575 071f 01       		.byte	0x1
 1576 0720 08       		.byte	0x8
 1577 0721 34000000 		.4byte	.LASF106
 1578 0725 05       		.uleb128 0x5
 1579 0726 58010000 		.4byte	0x158
 1580 072a 0A       		.uleb128 0xa
 1581 072b 04       		.byte	0x4
 1582 072c 5D030000 		.4byte	0x35d
 1583 0730 05       		.uleb128 0x5
 1584 0731 13070000 		.4byte	0x713
 1585 0735 10       		.uleb128 0x10
 1586 0736 C3040000 		.4byte	0x4c3
 1587 073a 45070000 		.4byte	0x745
 1588 073e 11       		.uleb128 0x11
 1589 073f 91040000 		.4byte	0x491
 1590 0743 3A       		.byte	0x3a
ARM GAS  /tmp/ccuRxgwH.s 			page 29


 1591 0744 00       		.byte	0
 1592 0745 03       		.uleb128 0x3
 1593 0746 D3070000 		.4byte	.LASF107
 1594 074a 0E       		.byte	0xe
 1595 074b 34       		.byte	0x34
 1596 074c DC060000 		.4byte	0x6dc
 1597 0750 0A       		.uleb128 0xa
 1598 0751 04       		.byte	0x4
 1599 0752 45070000 		.4byte	0x745
 1600 0756 02       		.uleb128 0x2
 1601 0757 01       		.byte	0x1
 1602 0758 02       		.byte	0x2
 1603 0759 D4030000 		.4byte	.LASF108
 1604 075d 0A       		.uleb128 0xa
 1605 075e 04       		.byte	0x4
 1606 075f F0000000 		.4byte	0xf0
 1607 0763 13       		.uleb128 0x13
 1608 0764 04       		.byte	0x4
 1609 0765 0F       		.byte	0xf
 1610 0766 B3       		.byte	0xb3
 1611 0767 84070000 		.4byte	0x784
 1612 076b 12       		.uleb128 0x12
 1613 076c 73657400 		.ascii	"set\000"
 1614 0770 0F       		.byte	0xf
 1615 0771 B4       		.byte	0xb4
 1616 0772 B4000000 		.4byte	0xb4
 1617 0776 00       		.byte	0
 1618 0777 07       		.uleb128 0x7
 1619 0778 2F060000 		.4byte	.LASF109
 1620 077c 0F       		.byte	0xf
 1621 077d B5       		.byte	0xb5
 1622 077e B4000000 		.4byte	0xb4
 1623 0782 02       		.byte	0x2
 1624 0783 00       		.byte	0
 1625 0784 14       		.uleb128 0x14
 1626 0785 04       		.byte	0x4
 1627 0786 0F       		.byte	0xf
 1628 0787 B1       		.byte	0xb1
 1629 0788 9F070000 		.4byte	0x79f
 1630 078c 17       		.uleb128 0x17
 1631 078d 5700     		.ascii	"W\000"
 1632 078f 0F       		.byte	0xf
 1633 0790 B2       		.byte	0xb2
 1634 0791 CA000000 		.4byte	0xca
 1635 0795 17       		.uleb128 0x17
 1636 0796 4800     		.ascii	"H\000"
 1637 0798 0F       		.byte	0xf
 1638 0799 B6       		.byte	0xb6
 1639 079a 63070000 		.4byte	0x763
 1640 079e 00       		.byte	0
 1641 079f 13       		.uleb128 0x13
 1642 07a0 2C       		.byte	0x2c
 1643 07a1 0F       		.byte	0xf
 1644 07a2 A9       		.byte	0xa9
 1645 07a3 2C080000 		.4byte	0x82c
 1646 07a7 07       		.uleb128 0x7
 1647 07a8 43020000 		.4byte	.LASF110
ARM GAS  /tmp/ccuRxgwH.s 			page 30


 1648 07ac 0F       		.byte	0xf
 1649 07ad AB       		.byte	0xab
 1650 07ae F0000000 		.4byte	0xf0
 1651 07b2 00       		.byte	0
 1652 07b3 07       		.uleb128 0x7
 1653 07b4 09070000 		.4byte	.LASF111
 1654 07b8 0F       		.byte	0xf
 1655 07b9 AC       		.byte	0xac
 1656 07ba F0000000 		.4byte	0xf0
 1657 07be 04       		.byte	0x4
 1658 07bf 07       		.uleb128 0x7
 1659 07c0 9A020000 		.4byte	.LASF112
 1660 07c4 0F       		.byte	0xf
 1661 07c5 AD       		.byte	0xad
 1662 07c6 F0000000 		.4byte	0xf0
 1663 07ca 08       		.byte	0x8
 1664 07cb 07       		.uleb128 0x7
 1665 07cc 4B040000 		.4byte	.LASF113
 1666 07d0 0F       		.byte	0xf
 1667 07d1 AE       		.byte	0xae
 1668 07d2 F0000000 		.4byte	0xf0
 1669 07d6 0C       		.byte	0xc
 1670 07d7 12       		.uleb128 0x12
 1671 07d8 49445200 		.ascii	"IDR\000"
 1672 07dc 0F       		.byte	0xf
 1673 07dd AF       		.byte	0xaf
 1674 07de F0000000 		.4byte	0xf0
 1675 07e2 10       		.byte	0x10
 1676 07e3 12       		.uleb128 0x12
 1677 07e4 4F445200 		.ascii	"ODR\000"
 1678 07e8 0F       		.byte	0xf
 1679 07e9 B0       		.byte	0xb0
 1680 07ea F0000000 		.4byte	0xf0
 1681 07ee 14       		.byte	0x14
 1682 07ef 07       		.uleb128 0x7
 1683 07f0 2F000000 		.4byte	.LASF114
 1684 07f4 0F       		.byte	0xf
 1685 07f5 B7       		.byte	0xb7
 1686 07f6 2C080000 		.4byte	0x82c
 1687 07fa 18       		.byte	0x18
 1688 07fb 07       		.uleb128 0x7
 1689 07fc 6B090000 		.4byte	.LASF115
 1690 0800 0F       		.byte	0xf
 1691 0801 B8       		.byte	0xb8
 1692 0802 F0000000 		.4byte	0xf0
 1693 0806 1C       		.byte	0x1c
 1694 0807 07       		.uleb128 0x7
 1695 0808 67020000 		.4byte	.LASF116
 1696 080c 0F       		.byte	0xf
 1697 080d B9       		.byte	0xb9
 1698 080e F0000000 		.4byte	0xf0
 1699 0812 20       		.byte	0x20
 1700 0813 07       		.uleb128 0x7
 1701 0814 55020000 		.4byte	.LASF117
 1702 0818 0F       		.byte	0xf
 1703 0819 BA       		.byte	0xba
 1704 081a F0000000 		.4byte	0xf0
ARM GAS  /tmp/ccuRxgwH.s 			page 31


 1705 081e 24       		.byte	0x24
 1706 081f 12       		.uleb128 0x12
 1707 0820 42525200 		.ascii	"BRR\000"
 1708 0824 0F       		.byte	0xf
 1709 0825 BB       		.byte	0xbb
 1710 0826 F0000000 		.4byte	0xf0
 1711 082a 28       		.byte	0x28
 1712 082b 00       		.byte	0
 1713 082c 05       		.uleb128 0x5
 1714 082d 84070000 		.4byte	0x784
 1715 0831 03       		.uleb128 0x3
 1716 0832 5A020000 		.4byte	.LASF118
 1717 0836 0F       		.byte	0xf
 1718 0837 BC       		.byte	0xbc
 1719 0838 9F070000 		.4byte	0x79f
 1720 083c 18       		.uleb128 0x18
 1721 083d 4B050000 		.4byte	.LASF119
 1722 0841 0F       		.byte	0xf
 1723 0842 0E01     		.2byte	0x10e
 1724 0844 CA000000 		.4byte	0xca
 1725 0848 18       		.uleb128 0x18
 1726 0849 A4080000 		.4byte	.LASF120
 1727 084d 0F       		.byte	0xf
 1728 084e 1301     		.2byte	0x113
 1729 0850 CA000000 		.4byte	0xca
 1730 0854 18       		.uleb128 0x18
 1731 0855 30040000 		.4byte	.LASF121
 1732 0859 0F       		.byte	0xf
 1733 085a 1B01     		.2byte	0x11b
 1734 085c 60080000 		.4byte	0x860
 1735 0860 0A       		.uleb128 0xa
 1736 0861 04       		.byte	0x4
 1737 0862 31080000 		.4byte	0x831
 1738 0866 19       		.uleb128 0x19
 1739 0867 01       		.byte	0x1
 1740 0868 10       		.byte	0x10
 1741 0869 31       		.byte	0x31
 1742 086a 8D080000 		.4byte	0x88d
 1743 086e 1A       		.uleb128 0x1a
 1744 086f C8070000 		.4byte	.LASF122
 1745 0873 00       		.sleb128 0
 1746 0874 1A       		.uleb128 0x1a
 1747 0875 40010000 		.4byte	.LASF123
 1748 0879 01       		.sleb128 1
 1749 087a 1A       		.uleb128 0x1a
 1750 087b 5C070000 		.4byte	.LASF124
 1751 087f 02       		.sleb128 2
 1752 0880 1A       		.uleb128 0x1a
 1753 0881 53000000 		.4byte	.LASF125
 1754 0885 03       		.sleb128 3
 1755 0886 1A       		.uleb128 0x1a
 1756 0887 DB070000 		.4byte	.LASF126
 1757 088b 04       		.sleb128 4
 1758 088c 00       		.byte	0
 1759 088d 03       		.uleb128 0x3
 1760 088e 32050000 		.4byte	.LASF127
 1761 0892 10       		.byte	0x10
ARM GAS  /tmp/ccuRxgwH.s 			page 32


 1762 0893 37       		.byte	0x37
 1763 0894 66080000 		.4byte	0x866
 1764 0898 03       		.uleb128 0x3
 1765 0899 75080000 		.4byte	.LASF128
 1766 089d 10       		.byte	0x10
 1767 089e 3C       		.byte	0x3c
 1768 089f A3080000 		.4byte	0x8a3
 1769 08a3 0B       		.uleb128 0xb
 1770 08a4 75080000 		.4byte	.LASF128
 1771 08a8 18       		.byte	0x18
 1772 08a9 11       		.byte	0x11
 1773 08aa 3101     		.2byte	0x131
 1774 08ac FF080000 		.4byte	0x8ff
 1775 08b0 09       		.uleb128 0x9
 1776 08b1 52080000 		.4byte	.LASF129
 1777 08b5 11       		.byte	0x11
 1778 08b6 3501     		.2byte	0x135
 1779 08b8 8D080000 		.4byte	0x88d
 1780 08bc 00       		.byte	0
 1781 08bd 09       		.uleb128 0x9
 1782 08be 35060000 		.4byte	.LASF130
 1783 08c2 11       		.byte	0x11
 1784 08c3 3901     		.2byte	0x139
 1785 08c5 FF0A0000 		.4byte	0xaff
 1786 08c9 04       		.byte	0x4
 1787 08ca 09       		.uleb128 0x9
 1788 08cb 45040000 		.4byte	.LASF131
 1789 08cf 11       		.byte	0x11
 1790 08d0 4101     		.2byte	0x141
 1791 08d2 CA000000 		.4byte	0xca
 1792 08d6 08       		.byte	0x8
 1793 08d7 08       		.uleb128 0x8
 1794 08d8 74696D00 		.ascii	"tim\000"
 1795 08dc 11       		.byte	0x11
 1796 08dd 4501     		.2byte	0x145
 1797 08df 0A0B0000 		.4byte	0xb0a
 1798 08e3 0C       		.byte	0xc
 1799 08e4 09       		.uleb128 0x9
 1800 08e5 DA030000 		.4byte	.LASF132
 1801 08e9 11       		.byte	0x11
 1802 08ea 4901     		.2byte	0x149
 1803 08ec 5D070000 		.4byte	0x75d
 1804 08f0 10       		.byte	0x10
 1805 08f1 09       		.uleb128 0x9
 1806 08f2 8B080000 		.4byte	.LASF133
 1807 08f6 11       		.byte	0x11
 1808 08f7 4D01     		.2byte	0x14d
 1809 08f9 5D070000 		.4byte	0x75d
 1810 08fd 14       		.byte	0x14
 1811 08fe 00       		.byte	0
 1812 08ff 03       		.uleb128 0x3
 1813 0900 B4080000 		.4byte	.LASF134
 1814 0904 10       		.byte	0x10
 1815 0905 43       		.byte	0x43
 1816 0906 0A090000 		.4byte	0x90a
 1817 090a 0A       		.uleb128 0xa
 1818 090b 04       		.byte	0x4
ARM GAS  /tmp/ccuRxgwH.s 			page 33


 1819 090c 10090000 		.4byte	0x910
 1820 0910 0C       		.uleb128 0xc
 1821 0911 1B090000 		.4byte	0x91b
 1822 0915 0D       		.uleb128 0xd
 1823 0916 1B090000 		.4byte	0x91b
 1824 091a 00       		.byte	0
 1825 091b 0A       		.uleb128 0xa
 1826 091c 04       		.byte	0x4
 1827 091d 98080000 		.4byte	0x898
 1828 0921 1B       		.uleb128 0x1b
 1829 0922 60       		.byte	0x60
 1830 0923 12       		.byte	0x12
 1831 0924 9E01     		.2byte	0x19e
 1832 0926 2D0A0000 		.4byte	0xa2d
 1833 092a 08       		.uleb128 0x8
 1834 092b 43523100 		.ascii	"CR1\000"
 1835 092f 12       		.byte	0x12
 1836 0930 9F01     		.2byte	0x19f
 1837 0932 F0000000 		.4byte	0xf0
 1838 0936 00       		.byte	0
 1839 0937 08       		.uleb128 0x8
 1840 0938 43523200 		.ascii	"CR2\000"
 1841 093c 12       		.byte	0x12
 1842 093d A001     		.2byte	0x1a0
 1843 093f F0000000 		.4byte	0xf0
 1844 0943 04       		.byte	0x4
 1845 0944 09       		.uleb128 0x9
 1846 0945 C9040000 		.4byte	.LASF135
 1847 0949 12       		.byte	0x12
 1848 094a A101     		.2byte	0x1a1
 1849 094c F0000000 		.4byte	0xf0
 1850 0950 08       		.byte	0x8
 1851 0951 09       		.uleb128 0x9
 1852 0952 2B040000 		.4byte	.LASF136
 1853 0956 12       		.byte	0x12
 1854 0957 A201     		.2byte	0x1a2
 1855 0959 F0000000 		.4byte	0xf0
 1856 095d 0C       		.byte	0xc
 1857 095e 08       		.uleb128 0x8
 1858 095f 535200   		.ascii	"SR\000"
 1859 0962 12       		.byte	0x12
 1860 0963 A301     		.2byte	0x1a3
 1861 0965 F0000000 		.4byte	0xf0
 1862 0969 10       		.byte	0x10
 1863 096a 08       		.uleb128 0x8
 1864 096b 45475200 		.ascii	"EGR\000"
 1865 096f 12       		.byte	0x12
 1866 0970 A401     		.2byte	0x1a4
 1867 0972 F0000000 		.4byte	0xf0
 1868 0976 14       		.byte	0x14
 1869 0977 09       		.uleb128 0x9
 1870 0978 DA010000 		.4byte	.LASF137
 1871 097c 12       		.byte	0x12
 1872 097d A501     		.2byte	0x1a5
 1873 097f F0000000 		.4byte	0xf0
 1874 0983 18       		.byte	0x18
 1875 0984 09       		.uleb128 0x9
ARM GAS  /tmp/ccuRxgwH.s 			page 34


 1876 0985 E0010000 		.4byte	.LASF138
 1877 0989 12       		.byte	0x12
 1878 098a A601     		.2byte	0x1a6
 1879 098c F0000000 		.4byte	0xf0
 1880 0990 1C       		.byte	0x1c
 1881 0991 09       		.uleb128 0x9
 1882 0992 5E040000 		.4byte	.LASF139
 1883 0996 12       		.byte	0x12
 1884 0997 A701     		.2byte	0x1a7
 1885 0999 F0000000 		.4byte	0xf0
 1886 099d 20       		.byte	0x20
 1887 099e 08       		.uleb128 0x8
 1888 099f 434E5400 		.ascii	"CNT\000"
 1889 09a3 12       		.byte	0x12
 1890 09a4 A801     		.2byte	0x1a8
 1891 09a6 F0000000 		.4byte	0xf0
 1892 09aa 24       		.byte	0x24
 1893 09ab 08       		.uleb128 0x8
 1894 09ac 50534300 		.ascii	"PSC\000"
 1895 09b0 12       		.byte	0x12
 1896 09b1 A901     		.2byte	0x1a9
 1897 09b3 F0000000 		.4byte	0xf0
 1898 09b7 28       		.byte	0x28
 1899 09b8 08       		.uleb128 0x8
 1900 09b9 41525200 		.ascii	"ARR\000"
 1901 09bd 12       		.byte	0x12
 1902 09be AA01     		.2byte	0x1aa
 1903 09c0 F0000000 		.4byte	0xf0
 1904 09c4 2C       		.byte	0x2c
 1905 09c5 08       		.uleb128 0x8
 1906 09c6 52435200 		.ascii	"RCR\000"
 1907 09ca 12       		.byte	0x12
 1908 09cb AB01     		.2byte	0x1ab
 1909 09cd F0000000 		.4byte	0xf0
 1910 09d1 30       		.byte	0x30
 1911 09d2 08       		.uleb128 0x8
 1912 09d3 43435200 		.ascii	"CCR\000"
 1913 09d7 12       		.byte	0x12
 1914 09d8 AC01     		.2byte	0x1ac
 1915 09da 2D0A0000 		.4byte	0xa2d
 1916 09de 34       		.byte	0x34
 1917 09df 09       		.uleb128 0x9
 1918 09e0 98010000 		.4byte	.LASF140
 1919 09e4 12       		.byte	0x12
 1920 09e5 AD01     		.2byte	0x1ad
 1921 09e7 F0000000 		.4byte	0xf0
 1922 09eb 44       		.byte	0x44
 1923 09ec 08       		.uleb128 0x8
 1924 09ed 44435200 		.ascii	"DCR\000"
 1925 09f1 12       		.byte	0x12
 1926 09f2 AE01     		.2byte	0x1ae
 1927 09f4 F0000000 		.4byte	0xf0
 1928 09f8 48       		.byte	0x48
 1929 09f9 09       		.uleb128 0x9
 1930 09fa 30010000 		.4byte	.LASF141
 1931 09fe 12       		.byte	0x12
 1932 09ff AF01     		.2byte	0x1af
ARM GAS  /tmp/ccuRxgwH.s 			page 35


 1933 0a01 F0000000 		.4byte	0xf0
 1934 0a05 4C       		.byte	0x4c
 1935 0a06 08       		.uleb128 0x8
 1936 0a07 4F5200   		.ascii	"OR\000"
 1937 0a0a 12       		.byte	0x12
 1938 0a0b B001     		.2byte	0x1b0
 1939 0a0d F0000000 		.4byte	0xf0
 1940 0a11 50       		.byte	0x50
 1941 0a12 09       		.uleb128 0x9
 1942 0a13 E6010000 		.4byte	.LASF142
 1943 0a17 12       		.byte	0x12
 1944 0a18 B101     		.2byte	0x1b1
 1945 0a1a F0000000 		.4byte	0xf0
 1946 0a1e 54       		.byte	0x54
 1947 0a1f 09       		.uleb128 0x9
 1948 0a20 2A060000 		.4byte	.LASF143
 1949 0a24 12       		.byte	0x12
 1950 0a25 B201     		.2byte	0x1b2
 1951 0a27 320A0000 		.4byte	0xa32
 1952 0a2b 58       		.byte	0x58
 1953 0a2c 00       		.byte	0
 1954 0a2d 05       		.uleb128 0x5
 1955 0a2e A8040000 		.4byte	0x4a8
 1956 0a32 05       		.uleb128 0x5
 1957 0a33 98040000 		.4byte	0x498
 1958 0a37 18       		.uleb128 0x18
 1959 0a38 C8030000 		.4byte	.LASF144
 1960 0a3c 12       		.byte	0x12
 1961 0a3d B301     		.2byte	0x1b3
 1962 0a3f 21090000 		.4byte	0x921
 1963 0a43 19       		.uleb128 0x19
 1964 0a44 01       		.byte	0x1
 1965 0a45 11       		.byte	0x11
 1966 0a46 EE       		.byte	0xee
 1967 0a47 580A0000 		.4byte	0xa58
 1968 0a4b 1A       		.uleb128 0x1a
 1969 0a4c 77050000 		.4byte	.LASF145
 1970 0a50 00       		.sleb128 0
 1971 0a51 1A       		.uleb128 0x1a
 1972 0a52 58080000 		.4byte	.LASF146
 1973 0a56 01       		.sleb128 1
 1974 0a57 00       		.byte	0
 1975 0a58 03       		.uleb128 0x3
 1976 0a59 42070000 		.4byte	.LASF147
 1977 0a5d 11       		.byte	0x11
 1978 0a5e F1       		.byte	0xf1
 1979 0a5f 430A0000 		.4byte	0xa43
 1980 0a63 03       		.uleb128 0x3
 1981 0a64 66070000 		.4byte	.LASF148
 1982 0a68 11       		.byte	0x11
 1983 0a69 F6       		.byte	0xf6
 1984 0a6a CA000000 		.4byte	0xca
 1985 0a6e 19       		.uleb128 0x19
 1986 0a6f 01       		.byte	0x1
 1987 0a70 11       		.byte	0x11
 1988 0a71 FB       		.byte	0xfb
 1989 0a72 830A0000 		.4byte	0xa83
ARM GAS  /tmp/ccuRxgwH.s 			page 36


 1990 0a76 1A       		.uleb128 0x1a
 1991 0a77 C7060000 		.4byte	.LASF149
 1992 0a7b 00       		.sleb128 0
 1993 0a7c 1A       		.uleb128 0x1a
 1994 0a7d D5060000 		.4byte	.LASF150
 1995 0a81 01       		.sleb128 1
 1996 0a82 00       		.byte	0
 1997 0a83 03       		.uleb128 0x3
 1998 0a84 D5050000 		.4byte	.LASF151
 1999 0a88 11       		.byte	0x11
 2000 0a89 FE       		.byte	0xfe
 2001 0a8a 6E0A0000 		.4byte	0xa6e
 2002 0a8e 1B       		.uleb128 0x1b
 2003 0a8f 1C       		.byte	0x1c
 2004 0a90 11       		.byte	0x11
 2005 0a91 0901     		.2byte	0x109
 2006 0a93 F30A0000 		.4byte	0xaf3
 2007 0a97 09       		.uleb128 0x9
 2008 0a98 1D010000 		.4byte	.LASF152
 2009 0a9c 11       		.byte	0x11
 2010 0a9d 0D01     		.2byte	0x10d
 2011 0a9f 580A0000 		.4byte	0xa58
 2012 0aa3 00       		.byte	0
 2013 0aa4 09       		.uleb128 0x9
 2014 0aa5 48080000 		.4byte	.LASF153
 2015 0aa9 11       		.byte	0x11
 2016 0aaa 1301     		.2byte	0x113
 2017 0aac 630A0000 		.4byte	0xa63
 2018 0ab0 04       		.byte	0x4
 2019 0ab1 09       		.uleb128 0x9
 2020 0ab2 8D050000 		.4byte	.LASF154
 2021 0ab6 11       		.byte	0x11
 2022 0ab7 1701     		.2byte	0x117
 2023 0ab9 FF080000 		.4byte	0x8ff
 2024 0abd 08       		.byte	0x8
 2025 0abe 09       		.uleb128 0x9
 2026 0abf A4010000 		.4byte	.LASF155
 2027 0ac3 11       		.byte	0x11
 2028 0ac4 1B01     		.2byte	0x11b
 2029 0ac6 FF080000 		.4byte	0x8ff
 2030 0aca 0C       		.byte	0xc
 2031 0acb 09       		.uleb128 0x9
 2032 0acc AB040000 		.4byte	.LASF156
 2033 0ad0 11       		.byte	0x11
 2034 0ad1 1F01     		.2byte	0x11f
 2035 0ad3 FF080000 		.4byte	0x8ff
 2036 0ad7 10       		.byte	0x10
 2037 0ad8 09       		.uleb128 0x9
 2038 0ad9 1D060000 		.4byte	.LASF157
 2039 0add 11       		.byte	0x11
 2040 0ade 2501     		.2byte	0x125
 2041 0ae0 830A0000 		.4byte	0xa83
 2042 0ae4 14       		.byte	0x14
 2043 0ae5 09       		.uleb128 0x9
 2044 0ae6 25060000 		.4byte	.LASF158
 2045 0aea 11       		.byte	0x11
 2046 0aeb 2B01     		.2byte	0x12b
ARM GAS  /tmp/ccuRxgwH.s 			page 37


 2047 0aed CA000000 		.4byte	0xca
 2048 0af1 18       		.byte	0x18
 2049 0af2 00       		.byte	0
 2050 0af3 18       		.uleb128 0x18
 2051 0af4 E7040000 		.4byte	.LASF159
 2052 0af8 11       		.byte	0x11
 2053 0af9 2C01     		.2byte	0x12c
 2054 0afb 8E0A0000 		.4byte	0xa8e
 2055 0aff 0A       		.uleb128 0xa
 2056 0b00 04       		.byte	0x4
 2057 0b01 050B0000 		.4byte	0xb05
 2058 0b05 16       		.uleb128 0x16
 2059 0b06 F30A0000 		.4byte	0xaf3
 2060 0b0a 0A       		.uleb128 0xa
 2061 0b0b 04       		.byte	0x4
 2062 0b0c 370A0000 		.4byte	0xa37
 2063 0b10 1C       		.uleb128 0x1c
 2064 0b11 10070000 		.4byte	.LASF163
 2065 0b15 02       		.byte	0x2
 2066 0b16 2002     		.2byte	0x220
 2067 0b18 03       		.byte	0x3
 2068 0b19 2A0B0000 		.4byte	0xb2a
 2069 0b1d 1D       		.uleb128 0x1d
 2070 0b1e 74020000 		.4byte	.LASF169
 2071 0b22 02       		.byte	0x2
 2072 0b23 2002     		.2byte	0x220
 2073 0b25 CA000000 		.4byte	0xca
 2074 0b29 00       		.byte	0
 2075 0b2a 1E       		.uleb128 0x1e
 2076 0b2b F6000000 		.4byte	.LASF160
 2077 0b2f 0B       		.byte	0xb
 2078 0b30 BC01     		.2byte	0x1bc
 2079 0b32 03       		.byte	0x3
 2080 0b33 1E       		.uleb128 0x1e
 2081 0b34 48090000 		.4byte	.LASF161
 2082 0b38 0B       		.byte	0xb
 2083 0b39 CA01     		.2byte	0x1ca
 2084 0b3b 03       		.byte	0x3
 2085 0b3c 1E       		.uleb128 0x1e
 2086 0b3d 3B040000 		.4byte	.LASF162
 2087 0b41 13       		.byte	0x13
 2088 0b42 5A01     		.2byte	0x15a
 2089 0b44 03       		.byte	0x3
 2090 0b45 1F       		.uleb128 0x1f
 2091 0b46 35090000 		.4byte	.LASF202
 2092 0b4a 03       		.byte	0x3
 2093 0b4b E4       		.byte	0xe4
 2094 0b4c 58010000 		.4byte	0x158
 2095 0b50 03       		.byte	0x3
 2096 0b51 1C       		.uleb128 0x1c
 2097 0b52 49020000 		.4byte	.LASF164
 2098 0b56 13       		.byte	0x13
 2099 0b57 6601     		.2byte	0x166
 2100 0b59 03       		.byte	0x3
 2101 0b5a 6C0B0000 		.4byte	0xb6c
 2102 0b5e 20       		.uleb128 0x20
 2103 0b5f 24090000 		.4byte	.LASF165
ARM GAS  /tmp/ccuRxgwH.s 			page 38


 2104 0b63 7C0B0000 		.4byte	0xb7c
 2105 0b67 49020000 		.4byte	.LASF164
 2106 0b6b 00       		.byte	0
 2107 0b6c 10       		.uleb128 0x10
 2108 0b6d 1E070000 		.4byte	0x71e
 2109 0b71 7C0B0000 		.4byte	0xb7c
 2110 0b75 11       		.uleb128 0x11
 2111 0b76 91040000 		.4byte	0x491
 2112 0b7a 0B       		.byte	0xb
 2113 0b7b 00       		.byte	0
 2114 0b7c 16       		.uleb128 0x16
 2115 0b7d 6C0B0000 		.4byte	0xb6c
 2116 0b81 21       		.uleb128 0x21
 2117 0b82 14050000 		.4byte	.LASF167
 2118 0b86 03       		.byte	0x3
 2119 0b87 F7       		.byte	0xf7
 2120 0b88 58010000 		.4byte	0x158
 2121 0b8c 03       		.byte	0x3
 2122 0b8d 9D0B0000 		.4byte	0xb9d
 2123 0b91 22       		.uleb128 0x22
 2124 0b92 C2050000 		.4byte	.LASF166
 2125 0b96 03       		.byte	0x3
 2126 0b97 F8       		.byte	0xf8
 2127 0b98 58010000 		.4byte	0x158
 2128 0b9c 00       		.byte	0
 2129 0b9d 23       		.uleb128 0x23
 2130 0b9e 49010000 		.4byte	.LASF168
 2131 0ba2 03       		.byte	0x3
 2132 0ba3 0901     		.2byte	0x109
 2133 0ba5 58010000 		.4byte	0x158
 2134 0ba9 03       		.byte	0x3
 2135 0baa BB0B0000 		.4byte	0xbbb
 2136 0bae 1D       		.uleb128 0x1d
 2137 0baf 56070000 		.4byte	.LASF170
 2138 0bb3 03       		.byte	0x3
 2139 0bb4 0901     		.2byte	0x109
 2140 0bb6 58010000 		.4byte	0x158
 2141 0bba 00       		.byte	0
 2142 0bbb 24       		.uleb128 0x24
 2143 0bbc E0030000 		.4byte	.LASF171
 2144 0bc0 01       		.byte	0x1
 2145 0bc1 59       		.byte	0x59
 2146 0bc2 00000000 		.4byte	.LFB257
 2147 0bc6 02000000 		.4byte	.LFE257-.LFB257
 2148 0bca 01       		.uleb128 0x1
 2149 0bcb 9C       		.byte	0x9c
 2150 0bcc DE0B0000 		.4byte	0xbde
 2151 0bd0 25       		.uleb128 0x25
 2152 0bd1 7E010000 		.4byte	.LASF173
 2153 0bd5 01       		.byte	0x1
 2154 0bd6 59       		.byte	0x59
 2155 0bd7 1B090000 		.4byte	0x91b
 2156 0bdb 01       		.uleb128 0x1
 2157 0bdc 50       		.byte	0x50
 2158 0bdd 00       		.byte	0
 2159 0bde 26       		.uleb128 0x26
 2160 0bdf F5080000 		.4byte	.LASF172
ARM GAS  /tmp/ccuRxgwH.s 			page 39


 2161 0be3 01       		.byte	0x1
 2162 0be4 2D       		.byte	0x2d
 2163 0be5 00000000 		.4byte	.LFB256
 2164 0be9 30010000 		.4byte	.LFE256-.LFB256
 2165 0bed 01       		.uleb128 0x1
 2166 0bee 9C       		.byte	0x9c
 2167 0bef 2A0D0000 		.4byte	0xd2a
 2168 0bf3 27       		.uleb128 0x27
 2169 0bf4 7E010000 		.4byte	.LASF173
 2170 0bf8 01       		.byte	0x1
 2171 0bf9 2D       		.byte	0x2d
 2172 0bfa 1B090000 		.4byte	0x91b
 2173 0bfe 00000000 		.4byte	.LLST0
 2174 0c02 28       		.uleb128 0x28
 2175 0c03 6C656E00 		.ascii	"len\000"
 2176 0c07 01       		.byte	0x1
 2177 0c08 2F       		.byte	0x2f
 2178 0c09 25000000 		.4byte	0x25
 2179 0c0d 21000000 		.4byte	.LLST1
 2180 0c11 29       		.uleb128 0x29
 2181 0c12 25070000 		.4byte	.LASF174
 2182 0c16 01       		.byte	0x1
 2183 0c17 30       		.byte	0x30
 2184 0c18 2A0D0000 		.4byte	0xd2a
 2185 0c1c 41000000 		.4byte	.LLST2
 2186 0c20 2A       		.uleb128 0x2a
 2187 0c21 00000000 		.4byte	.Ldebug_ranges0+0
 2188 0c25 760C0000 		.4byte	0xc76
 2189 0c29 2B       		.uleb128 0x2b
 2190 0c2a 6300     		.ascii	"c\000"
 2191 0c2c 01       		.byte	0x1
 2192 0c2d 44       		.byte	0x44
 2193 0c2e 25000000 		.4byte	0x25
 2194 0c32 02       		.uleb128 0x2
 2195 0c33 90       		.byte	0x90
 2196 0c34 50       		.uleb128 0x50
 2197 0c35 2B       		.uleb128 0x2b
 2198 0c36 633100   		.ascii	"c1\000"
 2199 0c39 01       		.byte	0x1
 2200 0c3a 45       		.byte	0x45
 2201 0c3b 25000000 		.4byte	0x25
 2202 0c3f 05       		.uleb128 0x5
 2203 0c40 03       		.byte	0x3
 2204 0c41 00000000 		.4byte	c1.9217
 2205 0c45 2B       		.uleb128 0x2b
 2206 0c46 633200   		.ascii	"c2\000"
 2207 0c49 01       		.byte	0x1
 2208 0c4a 46       		.byte	0x46
 2209 0c4b 25000000 		.4byte	0x25
 2210 0c4f 05       		.uleb128 0x5
 2211 0c50 03       		.byte	0x3
 2212 0c51 00000000 		.4byte	c2.9218
 2213 0c55 2B       		.uleb128 0x2b
 2214 0c56 6D656400 		.ascii	"med\000"
 2215 0c5a 01       		.byte	0x1
 2216 0c5b 47       		.byte	0x47
 2217 0c5c 25000000 		.4byte	0x25
ARM GAS  /tmp/ccuRxgwH.s 			page 40


 2218 0c60 02       		.uleb128 0x2
 2219 0c61 90       		.byte	0x90
 2220 0c62 40       		.uleb128 0x40
 2221 0c63 2C       		.uleb128 0x2c
 2222 0c64 E8000000 		.4byte	.LVL14
 2223 0c68 C80F0000 		.4byte	0xfc8
 2224 0c6c 2D       		.uleb128 0x2d
 2225 0c6d 02       		.uleb128 0x2
 2226 0c6e 90       		.byte	0x90
 2227 0c6f 40       		.uleb128 0x40
 2228 0c70 03       		.uleb128 0x3
 2229 0c71 F5       		.byte	0xf5
 2230 0c72 50       		.uleb128 0x50
 2231 0c73 25       		.uleb128 0x25
 2232 0c74 00       		.byte	0
 2233 0c75 00       		.byte	0
 2234 0c76 2E       		.uleb128 0x2e
 2235 0c77 810B0000 		.4byte	0xb81
 2236 0c7b 80000000 		.4byte	.LBB47
 2237 0c7f 10000000 		.4byte	.LBE47-.LBB47
 2238 0c83 01       		.byte	0x1
 2239 0c84 51       		.byte	0x51
 2240 0c85 2F       		.uleb128 0x2f
 2241 0c86 80000000 		.4byte	.LBB48
 2242 0c8a 10000000 		.4byte	.LBE48-.LBB48
 2243 0c8e 30       		.uleb128 0x30
 2244 0c8f 910B0000 		.4byte	0xb91
 2245 0c93 31       		.uleb128 0x31
 2246 0c94 3C0B0000 		.4byte	0xb3c
 2247 0c98 80000000 		.4byte	.LBB49
 2248 0c9c 06000000 		.4byte	.LBE49-.LBB49
 2249 0ca0 03       		.byte	0x3
 2250 0ca1 FA       		.byte	0xfa
 2251 0ca2 D20C0000 		.4byte	0xcd2
 2252 0ca6 32       		.uleb128 0x32
 2253 0ca7 2A0B0000 		.4byte	0xb2a
 2254 0cab 80000000 		.4byte	.LBB50
 2255 0caf 06000000 		.4byte	.LBE50-.LBB50
 2256 0cb3 13       		.byte	0x13
 2257 0cb4 5C01     		.2byte	0x15c
 2258 0cb6 32       		.uleb128 0x32
 2259 0cb7 100B0000 		.4byte	0xb10
 2260 0cbb 80000000 		.4byte	.LBB51
 2261 0cbf 06000000 		.4byte	.LBE51-.LBB51
 2262 0cc3 0B       		.byte	0xb
 2263 0cc4 BF01     		.2byte	0x1bf
 2264 0cc6 33       		.uleb128 0x33
 2265 0cc7 1D0B0000 		.4byte	0xb1d
 2266 0ccb 61000000 		.4byte	.LLST3
 2267 0ccf 00       		.byte	0
 2268 0cd0 00       		.byte	0
 2269 0cd1 00       		.byte	0
 2270 0cd2 34       		.uleb128 0x34
 2271 0cd3 450B0000 		.4byte	0xb45
 2272 0cd7 86000000 		.4byte	.LBB53
 2273 0cdb 18000000 		.4byte	.Ldebug_ranges0+0x18
 2274 0cdf 03       		.byte	0x3
ARM GAS  /tmp/ccuRxgwH.s 			page 41


 2275 0ce0 FB       		.byte	0xfb
 2276 0ce1 35       		.uleb128 0x35
 2277 0ce2 510B0000 		.4byte	0xb51
 2278 0ce6 88000000 		.4byte	.LBB56
 2279 0cea 30000000 		.4byte	.Ldebug_ranges0+0x30
 2280 0cee 03       		.byte	0x3
 2281 0cef FC       		.byte	0xfc
 2282 0cf0 36       		.uleb128 0x36
 2283 0cf1 30000000 		.4byte	.Ldebug_ranges0+0x30
 2284 0cf5 30       		.uleb128 0x30
 2285 0cf6 5E0B0000 		.4byte	0xb5e
 2286 0cfa 37       		.uleb128 0x37
 2287 0cfb 330B0000 		.4byte	0xb33
 2288 0cff 88000000 		.4byte	.LBB58
 2289 0d03 30000000 		.4byte	.Ldebug_ranges0+0x30
 2290 0d07 13       		.byte	0x13
 2291 0d08 7301     		.2byte	0x173
 2292 0d0a 37       		.uleb128 0x37
 2293 0d0b 100B0000 		.4byte	0xb10
 2294 0d0f 88000000 		.4byte	.LBB59
 2295 0d13 30000000 		.4byte	.Ldebug_ranges0+0x30
 2296 0d17 0B       		.byte	0xb
 2297 0d18 CD01     		.2byte	0x1cd
 2298 0d1a 33       		.uleb128 0x33
 2299 0d1b 1D0B0000 		.4byte	0xb1d
 2300 0d1f 76000000 		.4byte	.LLST4
 2301 0d23 00       		.byte	0
 2302 0d24 00       		.byte	0
 2303 0d25 00       		.byte	0
 2304 0d26 00       		.byte	0
 2305 0d27 00       		.byte	0
 2306 0d28 00       		.byte	0
 2307 0d29 00       		.byte	0
 2308 0d2a 16       		.uleb128 0x16
 2309 0d2b 25000000 		.4byte	0x25
 2310 0d2f 38       		.uleb128 0x38
 2311 0d30 9C030000 		.4byte	.LASF176
 2312 0d34 01       		.byte	0x1
 2313 0d35 6E       		.byte	0x6e
 2314 0d36 00000000 		.4byte	.LFB258
 2315 0d3a 58000000 		.4byte	.LFE258-.LFB258
 2316 0d3e 01       		.uleb128 0x1
 2317 0d3f 9C       		.byte	0x9c
 2318 0d40 D00D0000 		.4byte	0xdd0
 2319 0d44 27       		.uleb128 0x27
 2320 0d45 70050000 		.4byte	.LASF175
 2321 0d49 01       		.byte	0x1
 2322 0d4a 6E       		.byte	0x6e
 2323 0d4b D10D0000 		.4byte	0xdd1
 2324 0d4f 8A000000 		.4byte	.LLST5
 2325 0d53 2A       		.uleb128 0x2a
 2326 0d54 48000000 		.4byte	.Ldebug_ranges0+0x48
 2327 0d58 6A0D0000 		.4byte	0xd6a
 2328 0d5c 28       		.uleb128 0x28
 2329 0d5d 6900     		.ascii	"i\000"
 2330 0d5f 01       		.byte	0x1
 2331 0d60 74       		.byte	0x74
ARM GAS  /tmp/ccuRxgwH.s 			page 42


 2332 0d61 9B000000 		.4byte	0x9b
 2333 0d65 B7000000 		.4byte	.LLST6
 2334 0d69 00       		.byte	0
 2335 0d6a 39       		.uleb128 0x39
 2336 0d6b 0E000000 		.4byte	.LVL17
 2337 0d6f E70F0000 		.4byte	0xfe7
 2338 0d73 870D0000 		.4byte	0xd87
 2339 0d77 2D       		.uleb128 0x2d
 2340 0d78 01       		.uleb128 0x1
 2341 0d79 51       		.byte	0x51
 2342 0d7a 05       		.uleb128 0x5
 2343 0d7b 03       		.byte	0x3
 2344 0d7c 00000000 		.4byte	.LANCHOR9
 2345 0d80 2D       		.uleb128 0x2d
 2346 0d81 01       		.uleb128 0x1
 2347 0d82 50       		.byte	0x50
 2348 0d83 02       		.uleb128 0x2
 2349 0d84 74       		.byte	0x74
 2350 0d85 00       		.sleb128 0
 2351 0d86 00       		.byte	0
 2352 0d87 39       		.uleb128 0x39
 2353 0d88 1A000000 		.4byte	.LVL18
 2354 0d8c FD0F0000 		.4byte	0xffd
 2355 0d90 AB0D0000 		.4byte	0xdab
 2356 0d94 2D       		.uleb128 0x2d
 2357 0d95 01       		.uleb128 0x1
 2358 0d96 52       		.byte	0x52
 2359 0d97 03       		.uleb128 0x3
 2360 0d98 0A       		.byte	0xa
 2361 0d99 0201     		.2byte	0x102
 2362 0d9b 2D       		.uleb128 0x2d
 2363 0d9c 01       		.uleb128 0x1
 2364 0d9d 51       		.byte	0x51
 2365 0d9e 02       		.uleb128 0x2
 2366 0d9f 08       		.byte	0x8
 2367 0da0 20       		.byte	0x20
 2368 0da1 2D       		.uleb128 0x2d
 2369 0da2 01       		.uleb128 0x1
 2370 0da3 50       		.byte	0x50
 2371 0da4 05       		.uleb128 0x5
 2372 0da5 0C       		.byte	0xc
 2373 0da6 00040240 		.4byte	0x40020400
 2374 0daa 00       		.byte	0
 2375 0dab 39       		.uleb128 0x39
 2376 0dac 20000000 		.4byte	.LVL19
 2377 0db0 19100000 		.4byte	0x1019
 2378 0db4 BF0D0000 		.4byte	0xdbf
 2379 0db8 2D       		.uleb128 0x2d
 2380 0db9 01       		.uleb128 0x1
 2381 0dba 50       		.byte	0x50
 2382 0dbb 02       		.uleb128 0x2
 2383 0dbc 74       		.byte	0x74
 2384 0dbd 00       		.sleb128 0
 2385 0dbe 00       		.byte	0
 2386 0dbf 2C       		.uleb128 0x2c
 2387 0dc0 26000000 		.4byte	.LVL20
 2388 0dc4 2A100000 		.4byte	0x102a
ARM GAS  /tmp/ccuRxgwH.s 			page 43


 2389 0dc8 2D       		.uleb128 0x2d
 2390 0dc9 01       		.uleb128 0x1
 2391 0dca 50       		.byte	0x50
 2392 0dcb 02       		.uleb128 0x2
 2393 0dcc 74       		.byte	0x74
 2394 0dcd 00       		.sleb128 0
 2395 0dce 00       		.byte	0
 2396 0dcf 00       		.byte	0
 2397 0dd0 3A       		.uleb128 0x3a
 2398 0dd1 0A       		.uleb128 0xa
 2399 0dd2 04       		.byte	0x4
 2400 0dd3 D00D0000 		.4byte	0xdd0
 2401 0dd7 38       		.uleb128 0x38
 2402 0dd8 26080000 		.4byte	.LASF177
 2403 0ddc 01       		.byte	0x1
 2404 0ddd 82       		.byte	0x82
 2405 0dde 00000000 		.4byte	.LFB259
 2406 0de2 54000000 		.4byte	.LFE259-.LFB259
 2407 0de6 01       		.uleb128 0x1
 2408 0de7 9C       		.byte	0x9c
 2409 0de8 140E0000 		.4byte	0xe14
 2410 0dec 3B       		.uleb128 0x3b
 2411 0ded 10000000 		.4byte	.LVL23
 2412 0df1 3B100000 		.4byte	0x103b
 2413 0df5 2C       		.uleb128 0x2c
 2414 0df6 1A000000 		.4byte	.LVL24
 2415 0dfa FD0F0000 		.4byte	0xffd
 2416 0dfe 2D       		.uleb128 0x2d
 2417 0dff 01       		.uleb128 0x1
 2418 0e00 52       		.byte	0x52
 2419 0e01 01       		.uleb128 0x1
 2420 0e02 30       		.byte	0x30
 2421 0e03 2D       		.uleb128 0x2d
 2422 0e04 01       		.uleb128 0x1
 2423 0e05 51       		.byte	0x51
 2424 0e06 02       		.uleb128 0x2
 2425 0e07 08       		.byte	0x8
 2426 0e08 20       		.byte	0x20
 2427 0e09 2D       		.uleb128 0x2d
 2428 0e0a 01       		.uleb128 0x1
 2429 0e0b 50       		.byte	0x50
 2430 0e0c 05       		.uleb128 0x5
 2431 0e0d 0C       		.byte	0xc
 2432 0e0e 00040240 		.4byte	0x40020400
 2433 0e12 00       		.byte	0
 2434 0e13 00       		.byte	0
 2435 0e14 38       		.uleb128 0x38
 2436 0e15 D4000000 		.4byte	.LASF178
 2437 0e19 01       		.byte	0x1
 2438 0e1a 98       		.byte	0x98
 2439 0e1b 00000000 		.4byte	.LFB260
 2440 0e1f 20000000 		.4byte	.LFE260-.LFB260
 2441 0e23 01       		.uleb128 0x1
 2442 0e24 9C       		.byte	0x9c
 2443 0e25 530E0000 		.4byte	0xe53
 2444 0e29 25       		.uleb128 0x25
 2445 0e2a 56070000 		.4byte	.LASF170
ARM GAS  /tmp/ccuRxgwH.s 			page 44


 2446 0e2e 01       		.byte	0x1
 2447 0e2f 98       		.byte	0x98
 2448 0e30 25000000 		.4byte	0x25
 2449 0e34 02       		.uleb128 0x2
 2450 0e35 90       		.byte	0x90
 2451 0e36 40       		.uleb128 0x40
 2452 0e37 3C       		.uleb128 0x3c
 2453 0e38 656E6400 		.ascii	"end\000"
 2454 0e3c 01       		.byte	0x1
 2455 0e3d 98       		.byte	0x98
 2456 0e3e 25000000 		.4byte	0x25
 2457 0e42 02       		.uleb128 0x2
 2458 0e43 90       		.byte	0x90
 2459 0e44 41       		.uleb128 0x41
 2460 0e45 25       		.uleb128 0x25
 2461 0e46 83010000 		.4byte	.LASF179
 2462 0e4a 01       		.byte	0x1
 2463 0e4b 98       		.byte	0x98
 2464 0e4c 56070000 		.4byte	0x756
 2465 0e50 01       		.uleb128 0x1
 2466 0e51 50       		.byte	0x50
 2467 0e52 00       		.byte	0
 2468 0e53 3D       		.uleb128 0x3d
 2469 0e54 91080000 		.4byte	.LASF181
 2470 0e58 01       		.byte	0x1
 2471 0e59 A7       		.byte	0xa7
 2472 0e5a 25000000 		.4byte	0x25
 2473 0e5e 00000000 		.4byte	.LFB261
 2474 0e62 1C000000 		.4byte	.LFE261-.LFB261
 2475 0e66 01       		.uleb128 0x1
 2476 0e67 9C       		.byte	0x9c
 2477 0e68 7C0E0000 		.4byte	0xe7c
 2478 0e6c 27       		.uleb128 0x27
 2479 0e6d 49000000 		.4byte	.LASF180
 2480 0e71 01       		.byte	0x1
 2481 0e72 A7       		.byte	0xa7
 2482 0e73 9B000000 		.4byte	0x9b
 2483 0e77 D7000000 		.4byte	.LLST7
 2484 0e7b 00       		.byte	0
 2485 0e7c 3D       		.uleb128 0x3d
 2486 0e7d 03020000 		.4byte	.LASF182
 2487 0e81 01       		.byte	0x1
 2488 0e82 B6       		.byte	0xb6
 2489 0e83 CA000000 		.4byte	0xca
 2490 0e87 00000000 		.4byte	.LFB262
 2491 0e8b 20000000 		.4byte	.LFE262-.LFB262
 2492 0e8f 01       		.uleb128 0x1
 2493 0e90 9C       		.byte	0x9c
 2494 0e91 BF0E0000 		.4byte	0xebf
 2495 0e95 35       		.uleb128 0x35
 2496 0e96 9D0B0000 		.4byte	0xb9d
 2497 0e9a 00000000 		.4byte	.LBB71
 2498 0e9e 68000000 		.4byte	.Ldebug_ranges0+0x68
 2499 0ea2 01       		.byte	0x1
 2500 0ea3 B7       		.byte	0xb7
 2501 0ea4 33       		.uleb128 0x33
 2502 0ea5 AE0B0000 		.4byte	0xbae
ARM GAS  /tmp/ccuRxgwH.s 			page 45


 2503 0ea9 F8000000 		.4byte	.LLST8
 2504 0ead 3E       		.uleb128 0x3e
 2505 0eae 450B0000 		.4byte	0xb45
 2506 0eb2 00000000 		.4byte	.LBB73
 2507 0eb6 88000000 		.4byte	.Ldebug_ranges0+0x88
 2508 0eba 03       		.byte	0x3
 2509 0ebb 0B01     		.2byte	0x10b
 2510 0ebd 00       		.byte	0
 2511 0ebe 00       		.byte	0
 2512 0ebf 3D       		.uleb128 0x3d
 2513 0ec0 ED060000 		.4byte	.LASF183
 2514 0ec4 01       		.byte	0x1
 2515 0ec5 C3       		.byte	0xc3
 2516 0ec6 25000000 		.4byte	0x25
 2517 0eca 00000000 		.4byte	.LFB263
 2518 0ece 1C000000 		.4byte	.LFE263-.LFB263
 2519 0ed2 01       		.uleb128 0x1
 2520 0ed3 9C       		.byte	0x9c
 2521 0ed4 E80E0000 		.4byte	0xee8
 2522 0ed8 27       		.uleb128 0x27
 2523 0ed9 49000000 		.4byte	.LASF180
 2524 0edd 01       		.byte	0x1
 2525 0ede C3       		.byte	0xc3
 2526 0edf 9B000000 		.4byte	0x9b
 2527 0ee3 0B010000 		.4byte	.LLST9
 2528 0ee7 00       		.byte	0
 2529 0ee8 3F       		.uleb128 0x3f
 2530 0ee9 0F040000 		.4byte	.LASF184
 2531 0eed 01       		.byte	0x1
 2532 0eee 22       		.byte	0x22
 2533 0eef 25070000 		.4byte	0x725
 2534 0ef3 05       		.uleb128 0x5
 2535 0ef4 03       		.byte	0x3
 2536 0ef5 00000000 		.4byte	last_update_time
 2537 0ef9 10       		.uleb128 0x10
 2538 0efa 25000000 		.4byte	0x25
 2539 0efe 090F0000 		.4byte	0xf09
 2540 0f02 11       		.uleb128 0x11
 2541 0f03 91040000 		.4byte	0x491
 2542 0f07 00       		.byte	0
 2543 0f08 00       		.byte	0
 2544 0f09 3F       		.uleb128 0x3f
 2545 0f0a 3E080000 		.4byte	.LASF185
 2546 0f0e 01       		.byte	0x1
 2547 0f0f 23       		.byte	0x23
 2548 0f10 1A0F0000 		.4byte	0xf1a
 2549 0f14 05       		.uleb128 0x5
 2550 0f15 03       		.byte	0x3
 2551 0f16 00000000 		.4byte	servo_pos
 2552 0f1a 05       		.uleb128 0x5
 2553 0f1b F90E0000 		.4byte	0xef9
 2554 0f1f 3F       		.uleb128 0x3f
 2555 0f20 59060000 		.4byte	.LASF186
 2556 0f24 01       		.byte	0x1
 2557 0f25 24       		.byte	0x24
 2558 0f26 300F0000 		.4byte	0xf30
 2559 0f2a 05       		.uleb128 0x5
ARM GAS  /tmp/ccuRxgwH.s 			page 46


 2560 0f2b 03       		.byte	0x3
 2561 0f2c 00000000 		.4byte	pulse_start
 2562 0f30 05       		.uleb128 0x5
 2563 0f31 25000000 		.4byte	0x25
 2564 0f35 3F       		.uleb128 0x3f
 2565 0f36 02050000 		.4byte	.LASF187
 2566 0f3a 01       		.byte	0x1
 2567 0f3b 25       		.byte	0x25
 2568 0f3c 300F0000 		.4byte	0xf30
 2569 0f40 05       		.uleb128 0x5
 2570 0f41 03       		.byte	0x3
 2571 0f42 00000000 		.4byte	pulse_end
 2572 0f46 3F       		.uleb128 0x3f
 2573 0f47 EC030000 		.4byte	.LASF188
 2574 0f4b 01       		.byte	0x1
 2575 0f4c 26       		.byte	0x26
 2576 0f4d 570F0000 		.4byte	0xf57
 2577 0f51 05       		.uleb128 0x5
 2578 0f52 03       		.byte	0x3
 2579 0f53 00000000 		.4byte	last_len_received
 2580 0f57 05       		.uleb128 0x5
 2581 0f58 F90E0000 		.4byte	0xef9
 2582 0f5c 3F       		.uleb128 0x3f
 2583 0f5d 3C060000 		.4byte	.LASF189
 2584 0f61 01       		.byte	0x1
 2585 0f62 27       		.byte	0x27
 2586 0f63 6D0F0000 		.4byte	0xf6d
 2587 0f67 05       		.uleb128 0x5
 2588 0f68 03       		.byte	0x3
 2589 0f69 00000000 		.4byte	use_median_filter
 2590 0f6d 05       		.uleb128 0x5
 2591 0f6e 56070000 		.4byte	0x756
 2592 0f72 3F       		.uleb128 0x3f
 2593 0f73 35010000 		.4byte	.LASF190
 2594 0f77 01       		.byte	0x1
 2595 0f78 28       		.byte	0x28
 2596 0f79 6D0F0000 		.4byte	0xf6d
 2597 0f7d 05       		.uleb128 0x5
 2598 0f7e 03       		.byte	0x3
 2599 0f7f 00000000 		.4byte	is_running
 2600 0f83 3F       		.uleb128 0x3f
 2601 0f84 70090000 		.4byte	.LASF191
 2602 0f88 01       		.byte	0x1
 2603 0f89 2B       		.byte	0x2b
 2604 0f8a D10D0000 		.4byte	0xdd1
 2605 0f8e 05       		.uleb128 0x5
 2606 0f8f 03       		.byte	0x3
 2607 0f90 00000000 		.4byte	done_func
 2608 0f94 3F       		.uleb128 0x3f
 2609 0f95 CD000000 		.4byte	.LASF192
 2610 0f99 01       		.byte	0x1
 2611 0f9a 5D       		.byte	0x5d
 2612 0f9b F30A0000 		.4byte	0xaf3
 2613 0f9f 05       		.uleb128 0x5
 2614 0fa0 03       		.byte	0x3
 2615 0fa1 00000000 		.4byte	icucfg
 2616 0fa5 40       		.uleb128 0x40
ARM GAS  /tmp/ccuRxgwH.s 			page 47


 2617 0fa6 BA060000 		.4byte	.LASF193
 2618 0faa 14       		.byte	0x14
 2619 0fab A706     		.2byte	0x6a7
 2620 0fad EB000000 		.4byte	0xeb
 2621 0fb1 41       		.uleb128 0x41
 2622 0fb2 636800   		.ascii	"ch\000"
 2623 0fb5 09       		.byte	0x9
 2624 0fb6 0902     		.2byte	0x209
 2625 0fb8 2A040000 		.4byte	0x42a
 2626 0fbc 40       		.uleb128 0x40
 2627 0fbd 58040000 		.4byte	.LASF194
 2628 0fc1 11       		.byte	0x11
 2629 0fc2 8601     		.2byte	0x186
 2630 0fc4 98080000 		.4byte	0x898
 2631 0fc8 42       		.uleb128 0x42
 2632 0fc9 88070000 		.4byte	.LASF203
 2633 0fcd 15       		.byte	0x15
 2634 0fce 26       		.byte	0x26
 2635 0fcf 25000000 		.4byte	0x25
 2636 0fd3 E70F0000 		.4byte	0xfe7
 2637 0fd7 0D       		.uleb128 0xd
 2638 0fd8 25000000 		.4byte	0x25
 2639 0fdc 0D       		.uleb128 0xd
 2640 0fdd 25000000 		.4byte	0x25
 2641 0fe1 0D       		.uleb128 0xd
 2642 0fe2 25000000 		.4byte	0x25
 2643 0fe6 00       		.byte	0
 2644 0fe7 43       		.uleb128 0x43
 2645 0fe8 7F060000 		.4byte	.LASF195
 2646 0fec 10       		.byte	0x10
 2647 0fed DF       		.byte	0xdf
 2648 0fee FD0F0000 		.4byte	0xffd
 2649 0ff2 0D       		.uleb128 0xd
 2650 0ff3 1B090000 		.4byte	0x91b
 2651 0ff7 0D       		.uleb128 0xd
 2652 0ff8 FF0A0000 		.4byte	0xaff
 2653 0ffc 00       		.byte	0
 2654 0ffd 44       		.uleb128 0x44
 2655 0ffe 94000000 		.4byte	.LASF196
 2656 1002 0F       		.byte	0xf
 2657 1003 E001     		.2byte	0x1e0
 2658 1005 19100000 		.4byte	0x1019
 2659 1009 0D       		.uleb128 0xd
 2660 100a 54080000 		.4byte	0x854
 2661 100e 0D       		.uleb128 0xd
 2662 100f 3C080000 		.4byte	0x83c
 2663 1013 0D       		.uleb128 0xd
 2664 1014 48080000 		.4byte	0x848
 2665 1018 00       		.byte	0
 2666 1019 43       		.uleb128 0x43
 2667 101a 65060000 		.4byte	.LASF197
 2668 101e 10       		.byte	0x10
 2669 101f E1       		.byte	0xe1
 2670 1020 2A100000 		.4byte	0x102a
 2671 1024 0D       		.uleb128 0xd
 2672 1025 1B090000 		.4byte	0x91b
 2673 1029 00       		.byte	0
ARM GAS  /tmp/ccuRxgwH.s 			page 48


 2674 102a 43       		.uleb128 0x43
 2675 102b FE050000 		.4byte	.LASF198
 2676 102f 10       		.byte	0x10
 2677 1030 E4       		.byte	0xe4
 2678 1031 3B100000 		.4byte	0x103b
 2679 1035 0D       		.uleb128 0xd
 2680 1036 1B090000 		.4byte	0x91b
 2681 103a 00       		.byte	0
 2682 103b 45       		.uleb128 0x45
 2683 103c 74040000 		.4byte	.LASF204
 2684 1040 10       		.byte	0x10
 2685 1041 E0       		.byte	0xe0
 2686 1042 0D       		.uleb128 0xd
 2687 1043 1B090000 		.4byte	0x91b
 2688 1047 00       		.byte	0
 2689 1048 00       		.byte	0
 2690              		.section	.debug_abbrev,"",%progbits
 2691              	.Ldebug_abbrev0:
 2692 0000 01       		.uleb128 0x1
 2693 0001 11       		.uleb128 0x11
 2694 0002 01       		.byte	0x1
 2695 0003 25       		.uleb128 0x25
 2696 0004 0E       		.uleb128 0xe
 2697 0005 13       		.uleb128 0x13
 2698 0006 0B       		.uleb128 0xb
 2699 0007 03       		.uleb128 0x3
 2700 0008 0E       		.uleb128 0xe
 2701 0009 1B       		.uleb128 0x1b
 2702 000a 0E       		.uleb128 0xe
 2703 000b 55       		.uleb128 0x55
 2704 000c 17       		.uleb128 0x17
 2705 000d 11       		.uleb128 0x11
 2706 000e 01       		.uleb128 0x1
 2707 000f 10       		.uleb128 0x10
 2708 0010 17       		.uleb128 0x17
 2709 0011 00       		.byte	0
 2710 0012 00       		.byte	0
 2711 0013 02       		.uleb128 0x2
 2712 0014 24       		.uleb128 0x24
 2713 0015 00       		.byte	0
 2714 0016 0B       		.uleb128 0xb
 2715 0017 0B       		.uleb128 0xb
 2716 0018 3E       		.uleb128 0x3e
 2717 0019 0B       		.uleb128 0xb
 2718 001a 03       		.uleb128 0x3
 2719 001b 0E       		.uleb128 0xe
 2720 001c 00       		.byte	0
 2721 001d 00       		.byte	0
 2722 001e 03       		.uleb128 0x3
 2723 001f 16       		.uleb128 0x16
 2724 0020 00       		.byte	0
 2725 0021 03       		.uleb128 0x3
 2726 0022 0E       		.uleb128 0xe
 2727 0023 3A       		.uleb128 0x3a
 2728 0024 0B       		.uleb128 0xb
 2729 0025 3B       		.uleb128 0x3b
 2730 0026 0B       		.uleb128 0xb
ARM GAS  /tmp/ccuRxgwH.s 			page 49


 2731 0027 49       		.uleb128 0x49
 2732 0028 13       		.uleb128 0x13
 2733 0029 00       		.byte	0
 2734 002a 00       		.byte	0
 2735 002b 04       		.uleb128 0x4
 2736 002c 24       		.uleb128 0x24
 2737 002d 00       		.byte	0
 2738 002e 0B       		.uleb128 0xb
 2739 002f 0B       		.uleb128 0xb
 2740 0030 3E       		.uleb128 0x3e
 2741 0031 0B       		.uleb128 0xb
 2742 0032 03       		.uleb128 0x3
 2743 0033 08       		.uleb128 0x8
 2744 0034 00       		.byte	0
 2745 0035 00       		.byte	0
 2746 0036 05       		.uleb128 0x5
 2747 0037 35       		.uleb128 0x35
 2748 0038 00       		.byte	0
 2749 0039 49       		.uleb128 0x49
 2750 003a 13       		.uleb128 0x13
 2751 003b 00       		.byte	0
 2752 003c 00       		.byte	0
 2753 003d 06       		.uleb128 0x6
 2754 003e 13       		.uleb128 0x13
 2755 003f 01       		.byte	0x1
 2756 0040 03       		.uleb128 0x3
 2757 0041 0E       		.uleb128 0xe
 2758 0042 0B       		.uleb128 0xb
 2759 0043 0B       		.uleb128 0xb
 2760 0044 3A       		.uleb128 0x3a
 2761 0045 0B       		.uleb128 0xb
 2762 0046 3B       		.uleb128 0x3b
 2763 0047 0B       		.uleb128 0xb
 2764 0048 01       		.uleb128 0x1
 2765 0049 13       		.uleb128 0x13
 2766 004a 00       		.byte	0
 2767 004b 00       		.byte	0
 2768 004c 07       		.uleb128 0x7
 2769 004d 0D       		.uleb128 0xd
 2770 004e 00       		.byte	0
 2771 004f 03       		.uleb128 0x3
 2772 0050 0E       		.uleb128 0xe
 2773 0051 3A       		.uleb128 0x3a
 2774 0052 0B       		.uleb128 0xb
 2775 0053 3B       		.uleb128 0x3b
 2776 0054 0B       		.uleb128 0xb
 2777 0055 49       		.uleb128 0x49
 2778 0056 13       		.uleb128 0x13
 2779 0057 38       		.uleb128 0x38
 2780 0058 0B       		.uleb128 0xb
 2781 0059 00       		.byte	0
 2782 005a 00       		.byte	0
 2783 005b 08       		.uleb128 0x8
 2784 005c 0D       		.uleb128 0xd
 2785 005d 00       		.byte	0
 2786 005e 03       		.uleb128 0x3
 2787 005f 08       		.uleb128 0x8
ARM GAS  /tmp/ccuRxgwH.s 			page 50


 2788 0060 3A       		.uleb128 0x3a
 2789 0061 0B       		.uleb128 0xb
 2790 0062 3B       		.uleb128 0x3b
 2791 0063 05       		.uleb128 0x5
 2792 0064 49       		.uleb128 0x49
 2793 0065 13       		.uleb128 0x13
 2794 0066 38       		.uleb128 0x38
 2795 0067 0B       		.uleb128 0xb
 2796 0068 00       		.byte	0
 2797 0069 00       		.byte	0
 2798 006a 09       		.uleb128 0x9
 2799 006b 0D       		.uleb128 0xd
 2800 006c 00       		.byte	0
 2801 006d 03       		.uleb128 0x3
 2802 006e 0E       		.uleb128 0xe
 2803 006f 3A       		.uleb128 0x3a
 2804 0070 0B       		.uleb128 0xb
 2805 0071 3B       		.uleb128 0x3b
 2806 0072 05       		.uleb128 0x5
 2807 0073 49       		.uleb128 0x49
 2808 0074 13       		.uleb128 0x13
 2809 0075 38       		.uleb128 0x38
 2810 0076 0B       		.uleb128 0xb
 2811 0077 00       		.byte	0
 2812 0078 00       		.byte	0
 2813 0079 0A       		.uleb128 0xa
 2814 007a 0F       		.uleb128 0xf
 2815 007b 00       		.byte	0
 2816 007c 0B       		.uleb128 0xb
 2817 007d 0B       		.uleb128 0xb
 2818 007e 49       		.uleb128 0x49
 2819 007f 13       		.uleb128 0x13
 2820 0080 00       		.byte	0
 2821 0081 00       		.byte	0
 2822 0082 0B       		.uleb128 0xb
 2823 0083 13       		.uleb128 0x13
 2824 0084 01       		.byte	0x1
 2825 0085 03       		.uleb128 0x3
 2826 0086 0E       		.uleb128 0xe
 2827 0087 0B       		.uleb128 0xb
 2828 0088 0B       		.uleb128 0xb
 2829 0089 3A       		.uleb128 0x3a
 2830 008a 0B       		.uleb128 0xb
 2831 008b 3B       		.uleb128 0x3b
 2832 008c 05       		.uleb128 0x5
 2833 008d 01       		.uleb128 0x1
 2834 008e 13       		.uleb128 0x13
 2835 008f 00       		.byte	0
 2836 0090 00       		.byte	0
 2837 0091 0C       		.uleb128 0xc
 2838 0092 15       		.uleb128 0x15
 2839 0093 01       		.byte	0x1
 2840 0094 27       		.uleb128 0x27
 2841 0095 19       		.uleb128 0x19
 2842 0096 01       		.uleb128 0x1
 2843 0097 13       		.uleb128 0x13
 2844 0098 00       		.byte	0
ARM GAS  /tmp/ccuRxgwH.s 			page 51


 2845 0099 00       		.byte	0
 2846 009a 0D       		.uleb128 0xd
 2847 009b 05       		.uleb128 0x5
 2848 009c 00       		.byte	0
 2849 009d 49       		.uleb128 0x49
 2850 009e 13       		.uleb128 0x13
 2851 009f 00       		.byte	0
 2852 00a0 00       		.byte	0
 2853 00a1 0E       		.uleb128 0xe
 2854 00a2 0F       		.uleb128 0xf
 2855 00a3 00       		.byte	0
 2856 00a4 0B       		.uleb128 0xb
 2857 00a5 0B       		.uleb128 0xb
 2858 00a6 00       		.byte	0
 2859 00a7 00       		.byte	0
 2860 00a8 0F       		.uleb128 0xf
 2861 00a9 13       		.uleb128 0x13
 2862 00aa 01       		.byte	0x1
 2863 00ab 03       		.uleb128 0x3
 2864 00ac 0E       		.uleb128 0xe
 2865 00ad 0B       		.uleb128 0xb
 2866 00ae 05       		.uleb128 0x5
 2867 00af 3A       		.uleb128 0x3a
 2868 00b0 0B       		.uleb128 0xb
 2869 00b1 3B       		.uleb128 0x3b
 2870 00b2 05       		.uleb128 0x5
 2871 00b3 01       		.uleb128 0x1
 2872 00b4 13       		.uleb128 0x13
 2873 00b5 00       		.byte	0
 2874 00b6 00       		.byte	0
 2875 00b7 10       		.uleb128 0x10
 2876 00b8 01       		.uleb128 0x1
 2877 00b9 01       		.byte	0x1
 2878 00ba 49       		.uleb128 0x49
 2879 00bb 13       		.uleb128 0x13
 2880 00bc 01       		.uleb128 0x1
 2881 00bd 13       		.uleb128 0x13
 2882 00be 00       		.byte	0
 2883 00bf 00       		.byte	0
 2884 00c0 11       		.uleb128 0x11
 2885 00c1 21       		.uleb128 0x21
 2886 00c2 00       		.byte	0
 2887 00c3 49       		.uleb128 0x49
 2888 00c4 13       		.uleb128 0x13
 2889 00c5 2F       		.uleb128 0x2f
 2890 00c6 0B       		.uleb128 0xb
 2891 00c7 00       		.byte	0
 2892 00c8 00       		.byte	0
 2893 00c9 12       		.uleb128 0x12
 2894 00ca 0D       		.uleb128 0xd
 2895 00cb 00       		.byte	0
 2896 00cc 03       		.uleb128 0x3
 2897 00cd 08       		.uleb128 0x8
 2898 00ce 3A       		.uleb128 0x3a
 2899 00cf 0B       		.uleb128 0xb
 2900 00d0 3B       		.uleb128 0x3b
 2901 00d1 0B       		.uleb128 0xb
ARM GAS  /tmp/ccuRxgwH.s 			page 52


 2902 00d2 49       		.uleb128 0x49
 2903 00d3 13       		.uleb128 0x13
 2904 00d4 38       		.uleb128 0x38
 2905 00d5 0B       		.uleb128 0xb
 2906 00d6 00       		.byte	0
 2907 00d7 00       		.byte	0
 2908 00d8 13       		.uleb128 0x13
 2909 00d9 13       		.uleb128 0x13
 2910 00da 01       		.byte	0x1
 2911 00db 0B       		.uleb128 0xb
 2912 00dc 0B       		.uleb128 0xb
 2913 00dd 3A       		.uleb128 0x3a
 2914 00de 0B       		.uleb128 0xb
 2915 00df 3B       		.uleb128 0x3b
 2916 00e0 0B       		.uleb128 0xb
 2917 00e1 01       		.uleb128 0x1
 2918 00e2 13       		.uleb128 0x13
 2919 00e3 00       		.byte	0
 2920 00e4 00       		.byte	0
 2921 00e5 14       		.uleb128 0x14
 2922 00e6 17       		.uleb128 0x17
 2923 00e7 01       		.byte	0x1
 2924 00e8 0B       		.uleb128 0xb
 2925 00e9 0B       		.uleb128 0xb
 2926 00ea 3A       		.uleb128 0x3a
 2927 00eb 0B       		.uleb128 0xb
 2928 00ec 3B       		.uleb128 0x3b
 2929 00ed 0B       		.uleb128 0xb
 2930 00ee 01       		.uleb128 0x1
 2931 00ef 13       		.uleb128 0x13
 2932 00f0 00       		.byte	0
 2933 00f1 00       		.byte	0
 2934 00f2 15       		.uleb128 0x15
 2935 00f3 0D       		.uleb128 0xd
 2936 00f4 00       		.byte	0
 2937 00f5 03       		.uleb128 0x3
 2938 00f6 0E       		.uleb128 0xe
 2939 00f7 3A       		.uleb128 0x3a
 2940 00f8 0B       		.uleb128 0xb
 2941 00f9 3B       		.uleb128 0x3b
 2942 00fa 05       		.uleb128 0x5
 2943 00fb 49       		.uleb128 0x49
 2944 00fc 13       		.uleb128 0x13
 2945 00fd 00       		.byte	0
 2946 00fe 00       		.byte	0
 2947 00ff 16       		.uleb128 0x16
 2948 0100 26       		.uleb128 0x26
 2949 0101 00       		.byte	0
 2950 0102 49       		.uleb128 0x49
 2951 0103 13       		.uleb128 0x13
 2952 0104 00       		.byte	0
 2953 0105 00       		.byte	0
 2954 0106 17       		.uleb128 0x17
 2955 0107 0D       		.uleb128 0xd
 2956 0108 00       		.byte	0
 2957 0109 03       		.uleb128 0x3
 2958 010a 08       		.uleb128 0x8
ARM GAS  /tmp/ccuRxgwH.s 			page 53


 2959 010b 3A       		.uleb128 0x3a
 2960 010c 0B       		.uleb128 0xb
 2961 010d 3B       		.uleb128 0x3b
 2962 010e 0B       		.uleb128 0xb
 2963 010f 49       		.uleb128 0x49
 2964 0110 13       		.uleb128 0x13
 2965 0111 00       		.byte	0
 2966 0112 00       		.byte	0
 2967 0113 18       		.uleb128 0x18
 2968 0114 16       		.uleb128 0x16
 2969 0115 00       		.byte	0
 2970 0116 03       		.uleb128 0x3
 2971 0117 0E       		.uleb128 0xe
 2972 0118 3A       		.uleb128 0x3a
 2973 0119 0B       		.uleb128 0xb
 2974 011a 3B       		.uleb128 0x3b
 2975 011b 05       		.uleb128 0x5
 2976 011c 49       		.uleb128 0x49
 2977 011d 13       		.uleb128 0x13
 2978 011e 00       		.byte	0
 2979 011f 00       		.byte	0
 2980 0120 19       		.uleb128 0x19
 2981 0121 04       		.uleb128 0x4
 2982 0122 01       		.byte	0x1
 2983 0123 0B       		.uleb128 0xb
 2984 0124 0B       		.uleb128 0xb
 2985 0125 3A       		.uleb128 0x3a
 2986 0126 0B       		.uleb128 0xb
 2987 0127 3B       		.uleb128 0x3b
 2988 0128 0B       		.uleb128 0xb
 2989 0129 01       		.uleb128 0x1
 2990 012a 13       		.uleb128 0x13
 2991 012b 00       		.byte	0
 2992 012c 00       		.byte	0
 2993 012d 1A       		.uleb128 0x1a
 2994 012e 28       		.uleb128 0x28
 2995 012f 00       		.byte	0
 2996 0130 03       		.uleb128 0x3
 2997 0131 0E       		.uleb128 0xe
 2998 0132 1C       		.uleb128 0x1c
 2999 0133 0D       		.uleb128 0xd
 3000 0134 00       		.byte	0
 3001 0135 00       		.byte	0
 3002 0136 1B       		.uleb128 0x1b
 3003 0137 13       		.uleb128 0x13
 3004 0138 01       		.byte	0x1
 3005 0139 0B       		.uleb128 0xb
 3006 013a 0B       		.uleb128 0xb
 3007 013b 3A       		.uleb128 0x3a
 3008 013c 0B       		.uleb128 0xb
 3009 013d 3B       		.uleb128 0x3b
 3010 013e 05       		.uleb128 0x5
 3011 013f 01       		.uleb128 0x1
 3012 0140 13       		.uleb128 0x13
 3013 0141 00       		.byte	0
 3014 0142 00       		.byte	0
 3015 0143 1C       		.uleb128 0x1c
ARM GAS  /tmp/ccuRxgwH.s 			page 54


 3016 0144 2E       		.uleb128 0x2e
 3017 0145 01       		.byte	0x1
 3018 0146 03       		.uleb128 0x3
 3019 0147 0E       		.uleb128 0xe
 3020 0148 3A       		.uleb128 0x3a
 3021 0149 0B       		.uleb128 0xb
 3022 014a 3B       		.uleb128 0x3b
 3023 014b 05       		.uleb128 0x5
 3024 014c 27       		.uleb128 0x27
 3025 014d 19       		.uleb128 0x19
 3026 014e 20       		.uleb128 0x20
 3027 014f 0B       		.uleb128 0xb
 3028 0150 01       		.uleb128 0x1
 3029 0151 13       		.uleb128 0x13
 3030 0152 00       		.byte	0
 3031 0153 00       		.byte	0
 3032 0154 1D       		.uleb128 0x1d
 3033 0155 05       		.uleb128 0x5
 3034 0156 00       		.byte	0
 3035 0157 03       		.uleb128 0x3
 3036 0158 0E       		.uleb128 0xe
 3037 0159 3A       		.uleb128 0x3a
 3038 015a 0B       		.uleb128 0xb
 3039 015b 3B       		.uleb128 0x3b
 3040 015c 05       		.uleb128 0x5
 3041 015d 49       		.uleb128 0x49
 3042 015e 13       		.uleb128 0x13
 3043 015f 00       		.byte	0
 3044 0160 00       		.byte	0
 3045 0161 1E       		.uleb128 0x1e
 3046 0162 2E       		.uleb128 0x2e
 3047 0163 00       		.byte	0
 3048 0164 03       		.uleb128 0x3
 3049 0165 0E       		.uleb128 0xe
 3050 0166 3A       		.uleb128 0x3a
 3051 0167 0B       		.uleb128 0xb
 3052 0168 3B       		.uleb128 0x3b
 3053 0169 05       		.uleb128 0x5
 3054 016a 27       		.uleb128 0x27
 3055 016b 19       		.uleb128 0x19
 3056 016c 20       		.uleb128 0x20
 3057 016d 0B       		.uleb128 0xb
 3058 016e 00       		.byte	0
 3059 016f 00       		.byte	0
 3060 0170 1F       		.uleb128 0x1f
 3061 0171 2E       		.uleb128 0x2e
 3062 0172 00       		.byte	0
 3063 0173 03       		.uleb128 0x3
 3064 0174 0E       		.uleb128 0xe
 3065 0175 3A       		.uleb128 0x3a
 3066 0176 0B       		.uleb128 0xb
 3067 0177 3B       		.uleb128 0x3b
 3068 0178 0B       		.uleb128 0xb
 3069 0179 27       		.uleb128 0x27
 3070 017a 19       		.uleb128 0x19
 3071 017b 49       		.uleb128 0x49
 3072 017c 13       		.uleb128 0x13
ARM GAS  /tmp/ccuRxgwH.s 			page 55


 3073 017d 20       		.uleb128 0x20
 3074 017e 0B       		.uleb128 0xb
 3075 017f 00       		.byte	0
 3076 0180 00       		.byte	0
 3077 0181 20       		.uleb128 0x20
 3078 0182 34       		.uleb128 0x34
 3079 0183 00       		.byte	0
 3080 0184 03       		.uleb128 0x3
 3081 0185 0E       		.uleb128 0xe
 3082 0186 49       		.uleb128 0x49
 3083 0187 13       		.uleb128 0x13
 3084 0188 34       		.uleb128 0x34
 3085 0189 19       		.uleb128 0x19
 3086 018a 1C       		.uleb128 0x1c
 3087 018b 0E       		.uleb128 0xe
 3088 018c 00       		.byte	0
 3089 018d 00       		.byte	0
 3090 018e 21       		.uleb128 0x21
 3091 018f 2E       		.uleb128 0x2e
 3092 0190 01       		.byte	0x1
 3093 0191 03       		.uleb128 0x3
 3094 0192 0E       		.uleb128 0xe
 3095 0193 3A       		.uleb128 0x3a
 3096 0194 0B       		.uleb128 0xb
 3097 0195 3B       		.uleb128 0x3b
 3098 0196 0B       		.uleb128 0xb
 3099 0197 27       		.uleb128 0x27
 3100 0198 19       		.uleb128 0x19
 3101 0199 49       		.uleb128 0x49
 3102 019a 13       		.uleb128 0x13
 3103 019b 20       		.uleb128 0x20
 3104 019c 0B       		.uleb128 0xb
 3105 019d 01       		.uleb128 0x1
 3106 019e 13       		.uleb128 0x13
 3107 019f 00       		.byte	0
 3108 01a0 00       		.byte	0
 3109 01a1 22       		.uleb128 0x22
 3110 01a2 34       		.uleb128 0x34
 3111 01a3 00       		.byte	0
 3112 01a4 03       		.uleb128 0x3
 3113 01a5 0E       		.uleb128 0xe
 3114 01a6 3A       		.uleb128 0x3a
 3115 01a7 0B       		.uleb128 0xb
 3116 01a8 3B       		.uleb128 0x3b
 3117 01a9 0B       		.uleb128 0xb
 3118 01aa 49       		.uleb128 0x49
 3119 01ab 13       		.uleb128 0x13
 3120 01ac 00       		.byte	0
 3121 01ad 00       		.byte	0
 3122 01ae 23       		.uleb128 0x23
 3123 01af 2E       		.uleb128 0x2e
 3124 01b0 01       		.byte	0x1
 3125 01b1 03       		.uleb128 0x3
 3126 01b2 0E       		.uleb128 0xe
 3127 01b3 3A       		.uleb128 0x3a
 3128 01b4 0B       		.uleb128 0xb
 3129 01b5 3B       		.uleb128 0x3b
ARM GAS  /tmp/ccuRxgwH.s 			page 56


 3130 01b6 05       		.uleb128 0x5
 3131 01b7 27       		.uleb128 0x27
 3132 01b8 19       		.uleb128 0x19
 3133 01b9 49       		.uleb128 0x49
 3134 01ba 13       		.uleb128 0x13
 3135 01bb 20       		.uleb128 0x20
 3136 01bc 0B       		.uleb128 0xb
 3137 01bd 01       		.uleb128 0x1
 3138 01be 13       		.uleb128 0x13
 3139 01bf 00       		.byte	0
 3140 01c0 00       		.byte	0
 3141 01c1 24       		.uleb128 0x24
 3142 01c2 2E       		.uleb128 0x2e
 3143 01c3 01       		.byte	0x1
 3144 01c4 03       		.uleb128 0x3
 3145 01c5 0E       		.uleb128 0xe
 3146 01c6 3A       		.uleb128 0x3a
 3147 01c7 0B       		.uleb128 0xb
 3148 01c8 3B       		.uleb128 0x3b
 3149 01c9 0B       		.uleb128 0xb
 3150 01ca 27       		.uleb128 0x27
 3151 01cb 19       		.uleb128 0x19
 3152 01cc 11       		.uleb128 0x11
 3153 01cd 01       		.uleb128 0x1
 3154 01ce 12       		.uleb128 0x12
 3155 01cf 06       		.uleb128 0x6
 3156 01d0 40       		.uleb128 0x40
 3157 01d1 18       		.uleb128 0x18
 3158 01d2 9742     		.uleb128 0x2117
 3159 01d4 19       		.uleb128 0x19
 3160 01d5 01       		.uleb128 0x1
 3161 01d6 13       		.uleb128 0x13
 3162 01d7 00       		.byte	0
 3163 01d8 00       		.byte	0
 3164 01d9 25       		.uleb128 0x25
 3165 01da 05       		.uleb128 0x5
 3166 01db 00       		.byte	0
 3167 01dc 03       		.uleb128 0x3
 3168 01dd 0E       		.uleb128 0xe
 3169 01de 3A       		.uleb128 0x3a
 3170 01df 0B       		.uleb128 0xb
 3171 01e0 3B       		.uleb128 0x3b
 3172 01e1 0B       		.uleb128 0xb
 3173 01e2 49       		.uleb128 0x49
 3174 01e3 13       		.uleb128 0x13
 3175 01e4 02       		.uleb128 0x2
 3176 01e5 18       		.uleb128 0x18
 3177 01e6 00       		.byte	0
 3178 01e7 00       		.byte	0
 3179 01e8 26       		.uleb128 0x26
 3180 01e9 2E       		.uleb128 0x2e
 3181 01ea 01       		.byte	0x1
 3182 01eb 03       		.uleb128 0x3
 3183 01ec 0E       		.uleb128 0xe
 3184 01ed 3A       		.uleb128 0x3a
 3185 01ee 0B       		.uleb128 0xb
 3186 01ef 3B       		.uleb128 0x3b
ARM GAS  /tmp/ccuRxgwH.s 			page 57


 3187 01f0 0B       		.uleb128 0xb
 3188 01f1 27       		.uleb128 0x27
 3189 01f2 19       		.uleb128 0x19
 3190 01f3 11       		.uleb128 0x11
 3191 01f4 01       		.uleb128 0x1
 3192 01f5 12       		.uleb128 0x12
 3193 01f6 06       		.uleb128 0x6
 3194 01f7 40       		.uleb128 0x40
 3195 01f8 18       		.uleb128 0x18
 3196 01f9 9642     		.uleb128 0x2116
 3197 01fb 19       		.uleb128 0x19
 3198 01fc 01       		.uleb128 0x1
 3199 01fd 13       		.uleb128 0x13
 3200 01fe 00       		.byte	0
 3201 01ff 00       		.byte	0
 3202 0200 27       		.uleb128 0x27
 3203 0201 05       		.uleb128 0x5
 3204 0202 00       		.byte	0
 3205 0203 03       		.uleb128 0x3
 3206 0204 0E       		.uleb128 0xe
 3207 0205 3A       		.uleb128 0x3a
 3208 0206 0B       		.uleb128 0xb
 3209 0207 3B       		.uleb128 0x3b
 3210 0208 0B       		.uleb128 0xb
 3211 0209 49       		.uleb128 0x49
 3212 020a 13       		.uleb128 0x13
 3213 020b 02       		.uleb128 0x2
 3214 020c 17       		.uleb128 0x17
 3215 020d 00       		.byte	0
 3216 020e 00       		.byte	0
 3217 020f 28       		.uleb128 0x28
 3218 0210 34       		.uleb128 0x34
 3219 0211 00       		.byte	0
 3220 0212 03       		.uleb128 0x3
 3221 0213 08       		.uleb128 0x8
 3222 0214 3A       		.uleb128 0x3a
 3223 0215 0B       		.uleb128 0xb
 3224 0216 3B       		.uleb128 0x3b
 3225 0217 0B       		.uleb128 0xb
 3226 0218 49       		.uleb128 0x49
 3227 0219 13       		.uleb128 0x13
 3228 021a 02       		.uleb128 0x2
 3229 021b 17       		.uleb128 0x17
 3230 021c 00       		.byte	0
 3231 021d 00       		.byte	0
 3232 021e 29       		.uleb128 0x29
 3233 021f 34       		.uleb128 0x34
 3234 0220 00       		.byte	0
 3235 0221 03       		.uleb128 0x3
 3236 0222 0E       		.uleb128 0xe
 3237 0223 3A       		.uleb128 0x3a
 3238 0224 0B       		.uleb128 0xb
 3239 0225 3B       		.uleb128 0x3b
 3240 0226 0B       		.uleb128 0xb
 3241 0227 49       		.uleb128 0x49
 3242 0228 13       		.uleb128 0x13
 3243 0229 02       		.uleb128 0x2
ARM GAS  /tmp/ccuRxgwH.s 			page 58


 3244 022a 17       		.uleb128 0x17
 3245 022b 00       		.byte	0
 3246 022c 00       		.byte	0
 3247 022d 2A       		.uleb128 0x2a
 3248 022e 0B       		.uleb128 0xb
 3249 022f 01       		.byte	0x1
 3250 0230 55       		.uleb128 0x55
 3251 0231 17       		.uleb128 0x17
 3252 0232 01       		.uleb128 0x1
 3253 0233 13       		.uleb128 0x13
 3254 0234 00       		.byte	0
 3255 0235 00       		.byte	0
 3256 0236 2B       		.uleb128 0x2b
 3257 0237 34       		.uleb128 0x34
 3258 0238 00       		.byte	0
 3259 0239 03       		.uleb128 0x3
 3260 023a 08       		.uleb128 0x8
 3261 023b 3A       		.uleb128 0x3a
 3262 023c 0B       		.uleb128 0xb
 3263 023d 3B       		.uleb128 0x3b
 3264 023e 0B       		.uleb128 0xb
 3265 023f 49       		.uleb128 0x49
 3266 0240 13       		.uleb128 0x13
 3267 0241 02       		.uleb128 0x2
 3268 0242 18       		.uleb128 0x18
 3269 0243 00       		.byte	0
 3270 0244 00       		.byte	0
 3271 0245 2C       		.uleb128 0x2c
 3272 0246 898201   		.uleb128 0x4109
 3273 0249 01       		.byte	0x1
 3274 024a 11       		.uleb128 0x11
 3275 024b 01       		.uleb128 0x1
 3276 024c 31       		.uleb128 0x31
 3277 024d 13       		.uleb128 0x13
 3278 024e 00       		.byte	0
 3279 024f 00       		.byte	0
 3280 0250 2D       		.uleb128 0x2d
 3281 0251 8A8201   		.uleb128 0x410a
 3282 0254 00       		.byte	0
 3283 0255 02       		.uleb128 0x2
 3284 0256 18       		.uleb128 0x18
 3285 0257 9142     		.uleb128 0x2111
 3286 0259 18       		.uleb128 0x18
 3287 025a 00       		.byte	0
 3288 025b 00       		.byte	0
 3289 025c 2E       		.uleb128 0x2e
 3290 025d 1D       		.uleb128 0x1d
 3291 025e 01       		.byte	0x1
 3292 025f 31       		.uleb128 0x31
 3293 0260 13       		.uleb128 0x13
 3294 0261 11       		.uleb128 0x11
 3295 0262 01       		.uleb128 0x1
 3296 0263 12       		.uleb128 0x12
 3297 0264 06       		.uleb128 0x6
 3298 0265 58       		.uleb128 0x58
 3299 0266 0B       		.uleb128 0xb
 3300 0267 59       		.uleb128 0x59
ARM GAS  /tmp/ccuRxgwH.s 			page 59


 3301 0268 0B       		.uleb128 0xb
 3302 0269 00       		.byte	0
 3303 026a 00       		.byte	0
 3304 026b 2F       		.uleb128 0x2f
 3305 026c 0B       		.uleb128 0xb
 3306 026d 01       		.byte	0x1
 3307 026e 11       		.uleb128 0x11
 3308 026f 01       		.uleb128 0x1
 3309 0270 12       		.uleb128 0x12
 3310 0271 06       		.uleb128 0x6
 3311 0272 00       		.byte	0
 3312 0273 00       		.byte	0
 3313 0274 30       		.uleb128 0x30
 3314 0275 34       		.uleb128 0x34
 3315 0276 00       		.byte	0
 3316 0277 31       		.uleb128 0x31
 3317 0278 13       		.uleb128 0x13
 3318 0279 00       		.byte	0
 3319 027a 00       		.byte	0
 3320 027b 31       		.uleb128 0x31
 3321 027c 1D       		.uleb128 0x1d
 3322 027d 01       		.byte	0x1
 3323 027e 31       		.uleb128 0x31
 3324 027f 13       		.uleb128 0x13
 3325 0280 11       		.uleb128 0x11
 3326 0281 01       		.uleb128 0x1
 3327 0282 12       		.uleb128 0x12
 3328 0283 06       		.uleb128 0x6
 3329 0284 58       		.uleb128 0x58
 3330 0285 0B       		.uleb128 0xb
 3331 0286 59       		.uleb128 0x59
 3332 0287 0B       		.uleb128 0xb
 3333 0288 01       		.uleb128 0x1
 3334 0289 13       		.uleb128 0x13
 3335 028a 00       		.byte	0
 3336 028b 00       		.byte	0
 3337 028c 32       		.uleb128 0x32
 3338 028d 1D       		.uleb128 0x1d
 3339 028e 01       		.byte	0x1
 3340 028f 31       		.uleb128 0x31
 3341 0290 13       		.uleb128 0x13
 3342 0291 11       		.uleb128 0x11
 3343 0292 01       		.uleb128 0x1
 3344 0293 12       		.uleb128 0x12
 3345 0294 06       		.uleb128 0x6
 3346 0295 58       		.uleb128 0x58
 3347 0296 0B       		.uleb128 0xb
 3348 0297 59       		.uleb128 0x59
 3349 0298 05       		.uleb128 0x5
 3350 0299 00       		.byte	0
 3351 029a 00       		.byte	0
 3352 029b 33       		.uleb128 0x33
 3353 029c 05       		.uleb128 0x5
 3354 029d 00       		.byte	0
 3355 029e 31       		.uleb128 0x31
 3356 029f 13       		.uleb128 0x13
 3357 02a0 02       		.uleb128 0x2
ARM GAS  /tmp/ccuRxgwH.s 			page 60


 3358 02a1 17       		.uleb128 0x17
 3359 02a2 00       		.byte	0
 3360 02a3 00       		.byte	0
 3361 02a4 34       		.uleb128 0x34
 3362 02a5 1D       		.uleb128 0x1d
 3363 02a6 00       		.byte	0
 3364 02a7 31       		.uleb128 0x31
 3365 02a8 13       		.uleb128 0x13
 3366 02a9 52       		.uleb128 0x52
 3367 02aa 01       		.uleb128 0x1
 3368 02ab 55       		.uleb128 0x55
 3369 02ac 17       		.uleb128 0x17
 3370 02ad 58       		.uleb128 0x58
 3371 02ae 0B       		.uleb128 0xb
 3372 02af 59       		.uleb128 0x59
 3373 02b0 0B       		.uleb128 0xb
 3374 02b1 00       		.byte	0
 3375 02b2 00       		.byte	0
 3376 02b3 35       		.uleb128 0x35
 3377 02b4 1D       		.uleb128 0x1d
 3378 02b5 01       		.byte	0x1
 3379 02b6 31       		.uleb128 0x31
 3380 02b7 13       		.uleb128 0x13
 3381 02b8 52       		.uleb128 0x52
 3382 02b9 01       		.uleb128 0x1
 3383 02ba 55       		.uleb128 0x55
 3384 02bb 17       		.uleb128 0x17
 3385 02bc 58       		.uleb128 0x58
 3386 02bd 0B       		.uleb128 0xb
 3387 02be 59       		.uleb128 0x59
 3388 02bf 0B       		.uleb128 0xb
 3389 02c0 00       		.byte	0
 3390 02c1 00       		.byte	0
 3391 02c2 36       		.uleb128 0x36
 3392 02c3 0B       		.uleb128 0xb
 3393 02c4 01       		.byte	0x1
 3394 02c5 55       		.uleb128 0x55
 3395 02c6 17       		.uleb128 0x17
 3396 02c7 00       		.byte	0
 3397 02c8 00       		.byte	0
 3398 02c9 37       		.uleb128 0x37
 3399 02ca 1D       		.uleb128 0x1d
 3400 02cb 01       		.byte	0x1
 3401 02cc 31       		.uleb128 0x31
 3402 02cd 13       		.uleb128 0x13
 3403 02ce 52       		.uleb128 0x52
 3404 02cf 01       		.uleb128 0x1
 3405 02d0 55       		.uleb128 0x55
 3406 02d1 17       		.uleb128 0x17
 3407 02d2 58       		.uleb128 0x58
 3408 02d3 0B       		.uleb128 0xb
 3409 02d4 59       		.uleb128 0x59
 3410 02d5 05       		.uleb128 0x5
 3411 02d6 00       		.byte	0
 3412 02d7 00       		.byte	0
 3413 02d8 38       		.uleb128 0x38
 3414 02d9 2E       		.uleb128 0x2e
ARM GAS  /tmp/ccuRxgwH.s 			page 61


 3415 02da 01       		.byte	0x1
 3416 02db 3F       		.uleb128 0x3f
 3417 02dc 19       		.uleb128 0x19
 3418 02dd 03       		.uleb128 0x3
 3419 02de 0E       		.uleb128 0xe
 3420 02df 3A       		.uleb128 0x3a
 3421 02e0 0B       		.uleb128 0xb
 3422 02e1 3B       		.uleb128 0x3b
 3423 02e2 0B       		.uleb128 0xb
 3424 02e3 27       		.uleb128 0x27
 3425 02e4 19       		.uleb128 0x19
 3426 02e5 11       		.uleb128 0x11
 3427 02e6 01       		.uleb128 0x1
 3428 02e7 12       		.uleb128 0x12
 3429 02e8 06       		.uleb128 0x6
 3430 02e9 40       		.uleb128 0x40
 3431 02ea 18       		.uleb128 0x18
 3432 02eb 9742     		.uleb128 0x2117
 3433 02ed 19       		.uleb128 0x19
 3434 02ee 01       		.uleb128 0x1
 3435 02ef 13       		.uleb128 0x13
 3436 02f0 00       		.byte	0
 3437 02f1 00       		.byte	0
 3438 02f2 39       		.uleb128 0x39
 3439 02f3 898201   		.uleb128 0x4109
 3440 02f6 01       		.byte	0x1
 3441 02f7 11       		.uleb128 0x11
 3442 02f8 01       		.uleb128 0x1
 3443 02f9 31       		.uleb128 0x31
 3444 02fa 13       		.uleb128 0x13
 3445 02fb 01       		.uleb128 0x1
 3446 02fc 13       		.uleb128 0x13
 3447 02fd 00       		.byte	0
 3448 02fe 00       		.byte	0
 3449 02ff 3A       		.uleb128 0x3a
 3450 0300 15       		.uleb128 0x15
 3451 0301 00       		.byte	0
 3452 0302 27       		.uleb128 0x27
 3453 0303 19       		.uleb128 0x19
 3454 0304 00       		.byte	0
 3455 0305 00       		.byte	0
 3456 0306 3B       		.uleb128 0x3b
 3457 0307 898201   		.uleb128 0x4109
 3458 030a 00       		.byte	0
 3459 030b 11       		.uleb128 0x11
 3460 030c 01       		.uleb128 0x1
 3461 030d 31       		.uleb128 0x31
 3462 030e 13       		.uleb128 0x13
 3463 030f 00       		.byte	0
 3464 0310 00       		.byte	0
 3465 0311 3C       		.uleb128 0x3c
 3466 0312 05       		.uleb128 0x5
 3467 0313 00       		.byte	0
 3468 0314 03       		.uleb128 0x3
 3469 0315 08       		.uleb128 0x8
 3470 0316 3A       		.uleb128 0x3a
 3471 0317 0B       		.uleb128 0xb
ARM GAS  /tmp/ccuRxgwH.s 			page 62


 3472 0318 3B       		.uleb128 0x3b
 3473 0319 0B       		.uleb128 0xb
 3474 031a 49       		.uleb128 0x49
 3475 031b 13       		.uleb128 0x13
 3476 031c 02       		.uleb128 0x2
 3477 031d 18       		.uleb128 0x18
 3478 031e 00       		.byte	0
 3479 031f 00       		.byte	0
 3480 0320 3D       		.uleb128 0x3d
 3481 0321 2E       		.uleb128 0x2e
 3482 0322 01       		.byte	0x1
 3483 0323 3F       		.uleb128 0x3f
 3484 0324 19       		.uleb128 0x19
 3485 0325 03       		.uleb128 0x3
 3486 0326 0E       		.uleb128 0xe
 3487 0327 3A       		.uleb128 0x3a
 3488 0328 0B       		.uleb128 0xb
 3489 0329 3B       		.uleb128 0x3b
 3490 032a 0B       		.uleb128 0xb
 3491 032b 27       		.uleb128 0x27
 3492 032c 19       		.uleb128 0x19
 3493 032d 49       		.uleb128 0x49
 3494 032e 13       		.uleb128 0x13
 3495 032f 11       		.uleb128 0x11
 3496 0330 01       		.uleb128 0x1
 3497 0331 12       		.uleb128 0x12
 3498 0332 06       		.uleb128 0x6
 3499 0333 40       		.uleb128 0x40
 3500 0334 18       		.uleb128 0x18
 3501 0335 9742     		.uleb128 0x2117
 3502 0337 19       		.uleb128 0x19
 3503 0338 01       		.uleb128 0x1
 3504 0339 13       		.uleb128 0x13
 3505 033a 00       		.byte	0
 3506 033b 00       		.byte	0
 3507 033c 3E       		.uleb128 0x3e
 3508 033d 1D       		.uleb128 0x1d
 3509 033e 00       		.byte	0
 3510 033f 31       		.uleb128 0x31
 3511 0340 13       		.uleb128 0x13
 3512 0341 52       		.uleb128 0x52
 3513 0342 01       		.uleb128 0x1
 3514 0343 55       		.uleb128 0x55
 3515 0344 17       		.uleb128 0x17
 3516 0345 58       		.uleb128 0x58
 3517 0346 0B       		.uleb128 0xb
 3518 0347 59       		.uleb128 0x59
 3519 0348 05       		.uleb128 0x5
 3520 0349 00       		.byte	0
 3521 034a 00       		.byte	0
 3522 034b 3F       		.uleb128 0x3f
 3523 034c 34       		.uleb128 0x34
 3524 034d 00       		.byte	0
 3525 034e 03       		.uleb128 0x3
 3526 034f 0E       		.uleb128 0xe
 3527 0350 3A       		.uleb128 0x3a
 3528 0351 0B       		.uleb128 0xb
ARM GAS  /tmp/ccuRxgwH.s 			page 63


 3529 0352 3B       		.uleb128 0x3b
 3530 0353 0B       		.uleb128 0xb
 3531 0354 49       		.uleb128 0x49
 3532 0355 13       		.uleb128 0x13
 3533 0356 02       		.uleb128 0x2
 3534 0357 18       		.uleb128 0x18
 3535 0358 00       		.byte	0
 3536 0359 00       		.byte	0
 3537 035a 40       		.uleb128 0x40
 3538 035b 34       		.uleb128 0x34
 3539 035c 00       		.byte	0
 3540 035d 03       		.uleb128 0x3
 3541 035e 0E       		.uleb128 0xe
 3542 035f 3A       		.uleb128 0x3a
 3543 0360 0B       		.uleb128 0xb
 3544 0361 3B       		.uleb128 0x3b
 3545 0362 05       		.uleb128 0x5
 3546 0363 49       		.uleb128 0x49
 3547 0364 13       		.uleb128 0x13
 3548 0365 3F       		.uleb128 0x3f
 3549 0366 19       		.uleb128 0x19
 3550 0367 3C       		.uleb128 0x3c
 3551 0368 19       		.uleb128 0x19
 3552 0369 00       		.byte	0
 3553 036a 00       		.byte	0
 3554 036b 41       		.uleb128 0x41
 3555 036c 34       		.uleb128 0x34
 3556 036d 00       		.byte	0
 3557 036e 03       		.uleb128 0x3
 3558 036f 08       		.uleb128 0x8
 3559 0370 3A       		.uleb128 0x3a
 3560 0371 0B       		.uleb128 0xb
 3561 0372 3B       		.uleb128 0x3b
 3562 0373 05       		.uleb128 0x5
 3563 0374 49       		.uleb128 0x49
 3564 0375 13       		.uleb128 0x13
 3565 0376 3F       		.uleb128 0x3f
 3566 0377 19       		.uleb128 0x19
 3567 0378 3C       		.uleb128 0x3c
 3568 0379 19       		.uleb128 0x19
 3569 037a 00       		.byte	0
 3570 037b 00       		.byte	0
 3571 037c 42       		.uleb128 0x42
 3572 037d 2E       		.uleb128 0x2e
 3573 037e 01       		.byte	0x1
 3574 037f 3F       		.uleb128 0x3f
 3575 0380 19       		.uleb128 0x19
 3576 0381 03       		.uleb128 0x3
 3577 0382 0E       		.uleb128 0xe
 3578 0383 3A       		.uleb128 0x3a
 3579 0384 0B       		.uleb128 0xb
 3580 0385 3B       		.uleb128 0x3b
 3581 0386 0B       		.uleb128 0xb
 3582 0387 27       		.uleb128 0x27
 3583 0388 19       		.uleb128 0x19
 3584 0389 49       		.uleb128 0x49
 3585 038a 13       		.uleb128 0x13
ARM GAS  /tmp/ccuRxgwH.s 			page 64


 3586 038b 3C       		.uleb128 0x3c
 3587 038c 19       		.uleb128 0x19
 3588 038d 01       		.uleb128 0x1
 3589 038e 13       		.uleb128 0x13
 3590 038f 00       		.byte	0
 3591 0390 00       		.byte	0
 3592 0391 43       		.uleb128 0x43
 3593 0392 2E       		.uleb128 0x2e
 3594 0393 01       		.byte	0x1
 3595 0394 3F       		.uleb128 0x3f
 3596 0395 19       		.uleb128 0x19
 3597 0396 03       		.uleb128 0x3
 3598 0397 0E       		.uleb128 0xe
 3599 0398 3A       		.uleb128 0x3a
 3600 0399 0B       		.uleb128 0xb
 3601 039a 3B       		.uleb128 0x3b
 3602 039b 0B       		.uleb128 0xb
 3603 039c 27       		.uleb128 0x27
 3604 039d 19       		.uleb128 0x19
 3605 039e 3C       		.uleb128 0x3c
 3606 039f 19       		.uleb128 0x19
 3607 03a0 01       		.uleb128 0x1
 3608 03a1 13       		.uleb128 0x13
 3609 03a2 00       		.byte	0
 3610 03a3 00       		.byte	0
 3611 03a4 44       		.uleb128 0x44
 3612 03a5 2E       		.uleb128 0x2e
 3613 03a6 01       		.byte	0x1
 3614 03a7 3F       		.uleb128 0x3f
 3615 03a8 19       		.uleb128 0x19
 3616 03a9 03       		.uleb128 0x3
 3617 03aa 0E       		.uleb128 0xe
 3618 03ab 3A       		.uleb128 0x3a
 3619 03ac 0B       		.uleb128 0xb
 3620 03ad 3B       		.uleb128 0x3b
 3621 03ae 05       		.uleb128 0x5
 3622 03af 27       		.uleb128 0x27
 3623 03b0 19       		.uleb128 0x19
 3624 03b1 3C       		.uleb128 0x3c
 3625 03b2 19       		.uleb128 0x19
 3626 03b3 01       		.uleb128 0x1
 3627 03b4 13       		.uleb128 0x13
 3628 03b5 00       		.byte	0
 3629 03b6 00       		.byte	0
 3630 03b7 45       		.uleb128 0x45
 3631 03b8 2E       		.uleb128 0x2e
 3632 03b9 01       		.byte	0x1
 3633 03ba 3F       		.uleb128 0x3f
 3634 03bb 19       		.uleb128 0x19
 3635 03bc 03       		.uleb128 0x3
 3636 03bd 0E       		.uleb128 0xe
 3637 03be 3A       		.uleb128 0x3a
 3638 03bf 0B       		.uleb128 0xb
 3639 03c0 3B       		.uleb128 0x3b
 3640 03c1 0B       		.uleb128 0xb
 3641 03c2 27       		.uleb128 0x27
 3642 03c3 19       		.uleb128 0x19
ARM GAS  /tmp/ccuRxgwH.s 			page 65


 3643 03c4 3C       		.uleb128 0x3c
 3644 03c5 19       		.uleb128 0x19
 3645 03c6 00       		.byte	0
 3646 03c7 00       		.byte	0
 3647 03c8 00       		.byte	0
 3648              		.section	.debug_loc,"",%progbits
 3649              	.Ldebug_loc0:
 3650              	.LLST0:
 3651 0000 00000000 		.4byte	.LVL1
 3652 0004 0A000000 		.4byte	.LVL2
 3653 0008 0100     		.2byte	0x1
 3654 000a 50       		.byte	0x50
 3655 000b 0A000000 		.4byte	.LVL2
 3656 000f 30010000 		.4byte	.LFE256
 3657 0013 0400     		.2byte	0x4
 3658 0015 F3       		.byte	0xf3
 3659 0016 01       		.uleb128 0x1
 3660 0017 50       		.byte	0x50
 3661 0018 9F       		.byte	0x9f
 3662 0019 00000000 		.4byte	0
 3663 001d 00000000 		.4byte	0
 3664              	.LLST1:
 3665 0021 3A000000 		.4byte	.LVL3
 3666 0025 6C000000 		.4byte	.LVL6
 3667 0029 0200     		.2byte	0x2
 3668 002b 90       		.byte	0x90
 3669 002c 4F       		.uleb128 0x4f
 3670 002d A2000000 		.4byte	.LVL11
 3671 0031 BC000000 		.4byte	.LVL12
 3672 0035 0200     		.2byte	0x2
 3673 0037 90       		.byte	0x90
 3674 0038 4F       		.uleb128 0x4f
 3675 0039 00000000 		.4byte	0
 3676 003d 00000000 		.4byte	0
 3677              	.LLST2:
 3678 0041 3E000000 		.4byte	.LVL4
 3679 0045 7A000000 		.4byte	.LVL7
 3680 0049 0200     		.2byte	0x2
 3681 004b 90       		.byte	0x90
 3682 004c 4E       		.uleb128 0x4e
 3683 004d A2000000 		.4byte	.LVL11
 3684 0051 E7000000 		.4byte	.LVL14-1
 3685 0055 0200     		.2byte	0x2
 3686 0057 90       		.byte	0x90
 3687 0058 4E       		.uleb128 0x4e
 3688 0059 00000000 		.4byte	0
 3689 005d 00000000 		.4byte	0
 3690              	.LLST3:
 3691 0061 80000000 		.4byte	.LVL8
 3692 0065 9C000000 		.4byte	.LVL10
 3693 0069 0300     		.2byte	0x3
 3694 006b 08       		.byte	0x8
 3695 006c 20       		.byte	0x20
 3696 006d 9F       		.byte	0x9f
 3697 006e 00000000 		.4byte	0
 3698 0072 00000000 		.4byte	0
 3699              	.LLST4:
ARM GAS  /tmp/ccuRxgwH.s 			page 66


 3700 0076 8C000000 		.4byte	.LVL9
 3701 007a 9C000000 		.4byte	.LVL10
 3702 007e 0200     		.2byte	0x2
 3703 0080 30       		.byte	0x30
 3704 0081 9F       		.byte	0x9f
 3705 0082 00000000 		.4byte	0
 3706 0086 00000000 		.4byte	0
 3707              	.LLST5:
 3708 008a 00000000 		.4byte	.LVL15
 3709 008e 0A000000 		.4byte	.LVL16
 3710 0092 0100     		.2byte	0x1
 3711 0094 50       		.byte	0x50
 3712 0095 0A000000 		.4byte	.LVL16
 3713 0099 3C000000 		.4byte	.LVL22
 3714 009d 0100     		.2byte	0x1
 3715 009f 55       		.byte	0x55
 3716 00a0 3C000000 		.4byte	.LVL22
 3717 00a4 58000000 		.4byte	.LFE258
 3718 00a8 0500     		.2byte	0x5
 3719 00aa 03       		.byte	0x3
 3720 00ab 00000000 		.4byte	done_func
 3721 00af 00000000 		.4byte	0
 3722 00b3 00000000 		.4byte	0
 3723              	.LLST6:
 3724 00b7 26000000 		.4byte	.LVL20
 3725 00bb 38000000 		.4byte	.LVL21
 3726 00bf 0200     		.2byte	0x2
 3727 00c1 30       		.byte	0x30
 3728 00c2 9F       		.byte	0x9f
 3729 00c3 38000000 		.4byte	.LVL21
 3730 00c7 58000000 		.4byte	.LFE258
 3731 00cb 0200     		.2byte	0x2
 3732 00cd 31       		.byte	0x31
 3733 00ce 9F       		.byte	0x9f
 3734 00cf 00000000 		.4byte	0
 3735 00d3 00000000 		.4byte	0
 3736              	.LLST7:
 3737 00d7 00000000 		.4byte	.LVL26
 3738 00db 0A000000 		.4byte	.LVL27
 3739 00df 0100     		.2byte	0x1
 3740 00e1 50       		.byte	0x50
 3741 00e2 0A000000 		.4byte	.LVL27
 3742 00e6 1C000000 		.4byte	.LFE261
 3743 00ea 0400     		.2byte	0x4
 3744 00ec F3       		.byte	0xf3
 3745 00ed 01       		.uleb128 0x1
 3746 00ee 50       		.byte	0x50
 3747 00ef 9F       		.byte	0x9f
 3748 00f0 00000000 		.4byte	0
 3749 00f4 00000000 		.4byte	0
 3750              	.LLST8:
 3751 00f8 06000000 		.4byte	.LVL28
 3752 00fc 10000000 		.4byte	.LVL29
 3753 0100 0100     		.2byte	0x1
 3754 0102 52       		.byte	0x52
 3755 0103 00000000 		.4byte	0
 3756 0107 00000000 		.4byte	0
ARM GAS  /tmp/ccuRxgwH.s 			page 67


 3757              	.LLST9:
 3758 010b 00000000 		.4byte	.LVL30
 3759 010f 0A000000 		.4byte	.LVL31
 3760 0113 0100     		.2byte	0x1
 3761 0115 50       		.byte	0x50
 3762 0116 0A000000 		.4byte	.LVL31
 3763 011a 1C000000 		.4byte	.LFE263
 3764 011e 0400     		.2byte	0x4
 3765 0120 F3       		.byte	0xf3
 3766 0121 01       		.uleb128 0x1
 3767 0122 50       		.byte	0x50
 3768 0123 9F       		.byte	0x9f
 3769 0124 00000000 		.4byte	0
 3770 0128 00000000 		.4byte	0
 3771              		.section	.debug_aranges,"",%progbits
 3772 0000 54000000 		.4byte	0x54
 3773 0004 0200     		.2byte	0x2
 3774 0006 00000000 		.4byte	.Ldebug_info0
 3775 000a 04       		.byte	0x4
 3776 000b 00       		.byte	0
 3777 000c 0000     		.2byte	0
 3778 000e 0000     		.2byte	0
 3779 0010 00000000 		.4byte	.LFB257
 3780 0014 02000000 		.4byte	.LFE257-.LFB257
 3781 0018 00000000 		.4byte	.LFB256
 3782 001c 30010000 		.4byte	.LFE256-.LFB256
 3783 0020 00000000 		.4byte	.LFB258
 3784 0024 58000000 		.4byte	.LFE258-.LFB258
 3785 0028 00000000 		.4byte	.LFB259
 3786 002c 54000000 		.4byte	.LFE259-.LFB259
 3787 0030 00000000 		.4byte	.LFB260
 3788 0034 20000000 		.4byte	.LFE260-.LFB260
 3789 0038 00000000 		.4byte	.LFB261
 3790 003c 1C000000 		.4byte	.LFE261-.LFB261
 3791 0040 00000000 		.4byte	.LFB262
 3792 0044 20000000 		.4byte	.LFE262-.LFB262
 3793 0048 00000000 		.4byte	.LFB263
 3794 004c 1C000000 		.4byte	.LFE263-.LFB263
 3795 0050 00000000 		.4byte	0
 3796 0054 00000000 		.4byte	0
 3797              		.section	.debug_ranges,"",%progbits
 3798              	.Ldebug_ranges0:
 3799 0000 70000000 		.4byte	.LBB46
 3800 0004 74000000 		.4byte	.LBE46
 3801 0008 D0000000 		.4byte	.LBB67
 3802 000c F6000000 		.4byte	.LBE67
 3803 0010 00000000 		.4byte	0
 3804 0014 00000000 		.4byte	0
 3805 0018 86000000 		.4byte	.LBB53
 3806 001c 88000000 		.4byte	.LBE53
 3807 0020 8A000000 		.4byte	.LBB65
 3808 0024 8C000000 		.4byte	.LBE65
 3809 0028 00000000 		.4byte	0
 3810 002c 00000000 		.4byte	0
 3811 0030 88000000 		.4byte	.LBB56
 3812 0034 8A000000 		.4byte	.LBE56
 3813 0038 8C000000 		.4byte	.LBB66
ARM GAS  /tmp/ccuRxgwH.s 			page 68


 3814 003c 90000000 		.4byte	.LBE66
 3815 0040 00000000 		.4byte	0
 3816 0044 00000000 		.4byte	0
 3817 0048 28000000 		.4byte	.LBB68
 3818 004c 2C000000 		.4byte	.LBE68
 3819 0050 30000000 		.4byte	.LBB69
 3820 0054 32000000 		.4byte	.LBE69
 3821 0058 34000000 		.4byte	.LBB70
 3822 005c 38000000 		.4byte	.LBE70
 3823 0060 00000000 		.4byte	0
 3824 0064 00000000 		.4byte	0
 3825 0068 00000000 		.4byte	.LBB71
 3826 006c 02000000 		.4byte	.LBE71
 3827 0070 06000000 		.4byte	.LBB79
 3828 0074 08000000 		.4byte	.LBE79
 3829 0078 0A000000 		.4byte	.LBB80
 3830 007c 0C000000 		.4byte	.LBE80
 3831 0080 00000000 		.4byte	0
 3832 0084 00000000 		.4byte	0
 3833 0088 00000000 		.4byte	.LBB73
 3834 008c 02000000 		.4byte	.LBE73
 3835 0090 06000000 		.4byte	.LBB76
 3836 0094 08000000 		.4byte	.LBE76
 3837 0098 00000000 		.4byte	0
 3838 009c 00000000 		.4byte	0
 3839 00a0 00000000 		.4byte	.LFB257
 3840 00a4 02000000 		.4byte	.LFE257
 3841 00a8 00000000 		.4byte	.LFB256
 3842 00ac 30010000 		.4byte	.LFE256
 3843 00b0 00000000 		.4byte	.LFB258
 3844 00b4 58000000 		.4byte	.LFE258
 3845 00b8 00000000 		.4byte	.LFB259
 3846 00bc 54000000 		.4byte	.LFE259
 3847 00c0 00000000 		.4byte	.LFB260
 3848 00c4 20000000 		.4byte	.LFE260
 3849 00c8 00000000 		.4byte	.LFB261
 3850 00cc 1C000000 		.4byte	.LFE261
 3851 00d0 00000000 		.4byte	.LFB262
 3852 00d4 20000000 		.4byte	.LFE262
 3853 00d8 00000000 		.4byte	.LFB263
 3854 00dc 1C000000 		.4byte	.LFE263
 3855 00e0 00000000 		.4byte	0
 3856 00e4 00000000 		.4byte	0
 3857              		.section	.debug_line,"",%progbits
 3858              	.Ldebug_line0:
 3859 0000 A1030000 		.section	.debug_str,"MS",%progbits,1
 3859      02007E02 
 3859      00000201 
 3859      FB0E0D00 
 3859      01010101 
 3860              	.LASF55:
 3861 0000 74687265 		.ascii	"threads_queue_t\000"
 3861      6164735F 
 3861      71756575 
 3861      655F7400 
 3862              	.LASF97:
 3863 0010 77746D74 		.ascii	"wtmtxp\000"
ARM GAS  /tmp/ccuRxgwH.s 			page 69


 3863      787000
 3864              	.LASF91:
 3865 0017 746D5F63 		.ascii	"tm_calibration_t\000"
 3865      616C6962 
 3865      72617469 
 3865      6F6E5F74 
 3865      00
 3866              	.LASF43:
 3867 0028 705F7469 		.ascii	"p_time\000"
 3867      6D6500
 3868              	.LASF114:
 3869 002f 42535252 		.ascii	"BSRR\000"
 3869      00
 3870              	.LASF106:
 3871 0034 63686172 		.ascii	"char\000"
 3871      00
 3872              	.LASF86:
 3873 0039 72656761 		.ascii	"regarm_t\000"
 3873      726D5F74 
 3873      00
 3874              	.LASF34:
 3875 0042 705F7072 		.ascii	"p_prio\000"
 3875      696F00
 3876              	.LASF180:
 3877 0049 73657276 		.ascii	"servo_num\000"
 3877      6F5F6E75 
 3877      6D00
 3878              	.LASF125:
 3879 0053 4943555F 		.ascii	"ICU_WAITING\000"
 3879      57414954 
 3879      494E4700 
 3880              	.LASF30:
 3881 005f 73797374 		.ascii	"systime_t\000"
 3881      696D655F 
 3881      7400
 3882              	.LASF100:
 3883 0069 735F7175 		.ascii	"s_queue\000"
 3883      65756500 
 3884              	.LASF75:
 3885 0071 76745F73 		.ascii	"vt_systime\000"
 3885      79737469 
 3885      6D6500
 3886              	.LASF45:
 3887 007c 705F6D73 		.ascii	"p_msgqueue\000"
 3887      67717565 
 3887      756500
 3888              	.LASF14:
 3889 0087 756E7369 		.ascii	"unsigned int\000"
 3889      676E6564 
 3889      20696E74 
 3889      00
 3890              	.LASF196:
 3891 0094 5F70616C 		.ascii	"_pal_lld_setgroupmode\000"
 3891      5F6C6C64 
 3891      5F736574 
 3891      67726F75 
 3891      706D6F64 
ARM GAS  /tmp/ccuRxgwH.s 			page 70


 3892              	.LASF52:
 3893 00aa 74687265 		.ascii	"threads_list_t\000"
 3893      6164735F 
 3893      6C697374 
 3893      5F7400
 3894              	.LASF44:
 3895 00b9 705F7761 		.ascii	"p_waiting\000"
 3895      6974696E 
 3895      6700
 3896              	.LASF7:
 3897 00c3 5F5F696E 		.ascii	"__int32_t\000"
 3897      7433325F 
 3897      7400
 3898              	.LASF192:
 3899 00cd 69637563 		.ascii	"icucfg\000"
 3899      666700
 3900              	.LASF178:
 3901 00d4 73657276 		.ascii	"servodec_set_pulse_options\000"
 3901      6F646563 
 3901      5F736574 
 3901      5F70756C 
 3901      73655F6F 
 3902              	.LASF94:
 3903 00ef 77746F62 		.ascii	"wtobjp\000"
 3903      6A7000
 3904              	.LASF160:
 3905 00f6 706F7274 		.ascii	"port_lock\000"
 3905      5F6C6F63 
 3905      6B00
 3906              	.LASF82:
 3907 0100 76746C69 		.ascii	"vtlist\000"
 3907      737400
 3908              	.LASF84:
 3909 0107 69646C65 		.ascii	"idle_thread_wa\000"
 3909      5F746872 
 3909      6561645F 
 3909      776100
 3910              	.LASF98:
 3911 0116 65776D61 		.ascii	"ewmask\000"
 3911      736B00
 3912              	.LASF152:
 3913 011d 6D6F6465 		.ascii	"mode\000"
 3913      00
 3914              	.LASF58:
 3915 0122 63685F72 		.ascii	"ch_ready_list\000"
 3915      65616479 
 3915      5F6C6973 
 3915      7400
 3916              	.LASF141:
 3917 0130 444D4152 		.ascii	"DMAR\000"
 3917      00
 3918              	.LASF190:
 3919 0135 69735F72 		.ascii	"is_running\000"
 3919      756E6E69 
 3919      6E6700
 3920              	.LASF123:
 3921 0140 4943555F 		.ascii	"ICU_STOP\000"
ARM GAS  /tmp/ccuRxgwH.s 			page 71


 3921      53544F50 
 3921      00
 3922              	.LASF168:
 3923 0149 63685654 		.ascii	"chVTTimeElapsedSinceX\000"
 3923      54696D65 
 3923      456C6170 
 3923      73656453 
 3923      696E6365 
 3924              	.LASF101:
 3925 015f 735F636E 		.ascii	"s_cnt\000"
 3925      7400
 3926              	.LASF77:
 3927 0165 63685F73 		.ascii	"ch_system_debug\000"
 3927      79737465 
 3927      6D5F6465 
 3927      62756700 
 3928              	.LASF18:
 3929 0175 75696E74 		.ascii	"uint32_t\000"
 3929      33325F74 
 3929      00
 3930              	.LASF173:
 3931 017e 69637570 		.ascii	"icup\000"
 3931      00
 3932              	.LASF179:
 3933 0183 6D656469 		.ascii	"median_filter\000"
 3933      616E5F66 
 3933      696C7465 
 3933      7200
 3934              	.LASF60:
 3935 0191 725F7072 		.ascii	"r_prio\000"
 3935      696F00
 3936              	.LASF140:
 3937 0198 42445452 		.ascii	"BDTR\000"
 3937      00
 3938              	.LASF72:
 3939 019d 76745F70 		.ascii	"vt_par\000"
 3939      617200
 3940              	.LASF155:
 3941 01a4 70657269 		.ascii	"period_cb\000"
 3941      6F645F63 
 3941      6200
 3942              	.LASF0:
 3943 01ae 666C6F61 		.ascii	"float\000"
 3943      7400
 3944              	.LASF99:
 3945 01b4 63685F73 		.ascii	"ch_semaphore\000"
 3945      656D6170 
 3945      686F7265 
 3945      00
 3946              	.LASF26:
 3947 01c1 74707269 		.ascii	"tprio_t\000"
 3947      6F5F7400 
 3948              	.LASF67:
 3949 01c9 63685F76 		.ascii	"ch_virtual_timer\000"
 3949      69727475 
 3949      616C5F74 
 3949      696D6572 
ARM GAS  /tmp/ccuRxgwH.s 			page 72


 3949      00
 3950              	.LASF137:
 3951 01da 43434D52 		.ascii	"CCMR1\000"
 3951      3100
 3952              	.LASF138:
 3953 01e0 43434D52 		.ascii	"CCMR2\000"
 3953      3200
 3954              	.LASF142:
 3955 01e6 43434D52 		.ascii	"CCMR3\000"
 3955      3300
 3956              	.LASF13:
 3957 01ec 6C6F6E67 		.ascii	"long long unsigned int\000"
 3957      206C6F6E 
 3957      6720756E 
 3957      7369676E 
 3957      65642069 
 3958              	.LASF182:
 3959 0203 73657276 		.ascii	"servodec_get_time_since_update\000"
 3959      6F646563 
 3959      5F676574 
 3959      5F74696D 
 3959      655F7369 
 3960              	.LASF5:
 3961 0222 5F5F7569 		.ascii	"__uint16_t\000"
 3961      6E743136 
 3961      5F7400
 3962              	.LASF29:
 3963 022d 636E745F 		.ascii	"cnt_t\000"
 3963      7400
 3964              	.LASF54:
 3965 0233 63685F74 		.ascii	"ch_threads_list\000"
 3965      68726561 
 3965      64735F6C 
 3965      69737400 
 3966              	.LASF110:
 3967 0243 4D4F4445 		.ascii	"MODER\000"
 3967      5200
 3968              	.LASF164:
 3969 0249 63685379 		.ascii	"chSysUnlock\000"
 3969      73556E6C 
 3969      6F636B00 
 3970              	.LASF117:
 3971 0255 41465248 		.ascii	"AFRH\000"
 3971      00
 3972              	.LASF118:
 3973 025a 73746D33 		.ascii	"stm32_gpio_t\000"
 3973      325F6770 
 3973      696F5F74 
 3973      00
 3974              	.LASF116:
 3975 0267 4146524C 		.ascii	"AFRL\000"
 3975      00
 3976              	.LASF36:
 3977 026c 705F6E65 		.ascii	"p_newer\000"
 3977      77657200 
 3978              	.LASF169:
 3979 0274 76616C75 		.ascii	"value\000"
ARM GAS  /tmp/ccuRxgwH.s 			page 73


 3979      6500
 3980              	.LASF74:
 3981 027a 63685F76 		.ascii	"ch_virtual_timers_list\000"
 3981      69727475 
 3981      616C5F74 
 3981      696D6572 
 3981      735F6C69 
 3982              	.LASF31:
 3983 0291 74687265 		.ascii	"thread_t\000"
 3983      61645F74 
 3983      00
 3984              	.LASF112:
 3985 029a 4F535045 		.ascii	"OSPEEDR\000"
 3985      45445200 
 3986              	.LASF199:
 3987 02a2 474E5520 		.ascii	"GNU C 4.8.4 20141219 (release) -mcpu=cortex-m4 -mfl"
 3987      4320342E 
 3987      382E3420 
 3987      32303134 
 3987      31323139 
 3988 02d5 6F61742D 		.ascii	"oat-abi=hard -mfpu=fpv4-sp-d16 -mno-thumb-interwork"
 3988      6162693D 
 3988      68617264 
 3988      202D6D66 
 3988      70753D66 
 3989 0308 202D6D74 		.ascii	" -mthumb -ggdb -O2 -std=gnu99 -fomit-frame-pointer "
 3989      68756D62 
 3989      202D6767 
 3989      6462202D 
 3989      4F32202D 
 3990 033b 2D66616C 		.ascii	"-falign-functions=16 -ffunction-sections -fdata-sec"
 3990      69676E2D 
 3990      66756E63 
 3990      74696F6E 
 3990      733D3136 
 3991 036e 74696F6E 		.ascii	"tions -fno-common -fsingle-precision-constant\000"
 3991      73202D66 
 3991      6E6F2D63 
 3991      6F6D6D6F 
 3991      6E202D66 
 3992              	.LASF176:
 3993 039c 73657276 		.ascii	"servodec_init\000"
 3993      6F646563 
 3993      5F696E69 
 3993      7400
 3994              	.LASF20:
 3995 03aa 73697A65 		.ascii	"size_t\000"
 3995      5F7400
 3996              	.LASF92:
 3997 03b1 7264796D 		.ascii	"rdymsg\000"
 3997      736700
 3998              	.LASF65:
 3999 03b8 76746675 		.ascii	"vtfunc_t\000"
 3999      6E635F74 
 3999      00
 4000              	.LASF90:
 4001 03c1 6F666673 		.ascii	"offset\000"
ARM GAS  /tmp/ccuRxgwH.s 			page 74


 4001      657400
 4002              	.LASF144:
 4003 03c8 73746D33 		.ascii	"stm32_tim_t\000"
 4003      325F7469 
 4003      6D5F7400 
 4004              	.LASF108:
 4005 03d4 5F426F6F 		.ascii	"_Bool\000"
 4005      6C00
 4006              	.LASF132:
 4007 03da 77636372 		.ascii	"wccrp\000"
 4007      7000
 4008              	.LASF171:
 4009 03e0 69637570 		.ascii	"icuperiodcb\000"
 4009      6572696F 
 4009      64636200 
 4010              	.LASF188:
 4011 03ec 6C617374 		.ascii	"last_len_received\000"
 4011      5F6C656E 
 4011      5F726563 
 4011      65697665 
 4011      6400
 4012              	.LASF104:
 4013 03fe 6D5F6F77 		.ascii	"m_owner\000"
 4013      6E657200 
 4014              	.LASF102:
 4015 0406 63685F6D 		.ascii	"ch_mutex\000"
 4015      75746578 
 4015      00
 4016              	.LASF184:
 4017 040f 6C617374 		.ascii	"last_update_time\000"
 4017      5F757064 
 4017      6174655F 
 4017      74696D65 
 4017      00
 4018              	.LASF12:
 4019 0420 5F5F7569 		.ascii	"__uint64_t\000"
 4019      6E743634 
 4019      5F7400
 4020              	.LASF136:
 4021 042b 44494552 		.ascii	"DIER\000"
 4021      00
 4022              	.LASF121:
 4023 0430 696F706F 		.ascii	"ioportid_t\000"
 4023      72746964 
 4023      5F7400
 4024              	.LASF162:
 4025 043b 63685379 		.ascii	"chSysLock\000"
 4025      734C6F63 
 4025      6B00
 4026              	.LASF131:
 4027 0445 636C6F63 		.ascii	"clock\000"
 4027      6B00
 4028              	.LASF113:
 4029 044b 50555044 		.ascii	"PUPDR\000"
 4029      5200
 4030              	.LASF38:
 4031 0451 705F6E61 		.ascii	"p_name\000"
ARM GAS  /tmp/ccuRxgwH.s 			page 75


 4031      6D6500
 4032              	.LASF194:
 4033 0458 49435544 		.ascii	"ICUD3\000"
 4033      3300
 4034              	.LASF139:
 4035 045e 43434552 		.ascii	"CCER\000"
 4035      00
 4036              	.LASF70:
 4037 0463 76745F64 		.ascii	"vt_delta\000"
 4037      656C7461 
 4037      00
 4038              	.LASF62:
 4039 046c 725F6E65 		.ascii	"r_newer\000"
 4039      77657200 
 4040              	.LASF204:
 4041 0474 69637553 		.ascii	"icuStop\000"
 4041      746F7000 
 4042              	.LASF23:
 4043 047c 74737461 		.ascii	"tstate_t\000"
 4043      74655F74 
 4043      00
 4044              	.LASF11:
 4045 0485 6C6F6E67 		.ascii	"long long int\000"
 4045      206C6F6E 
 4045      6720696E 
 4045      7400
 4046              	.LASF37:
 4047 0493 705F6F6C 		.ascii	"p_older\000"
 4047      64657200 
 4048              	.LASF39:
 4049 049b 705F7374 		.ascii	"p_state\000"
 4049      61746500 
 4050              	.LASF15:
 4051 04a3 75696E74 		.ascii	"uint8_t\000"
 4051      385F7400 
 4052              	.LASF156:
 4053 04ab 6F766572 		.ascii	"overflow_cb\000"
 4053      666C6F77 
 4053      5F636200 
 4054              	.LASF50:
 4055 04b7 705F6D70 		.ascii	"p_mpool\000"
 4055      6F6F6C00 
 4056              	.LASF48:
 4057 04bf 705F6D74 		.ascii	"p_mtxlist\000"
 4057      786C6973 
 4057      7400
 4058              	.LASF135:
 4059 04c9 534D4352 		.ascii	"SMCR\000"
 4059      00
 4060              	.LASF53:
 4061 04ce 63685F74 		.ascii	"ch_thread\000"
 4061      68726561 
 4061      6400
 4062              	.LASF76:
 4063 04d8 73797374 		.ascii	"system_debug_t\000"
 4063      656D5F64 
 4063      65627567 
ARM GAS  /tmp/ccuRxgwH.s 			page 76


 4063      5F7400
 4064              	.LASF159:
 4065 04e7 49435543 		.ascii	"ICUConfig\000"
 4065      6F6E6669 
 4065      6700
 4066              	.LASF56:
 4067 04f1 63685F74 		.ascii	"ch_threads_queue\000"
 4067      68726561 
 4067      64735F71 
 4067      75657565 
 4067      00
 4068              	.LASF187:
 4069 0502 70756C73 		.ascii	"pulse_end\000"
 4069      655F656E 
 4069      6400
 4070              	.LASF59:
 4071 050c 725F7175 		.ascii	"r_queue\000"
 4071      65756500 
 4072              	.LASF167:
 4073 0514 63685654 		.ascii	"chVTGetSystemTime\000"
 4073      47657453 
 4073      79737465 
 4073      6D54696D 
 4073      6500
 4074              	.LASF28:
 4075 0526 6576656E 		.ascii	"eventmask_t\000"
 4075      746D6173 
 4075      6B5F7400 
 4076              	.LASF127:
 4077 0532 69637573 		.ascii	"icustate_t\000"
 4077      74617465 
 4077      5F7400
 4078              	.LASF27:
 4079 053d 6D73675F 		.ascii	"msg_t\000"
 4079      7400
 4080              	.LASF88:
 4081 0543 636F6E74 		.ascii	"context\000"
 4081      65787400 
 4082              	.LASF119:
 4083 054b 696F706F 		.ascii	"ioportmask_t\000"
 4083      72746D61 
 4083      736B5F74 
 4083      00
 4084              	.LASF40:
 4085 0558 705F666C 		.ascii	"p_flags\000"
 4085      61677300 
 4086              	.LASF66:
 4087 0560 76697274 		.ascii	"virtual_timer_t\000"
 4087      75616C5F 
 4087      74696D65 
 4087      725F7400 
 4088              	.LASF175:
 4089 0570 645F6675 		.ascii	"d_func\000"
 4089      6E6300
 4090              	.LASF145:
 4091 0577 4943555F 		.ascii	"ICU_INPUT_ACTIVE_HIGH\000"
 4091      494E5055 
ARM GAS  /tmp/ccuRxgwH.s 			page 77


 4091      545F4143 
 4091      54495645 
 4091      5F484947 
 4092              	.LASF154:
 4093 058d 77696474 		.ascii	"width_cb\000"
 4093      685F6362 
 4093      00
 4094              	.LASF25:
 4095 0596 74736C69 		.ascii	"tslices_t\000"
 4095      6365735F 
 4095      7400
 4096              	.LASF63:
 4097 05a0 725F6F6C 		.ascii	"r_older\000"
 4097      64657200 
 4098              	.LASF200:
 4099 05a8 73657276 		.ascii	"servo_dec.c\000"
 4099      6F5F6465 
 4099      632E6300 
 4100              	.LASF46:
 4101 05b4 705F6D73 		.ascii	"p_msg\000"
 4101      6700
 4102              	.LASF22:
 4103 05ba 746D6F64 		.ascii	"tmode_t\000"
 4103      655F7400 
 4104              	.LASF166:
 4105 05c2 73797374 		.ascii	"systime\000"
 4105      696D6500 
 4106              	.LASF83:
 4107 05ca 6D61696E 		.ascii	"mainthread\000"
 4107      74687265 
 4107      616400
 4108              	.LASF151:
 4109 05d5 69637563 		.ascii	"icuchannel_t\000"
 4109      68616E6E 
 4109      656C5F74 
 4109      00
 4110              	.LASF16:
 4111 05e2 75696E74 		.ascii	"uint16_t\000"
 4111      31365F74 
 4111      00
 4112              	.LASF51:
 4113 05eb 74687265 		.ascii	"thread_reference_t\000"
 4113      61645F72 
 4113      65666572 
 4113      656E6365 
 4113      5F7400
 4114              	.LASF198:
 4115 05fe 69637545 		.ascii	"icuEnableNotifications\000"
 4115      6E61626C 
 4115      654E6F74 
 4115      69666963 
 4115      6174696F 
 4116              	.LASF21:
 4117 0615 7274636E 		.ascii	"rtcnt_t\000"
 4117      745F7400 
 4118              	.LASF157:
 4119 061d 6368616E 		.ascii	"channel\000"
ARM GAS  /tmp/ccuRxgwH.s 			page 78


 4119      6E656C00 
 4120              	.LASF158:
 4121 0625 64696572 		.ascii	"dier\000"
 4121      00
 4122              	.LASF143:
 4123 062a 43435852 		.ascii	"CCXR\000"
 4123      00
 4124              	.LASF109:
 4125 062f 636C6561 		.ascii	"clear\000"
 4125      7200
 4126              	.LASF130:
 4127 0635 636F6E66 		.ascii	"config\000"
 4127      696700
 4128              	.LASF189:
 4129 063c 7573655F 		.ascii	"use_median_filter\000"
 4129      6D656469 
 4129      616E5F66 
 4129      696C7465 
 4129      7200
 4130              	.LASF49:
 4131 064e 705F7265 		.ascii	"p_realprio\000"
 4131      616C7072 
 4131      696F00
 4132              	.LASF186:
 4133 0659 70756C73 		.ascii	"pulse_start\000"
 4133      655F7374 
 4133      61727400 
 4134              	.LASF197:
 4135 0665 69637553 		.ascii	"icuStartCapture\000"
 4135      74617274 
 4135      43617074 
 4135      75726500 
 4136              	.LASF3:
 4137 0675 73686F72 		.ascii	"short int\000"
 4137      7420696E 
 4137      7400
 4138              	.LASF195:
 4139 067f 69637553 		.ascii	"icuStart\000"
 4139      74617274 
 4139      00
 4140              	.LASF64:
 4141 0688 725F6375 		.ascii	"r_current\000"
 4141      7272656E 
 4141      7400
 4142              	.LASF47:
 4143 0692 705F6570 		.ascii	"p_epending\000"
 4143      656E6469 
 4143      6E6700
 4144              	.LASF103:
 4145 069d 6D5F7175 		.ascii	"m_queue\000"
 4145      65756500 
 4146              	.LASF8:
 4147 06a5 6C6F6E67 		.ascii	"long int\000"
 4147      20696E74 
 4147      00
 4148              	.LASF89:
 4149 06ae 706F7274 		.ascii	"port_intctx\000"
ARM GAS  /tmp/ccuRxgwH.s 			page 79


 4149      5F696E74 
 4149      63747800 
 4150              	.LASF193:
 4151 06ba 49544D5F 		.ascii	"ITM_RxBuffer\000"
 4151      52784275 
 4151      66666572 
 4151      00
 4152              	.LASF149:
 4153 06c7 4943555F 		.ascii	"ICU_CHANNEL_1\000"
 4153      4348414E 
 4153      4E454C5F 
 4153      3100
 4154              	.LASF150:
 4155 06d5 4943555F 		.ascii	"ICU_CHANNEL_2\000"
 4155      4348414E 
 4155      4E454C5F 
 4155      3200
 4156              	.LASF80:
 4157 06e3 63685F73 		.ascii	"ch_system\000"
 4157      79737465 
 4157      6D00
 4158              	.LASF183:
 4159 06ed 73657276 		.ascii	"servodec_get_last_pulse_len\000"
 4159      6F646563 
 4159      5F676574 
 4159      5F6C6173 
 4159      745F7075 
 4160              	.LASF111:
 4161 0709 4F545950 		.ascii	"OTYPER\000"
 4161      455200
 4162              	.LASF163:
 4163 0710 5F5F7365 		.ascii	"__set_BASEPRI\000"
 4163      745F4241 
 4163      53455052 
 4163      4900
 4164              	.LASF32:
 4165 071e 705F6E65 		.ascii	"p_next\000"
 4165      787400
 4166              	.LASF174:
 4167 0725 6C656E5F 		.ascii	"len_set\000"
 4167      73657400 
 4168              	.LASF19:
 4169 072d 75696E74 		.ascii	"uint64_t\000"
 4169      36345F74 
 4169      00
 4170              	.LASF35:
 4171 0736 705F6374 		.ascii	"p_ctx\000"
 4171      7800
 4172              	.LASF81:
 4173 073c 726C6973 		.ascii	"rlist\000"
 4173      7400
 4174              	.LASF147:
 4175 0742 6963756D 		.ascii	"icumode_t\000"
 4175      6F64655F 
 4175      7400
 4176              	.LASF4:
 4177 074c 5F5F7569 		.ascii	"__uint8_t\000"
ARM GAS  /tmp/ccuRxgwH.s 			page 80


 4177      6E74385F 
 4177      7400
 4178              	.LASF170:
 4179 0756 73746172 		.ascii	"start\000"
 4179      7400
 4180              	.LASF124:
 4181 075c 4943555F 		.ascii	"ICU_READY\000"
 4181      52454144 
 4181      5900
 4182              	.LASF148:
 4183 0766 69637566 		.ascii	"icufreq_t\000"
 4183      7265715F 
 4183      7400
 4184              	.LASF33:
 4185 0770 705F7072 		.ascii	"p_prev\000"
 4185      657600
 4186              	.LASF85:
 4187 0777 73697A65 		.ascii	"sizetype\000"
 4187      74797065 
 4187      00
 4188              	.LASF24:
 4189 0780 74726566 		.ascii	"trefs_t\000"
 4189      735F7400 
 4190              	.LASF203:
 4191 0788 7574696C 		.ascii	"utils_middle_of_3\000"
 4191      735F6D69 
 4191      64646C65 
 4191      5F6F665F 
 4191      3300
 4192              	.LASF10:
 4193 079a 6C6F6E67 		.ascii	"long unsigned int\000"
 4193      20756E73 
 4193      69676E65 
 4193      6420696E 
 4193      7400
 4194              	.LASF57:
 4195 07ac 72656164 		.ascii	"ready_list_t\000"
 4195      795F6C69 
 4195      73745F74 
 4195      00
 4196              	.LASF17:
 4197 07b9 696E7433 		.ascii	"int32_t\000"
 4197      325F7400 
 4198              	.LASF96:
 4199 07c1 77747365 		.ascii	"wtsemp\000"
 4199      6D7000
 4200              	.LASF122:
 4201 07c8 4943555F 		.ascii	"ICU_UNINIT\000"
 4201      554E494E 
 4201      495400
 4202              	.LASF107:
 4203 07d3 6D757465 		.ascii	"mutex_t\000"
 4203      785F7400 
 4204              	.LASF126:
 4205 07db 4943555F 		.ascii	"ICU_ACTIVE\000"
 4205      41435449 
 4205      564500
ARM GAS  /tmp/ccuRxgwH.s 			page 81


 4206              	.LASF2:
 4207 07e6 756E7369 		.ascii	"unsigned char\000"
 4207      676E6564 
 4207      20636861 
 4207      7200
 4208              	.LASF9:
 4209 07f4 5F5F7569 		.ascii	"__uint32_t\000"
 4209      6E743332 
 4209      5F7400
 4210              	.LASF73:
 4211 07ff 76697274 		.ascii	"virtual_timers_list_t\000"
 4211      75616C5F 
 4211      74696D65 
 4211      72735F6C 
 4211      6973745F 
 4212              	.LASF41:
 4213 0815 705F7265 		.ascii	"p_refs\000"
 4213      667300
 4214              	.LASF78:
 4215 081c 70616E69 		.ascii	"panic_msg\000"
 4215      635F6D73 
 4215      6700
 4216              	.LASF177:
 4217 0826 73657276 		.ascii	"servodec_stop\000"
 4217      6F646563 
 4217      5F73746F 
 4217      7000
 4218              	.LASF42:
 4219 0834 705F7072 		.ascii	"p_preempt\000"
 4219      65656D70 
 4219      7400
 4220              	.LASF185:
 4221 083e 73657276 		.ascii	"servo_pos\000"
 4221      6F5F706F 
 4221      7300
 4222              	.LASF153:
 4223 0848 66726571 		.ascii	"frequency\000"
 4223      75656E63 
 4223      7900
 4224              	.LASF129:
 4225 0852 73746174 		.ascii	"state\000"
 4225      6500
 4226              	.LASF146:
 4227 0858 4943555F 		.ascii	"ICU_INPUT_ACTIVE_LOW\000"
 4227      494E5055 
 4227      545F4143 
 4227      54495645 
 4227      5F4C4F57 
 4228              	.LASF68:
 4229 086d 76745F6E 		.ascii	"vt_next\000"
 4229      65787400 
 4230              	.LASF128:
 4231 0875 49435544 		.ascii	"ICUDriver\000"
 4231      72697665 
 4231      7200
 4232              	.LASF79:
 4233 087f 63685F73 		.ascii	"ch_system_t\000"
ARM GAS  /tmp/ccuRxgwH.s 			page 82


 4233      79737465 
 4233      6D5F7400 
 4234              	.LASF133:
 4235 088b 70636372 		.ascii	"pccrp\000"
 4235      7000
 4236              	.LASF181:
 4237 0891 73657276 		.ascii	"servodec_get_servo\000"
 4237      6F646563 
 4237      5F676574 
 4237      5F736572 
 4237      766F00
 4238              	.LASF120:
 4239 08a4 696F6D6F 		.ascii	"iomode_t\000"
 4239      64655F74 
 4239      00
 4240              	.LASF105:
 4241 08ad 6D5F6E65 		.ascii	"m_next\000"
 4241      787400
 4242              	.LASF134:
 4243 08b4 69637563 		.ascii	"icucallback_t\000"
 4243      616C6C62 
 4243      61636B5F 
 4243      7400
 4244              	.LASF1:
 4245 08c2 7369676E 		.ascii	"signed char\000"
 4245      65642063 
 4245      68617200 
 4246              	.LASF201:
 4247 08ce 2F686F6D 		.ascii	"/home/taylor/Programming/VESC/firmware\000"
 4247      652F7461 
 4247      796C6F72 
 4247      2F50726F 
 4247      6772616D 
 4248              	.LASF172:
 4249 08f5 69637577 		.ascii	"icuwidthcb\000"
 4249      69647468 
 4249      636200
 4250              	.LASF6:
 4251 0900 73686F72 		.ascii	"short unsigned int\000"
 4251      7420756E 
 4251      7369676E 
 4251      65642069 
 4251      6E7400
 4252              	.LASF61:
 4253 0913 725F6374 		.ascii	"r_ctx\000"
 4253      7800
 4254              	.LASF87:
 4255 0919 73746B61 		.ascii	"stkalign_t\000"
 4255      6C69676E 
 4255      5F7400
 4256              	.LASF165:
 4257 0924 5F5F6675 		.ascii	"__func__\000"
 4257      6E635F5F 
 4257      00
 4258              	.LASF71:
 4259 092d 76745F66 		.ascii	"vt_func\000"
 4259      756E6300 
ARM GAS  /tmp/ccuRxgwH.s 			page 83


 4260              	.LASF202:
 4261 0935 63685654 		.ascii	"chVTGetSystemTimeX\000"
 4261      47657453 
 4261      79737465 
 4261      6D54696D 
 4261      655800
 4262              	.LASF161:
 4263 0948 706F7274 		.ascii	"port_unlock\000"
 4263      5F756E6C 
 4263      6F636B00 
 4264              	.LASF69:
 4265 0954 76745F70 		.ascii	"vt_prev\000"
 4265      72657600 
 4266              	.LASF95:
 4267 095c 77747472 		.ascii	"wttrp\000"
 4267      7000
 4268              	.LASF93:
 4269 0962 65786974 		.ascii	"exitcode\000"
 4269      636F6465 
 4269      00
 4270              	.LASF115:
 4271 096b 4C434B52 		.ascii	"LCKR\000"
 4271      00
 4272              	.LASF191:
 4273 0970 646F6E65 		.ascii	"done_func\000"
 4273      5F66756E 
 4273      6300
 4274              		.ident	"GCC: (4.8.4-1+11-1) 4.8.4 20141219 (release)"
ARM GAS  /tmp/ccuRxgwH.s 			page 84


DEFINED SYMBOLS
                            *ABS*:0000000000000000 servo_dec.c
     /tmp/ccuRxgwH.s:21     .text.icuperiodcb:0000000000000000 $t
     /tmp/ccuRxgwH.s:26     .text.icuperiodcb:0000000000000000 icuperiodcb
     /tmp/ccuRxgwH.s:40     .text.icuwidthcb:0000000000000000 $t
     /tmp/ccuRxgwH.s:45     .text.icuwidthcb:0000000000000000 icuwidthcb
     /tmp/ccuRxgwH.s:251    .text.icuwidthcb:00000000000000f8 $d
     /tmp/ccuRxgwH.s:269    .text.servodec_init:0000000000000000 $t
     /tmp/ccuRxgwH.s:275    .text.servodec_init:0000000000000000 servodec_init
     /tmp/ccuRxgwH.s:344    .text.servodec_init:000000000000003c $d
     /tmp/ccuRxgwH.s:355    .text.servodec_stop:0000000000000000 $t
     /tmp/ccuRxgwH.s:361    .text.servodec_stop:0000000000000000 servodec_stop
     /tmp/ccuRxgwH.s:420    .text.servodec_stop:0000000000000038 $d
     /tmp/ccuRxgwH.s:431    .text.servodec_set_pulse_options:0000000000000000 $t
     /tmp/ccuRxgwH.s:437    .text.servodec_set_pulse_options:0000000000000000 servodec_set_pulse_options
     /tmp/ccuRxgwH.s:461    .text.servodec_set_pulse_options:0000000000000014 $d
     /tmp/ccuRxgwH.s:468    .text.servodec_get_servo:0000000000000000 $t
     /tmp/ccuRxgwH.s:474    .text.servodec_get_servo:0000000000000000 servodec_get_servo
     /tmp/ccuRxgwH.s:497    .text.servodec_get_servo:0000000000000014 $d
     /tmp/ccuRxgwH.s:503    .text.servodec_get_time_since_update:0000000000000000 $t
     /tmp/ccuRxgwH.s:509    .text.servodec_get_time_since_update:0000000000000000 servodec_get_time_since_update
     /tmp/ccuRxgwH.s:557    .text.servodec_get_time_since_update:0000000000000014 $d
     /tmp/ccuRxgwH.s:564    .text.servodec_get_last_pulse_len:0000000000000000 $t
     /tmp/ccuRxgwH.s:570    .text.servodec_get_last_pulse_len:0000000000000000 servodec_get_last_pulse_len
     /tmp/ccuRxgwH.s:593    .text.servodec_get_last_pulse_len:0000000000000014 $d
     /tmp/ccuRxgwH.s:599    .data.c2.9218:0000000000000000 $d
     /tmp/ccuRxgwH.s:603    .data.c2.9218:0000000000000000 c2.9218
     /tmp/ccuRxgwH.s:606    .bss.servo_pos:0000000000000000 $d
     /tmp/ccuRxgwH.s:610    .bss.servo_pos:0000000000000000 servo_pos
     /tmp/ccuRxgwH.s:613    .data.c1.9217:0000000000000000 $d
     /tmp/ccuRxgwH.s:617    .data.c1.9217:0000000000000000 c1.9217
     /tmp/ccuRxgwH.s:623    .bss.is_running:0000000000000000 is_running
     /tmp/ccuRxgwH.s:624    .bss.is_running:0000000000000000 $d
     /tmp/ccuRxgwH.s:626    .data.pulse_end:0000000000000000 $d
     /tmp/ccuRxgwH.s:630    .data.pulse_end:0000000000000000 pulse_end
     /tmp/ccuRxgwH.s:633    .bss.last_update_time:0000000000000000 $d
     /tmp/ccuRxgwH.s:637    .bss.last_update_time:0000000000000000 last_update_time
     /tmp/ccuRxgwH.s:640    .bss.last_len_received:0000000000000000 $d
     /tmp/ccuRxgwH.s:644    .bss.last_len_received:0000000000000000 last_len_received
     /tmp/ccuRxgwH.s:650    .bss.use_median_filter:0000000000000000 use_median_filter
     /tmp/ccuRxgwH.s:651    .bss.use_median_filter:0000000000000000 $d
     /tmp/ccuRxgwH.s:653    .data.pulse_start:0000000000000000 $d
     /tmp/ccuRxgwH.s:657    .data.pulse_start:0000000000000000 pulse_start
     /tmp/ccuRxgwH.s:660    .bss.done_func:0000000000000000 $d
     /tmp/ccuRxgwH.s:664    .bss.done_func:0000000000000000 done_func
     /tmp/ccuRxgwH.s:667    .data.icucfg:0000000000000000 $d
     /tmp/ccuRxgwH.s:671    .data.icucfg:0000000000000000 icucfg
                     .debug_frame:0000000000000010 $d
     /tmp/ccuRxgwH.s:354    .text.servodec_init:0000000000000058 $t
     /tmp/ccuRxgwH.s:430    .text.servodec_stop:0000000000000054 $t
     /tmp/ccuRxgwH.s:502    .text.servodec_get_servo:000000000000001c $t
     /tmp/ccuRxgwH.s:598    .text.servodec_get_last_pulse_len:000000000000001c $t

UNDEFINED SYMBOLS
utils_middle_of_3
ch
icuStart
ARM GAS  /tmp/ccuRxgwH.s 			page 85


_pal_lld_setgroupmode
icuStartCapture
icuEnableNotifications
ICUD3
icuStop
