ARM GAS  /tmp/ccuRxgwH.s 			page 1


   1              		.syntax unified
   2              		.cpu cortex-m4
   3              		.eabi_attribute 27, 3
   4              		.eabi_attribute 28, 1
   5              		.fpu fpv4-sp-d16
   6              		.eabi_attribute 20, 1
   7              		.eabi_attribute 21, 1
   8              		.eabi_attribute 23, 3
   9              		.eabi_attribute 24, 1
  10              		.eabi_attribute 25, 1
  11              		.eabi_attribute 26, 1
  12              		.eabi_attribute 30, 2
  13              		.eabi_attribute 34, 1
  14              		.eabi_attribute 18, 4
  15              		.thumb
  16              		.file	"servo_dec.c"
  17              		.text
  18              	.Ltext0:
  19              		.cfi_sections	.debug_frame
  20              		.section	.text.icuperiodcb,"ax",%progbits
  21              		.align	2
  22              		.p2align 4,,15
  23              		.thumb
  24              		.thumb_func
  25              		.type	icuperiodcb, %function
  26              	icuperiodcb:
  27              	.LFB257:
  28              		.file 1 "servo_dec.c"
  29              		.loc 1 89 0
  30              		.cfi_startproc
  31              		@ args = 0, pretend = 0, frame = 0
  32              		@ frame_needed = 0, uses_anonymous_args = 0
  33              		@ link register save eliminated.
  34              	.LVL0:
  35 0000 7047     		bx	lr
  36              		.cfi_endproc
  37              	.LFE257:
  38              		.size	icuperiodcb, .-icuperiodcb
  39 0002 00BFAFF3 		.section	.text.icuwidthcb,"ax",%progbits
  39      0080AFF3 
  39      0080AFF3 
  39      0080
  40              		.align	2
  41              		.p2align 4,,15
  42              		.thumb
  43              		.thumb_func
  44              		.type	icuwidthcb, %function
  45              	icuwidthcb:
  46              	.LFB256:
  47              		.loc 1 45 0
  48              		.cfi_startproc
  49              		@ args = 0, pretend = 0, frame = 0
  50              		@ frame_needed = 0, uses_anonymous_args = 0
  51              	.LVL1:
  52              		.loc 1 45 0
  53 0000 38B5     		push	{r3, r4, r5, lr}
  54              		.cfi_def_cfa_offset 16
ARM GAS  /tmp/ccuRxgwH.s 			page 2


  55              		.cfi_offset 3, -16
  56              		.cfi_offset 4, -12
  57              		.cfi_offset 5, -8
  58              		.cfi_offset 14, -4
  59              		.loc 1 46 0
  60 0002 0369     		ldr	r3, [r0, #16]
  61 0004 9FED3C7A 		flds	s14, .L24
  62 0008 1868     		ldr	r0, [r3]
  63              	.LVL2:
  64 000a 3C4A     		ldr	r2, .L24+4
  65              		.loc 1 47 0
  66 000c 3C4B     		ldr	r3, .L24+8
  67              		.loc 1 48 0
  68 000e 3D49     		ldr	r1, .L24+12
  69              		.loc 1 46 0
  70 0010 0130     		adds	r0, r0, #1
  71 0012 07EE900A 		fmsr	s15, r0	@ int
  72 0016 F8EE677A 		fuitos	s15, s15
  73              		.loc 1 45 0
  74 001a 2DED028B 		fstmfdd	sp!, {d8}
  75              		.cfi_def_cfa_offset 24
  76              		.cfi_offset 80, -24
  77              		.loc 1 46 0
  78 001e C7EE877A 		fdivs	s15, s15, s14
  79 0022 C2ED007A 		fsts	s15, [r2]
  80              		.loc 1 47 0
  81 0026 92ED006A 		flds	s12, [r2]
  82 002a D3ED007A 		flds	s15, [r3]
  83              		.loc 1 48 0
  84 002e D1ED006A 		flds	s13, [r1]
  85 0032 93ED007A 		flds	s14, [r3]
  86              		.loc 1 47 0
  87 0036 76EE677A 		fsubs	s15, s12, s15
  88              	.LVL3:
  89              		.loc 1 48 0
  90 003a 36EEC77A 		fsubs	s14, s13, s14
  91              	.LVL4:
  92              		.loc 1 50 0
  93 003e F4EEC77A 		fcmpes	s15, s14
  94 0042 F1EE10FA 		fmstat
  95 0046 2CDD     		ble	.L21
  96              		.loc 1 51 0
  97 0048 DFED2F6A 		flds	s13, .L24+16
  98 004c 67EE266A 		fmuls	s13, s14, s13
  99 0050 F4EEE67A 		fcmpes	s15, s13
 100 0054 F1EE10FA 		fmstat
 101 0058 20D5     		bpl	.L2
 102              		.loc 1 52 0
 103 005a F0EE477A 		fcpys	s15, s14
 104              	.LVL5:
 105              	.L5:
 106              		.loc 1 66 0
 107 005e F5EEC07A 		fcmpezs	s15
 108 0062 F1EE10FA 		fmstat
 109 0066 19DB     		blt	.L2
 110 0068 77EEA77A 		fadds	s15, s15, s15
 111              	.LVL6:
ARM GAS  /tmp/ccuRxgwH.s 			page 3


 112              	.L8:
 113              		.loc 1 67 0
 114 006c 274B     		ldr	r3, .L24+20
 115 006e 1B78     		ldrb	r3, [r3]	@ zero_extendqisi2
 116              	.LBB46:
 117              		.loc 1 68 0
 118 0070 77EEC77A 		fsubs	s15, s15, s14
 119              	.LBE46:
 120              		.loc 1 67 0
 121 0074 63BB     		cbnz	r3, .L23
 122              		.loc 1 78 0
 123 0076 87EE877A 		fdivs	s14, s15, s14
 124              	.LVL7:
 125 007a 254B     		ldr	r3, .L24+24
 126 007c 83ED007A 		fsts	s14, [r3]
 127              	.L12:
 128              	.LVL8:
 129              	.LBB47:
 130              	.LBB48:
 131              	.LBB49:
 132              	.LBB50:
 133              	.LBB51:
 134              	.LBB52:
 135              		.file 2 "ChibiOS_3.0.2/os/ext/CMSIS/include/core_cmFunc.h"
 136              		.loc 2 546 0
 137 0080 2023     		movs	r3, #32
 138              	@ 546 "ChibiOS_3.0.2/os/ext/CMSIS/include/core_cmFunc.h" 1
 139 0082 83F31188 		MSR basepri, r3
 140              	@ 0 "" 2
 141              		.thumb
 142              	.LBE52:
 143              	.LBE51:
 144              	.LBE50:
 145              	.LBE49:
 146              	.LBB53:
 147              	.LBB54:
 148              		.file 3 "ChibiOS_3.0.2/os/rt/include/chvt.h"
 149              		.loc 3 231 0
 150 0086 234A     		ldr	r2, .L24+28
 151              	.LBE54:
 152              	.LBE53:
 153              	.LBB56:
 154              	.LBB57:
 155              	.LBB58:
 156              	.LBB59:
 157              	.LBB60:
 158              		.loc 2 546 0
 159 0088 0023     		movs	r3, #0
 160              	.LBE60:
 161              	.LBE59:
 162              	.LBE58:
 163              	.LBE57:
 164              	.LBE56:
 165              	.LBB65:
 166              	.LBB55:
 167              		.loc 3 231 0
 168 008a 916A     		ldr	r1, [r2, #40]
ARM GAS  /tmp/ccuRxgwH.s 			page 4


 169              	.LVL9:
 170              	.LBE55:
 171              	.LBE65:
 172              	.LBB66:
 173              	.LBB64:
 174              	.LBB63:
 175              	.LBB62:
 176              	.LBB61:
 177              		.loc 2 546 0
 178              	@ 546 "ChibiOS_3.0.2/os/ext/CMSIS/include/core_cmFunc.h" 1
 179 008c 83F31188 		MSR basepri, r3
 180              	@ 0 "" 2
 181              		.thumb
 182              	.LBE61:
 183              	.LBE62:
 184              	.LBE63:
 185              	.LBE64:
 186              	.LBE66:
 187              	.LBE48:
 188              	.LBE47:
 189              		.loc 1 83 0
 190 0090 214B     		ldr	r3, .L24+32
 191              		.loc 1 81 0
 192 0092 224A     		ldr	r2, .L24+36
 193              		.loc 1 83 0
 194 0094 1B68     		ldr	r3, [r3]
 195              		.loc 1 81 0
 196 0096 1160     		str	r1, [r2]
 197              		.loc 1 83 0
 198 0098 03B1     		cbz	r3, .L2
 199              		.loc 1 84 0
 200 009a 9847     		blx	r3
 201              	.LVL10:
 202              	.L2:
 203              		.loc 1 87 0
 204 009c BDEC028B 		fldmfdd	sp!, {d8}
 205 00a0 38BD     		pop	{r3, r4, r5, pc}
 206              	.LVL11:
 207              	.L21:
 208              		.loc 1 57 0
 209 00a2 F5EEC07A 		fcmpezs	s15
 210 00a6 F1EE10FA 		fmstat
 211 00aa D8D5     		bpl	.L5
 212              		.loc 1 58 0
 213 00ac D3ED005A 		flds	s11, [r3]
 214 00b0 DFED1B6A 		flds	s13, .L24+40
 215 00b4 93ED006A 		flds	s12, [r3]
 216 00b8 77EEA57A 		fadds	s15, s15, s11
 217              	.LVL12:
 218 00bc 66EE266A 		fmuls	s13, s12, s13
 219 00c0 F4EEE67A 		fcmpes	s15, s13
 220 00c4 F1EE10FA 		fmstat
 221 00c8 E8DD     		ble	.L2
 222 00ca DFED167A 		flds	s15, .L24+44
 223 00ce CDE7     		b	.L8
 224              	.L23:
 225              	.LBB67:
ARM GAS  /tmp/ccuRxgwH.s 			page 5


 226              		.loc 1 68 0
 227 00d0 87EE878A 		fdivs	s16, s15, s14
 228              	.LVL13:
 229              		.loc 1 71 0
 230 00d4 144C     		ldr	r4, .L24+48
 231 00d6 154D     		ldr	r5, .L24+52
 232 00d8 D4ED000A 		flds	s1, [r4]
 233 00dc 95ED001A 		flds	s2, [r5]
 234 00e0 B0EE480A 		fcpys	s0, s16
 235 00e4 FFF7FEFF 		bl	utils_middle_of_3
 236              	.LVL14:
 237              		.loc 1 76 0
 238 00e8 094B     		ldr	r3, .L24+24
 239              		.loc 1 73 0
 240 00ea 2268     		ldr	r2, [r4]	@ float
 241 00ec 2A60     		str	r2, [r5]	@ float
 242              		.loc 1 74 0
 243 00ee 84ED008A 		fsts	s16, [r4]
 244              		.loc 1 76 0
 245 00f2 83ED000A 		fsts	s0, [r3]
 246              	.LBE67:
 247 00f6 C3E7     		b	.L12
 248              	.L25:
 249              		.align	2
 250              	.L24:
 251 00f8 00007A44 		.word	1148846080
 252 00fc 00000000 		.word	.LANCHOR0
 253 0100 00000000 		.word	.LANCHOR1
 254 0104 00000000 		.word	.LANCHOR2
 255 0108 9A99993F 		.word	1067030938
 256 010c 00000000 		.word	.LANCHOR3
 257 0110 00000000 		.word	.LANCHOR6
 258 0114 00000000 		.word	ch
 259 0118 00000000 		.word	.LANCHOR8
 260 011c 00000000 		.word	.LANCHOR7
 261 0120 CDCC4C3F 		.word	1061997773
 262 0124 00000000 		.word	0
 263 0128 00000000 		.word	.LANCHOR4
 264 012c 00000000 		.word	.LANCHOR5
 265              		.cfi_endproc
 266              	.LFE256:
 267              		.size	icuwidthcb, .-icuwidthcb
 268              		.section	.text.servodec_init,"ax",%progbits
 269              		.align	2
 270              		.p2align 4,,15
 271              		.global	servodec_init
 272              		.thumb
 273              		.thumb_func
 274              		.type	servodec_init, %function
 275              	servodec_init:
 276              	.LFB258:
 277              		.loc 1 110 0
 278              		.cfi_startproc
 279              		@ args = 0, pretend = 0, frame = 0
 280              		@ frame_needed = 0, uses_anonymous_args = 0
 281              	.LVL15:
 282 0000 38B5     		push	{r3, r4, r5, lr}
ARM GAS  /tmp/ccuRxgwH.s 			page 6


 283              		.cfi_def_cfa_offset 16
 284              		.cfi_offset 3, -16
 285              		.cfi_offset 4, -12
 286              		.cfi_offset 5, -8
 287              		.cfi_offset 14, -4
 288              		.loc 1 111 0
 289 0002 0E4C     		ldr	r4, .L27
 290 0004 0E49     		ldr	r1, .L27+4
 291              		.loc 1 110 0
 292 0006 0546     		mov	r5, r0
 293              		.loc 1 111 0
 294 0008 2046     		mov	r0, r4
 295              	.LVL16:
 296 000a FFF7FEFF 		bl	icuStart
 297              	.LVL17:
 298              		.loc 1 112 0
 299 000e 2021     		movs	r1, #32
 300 0010 4FF48172 		mov	r2, #258
 301 0014 0B48     		ldr	r0, .L27+8
 302 0016 FFF7FEFF 		bl	_pal_lld_setgroupmode
 303              	.LVL18:
 304              		.loc 1 113 0
 305 001a 2046     		mov	r0, r4
 306 001c FFF7FEFF 		bl	icuStartCapture
 307              	.LVL19:
 308              		.loc 1 114 0
 309 0020 2046     		mov	r0, r4
 310 0022 FFF7FEFF 		bl	icuEnableNotifications
 311              	.LVL20:
 312              		.loc 1 122 0
 313 0026 0849     		ldr	r1, .L27+12
 314              	.LBB68:
 315              		.loc 1 117 0
 316 0028 084C     		ldr	r4, .L27+16
 317              		.loc 1 118 0
 318 002a 0948     		ldr	r0, .L27+20
 319              	.LBE68:
 320              		.loc 1 124 0
 321 002c 094A     		ldr	r2, .L27+24
 322              		.loc 1 122 0
 323 002e 0D60     		str	r5, [r1]
 324              	.LBB69:
 325              		.loc 1 117 0
 326 0030 0023     		movs	r3, #0
 327              	.LBE69:
 328              		.loc 1 124 0
 329 0032 0121     		movs	r1, #1
 330              	.LBB70:
 331              		.loc 1 117 0
 332 0034 2360     		str	r3, [r4]	@ float
 333              		.loc 1 118 0
 334 0036 0360     		str	r3, [r0]	@ float
 335              	.LVL21:
 336              	.LBE70:
 337              		.loc 1 124 0
 338 0038 1170     		strb	r1, [r2]
 339 003a 38BD     		pop	{r3, r4, r5, pc}
ARM GAS  /tmp/ccuRxgwH.s 			page 7


 340              	.LVL22:
 341              	.L28:
 342              		.align	2
 343              	.L27:
 344 003c 00000000 		.word	ICUD3
 345 0040 00000000 		.word	.LANCHOR9
 346 0044 00040240 		.word	1073873920
 347 0048 00000000 		.word	.LANCHOR8
 348 004c 00000000 		.word	.LANCHOR6
 349 0050 00000000 		.word	.LANCHOR0
 350 0054 00000000 		.word	.LANCHOR10
 351              		.cfi_endproc
 352              	.LFE258:
 353              		.size	servodec_init, .-servodec_init
 354 0058 AFF30080 		.section	.text.servodec_stop,"ax",%progbits
 354      AFF30080 
 355              		.align	2
 356              		.p2align 4,,15
 357              		.global	servodec_stop
 358              		.thumb
 359              		.thumb_func
 360              		.type	servodec_stop, %function
 361              	servodec_stop:
 362              	.LFB259:
 363              		.loc 1 130 0
 364              		.cfi_startproc
 365              		@ args = 0, pretend = 0, frame = 0
 366              		@ frame_needed = 0, uses_anonymous_args = 0
 367 0000 F8B5     		push	{r3, r4, r5, r6, r7, lr}
 368              		.cfi_def_cfa_offset 24
 369              		.cfi_offset 3, -24
 370              		.cfi_offset 4, -20
 371              		.cfi_offset 5, -16
 372              		.cfi_offset 6, -12
 373              		.cfi_offset 7, -8
 374              		.cfi_offset 14, -4
 375              		.loc 1 131 0
 376 0002 0D4C     		ldr	r4, .L34
 377 0004 2378     		ldrb	r3, [r4]	@ zero_extendqisi2
 378 0006 A3B1     		cbz	r3, .L30
 379              		.loc 1 132 0
 380 0008 0C48     		ldr	r0, .L34+4
 381              		.loc 1 134 0
 382 000a 0D4D     		ldr	r5, .L34+8
 383              		.loc 1 132 0
 384 000c FFF7FEFF 		bl	icuStop
 385              	.LVL23:
 386              		.loc 1 133 0
 387 0010 0C48     		ldr	r0, .L34+12
 388 0012 2021     		movs	r1, #32
 389 0014 0022     		movs	r2, #0
 390 0016 FFF7FEFF 		bl	_pal_lld_setgroupmode
 391              	.LVL24:
 392              		.loc 1 135 0
 393 001a 0B49     		ldr	r1, .L34+16
 394              		.loc 1 136 0
 395 001c 0B4A     		ldr	r2, .L34+20
ARM GAS  /tmp/ccuRxgwH.s 			page 8


 396              		.loc 1 137 0
 397 001e 0C48     		ldr	r0, .L34+24
 398              		.loc 1 136 0
 399 0020 0023     		movs	r3, #0
 400              		.loc 1 134 0
 401 0022 4FF07E57 		mov	r7, #1065353216
 402              		.loc 1 135 0
 403 0026 4FF08046 		mov	r6, #1073741824
 404              		.loc 1 134 0
 405 002a 2F60     		str	r7, [r5]	@ float
 406              		.loc 1 137 0
 407 002c 0360     		str	r3, [r0]
 408              		.loc 1 135 0
 409 002e 0E60     		str	r6, [r1]	@ float
 410              		.loc 1 136 0
 411 0030 1370     		strb	r3, [r2]
 412              	.L30:
 413              		.loc 1 140 0
 414 0032 0023     		movs	r3, #0
 415 0034 2370     		strb	r3, [r4]
 416 0036 F8BD     		pop	{r3, r4, r5, r6, r7, pc}
 417              	.L35:
 418              		.align	2
 419              	.L34:
 420 0038 00000000 		.word	.LANCHOR10
 421 003c 00000000 		.word	ICUD3
 422 0040 00000000 		.word	.LANCHOR1
 423 0044 00040240 		.word	1073873920
 424 0048 00000000 		.word	.LANCHOR2
 425 004c 00000000 		.word	.LANCHOR3
 426 0050 00000000 		.word	.LANCHOR8
 427              		.cfi_endproc
 428              	.LFE259:
 429              		.size	servodec_stop, .-servodec_stop
 430 0054 AFF30080 		.section	.text.servodec_set_pulse_options,"ax",%progbits
 430      AFF30080 
 430      AFF30080 
 431              		.align	2
 432              		.p2align 4,,15
 433              		.global	servodec_set_pulse_options
 434              		.thumb
 435              		.thumb_func
 436              		.type	servodec_set_pulse_options, %function
 437              	servodec_set_pulse_options:
 438              	.LFB260:
 439              		.loc 1 152 0
 440              		.cfi_startproc
 441              		@ args = 0, pretend = 0, frame = 0
 442              		@ frame_needed = 0, uses_anonymous_args = 0
 443              		@ link register save eliminated.
 444              	.LVL25:
 445              		.loc 1 153 0
 446 0000 0449     		ldr	r1, .L37
 447              		.loc 1 154 0
 448 0002 054A     		ldr	r2, .L37+4
 449              		.loc 1 155 0
 450 0004 054B     		ldr	r3, .L37+8
ARM GAS  /tmp/ccuRxgwH.s 			page 9


 451              		.loc 1 153 0
 452 0006 81ED000A 		fsts	s0, [r1]
 453              		.loc 1 154 0
 454 000a C2ED000A 		fsts	s1, [r2]
 455              		.loc 1 155 0
 456 000e 1870     		strb	r0, [r3]
 457 0010 7047     		bx	lr
 458              	.L38:
 459 0012 00BF     		.align	2
 460              	.L37:
 461 0014 00000000 		.word	.LANCHOR1
 462 0018 00000000 		.word	.LANCHOR2
 463 001c 00000000 		.word	.LANCHOR3
 464              		.cfi_endproc
 465              	.LFE260:
 466              		.size	servodec_set_pulse_options, .-servodec_set_pulse_options
 467              		.section	.text.servodec_get_servo,"ax",%progbits
 468              		.align	2
 469              		.p2align 4,,15
 470              		.global	servodec_get_servo
 471              		.thumb
 472              		.thumb_func
 473              		.type	servodec_get_servo, %function
 474              	servodec_get_servo:
 475              	.LFB261:
 476              		.loc 1 167 0
 477              		.cfi_startproc
 478              		@ args = 0, pretend = 0, frame = 0
 479              		@ frame_needed = 0, uses_anonymous_args = 0
 480              		@ link register save eliminated.
 481              	.LVL26:
 482              		.loc 1 168 0
 483 0000 0028     		cmp	r0, #0
 484              		.loc 1 169 0
 485 0002 DDBF     		ittte	le
 486 0004 034B     		ldrle	r3, .L42
 487 0006 03EB8000 		addle	r0, r3, r0, lsl #2
 488              	.LVL27:
 489 000a 90ED000A 		fldsle	s0, [r0]
 490              		.loc 1 171 0
 491 000e 9FED020A 		fldsgt	s0, .L42+4
 492              		.loc 1 173 0
 493 0012 7047     		bx	lr
 494              	.L43:
 495              		.align	2
 496              	.L42:
 497 0014 00000000 		.word	.LANCHOR6
 498 0018 00000000 		.word	0
 499              		.cfi_endproc
 500              	.LFE261:
 501              		.size	servodec_get_servo, .-servodec_get_servo
 502 001c AFF30080 		.section	.text.servodec_get_time_since_update,"ax",%progbits
 503              		.align	2
 504              		.p2align 4,,15
 505              		.global	servodec_get_time_since_update
 506              		.thumb
 507              		.thumb_func
ARM GAS  /tmp/ccuRxgwH.s 			page 10


 508              		.type	servodec_get_time_since_update, %function
 509              	servodec_get_time_since_update:
 510              	.LFB262:
 511              		.loc 1 182 0
 512              		.cfi_startproc
 513              		@ args = 0, pretend = 0, frame = 0
 514              		@ frame_needed = 0, uses_anonymous_args = 0
 515              		@ link register save eliminated.
 516              	.LBB71:
 517              	.LBB72:
 518              	.LBB73:
 519              	.LBB74:
 520              		.loc 3 231 0
 521 0000 044B     		ldr	r3, .L45
 522              	.LBE74:
 523              	.LBE73:
 524              	.LBE72:
 525              	.LBE71:
 526              		.loc 1 183 0
 527 0002 054A     		ldr	r2, .L45+4
 528 0004 1268     		ldr	r2, [r2]
 529              	.LVL28:
 530              	.LBB79:
 531              	.LBB77:
 532              	.LBB76:
 533              	.LBB75:
 534              		.loc 3 231 0
 535 0006 986A     		ldr	r0, [r3, #40]
 536              	.LBE75:
 537              	.LBE76:
 538              	.LBE77:
 539              	.LBE79:
 540              		.loc 1 183 0
 541 0008 044B     		ldr	r3, .L45+8
 542              	.LBB80:
 543              	.LBB78:
 544              		.loc 3 267 0
 545 000a 801A     		subs	r0, r0, r2
 546              	.LBE78:
 547              	.LBE80:
 548              		.loc 1 183 0
 549 000c A3FB0020 		umull	r2, r0, r3, r0
 550              	.LVL29:
 551              		.loc 1 184 0
 552 0010 C008     		lsrs	r0, r0, #3
 553 0012 7047     		bx	lr
 554              	.L46:
 555              		.align	2
 556              	.L45:
 557 0014 00000000 		.word	ch
 558 0018 00000000 		.word	.LANCHOR7
 559 001c CDCCCCCC 		.word	-858993459
 560              		.cfi_endproc
 561              	.LFE262:
 562              		.size	servodec_get_time_since_update, .-servodec_get_time_since_update
 563              		.section	.text.servodec_get_last_pulse_len,"ax",%progbits
 564              		.align	2
ARM GAS  /tmp/ccuRxgwH.s 			page 11


 565              		.p2align 4,,15
 566              		.global	servodec_get_last_pulse_len
 567              		.thumb
 568              		.thumb_func
 569              		.type	servodec_get_last_pulse_len, %function
 570              	servodec_get_last_pulse_len:
 571              	.LFB263:
 572              		.loc 1 195 0
 573              		.cfi_startproc
 574              		@ args = 0, pretend = 0, frame = 0
 575              		@ frame_needed = 0, uses_anonymous_args = 0
 576              		@ link register save eliminated.
 577              	.LVL30:
 578              		.loc 1 196 0
 579 0000 0028     		cmp	r0, #0
 580              		.loc 1 197 0
 581 0002 DDBF     		ittte	le
 582 0004 034B     		ldrle	r3, .L50
 583 0006 03EB8000 		addle	r0, r3, r0, lsl #2
 584              	.LVL31:
 585 000a 90ED000A 		fldsle	s0, [r0]
 586              		.loc 1 199 0
 587 000e 9FED020A 		fldsgt	s0, .L50+4
 588              		.loc 1 201 0
 589 0012 7047     		bx	lr
 590              	.L51:
 591              		.align	2
 592              	.L50:
 593 0014 00000000 		.word	.LANCHOR0
 594 0018 00000000 		.word	0
 595              		.cfi_endproc
 596              	.LFE263:
 597              		.size	servodec_get_last_pulse_len, .-servodec_get_last_pulse_len
 598 001c AFF30080 		.section	.data.c2.9218,"aw",%progbits
 599              		.align	2
 600              		.set	.LANCHOR5,. + 0
 601              		.type	c2.9218, %object
 602              		.size	c2.9218, 4
 603              	c2.9218:
 604 0000 0000003F 		.word	1056964608
 605              		.section	.bss.servo_pos,"aw",%nobits
 606              		.align	2
 607              		.set	.LANCHOR6,. + 0
 608              		.type	servo_pos, %object
 609              		.size	servo_pos, 4
 610              	servo_pos:
 611 0000 00000000 		.space	4
 612              		.section	.data.c1.9217,"aw",%progbits
 613              		.align	2
 614              		.set	.LANCHOR4,. + 0
 615              		.type	c1.9217, %object
 616              		.size	c1.9217, 4
 617              	c1.9217:
 618 0000 0000003F 		.word	1056964608
 619              		.section	.bss.is_running,"aw",%nobits
 620              		.set	.LANCHOR10,. + 0
 621              		.type	is_running, %object
ARM GAS  /tmp/ccuRxgwH.s 			page 12


 622              		.size	is_running, 1
 623              	is_running:
 624 0000 00       		.space	1
 625              		.section	.data.pulse_end,"aw",%progbits
 626              		.align	2
 627              		.set	.LANCHOR2,. + 0
 628              		.type	pulse_end, %object
 629              		.size	pulse_end, 4
 630              	pulse_end:
 631 0000 00000040 		.word	1073741824
 632              		.section	.bss.last_update_time,"aw",%nobits
 633              		.align	2
 634              		.set	.LANCHOR7,. + 0
 635              		.type	last_update_time, %object
 636              		.size	last_update_time, 4
 637              	last_update_time:
 638 0000 00000000 		.space	4
 639              		.section	.bss.last_len_received,"aw",%nobits
 640              		.align	2
 641              		.set	.LANCHOR0,. + 0
 642              		.type	last_len_received, %object
 643              		.size	last_len_received, 4
 644              	last_len_received:
 645 0000 00000000 		.space	4
 646              		.section	.bss.use_median_filter,"aw",%nobits
 647              		.set	.LANCHOR3,. + 0
 648              		.type	use_median_filter, %object
 649              		.size	use_median_filter, 1
 650              	use_median_filter:
 651 0000 00       		.space	1
 652              		.section	.data.pulse_start,"aw",%progbits
 653              		.align	2
 654              		.set	.LANCHOR1,. + 0
 655              		.type	pulse_start, %object
 656              		.size	pulse_start, 4
 657              	pulse_start:
 658 0000 0000803F 		.word	1065353216
 659              		.section	.bss.done_func,"aw",%nobits
 660              		.align	2
 661              		.set	.LANCHOR8,. + 0
 662              		.type	done_func, %object
 663              		.size	done_func, 4
 664              	done_func:
 665 0000 00000000 		.space	4
 666              		.section	.data.icucfg,"aw",%progbits
 667              		.align	2
 668              		.set	.LANCHOR9,. + 0
 669              		.type	icucfg, %object
 670              		.size	icucfg, 28
 671              	icucfg:
 672 0000 00       		.byte	0
 673 0001 000000   		.space	3
 674 0004 40420F00 		.word	1000000
 675 0008 00000000 		.word	icuwidthcb
 676 000c 00000000 		.word	icuperiodcb
 677 0010 00000000 		.word	0
 678 0014 01       		.byte	1
ARM GAS  /tmp/ccuRxgwH.s 			page 13


 679 0015 000000   		.space	3
 680 0018 00000000 		.word	0
 681              		.text
 682              	.Letext0:
 683              		.file 4 "/usr/include/newlib/machine/_default_types.h"
 684              		.file 5 "/usr/include/newlib/stdint.h"
 685              		.file 6 "/usr/lib/gcc/arm-none-eabi/4.8/include/stddef.h"
 686              		.file 7 "ChibiOS_3.0.2/os/rt/ports/ARMCMx/compilers/GCC/chtypes.h"
 687              		.file 8 "ChibiOS_3.0.2/os/rt/include/chsystypes.h"
 688              		.file 9 "ChibiOS_3.0.2/os/rt/include/chschd.h"
 689              		.file 10 "ChibiOS_3.0.2/os/rt/ports/ARMCMx/chcore.h"
 690              		.file 11 "ChibiOS_3.0.2/os/rt/ports/ARMCMx/chcore_v7m.h"
 691              		.file 12 "ChibiOS_3.0.2/os/rt/include/chtm.h"
 692              		.file 13 "ChibiOS_3.0.2/os/rt/include/chsem.h"
 693              		.file 14 "ChibiOS_3.0.2/os/rt/include/chmtx.h"
 694              		.file 15 "ChibiOS_3.0.2/os/hal/ports/STM32/LLD/GPIOv2/pal_lld.h"
 695              		.file 16 "ChibiOS_3.0.2/os/hal/include/icu.h"
 696              		.file 17 "ChibiOS_3.0.2/os/hal/ports/STM32/LLD/TIMv1/icu_lld.h"
 697              		.file 18 "ChibiOS_3.0.2/os/hal/ports/STM32/LLD/TIMv1/stm32_tim.h"
 698              		.file 19 "ChibiOS_3.0.2/os/rt/include/chsys.h"
 699              		.file 20 "ChibiOS_3.0.2/os/ext/CMSIS/include/core_cm4.h"
 700              		.file 21 "utils.h"