ARM GAS  /tmp/ccRY8kfz.s 			page 1


   1              		.syntax unified
   2              		.cpu cortex-m4
   3              		.eabi_attribute 27, 3
   4              		.eabi_attribute 28, 1
   5              		.fpu fpv4-sp-d16
   6              		.eabi_attribute 20, 1
   7              		.eabi_attribute 21, 1
   8              		.eabi_attribute 23, 3
   9              		.eabi_attribute 24, 1
  10              		.eabi_attribute 25, 1
  11              		.eabi_attribute 26, 1
  12              		.eabi_attribute 30, 2
  13              		.eabi_attribute 34, 1
  14              		.eabi_attribute 18, 4
  15              		.thumb
  16              		.file	"spi.c"
  17              		.text
  18              	.Ltext0:
  19              		.cfi_sections	.debug_frame
  20              		.section	.text.spiInit,"ax",%progbits
  21              		.align	2
  22              		.p2align 4,,15
  23              		.global	spiInit
  24              		.thumb
  25              		.thumb_func
  26              		.type	spiInit, %function
  27              	spiInit:
  28              	.LFB256:
  29              		.file 1 "ChibiOS_3.0.2/os/hal/src/spi.c"
  30              		.loc 1 56 0
  31              		.cfi_startproc
  32              		@ args = 0, pretend = 0, frame = 0
  33              		@ frame_needed = 0, uses_anonymous_args = 0
  34              		@ link register save eliminated.
  35              		.loc 1 58 0
  36 0000 FFF7FEBF 		b	spi_lld_init
  37              	.LVL0:
  38              		.cfi_endproc
  39              	.LFE256:
  40              		.size	spiInit, .-spiInit
  41 0004 AFF30080 		.section	.text.spiObjectInit,"ax",%progbits
  41      AFF30080 
  41      AFF30080 
  42              		.align	2
  43              		.p2align 4,,15
  44              		.global	spiObjectInit
  45              		.thumb
  46              		.thumb_func
  47              		.type	spiObjectInit, %function
  48              	spiObjectInit:
  49              	.LFB257:
  50              		.loc 1 68 0
  51              		.cfi_startproc
  52              		@ args = 0, pretend = 0, frame = 0
  53              		@ frame_needed = 0, uses_anonymous_args = 0
  54              		@ link register save eliminated.
  55              	.LVL1:
ARM GAS  /tmp/ccRY8kfz.s 			page 2


  56              		.loc 1 71 0
  57 0000 0023     		movs	r3, #0
  58              		.loc 1 70 0
  59 0002 0122     		movs	r2, #1
  60 0004 0270     		strb	r2, [r0]
  61              		.loc 1 71 0
  62 0006 4360     		str	r3, [r0, #4]
  63              		.loc 1 73 0
  64 0008 8360     		str	r3, [r0, #8]
  65              	.LVL2:
  66              	.LBB194:
  67              	.LBB195:
  68              		.file 2 "ChibiOS_3.0.2/os/hal/osal/rt/osal.h"
  69              		.loc 2 887 0
  70 000a 0C30     		adds	r0, r0, #12
  71              	.LVL3:
  72 000c FFF7FEBF 		b	chMtxObjectInit
  73              	.LVL4:
  74              	.LBE195:
  75              	.LBE194:
  76              		.cfi_endproc
  77              	.LFE257:
  78              		.size	spiObjectInit, .-spiObjectInit
  79              		.section	.text.spiStart,"ax",%progbits
  80              		.align	2
  81              		.p2align 4,,15
  82              		.global	spiStart
  83              		.thumb
  84              		.thumb_func
  85              		.type	spiStart, %function
  86              	spiStart:
  87              	.LFB258:
  88              		.loc 1 91 0
  89              		.cfi_startproc
  90              		@ args = 0, pretend = 0, frame = 0
  91              		@ frame_needed = 0, uses_anonymous_args = 0
  92              	.LVL5:
  93 0000 10B5     		push	{r4, lr}
  94              		.cfi_def_cfa_offset 8
  95              		.cfi_offset 4, -8
  96              		.cfi_offset 14, -4
  97              	.LBB196:
  98              	.LBB197:
  99              	.LBB198:
 100              	.LBB199:
 101              	.LBB200:
 102              		.file 3 "ChibiOS_3.0.2/os/ext/CMSIS/include/core_cmFunc.h"
 103              		.loc 3 546 0
 104 0002 2023     		movs	r3, #32
 105              	.LBE200:
 106              	.LBE199:
 107              	.LBE198:
 108              	.LBE197:
 109              	.LBE196:
 110              		.loc 1 91 0
 111 0004 0446     		mov	r4, r0
 112              	.LBB205:
ARM GAS  /tmp/ccRY8kfz.s 			page 3


 113              	.LBB204:
 114              	.LBB203:
 115              	.LBB202:
 116              	.LBB201:
 117              		.loc 3 546 0
 118              	@ 546 "ChibiOS_3.0.2/os/ext/CMSIS/include/core_cmFunc.h" 1
 119 0006 83F31188 		MSR basepri, r3
 120              	@ 0 "" 2
 121              		.thumb
 122              	.LBE201:
 123              	.LBE202:
 124              	.LBE203:
 125              	.LBE204:
 126              	.LBE205:
 127              		.loc 1 98 0
 128 000a 4160     		str	r1, [r0, #4]
 129              		.loc 1 99 0
 130 000c FFF7FEFF 		bl	spi_lld_start
 131              	.LVL6:
 132              		.loc 1 100 0
 133 0010 0223     		movs	r3, #2
 134 0012 2370     		strb	r3, [r4]
 135              	.LVL7:
 136              	.LBB206:
 137              	.LBB207:
 138              	.LBB208:
 139              	.LBB209:
 140              	.LBB210:
 141              	.LBB211:
 142              		.loc 3 546 0
 143 0014 0023     		movs	r3, #0
 144              	@ 546 "ChibiOS_3.0.2/os/ext/CMSIS/include/core_cmFunc.h" 1
 145 0016 83F31188 		MSR basepri, r3
 146              	@ 0 "" 2
 147              		.thumb
 148 001a 10BD     		pop	{r4, pc}
 149              	.LBE211:
 150              	.LBE210:
 151              	.LBE209:
 152              	.LBE208:
 153              	.LBE207:
 154              	.LBE206:
 155              		.cfi_endproc
 156              	.LFE258:
 157              		.size	spiStart, .-spiStart
 158 001c AFF30080 		.section	.text.spiStop,"ax",%progbits
 159              		.align	2
 160              		.p2align 4,,15
 161              		.global	spiStop
 162              		.thumb
 163              		.thumb_func
 164              		.type	spiStop, %function
 165              	spiStop:
 166              	.LFB259:
 167              		.loc 1 113 0
 168              		.cfi_startproc
 169              		@ args = 0, pretend = 0, frame = 0
ARM GAS  /tmp/ccRY8kfz.s 			page 4


 170              		@ frame_needed = 0, uses_anonymous_args = 0
 171              	.LVL8:
 172 0000 10B5     		push	{r4, lr}
 173              		.cfi_def_cfa_offset 8
 174              		.cfi_offset 4, -8
 175              		.cfi_offset 14, -4
 176              	.LBB212:
 177              	.LBB213:
 178              	.LBB214:
 179              	.LBB215:
 180              	.LBB216:
 181              		.loc 3 546 0
 182 0002 2023     		movs	r3, #32
 183              	.LBE216:
 184              	.LBE215:
 185              	.LBE214:
 186              	.LBE213:
 187              	.LBE212:
 188              		.loc 1 113 0
 189 0004 0446     		mov	r4, r0
 190              	.LBB221:
 191              	.LBB220:
 192              	.LBB219:
 193              	.LBB218:
 194              	.LBB217:
 195              		.loc 3 546 0
 196              	@ 546 "ChibiOS_3.0.2/os/ext/CMSIS/include/core_cmFunc.h" 1
 197 0006 83F31188 		MSR basepri, r3
 198              	@ 0 "" 2
 199              		.thumb
 200              	.LBE217:
 201              	.LBE218:
 202              	.LBE219:
 203              	.LBE220:
 204              	.LBE221:
 205              		.loc 1 120 0
 206 000a FFF7FEFF 		bl	spi_lld_stop
 207              	.LVL9:
 208              		.loc 1 121 0
 209 000e 0123     		movs	r3, #1
 210 0010 2370     		strb	r3, [r4]
 211              	.LVL10:
 212              	.LBB222:
 213              	.LBB223:
 214              	.LBB224:
 215              	.LBB225:
 216              	.LBB226:
 217              	.LBB227:
 218              		.loc 3 546 0
 219 0012 0023     		movs	r3, #0
 220              	@ 546 "ChibiOS_3.0.2/os/ext/CMSIS/include/core_cmFunc.h" 1
 221 0014 83F31188 		MSR basepri, r3
 222              	@ 0 "" 2
 223              		.thumb
 224 0018 10BD     		pop	{r4, pc}
 225              	.LBE227:
 226              	.LBE226:
ARM GAS  /tmp/ccRY8kfz.s 			page 5


 227              	.LBE225:
 228              	.LBE224:
 229              	.LBE223:
 230              	.LBE222:
 231              		.cfi_endproc
 232              	.LFE259:
 233              		.size	spiStop, .-spiStop
 234 001a 00BFAFF3 		.section	.text.spiSelect,"ax",%progbits
 234      0080
 235              		.align	2
 236              		.p2align 4,,15
 237              		.global	spiSelect
 238              		.thumb
 239              		.thumb_func
 240              		.type	spiSelect, %function
 241              	spiSelect:
 242              	.LFB260:
 243              		.loc 1 132 0
 244              		.cfi_startproc
 245              		@ args = 0, pretend = 0, frame = 0
 246              		@ frame_needed = 0, uses_anonymous_args = 0
 247              	.LVL11:
 248 0000 08B5     		push	{r3, lr}
 249              		.cfi_def_cfa_offset 8
 250              		.cfi_offset 3, -8
 251              		.cfi_offset 14, -4
 252              	.LBB228:
 253              	.LBB229:
 254              	.LBB230:
 255              	.LBB231:
 256              	.LBB232:
 257              		.loc 3 546 0
 258 0002 2023     		movs	r3, #32
 259              	@ 546 "ChibiOS_3.0.2/os/ext/CMSIS/include/core_cmFunc.h" 1
 260 0004 83F31188 		MSR basepri, r3
 261              	@ 0 "" 2
 262              		.thumb
 263              	.LBE232:
 264              	.LBE231:
 265              	.LBE230:
 266              	.LBE229:
 267              	.LBE228:
 268              		.loc 1 138 0
 269 0008 FFF7FEFF 		bl	spi_lld_select
 270              	.LVL12:
 271              	.LBB233:
 272              	.LBB234:
 273              	.LBB235:
 274              	.LBB236:
 275              	.LBB237:
 276              	.LBB238:
 277              		.loc 3 546 0
 278 000c 0023     		movs	r3, #0
 279              	@ 546 "ChibiOS_3.0.2/os/ext/CMSIS/include/core_cmFunc.h" 1
 280 000e 83F31188 		MSR basepri, r3
 281              	@ 0 "" 2
 282              		.thumb
ARM GAS  /tmp/ccRY8kfz.s 			page 6


 283 0012 08BD     		pop	{r3, pc}
 284              	.LBE238:
 285              	.LBE237:
 286              	.LBE236:
 287              	.LBE235:
 288              	.LBE234:
 289              	.LBE233:
 290              		.cfi_endproc
 291              	.LFE260:
 292              		.size	spiSelect, .-spiSelect
 293 0014 AFF30080 		.section	.text.spiUnselect,"ax",%progbits
 293      AFF30080 
 293      AFF30080 
 294              		.align	2
 295              		.p2align 4,,15
 296              		.global	spiUnselect
 297              		.thumb
 298              		.thumb_func
 299              		.type	spiUnselect, %function
 300              	spiUnselect:
 301              	.LFB261:
 302              		.loc 1 150 0
 303              		.cfi_startproc
 304              		@ args = 0, pretend = 0, frame = 0
 305              		@ frame_needed = 0, uses_anonymous_args = 0
 306              	.LVL13:
 307 0000 08B5     		push	{r3, lr}
 308              		.cfi_def_cfa_offset 8
 309              		.cfi_offset 3, -8
 310              		.cfi_offset 14, -4
 311              	.LBB239:
 312              	.LBB240:
 313              	.LBB241:
 314              	.LBB242:
 315              	.LBB243:
 316              		.loc 3 546 0
 317 0002 2023     		movs	r3, #32
 318              	@ 546 "ChibiOS_3.0.2/os/ext/CMSIS/include/core_cmFunc.h" 1
 319 0004 83F31188 		MSR basepri, r3
 320              	@ 0 "" 2
 321              		.thumb
 322              	.LBE243:
 323              	.LBE242:
 324              	.LBE241:
 325              	.LBE240:
 326              	.LBE239:
 327              		.loc 1 156 0
 328 0008 FFF7FEFF 		bl	spi_lld_unselect
 329              	.LVL14:
 330              	.LBB244:
 331              	.LBB245:
 332              	.LBB246:
 333              	.LBB247:
 334              	.LBB248:
 335              	.LBB249:
 336              		.loc 3 546 0
 337 000c 0023     		movs	r3, #0
ARM GAS  /tmp/ccRY8kfz.s 			page 7


 338              	@ 546 "ChibiOS_3.0.2/os/ext/CMSIS/include/core_cmFunc.h" 1
 339 000e 83F31188 		MSR basepri, r3
 340              	@ 0 "" 2
 341              		.thumb
 342 0012 08BD     		pop	{r3, pc}
 343              	.LBE249:
 344              	.LBE248:
 345              	.LBE247:
 346              	.LBE246:
 347              	.LBE245:
 348              	.LBE244:
 349              		.cfi_endproc
 350              	.LFE261:
 351              		.size	spiUnselect, .-spiUnselect
 352 0014 AFF30080 		.section	.text.spiStartIgnore,"ax",%progbits
 352      AFF30080 
 352      AFF30080 
 353              		.align	2
 354              		.p2align 4,,15
 355              		.global	spiStartIgnore
 356              		.thumb
 357              		.thumb_func
 358              		.type	spiStartIgnore, %function
 359              	spiStartIgnore:
 360              	.LFB262:
 361              		.loc 1 173 0
 362              		.cfi_startproc
 363              		@ args = 0, pretend = 0, frame = 0
 364              		@ frame_needed = 0, uses_anonymous_args = 0
 365              	.LVL15:
 366 0000 08B5     		push	{r3, lr}
 367              		.cfi_def_cfa_offset 8
 368              		.cfi_offset 3, -8
 369              		.cfi_offset 14, -4
 370              	.LBB250:
 371              	.LBB251:
 372              	.LBB252:
 373              	.LBB253:
 374              	.LBB254:
 375              		.loc 3 546 0
 376 0002 2022     		movs	r2, #32
 377              	@ 546 "ChibiOS_3.0.2/os/ext/CMSIS/include/core_cmFunc.h" 1
 378 0004 82F31188 		MSR basepri, r2
 379              	@ 0 "" 2
 380              		.thumb
 381              	.LBE254:
 382              	.LBE253:
 383              	.LBE252:
 384              	.LBE251:
 385              	.LBE250:
 386              		.loc 1 179 0
 387 0008 0322     		movs	r2, #3
 388 000a 0270     		strb	r2, [r0]
 389 000c FFF7FEFF 		bl	spi_lld_ignore
 390              	.LVL16:
 391              	.LBB255:
 392              	.LBB256:
ARM GAS  /tmp/ccRY8kfz.s 			page 8


 393              	.LBB257:
 394              	.LBB258:
 395              	.LBB259:
 396              	.LBB260:
 397              		.loc 3 546 0
 398 0010 0023     		movs	r3, #0
 399              	@ 546 "ChibiOS_3.0.2/os/ext/CMSIS/include/core_cmFunc.h" 1
 400 0012 83F31188 		MSR basepri, r3
 401              	@ 0 "" 2
 402              		.thumb
 403 0016 08BD     		pop	{r3, pc}
 404              	.LBE260:
 405              	.LBE259:
 406              	.LBE258:
 407              	.LBE257:
 408              	.LBE256:
 409              	.LBE255:
 410              		.cfi_endproc
 411              	.LFE262:
 412              		.size	spiStartIgnore, .-spiStartIgnore
 413 0018 AFF30080 		.section	.text.spiStartExchange,"ax",%progbits
 413      AFF30080 
 414              		.align	2
 415              		.p2align 4,,15
 416              		.global	spiStartExchange
 417              		.thumb
 418              		.thumb_func
 419              		.type	spiStartExchange, %function
 420              	spiStartExchange:
 421              	.LFB263:
 422              		.loc 1 201 0
 423              		.cfi_startproc
 424              		@ args = 0, pretend = 0, frame = 0
 425              		@ frame_needed = 0, uses_anonymous_args = 0
 426              	.LVL17:
 427 0000 38B5     		push	{r3, r4, r5, lr}
 428              		.cfi_def_cfa_offset 16
 429              		.cfi_offset 3, -16
 430              		.cfi_offset 4, -12
 431              		.cfi_offset 5, -8
 432              		.cfi_offset 14, -4
 433              	.LBB261:
 434              	.LBB262:
 435              	.LBB263:
 436              	.LBB264:
 437              	.LBB265:
 438              		.loc 3 546 0
 439 0002 2025     		movs	r5, #32
 440              	@ 546 "ChibiOS_3.0.2/os/ext/CMSIS/include/core_cmFunc.h" 1
 441 0004 85F31188 		MSR basepri, r5
 442              	@ 0 "" 2
 443              		.thumb
 444              	.LBE265:
 445              	.LBE264:
 446              	.LBE263:
 447              	.LBE262:
 448              	.LBE261:
ARM GAS  /tmp/ccRY8kfz.s 			page 9


 449              		.loc 1 208 0
 450 0008 0325     		movs	r5, #3
 451 000a 0570     		strb	r5, [r0]
 452 000c FFF7FEFF 		bl	spi_lld_exchange
 453              	.LVL18:
 454              	.LBB266:
 455              	.LBB267:
 456              	.LBB268:
 457              	.LBB269:
 458              	.LBB270:
 459              	.LBB271:
 460              		.loc 3 546 0
 461 0010 0023     		movs	r3, #0
 462              	@ 546 "ChibiOS_3.0.2/os/ext/CMSIS/include/core_cmFunc.h" 1
 463 0012 83F31188 		MSR basepri, r3
 464              	@ 0 "" 2
 465              		.thumb
 466 0016 38BD     		pop	{r3, r4, r5, pc}
 467              	.LBE271:
 468              	.LBE270:
 469              	.LBE269:
 470              	.LBE268:
 471              	.LBE267:
 472              	.LBE266:
 473              		.cfi_endproc
 474              	.LFE263:
 475              		.size	spiStartExchange, .-spiStartExchange
 476 0018 AFF30080 		.section	.text.spiStartSend,"ax",%progbits
 476      AFF30080 
 477              		.align	2
 478              		.p2align 4,,15
 479              		.global	spiStartSend
 480              		.thumb
 481              		.thumb_func
 482              		.type	spiStartSend, %function
 483              	spiStartSend:
 484              	.LFB264:
 485              		.loc 1 227 0
 486              		.cfi_startproc
 487              		@ args = 0, pretend = 0, frame = 0
 488              		@ frame_needed = 0, uses_anonymous_args = 0
 489              	.LVL19:
 490 0000 10B5     		push	{r4, lr}
 491              		.cfi_def_cfa_offset 8
 492              		.cfi_offset 4, -8
 493              		.cfi_offset 14, -4
 494              	.LBB272:
 495              	.LBB273:
 496              	.LBB274:
 497              	.LBB275:
 498              	.LBB276:
 499              		.loc 3 546 0
 500 0002 2024     		movs	r4, #32
 501              	@ 546 "ChibiOS_3.0.2/os/ext/CMSIS/include/core_cmFunc.h" 1
 502 0004 84F31188 		MSR basepri, r4
 503              	@ 0 "" 2
 504              		.thumb
ARM GAS  /tmp/ccRY8kfz.s 			page 10


 505              	.LBE276:
 506              	.LBE275:
 507              	.LBE274:
 508              	.LBE273:
 509              	.LBE272:
 510              		.loc 1 233 0
 511 0008 0324     		movs	r4, #3
 512 000a 0470     		strb	r4, [r0]
 513 000c FFF7FEFF 		bl	spi_lld_send
 514              	.LVL20:
 515              	.LBB277:
 516              	.LBB278:
 517              	.LBB279:
 518              	.LBB280:
 519              	.LBB281:
 520              	.LBB282:
 521              		.loc 3 546 0
 522 0010 0023     		movs	r3, #0
 523              	@ 546 "ChibiOS_3.0.2/os/ext/CMSIS/include/core_cmFunc.h" 1
 524 0012 83F31188 		MSR basepri, r3
 525              	@ 0 "" 2
 526              		.thumb
 527 0016 10BD     		pop	{r4, pc}
 528              	.LBE282:
 529              	.LBE281:
 530              	.LBE280:
 531              	.LBE279:
 532              	.LBE278:
 533              	.LBE277:
 534              		.cfi_endproc
 535              	.LFE264:
 536              		.size	spiStartSend, .-spiStartSend
 537 0018 AFF30080 		.section	.text.spiStartReceive,"ax",%progbits
 537      AFF30080 
 538              		.align	2
 539              		.p2align 4,,15
 540              		.global	spiStartReceive
 541              		.thumb
 542              		.thumb_func
 543              		.type	spiStartReceive, %function
 544              	spiStartReceive:
 545              	.LFB265:
 546              		.loc 1 252 0
 547              		.cfi_startproc
 548              		@ args = 0, pretend = 0, frame = 0
 549              		@ frame_needed = 0, uses_anonymous_args = 0
 550              	.LVL21:
 551 0000 10B5     		push	{r4, lr}
 552              		.cfi_def_cfa_offset 8
 553              		.cfi_offset 4, -8
 554              		.cfi_offset 14, -4
 555              	.LBB283:
 556              	.LBB284:
 557              	.LBB285:
 558              	.LBB286:
 559              	.LBB287:
 560              		.loc 3 546 0
ARM GAS  /tmp/ccRY8kfz.s 			page 11


 561 0002 2024     		movs	r4, #32
 562              	@ 546 "ChibiOS_3.0.2/os/ext/CMSIS/include/core_cmFunc.h" 1
 563 0004 84F31188 		MSR basepri, r4
 564              	@ 0 "" 2
 565              		.thumb
 566              	.LBE287:
 567              	.LBE286:
 568              	.LBE285:
 569              	.LBE284:
 570              	.LBE283:
 571              		.loc 1 258 0
 572 0008 0324     		movs	r4, #3
 573 000a 0470     		strb	r4, [r0]
 574 000c FFF7FEFF 		bl	spi_lld_receive
 575              	.LVL22:
 576              	.LBB288:
 577              	.LBB289:
 578              	.LBB290:
 579              	.LBB291:
 580              	.LBB292:
 581              	.LBB293:
 582              		.loc 3 546 0
 583 0010 0023     		movs	r3, #0
 584              	@ 546 "ChibiOS_3.0.2/os/ext/CMSIS/include/core_cmFunc.h" 1
 585 0012 83F31188 		MSR basepri, r3
 586              	@ 0 "" 2
 587              		.thumb
 588 0016 10BD     		pop	{r4, pc}
 589              	.LBE293:
 590              	.LBE292:
 591              	.LBE291:
 592              	.LBE290:
 593              	.LBE289:
 594              	.LBE288:
 595              		.cfi_endproc
 596              	.LFE265:
 597              		.size	spiStartReceive, .-spiStartReceive
 598 0018 AFF30080 		.section	.text.spiIgnore,"ax",%progbits
 598      AFF30080 
 599              		.align	2
 600              		.p2align 4,,15
 601              		.global	spiIgnore
 602              		.thumb
 603              		.thumb_func
 604              		.type	spiIgnore, %function
 605              	spiIgnore:
 606              	.LFB266:
 607              		.loc 1 277 0
 608              		.cfi_startproc
 609              		@ args = 0, pretend = 0, frame = 0
 610              		@ frame_needed = 0, uses_anonymous_args = 0
 611              	.LVL23:
 612 0000 10B5     		push	{r4, lr}
 613              		.cfi_def_cfa_offset 8
 614              		.cfi_offset 4, -8
 615              		.cfi_offset 14, -4
 616              	.LBB294:
ARM GAS  /tmp/ccRY8kfz.s 			page 12


 617              	.LBB295:
 618              	.LBB296:
 619              	.LBB297:
 620              	.LBB298:
 621              		.loc 3 546 0
 622 0002 2023     		movs	r3, #32
 623              	.LBE298:
 624              	.LBE297:
 625              	.LBE296:
 626              	.LBE295:
 627              	.LBE294:
 628              		.loc 1 277 0
 629 0004 0446     		mov	r4, r0
 630              	.LBB303:
 631              	.LBB302:
 632              	.LBB301:
 633              	.LBB300:
 634              	.LBB299:
 635              		.loc 3 546 0
 636              	@ 546 "ChibiOS_3.0.2/os/ext/CMSIS/include/core_cmFunc.h" 1
 637 0006 83F31188 		MSR basepri, r3
 638              	@ 0 "" 2
 639              		.thumb
 640              	.LBE299:
 641              	.LBE300:
 642              	.LBE301:
 643              	.LBE302:
 644              	.LBE303:
 645              		.loc 1 284 0
 646 000a 0323     		movs	r3, #3
 647 000c 04F8083B 		strb	r3, [r4], #8
 648 0010 FFF7FEFF 		bl	spi_lld_ignore
 649              	.LVL24:
 650              	.LBB304:
 651              	.LBB305:
 652              		.loc 2 688 0
 653 0014 2046     		mov	r0, r4
 654 0016 FFF7FEFF 		bl	chThdSuspendS
 655              	.LVL25:
 656              	.LBE305:
 657              	.LBE304:
 658              	.LBB306:
 659              	.LBB307:
 660              	.LBB308:
 661              	.LBB309:
 662              	.LBB310:
 663              	.LBB311:
 664              		.loc 3 546 0
 665 001a 0023     		movs	r3, #0
 666              	@ 546 "ChibiOS_3.0.2/os/ext/CMSIS/include/core_cmFunc.h" 1
 667 001c 83F31188 		MSR basepri, r3
 668              	@ 0 "" 2
 669              		.thumb
 670 0020 10BD     		pop	{r4, pc}
 671              	.LBE311:
 672              	.LBE310:
 673              	.LBE309:
ARM GAS  /tmp/ccRY8kfz.s 			page 13


 674              	.LBE308:
 675              	.LBE307:
 676              	.LBE306:
 677              		.cfi_endproc
 678              	.LFE266:
 679              		.size	spiIgnore, .-spiIgnore
 680 0022 00BFAFF3 		.section	.text.spiExchange,"ax",%progbits
 680      0080AFF3 
 680      0080AFF3 
 680      0080
 681              		.align	2
 682              		.p2align 4,,15
 683              		.global	spiExchange
 684              		.thumb
 685              		.thumb_func
 686              		.type	spiExchange, %function
 687              	spiExchange:
 688              	.LFB267:
 689              		.loc 1 308 0
 690              		.cfi_startproc
 691              		@ args = 0, pretend = 0, frame = 0
 692              		@ frame_needed = 0, uses_anonymous_args = 0
 693              	.LVL26:
 694 0000 38B5     		push	{r3, r4, r5, lr}
 695              		.cfi_def_cfa_offset 16
 696              		.cfi_offset 3, -16
 697              		.cfi_offset 4, -12
 698              		.cfi_offset 5, -8
 699              		.cfi_offset 14, -4
 700              		.loc 1 308 0
 701 0002 0446     		mov	r4, r0
 702              	.LBB312:
 703              	.LBB313:
 704              	.LBB314:
 705              	.LBB315:
 706              	.LBB316:
 707              		.loc 3 546 0
 708 0004 2025     		movs	r5, #32
 709              	@ 546 "ChibiOS_3.0.2/os/ext/CMSIS/include/core_cmFunc.h" 1
 710 0006 85F31188 		MSR basepri, r5
 711              	@ 0 "" 2
 712              		.thumb
 713              	.LBE316:
 714              	.LBE315:
 715              	.LBE314:
 716              	.LBE313:
 717              	.LBE312:
 718              		.loc 1 316 0
 719 000a 0325     		movs	r5, #3
 720 000c 04F8085B 		strb	r5, [r4], #8
 721 0010 FFF7FEFF 		bl	spi_lld_exchange
 722              	.LVL27:
 723              	.LBB317:
 724              	.LBB318:
 725              		.loc 2 688 0
 726 0014 2046     		mov	r0, r4
 727 0016 FFF7FEFF 		bl	chThdSuspendS
ARM GAS  /tmp/ccRY8kfz.s 			page 14


 728              	.LVL28:
 729              	.LBE318:
 730              	.LBE317:
 731              	.LBB319:
 732              	.LBB320:
 733              	.LBB321:
 734              	.LBB322:
 735              	.LBB323:
 736              	.LBB324:
 737              		.loc 3 546 0
 738 001a 0023     		movs	r3, #0
 739              	@ 546 "ChibiOS_3.0.2/os/ext/CMSIS/include/core_cmFunc.h" 1
 740 001c 83F31188 		MSR basepri, r3
 741              	@ 0 "" 2
 742              		.thumb
 743 0020 38BD     		pop	{r3, r4, r5, pc}
 744              	.LBE324:
 745              	.LBE323:
 746              	.LBE322:
 747              	.LBE321:
 748              	.LBE320:
 749              	.LBE319:
 750              		.cfi_endproc
 751              	.LFE267:
 752              		.size	spiExchange, .-spiExchange
 753 0022 00BFAFF3 		.section	.text.spiSend,"ax",%progbits
 753      0080AFF3 
 753      0080AFF3 
 753      0080
 754              		.align	2
 755              		.p2align 4,,15
 756              		.global	spiSend
 757              		.thumb
 758              		.thumb_func
 759              		.type	spiSend, %function
 760              	spiSend:
 761              	.LFB268:
 762              		.loc 1 337 0
 763              		.cfi_startproc
 764              		@ args = 0, pretend = 0, frame = 0
 765              		@ frame_needed = 0, uses_anonymous_args = 0
 766              	.LVL29:
 767 0000 10B5     		push	{r4, lr}
 768              		.cfi_def_cfa_offset 8
 769              		.cfi_offset 4, -8
 770              		.cfi_offset 14, -4
 771              	.LBB325:
 772              	.LBB326:
 773              	.LBB327:
 774              	.LBB328:
 775              	.LBB329:
 776              		.loc 3 546 0
 777 0002 2023     		movs	r3, #32
 778              	.LBE329:
 779              	.LBE328:
 780              	.LBE327:
 781              	.LBE326:
ARM GAS  /tmp/ccRY8kfz.s 			page 15


 782              	.LBE325:
 783              		.loc 1 337 0
 784 0004 0446     		mov	r4, r0
 785              	.LBB334:
 786              	.LBB333:
 787              	.LBB332:
 788              	.LBB331:
 789              	.LBB330:
 790              		.loc 3 546 0
 791              	@ 546 "ChibiOS_3.0.2/os/ext/CMSIS/include/core_cmFunc.h" 1
 792 0006 83F31188 		MSR basepri, r3
 793              	@ 0 "" 2
 794              		.thumb
 795              	.LBE330:
 796              	.LBE331:
 797              	.LBE332:
 798              	.LBE333:
 799              	.LBE334:
 800              		.loc 1 344 0
 801 000a 0323     		movs	r3, #3
 802 000c 04F8083B 		strb	r3, [r4], #8
 803 0010 FFF7FEFF 		bl	spi_lld_send
 804              	.LVL30:
 805              	.LBB335:
 806              	.LBB336:
 807              		.loc 2 688 0
 808 0014 2046     		mov	r0, r4
 809 0016 FFF7FEFF 		bl	chThdSuspendS
 810              	.LVL31:
 811              	.LBE336:
 812              	.LBE335:
 813              	.LBB337:
 814              	.LBB338:
 815              	.LBB339:
 816              	.LBB340:
 817              	.LBB341:
 818              	.LBB342:
 819              		.loc 3 546 0
 820 001a 0023     		movs	r3, #0
 821              	@ 546 "ChibiOS_3.0.2/os/ext/CMSIS/include/core_cmFunc.h" 1
 822 001c 83F31188 		MSR basepri, r3
 823              	@ 0 "" 2
 824              		.thumb
 825 0020 10BD     		pop	{r4, pc}
 826              	.LBE342:
 827              	.LBE341:
 828              	.LBE340:
 829              	.LBE339:
 830              	.LBE338:
 831              	.LBE337:
 832              		.cfi_endproc
 833              	.LFE268:
 834              		.size	spiSend, .-spiSend
 835 0022 00BFAFF3 		.section	.text.spiReceive,"ax",%progbits
 835      0080AFF3 
 835      0080AFF3 
 835      0080
ARM GAS  /tmp/ccRY8kfz.s 			page 16


 836              		.align	2
 837              		.p2align 4,,15
 838              		.global	spiReceive
 839              		.thumb
 840              		.thumb_func
 841              		.type	spiReceive, %function
 842              	spiReceive:
 843              	.LFB269:
 844              		.loc 1 365 0
 845              		.cfi_startproc
 846              		@ args = 0, pretend = 0, frame = 0
 847              		@ frame_needed = 0, uses_anonymous_args = 0
 848              	.LVL32:
 849 0000 10B5     		push	{r4, lr}
 850              		.cfi_def_cfa_offset 8
 851              		.cfi_offset 4, -8
 852              		.cfi_offset 14, -4
 853              	.LBB343:
 854              	.LBB344:
 855              	.LBB345:
 856              	.LBB346:
 857              	.LBB347:
 858              		.loc 3 546 0
 859 0002 2023     		movs	r3, #32
 860              	.LBE347:
 861              	.LBE346:
 862              	.LBE345:
 863              	.LBE344:
 864              	.LBE343:
 865              		.loc 1 365 0
 866 0004 0446     		mov	r4, r0
 867              	.LBB352:
 868              	.LBB351:
 869              	.LBB350:
 870              	.LBB349:
 871              	.LBB348:
 872              		.loc 3 546 0
 873              	@ 546 "ChibiOS_3.0.2/os/ext/CMSIS/include/core_cmFunc.h" 1
 874 0006 83F31188 		MSR basepri, r3
 875              	@ 0 "" 2
 876              		.thumb
 877              	.LBE348:
 878              	.LBE349:
 879              	.LBE350:
 880              	.LBE351:
 881              	.LBE352:
 882              		.loc 1 372 0
 883 000a 0323     		movs	r3, #3
 884 000c 04F8083B 		strb	r3, [r4], #8
 885 0010 FFF7FEFF 		bl	spi_lld_receive
 886              	.LVL33:
 887              	.LBB353:
 888              	.LBB354:
 889              		.loc 2 688 0
 890 0014 2046     		mov	r0, r4
 891 0016 FFF7FEFF 		bl	chThdSuspendS
 892              	.LVL34:
ARM GAS  /tmp/ccRY8kfz.s 			page 17


 893              	.LBE354:
 894              	.LBE353:
 895              	.LBB355:
 896              	.LBB356:
 897              	.LBB357:
 898              	.LBB358:
 899              	.LBB359:
 900              	.LBB360:
 901              		.loc 3 546 0
 902 001a 0023     		movs	r3, #0
 903              	@ 546 "ChibiOS_3.0.2/os/ext/CMSIS/include/core_cmFunc.h" 1
 904 001c 83F31188 		MSR basepri, r3
 905              	@ 0 "" 2
 906              		.thumb
 907 0020 10BD     		pop	{r4, pc}
 908              	.LBE360:
 909              	.LBE359:
 910              	.LBE358:
 911              	.LBE357:
 912              	.LBE356:
 913              	.LBE355:
 914              		.cfi_endproc
 915              	.LFE269:
 916              		.size	spiReceive, .-spiReceive
 917 0022 00BFAFF3 		.section	.text.spiAcquireBus,"ax",%progbits
 917      0080AFF3 
 917      0080AFF3 
 917      0080
 918              		.align	2
 919              		.p2align 4,,15
 920              		.global	spiAcquireBus
 921              		.thumb
 922              		.thumb_func
 923              		.type	spiAcquireBus, %function
 924              	spiAcquireBus:
 925              	.LFB270:
 926              		.loc 1 390 0
 927              		.cfi_startproc
 928              		@ args = 0, pretend = 0, frame = 0
 929              		@ frame_needed = 0, uses_anonymous_args = 0
 930              		@ link register save eliminated.
 931              	.LVL35:
 932              	.LBB361:
 933              	.LBB362:
 934              		.loc 2 907 0
 935 0000 0C30     		adds	r0, r0, #12
 936              	.LVL36:
 937 0002 FFF7FEBF 		b	chMtxLock
 938              	.LVL37:
 939              	.LBE362:
 940              	.LBE361:
 941              		.cfi_endproc
 942              	.LFE270:
 943              		.size	spiAcquireBus, .-spiAcquireBus
 944 0006 00BFAFF3 		.section	.text.spiReleaseBus,"ax",%progbits
 944      0080AFF3 
 944      0080
ARM GAS  /tmp/ccRY8kfz.s 			page 18


 945              		.align	2
 946              		.p2align 4,,15
 947              		.global	spiReleaseBus
 948              		.thumb
 949              		.thumb_func
 950              		.type	spiReleaseBus, %function
 951              	spiReleaseBus:
 952              	.LFB271:
 953              		.loc 1 406 0
 954              		.cfi_startproc
 955              		@ args = 0, pretend = 0, frame = 0
 956              		@ frame_needed = 0, uses_anonymous_args = 0
 957              		@ link register save eliminated.
 958              	.LVL38:
 959              	.LBB363:
 960              	.LBB364:
 961              		.loc 2 931 0
 962 0000 0C30     		adds	r0, r0, #12
 963              	.LVL39:
 964 0002 FFF7FEBF 		b	chMtxUnlock
 965              	.LVL40:
 966              	.LBE364:
 967              	.LBE363:
 968              		.cfi_endproc
 969              	.LFE271:
 970              		.size	spiReleaseBus, .-spiReleaseBus
 971 0006 00BFAFF3 		.text
 971      0080AFF3 
 971      0080
 972              	.Letext0:
 973              		.file 4 "/usr/lib/gcc/arm-none-eabi/4.8/include/stddef.h"
 974              		.file 5 "/usr/include/newlib/machine/_default_types.h"
 975              		.file 6 "/usr/include/newlib/stdint.h"
 976              		.file 7 "ChibiOS_3.0.2/os/rt/ports/ARMCMx/compilers/GCC/chtypes.h"
 977              		.file 8 "ChibiOS_3.0.2/os/rt/include/chsystypes.h"
 978              		.file 9 "ChibiOS_3.0.2/os/rt/include/chschd.h"
 979              		.file 10 "ChibiOS_3.0.2/os/ext/CMSIS/ST/stm32f407xx.h"
 980              		.file 11 "ChibiOS_3.0.2/os/rt/ports/ARMCMx/chcore.h"
 981              		.file 12 "ChibiOS_3.0.2/os/rt/ports/ARMCMx/chcore_v7m.h"
 982              		.file 13 "ChibiOS_3.0.2/os/rt/include/chtm.h"
 983              		.file 14 "ChibiOS_3.0.2/os/rt/include/chsem.h"
 984              		.file 15 "ChibiOS_3.0.2/os/rt/include/chmtx.h"
 985              		.file 16 "ChibiOS_3.0.2/os/hal/ports/STM32/STM32F4xx/stm32_dma.h"
 986              		.file 17 "ChibiOS_3.0.2/os/hal/ports/STM32/LLD/GPIOv2/pal_lld.h"
 987              		.file 18 "ChibiOS_3.0.2/os/hal/include/spi.h"
 988              		.file 19 "ChibiOS_3.0.2/os/hal/ports/STM32/LLD/SPIv1/spi_lld.h"
 989              		.file 20 "ChibiOS_3.0.2/os/rt/include/chsys.h"
 990              		.file 21 "ChibiOS_3.0.2/os/ext/CMSIS/include/core_cm4.h"
 991              		.file 22 "ChibiOS_3.0.2/os/rt/include/chthreads.h"