ARM GAS  /tmp/ccehsxk6.s 			page 1


   1              		.syntax unified
   2              		.cpu cortex-m4
   3              		.eabi_attribute 27, 3
   4              		.eabi_attribute 28, 1
   5              		.fpu fpv4-sp-d16
   6              		.eabi_attribute 20, 1
   7              		.eabi_attribute 21, 1
   8              		.eabi_attribute 23, 3
   9              		.eabi_attribute 24, 1
  10              		.eabi_attribute 25, 1
  11              		.eabi_attribute 26, 1
  12              		.eabi_attribute 30, 2
  13              		.eabi_attribute 34, 1
  14              		.eabi_attribute 18, 4
  15              		.thumb
  16              		.file	"spi_lld.c"
  17              		.text
  18              	.Ltext0:
  19              		.cfi_sections	.debug_frame
  20              		.section	.text.spi_lld_serve_tx_interrupt,"ax",%progbits
  21              		.align	2
  22              		.p2align 4,,15
  23              		.thumb
  24              		.thumb_func
  25              		.type	spi_lld_serve_tx_interrupt, %function
  26              	spi_lld_serve_tx_interrupt:
  27              	.LFB257:
  28              		.file 1 "ChibiOS_3.0.2/os/hal/ports/STM32/LLD/SPIv1/spi_lld.c"
  29              		.loc 1 158 0
  30              		.cfi_startproc
  31              		@ args = 0, pretend = 0, frame = 0
  32              		@ frame_needed = 0, uses_anonymous_args = 0
  33              		@ link register save eliminated.
  34              	.LVL0:
  35              		.loc 1 163 0
  36 0000 11F00C0F 		tst	r1, #12
  37 0004 00D1     		bne	.L4
  38 0006 7047     		bx	lr
  39              	.L4:
  40              	.LVL1:
  41              	.LBB56:
  42              	.LBB57:
  43              		.file 2 "ChibiOS_3.0.2/os/hal/osal/rt/osal.h"
  44              		.loc 2 462 0
  45 0008 0148     		ldr	r0, .L5
  46              	.LVL2:
  47 000a FFF7FEBF 		b	chSysHalt
  48              	.LVL3:
  49              	.L6:
  50 000e 00BF     		.align	2
  51              	.L5:
  52 0010 00000000 		.word	.LC0
  53              	.LBE57:
  54              	.LBE56:
  55              		.cfi_endproc
  56              	.LFE257:
  57              		.size	spi_lld_serve_tx_interrupt, .-spi_lld_serve_tx_interrupt
ARM GAS  /tmp/ccehsxk6.s 			page 2


  58 0014 AFF30080 		.section	.text.spi_lld_serve_rx_interrupt,"ax",%progbits
  58      AFF30080 
  58      AFF30080 
  59              		.align	2
  60              		.p2align 4,,15
  61              		.thumb
  62              		.thumb_func
  63              		.type	spi_lld_serve_rx_interrupt, %function
  64              	spi_lld_serve_rx_interrupt:
  65              	.LFB256:
  66              		.loc 1 132 0
  67              		.cfi_startproc
  68              		@ args = 0, pretend = 0, frame = 0
  69              		@ frame_needed = 0, uses_anonymous_args = 0
  70              	.LVL4:
  71              		.loc 1 136 0
  72 0000 11F00C0F 		tst	r1, #12
  73              		.loc 1 132 0
  74 0004 38B5     		push	{r3, r4, r5, lr}
  75              		.cfi_def_cfa_offset 16
  76              		.cfi_offset 3, -16
  77              		.cfi_offset 4, -12
  78              		.cfi_offset 5, -8
  79              		.cfi_offset 14, -4
  80              		.loc 1 132 0
  81 0006 0446     		mov	r4, r0
  82              		.loc 1 136 0
  83 0008 34D1     		bne	.L21
  84              	.LVL5:
  85              	.L8:
  86              		.loc 1 144 0
  87 000a 606A     		ldr	r0, [r4, #36]
  88 000c 0268     		ldr	r2, [r0]
  89 000e 1368     		ldr	r3, [r2]
  90 0010 23F01F03 		bic	r3, r3, #31
  91 0014 1360     		str	r3, [r2]
  92              	.L10:
  93              		.loc 1 144 0 is_stmt 0 discriminator 1
  94 0016 1368     		ldr	r3, [r2]
  95 0018 D907     		lsls	r1, r3, #31
  96 001a FCD4     		bmi	.L10
  97              		.loc 1 144 0 discriminator 2
  98 001c 057A     		ldrb	r5, [r0, #8]	@ zero_extendqisi2
  99              		.loc 1 145 0 is_stmt 1 discriminator 2
 100 001e 216A     		ldr	r1, [r4, #32]
 101              		.loc 1 144 0 discriminator 2
 102 0020 4368     		ldr	r3, [r0, #4]
 103              		.loc 1 145 0 discriminator 2
 104 0022 0A68     		ldr	r2, [r1]
 105              		.loc 1 144 0 discriminator 2
 106 0024 3D20     		movs	r0, #61
 107 0026 A840     		lsls	r0, r0, r5
 108 0028 1860     		str	r0, [r3]
 109              		.loc 1 145 0 discriminator 2
 110 002a 1368     		ldr	r3, [r2]
 111 002c 23F01F03 		bic	r3, r3, #31
 112 0030 1360     		str	r3, [r2]
ARM GAS  /tmp/ccehsxk6.s 			page 3


 113              	.L12:
 114              		.loc 1 145 0 is_stmt 0 discriminator 1
 115 0032 1368     		ldr	r3, [r2]
 116 0034 DB07     		lsls	r3, r3, #31
 117 0036 FCD4     		bmi	.L12
 118              		.loc 1 149 0 is_stmt 1 discriminator 2
 119 0038 6368     		ldr	r3, [r4, #4]
 120              		.loc 1 145 0 discriminator 2
 121 003a 087A     		ldrb	r0, [r1, #8]	@ zero_extendqisi2
 122 003c 4A68     		ldr	r2, [r1, #4]
 123              		.loc 1 149 0 discriminator 2
 124 003e 1B68     		ldr	r3, [r3]
 125              		.loc 1 145 0 discriminator 2
 126 0040 3D21     		movs	r1, #61
 127 0042 8140     		lsls	r1, r1, r0
 128 0044 1160     		str	r1, [r2]
 129              		.loc 1 149 0 discriminator 2
 130 0046 93B1     		cbz	r3, .L13
 131              		.loc 1 149 0 is_stmt 0 discriminator 1
 132 0048 0422     		movs	r2, #4
 133 004a 2270     		strb	r2, [r4]
 134 004c 2046     		mov	r0, r4
 135 004e 9847     		blx	r3
 136              	.LVL6:
 137 0050 2378     		ldrb	r3, [r4]	@ zero_extendqisi2
 138 0052 042B     		cmp	r3, #4
 139 0054 0BD0     		beq	.L13
 140              	.L14:
 141              	.LVL7:
 142              	.LBB58:
 143              	.LBB59:
 144              	.LBB60:
 145              	.LBB61:
 146              	.LBB62:
 147              	.LBB63:
 148              		.file 3 "ChibiOS_3.0.2/os/ext/CMSIS/include/core_cmFunc.h"
 149              		.loc 3 546 0 is_stmt 1 discriminator 1
 150 0056 2023     		movs	r3, #32
 151              	@ 546 "ChibiOS_3.0.2/os/ext/CMSIS/include/core_cmFunc.h" 1
 152 0058 83F31188 		MSR basepri, r3
 153              	@ 0 "" 2
 154              	.LVL8:
 155              		.thumb
 156              	.LBE63:
 157              	.LBE62:
 158              	.LBE61:
 159              	.LBE60:
 160              	.LBE59:
 161              	.LBE58:
 162              	.LBB64:
 163              	.LBB65:
 164              		.loc 2 728 0 discriminator 1
 165 005c 0021     		movs	r1, #0
 166 005e 04F10800 		add	r0, r4, #8
 167              	.LVL9:
 168 0062 FFF7FEFF 		bl	chThdResumeI
 169              	.LVL10:
ARM GAS  /tmp/ccehsxk6.s 			page 4


 170              	.LBE65:
 171              	.LBE64:
 172              	.LBB66:
 173              	.LBB67:
 174              	.LBB68:
 175              	.LBB69:
 176              	.LBB70:
 177              	.LBB71:
 178              		.loc 3 546 0 discriminator 1
 179 0066 0023     		movs	r3, #0
 180              	@ 546 "ChibiOS_3.0.2/os/ext/CMSIS/include/core_cmFunc.h" 1
 181 0068 83F31188 		MSR basepri, r3
 182              	@ 0 "" 2
 183              		.thumb
 184 006c 38BD     		pop	{r3, r4, r5, pc}
 185              	.LVL11:
 186              	.L13:
 187              	.LBE71:
 188              	.LBE70:
 189              	.LBE69:
 190              	.LBE68:
 191              	.LBE67:
 192              	.LBE66:
 193              		.loc 1 149 0 discriminator 1
 194 006e 0223     		movs	r3, #2
 195 0070 2370     		strb	r3, [r4]
 196 0072 F0E7     		b	.L14
 197              	.LVL12:
 198              	.L21:
 199              	.LBB72:
 200              	.LBB73:
 201              		.loc 2 462 0
 202 0074 0148     		ldr	r0, .L22
 203              	.LVL13:
 204 0076 FFF7FEFF 		bl	chSysHalt
 205              	.LVL14:
 206 007a C6E7     		b	.L8
 207              	.L23:
 208              		.align	2
 209              	.L22:
 210 007c 00000000 		.word	.LC0
 211              	.LBE73:
 212              	.LBE72:
 213              		.cfi_endproc
 214              	.LFE256:
 215              		.size	spi_lld_serve_rx_interrupt, .-spi_lld_serve_rx_interrupt
 216              		.section	.text.spi_lld_init,"ax",%progbits
 217              		.align	2
 218              		.p2align 4,,15
 219              		.global	spi_lld_init
 220              		.thumb
 221              		.thumb_func
 222              		.type	spi_lld_init, %function
 223              	spi_lld_init:
 224              	.LFB258:
 225              		.loc 1 185 0
 226              		.cfi_startproc
ARM GAS  /tmp/ccehsxk6.s 			page 5


 227              		@ args = 0, pretend = 0, frame = 0
 228              		@ frame_needed = 0, uses_anonymous_args = 0
 229 0000 10B5     		push	{r4, lr}
 230              		.cfi_def_cfa_offset 8
 231              		.cfi_offset 4, -8
 232              		.cfi_offset 14, -4
 233              		.loc 1 190 0
 234 0002 0A4C     		ldr	r4, .L25
 235              		.loc 1 187 0
 236 0004 0A4B     		ldr	r3, .L25+4
 237 0006 4FF6FF72 		movw	r2, #65535
 238              		.loc 1 190 0
 239 000a 2046     		mov	r0, r4
 240              		.loc 1 187 0
 241 000c 1A80     		strh	r2, [r3]	@ movhi
 242              		.loc 1 190 0
 243 000e FFF7FEFF 		bl	spiObjectInit
 244              	.LVL15:
 245              		.loc 1 192 0
 246 0012 084B     		ldr	r3, .L25+8
 247              		.loc 1 191 0
 248 0014 0848     		ldr	r0, .L25+12
 249              		.loc 1 194 0
 250 0016 0949     		ldr	r1, .L25+16
 251              		.loc 1 200 0
 252 0018 094A     		ldr	r2, .L25+20
 253              		.loc 1 191 0
 254 001a E061     		str	r0, [r4, #28]
 255              		.loc 1 193 0
 256 001c 03F12400 		add	r0, r3, #36
 257              		.loc 1 192 0
 258 0020 2362     		str	r3, [r4, #32]
 259              		.loc 1 193 0
 260 0022 6062     		str	r0, [r4, #36]
 261              		.loc 1 194 0
 262 0024 A162     		str	r1, [r4, #40]
 263              		.loc 1 200 0
 264 0026 E262     		str	r2, [r4, #44]
 265 0028 10BD     		pop	{r4, pc}
 266              	.L26:
 267 002a 00BF     		.align	2
 268              	.L25:
 269 002c 00000000 		.word	.LANCHOR1
 270 0030 00000000 		.word	.LANCHOR0
 271 0034 60000000 		.word	_stm32_dma_streams+96
 272 0038 00300140 		.word	1073819648
 273 003c 16000106 		.word	100728854
 274 0040 46000106 		.word	100728902
 275              		.cfi_endproc
 276              	.LFE258:
 277              		.size	spi_lld_init, .-spi_lld_init
 278 0044 AFF30080 		.section	.text.spi_lld_start,"ax",%progbits
 278      AFF30080 
 278      AFF30080 
 279              		.align	2
 280              		.p2align 4,,15
 281              		.global	spi_lld_start
ARM GAS  /tmp/ccehsxk6.s 			page 6


 282              		.thumb
 283              		.thumb_func
 284              		.type	spi_lld_start, %function
 285              	spi_lld_start:
 286              	.LFB259:
 287              		.loc 1 305 0
 288              		.cfi_startproc
 289              		@ args = 0, pretend = 0, frame = 0
 290              		@ frame_needed = 0, uses_anonymous_args = 0
 291              	.LVL16:
 292              		.loc 1 308 0
 293 0000 0378     		ldrb	r3, [r0]	@ zero_extendqisi2
 294 0002 012B     		cmp	r3, #1
 295              		.loc 1 305 0
 296 0004 10B5     		push	{r4, lr}
 297              		.cfi_def_cfa_offset 8
 298              		.cfi_offset 4, -8
 299              		.cfi_offset 14, -4
 300              		.loc 1 305 0
 301 0006 0446     		mov	r4, r0
 302              		.loc 1 308 0
 303 0008 1DD0     		beq	.L33
 304 000a C369     		ldr	r3, [r0, #28]
 305              	.LVL17:
 306              	.L28:
 307              		.loc 1 412 0
 308 000c 6268     		ldr	r2, [r4, #4]
 309              		.loc 1 415 0
 310 000e A06A     		ldr	r0, [r4, #40]
 311              		.loc 1 412 0
 312 0010 5289     		ldrh	r2, [r2, #10]
 313              		.loc 1 417 0
 314 0012 E16A     		ldr	r1, [r4, #44]
 315              		.loc 1 415 0
 316 0014 20F4F040 		bic	r0, r0, #30720
 317              		.loc 1 417 0
 318 0018 21F4F041 		bic	r1, r1, #30720
 319              		.loc 1 412 0
 320 001c 12F4006F 		tst	r2, #2048
 321              		.loc 1 422 0
 322 0020 1CBF     		itt	ne
 323 0022 40F42050 		orrne	r0, r0, #10240
 324              		.loc 1 424 0
 325 0026 41F42051 		orrne	r1, r1, #10240
 326              		.loc 1 421 0
 327 002a A062     		str	r0, [r4, #40]
 328              		.loc 1 423 0
 329 002c E162     		str	r1, [r4, #44]
 330              		.loc 1 428 0
 331 002e 42F44172 		orr	r2, r2, #772
 332              		.loc 1 427 0
 333 0032 0020     		movs	r0, #0
 334              		.loc 1 430 0
 335 0034 0721     		movs	r1, #7
 336              		.loc 1 427 0
 337 0036 1860     		str	r0, [r3]
 338              		.loc 1 428 0
ARM GAS  /tmp/ccehsxk6.s 			page 7


 339 0038 1A60     		str	r2, [r3]
 340              		.loc 1 430 0
 341 003a 5960     		str	r1, [r3, #4]
 342              		.loc 1 431 0
 343 003c 1A68     		ldr	r2, [r3]
 344 003e 42F04002 		orr	r2, r2, #64
 345 0042 1A60     		str	r2, [r3]
 346 0044 10BD     		pop	{r4, pc}
 347              	.LVL18:
 348              	.L33:
 349              		.loc 1 310 0
 350 0046 0F4B     		ldr	r3, .L36
 351 0048 9842     		cmp	r0, r3
 352 004a 09D0     		beq	.L35
 353              	.LVL19:
 354              	.L29:
 355              		.loc 1 407 0
 356 004c 216A     		ldr	r1, [r4, #32]
 357              		.loc 1 408 0
 358 004e 626A     		ldr	r2, [r4, #36]
 359              		.loc 1 407 0
 360 0050 E369     		ldr	r3, [r4, #28]
 361 0052 0868     		ldr	r0, [r1]
 362              		.loc 1 408 0
 363 0054 1168     		ldr	r1, [r2]
 364              		.loc 1 407 0
 365 0056 03F10C02 		add	r2, r3, #12
 366 005a 8260     		str	r2, [r0, #8]
 367              		.loc 1 408 0
 368 005c 8A60     		str	r2, [r1, #8]
 369 005e D5E7     		b	.L28
 370              	.LVL20:
 371              	.L35:
 372              	.LBB74:
 373              		.loc 1 312 0
 374 0060 094A     		ldr	r2, .L36+4
 375 0062 006A     		ldr	r0, [r0, #32]
 376              	.LVL21:
 377 0064 0A21     		movs	r1, #10
 378 0066 2346     		mov	r3, r4
 379 0068 FFF7FEFF 		bl	dmaStreamAllocate
 380              	.LVL22:
 381              		.loc 1 317 0
 382 006c 074A     		ldr	r2, .L36+8
 383 006e 606A     		ldr	r0, [r4, #36]
 384 0070 2346     		mov	r3, r4
 385 0072 0A21     		movs	r1, #10
 386 0074 FFF7FEFF 		bl	dmaStreamAllocate
 387              	.LVL23:
 388              		.loc 1 322 0
 389 0078 054B     		ldr	r3, .L36+12
 390 007a 5A6C     		ldr	r2, [r3, #68]
 391 007c 42F48052 		orr	r2, r2, #4096
 392 0080 5A64     		str	r2, [r3, #68]
 393 0082 E3E7     		b	.L29
 394              	.L37:
 395              		.align	2
ARM GAS  /tmp/ccehsxk6.s 			page 8


 396              	.L36:
 397 0084 00000000 		.word	.LANCHOR1
 398 0088 00000000 		.word	spi_lld_serve_rx_interrupt
 399 008c 00000000 		.word	spi_lld_serve_tx_interrupt
 400 0090 00380240 		.word	1073887232
 401              	.LBE74:
 402              		.cfi_endproc
 403              	.LFE259:
 404              		.size	spi_lld_start, .-spi_lld_start
 405 0094 AFF30080 		.section	.text.spi_lld_stop,"ax",%progbits
 405      AFF30080 
 405      AFF30080 
 406              		.align	2
 407              		.p2align 4,,15
 408              		.global	spi_lld_stop
 409              		.thumb
 410              		.thumb_func
 411              		.type	spi_lld_stop, %function
 412              	spi_lld_stop:
 413              	.LFB260:
 414              		.loc 1 441 0
 415              		.cfi_startproc
 416              		@ args = 0, pretend = 0, frame = 0
 417              		@ frame_needed = 0, uses_anonymous_args = 0
 418              	.LVL24:
 419              		.loc 1 444 0
 420 0000 0378     		ldrb	r3, [r0]	@ zero_extendqisi2
 421 0002 022B     		cmp	r3, #2
 422              		.loc 1 441 0
 423 0004 10B5     		push	{r4, lr}
 424              		.cfi_def_cfa_offset 8
 425              		.cfi_offset 4, -8
 426              		.cfi_offset 14, -4
 427              		.loc 1 441 0
 428 0006 0446     		mov	r4, r0
 429              		.loc 1 444 0
 430 0008 00D0     		beq	.L42
 431              	.LVL25:
 432              	.L38:
 433 000a 10BD     		pop	{r4, pc}
 434              	.LVL26:
 435              	.L42:
 436              		.loc 1 447 0
 437 000c C369     		ldr	r3, [r0, #28]
 438              		.loc 1 449 0
 439 000e 006A     		ldr	r0, [r0, #32]
 440              	.LVL27:
 441              		.loc 1 447 0
 442 0010 0022     		movs	r2, #0
 443 0012 1A60     		str	r2, [r3]
 444              		.loc 1 448 0
 445 0014 5A60     		str	r2, [r3, #4]
 446              		.loc 1 449 0
 447 0016 FFF7FEFF 		bl	dmaStreamRelease
 448              	.LVL28:
 449              		.loc 1 450 0
 450 001a 606A     		ldr	r0, [r4, #36]
ARM GAS  /tmp/ccehsxk6.s 			page 9


 451 001c FFF7FEFF 		bl	dmaStreamRelease
 452              	.LVL29:
 453              		.loc 1 453 0
 454 0020 044B     		ldr	r3, .L43
 455 0022 9C42     		cmp	r4, r3
 456 0024 F1D1     		bne	.L38
 457              		.loc 1 454 0
 458 0026 044B     		ldr	r3, .L43+4
 459 0028 5A6C     		ldr	r2, [r3, #68]
 460 002a 22F48052 		bic	r2, r2, #4096
 461 002e 5A64     		str	r2, [r3, #68]
 462 0030 EBE7     		b	.L38
 463              	.L44:
 464 0032 00BF     		.align	2
 465              	.L43:
 466 0034 00000000 		.word	.LANCHOR1
 467 0038 00380240 		.word	1073887232
 468              		.cfi_endproc
 469              	.LFE260:
 470              		.size	spi_lld_stop, .-spi_lld_stop
 471 003c AFF30080 		.section	.text.spi_lld_select,"ax",%progbits
 472              		.align	2
 473              		.p2align 4,,15
 474              		.global	spi_lld_select
 475              		.thumb
 476              		.thumb_func
 477              		.type	spi_lld_select, %function
 478              	spi_lld_select:
 479              	.LFB261:
 480              		.loc 1 486 0
 481              		.cfi_startproc
 482              		@ args = 0, pretend = 0, frame = 0
 483              		@ frame_needed = 0, uses_anonymous_args = 0
 484              		@ link register save eliminated.
 485              	.LVL30:
 486              		.loc 1 488 0
 487 0000 4368     		ldr	r3, [r0, #4]
 488 0002 1A89     		ldrh	r2, [r3, #8]
 489 0004 5B68     		ldr	r3, [r3, #4]
 490 0006 0121     		movs	r1, #1
 491 0008 01FA02F2 		lsl	r2, r1, r2
 492 000c 92B2     		uxth	r2, r2
 493 000e 5A83     		strh	r2, [r3, #26]	@ movhi
 494 0010 7047     		bx	lr
 495              		.cfi_endproc
 496              	.LFE261:
 497              		.size	spi_lld_select, .-spi_lld_select
 498 0012 00BFAFF3 		.section	.text.spi_lld_unselect,"ax",%progbits
 498      0080AFF3 
 498      0080AFF3 
 498      0080
 499              		.align	2
 500              		.p2align 4,,15
 501              		.global	spi_lld_unselect
 502              		.thumb
 503              		.thumb_func
 504              		.type	spi_lld_unselect, %function
ARM GAS  /tmp/ccehsxk6.s 			page 10


 505              	spi_lld_unselect:
 506              	.LFB262:
 507              		.loc 1 499 0
 508              		.cfi_startproc
 509              		@ args = 0, pretend = 0, frame = 0
 510              		@ frame_needed = 0, uses_anonymous_args = 0
 511              		@ link register save eliminated.
 512              	.LVL31:
 513              		.loc 1 501 0
 514 0000 4368     		ldr	r3, [r0, #4]
 515 0002 1A89     		ldrh	r2, [r3, #8]
 516 0004 5B68     		ldr	r3, [r3, #4]
 517 0006 0121     		movs	r1, #1
 518 0008 01FA02F2 		lsl	r2, r1, r2
 519 000c 92B2     		uxth	r2, r2
 520 000e 1A83     		strh	r2, [r3, #24]	@ movhi
 521 0010 7047     		bx	lr
 522              		.cfi_endproc
 523              	.LFE262:
 524              		.size	spi_lld_unselect, .-spi_lld_unselect
 525 0012 00BFAFF3 		.section	.text.spi_lld_ignore,"ax",%progbits
 525      0080AFF3 
 525      0080AFF3 
 525      0080
 526              		.align	2
 527              		.p2align 4,,15
 528              		.global	spi_lld_ignore
 529              		.thumb
 530              		.thumb_func
 531              		.type	spi_lld_ignore, %function
 532              	spi_lld_ignore:
 533              	.LFB263:
 534              		.loc 1 515 0
 535              		.cfi_startproc
 536              		@ args = 0, pretend = 0, frame = 0
 537              		@ frame_needed = 0, uses_anonymous_args = 0
 538              		@ link register save eliminated.
 539              	.LVL32:
 540              		.loc 1 517 0
 541 0000 026A     		ldr	r2, [r0, #32]
 542              		.loc 1 521 0
 543 0002 436A     		ldr	r3, [r0, #36]
 544              		.loc 1 517 0
 545 0004 1268     		ldr	r2, [r2]
 546              		.loc 1 521 0
 547 0006 1B68     		ldr	r3, [r3]
 548              		.loc 1 515 0
 549 0008 70B4     		push	{r4, r5, r6}
 550              		.cfi_def_cfa_offset 12
 551              		.cfi_offset 4, -12
 552              		.cfi_offset 5, -8
 553              		.cfi_offset 6, -4
 554              		.loc 1 519 0
 555 000a 856A     		ldr	r5, [r0, #40]
 556              		.loc 1 517 0
 557 000c 094E     		ldr	r6, .L48
 558              		.loc 1 523 0
ARM GAS  /tmp/ccehsxk6.s 			page 11


 559 000e C06A     		ldr	r0, [r0, #44]
 560              	.LVL33:
 561              		.loc 1 521 0
 562 0010 094C     		ldr	r4, .L48+4
 563              		.loc 1 517 0
 564 0012 D660     		str	r6, [r2, #12]
 565              		.loc 1 518 0
 566 0014 5160     		str	r1, [r2, #4]
 567              		.loc 1 519 0
 568 0016 1560     		str	r5, [r2]
 569              		.loc 1 521 0
 570 0018 DC60     		str	r4, [r3, #12]
 571              		.loc 1 522 0
 572 001a 5960     		str	r1, [r3, #4]
 573              		.loc 1 523 0
 574 001c 1860     		str	r0, [r3]
 575              		.loc 1 525 0
 576 001e 1168     		ldr	r1, [r2]
 577              	.LVL34:
 578 0020 41F00101 		orr	r1, r1, #1
 579 0024 1160     		str	r1, [r2]
 580              		.loc 1 526 0
 581 0026 1A68     		ldr	r2, [r3]
 582 0028 42F00102 		orr	r2, r2, #1
 583 002c 1A60     		str	r2, [r3]
 584              		.loc 1 527 0
 585 002e 70BC     		pop	{r4, r5, r6}
 586 0030 7047     		bx	lr
 587              	.L49:
 588 0032 00BF     		.align	2
 589              	.L48:
 590 0034 00000000 		.word	.LANCHOR2
 591 0038 00000000 		.word	.LANCHOR0
 592              		.cfi_endproc
 593              	.LFE263:
 594              		.size	spi_lld_ignore, .-spi_lld_ignore
 595 003c AFF30080 		.section	.text.spi_lld_exchange,"ax",%progbits
 596              		.align	2
 597              		.p2align 4,,15
 598              		.global	spi_lld_exchange
 599              		.thumb
 600              		.thumb_func
 601              		.type	spi_lld_exchange, %function
 602              	spi_lld_exchange:
 603              	.LFB264:
 604              		.loc 1 545 0
 605              		.cfi_startproc
 606              		@ args = 0, pretend = 0, frame = 0
 607              		@ frame_needed = 0, uses_anonymous_args = 0
 608              		@ link register save eliminated.
 609              	.LVL35:
 610 0000 F0B4     		push	{r4, r5, r6, r7}
 611              		.cfi_def_cfa_offset 16
 612              		.cfi_offset 4, -16
 613              		.cfi_offset 5, -12
 614              		.cfi_offset 6, -8
 615              		.cfi_offset 7, -4
ARM GAS  /tmp/ccehsxk6.s 			page 12


 616              		.loc 1 547 0
 617 0002 046A     		ldr	r4, [r0, #32]
 618              		.loc 1 551 0
 619 0004 476A     		ldr	r7, [r0, #36]
 620              		.loc 1 549 0
 621 0006 866A     		ldr	r6, [r0, #40]
 622              		.loc 1 553 0
 623 0008 C56A     		ldr	r5, [r0, #44]
 624              		.loc 1 547 0
 625 000a 2468     		ldr	r4, [r4]
 626              		.loc 1 551 0
 627 000c 3868     		ldr	r0, [r7]
 628              	.LVL36:
 629              		.loc 1 547 0
 630 000e E360     		str	r3, [r4, #12]
 631              		.loc 1 549 0
 632 0010 46F48066 		orr	r6, r6, #1024
 633              		.loc 1 553 0
 634 0014 45F48065 		orr	r5, r5, #1024
 635              		.loc 1 548 0
 636 0018 6160     		str	r1, [r4, #4]
 637              		.loc 1 549 0
 638 001a 2660     		str	r6, [r4]
 639              		.loc 1 551 0
 640 001c C260     		str	r2, [r0, #12]
 641              		.loc 1 552 0
 642 001e 4160     		str	r1, [r0, #4]
 643              		.loc 1 553 0
 644 0020 0560     		str	r5, [r0]
 645              		.loc 1 555 0
 646 0022 2368     		ldr	r3, [r4]
 647              	.LVL37:
 648 0024 43F00103 		orr	r3, r3, #1
 649 0028 2360     		str	r3, [r4]
 650              		.loc 1 556 0
 651 002a 0368     		ldr	r3, [r0]
 652 002c 43F00103 		orr	r3, r3, #1
 653 0030 0360     		str	r3, [r0]
 654              		.loc 1 557 0
 655 0032 F0BC     		pop	{r4, r5, r6, r7}
 656 0034 7047     		bx	lr
 657              		.cfi_endproc
 658              	.LFE264:
 659              		.size	spi_lld_exchange, .-spi_lld_exchange
 660              		.section	.text.spi_lld_send,"ax",%progbits
 661              		.align	2
 662              		.p2align 4,,15
 663              		.global	spi_lld_send
 664              		.thumb
 665              		.thumb_func
 666              		.type	spi_lld_send, %function
 667              	spi_lld_send:
 668              	.LFB265:
 669              		.loc 1 572 0
 670              		.cfi_startproc
 671              		@ args = 0, pretend = 0, frame = 0
 672              		@ frame_needed = 0, uses_anonymous_args = 0
ARM GAS  /tmp/ccehsxk6.s 			page 13


 673              		@ link register save eliminated.
 674              	.LVL38:
 675 0000 70B4     		push	{r4, r5, r6}
 676              		.cfi_def_cfa_offset 12
 677              		.cfi_offset 4, -12
 678              		.cfi_offset 5, -8
 679              		.cfi_offset 6, -4
 680              		.loc 1 578 0
 681 0002 436A     		ldr	r3, [r0, #36]
 682              		.loc 1 574 0
 683 0004 046A     		ldr	r4, [r0, #32]
 684              		.loc 1 580 0
 685 0006 C56A     		ldr	r5, [r0, #44]
 686              		.loc 1 574 0
 687 0008 2468     		ldr	r4, [r4]
 688              		.loc 1 578 0
 689 000a 1B68     		ldr	r3, [r3]
 690              		.loc 1 576 0
 691 000c 806A     		ldr	r0, [r0, #40]
 692              	.LVL39:
 693              		.loc 1 574 0
 694 000e 094E     		ldr	r6, .L52
 695 0010 E660     		str	r6, [r4, #12]
 696              		.loc 1 580 0
 697 0012 45F48065 		orr	r5, r5, #1024
 698              		.loc 1 575 0
 699 0016 6160     		str	r1, [r4, #4]
 700              		.loc 1 576 0
 701 0018 2060     		str	r0, [r4]
 702              		.loc 1 578 0
 703 001a DA60     		str	r2, [r3, #12]
 704              		.loc 1 579 0
 705 001c 5960     		str	r1, [r3, #4]
 706              		.loc 1 580 0
 707 001e 1D60     		str	r5, [r3]
 708              		.loc 1 582 0
 709 0020 2268     		ldr	r2, [r4]
 710              	.LVL40:
 711 0022 42F00102 		orr	r2, r2, #1
 712 0026 2260     		str	r2, [r4]
 713              		.loc 1 583 0
 714 0028 1A68     		ldr	r2, [r3]
 715 002a 42F00102 		orr	r2, r2, #1
 716 002e 1A60     		str	r2, [r3]
 717              		.loc 1 584 0
 718 0030 70BC     		pop	{r4, r5, r6}
 719 0032 7047     		bx	lr
 720              	.L53:
 721              		.align	2
 722              	.L52:
 723 0034 00000000 		.word	.LANCHOR2
 724              		.cfi_endproc
 725              	.LFE265:
 726              		.size	spi_lld_send, .-spi_lld_send
 727 0038 AFF30080 		.section	.text.spi_lld_receive,"ax",%progbits
 727      AFF30080 
 728              		.align	2
ARM GAS  /tmp/ccehsxk6.s 			page 14


 729              		.p2align 4,,15
 730              		.global	spi_lld_receive
 731              		.thumb
 732              		.thumb_func
 733              		.type	spi_lld_receive, %function
 734              	spi_lld_receive:
 735              	.LFB266:
 736              		.loc 1 599 0
 737              		.cfi_startproc
 738              		@ args = 0, pretend = 0, frame = 0
 739              		@ frame_needed = 0, uses_anonymous_args = 0
 740              		@ link register save eliminated.
 741              	.LVL41:
 742 0000 70B4     		push	{r4, r5, r6}
 743              		.cfi_def_cfa_offset 12
 744              		.cfi_offset 4, -12
 745              		.cfi_offset 5, -8
 746              		.cfi_offset 6, -4
 747              		.loc 1 605 0
 748 0002 436A     		ldr	r3, [r0, #36]
 749              		.loc 1 601 0
 750 0004 046A     		ldr	r4, [r0, #32]
 751              		.loc 1 603 0
 752 0006 866A     		ldr	r6, [r0, #40]
 753              		.loc 1 601 0
 754 0008 2468     		ldr	r4, [r4]
 755              		.loc 1 605 0
 756 000a 1B68     		ldr	r3, [r3]
 757              		.loc 1 607 0
 758 000c C06A     		ldr	r0, [r0, #44]
 759              	.LVL42:
 760              		.loc 1 605 0
 761 000e 094D     		ldr	r5, .L55
 762              		.loc 1 601 0
 763 0010 E260     		str	r2, [r4, #12]
 764              		.loc 1 603 0
 765 0012 46F48066 		orr	r6, r6, #1024
 766              		.loc 1 602 0
 767 0016 6160     		str	r1, [r4, #4]
 768              		.loc 1 603 0
 769 0018 2660     		str	r6, [r4]
 770              		.loc 1 605 0
 771 001a DD60     		str	r5, [r3, #12]
 772              		.loc 1 606 0
 773 001c 5960     		str	r1, [r3, #4]
 774              		.loc 1 607 0
 775 001e 1860     		str	r0, [r3]
 776              		.loc 1 609 0
 777 0020 2268     		ldr	r2, [r4]
 778              	.LVL43:
 779 0022 42F00102 		orr	r2, r2, #1
 780 0026 2260     		str	r2, [r4]
 781              		.loc 1 610 0
 782 0028 1A68     		ldr	r2, [r3]
 783 002a 42F00102 		orr	r2, r2, #1
 784 002e 1A60     		str	r2, [r3]
 785              		.loc 1 611 0
ARM GAS  /tmp/ccehsxk6.s 			page 15


 786 0030 70BC     		pop	{r4, r5, r6}
 787 0032 7047     		bx	lr
 788              	.L56:
 789              		.align	2
 790              	.L55:
 791 0034 00000000 		.word	.LANCHOR0
 792              		.cfi_endproc
 793              	.LFE266:
 794              		.size	spi_lld_receive, .-spi_lld_receive
 795 0038 AFF30080 		.section	.text.spi_lld_polled_exchange,"ax",%progbits
 795      AFF30080 
 796              		.align	2
 797              		.p2align 4,,15
 798              		.global	spi_lld_polled_exchange
 799              		.thumb
 800              		.thumb_func
 801              		.type	spi_lld_polled_exchange, %function
 802              	spi_lld_polled_exchange:
 803              	.LFB267:
 804              		.loc 1 625 0
 805              		.cfi_startproc
 806              		@ args = 0, pretend = 0, frame = 0
 807              		@ frame_needed = 0, uses_anonymous_args = 0
 808              		@ link register save eliminated.
 809              	.LVL44:
 810              		.loc 1 627 0
 811 0000 C269     		ldr	r2, [r0, #28]
 812 0002 D160     		str	r1, [r2, #12]
 813              	.L59:
 814              		.loc 1 628 0 discriminator 1
 815 0004 9368     		ldr	r3, [r2, #8]
 816 0006 DB07     		lsls	r3, r3, #31
 817 0008 FCD5     		bpl	.L59
 818              		.loc 1 630 0
 819 000a D068     		ldr	r0, [r2, #12]
 820              	.LVL45:
 821              		.loc 1 631 0
 822 000c 80B2     		uxth	r0, r0
 823 000e 7047     		bx	lr
 824              		.cfi_endproc
 825              	.LFE267:
 826              		.size	spi_lld_polled_exchange, .-spi_lld_polled_exchange
 827              		.global	SPID1
 828              		.section	.bss.dummytx,"aw",%nobits
 829              		.align	1
 830              		.set	.LANCHOR0,. + 0
 831              		.type	dummytx, %object
 832              		.size	dummytx, 2
 833              	dummytx:
 834 0000 0000     		.space	2
 835              		.section	.bss.SPID1,"aw",%nobits
 836              		.align	2
 837              		.set	.LANCHOR1,. + 0
 838              		.type	SPID1, %object
 839              		.size	SPID1, 48
 840              	SPID1:
 841 0000 00000000 		.space	48
ARM GAS  /tmp/ccehsxk6.s 			page 16


 841      00000000 
 841      00000000 
 841      00000000 
 841      00000000 
 842              		.section	.rodata.str1.4,"aMS",%progbits,1
 843              		.align	2
 844              	.LC0:
 845 0000 444D4120 		.ascii	"DMA failure\000"
 845      6661696C 
 845      75726500 
 846              		.section	.bss.dummyrx,"aw",%nobits
 847              		.align	1
 848              		.set	.LANCHOR2,. + 0
 849              		.type	dummyrx, %object
 850              		.size	dummyrx, 2
 851              	dummyrx:
 852 0000 0000     		.space	2
 853              		.text
 854              	.Letext0:
 855              		.file 4 "/usr/lib/gcc/arm-none-eabi/4.8/include/stddef.h"
 856              		.file 5 "/usr/include/newlib/machine/_default_types.h"
 857              		.file 6 "/usr/include/newlib/stdint.h"
 858              		.file 7 "ChibiOS_3.0.2/os/rt/ports/ARMCMx/compilers/GCC/chtypes.h"
 859              		.file 8 "ChibiOS_3.0.2/os/rt/include/chsystypes.h"
 860              		.file 9 "ChibiOS_3.0.2/os/rt/include/chschd.h"
 861              		.file 10 "ChibiOS_3.0.2/os/ext/CMSIS/ST/stm32f407xx.h"
 862              		.file 11 "ChibiOS_3.0.2/os/rt/ports/ARMCMx/chcore.h"
 863              		.file 12 "ChibiOS_3.0.2/os/rt/ports/ARMCMx/chcore_v7m.h"
 864              		.file 13 "ChibiOS_3.0.2/os/rt/include/chtm.h"
 865              		.file 14 "ChibiOS_3.0.2/os/rt/include/chsem.h"
 866              		.file 15 "ChibiOS_3.0.2/os/rt/include/chmtx.h"
 867              		.file 16 "ChibiOS_3.0.2/os/hal/ports/STM32/STM32F4xx/stm32_dma.h"
 868              		.file 17 "ChibiOS_3.0.2/os/hal/ports/STM32/LLD/GPIOv2/pal_lld.h"
 869              		.file 18 "ChibiOS_3.0.2/os/hal/include/spi.h"
 870              		.file 19 "ChibiOS_3.0.2/os/hal/ports/STM32/LLD/SPIv1/spi_lld.h"
 871              		.file 20 "ChibiOS_3.0.2/os/rt/include/chsys.h"
 872              		.file 21 "ChibiOS_3.0.2/os/ext/CMSIS/include/core_cm4.h"
 873              		.file 22 "ChibiOS_3.0.2/os/rt/include/chthreads.h"