ARM GAS  /tmp/ccBvhHmK.s 			page 1


   1              		.syntax unified
   2              		.cpu cortex-m4
   3              		.eabi_attribute 27, 3
   4              		.eabi_attribute 28, 1
   5              		.fpu fpv4-sp-d16
   6              		.eabi_attribute 20, 1
   7              		.eabi_attribute 21, 1
   8              		.eabi_attribute 23, 3
   9              		.eabi_attribute 24, 1
  10              		.eabi_attribute 25, 1
  11              		.eabi_attribute 26, 1
  12              		.eabi_attribute 30, 2
  13              		.eabi_attribute 34, 1
  14              		.eabi_attribute 18, 4
  15              		.thumb
  16              		.file	"spi_sw.c"
  17              		.text
  18              	.Ltext0:
  19              		.cfi_sections	.debug_frame
  20              		.section	.text.spi_sw_init,"ax",%progbits
  21              		.align	2
  22              		.p2align 4,,15
  23              		.global	spi_sw_init
  24              		.thumb
  25              		.thumb_func
  26              		.type	spi_sw_init, %function
  27              	spi_sw_init:
  28              	.LFB256:
  29              		.file 1 "nrf/spi_sw.c"
  30              		.loc 1 38 0
  31              		.cfi_startproc
  32              		@ args = 0, pretend = 0, frame = 0
  33              		@ frame_needed = 0, uses_anonymous_args = 0
  34 0000 2DE9F843 		push	{r3, r4, r5, r6, r7, r8, r9, lr}
  35              		.cfi_def_cfa_offset 32
  36              		.cfi_offset 3, -32
  37              		.cfi_offset 4, -28
  38              		.cfi_offset 5, -24
  39              		.cfi_offset 6, -20
  40              		.cfi_offset 7, -16
  41              		.cfi_offset 8, -12
  42              		.cfi_offset 9, -8
  43              		.cfi_offset 14, -4
  44              		.loc 1 39 0
  45 0004 1D4D     		ldr	r5, .L4
  46 0006 2A78     		ldrb	r2, [r5]	@ zero_extendqisi2
  47 0008 002A     		cmp	r2, #0
  48 000a 35D1     		bne	.L1
  49              		.loc 1 40 0
  50 000c 1C49     		ldr	r1, .L4+4
  51 000e 1D4B     		ldr	r3, .L4+8
  52 0010 0968     		ldr	r1, [r1]
  53              		.loc 1 41 0
  54 0012 DFF88490 		ldr	r9, .L4+28
  55              		.loc 1 40 0
  56 0016 1868     		ldr	r0, [r3]
  57              		.loc 1 41 0
ARM GAS  /tmp/ccBvhHmK.s 			page 2


  58 0018 1B4F     		ldr	r7, .L4+12
  59              		.loc 1 42 0
  60 001a DFF88080 		ldr	r8, .L4+32
  61 001e 1B4E     		ldr	r6, .L4+16
  62              		.loc 1 40 0
  63 0020 0124     		movs	r4, #1
  64 0022 04FA01F1 		lsl	r1, r4, r1
  65 0026 FFF7FEFF 		bl	_pal_lld_setgroupmode
  66              	.LVL0:
  67              		.loc 1 41 0
  68 002a D9F80010 		ldr	r1, [r9]
  69 002e 3868     		ldr	r0, [r7]
  70 0030 04FA01F1 		lsl	r1, r4, r1
  71 0034 2246     		mov	r2, r4
  72 0036 FFF7FEFF 		bl	_pal_lld_setgroupmode
  73              	.LVL1:
  74              		.loc 1 42 0
  75 003a D8F80010 		ldr	r1, [r8]
  76 003e 3068     		ldr	r0, [r6]
  77 0040 04FA01F1 		lsl	r1, r4, r1
  78 0044 2246     		mov	r2, r4
  79 0046 FFF7FEFF 		bl	_pal_lld_setgroupmode
  80              	.LVL2:
  81              		.loc 1 43 0
  82 004a 114A     		ldr	r2, .L4+20
  83 004c 114B     		ldr	r3, .L4+24
  84 004e 1168     		ldr	r1, [r2]
  85 0050 1868     		ldr	r0, [r3]
  86 0052 04FA01F1 		lsl	r1, r4, r1
  87 0056 2246     		mov	r2, r4
  88 0058 FFF7FEFF 		bl	_pal_lld_setgroupmode
  89              	.LVL3:
  90              		.loc 1 45 0
  91 005c D9F80010 		ldr	r1, [r9]
  92              		.loc 1 46 0
  93 0060 D8F80000 		ldr	r0, [r8]
  94              		.loc 1 45 0
  95 0064 3A68     		ldr	r2, [r7]
  96              		.loc 1 46 0
  97 0066 3368     		ldr	r3, [r6]
  98              		.loc 1 47 0
  99 0068 2C70     		strb	r4, [r5]
 100              		.loc 1 45 0
 101 006a 04FA01F1 		lsl	r1, r4, r1
 102              		.loc 1 46 0
 103 006e 8440     		lsls	r4, r4, r0
 104              		.loc 1 45 0
 105 0070 89B2     		uxth	r1, r1
 106              		.loc 1 46 0
 107 0072 A4B2     		uxth	r4, r4
 108              		.loc 1 45 0
 109 0074 1183     		strh	r1, [r2, #24]	@ movhi
 110              		.loc 1 46 0
 111 0076 5C83     		strh	r4, [r3, #26]	@ movhi
 112              	.L1:
 113 0078 BDE8F883 		pop	{r3, r4, r5, r6, r7, r8, r9, pc}
 114              	.L5:
ARM GAS  /tmp/ccBvhHmK.s 			page 3


 115              		.align	2
 116              	.L4:
 117 007c 00000000 		.word	.LANCHOR0
 118 0080 00000000 		.word	.LANCHOR2
 119 0084 00000000 		.word	.LANCHOR1
 120 0088 00000000 		.word	.LANCHOR3
 121 008c 00000000 		.word	.LANCHOR5
 122 0090 00000000 		.word	.LANCHOR8
 123 0094 00000000 		.word	.LANCHOR7
 124 0098 00000000 		.word	.LANCHOR4
 125 009c 00000000 		.word	.LANCHOR6
 126              		.cfi_endproc
 127              	.LFE256:
 128              		.size	spi_sw_init, .-spi_sw_init
 129              		.section	.text.spi_sw_stop,"ax",%progbits
 130              		.align	2
 131              		.p2align 4,,15
 132              		.global	spi_sw_stop
 133              		.thumb
 134              		.thumb_func
 135              		.type	spi_sw_stop, %function
 136              	spi_sw_stop:
 137              	.LFB257:
 138              		.loc 1 51 0
 139              		.cfi_startproc
 140              		@ args = 0, pretend = 0, frame = 0
 141              		@ frame_needed = 0, uses_anonymous_args = 0
 142              		.loc 1 52 0
 143 0000 144A     		ldr	r2, .L7
 144 0002 154B     		ldr	r3, .L7+4
 145 0004 1168     		ldr	r1, [r2]
 146 0006 1868     		ldr	r0, [r3]
 147              		.loc 1 51 0
 148 0008 10B5     		push	{r4, lr}
 149              		.cfi_def_cfa_offset 8
 150              		.cfi_offset 4, -8
 151              		.cfi_offset 14, -4
 152              		.loc 1 52 0
 153 000a 0124     		movs	r4, #1
 154 000c 04FA01F1 		lsl	r1, r4, r1
 155 0010 0022     		movs	r2, #0
 156 0012 FFF7FEFF 		bl	_pal_lld_setgroupmode
 157              	.LVL4:
 158              		.loc 1 53 0
 159 0016 114A     		ldr	r2, .L7+8
 160 0018 114B     		ldr	r3, .L7+12
 161 001a 1168     		ldr	r1, [r2]
 162 001c 1868     		ldr	r0, [r3]
 163 001e 04FA01F1 		lsl	r1, r4, r1
 164 0022 0022     		movs	r2, #0
 165 0024 FFF7FEFF 		bl	_pal_lld_setgroupmode
 166              	.LVL5:
 167              		.loc 1 54 0
 168 0028 0E4A     		ldr	r2, .L7+16
 169 002a 0F4B     		ldr	r3, .L7+20
 170 002c 1168     		ldr	r1, [r2]
 171 002e 1868     		ldr	r0, [r3]
ARM GAS  /tmp/ccBvhHmK.s 			page 4


 172 0030 04FA01F1 		lsl	r1, r4, r1
 173 0034 0022     		movs	r2, #0
 174 0036 FFF7FEFF 		bl	_pal_lld_setgroupmode
 175              	.LVL6:
 176              		.loc 1 55 0
 177 003a 0C4A     		ldr	r2, .L7+24
 178 003c 0C4B     		ldr	r3, .L7+28
 179 003e 1168     		ldr	r1, [r2]
 180 0040 1868     		ldr	r0, [r3]
 181 0042 0022     		movs	r2, #0
 182 0044 04FA01F1 		lsl	r1, r4, r1
 183 0048 FFF7FEFF 		bl	_pal_lld_setgroupmode
 184              	.LVL7:
 185              		.loc 1 56 0
 186 004c 094B     		ldr	r3, .L7+32
 187 004e 0022     		movs	r2, #0
 188 0050 1A70     		strb	r2, [r3]
 189 0052 10BD     		pop	{r4, pc}
 190              	.L8:
 191              		.align	2
 192              	.L7:
 193 0054 00000000 		.word	.LANCHOR2
 194 0058 00000000 		.word	.LANCHOR1
 195 005c 00000000 		.word	.LANCHOR4
 196 0060 00000000 		.word	.LANCHOR3
 197 0064 00000000 		.word	.LANCHOR6
 198 0068 00000000 		.word	.LANCHOR5
 199 006c 00000000 		.word	.LANCHOR8
 200 0070 00000000 		.word	.LANCHOR7
 201 0074 00000000 		.word	.LANCHOR0
 202              		.cfi_endproc
 203              	.LFE257:
 204              		.size	spi_sw_stop, .-spi_sw_stop
 205 0078 AFF30080 		.section	.text.spi_sw_change_pins,"ax",%progbits
 205      AFF30080 
 206              		.align	2
 207              		.p2align 4,,15
 208              		.global	spi_sw_change_pins
 209              		.thumb
 210              		.thumb_func
 211              		.type	spi_sw_change_pins, %function
 212              	spi_sw_change_pins:
 213              	.LFB258:
 214              		.loc 1 63 0
 215              		.cfi_startproc
 216              		@ args = 16, pretend = 0, frame = 16
 217              		@ frame_needed = 0, uses_anonymous_args = 0
 218              	.LVL8:
 219 0000 2DE9F04F 		push	{r4, r5, r6, r7, r8, r9, r10, fp, lr}
 220              		.cfi_def_cfa_offset 36
 221              		.cfi_offset 4, -36
 222              		.cfi_offset 5, -32
 223              		.cfi_offset 6, -28
 224              		.cfi_offset 7, -24
 225              		.cfi_offset 8, -20
 226              		.cfi_offset 9, -16
 227              		.cfi_offset 10, -12
ARM GAS  /tmp/ccBvhHmK.s 			page 5


 228              		.cfi_offset 11, -8
 229              		.cfi_offset 14, -4
 230              		.loc 1 65 0
 231 0004 2A4C     		ldr	r4, .L13
 232              		.loc 1 63 0
 233 0006 85B0     		sub	sp, sp, #20
 234              		.cfi_def_cfa_offset 56
 235              		.loc 1 67 0
 236 0008 94F800C0 		ldrb	ip, [r4]	@ zero_extendqisi2
 237              		.loc 1 63 0
 238 000c 0E9F     		ldr	r7, [sp, #56]
 239 000e 0F9E     		ldr	r6, [sp, #60]
 240 0010 109D     		ldr	r5, [sp, #64]
 241 0012 119C     		ldr	r4, [sp, #68]
 242              		.loc 1 67 0
 243 0014 BCF1000F 		cmp	ip, #0
 244 0018 1ED1     		bne	.L12
 245              		.loc 1 71 0
 246 001a DFF8A4B0 		ldr	fp, .L13+16
 247              		.loc 1 72 0
 248 001e DFF8A4A0 		ldr	r10, .L13+20
 249              		.loc 1 71 0
 250 0022 CBF80000 		str	r0, [fp]
 251              		.loc 1 73 0
 252 0026 DFF8A090 		ldr	r9, .L13+24
 253              		.loc 1 74 0
 254 002a DFF8A080 		ldr	r8, .L13+28
 255              		.loc 1 75 0
 256 002e DFF8A0C0 		ldr	ip, .L13+32
 257              		.loc 1 76 0
 258 0032 DFF888B0 		ldr	fp, .L13+12
 259              		.loc 1 77 0
 260 0036 1F48     		ldr	r0, .L13+4
 261              	.LVL9:
 262              		.loc 1 72 0
 263 0038 CAF80010 		str	r1, [r10]
 264              		.loc 1 78 0
 265 003c 1E49     		ldr	r1, .L13+8
 266              	.LVL10:
 267              		.loc 1 73 0
 268 003e C9F80020 		str	r2, [r9]
 269              		.loc 1 74 0
 270 0042 C8F80030 		str	r3, [r8]
 271              		.loc 1 75 0
 272 0046 CCF80070 		str	r7, [ip]
 273              		.loc 1 76 0
 274 004a CBF80060 		str	r6, [fp]
 275              		.loc 1 77 0
 276 004e 0560     		str	r5, [r0]
 277              		.loc 1 78 0
 278 0050 0C60     		str	r4, [r1]
 279              		.loc 1 83 0
 280 0052 05B0     		add	sp, sp, #20
 281              		@ sp needed
 282 0054 BDE8F08F 		pop	{r4, r5, r6, r7, r8, r9, r10, fp, pc}
 283              	.LVL11:
 284              	.L12:
ARM GAS  /tmp/ccBvhHmK.s 			page 6


 285              		.loc 1 71 0
 286 0058 DFF864B0 		ldr	fp, .L13+16
 287              		.loc 1 74 0
 288 005c DFF86C80 		ldr	r8, .L13+28
 289              		.loc 1 68 0
 290 0060 0390     		str	r0, [sp, #12]
 291 0062 0291     		str	r1, [sp, #8]
 292 0064 0192     		str	r2, [sp, #4]
 293 0066 0093     		str	r3, [sp]
 294 0068 FFF7FEFF 		bl	spi_sw_stop
 295              	.LVL12:
 296              		.loc 1 71 0
 297 006c 0398     		ldr	r0, [sp, #12]
 298              		.loc 1 74 0
 299 006e 009B     		ldr	r3, [sp]
 300              		.loc 1 72 0
 301 0070 0299     		ldr	r1, [sp, #8]
 302              		.loc 1 73 0
 303 0072 019A     		ldr	r2, [sp, #4]
 304              		.loc 1 71 0
 305 0074 CBF80000 		str	r0, [fp]
 306              		.loc 1 72 0
 307 0078 DFF848A0 		ldr	r10, .L13+20
 308              		.loc 1 73 0
 309 007c DFF84890 		ldr	r9, .L13+24
 310              		.loc 1 75 0
 311 0080 DFF84CC0 		ldr	ip, .L13+32
 312              		.loc 1 77 0
 313 0084 DFF82CB0 		ldr	fp, .L13+4
 314              		.loc 1 78 0
 315 0088 0B48     		ldr	r0, .L13+8
 316              		.loc 1 74 0
 317 008a C8F80030 		str	r3, [r8]
 318              		.loc 1 76 0
 319 008e 0B4B     		ldr	r3, .L13+12
 320              		.loc 1 72 0
 321 0090 CAF80010 		str	r1, [r10]
 322              		.loc 1 73 0
 323 0094 C9F80020 		str	r2, [r9]
 324              		.loc 1 75 0
 325 0098 CCF80070 		str	r7, [ip]
 326              		.loc 1 76 0
 327 009c 1E60     		str	r6, [r3]
 328              		.loc 1 77 0
 329 009e CBF80050 		str	r5, [fp]
 330              		.loc 1 78 0
 331 00a2 0460     		str	r4, [r0]
 332              		.loc 1 83 0
 333 00a4 05B0     		add	sp, sp, #20
 334              		@ sp needed
 335 00a6 BDE8F04F 		pop	{r4, r5, r6, r7, r8, r9, r10, fp, lr}
 336              	.LVL13:
 337              		.loc 1 81 0
 338 00aa FFF7FEBF 		b	spi_sw_init
 339              	.LVL14:
 340              	.L14:
 341 00ae 00BF     		.align	2
ARM GAS  /tmp/ccBvhHmK.s 			page 7


 342              	.L13:
 343 00b0 00000000 		.word	.LANCHOR0
 344 00b4 00000000 		.word	.LANCHOR1
 345 00b8 00000000 		.word	.LANCHOR2
 346 00bc 00000000 		.word	.LANCHOR8
 347 00c0 00000000 		.word	.LANCHOR3
 348 00c4 00000000 		.word	.LANCHOR4
 349 00c8 00000000 		.word	.LANCHOR5
 350 00cc 00000000 		.word	.LANCHOR6
 351 00d0 00000000 		.word	.LANCHOR7
 352              		.cfi_endproc
 353              	.LFE258:
 354              		.size	spi_sw_change_pins, .-spi_sw_change_pins
 355 00d4 AFF30080 		.section	.text.spi_sw_transfer,"ax",%progbits
 355      AFF30080 
 355      AFF30080 
 356              		.align	2
 357              		.p2align 4,,15
 358              		.global	spi_sw_transfer
 359              		.thumb
 360              		.thumb_func
 361              		.type	spi_sw_transfer, %function
 362              	spi_sw_transfer:
 363              	.LFB259:
 364              		.loc 1 85 0
 365              		.cfi_startproc
 366              		@ args = 0, pretend = 0, frame = 40
 367              		@ frame_needed = 0, uses_anonymous_args = 0
 368              	.LVL15:
 369 0000 2DE9F04F 		push	{r4, r5, r6, r7, r8, r9, r10, fp, lr}
 370              		.cfi_def_cfa_offset 36
 371              		.cfi_offset 4, -36
 372              		.cfi_offset 5, -32
 373              		.cfi_offset 6, -28
 374              		.cfi_offset 7, -24
 375              		.cfi_offset 8, -20
 376              		.cfi_offset 9, -16
 377              		.cfi_offset 10, -12
 378              		.cfi_offset 11, -8
 379              		.cfi_offset 14, -4
 380              		.loc 1 86 0
 381 0004 DFF82491 		ldr	r9, .L42+4
 382 0008 474D     		ldr	r5, .L42
 383 000a D9F80040 		ldr	r4, [r9]
 384 000e 2B68     		ldr	r3, [r5]
 385 0010 0125     		movs	r5, #1
 386              		.loc 1 85 0
 387 0012 8BB0     		sub	sp, sp, #44
 388              		.cfi_def_cfa_offset 80
 389              		.loc 1 86 0
 390 0014 05FA04F4 		lsl	r4, r5, r4
 391 0018 A5B2     		uxth	r5, r4
 392              	.LBB38:
 393              	.LBB39:
 394              		.loc 1 133 0
 395 001a 0024     		movs	r4, #0
 396              	.LBE39:
ARM GAS  /tmp/ccBvhHmK.s 			page 8


 397              	.LBE38:
 398              		.loc 1 86 0
 399 001c 5D83     		strh	r5, [r3, #26]	@ movhi
 400              	.LBB45:
 401              	.LBB42:
 402              		.loc 1 133 0
 403 001e 0794     		str	r4, [sp, #28]
 404 0020 079B     		ldr	r3, [sp, #28]
 405              	.LBE42:
 406              	.LBE45:
 407              		.loc 1 85 0
 408 0022 0490     		str	r0, [sp, #16]
 409              	.LBB46:
 410              	.LBB43:
 411              		.loc 1 133 0
 412 0024 042B     		cmp	r3, #4
 413              	.LBE43:
 414              	.LBE46:
 415              		.loc 1 85 0
 416 0026 0391     		str	r1, [sp, #12]
 417 0028 0592     		str	r2, [sp, #20]
 418              	.LBB47:
 419              	.LBB44:
 420              		.loc 1 133 0
 421 002a 06DC     		bgt	.L19
 422              	.L20:
 423              	.LBB40:
 424              	.LBB41:
 425              		.file 2 "ChibiOS_3.0.2/os/ext/CMSIS/include/core_cmInstr.h"
 426              		.loc 2 327 0
 427              	@ 327 "ChibiOS_3.0.2/os/ext/CMSIS/include/core_cmInstr.h" 1
 428 002c 00BF     		nop
 429              	@ 0 "" 2
 430              		.thumb
 431              	.LBE41:
 432              	.LBE40:
 433              		.loc 1 133 0
 434 002e 079B     		ldr	r3, [sp, #28]
 435 0030 0133     		adds	r3, r3, #1
 436 0032 0793     		str	r3, [sp, #28]
 437 0034 079B     		ldr	r3, [sp, #28]
 438 0036 042B     		cmp	r3, #4
 439 0038 F8DD     		ble	.L20
 440              	.L19:
 441              	.LVL16:
 442              	.LBE44:
 443              	.LBE47:
 444              	.LBB48:
 445              		.loc 1 89 0
 446 003a 059B     		ldr	r3, [sp, #20]
 447 003c 002B     		cmp	r3, #0
 448 003e 6DDD     		ble	.L15
 449 0040 0025     		movs	r5, #0
 450 0042 DFF8ECC0 		ldr	ip, .L42+8
 451 0046 DFF8EC80 		ldr	r8, .L42+12
 452 004a DFF8ECB0 		ldr	fp, .L42+16
 453 004e DFF8ECA0 		ldr	r10, .L42+20
ARM GAS  /tmp/ccBvhHmK.s 			page 9


 454 0052 0295     		str	r5, [sp, #8]
 455              	.LBB49:
 456              	.LBB50:
 457              	.LBB51:
 458              	.LBB52:
 459              	.LBB53:
 460              		.loc 1 133 0
 461 0054 2F46     		mov	r7, r5
 462              	.LVL17:
 463              	.L34:
 464              	.LBE53:
 465              	.LBE52:
 466              	.LBE51:
 467              	.LBE50:
 468              		.loc 1 90 0
 469 0056 039B     		ldr	r3, [sp, #12]
 470 0058 002B     		cmp	r3, #0
 471 005a 62D0     		beq	.L35
 472              		.loc 1 90 0 is_stmt 0 discriminator 1
 473 005c 029D     		ldr	r5, [sp, #8]
 474 005e 5E5D     		ldrb	r6, [r3, r5]	@ zero_extendqisi2
 475              	.L21:
 476              	.LVL18:
 477 0060 0825     		movs	r5, #8
 478 0062 0024     		movs	r4, #0
 479              	.LVL19:
 480              	.L32:
 481              	.LBB72:
 482              	.LBB70:
 483              		.loc 1 94 0 is_stmt 1
 484 0064 D8F80020 		ldr	r2, [r8]
 485 0068 DCF80010 		ldr	r1, [ip]
 486 006c C6F3C713 		ubfx	r3, r6, #7, #8
 487 0070 02F11000 		add	r0, r2, #16
 488 0074 03FA02F2 		lsl	r2, r3, r2
 489 0078 D3F10103 		rsbs	r3, r3, #1
 490 007c 38BF     		it	cc
 491 007e 0023     		movcc	r3, #0
 492 0080 8340     		lsls	r3, r3, r0
 493 0082 1A43     		orrs	r2, r2, r3
 494 0084 8A61     		str	r2, [r1, #24]
 495              	.LBB59:
 496              	.LBB56:
 497              		.loc 1 133 0
 498 0086 0897     		str	r7, [sp, #32]
 499 0088 089B     		ldr	r3, [sp, #32]
 500              	.LBE56:
 501              	.LBE59:
 502              		.loc 1 95 0
 503 008a 7600     		lsls	r6, r6, #1
 504              	.LVL20:
 505              	.LBB60:
 506              	.LBB57:
 507              		.loc 1 133 0
 508 008c 042B     		cmp	r3, #4
 509              	.LBE57:
 510              	.LBE60:
ARM GAS  /tmp/ccBvhHmK.s 			page 10


 511              		.loc 1 95 0
 512 008e F6B2     		uxtb	r6, r6
 513              	.LVL21:
 514              	.LBB61:
 515              	.LBB58:
 516              		.loc 1 133 0
 517 0090 06DC     		bgt	.L25
 518              	.L26:
 519              	.LBB54:
 520              	.LBB55:
 521              		.loc 2 327 0
 522              	@ 327 "ChibiOS_3.0.2/os/ext/CMSIS/include/core_cmInstr.h" 1
 523 0092 00BF     		nop
 524              	@ 0 "" 2
 525              		.thumb
 526              	.LBE55:
 527              	.LBE54:
 528              		.loc 1 133 0
 529 0094 089B     		ldr	r3, [sp, #32]
 530 0096 0133     		adds	r3, r3, #1
 531 0098 0893     		str	r3, [sp, #32]
 532 009a 089B     		ldr	r3, [sp, #32]
 533 009c 042B     		cmp	r3, #4
 534 009e F8DD     		ble	.L26
 535              	.L25:
 536              	.LBE58:
 537              	.LBE61:
 538              		.loc 1 100 0
 539 00a0 DBF80020 		ldr	r2, [fp]
 540 00a4 DAF80030 		ldr	r3, [r10]
 541 00a8 1069     		ldr	r0, [r2, #16]
 542              	.LVL22:
 543              	.LBB62:
 544              	.LBB63:
 545              		.loc 2 327 0
 546              	@ 327 "ChibiOS_3.0.2/os/ext/CMSIS/include/core_cmInstr.h" 1
 547 00aa 00BF     		nop
 548              	@ 0 "" 2
 549              		.thumb
 550              	.LBE63:
 551              	.LBE62:
 552              		.loc 1 102 0
 553 00ac 1169     		ldr	r1, [r2, #16]
 554              	.LVL23:
 555              	.LBB64:
 556              	.LBB65:
 557              		.loc 2 327 0
 558              	@ 327 "ChibiOS_3.0.2/os/ext/CMSIS/include/core_cmInstr.h" 1
 559 00ae 00BF     		nop
 560              	@ 0 "" 2
 561              		.thumb
 562              	.LBE65:
 563              	.LBE64:
 564              		.loc 1 104 0
 565 00b0 1269     		ldr	r2, [r2, #16]
 566              	.LVL24:
 567              		.loc 1 107 0
ARM GAS  /tmp/ccBvhHmK.s 			page 11


 568 00b2 CDF804C0 		str	ip, [sp, #4]
 569              		.loc 1 100 0
 570 00b6 D840     		lsrs	r0, r0, r3
 571              	.LVL25:
 572              		.loc 1 104 0
 573 00b8 DA40     		lsrs	r2, r2, r3
 574              	.LVL26:
 575              		.loc 1 102 0
 576 00ba D940     		lsrs	r1, r1, r3
 577              	.LVL27:
 578              		.loc 1 107 0
 579 00bc 02F00102 		and	r2, r2, #1
 580              	.LVL28:
 581 00c0 00F00100 		and	r0, r0, #1
 582              	.LVL29:
 583 00c4 01F00101 		and	r1, r1, #1
 584              	.LVL30:
 585 00c8 FFF7FEFF 		bl	utils_middle_of_3_int
 586              	.LVL31:
 587              		.loc 1 106 0
 588 00cc 6400     		lsls	r4, r4, #1
 589              	.LVL32:
 590 00ce E4B2     		uxtb	r4, r4
 591              	.LVL33:
 592              		.loc 1 107 0
 593 00d0 DDF804C0 		ldr	ip, [sp, #4]
 594 00d4 08B1     		cbz	r0, .L24
 595              		.loc 1 108 0
 596 00d6 44F00104 		orr	r4, r4, #1
 597              	.LVL34:
 598              	.L24:
 599              		.loc 1 111 0
 600 00da 134B     		ldr	r3, .L42
 601 00dc D9F80010 		ldr	r1, [r9]
 602 00e0 1A68     		ldr	r2, [r3]
 603 00e2 0123     		movs	r3, #1
 604 00e4 03FA01F1 		lsl	r1, r3, r1
 605 00e8 89B2     		uxth	r1, r1
 606 00ea 1183     		strh	r1, [r2, #24]	@ movhi
 607              	.LBB66:
 608              	.LBB67:
 609              		.loc 1 133 0
 610 00ec 0997     		str	r7, [sp, #36]
 611 00ee 099B     		ldr	r3, [sp, #36]
 612 00f0 042B     		cmp	r3, #4
 613 00f2 06DC     		bgt	.L30
 614              	.L31:
 615              	.LBB68:
 616              	.LBB69:
 617              		.loc 2 327 0
 618              	@ 327 "ChibiOS_3.0.2/os/ext/CMSIS/include/core_cmInstr.h" 1
 619 00f4 00BF     		nop
 620              	@ 0 "" 2
 621              		.thumb
 622              	.LBE69:
 623              	.LBE68:
 624              		.loc 1 133 0
ARM GAS  /tmp/ccBvhHmK.s 			page 12


 625 00f6 099B     		ldr	r3, [sp, #36]
 626 00f8 0133     		adds	r3, r3, #1
 627 00fa 0993     		str	r3, [sp, #36]
 628 00fc 099B     		ldr	r3, [sp, #36]
 629 00fe 042B     		cmp	r3, #4
 630 0100 F8DD     		ble	.L31
 631              	.L30:
 632              	.LBE67:
 633              	.LBE66:
 634              	.LBE70:
 635              		.loc 1 93 0
 636 0102 013D     		subs	r5, r5, #1
 637              	.LVL35:
 638              	.LBB71:
 639              		.loc 1 113 0
 640 0104 5183     		strh	r1, [r2, #26]	@ movhi
 641              	.LVL36:
 642              	.LBE71:
 643              		.loc 1 93 0
 644 0106 ADD1     		bne	.L32
 645              	.LBE72:
 646              		.loc 1 116 0
 647 0108 049D     		ldr	r5, [sp, #16]
 648 010a 0DB1     		cbz	r5, .L33
 649              		.loc 1 117 0
 650 010c 029B     		ldr	r3, [sp, #8]
 651 010e EC54     		strb	r4, [r5, r3]
 652              	.L33:
 653              	.LBE49:
 654              		.loc 1 89 0
 655 0110 029D     		ldr	r5, [sp, #8]
 656 0112 059B     		ldr	r3, [sp, #20]
 657 0114 0135     		adds	r5, r5, #1
 658 0116 9D42     		cmp	r5, r3
 659 0118 0295     		str	r5, [sp, #8]
 660              	.LVL37:
 661 011a 9CD1     		bne	.L34
 662              	.LVL38:
 663              	.L15:
 664              	.LBE48:
 665              		.loc 1 120 0
 666 011c 0BB0     		add	sp, sp, #44
 667              		@ sp needed
 668 011e BDE8F08F 		pop	{r4, r5, r6, r7, r8, r9, r10, fp, pc}
 669              	.LVL39:
 670              	.L35:
 671              	.LBB74:
 672              	.LBB73:
 673              		.loc 1 90 0
 674 0122 039E     		ldr	r6, [sp, #12]
 675 0124 9CE7     		b	.L21
 676              	.L43:
 677 0126 00BF     		.align	2
 678              	.L42:
 679 0128 00000000 		.word	.LANCHOR5
 680 012c 00000000 		.word	.LANCHOR6
 681 0130 00000000 		.word	.LANCHOR7
ARM GAS  /tmp/ccBvhHmK.s 			page 13


 682 0134 00000000 		.word	.LANCHOR8
 683 0138 00000000 		.word	.LANCHOR1
 684 013c 00000000 		.word	.LANCHOR2
 685              	.LBE73:
 686              	.LBE74:
 687              		.cfi_endproc
 688              	.LFE259:
 689              		.size	spi_sw_transfer, .-spi_sw_transfer
 690              		.section	.text.spi_sw_begin,"ax",%progbits
 691              		.align	2
 692              		.p2align 4,,15
 693              		.global	spi_sw_begin
 694              		.thumb
 695              		.thumb_func
 696              		.type	spi_sw_begin, %function
 697              	spi_sw_begin:
 698              	.LFB260:
 699              		.loc 1 122 0
 700              		.cfi_startproc
 701              		@ args = 0, pretend = 0, frame = 8
 702              		@ frame_needed = 0, uses_anonymous_args = 0
 703              		@ link register save eliminated.
 704              		.loc 1 123 0
 705 0000 0B4B     		ldr	r3, .L48
 706 0002 0C4A     		ldr	r2, .L48+4
 707 0004 1B68     		ldr	r3, [r3]
 708 0006 1268     		ldr	r2, [r2]
 709 0008 0121     		movs	r1, #1
 710              		.loc 1 122 0
 711 000a 82B0     		sub	sp, sp, #8
 712              		.cfi_def_cfa_offset 8
 713              		.loc 1 123 0
 714 000c 9940     		lsls	r1, r1, r3
 715 000e 89B2     		uxth	r1, r1
 716              	.LBB75:
 717              	.LBB76:
 718              		.loc 1 133 0
 719 0010 0023     		movs	r3, #0
 720              	.LBE76:
 721              	.LBE75:
 722              		.loc 1 123 0
 723 0012 5183     		strh	r1, [r2, #26]	@ movhi
 724              	.LBB80:
 725              	.LBB79:
 726              		.loc 1 133 0
 727 0014 0193     		str	r3, [sp, #4]
 728 0016 019B     		ldr	r3, [sp, #4]
 729 0018 042B     		cmp	r3, #4
 730 001a 06DC     		bgt	.L44
 731              	.L47:
 732              	.LBB77:
 733              	.LBB78:
 734              		.loc 2 327 0
 735              	@ 327 "ChibiOS_3.0.2/os/ext/CMSIS/include/core_cmInstr.h" 1
 736 001c 00BF     		nop
 737              	@ 0 "" 2
 738              		.thumb
ARM GAS  /tmp/ccBvhHmK.s 			page 14


 739              	.LBE78:
 740              	.LBE77:
 741              		.loc 1 133 0
 742 001e 019B     		ldr	r3, [sp, #4]
 743 0020 0133     		adds	r3, r3, #1
 744 0022 0193     		str	r3, [sp, #4]
 745 0024 019B     		ldr	r3, [sp, #4]
 746 0026 042B     		cmp	r3, #4
 747 0028 F8DD     		ble	.L47
 748              	.L44:
 749              	.LBE79:
 750              	.LBE80:
 751              		.loc 1 125 0
 752 002a 02B0     		add	sp, sp, #8
 753              		@ sp needed
 754 002c 7047     		bx	lr
 755              	.L49:
 756 002e 00BF     		.align	2
 757              	.L48:
 758 0030 00000000 		.word	.LANCHOR4
 759 0034 00000000 		.word	.LANCHOR3
 760              		.cfi_endproc
 761              	.LFE260:
 762              		.size	spi_sw_begin, .-spi_sw_begin
 763 0038 AFF30080 		.section	.text.spi_sw_end,"ax",%progbits
 763      AFF30080 
 764              		.align	2
 765              		.p2align 4,,15
 766              		.global	spi_sw_end
 767              		.thumb
 768              		.thumb_func
 769              		.type	spi_sw_end, %function
 770              	spi_sw_end:
 771              	.LFB261:
 772              		.loc 1 127 0
 773              		.cfi_startproc
 774              		@ args = 0, pretend = 0, frame = 8
 775              		@ frame_needed = 0, uses_anonymous_args = 0
 776              		@ link register save eliminated.
 777 0000 82B0     		sub	sp, sp, #8
 778              		.cfi_def_cfa_offset 8
 779              	.LBB81:
 780              	.LBB82:
 781              		.loc 1 133 0
 782 0002 0023     		movs	r3, #0
 783 0004 0193     		str	r3, [sp, #4]
 784 0006 019B     		ldr	r3, [sp, #4]
 785 0008 042B     		cmp	r3, #4
 786 000a 06DC     		bgt	.L52
 787              	.L53:
 788              	.LBB83:
 789              	.LBB84:
 790              		.loc 2 327 0
 791              	@ 327 "ChibiOS_3.0.2/os/ext/CMSIS/include/core_cmInstr.h" 1
 792 000c 00BF     		nop
 793              	@ 0 "" 2
 794              		.thumb
ARM GAS  /tmp/ccBvhHmK.s 			page 15


 795              	.LBE84:
 796              	.LBE83:
 797              		.loc 1 133 0
 798 000e 019B     		ldr	r3, [sp, #4]
 799 0010 0133     		adds	r3, r3, #1
 800 0012 0193     		str	r3, [sp, #4]
 801 0014 019B     		ldr	r3, [sp, #4]
 802 0016 042B     		cmp	r3, #4
 803 0018 F8DD     		ble	.L53
 804              	.L52:
 805              	.LBE82:
 806              	.LBE81:
 807              		.loc 1 129 0
 808 001a 054A     		ldr	r2, .L55
 809 001c 054B     		ldr	r3, .L55+4
 810 001e 1268     		ldr	r2, [r2]
 811 0020 1B68     		ldr	r3, [r3]
 812 0022 0121     		movs	r1, #1
 813 0024 01FA02F2 		lsl	r2, r1, r2
 814 0028 92B2     		uxth	r2, r2
 815 002a 1A83     		strh	r2, [r3, #24]	@ movhi
 816              		.loc 1 130 0
 817 002c 02B0     		add	sp, sp, #8
 818              		@ sp needed
 819 002e 7047     		bx	lr
 820              	.L56:
 821              		.align	2
 822              	.L55:
 823 0030 00000000 		.word	.LANCHOR4
 824 0034 00000000 		.word	.LANCHOR3
 825              		.cfi_endproc
 826              	.LFE261:
 827              		.size	spi_sw_end, .-spi_sw_end
 828 0038 AFF30080 		.section	.data.m_pin_csn,"aw",%progbits
 828      AFF30080 
 829              		.align	2
 830              		.set	.LANCHOR4,. + 0
 831              		.type	m_pin_csn, %object
 832              		.size	m_pin_csn, 4
 833              	m_pin_csn:
 834 0000 04000000 		.word	4
 835              		.section	.data.m_port_mosi,"aw",%progbits
 836              		.align	2
 837              		.set	.LANCHOR7,. + 0
 838              		.type	m_port_mosi, %object
 839              		.size	m_port_mosi, 4
 840              	m_port_mosi:
 841 0000 00000240 		.word	1073872896
 842              		.section	.data.m_port_csn,"aw",%progbits
 843              		.align	2
 844              		.set	.LANCHOR3,. + 0
 845              		.type	m_port_csn, %object
 846              		.size	m_port_csn, 4
 847              	m_port_csn:
 848 0000 00000240 		.word	1073872896
 849              		.section	.data.m_pin_miso,"aw",%progbits
 850              		.align	2
ARM GAS  /tmp/ccBvhHmK.s 			page 16


 851              		.set	.LANCHOR2,. + 0
 852              		.type	m_pin_miso, %object
 853              		.size	m_pin_miso, 4
 854              	m_pin_miso:
 855 0000 06000000 		.word	6
 856              		.section	.data.m_port_sck,"aw",%progbits
 857              		.align	2
 858              		.set	.LANCHOR5,. + 0
 859              		.type	m_port_sck, %object
 860              		.size	m_port_sck, 4
 861              	m_port_sck:
 862 0000 00000240 		.word	1073872896
 863              		.section	.data.m_port_miso,"aw",%progbits
 864              		.align	2
 865              		.set	.LANCHOR1,. + 0
 866              		.type	m_port_miso, %object
 867              		.size	m_port_miso, 4
 868              	m_port_miso:
 869 0000 00000240 		.word	1073872896
 870              		.section	.data.m_pin_mosi,"aw",%progbits
 871              		.align	2
 872              		.set	.LANCHOR8,. + 0
 873              		.type	m_pin_mosi, %object
 874              		.size	m_pin_mosi, 4
 875              	m_pin_mosi:
 876 0000 07000000 		.word	7
 877              		.section	.data.m_pin_sck,"aw",%progbits
 878              		.align	2
 879              		.set	.LANCHOR6,. + 0
 880              		.type	m_pin_sck, %object
 881              		.size	m_pin_sck, 4
 882              	m_pin_sck:
 883 0000 05000000 		.word	5
 884              		.section	.bss.m_init_done,"aw",%nobits
 885              		.set	.LANCHOR0,. + 0
 886              		.type	m_init_done, %object
 887              		.size	m_init_done, 1
 888              	m_init_done:
 889 0000 00       		.space	1
 890              		.text
 891              	.Letext0:
 892              		.file 3 "/usr/include/newlib/machine/_default_types.h"
 893              		.file 4 "/usr/include/newlib/stdint.h"
 894              		.file 5 "/usr/lib/gcc/arm-none-eabi/4.8/include/stddef.h"
 895              		.file 6 "ChibiOS_3.0.2/os/rt/ports/ARMCMx/compilers/GCC/chtypes.h"
 896              		.file 7 "ChibiOS_3.0.2/os/rt/include/chsystypes.h"
 897              		.file 8 "ChibiOS_3.0.2/os/rt/include/chschd.h"
 898              		.file 9 "ChibiOS_3.0.2/os/rt/ports/ARMCMx/chcore.h"
 899              		.file 10 "ChibiOS_3.0.2/os/rt/ports/ARMCMx/chcore_v7m.h"
 900              		.file 11 "ChibiOS_3.0.2/os/rt/include/chtm.h"
 901              		.file 12 "ChibiOS_3.0.2/os/rt/include/chsem.h"
 902              		.file 13 "ChibiOS_3.0.2/os/rt/include/chmtx.h"
 903              		.file 14 "ChibiOS_3.0.2/os/hal/ports/STM32/LLD/GPIOv2/pal_lld.h"
 904              		.file 15 "./utils.h"
 905              		.file 16 "ChibiOS_3.0.2/os/ext/CMSIS/include/core_cm4.h"