ARM GAS  /tmp/ccFwXEVl.s 			page 1


   1              		.syntax unified
   2              		.cpu cortex-m4
   3              		.eabi_attribute 27, 3
   4              		.eabi_attribute 28, 1
   5              		.fpu fpv4-sp-d16
   6              		.eabi_attribute 20, 1
   7              		.eabi_attribute 21, 1
   8              		.eabi_attribute 23, 3
   9              		.eabi_attribute 24, 1
  10              		.eabi_attribute 25, 1
  11              		.eabi_attribute 26, 1
  12              		.eabi_attribute 30, 2
  13              		.eabi_attribute 34, 1
  14              		.eabi_attribute 18, 4
  15              		.thumb
  16              		.file	"st_lld.c"
  17              		.text
  18              	.Ltext0:
  19              		.cfi_sections	.debug_frame
  20              		.section	.text.SysTick_Handler,"ax",%progbits
  21              		.align	2
  22              		.p2align 4,,15
  23              		.global	SysTick_Handler
  24              		.thumb
  25              		.thumb_func
  26              		.type	SysTick_Handler, %function
  27              	SysTick_Handler:
  28              	.LFB256:
  29              		.file 1 "ChibiOS_3.0.2/os/hal/ports/STM32/LLD/TIMv1/st_lld.c"
  30              		.loc 1 154 0
  31              		.cfi_startproc
  32              		@ args = 0, pretend = 0, frame = 0
  33              		@ frame_needed = 0, uses_anonymous_args = 0
  34              	.LVL0:
  35 0000 08B5     		push	{r3, lr}
  36              		.cfi_def_cfa_offset 8
  37              		.cfi_offset 3, -8
  38              		.cfi_offset 14, -4
  39              	.LBB52:
  40              	.LBB53:
  41              	.LBB54:
  42              	.LBB55:
  43              	.LBB56:
  44              	.LBB57:
  45              		.file 2 "ChibiOS_3.0.2/os/ext/CMSIS/include/core_cmFunc.h"
  46              		.loc 2 546 0
  47 0002 2023     		movs	r3, #32
  48              	@ 546 "ChibiOS_3.0.2/os/ext/CMSIS/include/core_cmFunc.h" 1
  49 0004 83F31188 		MSR basepri, r3
  50              	@ 0 "" 2
  51              		.thumb
  52              	.LBE57:
  53              	.LBE56:
  54              	.LBE55:
  55              	.LBE54:
  56              	.LBE53:
  57              	.LBE52:
ARM GAS  /tmp/ccFwXEVl.s 			page 2


  58              	.LBB58:
  59              	.LBB59:
  60              		.file 3 "ChibiOS_3.0.2/os/hal/osal/rt/osal.h"
  61              		.loc 3 585 0
  62 0008 FFF7FEFF 		bl	chSysTimerHandlerI
  63              	.LVL1:
  64              	.LBE59:
  65              	.LBE58:
  66              	.LBB60:
  67              	.LBB61:
  68              	.LBB62:
  69              	.LBB63:
  70              	.LBB64:
  71              	.LBB65:
  72              		.loc 2 546 0
  73 000c 0023     		movs	r3, #0
  74              	@ 546 "ChibiOS_3.0.2/os/ext/CMSIS/include/core_cmFunc.h" 1
  75 000e 83F31188 		MSR basepri, r3
  76              	@ 0 "" 2
  77              		.thumb
  78              	.LBE65:
  79              	.LBE64:
  80              	.LBE63:
  81              	.LBE62:
  82              	.LBE61:
  83              	.LBE60:
  84              		.loc 1 163 0
  85 0012 BDE80840 		pop	{r3, lr}
  86              		.loc 1 162 0
  87 0016 FFF7FEBF 		b	_port_irq_epilogue
  88              	.LVL2:
  89              		.cfi_endproc
  90              	.LFE256:
  91              		.size	SysTick_Handler, .-SysTick_Handler
  92 001a 00BFAFF3 		.section	.text.st_lld_init,"ax",%progbits
  92      0080
  93              		.align	2
  94              		.p2align 4,,15
  95              		.global	st_lld_init
  96              		.thumb
  97              		.thumb_func
  98              		.type	st_lld_init, %function
  99              	st_lld_init:
 100              	.LFB257:
 101              		.loc 1 201 0
 102              		.cfi_startproc
 103              		@ args = 0, pretend = 0, frame = 0
 104              		@ frame_needed = 0, uses_anonymous_args = 0
 105              		@ link register save eliminated.
 106              		.loc 1 229 0
 107 0000 054B     		ldr	r3, .L3
 108 0002 44F29F10 		movw	r0, #16799
 109              		.loc 1 230 0
 110 0006 0021     		movs	r1, #0
 111              		.loc 1 231 0
 112 0008 0722     		movs	r2, #7
 113              		.loc 1 229 0
ARM GAS  /tmp/ccFwXEVl.s 			page 3


 114 000a 5860     		str	r0, [r3, #4]
 115              		.loc 1 230 0
 116 000c 9960     		str	r1, [r3, #8]
 117              		.loc 1 236 0
 118 000e 0B20     		movs	r0, #11
 119 0010 0821     		movs	r1, #8
 120              		.loc 1 231 0
 121 0012 1A60     		str	r2, [r3]
 122              		.loc 1 236 0
 123 0014 FFF7FEBF 		b	nvicSetSystemHandlerPriority
 124              	.LVL3:
 125              	.L4:
 126              		.align	2
 127              	.L3:
 128 0018 10E000E0 		.word	-536813552
 129              		.cfi_endproc
 130              	.LFE257:
 131              		.size	st_lld_init, .-st_lld_init
 132 001c AFF30080 		.text
 133              	.Letext0:
 134              		.file 4 "/usr/include/newlib/machine/_default_types.h"
 135              		.file 5 "/usr/include/newlib/stdint.h"
 136              		.file 6 "ChibiOS_3.0.2/os/rt/ports/ARMCMx/compilers/GCC/chtypes.h"
 137              		.file 7 "ChibiOS_3.0.2/os/rt/include/chsystypes.h"
 138              		.file 8 "ChibiOS_3.0.2/os/rt/include/chschd.h"
 139              		.file 9 "ChibiOS_3.0.2/os/ext/CMSIS/include/core_cm4.h"
 140              		.file 10 "ChibiOS_3.0.2/os/rt/ports/ARMCMx/chcore.h"
 141              		.file 11 "ChibiOS_3.0.2/os/rt/ports/ARMCMx/chcore_v7m.h"
 142              		.file 12 "ChibiOS_3.0.2/os/rt/include/chtm.h"
 143              		.file 13 "ChibiOS_3.0.2/os/rt/include/chsem.h"
 144              		.file 14 "ChibiOS_3.0.2/os/rt/include/chmtx.h"
 145              		.file 15 "ChibiOS_3.0.2/os/rt/include/chsys.h"
 146              		.file 16 "ChibiOS_3.0.2/os/hal/ports/common/ARMCMx/nvic.h"
 147              		.section	.debug_info,"",%progbits
 148              	.Ldebug_info0:
 149 0000 2E090000 		.4byte	0x92e
 150 0004 0400     		.2byte	0x4
 151 0006 00000000 		.4byte	.Ldebug_abbrev0
 152 000a 04       		.byte	0x4
 153 000b 01       		.uleb128 0x1
 154 000c 28010000 		.4byte	.LASF124
 155 0010 01       		.byte	0x1
 156 0011 7F040000 		.4byte	.LASF125
 157 0015 67020000 		.4byte	.LASF126
 158 0019 00000000 		.4byte	.Ldebug_ranges0+0
 159 001d 00000000 		.4byte	0
 160 0021 00000000 		.4byte	.Ldebug_line0
 161 0025 02       		.uleb128 0x2
 162 0026 04       		.byte	0x4
 163 0027 05       		.byte	0x5
 164 0028 696E7400 		.ascii	"int\000"
 165 002c 03       		.uleb128 0x3
 166 002d 04       		.byte	0x4
 167 002e 07       		.byte	0x7
 168 002f B1020000 		.4byte	.LASF0
 169 0033 03       		.uleb128 0x3
 170 0034 01       		.byte	0x1
ARM GAS  /tmp/ccFwXEVl.s 			page 4


 171 0035 06       		.byte	0x6
 172 0036 DA000000 		.4byte	.LASF1
 173 003a 04       		.uleb128 0x4
 174 003b 23000000 		.4byte	.LASF5
 175 003f 04       		.byte	0x4
 176 0040 1D       		.byte	0x1d
 177 0041 45000000 		.4byte	0x45
 178 0045 03       		.uleb128 0x3
 179 0046 01       		.byte	0x1
 180 0047 08       		.byte	0x8
 181 0048 64040000 		.4byte	.LASF2
 182 004c 03       		.uleb128 0x3
 183 004d 02       		.byte	0x2
 184 004e 05       		.byte	0x5
 185 004f B3040000 		.4byte	.LASF3
 186 0053 03       		.uleb128 0x3
 187 0054 02       		.byte	0x2
 188 0055 07       		.byte	0x7
 189 0056 F9020000 		.4byte	.LASF4
 190 005a 04       		.uleb128 0x4
 191 005b 62030000 		.4byte	.LASF6
 192 005f 04       		.byte	0x4
 193 0060 3F       		.byte	0x3f
 194 0061 65000000 		.4byte	0x65
 195 0065 03       		.uleb128 0x3
 196 0066 04       		.byte	0x4
 197 0067 05       		.byte	0x5
 198 0068 16010000 		.4byte	.LASF7
 199 006c 04       		.uleb128 0x4
 200 006d CE050000 		.4byte	.LASF8
 201 0071 04       		.byte	0x4
 202 0072 41       		.byte	0x41
 203 0073 77000000 		.4byte	0x77
 204 0077 03       		.uleb128 0x3
 205 0078 04       		.byte	0x4
 206 0079 07       		.byte	0x7
 207 007a 6C050000 		.4byte	.LASF9
 208 007e 03       		.uleb128 0x3
 209 007f 08       		.byte	0x8
 210 0080 05       		.byte	0x5
 211 0081 CC000000 		.4byte	.LASF10
 212 0085 04       		.uleb128 0x4
 213 0086 FB030000 		.4byte	.LASF11
 214 008a 04       		.byte	0x4
 215 008b 5B       		.byte	0x5b
 216 008c 90000000 		.4byte	0x90
 217 0090 03       		.uleb128 0x3
 218 0091 08       		.byte	0x8
 219 0092 07       		.byte	0x7
 220 0093 5B000000 		.4byte	.LASF12
 221 0097 04       		.uleb128 0x4
 222 0098 69060000 		.4byte	.LASF13
 223 009c 05       		.byte	0x5
 224 009d 2A       		.byte	0x2a
 225 009e 3A000000 		.4byte	0x3a
 226 00a2 04       		.uleb128 0x4
 227 00a3 5C040000 		.4byte	.LASF14
ARM GAS  /tmp/ccFwXEVl.s 			page 5


 228 00a7 05       		.byte	0x5
 229 00a8 41       		.byte	0x41
 230 00a9 5A000000 		.4byte	0x5a
 231 00ad 04       		.uleb128 0x4
 232 00ae 39050000 		.4byte	.LASF15
 233 00b2 05       		.byte	0x5
 234 00b3 42       		.byte	0x42
 235 00b4 6C000000 		.4byte	0x6c
 236 00b8 04       		.uleb128 0x4
 237 00b9 1A000000 		.4byte	.LASF16
 238 00bd 05       		.byte	0x5
 239 00be 4E       		.byte	0x4e
 240 00bf 85000000 		.4byte	0x85
 241 00c3 05       		.uleb128 0x5
 242 00c4 A2000000 		.4byte	0xa2
 243 00c8 05       		.uleb128 0x5
 244 00c9 AD000000 		.4byte	0xad
 245 00cd 04       		.uleb128 0x4
 246 00ce 8B030000 		.4byte	.LASF17
 247 00d2 06       		.byte	0x6
 248 00d3 45       		.byte	0x45
 249 00d4 AD000000 		.4byte	0xad
 250 00d8 04       		.uleb128 0x4
 251 00d9 40030000 		.4byte	.LASF18
 252 00dd 06       		.byte	0x6
 253 00de 48       		.byte	0x48
 254 00df 97000000 		.4byte	0x97
 255 00e3 04       		.uleb128 0x4
 256 00e4 1F010000 		.4byte	.LASF19
 257 00e8 06       		.byte	0x6
 258 00e9 49       		.byte	0x49
 259 00ea 97000000 		.4byte	0x97
 260 00ee 04       		.uleb128 0x4
 261 00ef 0C040000 		.4byte	.LASF20
 262 00f3 06       		.byte	0x6
 263 00f4 4A       		.byte	0x4a
 264 00f5 97000000 		.4byte	0x97
 265 00f9 04       		.uleb128 0x4
 266 00fa 02010000 		.4byte	.LASF21
 267 00fe 06       		.byte	0x6
 268 00ff 4B       		.byte	0x4b
 269 0100 97000000 		.4byte	0x97
 270 0104 04       		.uleb128 0x4
 271 0105 2B040000 		.4byte	.LASF22
 272 0109 06       		.byte	0x6
 273 010a 4C       		.byte	0x4c
 274 010b AD000000 		.4byte	0xad
 275 010f 04       		.uleb128 0x4
 276 0110 16030000 		.4byte	.LASF23
 277 0114 06       		.byte	0x6
 278 0115 4D       		.byte	0x4d
 279 0116 A2000000 		.4byte	0xa2
 280 011a 04       		.uleb128 0x4
 281 011b 56030000 		.4byte	.LASF24
 282 011f 06       		.byte	0x6
 283 0120 4F       		.byte	0x4f
 284 0121 AD000000 		.4byte	0xad
ARM GAS  /tmp/ccFwXEVl.s 			page 6


 285 0125 04       		.uleb128 0x4
 286 0126 AB020000 		.4byte	.LASF25
 287 012a 06       		.byte	0x6
 288 012b 51       		.byte	0x51
 289 012c A2000000 		.4byte	0xa2
 290 0130 04       		.uleb128 0x4
 291 0131 A8050000 		.4byte	.LASF26
 292 0135 07       		.byte	0x7
 293 0136 33       		.byte	0x33
 294 0137 AD000000 		.4byte	0xad
 295 013b 04       		.uleb128 0x4
 296 013c 98050000 		.4byte	.LASF27
 297 0140 07       		.byte	0x7
 298 0141 3F       		.byte	0x3f
 299 0142 46010000 		.4byte	0x146
 300 0146 06       		.uleb128 0x6
 301 0147 0C030000 		.4byte	.LASF49
 302 014b 48       		.byte	0x48
 303 014c 08       		.byte	0x8
 304 014d C2       		.byte	0xc2
 305 014e 4B020000 		.4byte	0x24b
 306 0152 07       		.uleb128 0x7
 307 0153 01050000 		.4byte	.LASF28
 308 0157 08       		.byte	0x8
 309 0158 C3       		.byte	0xc3
 310 0159 56020000 		.4byte	0x256
 311 015d 00       		.byte	0
 312 015e 07       		.uleb128 0x7
 313 015f 24040000 		.4byte	.LASF29
 314 0163 08       		.byte	0x8
 315 0164 C5       		.byte	0xc5
 316 0165 56020000 		.4byte	0x256
 317 0169 04       		.byte	0x4
 318 016a 07       		.uleb128 0x7
 319 016b C5000000 		.4byte	.LASF30
 320 016f 08       		.byte	0x8
 321 0170 C7       		.byte	0xc7
 322 0171 04010000 		.4byte	0x104
 323 0175 08       		.byte	0x8
 324 0176 07       		.uleb128 0x7
 325 0177 A7060000 		.4byte	.LASF31
 326 017b 08       		.byte	0x8
 327 017c C8       		.byte	0xc8
 328 017d D5040000 		.4byte	0x4d5
 329 0181 0C       		.byte	0xc
 330 0182 07       		.uleb128 0x7
 331 0183 22020000 		.4byte	.LASF32
 332 0187 08       		.byte	0x8
 333 0188 CA       		.byte	0xca
 334 0189 56020000 		.4byte	0x256
 335 018d 10       		.byte	0x10
 336 018e 07       		.uleb128 0x7
 337 018f CA030000 		.4byte	.LASF33
 338 0193 08       		.byte	0x8
 339 0194 CB       		.byte	0xcb
 340 0195 56020000 		.4byte	0x256
 341 0199 14       		.byte	0x14
ARM GAS  /tmp/ccFwXEVl.s 			page 7


 342 019a 07       		.uleb128 0x7
 343 019b 83060000 		.4byte	.LASF34
 344 019f 08       		.byte	0x8
 345 01a0 D2       		.byte	0xd2
 346 01a1 1A070000 		.4byte	0x71a
 347 01a5 18       		.byte	0x18
 348 01a6 07       		.uleb128 0x7
 349 01a7 BD040000 		.4byte	.LASF35
 350 01ab 08       		.byte	0x8
 351 01ac DD       		.byte	0xdd
 352 01ad E3000000 		.4byte	0xe3
 353 01b1 1C       		.byte	0x1c
 354 01b2 07       		.uleb128 0x7
 355 01b3 08050000 		.4byte	.LASF36
 356 01b7 08       		.byte	0x8
 357 01b8 E1       		.byte	0xe1
 358 01b9 D8000000 		.4byte	0xd8
 359 01bd 1D       		.byte	0x1d
 360 01be 07       		.uleb128 0x7
 361 01bf 49060000 		.4byte	.LASF37
 362 01c3 08       		.byte	0x8
 363 01c4 E6       		.byte	0xe6
 364 01c5 EE000000 		.4byte	0xee
 365 01c9 1E       		.byte	0x1e
 366 01ca 07       		.uleb128 0x7
 367 01cb C5040000 		.4byte	.LASF38
 368 01cf 08       		.byte	0x8
 369 01d0 EC       		.byte	0xec
 370 01d1 F9000000 		.4byte	0xf9
 371 01d5 1F       		.byte	0x1f
 372 01d6 07       		.uleb128 0x7
 373 01d7 F8050000 		.4byte	.LASF39
 374 01db 08       		.byte	0x8
 375 01dc F3       		.byte	0xf3
 376 01dd 2C070000 		.4byte	0x72c
 377 01e1 20       		.byte	0x20
 378 01e2 08       		.uleb128 0x8
 379 01e3 705F7500 		.ascii	"p_u\000"
 380 01e7 08       		.byte	0x8
 381 01e8 3101     		.2byte	0x131
 382 01ea 55060000 		.4byte	0x655
 383 01ee 24       		.byte	0x24
 384 01ef 09       		.uleb128 0x9
 385 01f0 AD060000 		.4byte	.LASF40
 386 01f4 08       		.byte	0x8
 387 01f5 3601     		.2byte	0x136
 388 01f7 5C020000 		.4byte	0x25c
 389 01fb 28       		.byte	0x28
 390 01fc 09       		.uleb128 0x9
 391 01fd 22060000 		.4byte	.LASF41
 392 0201 08       		.byte	0x8
 393 0202 3C01     		.2byte	0x13c
 394 0204 80020000 		.4byte	0x280
 395 0208 2C       		.byte	0x2c
 396 0209 09       		.uleb128 0x9
 397 020a 99060000 		.4byte	.LASF42
 398 020e 08       		.byte	0x8
ARM GAS  /tmp/ccFwXEVl.s 			page 8


 399 020f 4001     		.2byte	0x140
 400 0211 0F010000 		.4byte	0x10f
 401 0215 34       		.byte	0x34
 402 0216 09       		.uleb128 0x9
 403 0217 2E050000 		.4byte	.LASF43
 404 021b 08       		.byte	0x8
 405 021c 4601     		.2byte	0x146
 406 021e 1A010000 		.4byte	0x11a
 407 0222 38       		.byte	0x38
 408 0223 09       		.uleb128 0x9
 409 0224 B7060000 		.4byte	.LASF44
 410 0228 08       		.byte	0x8
 411 0229 4D01     		.2byte	0x14d
 412 022b 14070000 		.4byte	0x714
 413 022f 3C       		.byte	0x3c
 414 0230 09       		.uleb128 0x9
 415 0231 1C030000 		.4byte	.LASF45
 416 0235 08       		.byte	0x8
 417 0236 5101     		.2byte	0x151
 418 0238 04010000 		.4byte	0x104
 419 023c 40       		.byte	0x40
 420 023d 09       		.uleb128 0x9
 421 023e E6000000 		.4byte	.LASF46
 422 0242 08       		.byte	0x8
 423 0243 5801     		.2byte	0x158
 424 0245 33030000 		.4byte	0x333
 425 0249 44       		.byte	0x44
 426 024a 00       		.byte	0
 427 024b 04       		.uleb128 0x4
 428 024c 93030000 		.4byte	.LASF47
 429 0250 07       		.byte	0x7
 430 0251 44       		.byte	0x44
 431 0252 56020000 		.4byte	0x256
 432 0256 0A       		.uleb128 0xa
 433 0257 04       		.byte	0x4
 434 0258 3B010000 		.4byte	0x13b
 435 025c 04       		.uleb128 0x4
 436 025d 8A060000 		.4byte	.LASF48
 437 0261 07       		.byte	0x7
 438 0262 49       		.byte	0x49
 439 0263 67020000 		.4byte	0x267
 440 0267 06       		.uleb128 0x6
 441 0268 5C050000 		.4byte	.LASF50
 442 026c 04       		.byte	0x4
 443 026d 08       		.byte	0x8
 444 026e B0       		.byte	0xb0
 445 026f 80020000 		.4byte	0x280
 446 0273 07       		.uleb128 0x7
 447 0274 01050000 		.4byte	.LASF28
 448 0278 08       		.byte	0x8
 449 0279 B1       		.byte	0xb1
 450 027a 56020000 		.4byte	0x256
 451 027e 00       		.byte	0
 452 027f 00       		.byte	0
 453 0280 04       		.uleb128 0x4
 454 0281 39060000 		.4byte	.LASF51
 455 0285 07       		.byte	0x7
ARM GAS  /tmp/ccFwXEVl.s 			page 9


 456 0286 50       		.byte	0x50
 457 0287 8B020000 		.4byte	0x28b
 458 028b 06       		.uleb128 0x6
 459 028c B4000000 		.4byte	.LASF52
 460 0290 08       		.byte	0x8
 461 0291 08       		.byte	0x8
 462 0292 B7       		.byte	0xb7
 463 0293 B0020000 		.4byte	0x2b0
 464 0297 07       		.uleb128 0x7
 465 0298 01050000 		.4byte	.LASF28
 466 029c 08       		.byte	0x8
 467 029d B8       		.byte	0xb8
 468 029e 56020000 		.4byte	0x256
 469 02a2 00       		.byte	0
 470 02a3 07       		.uleb128 0x7
 471 02a4 24040000 		.4byte	.LASF29
 472 02a8 08       		.byte	0x8
 473 02a9 B9       		.byte	0xb9
 474 02aa 56020000 		.4byte	0x256
 475 02ae 04       		.byte	0x4
 476 02af 00       		.byte	0
 477 02b0 04       		.uleb128 0x4
 478 02b1 00000000 		.4byte	.LASF53
 479 02b5 07       		.byte	0x7
 480 02b6 57       		.byte	0x57
 481 02b7 BB020000 		.4byte	0x2bb
 482 02bb 0B       		.uleb128 0xb
 483 02bc 48030000 		.4byte	.LASF54
 484 02c0 1C       		.byte	0x1c
 485 02c1 08       		.byte	0x8
 486 02c2 9001     		.2byte	0x190
 487 02c4 17030000 		.4byte	0x317
 488 02c8 09       		.uleb128 0x9
 489 02c9 49050000 		.4byte	.LASF55
 490 02cd 08       		.byte	0x8
 491 02ce 9101     		.2byte	0x191
 492 02d0 80020000 		.4byte	0x280
 493 02d4 00       		.byte	0
 494 02d5 09       		.uleb128 0x9
 495 02d6 EC040000 		.4byte	.LASF56
 496 02da 08       		.byte	0x8
 497 02db 9201     		.2byte	0x192
 498 02dd 04010000 		.4byte	0x104
 499 02e1 08       		.byte	0x8
 500 02e2 09       		.uleb128 0x9
 501 02e3 D2030000 		.4byte	.LASF57
 502 02e7 08       		.byte	0x8
 503 02e8 9401     		.2byte	0x194
 504 02ea D5040000 		.4byte	0x4d5
 505 02ee 0C       		.byte	0xc
 506 02ef 09       		.uleb128 0x9
 507 02f0 3B020000 		.4byte	.LASF58
 508 02f4 08       		.byte	0x8
 509 02f5 9701     		.2byte	0x197
 510 02f7 56020000 		.4byte	0x256
 511 02fb 10       		.byte	0x10
 512 02fc 09       		.uleb128 0x9
ARM GAS  /tmp/ccFwXEVl.s 			page 10


 513 02fd F3030000 		.4byte	.LASF59
 514 0301 08       		.byte	0x8
 515 0302 9801     		.2byte	0x198
 516 0304 56020000 		.4byte	0x256
 517 0308 14       		.byte	0x14
 518 0309 09       		.uleb128 0x9
 519 030a E9030000 		.4byte	.LASF60
 520 030e 08       		.byte	0x8
 521 030f 9B01     		.2byte	0x19b
 522 0311 56020000 		.4byte	0x256
 523 0315 18       		.byte	0x18
 524 0316 00       		.byte	0
 525 0317 04       		.uleb128 0x4
 526 0318 C5050000 		.4byte	.LASF61
 527 031c 07       		.byte	0x7
 528 031d 5C       		.byte	0x5c
 529 031e 22030000 		.4byte	0x322
 530 0322 0A       		.uleb128 0xa
 531 0323 04       		.byte	0x4
 532 0324 28030000 		.4byte	0x328
 533 0328 0C       		.uleb128 0xc
 534 0329 33030000 		.4byte	0x333
 535 032d 0D       		.uleb128 0xd
 536 032e 33030000 		.4byte	0x333
 537 0332 00       		.byte	0
 538 0333 0E       		.uleb128 0xe
 539 0334 04       		.byte	0x4
 540 0335 04       		.uleb128 0x4
 541 0336 14040000 		.4byte	.LASF62
 542 033a 07       		.byte	0x7
 543 033b 61       		.byte	0x61
 544 033c 40030000 		.4byte	0x340
 545 0340 0B       		.uleb128 0xb
 546 0341 10050000 		.4byte	.LASF63
 547 0345 14       		.byte	0x14
 548 0346 08       		.byte	0x8
 549 0347 6B01     		.2byte	0x16b
 550 0349 8F030000 		.4byte	0x38f
 551 034d 09       		.uleb128 0x9
 552 034e BE020000 		.4byte	.LASF64
 553 0352 08       		.byte	0x8
 554 0353 6C01     		.2byte	0x16c
 555 0355 31070000 		.4byte	0x731
 556 0359 00       		.byte	0
 557 035a 09       		.uleb128 0x9
 558 035b 4C020000 		.4byte	.LASF65
 559 035f 08       		.byte	0x8
 560 0360 6D01     		.2byte	0x16d
 561 0362 31070000 		.4byte	0x731
 562 0366 04       		.byte	0x4
 563 0367 09       		.uleb128 0x9
 564 0368 D3020000 		.4byte	.LASF66
 565 036c 08       		.byte	0x8
 566 036d 6E01     		.2byte	0x16e
 567 036f 30010000 		.4byte	0x130
 568 0373 08       		.byte	0x8
 569 0374 09       		.uleb128 0x9
ARM GAS  /tmp/ccFwXEVl.s 			page 11


 570 0375 C2030000 		.4byte	.LASF67
 571 0379 08       		.byte	0x8
 572 037a 6F01     		.2byte	0x16f
 573 037c 17030000 		.4byte	0x317
 574 0380 0C       		.byte	0xc
 575 0381 09       		.uleb128 0x9
 576 0382 32060000 		.4byte	.LASF68
 577 0386 08       		.byte	0x8
 578 0387 7101     		.2byte	0x171
 579 0389 33030000 		.4byte	0x333
 580 038d 10       		.byte	0x10
 581 038e 00       		.byte	0
 582 038f 04       		.uleb128 0x4
 583 0390 7D000000 		.4byte	.LASF69
 584 0394 07       		.byte	0x7
 585 0395 66       		.byte	0x66
 586 0396 9A030000 		.4byte	0x39a
 587 039a 0B       		.uleb128 0xb
 588 039b AB030000 		.4byte	.LASF70
 589 039f 10       		.byte	0x10
 590 03a0 08       		.byte	0x8
 591 03a1 7B01     		.2byte	0x17b
 592 03a3 DC030000 		.4byte	0x3dc
 593 03a7 09       		.uleb128 0x9
 594 03a8 BE020000 		.4byte	.LASF64
 595 03ac 08       		.byte	0x8
 596 03ad 7C01     		.2byte	0x17c
 597 03af 31070000 		.4byte	0x731
 598 03b3 00       		.byte	0
 599 03b4 09       		.uleb128 0x9
 600 03b5 4C020000 		.4byte	.LASF65
 601 03b9 08       		.byte	0x8
 602 03ba 7E01     		.2byte	0x17e
 603 03bc 31070000 		.4byte	0x731
 604 03c0 04       		.byte	0x4
 605 03c1 09       		.uleb128 0x9
 606 03c2 D3020000 		.4byte	.LASF66
 607 03c6 08       		.byte	0x8
 608 03c7 8001     		.2byte	0x180
 609 03c9 30010000 		.4byte	0x130
 610 03cd 08       		.byte	0x8
 611 03ce 09       		.uleb128 0x9
 612 03cf 51050000 		.4byte	.LASF71
 613 03d3 08       		.byte	0x8
 614 03d4 8201     		.2byte	0x182
 615 03d6 2C070000 		.4byte	0x72c
 616 03da 0C       		.byte	0xc
 617 03db 00       		.byte	0
 618 03dc 04       		.uleb128 0x4
 619 03dd DC020000 		.4byte	.LASF72
 620 03e1 07       		.byte	0x7
 621 03e2 6B       		.byte	0x6b
 622 03e3 E7030000 		.4byte	0x3e7
 623 03e7 0B       		.uleb128 0xb
 624 03e8 46040000 		.4byte	.LASF73
 625 03ec 04       		.byte	0x4
 626 03ed 08       		.byte	0x8
ARM GAS  /tmp/ccFwXEVl.s 			page 12


 627 03ee A201     		.2byte	0x1a2
 628 03f0 02040000 		.4byte	0x402
 629 03f4 09       		.uleb128 0x9
 630 03f5 E7050000 		.4byte	.LASF74
 631 03f9 08       		.byte	0x8
 632 03fa AA01     		.2byte	0x1aa
 633 03fc 37070000 		.4byte	0x737
 634 0400 00       		.byte	0
 635 0401 00       		.byte	0
 636 0402 04       		.uleb128 0x4
 637 0403 27030000 		.4byte	.LASF75
 638 0407 07       		.byte	0x7
 639 0408 70       		.byte	0x70
 640 0409 0D040000 		.4byte	0x40d
 641 040d 0F       		.uleb128 0xf
 642 040e 0C010000 		.4byte	.LASF76
 643 0412 5802     		.2byte	0x258
 644 0414 08       		.byte	0x8
 645 0415 C201     		.2byte	0x1c2
 646 0417 69040000 		.4byte	0x469
 647 041b 09       		.uleb128 0x9
 648 041c 63060000 		.4byte	.LASF77
 649 0420 08       		.byte	0x8
 650 0421 C601     		.2byte	0x1c6
 651 0423 B0020000 		.4byte	0x2b0
 652 0427 00       		.byte	0
 653 0428 09       		.uleb128 0x9
 654 0429 39000000 		.4byte	.LASF78
 655 042d 08       		.byte	0x8
 656 042e CA01     		.2byte	0x1ca
 657 0430 8F030000 		.4byte	0x38f
 658 0434 1C       		.byte	0x1c
 659 0435 08       		.uleb128 0x8
 660 0436 64626700 		.ascii	"dbg\000"
 661 043a 08       		.byte	0x8
 662 043b CE01     		.2byte	0x1ce
 663 043d DC030000 		.4byte	0x3dc
 664 0441 2C       		.byte	0x2c
 665 0442 09       		.uleb128 0x9
 666 0443 72000000 		.4byte	.LASF79
 667 0447 08       		.byte	0x8
 668 0448 D201     		.2byte	0x1d2
 669 044a 3B010000 		.4byte	0x13b
 670 044e 30       		.byte	0x30
 671 044f 08       		.uleb128 0x8
 672 0450 746D00   		.ascii	"tm\000"
 673 0453 08       		.byte	0x8
 674 0454 D701     		.2byte	0x1d7
 675 0456 4A060000 		.4byte	0x64a
 676 045a 78       		.byte	0x78
 677 045b 09       		.uleb128 0x9
 678 045c 9C020000 		.4byte	.LASF80
 679 0460 08       		.byte	0x8
 680 0461 E301     		.2byte	0x1e3
 681 0463 3C070000 		.4byte	0x73c
 682 0467 80       		.byte	0x80
 683 0468 00       		.byte	0
ARM GAS  /tmp/ccFwXEVl.s 			page 13


 684 0469 03       		.uleb128 0x3
 685 046a 04       		.byte	0x4
 686 046b 07       		.byte	0x7
 687 046c 71060000 		.4byte	.LASF81
 688 0470 10       		.uleb128 0x10
 689 0471 C8000000 		.4byte	0xc8
 690 0475 11       		.uleb128 0x11
 691 0476 10       		.byte	0x10
 692 0477 09       		.byte	0x9
 693 0478 6F02     		.2byte	0x26f
 694 047a B3040000 		.4byte	0x4b3
 695 047e 09       		.uleb128 0x9
 696 047f 2D060000 		.4byte	.LASF82
 697 0483 09       		.byte	0x9
 698 0484 7102     		.2byte	0x271
 699 0486 C8000000 		.4byte	0xc8
 700 048a 00       		.byte	0
 701 048b 09       		.uleb128 0x9
 702 048c A6030000 		.4byte	.LASF83
 703 0490 09       		.byte	0x9
 704 0491 7202     		.2byte	0x272
 705 0493 C8000000 		.4byte	0xc8
 706 0497 04       		.byte	0x4
 707 0498 08       		.uleb128 0x8
 708 0499 56414C00 		.ascii	"VAL\000"
 709 049d 09       		.byte	0x9
 710 049e 7302     		.2byte	0x273
 711 04a0 C8000000 		.4byte	0xc8
 712 04a4 08       		.byte	0x8
 713 04a5 09       		.uleb128 0x9
 714 04a6 C6020000 		.4byte	.LASF84
 715 04aa 09       		.byte	0x9
 716 04ab 7402     		.2byte	0x274
 717 04ad 70040000 		.4byte	0x470
 718 04b1 0C       		.byte	0xc
 719 04b2 00       		.byte	0
 720 04b3 12       		.uleb128 0x12
 721 04b4 33030000 		.4byte	.LASF85
 722 04b8 09       		.byte	0x9
 723 04b9 7502     		.2byte	0x275
 724 04bb 75040000 		.4byte	0x475
 725 04bf 04       		.uleb128 0x4
 726 04c0 43020000 		.4byte	.LASF86
 727 04c4 0A       		.byte	0xa
 728 04c5 65       		.byte	0x65
 729 04c6 33030000 		.4byte	0x333
 730 04ca 04       		.uleb128 0x4
 731 04cb 6C030000 		.4byte	.LASF87
 732 04cf 0A       		.byte	0xa
 733 04d0 6D       		.byte	0x6d
 734 04d1 B8000000 		.4byte	0xb8
 735 04d5 06       		.uleb128 0x6
 736 04d6 F1020000 		.4byte	.LASF88
 737 04da 04       		.byte	0x4
 738 04db 0A       		.byte	0xa
 739 04dc 89       		.byte	0x89
 740 04dd EE040000 		.4byte	0x4ee
ARM GAS  /tmp/ccFwXEVl.s 			page 14


 741 04e1 13       		.uleb128 0x13
 742 04e2 72313300 		.ascii	"r13\000"
 743 04e6 0A       		.byte	0xa
 744 04e7 8A       		.byte	0x8a
 745 04e8 2F060000 		.4byte	0x62f
 746 04ec 00       		.byte	0
 747 04ed 00       		.byte	0
 748 04ee 06       		.uleb128 0x6
 749 04ef 2D000000 		.4byte	.LASF89
 750 04f3 64       		.byte	0x64
 751 04f4 0B       		.byte	0xb
 752 04f5 F4       		.byte	0xf4
 753 04f6 2F060000 		.4byte	0x62f
 754 04fa 13       		.uleb128 0x13
 755 04fb 73313600 		.ascii	"s16\000"
 756 04ff 0B       		.byte	0xb
 757 0500 F6       		.byte	0xf6
 758 0501 BF040000 		.4byte	0x4bf
 759 0505 00       		.byte	0
 760 0506 13       		.uleb128 0x13
 761 0507 73313700 		.ascii	"s17\000"
 762 050b 0B       		.byte	0xb
 763 050c F7       		.byte	0xf7
 764 050d BF040000 		.4byte	0x4bf
 765 0511 04       		.byte	0x4
 766 0512 13       		.uleb128 0x13
 767 0513 73313800 		.ascii	"s18\000"
 768 0517 0B       		.byte	0xb
 769 0518 F8       		.byte	0xf8
 770 0519 BF040000 		.4byte	0x4bf
 771 051d 08       		.byte	0x8
 772 051e 13       		.uleb128 0x13
 773 051f 73313900 		.ascii	"s19\000"
 774 0523 0B       		.byte	0xb
 775 0524 F9       		.byte	0xf9
 776 0525 BF040000 		.4byte	0x4bf
 777 0529 0C       		.byte	0xc
 778 052a 13       		.uleb128 0x13
 779 052b 73323000 		.ascii	"s20\000"
 780 052f 0B       		.byte	0xb
 781 0530 FA       		.byte	0xfa
 782 0531 BF040000 		.4byte	0x4bf
 783 0535 10       		.byte	0x10
 784 0536 13       		.uleb128 0x13
 785 0537 73323100 		.ascii	"s21\000"
 786 053b 0B       		.byte	0xb
 787 053c FB       		.byte	0xfb
 788 053d BF040000 		.4byte	0x4bf
 789 0541 14       		.byte	0x14
 790 0542 13       		.uleb128 0x13
 791 0543 73323200 		.ascii	"s22\000"
 792 0547 0B       		.byte	0xb
 793 0548 FC       		.byte	0xfc
 794 0549 BF040000 		.4byte	0x4bf
 795 054d 18       		.byte	0x18
 796 054e 13       		.uleb128 0x13
 797 054f 73323300 		.ascii	"s23\000"
ARM GAS  /tmp/ccFwXEVl.s 			page 15


 798 0553 0B       		.byte	0xb
 799 0554 FD       		.byte	0xfd
 800 0555 BF040000 		.4byte	0x4bf
 801 0559 1C       		.byte	0x1c
 802 055a 13       		.uleb128 0x13
 803 055b 73323400 		.ascii	"s24\000"
 804 055f 0B       		.byte	0xb
 805 0560 FE       		.byte	0xfe
 806 0561 BF040000 		.4byte	0x4bf
 807 0565 20       		.byte	0x20
 808 0566 13       		.uleb128 0x13
 809 0567 73323500 		.ascii	"s25\000"
 810 056b 0B       		.byte	0xb
 811 056c FF       		.byte	0xff
 812 056d BF040000 		.4byte	0x4bf
 813 0571 24       		.byte	0x24
 814 0572 08       		.uleb128 0x8
 815 0573 73323600 		.ascii	"s26\000"
 816 0577 0B       		.byte	0xb
 817 0578 0001     		.2byte	0x100
 818 057a BF040000 		.4byte	0x4bf
 819 057e 28       		.byte	0x28
 820 057f 08       		.uleb128 0x8
 821 0580 73323700 		.ascii	"s27\000"
 822 0584 0B       		.byte	0xb
 823 0585 0101     		.2byte	0x101
 824 0587 BF040000 		.4byte	0x4bf
 825 058b 2C       		.byte	0x2c
 826 058c 08       		.uleb128 0x8
 827 058d 73323800 		.ascii	"s28\000"
 828 0591 0B       		.byte	0xb
 829 0592 0201     		.2byte	0x102
 830 0594 BF040000 		.4byte	0x4bf
 831 0598 30       		.byte	0x30
 832 0599 08       		.uleb128 0x8
 833 059a 73323900 		.ascii	"s29\000"
 834 059e 0B       		.byte	0xb
 835 059f 0301     		.2byte	0x103
 836 05a1 BF040000 		.4byte	0x4bf
 837 05a5 34       		.byte	0x34
 838 05a6 08       		.uleb128 0x8
 839 05a7 73333000 		.ascii	"s30\000"
 840 05ab 0B       		.byte	0xb
 841 05ac 0401     		.2byte	0x104
 842 05ae BF040000 		.4byte	0x4bf
 843 05b2 38       		.byte	0x38
 844 05b3 08       		.uleb128 0x8
 845 05b4 73333100 		.ascii	"s31\000"
 846 05b8 0B       		.byte	0xb
 847 05b9 0501     		.2byte	0x105
 848 05bb BF040000 		.4byte	0x4bf
 849 05bf 3C       		.byte	0x3c
 850 05c0 08       		.uleb128 0x8
 851 05c1 723400   		.ascii	"r4\000"
 852 05c4 0B       		.byte	0xb
 853 05c5 0701     		.2byte	0x107
 854 05c7 BF040000 		.4byte	0x4bf
ARM GAS  /tmp/ccFwXEVl.s 			page 16


 855 05cb 40       		.byte	0x40
 856 05cc 08       		.uleb128 0x8
 857 05cd 723500   		.ascii	"r5\000"
 858 05d0 0B       		.byte	0xb
 859 05d1 0801     		.2byte	0x108
 860 05d3 BF040000 		.4byte	0x4bf
 861 05d7 44       		.byte	0x44
 862 05d8 08       		.uleb128 0x8
 863 05d9 723600   		.ascii	"r6\000"
 864 05dc 0B       		.byte	0xb
 865 05dd 0901     		.2byte	0x109
 866 05df BF040000 		.4byte	0x4bf
 867 05e3 48       		.byte	0x48
 868 05e4 08       		.uleb128 0x8
 869 05e5 723700   		.ascii	"r7\000"
 870 05e8 0B       		.byte	0xb
 871 05e9 0A01     		.2byte	0x10a
 872 05eb BF040000 		.4byte	0x4bf
 873 05ef 4C       		.byte	0x4c
 874 05f0 08       		.uleb128 0x8
 875 05f1 723800   		.ascii	"r8\000"
 876 05f4 0B       		.byte	0xb
 877 05f5 0B01     		.2byte	0x10b
 878 05f7 BF040000 		.4byte	0x4bf
 879 05fb 50       		.byte	0x50
 880 05fc 08       		.uleb128 0x8
 881 05fd 723900   		.ascii	"r9\000"
 882 0600 0B       		.byte	0xb
 883 0601 0C01     		.2byte	0x10c
 884 0603 BF040000 		.4byte	0x4bf
 885 0607 54       		.byte	0x54
 886 0608 08       		.uleb128 0x8
 887 0609 72313000 		.ascii	"r10\000"
 888 060d 0B       		.byte	0xb
 889 060e 0D01     		.2byte	0x10d
 890 0610 BF040000 		.4byte	0x4bf
 891 0614 58       		.byte	0x58
 892 0615 08       		.uleb128 0x8
 893 0616 72313100 		.ascii	"r11\000"
 894 061a 0B       		.byte	0xb
 895 061b 0E01     		.2byte	0x10e
 896 061d BF040000 		.4byte	0x4bf
 897 0621 5C       		.byte	0x5c
 898 0622 08       		.uleb128 0x8
 899 0623 6C7200   		.ascii	"lr\000"
 900 0626 0B       		.byte	0xb
 901 0627 0F01     		.2byte	0x10f
 902 0629 BF040000 		.4byte	0x4bf
 903 062d 60       		.byte	0x60
 904 062e 00       		.byte	0
 905 062f 0A       		.uleb128 0xa
 906 0630 04       		.byte	0x4
 907 0631 EE040000 		.4byte	0x4ee
 908 0635 14       		.uleb128 0x14
 909 0636 04       		.byte	0x4
 910 0637 0C       		.byte	0xc
 911 0638 38       		.byte	0x38
ARM GAS  /tmp/ccFwXEVl.s 			page 17


 912 0639 4A060000 		.4byte	0x64a
 913 063d 07       		.uleb128 0x7
 914 063e F1050000 		.4byte	.LASF90
 915 0642 0C       		.byte	0xc
 916 0643 3C       		.byte	0x3c
 917 0644 CD000000 		.4byte	0xcd
 918 0648 00       		.byte	0
 919 0649 00       		.byte	0
 920 064a 04       		.uleb128 0x4
 921 064b D8030000 		.4byte	.LASF91
 922 064f 0C       		.byte	0xc
 923 0650 3D       		.byte	0x3d
 924 0651 35060000 		.4byte	0x635
 925 0655 15       		.uleb128 0x15
 926 0656 04       		.byte	0x4
 927 0657 08       		.byte	0x8
 928 0658 FA       		.byte	0xfa
 929 0659 B2060000 		.4byte	0x6b2
 930 065d 16       		.uleb128 0x16
 931 065e 13000000 		.4byte	.LASF92
 932 0662 08       		.byte	0x8
 933 0663 0101     		.2byte	0x101
 934 0665 0F010000 		.4byte	0x10f
 935 0669 16       		.uleb128 0x16
 936 066a 32020000 		.4byte	.LASF93
 937 066e 08       		.byte	0x8
 938 066f 0801     		.2byte	0x108
 939 0671 0F010000 		.4byte	0x10f
 940 0675 16       		.uleb128 0x16
 941 0676 F3040000 		.4byte	.LASF94
 942 067a 08       		.byte	0x8
 943 067b 0F01     		.2byte	0x10f
 944 067d 33030000 		.4byte	0x333
 945 0681 16       		.uleb128 0x16
 946 0682 0D000000 		.4byte	.LASF95
 947 0686 08       		.byte	0x8
 948 0687 1601     		.2byte	0x116
 949 0689 B2060000 		.4byte	0x6b2
 950 068d 16       		.uleb128 0x16
 951 068e CC020000 		.4byte	.LASF96
 952 0692 08       		.byte	0x8
 953 0693 1E01     		.2byte	0x11e
 954 0695 DD060000 		.4byte	0x6dd
 955 0699 16       		.uleb128 0x16
 956 069a 42050000 		.4byte	.LASF97
 957 069e 08       		.byte	0x8
 958 069f 2701     		.2byte	0x127
 959 06a1 14070000 		.4byte	0x714
 960 06a5 16       		.uleb128 0x16
 961 06a6 FA040000 		.4byte	.LASF98
 962 06aa 08       		.byte	0x8
 963 06ab 2F01     		.2byte	0x12f
 964 06ad 1A010000 		.4byte	0x11a
 965 06b1 00       		.byte	0
 966 06b2 0A       		.uleb128 0xa
 967 06b3 04       		.byte	0x4
 968 06b4 4B020000 		.4byte	0x24b
ARM GAS  /tmp/ccFwXEVl.s 			page 18


 969 06b8 06       		.uleb128 0x6
 970 06b9 21050000 		.4byte	.LASF99
 971 06bd 0C       		.byte	0xc
 972 06be 0D       		.byte	0xd
 973 06bf 34       		.byte	0x34
 974 06c0 DD060000 		.4byte	0x6dd
 975 06c4 07       		.uleb128 0x7
 976 06c5 2A020000 		.4byte	.LASF100
 977 06c9 0D       		.byte	0xd
 978 06ca 35       		.byte	0x35
 979 06cb 80020000 		.4byte	0x280
 980 06cf 00       		.byte	0
 981 06d0 07       		.uleb128 0x7
 982 06d1 EB020000 		.4byte	.LASF101
 983 06d5 0D       		.byte	0xd
 984 06d6 37       		.byte	0x37
 985 06d7 25010000 		.4byte	0x125
 986 06db 08       		.byte	0x8
 987 06dc 00       		.byte	0
 988 06dd 0A       		.uleb128 0xa
 989 06de 04       		.byte	0x4
 990 06df B8060000 		.4byte	0x6b8
 991 06e3 06       		.uleb128 0x6
 992 06e4 7A060000 		.4byte	.LASF102
 993 06e8 10       		.byte	0x10
 994 06e9 0E       		.byte	0xe
 995 06ea 39       		.byte	0x39
 996 06eb 14070000 		.4byte	0x714
 997 06ef 07       		.uleb128 0x7
 998 06f0 EE000000 		.4byte	.LASF103
 999 06f4 0E       		.byte	0xe
 1000 06f5 3A       		.byte	0x3a
 1001 06f6 80020000 		.4byte	0x280
 1002 06fa 00       		.byte	0
 1003 06fb 07       		.uleb128 0x7
 1004 06fc 9F060000 		.4byte	.LASF104
 1005 0700 0E       		.byte	0xe
 1006 0701 3C       		.byte	0x3c
 1007 0702 56020000 		.4byte	0x256
 1008 0706 08       		.byte	0x8
 1009 0707 07       		.uleb128 0x7
 1010 0708 A1050000 		.4byte	.LASF105
 1011 070c 0E       		.byte	0xe
 1012 070d 3E       		.byte	0x3e
 1013 070e 57070000 		.4byte	0x757
 1014 0712 0C       		.byte	0xc
 1015 0713 00       		.byte	0
 1016 0714 0A       		.uleb128 0xa
 1017 0715 04       		.byte	0x4
 1018 0716 E3060000 		.4byte	0x6e3
 1019 071a 0A       		.uleb128 0xa
 1020 071b 04       		.byte	0x4
 1021 071c 20070000 		.4byte	0x720
 1022 0720 10       		.uleb128 0x10
 1023 0721 25070000 		.4byte	0x725
 1024 0725 03       		.uleb128 0x3
 1025 0726 01       		.byte	0x1
ARM GAS  /tmp/ccFwXEVl.s 			page 19


 1026 0727 08       		.byte	0x8
 1027 0728 7E050000 		.4byte	.LASF106
 1028 072c 05       		.uleb128 0x5
 1029 072d 30010000 		.4byte	0x130
 1030 0731 0A       		.uleb128 0xa
 1031 0732 04       		.byte	0x4
 1032 0733 35030000 		.4byte	0x335
 1033 0737 05       		.uleb128 0x5
 1034 0738 1A070000 		.4byte	0x71a
 1035 073c 17       		.uleb128 0x17
 1036 073d CA040000 		.4byte	0x4ca
 1037 0741 4C070000 		.4byte	0x74c
 1038 0745 18       		.uleb128 0x18
 1039 0746 69040000 		.4byte	0x469
 1040 074a 3A       		.byte	0x3a
 1041 074b 00       		.byte	0
 1042 074c 04       		.uleb128 0x4
 1043 074d 8E020000 		.4byte	.LASF107
 1044 0751 0E       		.byte	0xe
 1045 0752 34       		.byte	0x34
 1046 0753 E3060000 		.4byte	0x6e3
 1047 0757 0A       		.uleb128 0xa
 1048 0758 04       		.byte	0x4
 1049 0759 4C070000 		.4byte	0x74c
 1050 075d 03       		.uleb128 0x3
 1051 075e 04       		.byte	0x4
 1052 075f 04       		.byte	0x4
 1053 0760 06040000 		.4byte	.LASF108
 1054 0764 03       		.uleb128 0x3
 1055 0765 01       		.byte	0x1
 1056 0766 02       		.byte	0x2
 1057 0767 56040000 		.4byte	.LASF109
 1058 076b 19       		.uleb128 0x19
 1059 076c D9050000 		.4byte	.LASF127
 1060 0770 02       		.byte	0x2
 1061 0771 2002     		.2byte	0x220
 1062 0773 03       		.byte	0x3
 1063 0774 85070000 		.4byte	0x785
 1064 0778 1A       		.uleb128 0x1a
 1065 0779 96020000 		.4byte	.LASF128
 1066 077d 02       		.byte	0x2
 1067 077e 2002     		.2byte	0x220
 1068 0780 AD000000 		.4byte	0xad
 1069 0784 00       		.byte	0
 1070 0785 1B       		.uleb128 0x1b
 1071 0786 51000000 		.4byte	.LASF110
 1072 078a 0B       		.byte	0xb
 1073 078b BC01     		.2byte	0x1bc
 1074 078d 03       		.byte	0x3
 1075 078e 1B       		.uleb128 0x1b
 1076 078f F6000000 		.4byte	.LASF111
 1077 0793 0B       		.byte	0xb
 1078 0794 CA01     		.2byte	0x1ca
 1079 0796 03       		.byte	0x3
 1080 0797 1B       		.uleb128 0x1b
 1081 0798 0F060000 		.4byte	.LASF112
 1082 079c 0B       		.byte	0xb
ARM GAS  /tmp/ccFwXEVl.s 			page 20


 1083 079d D901     		.2byte	0x1d9
 1084 079f 03       		.byte	0x3
 1085 07a0 1B       		.uleb128 0x1b
 1086 07a1 83050000 		.4byte	.LASF113
 1087 07a5 0B       		.byte	0xb
 1088 07a6 E401     		.2byte	0x1e4
 1089 07a8 03       		.byte	0x3
 1090 07a9 1B       		.uleb128 0x1b
 1091 07aa 40000000 		.4byte	.LASF114
 1092 07ae 0F       		.byte	0xf
 1093 07af 8201     		.2byte	0x182
 1094 07b1 03       		.byte	0x3
 1095 07b2 1B       		.uleb128 0x1b
 1096 07b3 33040000 		.4byte	.LASF115
 1097 07b7 0F       		.byte	0xf
 1098 07b8 9601     		.2byte	0x196
 1099 07ba 03       		.byte	0x3
 1100 07bb 1B       		.uleb128 0x1b
 1101 07bc 54020000 		.4byte	.LASF116
 1102 07c0 03       		.byte	0x3
 1103 07c1 0102     		.2byte	0x201
 1104 07c3 03       		.byte	0x3
 1105 07c4 1B       		.uleb128 0x1b
 1106 07c5 77030000 		.4byte	.LASF117
 1107 07c9 03       		.byte	0x3
 1108 07ca 4702     		.2byte	0x247
 1109 07cc 03       		.byte	0x3
 1110 07cd 1B       		.uleb128 0x1b
 1111 07ce 93000000 		.4byte	.LASF118
 1112 07d2 03       		.byte	0x3
 1113 07d3 0C02     		.2byte	0x20c
 1114 07d5 03       		.byte	0x3
 1115 07d6 1C       		.uleb128 0x1c
 1116 07d7 FF050000 		.4byte	.LASF119
 1117 07db 01       		.byte	0x1
 1118 07dc 9A       		.byte	0x9a
 1119 07dd 00000000 		.4byte	.LFB256
 1120 07e1 1A000000 		.4byte	.LFE256-.LFB256
 1121 07e5 01       		.uleb128 0x1
 1122 07e6 9C       		.byte	0x9c
 1123 07e7 CE080000 		.4byte	0x8ce
 1124 07eb 1D       		.uleb128 0x1d
 1125 07ec BB070000 		.4byte	0x7bb
 1126 07f0 02000000 		.4byte	.LBB52
 1127 07f4 06000000 		.4byte	.LBE52-.LBB52
 1128 07f8 01       		.byte	0x1
 1129 07f9 9E       		.byte	0x9e
 1130 07fa 49080000 		.4byte	0x849
 1131 07fe 1E       		.uleb128 0x1e
 1132 07ff A9070000 		.4byte	0x7a9
 1133 0803 02000000 		.4byte	.LBB53
 1134 0807 06000000 		.4byte	.LBE53-.LBB53
 1135 080b 03       		.byte	0x3
 1136 080c 0302     		.2byte	0x203
 1137 080e 1E       		.uleb128 0x1e
 1138 080f 97070000 		.4byte	0x797
 1139 0813 02000000 		.4byte	.LBB54
ARM GAS  /tmp/ccFwXEVl.s 			page 21


 1140 0817 06000000 		.4byte	.LBE54-.LBB54
 1141 081b 0F       		.byte	0xf
 1142 081c 8401     		.2byte	0x184
 1143 081e 1E       		.uleb128 0x1e
 1144 081f 85070000 		.4byte	0x785
 1145 0823 02000000 		.4byte	.LBB55
 1146 0827 06000000 		.4byte	.LBE55-.LBB55
 1147 082b 0B       		.byte	0xb
 1148 082c DB01     		.2byte	0x1db
 1149 082e 1E       		.uleb128 0x1e
 1150 082f 6B070000 		.4byte	0x76b
 1151 0833 02000000 		.4byte	.LBB56
 1152 0837 06000000 		.4byte	.LBE56-.LBB56
 1153 083b 0B       		.byte	0xb
 1154 083c BF01     		.2byte	0x1bf
 1155 083e 1F       		.uleb128 0x1f
 1156 083f 78070000 		.4byte	0x778
 1157 0843 20       		.byte	0x20
 1158 0844 00       		.byte	0
 1159 0845 00       		.byte	0
 1160 0846 00       		.byte	0
 1161 0847 00       		.byte	0
 1162 0848 00       		.byte	0
 1163 0849 1D       		.uleb128 0x1d
 1164 084a C4070000 		.4byte	0x7c4
 1165 084e 08000000 		.4byte	.LBB58
 1166 0852 04000000 		.4byte	.LBE58-.LBB58
 1167 0856 01       		.byte	0x1
 1168 0857 9F       		.byte	0x9f
 1169 0858 66080000 		.4byte	0x866
 1170 085c 20       		.uleb128 0x20
 1171 085d 0C000000 		.4byte	.LVL1
 1172 0861 0F090000 		.4byte	0x90f
 1173 0865 00       		.byte	0
 1174 0866 1D       		.uleb128 0x1d
 1175 0867 CD070000 		.4byte	0x7cd
 1176 086b 0C000000 		.4byte	.LBB60
 1177 086f 06000000 		.4byte	.LBE60-.LBB60
 1178 0873 01       		.byte	0x1
 1179 0874 A0       		.byte	0xa0
 1180 0875 C4080000 		.4byte	0x8c4
 1181 0879 1E       		.uleb128 0x1e
 1182 087a B2070000 		.4byte	0x7b2
 1183 087e 0C000000 		.4byte	.LBB61
 1184 0882 06000000 		.4byte	.LBE61-.LBB61
 1185 0886 03       		.byte	0x3
 1186 0887 0E02     		.2byte	0x20e
 1187 0889 1E       		.uleb128 0x1e
 1188 088a A0070000 		.4byte	0x7a0
 1189 088e 0C000000 		.4byte	.LBB62
 1190 0892 06000000 		.4byte	.LBE62-.LBB62
 1191 0896 0F       		.byte	0xf
 1192 0897 9A01     		.2byte	0x19a
 1193 0899 1E       		.uleb128 0x1e
 1194 089a 8E070000 		.4byte	0x78e
 1195 089e 0C000000 		.4byte	.LBB63
 1196 08a2 06000000 		.4byte	.LBE63-.LBB63
ARM GAS  /tmp/ccFwXEVl.s 			page 22


 1197 08a6 0B       		.byte	0xb
 1198 08a7 E601     		.2byte	0x1e6
 1199 08a9 1E       		.uleb128 0x1e
 1200 08aa 6B070000 		.4byte	0x76b
 1201 08ae 0C000000 		.4byte	.LBB64
 1202 08b2 06000000 		.4byte	.LBE64-.LBB64
 1203 08b6 0B       		.byte	0xb
 1204 08b7 CD01     		.2byte	0x1cd
 1205 08b9 1F       		.uleb128 0x1f
 1206 08ba 78070000 		.4byte	0x778
 1207 08be 00       		.byte	0
 1208 08bf 00       		.byte	0
 1209 08c0 00       		.byte	0
 1210 08c1 00       		.byte	0
 1211 08c2 00       		.byte	0
 1212 08c3 00       		.byte	0
 1213 08c4 21       		.uleb128 0x21
 1214 08c5 1A000000 		.4byte	.LVL2
 1215 08c9 17090000 		.4byte	0x917
 1216 08cd 00       		.byte	0
 1217 08ce 1C       		.uleb128 0x1c
 1218 08cf A8000000 		.4byte	.LASF120
 1219 08d3 01       		.byte	0x1
 1220 08d4 C9       		.byte	0xc9
 1221 08d5 00000000 		.4byte	.LFB257
 1222 08d9 1C000000 		.4byte	.LFE257-.LFB257
 1223 08dd 01       		.uleb128 0x1
 1224 08de 9C       		.byte	0x9c
 1225 08df F8080000 		.4byte	0x8f8
 1226 08e3 22       		.uleb128 0x22
 1227 08e4 18000000 		.4byte	.LVL3
 1228 08e8 1F090000 		.4byte	0x91f
 1229 08ec 23       		.uleb128 0x23
 1230 08ed 01       		.uleb128 0x1
 1231 08ee 51       		.byte	0x51
 1232 08ef 01       		.uleb128 0x1
 1233 08f0 38       		.byte	0x38
 1234 08f1 23       		.uleb128 0x23
 1235 08f2 01       		.uleb128 0x1
 1236 08f3 50       		.byte	0x50
 1237 08f4 01       		.uleb128 0x1
 1238 08f5 3B       		.byte	0x3b
 1239 08f6 00       		.byte	0
 1240 08f7 00       		.byte	0
 1241 08f8 24       		.uleb128 0x24
 1242 08f9 72040000 		.4byte	.LASF121
 1243 08fd 09       		.byte	0x9
 1244 08fe A706     		.2byte	0x6a7
 1245 0900 C3000000 		.4byte	0xc3
 1246 0904 25       		.uleb128 0x25
 1247 0905 636800   		.ascii	"ch\000"
 1248 0908 08       		.byte	0x8
 1249 0909 0902     		.2byte	0x209
 1250 090b 02040000 		.4byte	0x402
 1251 090f 26       		.uleb128 0x26
 1252 0910 B2050000 		.4byte	.LASF122
 1253 0914 0F       		.byte	0xf
ARM GAS  /tmp/ccFwXEVl.s 			page 23


 1254 0915 1801     		.2byte	0x118
 1255 0917 26       		.uleb128 0x26
 1256 0918 50060000 		.4byte	.LASF123
 1257 091c 0B       		.byte	0xb
 1258 091d 6601     		.2byte	0x166
 1259 091f 27       		.uleb128 0x27
 1260 0920 CF040000 		.4byte	.LASF129
 1261 0924 10       		.byte	0x10
 1262 0925 50       		.byte	0x50
 1263 0926 0D       		.uleb128 0xd
 1264 0927 AD000000 		.4byte	0xad
 1265 092b 0D       		.uleb128 0xd
 1266 092c AD000000 		.4byte	0xad
 1267 0930 00       		.byte	0
 1268 0931 00       		.byte	0
 1269              		.section	.debug_abbrev,"",%progbits
 1270              	.Ldebug_abbrev0:
 1271 0000 01       		.uleb128 0x1
 1272 0001 11       		.uleb128 0x11
 1273 0002 01       		.byte	0x1
 1274 0003 25       		.uleb128 0x25
 1275 0004 0E       		.uleb128 0xe
 1276 0005 13       		.uleb128 0x13
 1277 0006 0B       		.uleb128 0xb
 1278 0007 03       		.uleb128 0x3
 1279 0008 0E       		.uleb128 0xe
 1280 0009 1B       		.uleb128 0x1b
 1281 000a 0E       		.uleb128 0xe
 1282 000b 55       		.uleb128 0x55
 1283 000c 17       		.uleb128 0x17
 1284 000d 11       		.uleb128 0x11
 1285 000e 01       		.uleb128 0x1
 1286 000f 10       		.uleb128 0x10
 1287 0010 17       		.uleb128 0x17
 1288 0011 00       		.byte	0
 1289 0012 00       		.byte	0
 1290 0013 02       		.uleb128 0x2
 1291 0014 24       		.uleb128 0x24
 1292 0015 00       		.byte	0
 1293 0016 0B       		.uleb128 0xb
 1294 0017 0B       		.uleb128 0xb
 1295 0018 3E       		.uleb128 0x3e
 1296 0019 0B       		.uleb128 0xb
 1297 001a 03       		.uleb128 0x3
 1298 001b 08       		.uleb128 0x8
 1299 001c 00       		.byte	0
 1300 001d 00       		.byte	0
 1301 001e 03       		.uleb128 0x3
 1302 001f 24       		.uleb128 0x24
 1303 0020 00       		.byte	0
 1304 0021 0B       		.uleb128 0xb
 1305 0022 0B       		.uleb128 0xb
 1306 0023 3E       		.uleb128 0x3e
 1307 0024 0B       		.uleb128 0xb
 1308 0025 03       		.uleb128 0x3
 1309 0026 0E       		.uleb128 0xe
 1310 0027 00       		.byte	0
ARM GAS  /tmp/ccFwXEVl.s 			page 24


 1311 0028 00       		.byte	0
 1312 0029 04       		.uleb128 0x4
 1313 002a 16       		.uleb128 0x16
 1314 002b 00       		.byte	0
 1315 002c 03       		.uleb128 0x3
 1316 002d 0E       		.uleb128 0xe
 1317 002e 3A       		.uleb128 0x3a
 1318 002f 0B       		.uleb128 0xb
 1319 0030 3B       		.uleb128 0x3b
 1320 0031 0B       		.uleb128 0xb
 1321 0032 49       		.uleb128 0x49
 1322 0033 13       		.uleb128 0x13
 1323 0034 00       		.byte	0
 1324 0035 00       		.byte	0
 1325 0036 05       		.uleb128 0x5
 1326 0037 35       		.uleb128 0x35
 1327 0038 00       		.byte	0
 1328 0039 49       		.uleb128 0x49
 1329 003a 13       		.uleb128 0x13
 1330 003b 00       		.byte	0
 1331 003c 00       		.byte	0
 1332 003d 06       		.uleb128 0x6
 1333 003e 13       		.uleb128 0x13
 1334 003f 01       		.byte	0x1
 1335 0040 03       		.uleb128 0x3
 1336 0041 0E       		.uleb128 0xe
 1337 0042 0B       		.uleb128 0xb
 1338 0043 0B       		.uleb128 0xb
 1339 0044 3A       		.uleb128 0x3a
 1340 0045 0B       		.uleb128 0xb
 1341 0046 3B       		.uleb128 0x3b
 1342 0047 0B       		.uleb128 0xb
 1343 0048 01       		.uleb128 0x1
 1344 0049 13       		.uleb128 0x13
 1345 004a 00       		.byte	0
 1346 004b 00       		.byte	0
 1347 004c 07       		.uleb128 0x7
 1348 004d 0D       		.uleb128 0xd
 1349 004e 00       		.byte	0
 1350 004f 03       		.uleb128 0x3
 1351 0050 0E       		.uleb128 0xe
 1352 0051 3A       		.uleb128 0x3a
 1353 0052 0B       		.uleb128 0xb
 1354 0053 3B       		.uleb128 0x3b
 1355 0054 0B       		.uleb128 0xb
 1356 0055 49       		.uleb128 0x49
 1357 0056 13       		.uleb128 0x13
 1358 0057 38       		.uleb128 0x38
 1359 0058 0B       		.uleb128 0xb
 1360 0059 00       		.byte	0
 1361 005a 00       		.byte	0
 1362 005b 08       		.uleb128 0x8
 1363 005c 0D       		.uleb128 0xd
 1364 005d 00       		.byte	0
 1365 005e 03       		.uleb128 0x3
 1366 005f 08       		.uleb128 0x8
 1367 0060 3A       		.uleb128 0x3a
ARM GAS  /tmp/ccFwXEVl.s 			page 25


 1368 0061 0B       		.uleb128 0xb
 1369 0062 3B       		.uleb128 0x3b
 1370 0063 05       		.uleb128 0x5
 1371 0064 49       		.uleb128 0x49
 1372 0065 13       		.uleb128 0x13
 1373 0066 38       		.uleb128 0x38
 1374 0067 0B       		.uleb128 0xb
 1375 0068 00       		.byte	0
 1376 0069 00       		.byte	0
 1377 006a 09       		.uleb128 0x9
 1378 006b 0D       		.uleb128 0xd
 1379 006c 00       		.byte	0
 1380 006d 03       		.uleb128 0x3
 1381 006e 0E       		.uleb128 0xe
 1382 006f 3A       		.uleb128 0x3a
 1383 0070 0B       		.uleb128 0xb
 1384 0071 3B       		.uleb128 0x3b
 1385 0072 05       		.uleb128 0x5
 1386 0073 49       		.uleb128 0x49
 1387 0074 13       		.uleb128 0x13
 1388 0075 38       		.uleb128 0x38
 1389 0076 0B       		.uleb128 0xb
 1390 0077 00       		.byte	0
 1391 0078 00       		.byte	0
 1392 0079 0A       		.uleb128 0xa
 1393 007a 0F       		.uleb128 0xf
 1394 007b 00       		.byte	0
 1395 007c 0B       		.uleb128 0xb
 1396 007d 0B       		.uleb128 0xb
 1397 007e 49       		.uleb128 0x49
 1398 007f 13       		.uleb128 0x13
 1399 0080 00       		.byte	0
 1400 0081 00       		.byte	0
 1401 0082 0B       		.uleb128 0xb
 1402 0083 13       		.uleb128 0x13
 1403 0084 01       		.byte	0x1
 1404 0085 03       		.uleb128 0x3
 1405 0086 0E       		.uleb128 0xe
 1406 0087 0B       		.uleb128 0xb
 1407 0088 0B       		.uleb128 0xb
 1408 0089 3A       		.uleb128 0x3a
 1409 008a 0B       		.uleb128 0xb
 1410 008b 3B       		.uleb128 0x3b
 1411 008c 05       		.uleb128 0x5
 1412 008d 01       		.uleb128 0x1
 1413 008e 13       		.uleb128 0x13
 1414 008f 00       		.byte	0
 1415 0090 00       		.byte	0
 1416 0091 0C       		.uleb128 0xc
 1417 0092 15       		.uleb128 0x15
 1418 0093 01       		.byte	0x1
 1419 0094 27       		.uleb128 0x27
 1420 0095 19       		.uleb128 0x19
 1421 0096 01       		.uleb128 0x1
 1422 0097 13       		.uleb128 0x13
 1423 0098 00       		.byte	0
 1424 0099 00       		.byte	0
ARM GAS  /tmp/ccFwXEVl.s 			page 26


 1425 009a 0D       		.uleb128 0xd
 1426 009b 05       		.uleb128 0x5
 1427 009c 00       		.byte	0
 1428 009d 49       		.uleb128 0x49
 1429 009e 13       		.uleb128 0x13
 1430 009f 00       		.byte	0
 1431 00a0 00       		.byte	0
 1432 00a1 0E       		.uleb128 0xe
 1433 00a2 0F       		.uleb128 0xf
 1434 00a3 00       		.byte	0
 1435 00a4 0B       		.uleb128 0xb
 1436 00a5 0B       		.uleb128 0xb
 1437 00a6 00       		.byte	0
 1438 00a7 00       		.byte	0
 1439 00a8 0F       		.uleb128 0xf
 1440 00a9 13       		.uleb128 0x13
 1441 00aa 01       		.byte	0x1
 1442 00ab 03       		.uleb128 0x3
 1443 00ac 0E       		.uleb128 0xe
 1444 00ad 0B       		.uleb128 0xb
 1445 00ae 05       		.uleb128 0x5
 1446 00af 3A       		.uleb128 0x3a
 1447 00b0 0B       		.uleb128 0xb
 1448 00b1 3B       		.uleb128 0x3b
 1449 00b2 05       		.uleb128 0x5
 1450 00b3 01       		.uleb128 0x1
 1451 00b4 13       		.uleb128 0x13
 1452 00b5 00       		.byte	0
 1453 00b6 00       		.byte	0
 1454 00b7 10       		.uleb128 0x10
 1455 00b8 26       		.uleb128 0x26
 1456 00b9 00       		.byte	0
 1457 00ba 49       		.uleb128 0x49
 1458 00bb 13       		.uleb128 0x13
 1459 00bc 00       		.byte	0
 1460 00bd 00       		.byte	0
 1461 00be 11       		.uleb128 0x11
 1462 00bf 13       		.uleb128 0x13
 1463 00c0 01       		.byte	0x1
 1464 00c1 0B       		.uleb128 0xb
 1465 00c2 0B       		.uleb128 0xb
 1466 00c3 3A       		.uleb128 0x3a
 1467 00c4 0B       		.uleb128 0xb
 1468 00c5 3B       		.uleb128 0x3b
 1469 00c6 05       		.uleb128 0x5
 1470 00c7 01       		.uleb128 0x1
 1471 00c8 13       		.uleb128 0x13
 1472 00c9 00       		.byte	0
 1473 00ca 00       		.byte	0
 1474 00cb 12       		.uleb128 0x12
 1475 00cc 16       		.uleb128 0x16
 1476 00cd 00       		.byte	0
 1477 00ce 03       		.uleb128 0x3
 1478 00cf 0E       		.uleb128 0xe
 1479 00d0 3A       		.uleb128 0x3a
 1480 00d1 0B       		.uleb128 0xb
 1481 00d2 3B       		.uleb128 0x3b
ARM GAS  /tmp/ccFwXEVl.s 			page 27


 1482 00d3 05       		.uleb128 0x5
 1483 00d4 49       		.uleb128 0x49
 1484 00d5 13       		.uleb128 0x13
 1485 00d6 00       		.byte	0
 1486 00d7 00       		.byte	0
 1487 00d8 13       		.uleb128 0x13
 1488 00d9 0D       		.uleb128 0xd
 1489 00da 00       		.byte	0
 1490 00db 03       		.uleb128 0x3
 1491 00dc 08       		.uleb128 0x8
 1492 00dd 3A       		.uleb128 0x3a
 1493 00de 0B       		.uleb128 0xb
 1494 00df 3B       		.uleb128 0x3b
 1495 00e0 0B       		.uleb128 0xb
 1496 00e1 49       		.uleb128 0x49
 1497 00e2 13       		.uleb128 0x13
 1498 00e3 38       		.uleb128 0x38
 1499 00e4 0B       		.uleb128 0xb
 1500 00e5 00       		.byte	0
 1501 00e6 00       		.byte	0
 1502 00e7 14       		.uleb128 0x14
 1503 00e8 13       		.uleb128 0x13
 1504 00e9 01       		.byte	0x1
 1505 00ea 0B       		.uleb128 0xb
 1506 00eb 0B       		.uleb128 0xb
 1507 00ec 3A       		.uleb128 0x3a
 1508 00ed 0B       		.uleb128 0xb
 1509 00ee 3B       		.uleb128 0x3b
 1510 00ef 0B       		.uleb128 0xb
 1511 00f0 01       		.uleb128 0x1
 1512 00f1 13       		.uleb128 0x13
 1513 00f2 00       		.byte	0
 1514 00f3 00       		.byte	0
 1515 00f4 15       		.uleb128 0x15
 1516 00f5 17       		.uleb128 0x17
 1517 00f6 01       		.byte	0x1
 1518 00f7 0B       		.uleb128 0xb
 1519 00f8 0B       		.uleb128 0xb
 1520 00f9 3A       		.uleb128 0x3a
 1521 00fa 0B       		.uleb128 0xb
 1522 00fb 3B       		.uleb128 0x3b
 1523 00fc 0B       		.uleb128 0xb
 1524 00fd 01       		.uleb128 0x1
 1525 00fe 13       		.uleb128 0x13
 1526 00ff 00       		.byte	0
 1527 0100 00       		.byte	0
 1528 0101 16       		.uleb128 0x16
 1529 0102 0D       		.uleb128 0xd
 1530 0103 00       		.byte	0
 1531 0104 03       		.uleb128 0x3
 1532 0105 0E       		.uleb128 0xe
 1533 0106 3A       		.uleb128 0x3a
 1534 0107 0B       		.uleb128 0xb
 1535 0108 3B       		.uleb128 0x3b
 1536 0109 05       		.uleb128 0x5
 1537 010a 49       		.uleb128 0x49
 1538 010b 13       		.uleb128 0x13
ARM GAS  /tmp/ccFwXEVl.s 			page 28


 1539 010c 00       		.byte	0
 1540 010d 00       		.byte	0
 1541 010e 17       		.uleb128 0x17
 1542 010f 01       		.uleb128 0x1
 1543 0110 01       		.byte	0x1
 1544 0111 49       		.uleb128 0x49
 1545 0112 13       		.uleb128 0x13
 1546 0113 01       		.uleb128 0x1
 1547 0114 13       		.uleb128 0x13
 1548 0115 00       		.byte	0
 1549 0116 00       		.byte	0
 1550 0117 18       		.uleb128 0x18
 1551 0118 21       		.uleb128 0x21
 1552 0119 00       		.byte	0
 1553 011a 49       		.uleb128 0x49
 1554 011b 13       		.uleb128 0x13
 1555 011c 2F       		.uleb128 0x2f
 1556 011d 0B       		.uleb128 0xb
 1557 011e 00       		.byte	0
 1558 011f 00       		.byte	0
 1559 0120 19       		.uleb128 0x19
 1560 0121 2E       		.uleb128 0x2e
 1561 0122 01       		.byte	0x1
 1562 0123 03       		.uleb128 0x3
 1563 0124 0E       		.uleb128 0xe
 1564 0125 3A       		.uleb128 0x3a
 1565 0126 0B       		.uleb128 0xb
 1566 0127 3B       		.uleb128 0x3b
 1567 0128 05       		.uleb128 0x5
 1568 0129 27       		.uleb128 0x27
 1569 012a 19       		.uleb128 0x19
 1570 012b 20       		.uleb128 0x20
 1571 012c 0B       		.uleb128 0xb
 1572 012d 01       		.uleb128 0x1
 1573 012e 13       		.uleb128 0x13
 1574 012f 00       		.byte	0
 1575 0130 00       		.byte	0
 1576 0131 1A       		.uleb128 0x1a
 1577 0132 05       		.uleb128 0x5
 1578 0133 00       		.byte	0
 1579 0134 03       		.uleb128 0x3
 1580 0135 0E       		.uleb128 0xe
 1581 0136 3A       		.uleb128 0x3a
 1582 0137 0B       		.uleb128 0xb
 1583 0138 3B       		.uleb128 0x3b
 1584 0139 05       		.uleb128 0x5
 1585 013a 49       		.uleb128 0x49
 1586 013b 13       		.uleb128 0x13
 1587 013c 00       		.byte	0
 1588 013d 00       		.byte	0
 1589 013e 1B       		.uleb128 0x1b
 1590 013f 2E       		.uleb128 0x2e
 1591 0140 00       		.byte	0
 1592 0141 03       		.uleb128 0x3
 1593 0142 0E       		.uleb128 0xe
 1594 0143 3A       		.uleb128 0x3a
 1595 0144 0B       		.uleb128 0xb
ARM GAS  /tmp/ccFwXEVl.s 			page 29


 1596 0145 3B       		.uleb128 0x3b
 1597 0146 05       		.uleb128 0x5
 1598 0147 27       		.uleb128 0x27
 1599 0148 19       		.uleb128 0x19
 1600 0149 20       		.uleb128 0x20
 1601 014a 0B       		.uleb128 0xb
 1602 014b 00       		.byte	0
 1603 014c 00       		.byte	0
 1604 014d 1C       		.uleb128 0x1c
 1605 014e 2E       		.uleb128 0x2e
 1606 014f 01       		.byte	0x1
 1607 0150 3F       		.uleb128 0x3f
 1608 0151 19       		.uleb128 0x19
 1609 0152 03       		.uleb128 0x3
 1610 0153 0E       		.uleb128 0xe
 1611 0154 3A       		.uleb128 0x3a
 1612 0155 0B       		.uleb128 0xb
 1613 0156 3B       		.uleb128 0x3b
 1614 0157 0B       		.uleb128 0xb
 1615 0158 27       		.uleb128 0x27
 1616 0159 19       		.uleb128 0x19
 1617 015a 11       		.uleb128 0x11
 1618 015b 01       		.uleb128 0x1
 1619 015c 12       		.uleb128 0x12
 1620 015d 06       		.uleb128 0x6
 1621 015e 40       		.uleb128 0x40
 1622 015f 18       		.uleb128 0x18
 1623 0160 9742     		.uleb128 0x2117
 1624 0162 19       		.uleb128 0x19
 1625 0163 01       		.uleb128 0x1
 1626 0164 13       		.uleb128 0x13
 1627 0165 00       		.byte	0
 1628 0166 00       		.byte	0
 1629 0167 1D       		.uleb128 0x1d
 1630 0168 1D       		.uleb128 0x1d
 1631 0169 01       		.byte	0x1
 1632 016a 31       		.uleb128 0x31
 1633 016b 13       		.uleb128 0x13
 1634 016c 11       		.uleb128 0x11
 1635 016d 01       		.uleb128 0x1
 1636 016e 12       		.uleb128 0x12
 1637 016f 06       		.uleb128 0x6
 1638 0170 58       		.uleb128 0x58
 1639 0171 0B       		.uleb128 0xb
 1640 0172 59       		.uleb128 0x59
 1641 0173 0B       		.uleb128 0xb
 1642 0174 01       		.uleb128 0x1
 1643 0175 13       		.uleb128 0x13
 1644 0176 00       		.byte	0
 1645 0177 00       		.byte	0
 1646 0178 1E       		.uleb128 0x1e
 1647 0179 1D       		.uleb128 0x1d
 1648 017a 01       		.byte	0x1
 1649 017b 31       		.uleb128 0x31
 1650 017c 13       		.uleb128 0x13
 1651 017d 11       		.uleb128 0x11
 1652 017e 01       		.uleb128 0x1
ARM GAS  /tmp/ccFwXEVl.s 			page 30


 1653 017f 12       		.uleb128 0x12
 1654 0180 06       		.uleb128 0x6
 1655 0181 58       		.uleb128 0x58
 1656 0182 0B       		.uleb128 0xb
 1657 0183 59       		.uleb128 0x59
 1658 0184 05       		.uleb128 0x5
 1659 0185 00       		.byte	0
 1660 0186 00       		.byte	0
 1661 0187 1F       		.uleb128 0x1f
 1662 0188 05       		.uleb128 0x5
 1663 0189 00       		.byte	0
 1664 018a 31       		.uleb128 0x31
 1665 018b 13       		.uleb128 0x13
 1666 018c 1C       		.uleb128 0x1c
 1667 018d 0B       		.uleb128 0xb
 1668 018e 00       		.byte	0
 1669 018f 00       		.byte	0
 1670 0190 20       		.uleb128 0x20
 1671 0191 898201   		.uleb128 0x4109
 1672 0194 00       		.byte	0
 1673 0195 11       		.uleb128 0x11
 1674 0196 01       		.uleb128 0x1
 1675 0197 31       		.uleb128 0x31
 1676 0198 13       		.uleb128 0x13
 1677 0199 00       		.byte	0
 1678 019a 00       		.byte	0
 1679 019b 21       		.uleb128 0x21
 1680 019c 898201   		.uleb128 0x4109
 1681 019f 00       		.byte	0
 1682 01a0 11       		.uleb128 0x11
 1683 01a1 01       		.uleb128 0x1
 1684 01a2 9542     		.uleb128 0x2115
 1685 01a4 19       		.uleb128 0x19
 1686 01a5 31       		.uleb128 0x31
 1687 01a6 13       		.uleb128 0x13
 1688 01a7 00       		.byte	0
 1689 01a8 00       		.byte	0
 1690 01a9 22       		.uleb128 0x22
 1691 01aa 898201   		.uleb128 0x4109
 1692 01ad 01       		.byte	0x1
 1693 01ae 11       		.uleb128 0x11
 1694 01af 01       		.uleb128 0x1
 1695 01b0 9542     		.uleb128 0x2115
 1696 01b2 19       		.uleb128 0x19
 1697 01b3 31       		.uleb128 0x31
 1698 01b4 13       		.uleb128 0x13
 1699 01b5 00       		.byte	0
 1700 01b6 00       		.byte	0
 1701 01b7 23       		.uleb128 0x23
 1702 01b8 8A8201   		.uleb128 0x410a
 1703 01bb 00       		.byte	0
 1704 01bc 02       		.uleb128 0x2
 1705 01bd 18       		.uleb128 0x18
 1706 01be 9142     		.uleb128 0x2111
 1707 01c0 18       		.uleb128 0x18
 1708 01c1 00       		.byte	0
 1709 01c2 00       		.byte	0
ARM GAS  /tmp/ccFwXEVl.s 			page 31


 1710 01c3 24       		.uleb128 0x24
 1711 01c4 34       		.uleb128 0x34
 1712 01c5 00       		.byte	0
 1713 01c6 03       		.uleb128 0x3
 1714 01c7 0E       		.uleb128 0xe
 1715 01c8 3A       		.uleb128 0x3a
 1716 01c9 0B       		.uleb128 0xb
 1717 01ca 3B       		.uleb128 0x3b
 1718 01cb 05       		.uleb128 0x5
 1719 01cc 49       		.uleb128 0x49
 1720 01cd 13       		.uleb128 0x13
 1721 01ce 3F       		.uleb128 0x3f
 1722 01cf 19       		.uleb128 0x19
 1723 01d0 3C       		.uleb128 0x3c
 1724 01d1 19       		.uleb128 0x19
 1725 01d2 00       		.byte	0
 1726 01d3 00       		.byte	0
 1727 01d4 25       		.uleb128 0x25
 1728 01d5 34       		.uleb128 0x34
 1729 01d6 00       		.byte	0
 1730 01d7 03       		.uleb128 0x3
 1731 01d8 08       		.uleb128 0x8
 1732 01d9 3A       		.uleb128 0x3a
 1733 01da 0B       		.uleb128 0xb
 1734 01db 3B       		.uleb128 0x3b
 1735 01dc 05       		.uleb128 0x5
 1736 01dd 49       		.uleb128 0x49
 1737 01de 13       		.uleb128 0x13
 1738 01df 3F       		.uleb128 0x3f
 1739 01e0 19       		.uleb128 0x19
 1740 01e1 3C       		.uleb128 0x3c
 1741 01e2 19       		.uleb128 0x19
 1742 01e3 00       		.byte	0
 1743 01e4 00       		.byte	0
 1744 01e5 26       		.uleb128 0x26
 1745 01e6 2E       		.uleb128 0x2e
 1746 01e7 00       		.byte	0
 1747 01e8 3F       		.uleb128 0x3f
 1748 01e9 19       		.uleb128 0x19
 1749 01ea 03       		.uleb128 0x3
 1750 01eb 0E       		.uleb128 0xe
 1751 01ec 3A       		.uleb128 0x3a
 1752 01ed 0B       		.uleb128 0xb
 1753 01ee 3B       		.uleb128 0x3b
 1754 01ef 05       		.uleb128 0x5
 1755 01f0 27       		.uleb128 0x27
 1756 01f1 19       		.uleb128 0x19
 1757 01f2 3C       		.uleb128 0x3c
 1758 01f3 19       		.uleb128 0x19
 1759 01f4 00       		.byte	0
 1760 01f5 00       		.byte	0
 1761 01f6 27       		.uleb128 0x27
 1762 01f7 2E       		.uleb128 0x2e
 1763 01f8 01       		.byte	0x1
 1764 01f9 3F       		.uleb128 0x3f
 1765 01fa 19       		.uleb128 0x19
 1766 01fb 03       		.uleb128 0x3
ARM GAS  /tmp/ccFwXEVl.s 			page 32


 1767 01fc 0E       		.uleb128 0xe
 1768 01fd 3A       		.uleb128 0x3a
 1769 01fe 0B       		.uleb128 0xb
 1770 01ff 3B       		.uleb128 0x3b
 1771 0200 0B       		.uleb128 0xb
 1772 0201 27       		.uleb128 0x27
 1773 0202 19       		.uleb128 0x19
 1774 0203 3C       		.uleb128 0x3c
 1775 0204 19       		.uleb128 0x19
 1776 0205 00       		.byte	0
 1777 0206 00       		.byte	0
 1778 0207 00       		.byte	0
 1779              		.section	.debug_aranges,"",%progbits
 1780 0000 24000000 		.4byte	0x24
 1781 0004 0200     		.2byte	0x2
 1782 0006 00000000 		.4byte	.Ldebug_info0
 1783 000a 04       		.byte	0x4
 1784 000b 00       		.byte	0
 1785 000c 0000     		.2byte	0
 1786 000e 0000     		.2byte	0
 1787 0010 00000000 		.4byte	.LFB256
 1788 0014 1A000000 		.4byte	.LFE256-.LFB256
 1789 0018 00000000 		.4byte	.LFB257
 1790 001c 1C000000 		.4byte	.LFE257-.LFB257
 1791 0020 00000000 		.4byte	0
 1792 0024 00000000 		.4byte	0
 1793              		.section	.debug_ranges,"",%progbits
 1794              	.Ldebug_ranges0:
 1795 0000 00000000 		.4byte	.LFB256
 1796 0004 1A000000 		.4byte	.LFE256
 1797 0008 00000000 		.4byte	.LFB257
 1798 000c 1C000000 		.4byte	.LFE257
 1799 0010 00000000 		.4byte	0
 1800 0014 00000000 		.4byte	0
 1801              		.section	.debug_line,"",%progbits
 1802              	.Ldebug_line0:
 1803 0000 59020000 		.section	.debug_str,"MS",%progbits,1
 1803      02001202 
 1803      00000201 
 1803      FB0E0D00 
 1803      01010101 
 1804              	.LASF53:
 1805 0000 72656164 		.ascii	"ready_list_t\000"
 1805      795F6C69 
 1805      73745F74 
 1805      00
 1806              	.LASF95:
 1807 000d 77747472 		.ascii	"wttrp\000"
 1807      7000
 1808              	.LASF92:
 1809 0013 7264796D 		.ascii	"rdymsg\000"
 1809      736700
 1810              	.LASF16:
 1811 001a 75696E74 		.ascii	"uint64_t\000"
 1811      36345F74 
 1811      00
 1812              	.LASF5:
ARM GAS  /tmp/ccFwXEVl.s 			page 33


 1813 0023 5F5F7569 		.ascii	"__uint8_t\000"
 1813      6E74385F 
 1813      7400
 1814              	.LASF89:
 1815 002d 706F7274 		.ascii	"port_intctx\000"
 1815      5F696E74 
 1815      63747800 
 1816              	.LASF78:
 1817 0039 76746C69 		.ascii	"vtlist\000"
 1817      737400
 1818              	.LASF114:
 1819 0040 63685379 		.ascii	"chSysLockFromISR\000"
 1819      734C6F63 
 1819      6B46726F 
 1819      6D495352 
 1819      00
 1820              	.LASF110:
 1821 0051 706F7274 		.ascii	"port_lock\000"
 1821      5F6C6F63 
 1821      6B00
 1822              	.LASF12:
 1823 005b 6C6F6E67 		.ascii	"long long unsigned int\000"
 1823      206C6F6E 
 1823      6720756E 
 1823      7369676E 
 1823      65642069 
 1824              	.LASF79:
 1825 0072 6D61696E 		.ascii	"mainthread\000"
 1825      74687265 
 1825      616400
 1826              	.LASF69:
 1827 007d 76697274 		.ascii	"virtual_timers_list_t\000"
 1827      75616C5F 
 1827      74696D65 
 1827      72735F6C 
 1827      6973745F 
 1828              	.LASF118:
 1829 0093 6F73616C 		.ascii	"osalSysUnlockFromISR\000"
 1829      53797355 
 1829      6E6C6F63 
 1829      6B46726F 
 1829      6D495352 
 1830              	.LASF120:
 1831 00a8 73745F6C 		.ascii	"st_lld_init\000"
 1831      6C645F69 
 1831      6E697400 
 1832              	.LASF52:
 1833 00b4 63685F74 		.ascii	"ch_threads_queue\000"
 1833      68726561 
 1833      64735F71 
 1833      75657565 
 1833      00
 1834              	.LASF30:
 1835 00c5 705F7072 		.ascii	"p_prio\000"
 1835      696F00
 1836              	.LASF10:
 1837 00cc 6C6F6E67 		.ascii	"long long int\000"
ARM GAS  /tmp/ccFwXEVl.s 			page 34


 1837      206C6F6E 
 1837      6720696E 
 1837      7400
 1838              	.LASF1:
 1839 00da 7369676E 		.ascii	"signed char\000"
 1839      65642063 
 1839      68617200 
 1840              	.LASF46:
 1841 00e6 705F6D70 		.ascii	"p_mpool\000"
 1841      6F6F6C00 
 1842              	.LASF103:
 1843 00ee 6D5F7175 		.ascii	"m_queue\000"
 1843      65756500 
 1844              	.LASF111:
 1845 00f6 706F7274 		.ascii	"port_unlock\000"
 1845      5F756E6C 
 1845      6F636B00 
 1846              	.LASF21:
 1847 0102 74736C69 		.ascii	"tslices_t\000"
 1847      6365735F 
 1847      7400
 1848              	.LASF76:
 1849 010c 63685F73 		.ascii	"ch_system\000"
 1849      79737465 
 1849      6D00
 1850              	.LASF7:
 1851 0116 6C6F6E67 		.ascii	"long int\000"
 1851      20696E74 
 1851      00
 1852              	.LASF19:
 1853 011f 74737461 		.ascii	"tstate_t\000"
 1853      74655F74 
 1853      00
 1854              	.LASF124:
 1855 0128 474E5520 		.ascii	"GNU C 4.8.4 20141219 (release) -mcpu=cortex-m4 -mfl"
 1855      4320342E 
 1855      382E3420 
 1855      32303134 
 1855      31323139 
 1856 015b 6F61742D 		.ascii	"oat-abi=hard -mfpu=fpv4-sp-d16 -mno-thumb-interwork"
 1856      6162693D 
 1856      68617264 
 1856      202D6D66 
 1856      70753D66 
 1857 018e 202D6D74 		.ascii	" -mthumb -ggdb -O2 -std=gnu99 -fomit-frame-pointer "
 1857      68756D62 
 1857      202D6767 
 1857      6462202D 
 1857      4F32202D 
 1858 01c1 2D66616C 		.ascii	"-falign-functions=16 -ffunction-sections -fdata-sec"
 1858      69676E2D 
 1858      66756E63 
 1858      74696F6E 
 1858      733D3136 
 1859 01f4 74696F6E 		.ascii	"tions -fno-common -fsingle-precision-constant\000"
 1859      73202D66 
 1859      6E6F2D63 
ARM GAS  /tmp/ccFwXEVl.s 			page 35


 1859      6F6D6D6F 
 1859      6E202D66 
 1860              	.LASF32:
 1861 0222 705F6E65 		.ascii	"p_newer\000"
 1861      77657200 
 1862              	.LASF100:
 1863 022a 735F7175 		.ascii	"s_queue\000"
 1863      65756500 
 1864              	.LASF93:
 1865 0232 65786974 		.ascii	"exitcode\000"
 1865      636F6465 
 1865      00
 1866              	.LASF58:
 1867 023b 725F6E65 		.ascii	"r_newer\000"
 1867      77657200 
 1868              	.LASF86:
 1869 0243 72656761 		.ascii	"regarm_t\000"
 1869      726D5F74 
 1869      00
 1870              	.LASF65:
 1871 024c 76745F70 		.ascii	"vt_prev\000"
 1871      72657600 
 1872              	.LASF116:
 1873 0254 6F73616C 		.ascii	"osalSysLockFromISR\000"
 1873      5379734C 
 1873      6F636B46 
 1873      726F6D49 
 1873      535200
 1874              	.LASF126:
 1875 0267 2F686F6D 		.ascii	"/home/taylor/Programming/VESC/firmware\000"
 1875      652F7461 
 1875      796C6F72 
 1875      2F50726F 
 1875      6772616D 
 1876              	.LASF107:
 1877 028e 6D757465 		.ascii	"mutex_t\000"
 1877      785F7400 
 1878              	.LASF128:
 1879 0296 76616C75 		.ascii	"value\000"
 1879      6500
 1880              	.LASF80:
 1881 029c 69646C65 		.ascii	"idle_thread_wa\000"
 1881      5F746872 
 1881      6561645F 
 1881      776100
 1882              	.LASF25:
 1883 02ab 636E745F 		.ascii	"cnt_t\000"
 1883      7400
 1884              	.LASF0:
 1885 02b1 756E7369 		.ascii	"unsigned int\000"
 1885      676E6564 
 1885      20696E74 
 1885      00
 1886              	.LASF64:
 1887 02be 76745F6E 		.ascii	"vt_next\000"
 1887      65787400 
 1888              	.LASF84:
ARM GAS  /tmp/ccFwXEVl.s 			page 36


 1889 02c6 43414C49 		.ascii	"CALIB\000"
 1889      4200
 1890              	.LASF96:
 1891 02cc 77747365 		.ascii	"wtsemp\000"
 1891      6D7000
 1892              	.LASF66:
 1893 02d3 76745F64 		.ascii	"vt_delta\000"
 1893      656C7461 
 1893      00
 1894              	.LASF72:
 1895 02dc 73797374 		.ascii	"system_debug_t\000"
 1895      656D5F64 
 1895      65627567 
 1895      5F7400
 1896              	.LASF101:
 1897 02eb 735F636E 		.ascii	"s_cnt\000"
 1897      7400
 1898              	.LASF88:
 1899 02f1 636F6E74 		.ascii	"context\000"
 1899      65787400 
 1900              	.LASF4:
 1901 02f9 73686F72 		.ascii	"short unsigned int\000"
 1901      7420756E 
 1901      7369676E 
 1901      65642069 
 1901      6E7400
 1902              	.LASF49:
 1903 030c 63685F74 		.ascii	"ch_thread\000"
 1903      68726561 
 1903      6400
 1904              	.LASF23:
 1905 0316 6D73675F 		.ascii	"msg_t\000"
 1905      7400
 1906              	.LASF45:
 1907 031c 705F7265 		.ascii	"p_realprio\000"
 1907      616C7072 
 1907      696F00
 1908              	.LASF75:
 1909 0327 63685F73 		.ascii	"ch_system_t\000"
 1909      79737465 
 1909      6D5F7400 
 1910              	.LASF85:
 1911 0333 53797354 		.ascii	"SysTick_Type\000"
 1911      69636B5F 
 1911      54797065 
 1911      00
 1912              	.LASF18:
 1913 0340 746D6F64 		.ascii	"tmode_t\000"
 1913      655F7400 
 1914              	.LASF54:
 1915 0348 63685F72 		.ascii	"ch_ready_list\000"
 1915      65616479 
 1915      5F6C6973 
 1915      7400
 1916              	.LASF24:
 1917 0356 6576656E 		.ascii	"eventmask_t\000"
 1917      746D6173 
ARM GAS  /tmp/ccFwXEVl.s 			page 37


 1917      6B5F7400 
 1918              	.LASF6:
 1919 0362 5F5F696E 		.ascii	"__int32_t\000"
 1919      7433325F 
 1919      7400
 1920              	.LASF87:
 1921 036c 73746B61 		.ascii	"stkalign_t\000"
 1921      6C69676E 
 1921      5F7400
 1922              	.LASF117:
 1923 0377 6F73616C 		.ascii	"osalOsTimerHandlerI\000"
 1923      4F735469 
 1923      6D657248 
 1923      616E646C 
 1923      65724900 
 1924              	.LASF17:
 1925 038b 7274636E 		.ascii	"rtcnt_t\000"
 1925      745F7400 
 1926              	.LASF47:
 1927 0393 74687265 		.ascii	"thread_reference_t\000"
 1927      61645F72 
 1927      65666572 
 1927      656E6365 
 1927      5F7400
 1928              	.LASF83:
 1929 03a6 4C4F4144 		.ascii	"LOAD\000"
 1929      00
 1930              	.LASF70:
 1931 03ab 63685F76 		.ascii	"ch_virtual_timers_list\000"
 1931      69727475 
 1931      616C5F74 
 1931      696D6572 
 1931      735F6C69 
 1932              	.LASF67:
 1933 03c2 76745F66 		.ascii	"vt_func\000"
 1933      756E6300 
 1934              	.LASF33:
 1935 03ca 705F6F6C 		.ascii	"p_older\000"
 1935      64657200 
 1936              	.LASF57:
 1937 03d2 725F6374 		.ascii	"r_ctx\000"
 1937      7800
 1938              	.LASF91:
 1939 03d8 746D5F63 		.ascii	"tm_calibration_t\000"
 1939      616C6962 
 1939      72617469 
 1939      6F6E5F74 
 1939      00
 1940              	.LASF60:
 1941 03e9 725F6375 		.ascii	"r_current\000"
 1941      7272656E 
 1941      7400
 1942              	.LASF59:
 1943 03f3 725F6F6C 		.ascii	"r_older\000"
 1943      64657200 
 1944              	.LASF11:
 1945 03fb 5F5F7569 		.ascii	"__uint64_t\000"
ARM GAS  /tmp/ccFwXEVl.s 			page 38


 1945      6E743634 
 1945      5F7400
 1946              	.LASF108:
 1947 0406 666C6F61 		.ascii	"float\000"
 1947      7400
 1948              	.LASF20:
 1949 040c 74726566 		.ascii	"trefs_t\000"
 1949      735F7400 
 1950              	.LASF62:
 1951 0414 76697274 		.ascii	"virtual_timer_t\000"
 1951      75616C5F 
 1951      74696D65 
 1951      725F7400 
 1952              	.LASF29:
 1953 0424 705F7072 		.ascii	"p_prev\000"
 1953      657600
 1954              	.LASF22:
 1955 042b 74707269 		.ascii	"tprio_t\000"
 1955      6F5F7400 
 1956              	.LASF115:
 1957 0433 63685379 		.ascii	"chSysUnlockFromISR\000"
 1957      73556E6C 
 1957      6F636B46 
 1957      726F6D49 
 1957      535200
 1958              	.LASF73:
 1959 0446 63685F73 		.ascii	"ch_system_debug\000"
 1959      79737465 
 1959      6D5F6465 
 1959      62756700 
 1960              	.LASF109:
 1961 0456 5F426F6F 		.ascii	"_Bool\000"
 1961      6C00
 1962              	.LASF14:
 1963 045c 696E7433 		.ascii	"int32_t\000"
 1963      325F7400 
 1964              	.LASF2:
 1965 0464 756E7369 		.ascii	"unsigned char\000"
 1965      676E6564 
 1965      20636861 
 1965      7200
 1966              	.LASF121:
 1967 0472 49544D5F 		.ascii	"ITM_RxBuffer\000"
 1967      52784275 
 1967      66666572 
 1967      00
 1968              	.LASF125:
 1969 047f 43686962 		.ascii	"ChibiOS_3.0.2/os/hal/ports/STM32/LLD/TIMv1/st_lld.c"
 1969      694F535F 
 1969      332E302E 
 1969      322F6F73 
 1969      2F68616C 
 1970 04b2 00       		.ascii	"\000"
 1971              	.LASF3:
 1972 04b3 73686F72 		.ascii	"short int\000"
 1972      7420696E 
 1972      7400
ARM GAS  /tmp/ccFwXEVl.s 			page 39


 1973              	.LASF35:
 1974 04bd 705F7374 		.ascii	"p_state\000"
 1974      61746500 
 1975              	.LASF38:
 1976 04c5 705F7072 		.ascii	"p_preempt\000"
 1976      65656D70 
 1976      7400
 1977              	.LASF129:
 1978 04cf 6E766963 		.ascii	"nvicSetSystemHandlerPriority\000"
 1978      53657453 
 1978      79737465 
 1978      6D48616E 
 1978      646C6572 
 1979              	.LASF56:
 1980 04ec 725F7072 		.ascii	"r_prio\000"
 1980      696F00
 1981              	.LASF94:
 1982 04f3 77746F62 		.ascii	"wtobjp\000"
 1982      6A7000
 1983              	.LASF98:
 1984 04fa 65776D61 		.ascii	"ewmask\000"
 1984      736B00
 1985              	.LASF28:
 1986 0501 705F6E65 		.ascii	"p_next\000"
 1986      787400
 1987              	.LASF36:
 1988 0508 705F666C 		.ascii	"p_flags\000"
 1988      61677300 
 1989              	.LASF63:
 1990 0510 63685F76 		.ascii	"ch_virtual_timer\000"
 1990      69727475 
 1990      616C5F74 
 1990      696D6572 
 1990      00
 1991              	.LASF99:
 1992 0521 63685F73 		.ascii	"ch_semaphore\000"
 1992      656D6170 
 1992      686F7265 
 1992      00
 1993              	.LASF43:
 1994 052e 705F6570 		.ascii	"p_epending\000"
 1994      656E6469 
 1994      6E6700
 1995              	.LASF15:
 1996 0539 75696E74 		.ascii	"uint32_t\000"
 1996      33325F74 
 1996      00
 1997              	.LASF97:
 1998 0542 77746D74 		.ascii	"wtmtxp\000"
 1998      787000
 1999              	.LASF55:
 2000 0549 725F7175 		.ascii	"r_queue\000"
 2000      65756500 
 2001              	.LASF71:
 2002 0551 76745F73 		.ascii	"vt_systime\000"
 2002      79737469 
 2002      6D6500
ARM GAS  /tmp/ccFwXEVl.s 			page 40


 2003              	.LASF50:
 2004 055c 63685F74 		.ascii	"ch_threads_list\000"
 2004      68726561 
 2004      64735F6C 
 2004      69737400 
 2005              	.LASF9:
 2006 056c 6C6F6E67 		.ascii	"long unsigned int\000"
 2006      20756E73 
 2006      69676E65 
 2006      6420696E 
 2006      7400
 2007              	.LASF106:
 2008 057e 63686172 		.ascii	"char\000"
 2008      00
 2009              	.LASF113:
 2010 0583 706F7274 		.ascii	"port_unlock_from_isr\000"
 2010      5F756E6C 
 2010      6F636B5F 
 2010      66726F6D 
 2010      5F697372 
 2011              	.LASF27:
 2012 0598 74687265 		.ascii	"thread_t\000"
 2012      61645F74 
 2012      00
 2013              	.LASF105:
 2014 05a1 6D5F6E65 		.ascii	"m_next\000"
 2014      787400
 2015              	.LASF26:
 2016 05a8 73797374 		.ascii	"systime_t\000"
 2016      696D655F 
 2016      7400
 2017              	.LASF122:
 2018 05b2 63685379 		.ascii	"chSysTimerHandlerI\000"
 2018      7354696D 
 2018      65724861 
 2018      6E646C65 
 2018      724900
 2019              	.LASF61:
 2020 05c5 76746675 		.ascii	"vtfunc_t\000"
 2020      6E635F74 
 2020      00
 2021              	.LASF8:
 2022 05ce 5F5F7569 		.ascii	"__uint32_t\000"
 2022      6E743332 
 2022      5F7400
 2023              	.LASF127:
 2024 05d9 5F5F7365 		.ascii	"__set_BASEPRI\000"
 2024      745F4241 
 2024      53455052 
 2024      4900
 2025              	.LASF74:
 2026 05e7 70616E69 		.ascii	"panic_msg\000"
 2026      635F6D73 
 2026      6700
 2027              	.LASF90:
 2028 05f1 6F666673 		.ascii	"offset\000"
 2028      657400
ARM GAS  /tmp/ccFwXEVl.s 			page 41


 2029              	.LASF39:
 2030 05f8 705F7469 		.ascii	"p_time\000"
 2030      6D6500
 2031              	.LASF119:
 2032 05ff 53797354 		.ascii	"SysTick_Handler\000"
 2032      69636B5F 
 2032      48616E64 
 2032      6C657200 
 2033              	.LASF112:
 2034 060f 706F7274 		.ascii	"port_lock_from_isr\000"
 2034      5F6C6F63 
 2034      6B5F6672 
 2034      6F6D5F69 
 2034      737200
 2035              	.LASF41:
 2036 0622 705F6D73 		.ascii	"p_msgqueue\000"
 2036      67717565 
 2036      756500
 2037              	.LASF82:
 2038 062d 4354524C 		.ascii	"CTRL\000"
 2038      00
 2039              	.LASF68:
 2040 0632 76745F70 		.ascii	"vt_par\000"
 2040      617200
 2041              	.LASF51:
 2042 0639 74687265 		.ascii	"threads_queue_t\000"
 2042      6164735F 
 2042      71756575 
 2042      655F7400 
 2043              	.LASF37:
 2044 0649 705F7265 		.ascii	"p_refs\000"
 2044      667300
 2045              	.LASF123:
 2046 0650 5F706F72 		.ascii	"_port_irq_epilogue\000"
 2046      745F6972 
 2046      715F6570 
 2046      696C6F67 
 2046      756500
 2047              	.LASF77:
 2048 0663 726C6973 		.ascii	"rlist\000"
 2048      7400
 2049              	.LASF13:
 2050 0669 75696E74 		.ascii	"uint8_t\000"
 2050      385F7400 
 2051              	.LASF81:
 2052 0671 73697A65 		.ascii	"sizetype\000"
 2052      74797065 
 2052      00
 2053              	.LASF102:
 2054 067a 63685F6D 		.ascii	"ch_mutex\000"
 2054      75746578 
 2054      00
 2055              	.LASF34:
 2056 0683 705F6E61 		.ascii	"p_name\000"
 2056      6D6500
 2057              	.LASF48:
 2058 068a 74687265 		.ascii	"threads_list_t\000"
ARM GAS  /tmp/ccFwXEVl.s 			page 42


 2058      6164735F 
 2058      6C697374 
 2058      5F7400
 2059              	.LASF42:
 2060 0699 705F6D73 		.ascii	"p_msg\000"
 2060      6700
 2061              	.LASF104:
 2062 069f 6D5F6F77 		.ascii	"m_owner\000"
 2062      6E657200 
 2063              	.LASF31:
 2064 06a7 705F6374 		.ascii	"p_ctx\000"
 2064      7800
 2065              	.LASF40:
 2066 06ad 705F7761 		.ascii	"p_waiting\000"
 2066      6974696E 
 2066      6700
 2067              	.LASF44:
 2068 06b7 705F6D74 		.ascii	"p_mtxlist\000"
 2068      786C6973 
 2068      7400
 2069              		.ident	"GCC: (4.8.4-1+11-1) 4.8.4 20141219 (release)"
ARM GAS  /tmp/ccFwXEVl.s 			page 43


DEFINED SYMBOLS
                            *ABS*:0000000000000000 st_lld.c
     /tmp/ccFwXEVl.s:21     .text.SysTick_Handler:0000000000000000 $t
     /tmp/ccFwXEVl.s:27     .text.SysTick_Handler:0000000000000000 SysTick_Handler
     /tmp/ccFwXEVl.s:93     .text.st_lld_init:0000000000000000 $t
     /tmp/ccFwXEVl.s:99     .text.st_lld_init:0000000000000000 st_lld_init
     /tmp/ccFwXEVl.s:128    .text.st_lld_init:0000000000000018 $d
                     .debug_frame:0000000000000010 $d
     /tmp/ccFwXEVl.s:132    .text.st_lld_init:000000000000001c $t

UNDEFINED SYMBOLS
chSysTimerHandlerI
_port_irq_epilogue
nvicSetSystemHandlerPriority
