ARM GAS  /tmp/cchgQdZS.s 			page 1


   1              		.syntax unified
   2              		.cpu cortex-m4
   3              		.eabi_attribute 27, 3
   4              		.eabi_attribute 28, 1
   5              		.fpu fpv4-sp-d16
   6              		.eabi_attribute 20, 1
   7              		.eabi_attribute 21, 1
   8              		.eabi_attribute 23, 3
   9              		.eabi_attribute 24, 1
  10              		.eabi_attribute 25, 1
  11              		.eabi_attribute 26, 1
  12              		.eabi_attribute 30, 2
  13              		.eabi_attribute 34, 1
  14              		.eabi_attribute 18, 4
  15              		.thumb
  16              		.file	"stm32f4xx_tim.c"
  17              		.text
  18              	.Ltext0:
  19              		.cfi_sections	.debug_frame
  20              		.section	.text.TIM_DeInit,"ax",%progbits
  21              		.align	2
  22              		.p2align 4,,15
  23              		.global	TIM_DeInit
  24              		.thumb
  25              		.thumb_func
  26              		.type	TIM_DeInit, %function
  27              	TIM_DeInit:
  28              	.LFB112:
  29              		.file 1 "ChibiOS_3.0.2/ext/stdperiph_stm32f4/src/stm32f4xx_tim.c"
  30              		.loc 1 205 0
  31              		.cfi_startproc
  32              		@ args = 0, pretend = 0, frame = 0
  33              		@ frame_needed = 0, uses_anonymous_args = 0
  34              	.LVL0:
  35 0000 08B5     		push	{r3, lr}
  36              		.cfi_def_cfa_offset 8
  37              		.cfi_offset 3, -8
  38              		.cfi_offset 14, -4
  39              		.loc 1 209 0
  40 0002 604B     		ldr	r3, .L31
  41 0004 9842     		cmp	r0, r3
  42 0006 35D0     		beq	.L17
  43              		.loc 1 214 0
  44 0008 B0F1804F 		cmp	r0, #1073741824
  45 000c 3CD0     		beq	.L18
  46              		.loc 1 219 0
  47 000e 5E4B     		ldr	r3, .L31+4
  48 0010 9842     		cmp	r0, r3
  49 0012 43D0     		beq	.L19
  50              		.loc 1 224 0
  51 0014 5D4B     		ldr	r3, .L31+8
  52 0016 9842     		cmp	r0, r3
  53 0018 4AD0     		beq	.L20
  54              		.loc 1 229 0
  55 001a 5D4B     		ldr	r3, .L31+12
  56 001c 9842     		cmp	r0, r3
  57 001e 51D0     		beq	.L21
ARM GAS  /tmp/cchgQdZS.s 			page 2


  58              		.loc 1 234 0
  59 0020 5C4B     		ldr	r3, .L31+16
  60 0022 9842     		cmp	r0, r3
  61 0024 58D0     		beq	.L22
  62              		.loc 1 239 0
  63 0026 5C4B     		ldr	r3, .L31+20
  64 0028 9842     		cmp	r0, r3
  65 002a 5FD0     		beq	.L23
  66              		.loc 1 244 0
  67 002c 5B4B     		ldr	r3, .L31+24
  68 002e 9842     		cmp	r0, r3
  69 0030 66D0     		beq	.L24
  70              		.loc 1 249 0
  71 0032 5B4B     		ldr	r3, .L31+28
  72 0034 9842     		cmp	r0, r3
  73 0036 6DD0     		beq	.L25
  74              		.loc 1 254 0
  75 0038 5A4B     		ldr	r3, .L31+32
  76 003a 9842     		cmp	r0, r3
  77 003c 76D0     		beq	.L26
  78              		.loc 1 259 0
  79 003e 5A4B     		ldr	r3, .L31+36
  80 0040 9842     		cmp	r0, r3
  81 0042 7FD0     		beq	.L27
  82              		.loc 1 264 0
  83 0044 594B     		ldr	r3, .L31+40
  84 0046 9842     		cmp	r0, r3
  85 0048 00F08880 		beq	.L28
  86              		.loc 1 269 0
  87 004c 584B     		ldr	r3, .L31+44
  88 004e 9842     		cmp	r0, r3
  89 0050 00F08E80 		beq	.L29
  90              		.loc 1 276 0
  91 0054 574B     		ldr	r3, .L31+48
  92 0056 9842     		cmp	r0, r3
  93 0058 00D0     		beq	.L30
  94 005a 08BD     		pop	{r3, pc}
  95              	.L30:
  96              		.loc 1 278 0
  97 005c 4FF48070 		mov	r0, #256
  98              	.LVL1:
  99 0060 0121     		movs	r1, #1
 100 0062 FFF7FEFF 		bl	RCC_APB1PeriphResetCmd
 101              	.LVL2:
 102              		.loc 1 279 0
 103 0066 4FF48070 		mov	r0, #256
 104 006a 0021     		movs	r1, #0
 105              		.loc 1 282 0
 106 006c BDE80840 		pop	{r3, lr}
 107              		.loc 1 279 0
 108 0070 FFF7FEBF 		b	RCC_APB1PeriphResetCmd
 109              	.LVL3:
 110              	.L17:
 111              		.loc 1 211 0
 112 0074 0120     		movs	r0, #1
 113              	.LVL4:
 114 0076 0146     		mov	r1, r0
ARM GAS  /tmp/cchgQdZS.s 			page 3


 115 0078 FFF7FEFF 		bl	RCC_APB2PeriphResetCmd
 116              	.LVL5:
 117              		.loc 1 212 0
 118 007c 0120     		movs	r0, #1
 119 007e 0021     		movs	r1, #0
 120              		.loc 1 282 0
 121 0080 BDE80840 		pop	{r3, lr}
 122              		.loc 1 212 0
 123 0084 FFF7FEBF 		b	RCC_APB2PeriphResetCmd
 124              	.LVL6:
 125              	.L18:
 126              		.loc 1 216 0
 127 0088 0120     		movs	r0, #1
 128              	.LVL7:
 129 008a 0146     		mov	r1, r0
 130 008c FFF7FEFF 		bl	RCC_APB1PeriphResetCmd
 131              	.LVL8:
 132              		.loc 1 217 0
 133 0090 0120     		movs	r0, #1
 134 0092 0021     		movs	r1, #0
 135              		.loc 1 282 0
 136 0094 BDE80840 		pop	{r3, lr}
 137              		.loc 1 217 0
 138 0098 FFF7FEBF 		b	RCC_APB1PeriphResetCmd
 139              	.LVL9:
 140              	.L19:
 141              		.loc 1 221 0
 142 009c 0220     		movs	r0, #2
 143              	.LVL10:
 144 009e 0121     		movs	r1, #1
 145 00a0 FFF7FEFF 		bl	RCC_APB1PeriphResetCmd
 146              	.LVL11:
 147              		.loc 1 222 0
 148 00a4 0220     		movs	r0, #2
 149 00a6 0021     		movs	r1, #0
 150              		.loc 1 282 0
 151 00a8 BDE80840 		pop	{r3, lr}
 152              		.loc 1 222 0
 153 00ac FFF7FEBF 		b	RCC_APB1PeriphResetCmd
 154              	.LVL12:
 155              	.L20:
 156              		.loc 1 226 0
 157 00b0 0420     		movs	r0, #4
 158              	.LVL13:
 159 00b2 0121     		movs	r1, #1
 160 00b4 FFF7FEFF 		bl	RCC_APB1PeriphResetCmd
 161              	.LVL14:
 162              		.loc 1 227 0
 163 00b8 0420     		movs	r0, #4
 164 00ba 0021     		movs	r1, #0
 165              		.loc 1 282 0
 166 00bc BDE80840 		pop	{r3, lr}
 167              		.loc 1 227 0
 168 00c0 FFF7FEBF 		b	RCC_APB1PeriphResetCmd
 169              	.LVL15:
 170              	.L21:
 171              		.loc 1 231 0
ARM GAS  /tmp/cchgQdZS.s 			page 4


 172 00c4 0820     		movs	r0, #8
 173              	.LVL16:
 174 00c6 0121     		movs	r1, #1
 175 00c8 FFF7FEFF 		bl	RCC_APB1PeriphResetCmd
 176              	.LVL17:
 177              		.loc 1 232 0
 178 00cc 0820     		movs	r0, #8
 179 00ce 0021     		movs	r1, #0
 180              		.loc 1 282 0
 181 00d0 BDE80840 		pop	{r3, lr}
 182              		.loc 1 232 0
 183 00d4 FFF7FEBF 		b	RCC_APB1PeriphResetCmd
 184              	.LVL18:
 185              	.L22:
 186              		.loc 1 236 0
 187 00d8 1020     		movs	r0, #16
 188              	.LVL19:
 189 00da 0121     		movs	r1, #1
 190 00dc FFF7FEFF 		bl	RCC_APB1PeriphResetCmd
 191              	.LVL20:
 192              		.loc 1 237 0
 193 00e0 1020     		movs	r0, #16
 194 00e2 0021     		movs	r1, #0
 195              		.loc 1 282 0
 196 00e4 BDE80840 		pop	{r3, lr}
 197              		.loc 1 237 0
 198 00e8 FFF7FEBF 		b	RCC_APB1PeriphResetCmd
 199              	.LVL21:
 200              	.L23:
 201              		.loc 1 241 0
 202 00ec 2020     		movs	r0, #32
 203              	.LVL22:
 204 00ee 0121     		movs	r1, #1
 205 00f0 FFF7FEFF 		bl	RCC_APB1PeriphResetCmd
 206              	.LVL23:
 207              		.loc 1 242 0
 208 00f4 2020     		movs	r0, #32
 209 00f6 0021     		movs	r1, #0
 210              		.loc 1 282 0
 211 00f8 BDE80840 		pop	{r3, lr}
 212              		.loc 1 242 0
 213 00fc FFF7FEBF 		b	RCC_APB1PeriphResetCmd
 214              	.LVL24:
 215              	.L24:
 216              		.loc 1 246 0
 217 0100 0220     		movs	r0, #2
 218              	.LVL25:
 219 0102 0121     		movs	r1, #1
 220 0104 FFF7FEFF 		bl	RCC_APB2PeriphResetCmd
 221              	.LVL26:
 222              		.loc 1 247 0
 223 0108 0220     		movs	r0, #2
 224 010a 0021     		movs	r1, #0
 225              		.loc 1 282 0
 226 010c BDE80840 		pop	{r3, lr}
 227              		.loc 1 247 0
 228 0110 FFF7FEBF 		b	RCC_APB2PeriphResetCmd
ARM GAS  /tmp/cchgQdZS.s 			page 5


 229              	.LVL27:
 230              	.L25:
 231              		.loc 1 251 0
 232 0114 4FF48030 		mov	r0, #65536
 233              	.LVL28:
 234 0118 0121     		movs	r1, #1
 235 011a FFF7FEFF 		bl	RCC_APB2PeriphResetCmd
 236              	.LVL29:
 237              		.loc 1 252 0
 238 011e 4FF48030 		mov	r0, #65536
 239 0122 0021     		movs	r1, #0
 240              		.loc 1 282 0
 241 0124 BDE80840 		pop	{r3, lr}
 242              		.loc 1 252 0
 243 0128 FFF7FEBF 		b	RCC_APB2PeriphResetCmd
 244              	.LVL30:
 245              	.L26:
 246              		.loc 1 256 0
 247 012c 4FF40030 		mov	r0, #131072
 248              	.LVL31:
 249 0130 0121     		movs	r1, #1
 250 0132 FFF7FEFF 		bl	RCC_APB2PeriphResetCmd
 251              	.LVL32:
 252              		.loc 1 257 0
 253 0136 4FF40030 		mov	r0, #131072
 254 013a 0021     		movs	r1, #0
 255              		.loc 1 282 0
 256 013c BDE80840 		pop	{r3, lr}
 257              		.loc 1 257 0
 258 0140 FFF7FEBF 		b	RCC_APB2PeriphResetCmd
 259              	.LVL33:
 260              	.L27:
 261              		.loc 1 261 0
 262 0144 4FF48020 		mov	r0, #262144
 263              	.LVL34:
 264 0148 0121     		movs	r1, #1
 265 014a FFF7FEFF 		bl	RCC_APB2PeriphResetCmd
 266              	.LVL35:
 267              		.loc 1 262 0
 268 014e 4FF48020 		mov	r0, #262144
 269 0152 0021     		movs	r1, #0
 270              		.loc 1 282 0
 271 0154 BDE80840 		pop	{r3, lr}
 272              		.loc 1 262 0
 273 0158 FFF7FEBF 		b	RCC_APB2PeriphResetCmd
 274              	.LVL36:
 275              	.L28:
 276              		.loc 1 266 0
 277 015c 4020     		movs	r0, #64
 278              	.LVL37:
 279 015e 0121     		movs	r1, #1
 280 0160 FFF7FEFF 		bl	RCC_APB1PeriphResetCmd
 281              	.LVL38:
 282              		.loc 1 267 0
 283 0164 4020     		movs	r0, #64
 284 0166 0021     		movs	r1, #0
 285              		.loc 1 282 0
ARM GAS  /tmp/cchgQdZS.s 			page 6


 286 0168 BDE80840 		pop	{r3, lr}
 287              		.loc 1 267 0
 288 016c FFF7FEBF 		b	RCC_APB1PeriphResetCmd
 289              	.LVL39:
 290              	.L29:
 291              		.loc 1 271 0
 292 0170 8020     		movs	r0, #128
 293              	.LVL40:
 294 0172 0121     		movs	r1, #1
 295 0174 FFF7FEFF 		bl	RCC_APB1PeriphResetCmd
 296              	.LVL41:
 297              		.loc 1 272 0
 298 0178 8020     		movs	r0, #128
 299 017a 0021     		movs	r1, #0
 300              		.loc 1 282 0
 301 017c BDE80840 		pop	{r3, lr}
 302              		.loc 1 272 0
 303 0180 FFF7FEBF 		b	RCC_APB1PeriphResetCmd
 304              	.LVL42:
 305              	.L32:
 306              		.align	2
 307              	.L31:
 308 0184 00000140 		.word	1073807360
 309 0188 00040040 		.word	1073742848
 310 018c 00080040 		.word	1073743872
 311 0190 000C0040 		.word	1073744896
 312 0194 00100040 		.word	1073745920
 313 0198 00140040 		.word	1073746944
 314 019c 00040140 		.word	1073808384
 315 01a0 00400140 		.word	1073823744
 316 01a4 00440140 		.word	1073824768
 317 01a8 00480140 		.word	1073825792
 318 01ac 00180040 		.word	1073747968
 319 01b0 001C0040 		.word	1073748992
 320 01b4 00200040 		.word	1073750016
 321              		.cfi_endproc
 322              	.LFE112:
 323              		.size	TIM_DeInit, .-TIM_DeInit
 324 01b8 AFF30080 		.section	.text.TIM_TimeBaseInit,"ax",%progbits
 324      AFF30080 
 325              		.align	2
 326              		.p2align 4,,15
 327              		.global	TIM_TimeBaseInit
 328              		.thumb
 329              		.thumb_func
 330              		.type	TIM_TimeBaseInit, %function
 331              	TIM_TimeBaseInit:
 332              	.LFB113:
 333              		.loc 1 293 0
 334              		.cfi_startproc
 335              		@ args = 0, pretend = 0, frame = 0
 336              		@ frame_needed = 0, uses_anonymous_args = 0
 337              		@ link register save eliminated.
 338              	.LVL43:
 339              		.loc 1 303 0
 340 0000 234A     		ldr	r2, .L45
 341              		.loc 1 301 0
ARM GAS  /tmp/cchgQdZS.s 			page 7


 342 0002 0368     		ldr	r3, [r0]
 343              		.loc 1 303 0
 344 0004 9042     		cmp	r0, r2
 345              		.loc 1 293 0
 346 0006 70B4     		push	{r4, r5, r6}
 347              		.cfi_def_cfa_offset 12
 348              		.cfi_offset 4, -12
 349              		.cfi_offset 5, -8
 350              		.cfi_offset 6, -4
 351              		.loc 1 301 0
 352 0008 9BB2     		uxth	r3, r3
 353              	.LVL44:
 354              		.loc 1 303 0
 355 000a 12D0     		beq	.L34
 356              		.loc 1 303 0 is_stmt 0 discriminator 1
 357 000c 02F58062 		add	r2, r2, #1024
 358 0010 9042     		cmp	r0, r2
 359 0012 0ED0     		beq	.L34
 360 0014 B0F1804F 		cmp	r0, #1073741824
 361 0018 0BD0     		beq	.L34
 362              		.loc 1 304 0 is_stmt 1
 363 001a A2F58032 		sub	r2, r2, #65536
 364 001e 9042     		cmp	r0, r2
 365 0020 07D0     		beq	.L34
 366              		.loc 1 304 0 is_stmt 0 discriminator 1
 367 0022 02F58062 		add	r2, r2, #1024
 368 0026 9042     		cmp	r0, r2
 369 0028 03D0     		beq	.L34
 370              		.loc 1 305 0 is_stmt 1
 371 002a 02F58062 		add	r2, r2, #1024
 372 002e 9042     		cmp	r0, r2
 373 0030 03D1     		bne	.L35
 374              	.L34:
 375              		.loc 1 309 0
 376 0032 4A88     		ldrh	r2, [r1, #2]
 377              		.loc 1 308 0
 378 0034 23F07003 		bic	r3, r3, #112
 379              	.LVL45:
 380              		.loc 1 309 0
 381 0038 1343     		orrs	r3, r3, r2
 382              	.LVL46:
 383              	.L35:
 384              		.loc 1 312 0
 385 003a 164A     		ldr	r2, .L45+4
 386 003c 9042     		cmp	r0, r2
 387 003e 1ED0     		beq	.L37
 388              		.loc 1 312 0 is_stmt 0 discriminator 1
 389 0040 02F58062 		add	r2, r2, #1024
 390 0044 9042     		cmp	r0, r2
 391 0046 1AD0     		beq	.L37
 392              		.loc 1 316 0 is_stmt 1
 393 0048 0E89     		ldrh	r6, [r1, #8]
 394              		.loc 1 322 0
 395 004a 4D68     		ldr	r5, [r1, #4]
 396              		.loc 1 325 0
 397 004c 0C88     		ldrh	r4, [r1]
 398              		.loc 1 315 0
ARM GAS  /tmp/cchgQdZS.s 			page 8


 399 004e 23F44073 		bic	r3, r3, #768
 400              	.LVL47:
 401              		.loc 1 327 0
 402 0052 02F56C42 		add	r2, r2, #60416
 403              		.loc 1 315 0
 404 0056 9BB2     		uxth	r3, r3
 405              	.LVL48:
 406              		.loc 1 319 0
 407 0058 3343     		orrs	r3, r3, r6
 408              	.LVL49:
 409              		.loc 1 327 0
 410 005a 9042     		cmp	r0, r2
 411              		.loc 1 319 0
 412 005c 0360     		str	r3, [r0]
 413              		.loc 1 322 0
 414 005e C562     		str	r5, [r0, #44]
 415              		.loc 1 325 0
 416 0060 8462     		str	r4, [r0, #40]
 417              		.loc 1 327 0
 418 0062 06D0     		beq	.L40
 419              		.loc 1 327 0 is_stmt 0 discriminator 1
 420 0064 0C4B     		ldr	r3, .L45+8
 421 0066 9842     		cmp	r0, r3
 422 0068 03D0     		beq	.L40
 423              		.loc 1 335 0 is_stmt 1
 424 006a 0123     		movs	r3, #1
 425 006c 4361     		str	r3, [r0, #20]
 426              		.loc 1 336 0
 427 006e 70BC     		pop	{r4, r5, r6}
 428 0070 7047     		bx	lr
 429              	.L40:
 430              		.loc 1 330 0
 431 0072 8B7A     		ldrb	r3, [r1, #10]	@ zero_extendqisi2
 432 0074 0363     		str	r3, [r0, #48]
 433              		.loc 1 335 0
 434 0076 0123     		movs	r3, #1
 435 0078 4361     		str	r3, [r0, #20]
 436              		.loc 1 336 0
 437 007a 70BC     		pop	{r4, r5, r6}
 438 007c 7047     		bx	lr
 439              	.LVL50:
 440              	.L37:
 441              		.loc 1 319 0
 442 007e 0360     		str	r3, [r0]
 443              		.loc 1 322 0
 444 0080 4A68     		ldr	r2, [r1, #4]
 445              		.loc 1 325 0
 446 0082 0B88     		ldrh	r3, [r1]
 447              	.LVL51:
 448              		.loc 1 322 0
 449 0084 C262     		str	r2, [r0, #44]
 450              	.LVL52:
 451              		.loc 1 325 0
 452 0086 8362     		str	r3, [r0, #40]
 453              		.loc 1 335 0
 454 0088 0123     		movs	r3, #1
 455 008a 4361     		str	r3, [r0, #20]
ARM GAS  /tmp/cchgQdZS.s 			page 9


 456              		.loc 1 336 0
 457 008c 70BC     		pop	{r4, r5, r6}
 458 008e 7047     		bx	lr
 459              	.L46:
 460              		.align	2
 461              	.L45:
 462 0090 00000140 		.word	1073807360
 463 0094 00100040 		.word	1073745920
 464 0098 00040140 		.word	1073808384
 465              		.cfi_endproc
 466              	.LFE113:
 467              		.size	TIM_TimeBaseInit, .-TIM_TimeBaseInit
 468 009c AFF30080 		.section	.text.TIM_TimeBaseStructInit,"ax",%progbits
 469              		.align	2
 470              		.p2align 4,,15
 471              		.global	TIM_TimeBaseStructInit
 472              		.thumb
 473              		.thumb_func
 474              		.type	TIM_TimeBaseStructInit, %function
 475              	TIM_TimeBaseStructInit:
 476              	.LFB114:
 477              		.loc 1 345 0
 478              		.cfi_startproc
 479              		@ args = 0, pretend = 0, frame = 0
 480              		@ frame_needed = 0, uses_anonymous_args = 0
 481              		@ link register save eliminated.
 482              	.LVL53:
 483              		.loc 1 348 0
 484 0000 0023     		movs	r3, #0
 485              		.loc 1 347 0
 486 0002 4FF0FF32 		mov	r2, #-1
 487 0006 4260     		str	r2, [r0, #4]
 488              		.loc 1 348 0
 489 0008 0380     		strh	r3, [r0]	@ movhi
 490              		.loc 1 349 0
 491 000a 0381     		strh	r3, [r0, #8]	@ movhi
 492              		.loc 1 350 0
 493 000c 4380     		strh	r3, [r0, #2]	@ movhi
 494              		.loc 1 351 0
 495 000e 8372     		strb	r3, [r0, #10]
 496 0010 7047     		bx	lr
 497              		.cfi_endproc
 498              	.LFE114:
 499              		.size	TIM_TimeBaseStructInit, .-TIM_TimeBaseStructInit
 500 0012 00BFAFF3 		.section	.text.TIM_PrescalerConfig,"ax",%progbits
 500      0080AFF3 
 500      0080AFF3 
 500      0080
 501              		.align	2
 502              		.p2align 4,,15
 503              		.global	TIM_PrescalerConfig
 504              		.thumb
 505              		.thumb_func
 506              		.type	TIM_PrescalerConfig, %function
 507              	TIM_PrescalerConfig:
 508              	.LFB115:
 509              		.loc 1 365 0
ARM GAS  /tmp/cchgQdZS.s 			page 10


 510              		.cfi_startproc
 511              		@ args = 0, pretend = 0, frame = 0
 512              		@ frame_needed = 0, uses_anonymous_args = 0
 513              		@ link register save eliminated.
 514              	.LVL54:
 515              		.loc 1 370 0
 516 0000 8162     		str	r1, [r0, #40]
 517              		.loc 1 372 0
 518 0002 4261     		str	r2, [r0, #20]
 519 0004 7047     		bx	lr
 520              		.cfi_endproc
 521              	.LFE115:
 522              		.size	TIM_PrescalerConfig, .-TIM_PrescalerConfig
 523 0006 00BFAFF3 		.section	.text.TIM_CounterModeConfig,"ax",%progbits
 523      0080AFF3 
 523      0080
 524              		.align	2
 525              		.p2align 4,,15
 526              		.global	TIM_CounterModeConfig
 527              		.thumb
 528              		.thumb_func
 529              		.type	TIM_CounterModeConfig, %function
 530              	TIM_CounterModeConfig:
 531              	.LFB116:
 532              		.loc 1 388 0
 533              		.cfi_startproc
 534              		@ args = 0, pretend = 0, frame = 0
 535              		@ frame_needed = 0, uses_anonymous_args = 0
 536              		@ link register save eliminated.
 537              	.LVL55:
 538              		.loc 1 395 0
 539 0000 0268     		ldr	r2, [r0]
 540              	.LVL56:
 541              		.loc 1 398 0
 542 0002 4FF68F73 		movw	r3, #65423
 543 0006 1340     		ands	r3, r3, r2
 544              	.LVL57:
 545              		.loc 1 404 0
 546 0008 1943     		orrs	r1, r1, r3
 547              	.LVL58:
 548 000a 0160     		str	r1, [r0]
 549 000c 7047     		bx	lr
 550              		.cfi_endproc
 551              	.LFE116:
 552              		.size	TIM_CounterModeConfig, .-TIM_CounterModeConfig
 553 000e 00BF     		.section	.text.TIM_SetCounter,"ax",%progbits
 554              		.align	2
 555              		.p2align 4,,15
 556              		.global	TIM_SetCounter
 557              		.thumb
 558              		.thumb_func
 559              		.type	TIM_SetCounter, %function
 560              	TIM_SetCounter:
 561              	.LFB117:
 562              		.loc 1 414 0
 563              		.cfi_startproc
 564              		@ args = 0, pretend = 0, frame = 0
ARM GAS  /tmp/cchgQdZS.s 			page 11


 565              		@ frame_needed = 0, uses_anonymous_args = 0
 566              		@ link register save eliminated.
 567              	.LVL59:
 568              		.loc 1 419 0
 569 0000 4162     		str	r1, [r0, #36]
 570 0002 7047     		bx	lr
 571              		.cfi_endproc
 572              	.LFE117:
 573              		.size	TIM_SetCounter, .-TIM_SetCounter
 574 0004 AFF30080 		.section	.text.TIM_SetAutoreload,"ax",%progbits
 574      AFF30080 
 574      AFF30080 
 575              		.align	2
 576              		.p2align 4,,15
 577              		.global	TIM_SetAutoreload
 578              		.thumb
 579              		.thumb_func
 580              		.type	TIM_SetAutoreload, %function
 581              	TIM_SetAutoreload:
 582              	.LFB118:
 583              		.loc 1 429 0
 584              		.cfi_startproc
 585              		@ args = 0, pretend = 0, frame = 0
 586              		@ frame_needed = 0, uses_anonymous_args = 0
 587              		@ link register save eliminated.
 588              	.LVL60:
 589              		.loc 1 434 0
 590 0000 C162     		str	r1, [r0, #44]
 591 0002 7047     		bx	lr
 592              		.cfi_endproc
 593              	.LFE118:
 594              		.size	TIM_SetAutoreload, .-TIM_SetAutoreload
 595 0004 AFF30080 		.section	.text.TIM_GetCounter,"ax",%progbits
 595      AFF30080 
 595      AFF30080 
 596              		.align	2
 597              		.p2align 4,,15
 598              		.global	TIM_GetCounter
 599              		.thumb
 600              		.thumb_func
 601              		.type	TIM_GetCounter, %function
 602              	TIM_GetCounter:
 603              	.LFB119:
 604              		.loc 1 443 0
 605              		.cfi_startproc
 606              		@ args = 0, pretend = 0, frame = 0
 607              		@ frame_needed = 0, uses_anonymous_args = 0
 608              		@ link register save eliminated.
 609              	.LVL61:
 610              		.loc 1 448 0
 611 0000 406A     		ldr	r0, [r0, #36]
 612              	.LVL62:
 613              		.loc 1 449 0
 614 0002 7047     		bx	lr
 615              		.cfi_endproc
 616              	.LFE119:
 617              		.size	TIM_GetCounter, .-TIM_GetCounter
ARM GAS  /tmp/cchgQdZS.s 			page 12


 618 0004 AFF30080 		.section	.text.TIM_GetPrescaler,"ax",%progbits
 618      AFF30080 
 618      AFF30080 
 619              		.align	2
 620              		.p2align 4,,15
 621              		.global	TIM_GetPrescaler
 622              		.thumb
 623              		.thumb_func
 624              		.type	TIM_GetPrescaler, %function
 625              	TIM_GetPrescaler:
 626              	.LFB120:
 627              		.loc 1 457 0
 628              		.cfi_startproc
 629              		@ args = 0, pretend = 0, frame = 0
 630              		@ frame_needed = 0, uses_anonymous_args = 0
 631              		@ link register save eliminated.
 632              	.LVL63:
 633              		.loc 1 462 0
 634 0000 806A     		ldr	r0, [r0, #40]
 635              	.LVL64:
 636              		.loc 1 463 0
 637 0002 80B2     		uxth	r0, r0
 638 0004 7047     		bx	lr
 639              		.cfi_endproc
 640              	.LFE120:
 641              		.size	TIM_GetPrescaler, .-TIM_GetPrescaler
 642 0006 00BFAFF3 		.section	.text.TIM_UpdateDisableConfig,"ax",%progbits
 642      0080AFF3 
 642      0080
 643              		.align	2
 644              		.p2align 4,,15
 645              		.global	TIM_UpdateDisableConfig
 646              		.thumb
 647              		.thumb_func
 648              		.type	TIM_UpdateDisableConfig, %function
 649              	TIM_UpdateDisableConfig:
 650              	.LFB121:
 651              		.loc 1 473 0
 652              		.cfi_startproc
 653              		@ args = 0, pretend = 0, frame = 0
 654              		@ frame_needed = 0, uses_anonymous_args = 0
 655              		@ link register save eliminated.
 656              	.LVL65:
 657              		.loc 1 478 0
 658 0000 29B9     		cbnz	r1, .L57
 659              		.loc 1 486 0
 660 0002 0268     		ldr	r2, [r0]
 661 0004 4FF6FD73 		movw	r3, #65533
 662 0008 1340     		ands	r3, r3, r2
 663 000a 0360     		str	r3, [r0]
 664 000c 7047     		bx	lr
 665              	.L57:
 666              		.loc 1 481 0
 667 000e 0368     		ldr	r3, [r0]
 668 0010 43F00203 		orr	r3, r3, #2
 669 0014 0360     		str	r3, [r0]
 670 0016 7047     		bx	lr
ARM GAS  /tmp/cchgQdZS.s 			page 13


 671              		.cfi_endproc
 672              	.LFE121:
 673              		.size	TIM_UpdateDisableConfig, .-TIM_UpdateDisableConfig
 674 0018 AFF30080 		.section	.text.TIM_UpdateRequestConfig,"ax",%progbits
 674      AFF30080 
 675              		.align	2
 676              		.p2align 4,,15
 677              		.global	TIM_UpdateRequestConfig
 678              		.thumb
 679              		.thumb_func
 680              		.type	TIM_UpdateRequestConfig, %function
 681              	TIM_UpdateRequestConfig:
 682              	.LFB122:
 683              		.loc 1 502 0
 684              		.cfi_startproc
 685              		@ args = 0, pretend = 0, frame = 0
 686              		@ frame_needed = 0, uses_anonymous_args = 0
 687              		@ link register save eliminated.
 688              	.LVL66:
 689              		.loc 1 507 0
 690 0000 29B9     		cbnz	r1, .L61
 691              		.loc 1 515 0
 692 0002 0268     		ldr	r2, [r0]
 693 0004 4FF6FB73 		movw	r3, #65531
 694 0008 1340     		ands	r3, r3, r2
 695 000a 0360     		str	r3, [r0]
 696 000c 7047     		bx	lr
 697              	.L61:
 698              		.loc 1 510 0
 699 000e 0368     		ldr	r3, [r0]
 700 0010 43F00403 		orr	r3, r3, #4
 701 0014 0360     		str	r3, [r0]
 702 0016 7047     		bx	lr
 703              		.cfi_endproc
 704              	.LFE122:
 705              		.size	TIM_UpdateRequestConfig, .-TIM_UpdateRequestConfig
 706 0018 AFF30080 		.section	.text.TIM_ARRPreloadConfig,"ax",%progbits
 706      AFF30080 
 707              		.align	2
 708              		.p2align 4,,15
 709              		.global	TIM_ARRPreloadConfig
 710              		.thumb
 711              		.thumb_func
 712              		.type	TIM_ARRPreloadConfig, %function
 713              	TIM_ARRPreloadConfig:
 714              	.LFB123:
 715              		.loc 1 527 0
 716              		.cfi_startproc
 717              		@ args = 0, pretend = 0, frame = 0
 718              		@ frame_needed = 0, uses_anonymous_args = 0
 719              		@ link register save eliminated.
 720              	.LVL67:
 721              		.loc 1 532 0
 722 0000 29B9     		cbnz	r1, .L65
 723              		.loc 1 540 0
 724 0002 0268     		ldr	r2, [r0]
 725 0004 4FF67F73 		movw	r3, #65407
ARM GAS  /tmp/cchgQdZS.s 			page 14


 726 0008 1340     		ands	r3, r3, r2
 727 000a 0360     		str	r3, [r0]
 728 000c 7047     		bx	lr
 729              	.L65:
 730              		.loc 1 535 0
 731 000e 0368     		ldr	r3, [r0]
 732 0010 43F08003 		orr	r3, r3, #128
 733 0014 0360     		str	r3, [r0]
 734 0016 7047     		bx	lr
 735              		.cfi_endproc
 736              	.LFE123:
 737              		.size	TIM_ARRPreloadConfig, .-TIM_ARRPreloadConfig
 738 0018 AFF30080 		.section	.text.TIM_SelectOnePulseMode,"ax",%progbits
 738      AFF30080 
 739              		.align	2
 740              		.p2align 4,,15
 741              		.global	TIM_SelectOnePulseMode
 742              		.thumb
 743              		.thumb_func
 744              		.type	TIM_SelectOnePulseMode, %function
 745              	TIM_SelectOnePulseMode:
 746              	.LFB124:
 747              		.loc 1 554 0
 748              		.cfi_startproc
 749              		@ args = 0, pretend = 0, frame = 0
 750              		@ frame_needed = 0, uses_anonymous_args = 0
 751              		@ link register save eliminated.
 752              	.LVL68:
 753              		.loc 1 560 0
 754 0000 0268     		ldr	r2, [r0]
 755 0002 4FF6F773 		movw	r3, #65527
 756 0006 1340     		ands	r3, r3, r2
 757 0008 0360     		str	r3, [r0]
 758              		.loc 1 563 0
 759 000a 0368     		ldr	r3, [r0]
 760 000c 1943     		orrs	r1, r1, r3
 761              	.LVL69:
 762 000e 0160     		str	r1, [r0]
 763 0010 7047     		bx	lr
 764              		.cfi_endproc
 765              	.LFE124:
 766              		.size	TIM_SelectOnePulseMode, .-TIM_SelectOnePulseMode
 767 0012 00BFAFF3 		.section	.text.TIM_SetClockDivision,"ax",%progbits
 767      0080AFF3 
 767      0080AFF3 
 767      0080
 768              		.align	2
 769              		.p2align 4,,15
 770              		.global	TIM_SetClockDivision
 771              		.thumb
 772              		.thumb_func
 773              		.type	TIM_SetClockDivision, %function
 774              	TIM_SetClockDivision:
 775              	.LFB125:
 776              		.loc 1 577 0
 777              		.cfi_startproc
 778              		@ args = 0, pretend = 0, frame = 0
ARM GAS  /tmp/cchgQdZS.s 			page 15


 779              		@ frame_needed = 0, uses_anonymous_args = 0
 780              		@ link register save eliminated.
 781              	.LVL70:
 782              		.loc 1 583 0
 783 0000 0268     		ldr	r2, [r0]
 784 0002 4FF6FF43 		movw	r3, #64767
 785 0006 1340     		ands	r3, r3, r2
 786 0008 0360     		str	r3, [r0]
 787              		.loc 1 586 0
 788 000a 0368     		ldr	r3, [r0]
 789 000c 1943     		orrs	r1, r1, r3
 790              	.LVL71:
 791 000e 0160     		str	r1, [r0]
 792 0010 7047     		bx	lr
 793              		.cfi_endproc
 794              	.LFE125:
 795              		.size	TIM_SetClockDivision, .-TIM_SetClockDivision
 796 0012 00BFAFF3 		.section	.text.TIM_Cmd,"ax",%progbits
 796      0080AFF3 
 796      0080AFF3 
 796      0080
 797              		.align	2
 798              		.p2align 4,,15
 799              		.global	TIM_Cmd
 800              		.thumb
 801              		.thumb_func
 802              		.type	TIM_Cmd, %function
 803              	TIM_Cmd:
 804              	.LFB126:
 805              		.loc 1 597 0
 806              		.cfi_startproc
 807              		@ args = 0, pretend = 0, frame = 0
 808              		@ frame_needed = 0, uses_anonymous_args = 0
 809              		@ link register save eliminated.
 810              	.LVL72:
 811              		.loc 1 602 0
 812 0000 29B9     		cbnz	r1, .L71
 813              		.loc 1 610 0
 814 0002 0268     		ldr	r2, [r0]
 815 0004 4FF6FE73 		movw	r3, #65534
 816 0008 1340     		ands	r3, r3, r2
 817 000a 0360     		str	r3, [r0]
 818 000c 7047     		bx	lr
 819              	.L71:
 820              		.loc 1 605 0
 821 000e 0368     		ldr	r3, [r0]
 822 0010 43F00103 		orr	r3, r3, #1
 823 0014 0360     		str	r3, [r0]
 824 0016 7047     		bx	lr
 825              		.cfi_endproc
 826              	.LFE126:
 827              		.size	TIM_Cmd, .-TIM_Cmd
 828 0018 AFF30080 		.section	.text.TIM_OC1Init,"ax",%progbits
 828      AFF30080 
 829              		.align	2
 830              		.p2align 4,,15
 831              		.global	TIM_OC1Init
ARM GAS  /tmp/cchgQdZS.s 			page 16


 832              		.thumb
 833              		.thumb_func
 834              		.type	TIM_OC1Init, %function
 835              	TIM_OC1Init:
 836              	.LFB127:
 837              		.loc 1 678 0
 838              		.cfi_startproc
 839              		@ args = 0, pretend = 0, frame = 0
 840              		@ frame_needed = 0, uses_anonymous_args = 0
 841              		@ link register save eliminated.
 842              	.LVL73:
 843              		.loc 1 688 0
 844 0000 026A     		ldr	r2, [r0, #32]
 845              		.loc 1 707 0
 846 0002 8B89     		ldrh	r3, [r1, #12]
 847              		.loc 1 678 0
 848 0004 2DE9F001 		push	{r4, r5, r6, r7, r8}
 849              		.cfi_def_cfa_offset 20
 850              		.cfi_offset 4, -20
 851              		.cfi_offset 5, -16
 852              		.cfi_offset 6, -12
 853              		.cfi_offset 7, -8
 854              		.cfi_offset 8, -4
 855              		.loc 1 688 0
 856 0008 4FF6FE74 		movw	r4, #65534
 857 000c 1440     		ands	r4, r4, r2
 858              		.loc 1 707 0
 859 000e 4F88     		ldrh	r7, [r1, #2]
 860              		.loc 1 702 0
 861 0010 0E88     		ldrh	r6, [r1]
 862              		.loc 1 688 0
 863 0012 0462     		str	r4, [r0, #32]
 864              		.loc 1 691 0
 865 0014 D0F82080 		ldr	r8, [r0, #32]
 866              	.LVL74:
 867              		.loc 1 712 0
 868 0018 194D     		ldr	r5, .L75
 869              		.loc 1 693 0
 870 001a 4468     		ldr	r4, [r0, #4]
 871              		.loc 1 696 0
 872 001c D0F818C0 		ldr	ip, [r0, #24]
 873              		.loc 1 707 0
 874 0020 1F43     		orrs	r7, r7, r3
 875              		.loc 1 705 0
 876 0022 4FF6FD72 		movw	r2, #65533
 877              		.loc 1 700 0
 878 0026 4FF68C73 		movw	r3, #65420
 879              		.loc 1 705 0
 880 002a 08EA0202 		and	r2, r8, r2
 881              		.loc 1 707 0
 882 002e BFB2     		uxth	r7, r7
 883              		.loc 1 700 0
 884 0030 0CEA0303 		and	r3, ip, r3
 885              		.loc 1 712 0
 886 0034 A842     		cmp	r0, r5
 887              		.loc 1 710 0
 888 0036 47EA0202 		orr	r2, r7, r2
ARM GAS  /tmp/cchgQdZS.s 			page 17


 889              		.loc 1 693 0
 890 003a A4B2     		uxth	r4, r4
 891              	.LVL75:
 892              		.loc 1 702 0
 893 003c 43EA0603 		orr	r3, r3, r6
 894              	.LVL76:
 895              		.loc 1 712 0
 896 0040 0BD0     		beq	.L73
 897              		.loc 1 712 0 is_stmt 0 discriminator 1
 898 0042 05F58065 		add	r5, r5, #1024
 899 0046 A842     		cmp	r0, r5
 900 0048 07D0     		beq	.L73
 901              	.LVL77:
 902              	.L74:
 903              		.loc 1 743 0 is_stmt 1
 904 004a 8968     		ldr	r1, [r1, #8]
 905              	.LVL78:
 906              		.loc 1 737 0
 907 004c 4460     		str	r4, [r0, #4]
 908              		.loc 1 740 0
 909 004e 8361     		str	r3, [r0, #24]
 910              		.loc 1 747 0
 911 0050 BDE8F001 		pop	{r4, r5, r6, r7, r8}
 912              	.LVL79:
 913              		.loc 1 743 0
 914 0054 4163     		str	r1, [r0, #52]
 915              		.loc 1 746 0
 916 0056 0262     		str	r2, [r0, #32]
 917              		.loc 1 747 0
 918 0058 7047     		bx	lr
 919              	.LVL80:
 920              	.L73:
 921              		.loc 1 722 0
 922 005a B1F80EC0 		ldrh	ip, [r1, #14]
 923              		.loc 1 732 0
 924 005e 4F8A     		ldrh	r7, [r1, #18]
 925 0060 0D8A     		ldrh	r5, [r1, #16]
 926              		.loc 1 727 0
 927 0062 8E88     		ldrh	r6, [r1, #4]
 928              		.loc 1 720 0
 929 0064 22F00802 		bic	r2, r2, #8
 930              	.LVL81:
 931              		.loc 1 722 0
 932 0068 42EA0C02 		orr	r2, r2, ip
 933              	.LVL82:
 934              		.loc 1 732 0
 935 006c 3D43     		orrs	r5, r5, r7
 936              		.loc 1 730 0
 937 006e 24F44074 		bic	r4, r4, #768
 938              	.LVL83:
 939              		.loc 1 724 0
 940 0072 22F00402 		bic	r2, r2, #4
 941              	.LVL84:
 942              		.loc 1 732 0
 943 0076 ADB2     		uxth	r5, r5
 944              		.loc 1 727 0
 945 0078 3243     		orrs	r2, r2, r6
ARM GAS  /tmp/cchgQdZS.s 			page 18


 946              	.LVL85:
 947              		.loc 1 734 0
 948 007a 2C43     		orrs	r4, r4, r5
 949              	.LVL86:
 950 007c E5E7     		b	.L74
 951              	.L76:
 952 007e 00BF     		.align	2
 953              	.L75:
 954 0080 00000140 		.word	1073807360
 955              		.cfi_endproc
 956              	.LFE127:
 957              		.size	TIM_OC1Init, .-TIM_OC1Init
 958 0084 AFF30080 		.section	.text.TIM_OC2Init,"ax",%progbits
 958      AFF30080 
 958      AFF30080 
 959              		.align	2
 960              		.p2align 4,,15
 961              		.global	TIM_OC2Init
 962              		.thumb
 963              		.thumb_func
 964              		.type	TIM_OC2Init, %function
 965              	TIM_OC2Init:
 966              	.LFB128:
 967              		.loc 1 759 0
 968              		.cfi_startproc
 969              		@ args = 0, pretend = 0, frame = 0
 970              		@ frame_needed = 0, uses_anonymous_args = 0
 971              		@ link register save eliminated.
 972              	.LVL87:
 973              		.loc 1 769 0
 974 0000 036A     		ldr	r3, [r0, #32]
 975              		.loc 1 759 0
 976 0002 2DE9F003 		push	{r4, r5, r6, r7, r8, r9}
 977              		.cfi_def_cfa_offset 24
 978              		.cfi_offset 4, -24
 979              		.cfi_offset 5, -20
 980              		.cfi_offset 6, -16
 981              		.cfi_offset 7, -12
 982              		.cfi_offset 8, -8
 983              		.cfi_offset 9, -4
 984              		.loc 1 769 0
 985 0006 4FF6EF74 		movw	r4, #65519
 986 000a 1C40     		ands	r4, r4, r3
 987              		.loc 1 789 0
 988 000c 8E89     		ldrh	r6, [r1, #12]
 989              		.loc 1 792 0
 990 000e B1F80290 		ldrh	r9, [r1, #2]
 991              		.loc 1 784 0
 992 0012 0F88     		ldrh	r7, [r1]
 993              		.loc 1 769 0
 994 0014 0462     		str	r4, [r0, #32]
 995              		.loc 1 772 0
 996 0016 D0F820C0 		ldr	ip, [r0, #32]
 997              	.LVL88:
 998              		.loc 1 774 0
 999 001a 4468     		ldr	r4, [r0, #4]
 1000              		.loc 1 777 0
ARM GAS  /tmp/cchgQdZS.s 			page 19


 1001 001c D0F81880 		ldr	r8, [r0, #24]
 1002              		.loc 1 794 0
 1003 0020 1B4D     		ldr	r5, .L80
 1004              		.loc 1 789 0
 1005 0022 3601     		lsls	r6, r6, #4
 1006              		.loc 1 781 0
 1007 0024 48F6FF42 		movw	r2, #36095
 1008              		.loc 1 787 0
 1009 0028 4FF6DF73 		movw	r3, #65503
 1010              		.loc 1 789 0
 1011 002c 46EA0916 		orr	r6, r6, r9, lsl #4
 1012              		.loc 1 781 0
 1013 0030 08EA0202 		and	r2, r8, r2
 1014              		.loc 1 787 0
 1015 0034 0CEA0303 		and	r3, ip, r3
 1016              		.loc 1 789 0
 1017 0038 B6B2     		uxth	r6, r6
 1018              		.loc 1 784 0
 1019 003a 42EA0722 		orr	r2, r2, r7, lsl #8
 1020              		.loc 1 794 0
 1021 003e A842     		cmp	r0, r5
 1022              		.loc 1 792 0
 1023 0040 46EA0303 		orr	r3, r6, r3
 1024              		.loc 1 774 0
 1025 0044 A4B2     		uxth	r4, r4
 1026              	.LVL89:
 1027              		.loc 1 784 0
 1028 0046 92B2     		uxth	r2, r2
 1029              	.LVL90:
 1030              		.loc 1 794 0
 1031 0048 0BD0     		beq	.L78
 1032              		.loc 1 794 0 is_stmt 0 discriminator 1
 1033 004a 05F58065 		add	r5, r5, #1024
 1034 004e A842     		cmp	r0, r5
 1035 0050 07D0     		beq	.L78
 1036              	.LVL91:
 1037              	.L79:
 1038              		.loc 1 825 0 is_stmt 1
 1039 0052 8968     		ldr	r1, [r1, #8]
 1040              	.LVL92:
 1041              		.loc 1 819 0
 1042 0054 4460     		str	r4, [r0, #4]
 1043              		.loc 1 822 0
 1044 0056 8261     		str	r2, [r0, #24]
 1045              		.loc 1 829 0
 1046 0058 BDE8F003 		pop	{r4, r5, r6, r7, r8, r9}
 1047              	.LVL93:
 1048              		.loc 1 825 0
 1049 005c 8163     		str	r1, [r0, #56]
 1050              		.loc 1 828 0
 1051 005e 0362     		str	r3, [r0, #32]
 1052              		.loc 1 829 0
 1053 0060 7047     		bx	lr
 1054              	.LVL94:
 1055              	.L78:
 1056              		.loc 1 804 0
 1057 0062 CD89     		ldrh	r5, [r1, #14]
ARM GAS  /tmp/cchgQdZS.s 			page 20


 1058              		.loc 1 814 0
 1059 0064 0E8A     		ldrh	r6, [r1, #16]
 1060              		.loc 1 816 0
 1061 0066 B1F812C0 		ldrh	ip, [r1, #18]
 1062              		.loc 1 809 0
 1063 006a 8F88     		ldrh	r7, [r1, #4]
 1064              		.loc 1 802 0
 1065 006c 23F08003 		bic	r3, r3, #128
 1066              	.LVL95:
 1067              		.loc 1 804 0
 1068 0070 43EA0513 		orr	r3, r3, r5, lsl #4
 1069              	.LVL96:
 1070              		.loc 1 814 0
 1071 0074 B600     		lsls	r6, r6, #2
 1072              		.loc 1 806 0
 1073 0076 4FF6BF75 		movw	r5, #65471
 1074 007a 1D40     		ands	r5, r5, r3
 1075              	.LVL97:
 1076              		.loc 1 814 0
 1077 007c 46EA8C06 		orr	r6, r6, ip, lsl #2
 1078              		.loc 1 812 0
 1079 0080 24F44064 		bic	r4, r4, #3072
 1080              	.LVL98:
 1081              		.loc 1 809 0
 1082 0084 45EA0713 		orr	r3, r5, r7, lsl #4
 1083              		.loc 1 814 0
 1084 0088 B6B2     		uxth	r6, r6
 1085              		.loc 1 809 0
 1086 008a 9BB2     		uxth	r3, r3
 1087              	.LVL99:
 1088              		.loc 1 816 0
 1089 008c 3443     		orrs	r4, r4, r6
 1090              	.LVL100:
 1091 008e E0E7     		b	.L79
 1092              	.L81:
 1093              		.align	2
 1094              	.L80:
 1095 0090 00000140 		.word	1073807360
 1096              		.cfi_endproc
 1097              	.LFE128:
 1098              		.size	TIM_OC2Init, .-TIM_OC2Init
 1099 0094 AFF30080 		.section	.text.TIM_OC3Init,"ax",%progbits
 1099      AFF30080 
 1099      AFF30080 
 1100              		.align	2
 1101              		.p2align 4,,15
 1102              		.global	TIM_OC3Init
 1103              		.thumb
 1104              		.thumb_func
 1105              		.type	TIM_OC3Init, %function
 1106              	TIM_OC3Init:
 1107              	.LFB129:
 1108              		.loc 1 840 0
 1109              		.cfi_startproc
 1110              		@ args = 0, pretend = 0, frame = 0
 1111              		@ frame_needed = 0, uses_anonymous_args = 0
 1112              		@ link register save eliminated.
ARM GAS  /tmp/cchgQdZS.s 			page 21


 1113              	.LVL101:
 1114              		.loc 1 850 0
 1115 0000 026A     		ldr	r2, [r0, #32]
 1116              		.loc 1 872 0
 1117 0002 4B88     		ldrh	r3, [r1, #2]
 1118              		.loc 1 840 0
 1119 0004 2DE9F001 		push	{r4, r5, r6, r7, r8}
 1120              		.cfi_def_cfa_offset 20
 1121              		.cfi_offset 4, -20
 1122              		.cfi_offset 5, -16
 1123              		.cfi_offset 6, -12
 1124              		.cfi_offset 7, -8
 1125              		.cfi_offset 8, -4
 1126              		.loc 1 850 0
 1127 0008 4FF6FF64 		movw	r4, #65279
 1128 000c 1440     		ands	r4, r4, r2
 1129              		.loc 1 869 0
 1130 000e 8F89     		ldrh	r7, [r1, #12]
 1131              		.loc 1 864 0
 1132 0010 0E88     		ldrh	r6, [r1]
 1133              		.loc 1 850 0
 1134 0012 0462     		str	r4, [r0, #32]
 1135              		.loc 1 853 0
 1136 0014 D0F82080 		ldr	r8, [r0, #32]
 1137              	.LVL102:
 1138              		.loc 1 874 0
 1139 0018 1C4D     		ldr	r5, .L85
 1140              		.loc 1 855 0
 1141 001a 4468     		ldr	r4, [r0, #4]
 1142              		.loc 1 858 0
 1143 001c D0F81CC0 		ldr	ip, [r0, #28]
 1144              		.loc 1 869 0
 1145 0020 3F02     		lsls	r7, r7, #8
 1146 0022 47EA0327 		orr	r7, r7, r3, lsl #8
 1147              		.loc 1 867 0
 1148 0026 4FF6FF52 		movw	r2, #65023
 1149              		.loc 1 862 0
 1150 002a 4FF68C73 		movw	r3, #65420
 1151              		.loc 1 867 0
 1152 002e 08EA0202 		and	r2, r8, r2
 1153              		.loc 1 869 0
 1154 0032 BFB2     		uxth	r7, r7
 1155              		.loc 1 862 0
 1156 0034 0CEA0303 		and	r3, ip, r3
 1157              		.loc 1 874 0
 1158 0038 A842     		cmp	r0, r5
 1159              		.loc 1 872 0
 1160 003a 47EA0202 		orr	r2, r7, r2
 1161              		.loc 1 855 0
 1162 003e A4B2     		uxth	r4, r4
 1163              	.LVL103:
 1164              		.loc 1 864 0
 1165 0040 43EA0603 		orr	r3, r3, r6
 1166              	.LVL104:
 1167              		.loc 1 874 0
 1168 0044 0BD0     		beq	.L83
 1169              		.loc 1 874 0 is_stmt 0 discriminator 1
ARM GAS  /tmp/cchgQdZS.s 			page 22


 1170 0046 05F58065 		add	r5, r5, #1024
 1171 004a A842     		cmp	r0, r5
 1172 004c 07D0     		beq	.L83
 1173              	.LVL105:
 1174              	.L84:
 1175              		.loc 1 905 0 is_stmt 1
 1176 004e 8968     		ldr	r1, [r1, #8]
 1177              	.LVL106:
 1178              		.loc 1 899 0
 1179 0050 4460     		str	r4, [r0, #4]
 1180              		.loc 1 902 0
 1181 0052 C361     		str	r3, [r0, #28]
 1182              		.loc 1 909 0
 1183 0054 BDE8F001 		pop	{r4, r5, r6, r7, r8}
 1184              	.LVL107:
 1185              		.loc 1 905 0
 1186 0058 C163     		str	r1, [r0, #60]
 1187              		.loc 1 908 0
 1188 005a 0262     		str	r2, [r0, #32]
 1189              		.loc 1 909 0
 1190 005c 7047     		bx	lr
 1191              	.LVL108:
 1192              	.L83:
 1193              		.loc 1 884 0
 1194 005e CD89     		ldrh	r5, [r1, #14]
 1195              		.loc 1 894 0
 1196 0060 0E8A     		ldrh	r6, [r1, #16]
 1197              		.loc 1 896 0
 1198 0062 B1F812C0 		ldrh	ip, [r1, #18]
 1199              		.loc 1 889 0
 1200 0066 8F88     		ldrh	r7, [r1, #4]
 1201              		.loc 1 882 0
 1202 0068 22F40062 		bic	r2, r2, #2048
 1203              	.LVL109:
 1204              		.loc 1 884 0
 1205 006c 42EA0522 		orr	r2, r2, r5, lsl #8
 1206              	.LVL110:
 1207              		.loc 1 894 0
 1208 0070 3601     		lsls	r6, r6, #4
 1209              		.loc 1 886 0
 1210 0072 4FF6FF35 		movw	r5, #64511
 1211 0076 1540     		ands	r5, r5, r2
 1212              	.LVL111:
 1213              		.loc 1 894 0
 1214 0078 46EA0C16 		orr	r6, r6, ip, lsl #4
 1215              		.loc 1 892 0
 1216 007c 24F44054 		bic	r4, r4, #12288
 1217              	.LVL112:
 1218              		.loc 1 889 0
 1219 0080 45EA0722 		orr	r2, r5, r7, lsl #8
 1220              		.loc 1 894 0
 1221 0084 B6B2     		uxth	r6, r6
 1222              		.loc 1 889 0
 1223 0086 92B2     		uxth	r2, r2
 1224              	.LVL113:
 1225              		.loc 1 896 0
 1226 0088 3443     		orrs	r4, r4, r6
ARM GAS  /tmp/cchgQdZS.s 			page 23


 1227              	.LVL114:
 1228 008a E0E7     		b	.L84
 1229              	.L86:
 1230              		.align	2
 1231              	.L85:
 1232 008c 00000140 		.word	1073807360
 1233              		.cfi_endproc
 1234              	.LFE129:
 1235              		.size	TIM_OC3Init, .-TIM_OC3Init
 1236              		.section	.text.TIM_OC4Init,"ax",%progbits
 1237              		.align	2
 1238              		.p2align 4,,15
 1239              		.global	TIM_OC4Init
 1240              		.thumb
 1241              		.thumb_func
 1242              		.type	TIM_OC4Init, %function
 1243              	TIM_OC4Init:
 1244              	.LFB130:
 1245              		.loc 1 920 0
 1246              		.cfi_startproc
 1247              		@ args = 0, pretend = 0, frame = 0
 1248              		@ frame_needed = 0, uses_anonymous_args = 0
 1249              		@ link register save eliminated.
 1250              	.LVL115:
 1251              		.loc 1 930 0
 1252 0000 036A     		ldr	r3, [r0, #32]
 1253              		.loc 1 920 0
 1254 0002 2DE9F003 		push	{r4, r5, r6, r7, r8, r9}
 1255              		.cfi_def_cfa_offset 24
 1256              		.cfi_offset 4, -24
 1257              		.cfi_offset 5, -20
 1258              		.cfi_offset 6, -16
 1259              		.cfi_offset 7, -12
 1260              		.cfi_offset 8, -8
 1261              		.cfi_offset 9, -4
 1262              		.loc 1 930 0
 1263 0006 4EF6FF74 		movw	r4, #61439
 1264 000a 1C40     		ands	r4, r4, r3
 1265              		.loc 1 950 0
 1266 000c 8E89     		ldrh	r6, [r1, #12]
 1267              		.loc 1 953 0
 1268 000e B1F80290 		ldrh	r9, [r1, #2]
 1269              		.loc 1 945 0
 1270 0012 0F88     		ldrh	r7, [r1]
 1271              		.loc 1 930 0
 1272 0014 0462     		str	r4, [r0, #32]
 1273              		.loc 1 933 0
 1274 0016 D0F820C0 		ldr	ip, [r0, #32]
 1275              	.LVL116:
 1276              		.loc 1 935 0
 1277 001a 4468     		ldr	r4, [r0, #4]
 1278              		.loc 1 938 0
 1279 001c D0F81C80 		ldr	r8, [r0, #28]
 1280              		.loc 1 955 0
 1281 0020 134D     		ldr	r5, .L90
 1282              		.loc 1 950 0
 1283 0022 3603     		lsls	r6, r6, #12
ARM GAS  /tmp/cchgQdZS.s 			page 24


 1284              		.loc 1 942 0
 1285 0024 48F6FF42 		movw	r2, #36095
 1286              		.loc 1 948 0
 1287 0028 4DF6FF73 		movw	r3, #57343
 1288              		.loc 1 950 0
 1289 002c 46EA0936 		orr	r6, r6, r9, lsl #12
 1290              		.loc 1 942 0
 1291 0030 08EA0202 		and	r2, r8, r2
 1292              		.loc 1 948 0
 1293 0034 0CEA0303 		and	r3, ip, r3
 1294              		.loc 1 950 0
 1295 0038 B6B2     		uxth	r6, r6
 1296              		.loc 1 945 0
 1297 003a 42EA0722 		orr	r2, r2, r7, lsl #8
 1298              		.loc 1 955 0
 1299 003e A842     		cmp	r0, r5
 1300              		.loc 1 953 0
 1301 0040 46EA0303 		orr	r3, r6, r3
 1302              		.loc 1 935 0
 1303 0044 A4B2     		uxth	r4, r4
 1304              	.LVL117:
 1305              		.loc 1 945 0
 1306 0046 92B2     		uxth	r2, r2
 1307              	.LVL118:
 1308              		.loc 1 955 0
 1309 0048 0BD0     		beq	.L88
 1310              		.loc 1 955 0 is_stmt 0 discriminator 1
 1311 004a 05F58065 		add	r5, r5, #1024
 1312 004e A842     		cmp	r0, r5
 1313 0050 07D0     		beq	.L88
 1314              	.LVL119:
 1315              	.L89:
 1316              		.loc 1 970 0 is_stmt 1
 1317 0052 8968     		ldr	r1, [r1, #8]
 1318              	.LVL120:
 1319              		.loc 1 964 0
 1320 0054 4460     		str	r4, [r0, #4]
 1321              		.loc 1 967 0
 1322 0056 C261     		str	r2, [r0, #28]
 1323              		.loc 1 974 0
 1324 0058 BDE8F003 		pop	{r4, r5, r6, r7, r8, r9}
 1325              	.LVL121:
 1326              		.loc 1 970 0
 1327 005c 0164     		str	r1, [r0, #64]
 1328              		.loc 1 973 0
 1329 005e 0362     		str	r3, [r0, #32]
 1330              		.loc 1 974 0
 1331 0060 7047     		bx	lr
 1332              	.LVL122:
 1333              	.L88:
 1334              		.loc 1 961 0
 1335 0062 0D8A     		ldrh	r5, [r1, #16]
 1336              		.loc 1 959 0
 1337 0064 24F48044 		bic	r4, r4, #16384
 1338              	.LVL123:
 1339              		.loc 1 961 0
 1340 0068 44EA8514 		orr	r4, r4, r5, lsl #6
ARM GAS  /tmp/cchgQdZS.s 			page 25


 1341              	.LVL124:
 1342 006c A4B2     		uxth	r4, r4
 1343              	.LVL125:
 1344 006e F0E7     		b	.L89
 1345              	.L91:
 1346              		.align	2
 1347              	.L90:
 1348 0070 00000140 		.word	1073807360
 1349              		.cfi_endproc
 1350              	.LFE130:
 1351              		.size	TIM_OC4Init, .-TIM_OC4Init
 1352 0074 AFF30080 		.section	.text.TIM_OCStructInit,"ax",%progbits
 1352      AFF30080 
 1352      AFF30080 
 1353              		.align	2
 1354              		.p2align 4,,15
 1355              		.global	TIM_OCStructInit
 1356              		.thumb
 1357              		.thumb_func
 1358              		.type	TIM_OCStructInit, %function
 1359              	TIM_OCStructInit:
 1360              	.LFB131:
 1361              		.loc 1 983 0
 1362              		.cfi_startproc
 1363              		@ args = 0, pretend = 0, frame = 0
 1364              		@ frame_needed = 0, uses_anonymous_args = 0
 1365              		@ link register save eliminated.
 1366              	.LVL126:
 1367              		.loc 1 985 0
 1368 0000 0023     		movs	r3, #0
 1369 0002 0380     		strh	r3, [r0]	@ movhi
 1370              		.loc 1 986 0
 1371 0004 4380     		strh	r3, [r0, #2]	@ movhi
 1372              		.loc 1 987 0
 1373 0006 8380     		strh	r3, [r0, #4]	@ movhi
 1374              		.loc 1 988 0
 1375 0008 8360     		str	r3, [r0, #8]
 1376              		.loc 1 989 0
 1377 000a 8381     		strh	r3, [r0, #12]	@ movhi
 1378              		.loc 1 990 0
 1379 000c C381     		strh	r3, [r0, #14]	@ movhi
 1380              		.loc 1 991 0
 1381 000e 0382     		strh	r3, [r0, #16]	@ movhi
 1382              		.loc 1 992 0
 1383 0010 4382     		strh	r3, [r0, #18]	@ movhi
 1384 0012 7047     		bx	lr
 1385              		.cfi_endproc
 1386              	.LFE131:
 1387              		.size	TIM_OCStructInit, .-TIM_OCStructInit
 1388 0014 AFF30080 		.section	.text.TIM_SelectOCxM,"ax",%progbits
 1388      AFF30080 
 1388      AFF30080 
 1389              		.align	2
 1390              		.p2align 4,,15
 1391              		.global	TIM_SelectOCxM
 1392              		.thumb
 1393              		.thumb_func
ARM GAS  /tmp/cchgQdZS.s 			page 26


 1394              		.type	TIM_SelectOCxM, %function
 1395              	TIM_SelectOCxM:
 1396              	.LFB132:
 1397              		.loc 1 1019 0
 1398              		.cfi_startproc
 1399              		@ args = 0, pretend = 0, frame = 0
 1400              		@ frame_needed = 0, uses_anonymous_args = 0
 1401              		@ link register save eliminated.
 1402              	.LVL127:
 1403 0000 10B4     		push	{r4}
 1404              		.cfi_def_cfa_offset 4
 1405              		.cfi_offset 4, -4
 1406              		.loc 1 1031 0
 1407 0002 0124     		movs	r4, #1
 1408 0004 8C40     		lsls	r4, r4, r1
 1409              		.loc 1 1034 0
 1410 0006 036A     		ldr	r3, [r0, #32]
 1411 0008 E443     		mvns	r4, r4
 1412 000a A4B2     		uxth	r4, r4
 1413 000c 1C40     		ands	r4, r4, r3
 1414              		.loc 1 1036 0
 1415 000e 21F00803 		bic	r3, r1, #8
 1416              		.loc 1 1034 0
 1417 0012 0462     		str	r4, [r0, #32]
 1418              		.loc 1 1029 0
 1419 0014 1830     		adds	r0, r0, #24
 1420              	.LVL128:
 1421              		.loc 1 1036 0
 1422 0016 7BB1     		cbz	r3, .L96
 1423              	.LVL129:
 1424              		.loc 1 1048 0
 1425 0018 0439     		subs	r1, r1, #4
 1426              	.LVL130:
 1427 001a C1F34E01 		ubfx	r1, r1, #1, #15
 1428              	.LVL131:
 1429              		.loc 1 1051 0
 1430 001e 48F6FF73 		movw	r3, #36863
 1431 0022 0C58     		ldr	r4, [r1, r0]
 1432 0024 2340     		ands	r3, r3, r4
 1433 0026 0B50     		str	r3, [r1, r0]
 1434              		.loc 1 1054 0
 1435 0028 1202     		lsls	r2, r2, #8
 1436              	.LVL132:
 1437 002a 0B58     		ldr	r3, [r1, r0]
 1438              		.loc 1 1056 0
 1439 002c 5DF8044B 		ldr	r4, [sp], #4
 1440              		.loc 1 1054 0
 1441 0030 92B2     		uxth	r2, r2
 1442 0032 1A43     		orrs	r2, r2, r3
 1443 0034 0A50     		str	r2, [r1, r0]
 1444              		.loc 1 1056 0
 1445 0036 7047     		bx	lr
 1446              	.LVL133:
 1447              	.L96:
 1448              		.loc 1 1038 0
 1449 0038 4908     		lsrs	r1, r1, #1
 1450              	.LVL134:
ARM GAS  /tmp/cchgQdZS.s 			page 27


 1451              		.loc 1 1041 0
 1452 003a 4FF68F73 		movw	r3, #65423
 1453 003e 4458     		ldr	r4, [r0, r1]
 1454 0040 2340     		ands	r3, r3, r4
 1455 0042 4350     		str	r3, [r0, r1]
 1456              		.loc 1 1044 0
 1457 0044 4358     		ldr	r3, [r0, r1]
 1458              		.loc 1 1056 0
 1459 0046 5DF8044B 		ldr	r4, [sp], #4
 1460              		.loc 1 1044 0
 1461 004a 1A43     		orrs	r2, r2, r3
 1462              	.LVL135:
 1463 004c 4250     		str	r2, [r0, r1]
 1464              		.loc 1 1056 0
 1465 004e 7047     		bx	lr
 1466              		.cfi_endproc
 1467              	.LFE132:
 1468              		.size	TIM_SelectOCxM, .-TIM_SelectOCxM
 1469              		.section	.text.TIM_SetCompare1,"ax",%progbits
 1470              		.align	2
 1471              		.p2align 4,,15
 1472              		.global	TIM_SetCompare1
 1473              		.thumb
 1474              		.thumb_func
 1475              		.type	TIM_SetCompare1, %function
 1476              	TIM_SetCompare1:
 1477              	.LFB133:
 1478              		.loc 1 1065 0
 1479              		.cfi_startproc
 1480              		@ args = 0, pretend = 0, frame = 0
 1481              		@ frame_needed = 0, uses_anonymous_args = 0
 1482              		@ link register save eliminated.
 1483              	.LVL136:
 1484              		.loc 1 1070 0
 1485 0000 4163     		str	r1, [r0, #52]
 1486 0002 7047     		bx	lr
 1487              		.cfi_endproc
 1488              	.LFE133:
 1489              		.size	TIM_SetCompare1, .-TIM_SetCompare1
 1490 0004 AFF30080 		.section	.text.TIM_SetCompare2,"ax",%progbits
 1490      AFF30080 
 1490      AFF30080 
 1491              		.align	2
 1492              		.p2align 4,,15
 1493              		.global	TIM_SetCompare2
 1494              		.thumb
 1495              		.thumb_func
 1496              		.type	TIM_SetCompare2, %function
 1497              	TIM_SetCompare2:
 1498              	.LFB134:
 1499              		.loc 1 1081 0
 1500              		.cfi_startproc
 1501              		@ args = 0, pretend = 0, frame = 0
 1502              		@ frame_needed = 0, uses_anonymous_args = 0
 1503              		@ link register save eliminated.
 1504              	.LVL137:
 1505              		.loc 1 1086 0
ARM GAS  /tmp/cchgQdZS.s 			page 28


 1506 0000 8163     		str	r1, [r0, #56]
 1507 0002 7047     		bx	lr
 1508              		.cfi_endproc
 1509              	.LFE134:
 1510              		.size	TIM_SetCompare2, .-TIM_SetCompare2
 1511 0004 AFF30080 		.section	.text.TIM_SetCompare3,"ax",%progbits
 1511      AFF30080 
 1511      AFF30080 
 1512              		.align	2
 1513              		.p2align 4,,15
 1514              		.global	TIM_SetCompare3
 1515              		.thumb
 1516              		.thumb_func
 1517              		.type	TIM_SetCompare3, %function
 1518              	TIM_SetCompare3:
 1519              	.LFB135:
 1520              		.loc 1 1096 0
 1521              		.cfi_startproc
 1522              		@ args = 0, pretend = 0, frame = 0
 1523              		@ frame_needed = 0, uses_anonymous_args = 0
 1524              		@ link register save eliminated.
 1525              	.LVL138:
 1526              		.loc 1 1101 0
 1527 0000 C163     		str	r1, [r0, #60]
 1528 0002 7047     		bx	lr
 1529              		.cfi_endproc
 1530              	.LFE135:
 1531              		.size	TIM_SetCompare3, .-TIM_SetCompare3
 1532 0004 AFF30080 		.section	.text.TIM_SetCompare4,"ax",%progbits
 1532      AFF30080 
 1532      AFF30080 
 1533              		.align	2
 1534              		.p2align 4,,15
 1535              		.global	TIM_SetCompare4
 1536              		.thumb
 1537              		.thumb_func
 1538              		.type	TIM_SetCompare4, %function
 1539              	TIM_SetCompare4:
 1540              	.LFB136:
 1541              		.loc 1 1111 0
 1542              		.cfi_startproc
 1543              		@ args = 0, pretend = 0, frame = 0
 1544              		@ frame_needed = 0, uses_anonymous_args = 0
 1545              		@ link register save eliminated.
 1546              	.LVL139:
 1547              		.loc 1 1116 0
 1548 0000 0164     		str	r1, [r0, #64]
 1549 0002 7047     		bx	lr
 1550              		.cfi_endproc
 1551              	.LFE136:
 1552              		.size	TIM_SetCompare4, .-TIM_SetCompare4
 1553 0004 AFF30080 		.section	.text.TIM_ForcedOC1Config,"ax",%progbits
 1553      AFF30080 
 1553      AFF30080 
 1554              		.align	2
 1555              		.p2align 4,,15
 1556              		.global	TIM_ForcedOC1Config
ARM GAS  /tmp/cchgQdZS.s 			page 29


 1557              		.thumb
 1558              		.thumb_func
 1559              		.type	TIM_ForcedOC1Config, %function
 1560              	TIM_ForcedOC1Config:
 1561              	.LFB137:
 1562              		.loc 1 1129 0
 1563              		.cfi_startproc
 1564              		@ args = 0, pretend = 0, frame = 0
 1565              		@ frame_needed = 0, uses_anonymous_args = 0
 1566              		@ link register save eliminated.
 1567              	.LVL140:
 1568              		.loc 1 1135 0
 1569 0000 8269     		ldr	r2, [r0, #24]
 1570              	.LVL141:
 1571              		.loc 1 1138 0
 1572 0002 4FF68F73 		movw	r3, #65423
 1573 0006 1340     		ands	r3, r3, r2
 1574              	.LVL142:
 1575              		.loc 1 1144 0
 1576 0008 1943     		orrs	r1, r1, r3
 1577              	.LVL143:
 1578 000a 8161     		str	r1, [r0, #24]
 1579 000c 7047     		bx	lr
 1580              		.cfi_endproc
 1581              	.LFE137:
 1582              		.size	TIM_ForcedOC1Config, .-TIM_ForcedOC1Config
 1583 000e 00BF     		.section	.text.TIM_ForcedOC2Config,"ax",%progbits
 1584              		.align	2
 1585              		.p2align 4,,15
 1586              		.global	TIM_ForcedOC2Config
 1587              		.thumb
 1588              		.thumb_func
 1589              		.type	TIM_ForcedOC2Config, %function
 1590              	TIM_ForcedOC2Config:
 1591              	.LFB138:
 1592              		.loc 1 1158 0
 1593              		.cfi_startproc
 1594              		@ args = 0, pretend = 0, frame = 0
 1595              		@ frame_needed = 0, uses_anonymous_args = 0
 1596              		@ link register save eliminated.
 1597              	.LVL144:
 1598              		.loc 1 1164 0
 1599 0000 8269     		ldr	r2, [r0, #24]
 1600              	.LVL145:
 1601              		.loc 1 1167 0
 1602 0002 48F6FF73 		movw	r3, #36863
 1603 0006 1340     		ands	r3, r3, r2
 1604              	.LVL146:
 1605              		.loc 1 1170 0
 1606 0008 43EA0121 		orr	r1, r3, r1, lsl #8
 1607              	.LVL147:
 1608              		.loc 1 1173 0
 1609 000c 8BB2     		uxth	r3, r1
 1610              	.LVL148:
 1611 000e 8361     		str	r3, [r0, #24]
 1612 0010 7047     		bx	lr
 1613              		.cfi_endproc
ARM GAS  /tmp/cchgQdZS.s 			page 30


 1614              	.LFE138:
 1615              		.size	TIM_ForcedOC2Config, .-TIM_ForcedOC2Config
 1616 0012 00BFAFF3 		.section	.text.TIM_ForcedOC3Config,"ax",%progbits
 1616      0080AFF3 
 1616      0080AFF3 
 1616      0080
 1617              		.align	2
 1618              		.p2align 4,,15
 1619              		.global	TIM_ForcedOC3Config
 1620              		.thumb
 1621              		.thumb_func
 1622              		.type	TIM_ForcedOC3Config, %function
 1623              	TIM_ForcedOC3Config:
 1624              	.LFB139:
 1625              		.loc 1 1186 0
 1626              		.cfi_startproc
 1627              		@ args = 0, pretend = 0, frame = 0
 1628              		@ frame_needed = 0, uses_anonymous_args = 0
 1629              		@ link register save eliminated.
 1630              	.LVL149:
 1631              		.loc 1 1193 0
 1632 0000 C269     		ldr	r2, [r0, #28]
 1633              	.LVL150:
 1634              		.loc 1 1196 0
 1635 0002 4FF68F73 		movw	r3, #65423
 1636 0006 1340     		ands	r3, r3, r2
 1637              	.LVL151:
 1638              		.loc 1 1202 0
 1639 0008 1943     		orrs	r1, r1, r3
 1640              	.LVL152:
 1641 000a C161     		str	r1, [r0, #28]
 1642 000c 7047     		bx	lr
 1643              		.cfi_endproc
 1644              	.LFE139:
 1645              		.size	TIM_ForcedOC3Config, .-TIM_ForcedOC3Config
 1646 000e 00BF     		.section	.text.TIM_ForcedOC4Config,"ax",%progbits
 1647              		.align	2
 1648              		.p2align 4,,15
 1649              		.global	TIM_ForcedOC4Config
 1650              		.thumb
 1651              		.thumb_func
 1652              		.type	TIM_ForcedOC4Config, %function
 1653              	TIM_ForcedOC4Config:
 1654              	.LFB140:
 1655              		.loc 1 1215 0
 1656              		.cfi_startproc
 1657              		@ args = 0, pretend = 0, frame = 0
 1658              		@ frame_needed = 0, uses_anonymous_args = 0
 1659              		@ link register save eliminated.
 1660              	.LVL153:
 1661              		.loc 1 1221 0
 1662 0000 C269     		ldr	r2, [r0, #28]
 1663              	.LVL154:
 1664              		.loc 1 1224 0
 1665 0002 48F6FF73 		movw	r3, #36863
 1666 0006 1340     		ands	r3, r3, r2
 1667              	.LVL155:
ARM GAS  /tmp/cchgQdZS.s 			page 31


 1668              		.loc 1 1227 0
 1669 0008 43EA0121 		orr	r1, r3, r1, lsl #8
 1670              	.LVL156:
 1671              		.loc 1 1230 0
 1672 000c 8BB2     		uxth	r3, r1
 1673              	.LVL157:
 1674 000e C361     		str	r3, [r0, #28]
 1675 0010 7047     		bx	lr
 1676              		.cfi_endproc
 1677              	.LFE140:
 1678              		.size	TIM_ForcedOC4Config, .-TIM_ForcedOC4Config
 1679 0012 00BFAFF3 		.section	.text.TIM_OC1PreloadConfig,"ax",%progbits
 1679      0080AFF3 
 1679      0080AFF3 
 1679      0080
 1680              		.align	2
 1681              		.p2align 4,,15
 1682              		.global	TIM_OC1PreloadConfig
 1683              		.thumb
 1684              		.thumb_func
 1685              		.type	TIM_OC1PreloadConfig, %function
 1686              	TIM_OC1PreloadConfig:
 1687              	.LFB141:
 1688              		.loc 1 1243 0
 1689              		.cfi_startproc
 1690              		@ args = 0, pretend = 0, frame = 0
 1691              		@ frame_needed = 0, uses_anonymous_args = 0
 1692              		@ link register save eliminated.
 1693              	.LVL158:
 1694              		.loc 1 1250 0
 1695 0000 8269     		ldr	r2, [r0, #24]
 1696              	.LVL159:
 1697              		.loc 1 1253 0
 1698 0002 4FF6F773 		movw	r3, #65527
 1699 0006 1340     		ands	r3, r3, r2
 1700              	.LVL160:
 1701              		.loc 1 1259 0
 1702 0008 1943     		orrs	r1, r1, r3
 1703              	.LVL161:
 1704 000a 8161     		str	r1, [r0, #24]
 1705 000c 7047     		bx	lr
 1706              		.cfi_endproc
 1707              	.LFE141:
 1708              		.size	TIM_OC1PreloadConfig, .-TIM_OC1PreloadConfig
 1709 000e 00BF     		.section	.text.TIM_OC2PreloadConfig,"ax",%progbits
 1710              		.align	2
 1711              		.p2align 4,,15
 1712              		.global	TIM_OC2PreloadConfig
 1713              		.thumb
 1714              		.thumb_func
 1715              		.type	TIM_OC2PreloadConfig, %function
 1716              	TIM_OC2PreloadConfig:
 1717              	.LFB142:
 1718              		.loc 1 1273 0
 1719              		.cfi_startproc
 1720              		@ args = 0, pretend = 0, frame = 0
 1721              		@ frame_needed = 0, uses_anonymous_args = 0
ARM GAS  /tmp/cchgQdZS.s 			page 32


 1722              		@ link register save eliminated.
 1723              	.LVL162:
 1724              		.loc 1 1280 0
 1725 0000 8269     		ldr	r2, [r0, #24]
 1726              	.LVL163:
 1727              		.loc 1 1283 0
 1728 0002 4FF2FF73 		movw	r3, #63487
 1729 0006 1340     		ands	r3, r3, r2
 1730              	.LVL164:
 1731              		.loc 1 1286 0
 1732 0008 43EA0121 		orr	r1, r3, r1, lsl #8
 1733              	.LVL165:
 1734              		.loc 1 1289 0
 1735 000c 8BB2     		uxth	r3, r1
 1736              	.LVL166:
 1737 000e 8361     		str	r3, [r0, #24]
 1738 0010 7047     		bx	lr
 1739              		.cfi_endproc
 1740              	.LFE142:
 1741              		.size	TIM_OC2PreloadConfig, .-TIM_OC2PreloadConfig
 1742 0012 00BFAFF3 		.section	.text.TIM_OC3PreloadConfig,"ax",%progbits
 1742      0080AFF3 
 1742      0080AFF3 
 1742      0080
 1743              		.align	2
 1744              		.p2align 4,,15
 1745              		.global	TIM_OC3PreloadConfig
 1746              		.thumb
 1747              		.thumb_func
 1748              		.type	TIM_OC3PreloadConfig, %function
 1749              	TIM_OC3PreloadConfig:
 1750              	.LFB143:
 1751              		.loc 1 1302 0
 1752              		.cfi_startproc
 1753              		@ args = 0, pretend = 0, frame = 0
 1754              		@ frame_needed = 0, uses_anonymous_args = 0
 1755              		@ link register save eliminated.
 1756              	.LVL167:
 1757              		.loc 1 1309 0
 1758 0000 C269     		ldr	r2, [r0, #28]
 1759              	.LVL168:
 1760              		.loc 1 1312 0
 1761 0002 4FF6F773 		movw	r3, #65527
 1762 0006 1340     		ands	r3, r3, r2
 1763              	.LVL169:
 1764              		.loc 1 1318 0
 1765 0008 1943     		orrs	r1, r1, r3
 1766              	.LVL170:
 1767 000a C161     		str	r1, [r0, #28]
 1768 000c 7047     		bx	lr
 1769              		.cfi_endproc
 1770              	.LFE143:
 1771              		.size	TIM_OC3PreloadConfig, .-TIM_OC3PreloadConfig
 1772 000e 00BF     		.section	.text.TIM_OC4PreloadConfig,"ax",%progbits
 1773              		.align	2
 1774              		.p2align 4,,15
 1775              		.global	TIM_OC4PreloadConfig
ARM GAS  /tmp/cchgQdZS.s 			page 33


 1776              		.thumb
 1777              		.thumb_func
 1778              		.type	TIM_OC4PreloadConfig, %function
 1779              	TIM_OC4PreloadConfig:
 1780              	.LFB144:
 1781              		.loc 1 1331 0
 1782              		.cfi_startproc
 1783              		@ args = 0, pretend = 0, frame = 0
 1784              		@ frame_needed = 0, uses_anonymous_args = 0
 1785              		@ link register save eliminated.
 1786              	.LVL171:
 1787              		.loc 1 1338 0
 1788 0000 C269     		ldr	r2, [r0, #28]
 1789              	.LVL172:
 1790              		.loc 1 1341 0
 1791 0002 4FF2FF73 		movw	r3, #63487
 1792 0006 1340     		ands	r3, r3, r2
 1793              	.LVL173:
 1794              		.loc 1 1344 0
 1795 0008 43EA0121 		orr	r1, r3, r1, lsl #8
 1796              	.LVL174:
 1797              		.loc 1 1347 0
 1798 000c 8BB2     		uxth	r3, r1
 1799              	.LVL175:
 1800 000e C361     		str	r3, [r0, #28]
 1801 0010 7047     		bx	lr
 1802              		.cfi_endproc
 1803              	.LFE144:
 1804              		.size	TIM_OC4PreloadConfig, .-TIM_OC4PreloadConfig
 1805 0012 00BFAFF3 		.section	.text.TIM_OC1FastConfig,"ax",%progbits
 1805      0080AFF3 
 1805      0080AFF3 
 1805      0080
 1806              		.align	2
 1807              		.p2align 4,,15
 1808              		.global	TIM_OC1FastConfig
 1809              		.thumb
 1810              		.thumb_func
 1811              		.type	TIM_OC1FastConfig, %function
 1812              	TIM_OC1FastConfig:
 1813              	.LFB145:
 1814              		.loc 1 1360 0
 1815              		.cfi_startproc
 1816              		@ args = 0, pretend = 0, frame = 0
 1817              		@ frame_needed = 0, uses_anonymous_args = 0
 1818              		@ link register save eliminated.
 1819              	.LVL176:
 1820              		.loc 1 1368 0
 1821 0000 8269     		ldr	r2, [r0, #24]
 1822              	.LVL177:
 1823              		.loc 1 1371 0
 1824 0002 4FF6FB73 		movw	r3, #65531
 1825 0006 1340     		ands	r3, r3, r2
 1826              	.LVL178:
 1827              		.loc 1 1377 0
 1828 0008 1943     		orrs	r1, r1, r3
 1829              	.LVL179:
ARM GAS  /tmp/cchgQdZS.s 			page 34


 1830 000a 8161     		str	r1, [r0, #24]
 1831 000c 7047     		bx	lr
 1832              		.cfi_endproc
 1833              	.LFE145:
 1834              		.size	TIM_OC1FastConfig, .-TIM_OC1FastConfig
 1835 000e 00BF     		.section	.text.TIM_OC2FastConfig,"ax",%progbits
 1836              		.align	2
 1837              		.p2align 4,,15
 1838              		.global	TIM_OC2FastConfig
 1839              		.thumb
 1840              		.thumb_func
 1841              		.type	TIM_OC2FastConfig, %function
 1842              	TIM_OC2FastConfig:
 1843              	.LFB146:
 1844              		.loc 1 1391 0
 1845              		.cfi_startproc
 1846              		@ args = 0, pretend = 0, frame = 0
 1847              		@ frame_needed = 0, uses_anonymous_args = 0
 1848              		@ link register save eliminated.
 1849              	.LVL180:
 1850              		.loc 1 1399 0
 1851 0000 8269     		ldr	r2, [r0, #24]
 1852              	.LVL181:
 1853              		.loc 1 1402 0
 1854 0002 4FF6FF33 		movw	r3, #64511
 1855 0006 1340     		ands	r3, r3, r2
 1856              	.LVL182:
 1857              		.loc 1 1405 0
 1858 0008 43EA0121 		orr	r1, r3, r1, lsl #8
 1859              	.LVL183:
 1860              		.loc 1 1408 0
 1861 000c 8BB2     		uxth	r3, r1
 1862              	.LVL184:
 1863 000e 8361     		str	r3, [r0, #24]
 1864 0010 7047     		bx	lr
 1865              		.cfi_endproc
 1866              	.LFE146:
 1867              		.size	TIM_OC2FastConfig, .-TIM_OC2FastConfig
 1868 0012 00BFAFF3 		.section	.text.TIM_OC3FastConfig,"ax",%progbits
 1868      0080AFF3 
 1868      0080AFF3 
 1868      0080
 1869              		.align	2
 1870              		.p2align 4,,15
 1871              		.global	TIM_OC3FastConfig
 1872              		.thumb
 1873              		.thumb_func
 1874              		.type	TIM_OC3FastConfig, %function
 1875              	TIM_OC3FastConfig:
 1876              	.LFB147:
 1877              		.loc 1 1421 0
 1878              		.cfi_startproc
 1879              		@ args = 0, pretend = 0, frame = 0
 1880              		@ frame_needed = 0, uses_anonymous_args = 0
 1881              		@ link register save eliminated.
 1882              	.LVL185:
 1883              		.loc 1 1429 0
ARM GAS  /tmp/cchgQdZS.s 			page 35


 1884 0000 C269     		ldr	r2, [r0, #28]
 1885              	.LVL186:
 1886              		.loc 1 1432 0
 1887 0002 4FF6FB73 		movw	r3, #65531
 1888 0006 1340     		ands	r3, r3, r2
 1889              	.LVL187:
 1890              		.loc 1 1438 0
 1891 0008 1943     		orrs	r1, r1, r3
 1892              	.LVL188:
 1893 000a C161     		str	r1, [r0, #28]
 1894 000c 7047     		bx	lr
 1895              		.cfi_endproc
 1896              	.LFE147:
 1897              		.size	TIM_OC3FastConfig, .-TIM_OC3FastConfig
 1898 000e 00BF     		.section	.text.TIM_OC4FastConfig,"ax",%progbits
 1899              		.align	2
 1900              		.p2align 4,,15
 1901              		.global	TIM_OC4FastConfig
 1902              		.thumb
 1903              		.thumb_func
 1904              		.type	TIM_OC4FastConfig, %function
 1905              	TIM_OC4FastConfig:
 1906              	.LFB148:
 1907              		.loc 1 1451 0
 1908              		.cfi_startproc
 1909              		@ args = 0, pretend = 0, frame = 0
 1910              		@ frame_needed = 0, uses_anonymous_args = 0
 1911              		@ link register save eliminated.
 1912              	.LVL189:
 1913              		.loc 1 1459 0
 1914 0000 C269     		ldr	r2, [r0, #28]
 1915              	.LVL190:
 1916              		.loc 1 1462 0
 1917 0002 4FF6FF33 		movw	r3, #64511
 1918 0006 1340     		ands	r3, r3, r2
 1919              	.LVL191:
 1920              		.loc 1 1465 0
 1921 0008 43EA0121 		orr	r1, r3, r1, lsl #8
 1922              	.LVL192:
 1923              		.loc 1 1468 0
 1924 000c 8BB2     		uxth	r3, r1
 1925              	.LVL193:
 1926 000e C361     		str	r3, [r0, #28]
 1927 0010 7047     		bx	lr
 1928              		.cfi_endproc
 1929              	.LFE148:
 1930              		.size	TIM_OC4FastConfig, .-TIM_OC4FastConfig
 1931 0012 00BFAFF3 		.section	.text.TIM_ClearOC1Ref,"ax",%progbits
 1931      0080AFF3 
 1931      0080AFF3 
 1931      0080
 1932              		.align	2
 1933              		.p2align 4,,15
 1934              		.global	TIM_ClearOC1Ref
 1935              		.thumb
 1936              		.thumb_func
 1937              		.type	TIM_ClearOC1Ref, %function
ARM GAS  /tmp/cchgQdZS.s 			page 36


 1938              	TIM_ClearOC1Ref:
 1939              	.LFB149:
 1940              		.loc 1 1481 0
 1941              		.cfi_startproc
 1942              		@ args = 0, pretend = 0, frame = 0
 1943              		@ frame_needed = 0, uses_anonymous_args = 0
 1944              		@ link register save eliminated.
 1945              	.LVL194:
 1946              		.loc 1 1488 0
 1947 0000 8269     		ldr	r2, [r0, #24]
 1948              	.LVL195:
 1949              		.loc 1 1491 0
 1950 0002 4FF67F73 		movw	r3, #65407
 1951 0006 1340     		ands	r3, r3, r2
 1952              	.LVL196:
 1953              		.loc 1 1497 0
 1954 0008 1943     		orrs	r1, r1, r3
 1955              	.LVL197:
 1956 000a 8161     		str	r1, [r0, #24]
 1957 000c 7047     		bx	lr
 1958              		.cfi_endproc
 1959              	.LFE149:
 1960              		.size	TIM_ClearOC1Ref, .-TIM_ClearOC1Ref
 1961 000e 00BF     		.section	.text.TIM_ClearOC2Ref,"ax",%progbits
 1962              		.align	2
 1963              		.p2align 4,,15
 1964              		.global	TIM_ClearOC2Ref
 1965              		.thumb
 1966              		.thumb_func
 1967              		.type	TIM_ClearOC2Ref, %function
 1968              	TIM_ClearOC2Ref:
 1969              	.LFB150:
 1970              		.loc 1 1511 0
 1971              		.cfi_startproc
 1972              		@ args = 0, pretend = 0, frame = 0
 1973              		@ frame_needed = 0, uses_anonymous_args = 0
 1974              		@ link register save eliminated.
 1975              	.LVL198:
 1976              		.loc 1 1518 0
 1977 0000 8369     		ldr	r3, [r0, #24]
 1978              	.LVL199:
 1979              		.loc 1 1521 0
 1980 0002 C3F30E03 		ubfx	r3, r3, #0, #15
 1981              	.LVL200:
 1982              		.loc 1 1524 0
 1983 0006 43EA0121 		orr	r1, r3, r1, lsl #8
 1984              	.LVL201:
 1985              		.loc 1 1527 0
 1986 000a 8BB2     		uxth	r3, r1
 1987              	.LVL202:
 1988 000c 8361     		str	r3, [r0, #24]
 1989 000e 7047     		bx	lr
 1990              		.cfi_endproc
 1991              	.LFE150:
 1992              		.size	TIM_ClearOC2Ref, .-TIM_ClearOC2Ref
 1993              		.section	.text.TIM_ClearOC3Ref,"ax",%progbits
 1994              		.align	2
ARM GAS  /tmp/cchgQdZS.s 			page 37


 1995              		.p2align 4,,15
 1996              		.global	TIM_ClearOC3Ref
 1997              		.thumb
 1998              		.thumb_func
 1999              		.type	TIM_ClearOC3Ref, %function
 2000              	TIM_ClearOC3Ref:
 2001              	.LFB151:
 2002              		.loc 1 1540 0
 2003              		.cfi_startproc
 2004              		@ args = 0, pretend = 0, frame = 0
 2005              		@ frame_needed = 0, uses_anonymous_args = 0
 2006              		@ link register save eliminated.
 2007              	.LVL203:
 2008              		.loc 1 1547 0
 2009 0000 C269     		ldr	r2, [r0, #28]
 2010              	.LVL204:
 2011              		.loc 1 1550 0
 2012 0002 4FF67F73 		movw	r3, #65407
 2013 0006 1340     		ands	r3, r3, r2
 2014              	.LVL205:
 2015              		.loc 1 1556 0
 2016 0008 1943     		orrs	r1, r1, r3
 2017              	.LVL206:
 2018 000a C161     		str	r1, [r0, #28]
 2019 000c 7047     		bx	lr
 2020              		.cfi_endproc
 2021              	.LFE151:
 2022              		.size	TIM_ClearOC3Ref, .-TIM_ClearOC3Ref
 2023 000e 00BF     		.section	.text.TIM_ClearOC4Ref,"ax",%progbits
 2024              		.align	2
 2025              		.p2align 4,,15
 2026              		.global	TIM_ClearOC4Ref
 2027              		.thumb
 2028              		.thumb_func
 2029              		.type	TIM_ClearOC4Ref, %function
 2030              	TIM_ClearOC4Ref:
 2031              	.LFB152:
 2032              		.loc 1 1569 0
 2033              		.cfi_startproc
 2034              		@ args = 0, pretend = 0, frame = 0
 2035              		@ frame_needed = 0, uses_anonymous_args = 0
 2036              		@ link register save eliminated.
 2037              	.LVL207:
 2038              		.loc 1 1576 0
 2039 0000 C369     		ldr	r3, [r0, #28]
 2040              	.LVL208:
 2041              		.loc 1 1579 0
 2042 0002 C3F30E03 		ubfx	r3, r3, #0, #15
 2043              	.LVL209:
 2044              		.loc 1 1582 0
 2045 0006 43EA0121 		orr	r1, r3, r1, lsl #8
 2046              	.LVL210:
 2047              		.loc 1 1585 0
 2048 000a 8BB2     		uxth	r3, r1
 2049              	.LVL211:
 2050 000c C361     		str	r3, [r0, #28]
 2051 000e 7047     		bx	lr
ARM GAS  /tmp/cchgQdZS.s 			page 38


 2052              		.cfi_endproc
 2053              	.LFE152:
 2054              		.size	TIM_ClearOC4Ref, .-TIM_ClearOC4Ref
 2055              		.section	.text.TIM_OC1PolarityConfig,"ax",%progbits
 2056              		.align	2
 2057              		.p2align 4,,15
 2058              		.global	TIM_OC1PolarityConfig
 2059              		.thumb
 2060              		.thumb_func
 2061              		.type	TIM_OC1PolarityConfig, %function
 2062              	TIM_OC1PolarityConfig:
 2063              	.LFB153:
 2064              		.loc 1 1598 0
 2065              		.cfi_startproc
 2066              		@ args = 0, pretend = 0, frame = 0
 2067              		@ frame_needed = 0, uses_anonymous_args = 0
 2068              		@ link register save eliminated.
 2069              	.LVL212:
 2070              		.loc 1 1605 0
 2071 0000 026A     		ldr	r2, [r0, #32]
 2072              	.LVL213:
 2073              		.loc 1 1608 0
 2074 0002 4FF6FD73 		movw	r3, #65533
 2075 0006 1340     		ands	r3, r3, r2
 2076              	.LVL214:
 2077              		.loc 1 1612 0
 2078 0008 1943     		orrs	r1, r1, r3
 2079              	.LVL215:
 2080 000a 0162     		str	r1, [r0, #32]
 2081 000c 7047     		bx	lr
 2082              		.cfi_endproc
 2083              	.LFE153:
 2084              		.size	TIM_OC1PolarityConfig, .-TIM_OC1PolarityConfig
 2085 000e 00BF     		.section	.text.TIM_OC1NPolarityConfig,"ax",%progbits
 2086              		.align	2
 2087              		.p2align 4,,15
 2088              		.global	TIM_OC1NPolarityConfig
 2089              		.thumb
 2090              		.thumb_func
 2091              		.type	TIM_OC1NPolarityConfig, %function
 2092              	TIM_OC1NPolarityConfig:
 2093              	.LFB154:
 2094              		.loc 1 1625 0
 2095              		.cfi_startproc
 2096              		@ args = 0, pretend = 0, frame = 0
 2097              		@ frame_needed = 0, uses_anonymous_args = 0
 2098              		@ link register save eliminated.
 2099              	.LVL216:
 2100              		.loc 1 1631 0
 2101 0000 026A     		ldr	r2, [r0, #32]
 2102              	.LVL217:
 2103              		.loc 1 1634 0
 2104 0002 4FF6F773 		movw	r3, #65527
 2105 0006 1340     		ands	r3, r3, r2
 2106              	.LVL218:
 2107              		.loc 1 1638 0
 2108 0008 1943     		orrs	r1, r1, r3
ARM GAS  /tmp/cchgQdZS.s 			page 39


 2109              	.LVL219:
 2110 000a 0162     		str	r1, [r0, #32]
 2111 000c 7047     		bx	lr
 2112              		.cfi_endproc
 2113              	.LFE154:
 2114              		.size	TIM_OC1NPolarityConfig, .-TIM_OC1NPolarityConfig
 2115 000e 00BF     		.section	.text.TIM_OC2PolarityConfig,"ax",%progbits
 2116              		.align	2
 2117              		.p2align 4,,15
 2118              		.global	TIM_OC2PolarityConfig
 2119              		.thumb
 2120              		.thumb_func
 2121              		.type	TIM_OC2PolarityConfig, %function
 2122              	TIM_OC2PolarityConfig:
 2123              	.LFB155:
 2124              		.loc 1 1652 0
 2125              		.cfi_startproc
 2126              		@ args = 0, pretend = 0, frame = 0
 2127              		@ frame_needed = 0, uses_anonymous_args = 0
 2128              		@ link register save eliminated.
 2129              	.LVL220:
 2130              		.loc 1 1659 0
 2131 0000 026A     		ldr	r2, [r0, #32]
 2132              	.LVL221:
 2133              		.loc 1 1662 0
 2134 0002 4FF6DF73 		movw	r3, #65503
 2135 0006 1340     		ands	r3, r3, r2
 2136              	.LVL222:
 2137              		.loc 1 1663 0
 2138 0008 43EA0111 		orr	r1, r3, r1, lsl #4
 2139              	.LVL223:
 2140              		.loc 1 1666 0
 2141 000c 8BB2     		uxth	r3, r1
 2142              	.LVL224:
 2143 000e 0362     		str	r3, [r0, #32]
 2144 0010 7047     		bx	lr
 2145              		.cfi_endproc
 2146              	.LFE155:
 2147              		.size	TIM_OC2PolarityConfig, .-TIM_OC2PolarityConfig
 2148 0012 00BFAFF3 		.section	.text.TIM_OC2NPolarityConfig,"ax",%progbits
 2148      0080AFF3 
 2148      0080AFF3 
 2148      0080
 2149              		.align	2
 2150              		.p2align 4,,15
 2151              		.global	TIM_OC2NPolarityConfig
 2152              		.thumb
 2153              		.thumb_func
 2154              		.type	TIM_OC2NPolarityConfig, %function
 2155              	TIM_OC2NPolarityConfig:
 2156              	.LFB156:
 2157              		.loc 1 1679 0
 2158              		.cfi_startproc
 2159              		@ args = 0, pretend = 0, frame = 0
 2160              		@ frame_needed = 0, uses_anonymous_args = 0
 2161              		@ link register save eliminated.
 2162              	.LVL225:
ARM GAS  /tmp/cchgQdZS.s 			page 40


 2163              		.loc 1 1686 0
 2164 0000 026A     		ldr	r2, [r0, #32]
 2165              	.LVL226:
 2166              		.loc 1 1689 0
 2167 0002 4FF67F73 		movw	r3, #65407
 2168 0006 1340     		ands	r3, r3, r2
 2169              	.LVL227:
 2170              		.loc 1 1690 0
 2171 0008 43EA0111 		orr	r1, r3, r1, lsl #4
 2172              	.LVL228:
 2173              		.loc 1 1693 0
 2174 000c 8BB2     		uxth	r3, r1
 2175              	.LVL229:
 2176 000e 0362     		str	r3, [r0, #32]
 2177 0010 7047     		bx	lr
 2178              		.cfi_endproc
 2179              	.LFE156:
 2180              		.size	TIM_OC2NPolarityConfig, .-TIM_OC2NPolarityConfig
 2181 0012 00BFAFF3 		.section	.text.TIM_OC3PolarityConfig,"ax",%progbits
 2181      0080AFF3 
 2181      0080AFF3 
 2181      0080
 2182              		.align	2
 2183              		.p2align 4,,15
 2184              		.global	TIM_OC3PolarityConfig
 2185              		.thumb
 2186              		.thumb_func
 2187              		.type	TIM_OC3PolarityConfig, %function
 2188              	TIM_OC3PolarityConfig:
 2189              	.LFB157:
 2190              		.loc 1 1706 0
 2191              		.cfi_startproc
 2192              		@ args = 0, pretend = 0, frame = 0
 2193              		@ frame_needed = 0, uses_anonymous_args = 0
 2194              		@ link register save eliminated.
 2195              	.LVL230:
 2196              		.loc 1 1713 0
 2197 0000 026A     		ldr	r2, [r0, #32]
 2198              	.LVL231:
 2199              		.loc 1 1716 0
 2200 0002 4FF6FF53 		movw	r3, #65023
 2201 0006 1340     		ands	r3, r3, r2
 2202              	.LVL232:
 2203              		.loc 1 1717 0
 2204 0008 43EA0121 		orr	r1, r3, r1, lsl #8
 2205              	.LVL233:
 2206              		.loc 1 1720 0
 2207 000c 8BB2     		uxth	r3, r1
 2208              	.LVL234:
 2209 000e 0362     		str	r3, [r0, #32]
 2210 0010 7047     		bx	lr
 2211              		.cfi_endproc
 2212              	.LFE157:
 2213              		.size	TIM_OC3PolarityConfig, .-TIM_OC3PolarityConfig
 2214 0012 00BFAFF3 		.section	.text.TIM_OC3NPolarityConfig,"ax",%progbits
 2214      0080AFF3 
 2214      0080AFF3 
ARM GAS  /tmp/cchgQdZS.s 			page 41


 2214      0080
 2215              		.align	2
 2216              		.p2align 4,,15
 2217              		.global	TIM_OC3NPolarityConfig
 2218              		.thumb
 2219              		.thumb_func
 2220              		.type	TIM_OC3NPolarityConfig, %function
 2221              	TIM_OC3NPolarityConfig:
 2222              	.LFB158:
 2223              		.loc 1 1733 0
 2224              		.cfi_startproc
 2225              		@ args = 0, pretend = 0, frame = 0
 2226              		@ frame_needed = 0, uses_anonymous_args = 0
 2227              		@ link register save eliminated.
 2228              	.LVL235:
 2229              		.loc 1 1740 0
 2230 0000 026A     		ldr	r2, [r0, #32]
 2231              	.LVL236:
 2232              		.loc 1 1743 0
 2233 0002 4FF2FF73 		movw	r3, #63487
 2234 0006 1340     		ands	r3, r3, r2
 2235              	.LVL237:
 2236              		.loc 1 1744 0
 2237 0008 43EA0121 		orr	r1, r3, r1, lsl #8
 2238              	.LVL238:
 2239              		.loc 1 1747 0
 2240 000c 8BB2     		uxth	r3, r1
 2241              	.LVL239:
 2242 000e 0362     		str	r3, [r0, #32]
 2243 0010 7047     		bx	lr
 2244              		.cfi_endproc
 2245              	.LFE158:
 2246              		.size	TIM_OC3NPolarityConfig, .-TIM_OC3NPolarityConfig
 2247 0012 00BFAFF3 		.section	.text.TIM_OC4PolarityConfig,"ax",%progbits
 2247      0080AFF3 
 2247      0080AFF3 
 2247      0080
 2248              		.align	2
 2249              		.p2align 4,,15
 2250              		.global	TIM_OC4PolarityConfig
 2251              		.thumb
 2252              		.thumb_func
 2253              		.type	TIM_OC4PolarityConfig, %function
 2254              	TIM_OC4PolarityConfig:
 2255              	.LFB159:
 2256              		.loc 1 1760 0
 2257              		.cfi_startproc
 2258              		@ args = 0, pretend = 0, frame = 0
 2259              		@ frame_needed = 0, uses_anonymous_args = 0
 2260              		@ link register save eliminated.
 2261              	.LVL240:
 2262              		.loc 1 1767 0
 2263 0000 026A     		ldr	r2, [r0, #32]
 2264              	.LVL241:
 2265              		.loc 1 1770 0
 2266 0002 4DF6FF73 		movw	r3, #57343
 2267 0006 1340     		ands	r3, r3, r2
ARM GAS  /tmp/cchgQdZS.s 			page 42


 2268              	.LVL242:
 2269              		.loc 1 1771 0
 2270 0008 43EA0131 		orr	r1, r3, r1, lsl #12
 2271              	.LVL243:
 2272              		.loc 1 1774 0
 2273 000c 8BB2     		uxth	r3, r1
 2274              	.LVL244:
 2275 000e 0362     		str	r3, [r0, #32]
 2276 0010 7047     		bx	lr
 2277              		.cfi_endproc
 2278              	.LFE159:
 2279              		.size	TIM_OC4PolarityConfig, .-TIM_OC4PolarityConfig
 2280 0012 00BFAFF3 		.section	.text.TIM_CCxCmd,"ax",%progbits
 2280      0080AFF3 
 2280      0080AFF3 
 2280      0080
 2281              		.align	2
 2282              		.p2align 4,,15
 2283              		.global	TIM_CCxCmd
 2284              		.thumb
 2285              		.thumb_func
 2286              		.type	TIM_CCxCmd, %function
 2287              	TIM_CCxCmd:
 2288              	.LFB160:
 2289              		.loc 1 1791 0
 2290              		.cfi_startproc
 2291              		@ args = 0, pretend = 0, frame = 0
 2292              		@ frame_needed = 0, uses_anonymous_args = 0
 2293              		@ link register save eliminated.
 2294              	.LVL245:
 2295              		.loc 1 1799 0
 2296 0000 0123     		movs	r3, #1
 2297 0002 8B40     		lsls	r3, r3, r1
 2298              		.loc 1 1791 0
 2299 0004 10B4     		push	{r4}
 2300              		.cfi_def_cfa_offset 4
 2301              		.cfi_offset 4, -4
 2302              		.loc 1 1802 0
 2303 0006 DB43     		mvns	r3, r3
 2304 0008 046A     		ldr	r4, [r0, #32]
 2305 000a 9BB2     		uxth	r3, r3
 2306 000c 2340     		ands	r3, r3, r4
 2307 000e 0362     		str	r3, [r0, #32]
 2308              		.loc 1 1805 0
 2309 0010 036A     		ldr	r3, [r0, #32]
 2310              		.loc 1 1806 0
 2311 0012 5DF8044B 		ldr	r4, [sp], #4
 2312              		.loc 1 1805 0
 2313 0016 8A40     		lsls	r2, r2, r1
 2314              	.LVL246:
 2315 0018 91B2     		uxth	r1, r2
 2316              	.LVL247:
 2317 001a 1943     		orrs	r1, r1, r3
 2318 001c 0162     		str	r1, [r0, #32]
 2319              		.loc 1 1806 0
 2320 001e 7047     		bx	lr
 2321              		.cfi_endproc
ARM GAS  /tmp/cchgQdZS.s 			page 43


 2322              	.LFE160:
 2323              		.size	TIM_CCxCmd, .-TIM_CCxCmd
 2324              		.section	.text.TIM_CCxNCmd,"ax",%progbits
 2325              		.align	2
 2326              		.p2align 4,,15
 2327              		.global	TIM_CCxNCmd
 2328              		.thumb
 2329              		.thumb_func
 2330              		.type	TIM_CCxNCmd, %function
 2331              	TIM_CCxNCmd:
 2332              	.LFB161:
 2333              		.loc 1 1821 0
 2334              		.cfi_startproc
 2335              		@ args = 0, pretend = 0, frame = 0
 2336              		@ frame_needed = 0, uses_anonymous_args = 0
 2337              		@ link register save eliminated.
 2338              	.LVL248:
 2339              		.loc 1 1829 0
 2340 0000 0423     		movs	r3, #4
 2341 0002 8B40     		lsls	r3, r3, r1
 2342              		.loc 1 1821 0
 2343 0004 10B4     		push	{r4}
 2344              		.cfi_def_cfa_offset 4
 2345              		.cfi_offset 4, -4
 2346              		.loc 1 1832 0
 2347 0006 DB43     		mvns	r3, r3
 2348 0008 046A     		ldr	r4, [r0, #32]
 2349 000a 9BB2     		uxth	r3, r3
 2350 000c 2340     		ands	r3, r3, r4
 2351 000e 0362     		str	r3, [r0, #32]
 2352              		.loc 1 1835 0
 2353 0010 036A     		ldr	r3, [r0, #32]
 2354              		.loc 1 1836 0
 2355 0012 5DF8044B 		ldr	r4, [sp], #4
 2356              		.loc 1 1835 0
 2357 0016 8A40     		lsls	r2, r2, r1
 2358              	.LVL249:
 2359 0018 91B2     		uxth	r1, r2
 2360              	.LVL250:
 2361 001a 1943     		orrs	r1, r1, r3
 2362 001c 0162     		str	r1, [r0, #32]
 2363              		.loc 1 1836 0
 2364 001e 7047     		bx	lr
 2365              		.cfi_endproc
 2366              	.LFE161:
 2367              		.size	TIM_CCxNCmd, .-TIM_CCxNCmd
 2368              		.section	.text.TIM_ICInit,"ax",%progbits
 2369              		.align	2
 2370              		.p2align 4,,15
 2371              		.global	TIM_ICInit
 2372              		.thumb
 2373              		.thumb_func
 2374              		.type	TIM_ICInit, %function
 2375              	TIM_ICInit:
 2376              	.LFB162:
 2377              		.loc 1 1905 0
 2378              		.cfi_startproc
ARM GAS  /tmp/cchgQdZS.s 			page 44


 2379              		@ args = 0, pretend = 0, frame = 0
 2380              		@ frame_needed = 0, uses_anonymous_args = 0
 2381              		@ link register save eliminated.
 2382              	.LVL251:
 2383              		.loc 1 1913 0
 2384 0000 0B88     		ldrh	r3, [r1]
 2385              		.loc 1 1905 0
 2386 0002 F0B4     		push	{r4, r5, r6, r7}
 2387              		.cfi_def_cfa_offset 16
 2388              		.cfi_offset 4, -16
 2389              		.cfi_offset 5, -12
 2390              		.cfi_offset 6, -8
 2391              		.cfi_offset 7, -4
 2392              		.loc 1 1913 0
 2393 0004 002B     		cmp	r3, #0
 2394 0006 2ED0     		beq	.L131
 2395              		.loc 1 1922 0
 2396 0008 042B     		cmp	r3, #4
 2397 000a 51D0     		beq	.L132
 2398              		.loc 1 1932 0
 2399 000c 082B     		cmp	r3, #8
 2400 000e 78D0     		beq	.L133
 2401              	.LBB46:
 2402              	.LBB47:
 2403              		.loc 1 3338 0
 2404 0010 026A     		ldr	r2, [r0, #32]
 2405              	.LBE47:
 2406              	.LBE46:
 2407              		.loc 1 1946 0
 2408 0012 0B89     		ldrh	r3, [r1, #8]
 2409              	.LVL252:
 2410 0014 4E88     		ldrh	r6, [r1, #2]
 2411              	.LVL253:
 2412 0016 B1F804C0 		ldrh	ip, [r1, #4]
 2413              	.LVL254:
 2414              		.loc 1 1950 0
 2415 001a CC88     		ldrh	r4, [r1, #6]
 2416              	.LBB49:
 2417              	.LBB48:
 2418              		.loc 1 3338 0
 2419 001c 4EF6FF71 		movw	r1, #61439
 2420              	.LVL255:
 2421 0020 1140     		ands	r1, r1, r2
 2422 0022 0162     		str	r1, [r0, #32]
 2423              		.loc 1 3339 0
 2424 0024 C569     		ldr	r5, [r0, #28]
 2425              	.LVL256:
 2426              		.loc 1 3340 0
 2427 0026 076A     		ldr	r7, [r0, #32]
 2428              	.LVL257:
 2429              		.loc 1 3349 0
 2430 0028 45F6FF72 		movw	r2, #24575
 2431              		.loc 1 3345 0
 2432 002c 4FEA0C21 		lsl	r1, ip, #8
 2433              		.loc 1 3349 0
 2434 0030 3A40     		ands	r2, r2, r7
 2435              		.loc 1 3345 0
ARM GAS  /tmp/cchgQdZS.s 			page 45


 2436 0032 41EA0331 		orr	r1, r1, r3, lsl #12
 2437              		.loc 1 3350 0
 2438 0036 42EA0632 		orr	r2, r2, r6, lsl #12
 2439              		.loc 1 3344 0
 2440 003a 40F6FF43 		movw	r3, #3327
 2441              	.LVL258:
 2442              		.loc 1 3345 0
 2443 003e 89B2     		uxth	r1, r1
 2444              		.loc 1 3344 0
 2445 0040 2B40     		ands	r3, r3, r5
 2446              	.LVL259:
 2447              		.loc 1 3350 0
 2448 0042 42F48052 		orr	r2, r2, #4096
 2449              		.loc 1 3353 0
 2450 0046 0B43     		orrs	r3, r3, r1
 2451              	.LVL260:
 2452              		.loc 1 3354 0
 2453 0048 92B2     		uxth	r2, r2
 2454              		.loc 1 3353 0
 2455 004a C361     		str	r3, [r0, #28]
 2456              		.loc 1 3354 0
 2457 004c 0262     		str	r2, [r0, #32]
 2458              	.LBE48:
 2459              	.LBE49:
 2460              	.LBB50:
 2461              	.LBB51:
 2462              		.loc 1 2179 0
 2463 004e C269     		ldr	r2, [r0, #28]
 2464 0050 4FF2FF33 		movw	r3, #62463
 2465 0054 1340     		ands	r3, r3, r2
 2466 0056 C361     		str	r3, [r0, #28]
 2467              		.loc 1 2182 0
 2468 0058 C269     		ldr	r2, [r0, #28]
 2469 005a 2302     		lsls	r3, r4, #8
 2470 005c 9BB2     		uxth	r3, r3
 2471 005e 1343     		orrs	r3, r3, r2
 2472 0060 C361     		str	r3, [r0, #28]
 2473              	.LVL261:
 2474              	.L126:
 2475              	.LBE51:
 2476              	.LBE50:
 2477              		.loc 1 1952 0
 2478 0062 F0BC     		pop	{r4, r5, r6, r7}
 2479 0064 7047     		bx	lr
 2480              	.LVL262:
 2481              	.L131:
 2482              	.LBB52:
 2483              	.LBB53:
 2484              		.loc 1 3214 0
 2485 0066 036A     		ldr	r3, [r0, #32]
 2486              	.LBE53:
 2487              	.LBE52:
 2488              		.loc 1 1916 0
 2489 0068 4F88     		ldrh	r7, [r1, #2]
 2490              		.loc 1 1920 0
 2491 006a CC88     		ldrh	r4, [r1, #6]
 2492              		.loc 1 1916 0
ARM GAS  /tmp/cchgQdZS.s 			page 46


 2493 006c 8E88     		ldrh	r6, [r1, #4]
 2494 006e B1F808C0 		ldrh	ip, [r1, #8]
 2495              	.LVL263:
 2496              	.LBB55:
 2497              	.LBB54:
 2498              		.loc 1 3214 0
 2499 0072 4FF6FE71 		movw	r1, #65534
 2500              	.LVL264:
 2501 0076 1940     		ands	r1, r1, r3
 2502 0078 0162     		str	r1, [r0, #32]
 2503              		.loc 1 3215 0
 2504 007a 8369     		ldr	r3, [r0, #24]
 2505              	.LVL265:
 2506              		.loc 1 3216 0
 2507 007c 056A     		ldr	r5, [r0, #32]
 2508              	.LVL266:
 2509              		.loc 1 3219 0
 2510 007e 4FF60C72 		movw	r2, #65292
 2511              		.loc 1 3220 0
 2512 0082 46EA0C16 		orr	r6, r6, ip, lsl #4
 2513              	.LVL267:
 2514              		.loc 1 3219 0
 2515 0086 1A40     		ands	r2, r2, r3
 2516              	.LVL268:
 2517              		.loc 1 3223 0
 2518 0088 4FF6F573 		movw	r3, #65525
 2519              		.loc 1 3224 0
 2520 008c 47F00101 		orr	r1, r7, #1
 2521              		.loc 1 3220 0
 2522 0090 3243     		orrs	r2, r2, r6
 2523              	.LVL269:
 2524              		.loc 1 3223 0
 2525 0092 2B40     		ands	r3, r3, r5
 2526              	.LVL270:
 2527              		.loc 1 3227 0
 2528 0094 92B2     		uxth	r2, r2
 2529              		.loc 1 3228 0
 2530 0096 0B43     		orrs	r3, r3, r1
 2531              	.LVL271:
 2532              		.loc 1 3227 0
 2533 0098 8261     		str	r2, [r0, #24]
 2534              		.loc 1 3228 0
 2535 009a 0362     		str	r3, [r0, #32]
 2536              	.LBE54:
 2537              	.LBE55:
 2538              	.LBB56:
 2539              	.LBB57:
 2540              		.loc 1 2106 0
 2541 009c 8269     		ldr	r2, [r0, #24]
 2542 009e 4FF6F373 		movw	r3, #65523
 2543 00a2 1340     		ands	r3, r3, r2
 2544 00a4 8361     		str	r3, [r0, #24]
 2545              		.loc 1 2109 0
 2546 00a6 8369     		ldr	r3, [r0, #24]
 2547 00a8 2343     		orrs	r3, r3, r4
 2548 00aa 8361     		str	r3, [r0, #24]
 2549              	.LBE57:
ARM GAS  /tmp/cchgQdZS.s 			page 47


 2550              	.LBE56:
 2551              		.loc 1 1952 0
 2552 00ac F0BC     		pop	{r4, r5, r6, r7}
 2553              	.LVL272:
 2554 00ae 7047     		bx	lr
 2555              	.LVL273:
 2556              	.L132:
 2557              	.LBB58:
 2558              	.LBB59:
 2559              		.loc 1 3255 0
 2560 00b0 026A     		ldr	r2, [r0, #32]
 2561              	.LBE59:
 2562              	.LBE58:
 2563              		.loc 1 1926 0
 2564 00b2 4E88     		ldrh	r6, [r1, #2]
 2565 00b4 8F88     		ldrh	r7, [r1, #4]
 2566 00b6 0C89     		ldrh	r4, [r1, #8]
 2567              	.LVL274:
 2568              		.loc 1 1930 0
 2569 00b8 C988     		ldrh	r1, [r1, #6]
 2570              	.LVL275:
 2571              	.LBB61:
 2572              	.LBB60:
 2573              		.loc 1 3255 0
 2574 00ba 4FF6EF73 		movw	r3, #65519
 2575 00be 1340     		ands	r3, r3, r2
 2576 00c0 0362     		str	r3, [r0, #32]
 2577              		.loc 1 3256 0
 2578 00c2 8569     		ldr	r5, [r0, #24]
 2579              	.LVL276:
 2580              		.loc 1 3257 0
 2581 00c4 036A     		ldr	r3, [r0, #32]
 2582              	.LVL277:
 2583              		.loc 1 3266 0
 2584 00c6 4FF65F72 		movw	r2, #65375
 2585 00ca 1A40     		ands	r2, r2, r3
 2586              		.loc 1 3262 0
 2587 00cc 2403     		lsls	r4, r4, #12
 2588              	.LVL278:
 2589 00ce 44EA0724 		orr	r4, r4, r7, lsl #8
 2590              		.loc 1 3267 0
 2591 00d2 42EA0612 		orr	r2, r2, r6, lsl #4
 2592              		.loc 1 3261 0
 2593 00d6 40F6FF43 		movw	r3, #3327
 2594              	.LVL279:
 2595              		.loc 1 3262 0
 2596 00da A4B2     		uxth	r4, r4
 2597              		.loc 1 3261 0
 2598 00dc 2B40     		ands	r3, r3, r5
 2599              	.LVL280:
 2600              		.loc 1 3267 0
 2601 00de 42F01002 		orr	r2, r2, #16
 2602              		.loc 1 3270 0
 2603 00e2 2343     		orrs	r3, r3, r4
 2604              	.LVL281:
 2605              		.loc 1 3271 0
 2606 00e4 92B2     		uxth	r2, r2
ARM GAS  /tmp/cchgQdZS.s 			page 48


 2607              		.loc 1 3270 0
 2608 00e6 8361     		str	r3, [r0, #24]
 2609              		.loc 1 3271 0
 2610 00e8 0262     		str	r2, [r0, #32]
 2611              	.LBE60:
 2612              	.LBE61:
 2613              	.LBB62:
 2614              	.LBB63:
 2615              		.loc 1 2131 0
 2616 00ea 8269     		ldr	r2, [r0, #24]
 2617 00ec 4FF2FF33 		movw	r3, #62463
 2618 00f0 1340     		ands	r3, r3, r2
 2619 00f2 8361     		str	r3, [r0, #24]
 2620              		.loc 1 2134 0
 2621 00f4 8269     		ldr	r2, [r0, #24]
 2622 00f6 0B02     		lsls	r3, r1, #8
 2623 00f8 9BB2     		uxth	r3, r3
 2624 00fa 1343     		orrs	r3, r3, r2
 2625 00fc 8361     		str	r3, [r0, #24]
 2626              	.LBE63:
 2627              	.LBE62:
 2628              		.loc 1 1952 0
 2629 00fe F0BC     		pop	{r4, r5, r6, r7}
 2630              	.LVL282:
 2631 0100 7047     		bx	lr
 2632              	.LVL283:
 2633              	.L133:
 2634              	.LBB64:
 2635              	.LBB65:
 2636              		.loc 1 3297 0
 2637 0102 036A     		ldr	r3, [r0, #32]
 2638              	.LBE65:
 2639              	.LBE64:
 2640              		.loc 1 1936 0
 2641 0104 4D88     		ldrh	r5, [r1, #2]
 2642 0106 8F88     		ldrh	r7, [r1, #4]
 2643 0108 B1F808C0 		ldrh	ip, [r1, #8]
 2644              	.LVL284:
 2645              		.loc 1 1940 0
 2646 010c CC88     		ldrh	r4, [r1, #6]
 2647              	.LBB67:
 2648              	.LBB66:
 2649              		.loc 1 3297 0
 2650 010e 4FF6FF61 		movw	r1, #65279
 2651              	.LVL285:
 2652 0112 1940     		ands	r1, r1, r3
 2653 0114 0162     		str	r1, [r0, #32]
 2654              		.loc 1 3298 0
 2655 0116 C669     		ldr	r6, [r0, #28]
 2656              	.LVL286:
 2657              		.loc 1 3299 0
 2658 0118 016A     		ldr	r1, [r0, #32]
 2659              	.LVL287:
 2660              		.loc 1 3307 0
 2661 011a 4FF2FF52 		movw	r2, #62975
 2662 011e 0A40     		ands	r2, r2, r1
 2663              		.loc 1 3303 0
ARM GAS  /tmp/cchgQdZS.s 			page 49


 2664 0120 4FF60C73 		movw	r3, #65292
 2665              		.loc 1 3304 0
 2666 0124 47EA0C11 		orr	r1, r7, ip, lsl #4
 2667              	.LVL288:
 2668              		.loc 1 3303 0
 2669 0128 3340     		ands	r3, r3, r6
 2670              	.LVL289:
 2671              		.loc 1 3308 0
 2672 012a 42EA0522 		orr	r2, r2, r5, lsl #8
 2673              	.LVL290:
 2674              		.loc 1 3304 0
 2675 012e 0B43     		orrs	r3, r3, r1
 2676              	.LVL291:
 2677              		.loc 1 3308 0
 2678 0130 42F48072 		orr	r2, r2, #256
 2679              		.loc 1 3311 0
 2680 0134 9BB2     		uxth	r3, r3
 2681              		.loc 1 3312 0
 2682 0136 92B2     		uxth	r2, r2
 2683              		.loc 1 3311 0
 2684 0138 C361     		str	r3, [r0, #28]
 2685              		.loc 1 3312 0
 2686 013a 0262     		str	r2, [r0, #32]
 2687              	.LBE66:
 2688              	.LBE67:
 2689              	.LBB68:
 2690              	.LBB69:
 2691              		.loc 1 2155 0
 2692 013c C269     		ldr	r2, [r0, #28]
 2693 013e 4FF6F373 		movw	r3, #65523
 2694 0142 1340     		ands	r3, r3, r2
 2695 0144 C361     		str	r3, [r0, #28]
 2696              		.loc 1 2158 0
 2697 0146 C369     		ldr	r3, [r0, #28]
 2698 0148 2343     		orrs	r3, r3, r4
 2699 014a C361     		str	r3, [r0, #28]
 2700 014c 89E7     		b	.L126
 2701              	.LBE69:
 2702              	.LBE68:
 2703              		.cfi_endproc
 2704              	.LFE162:
 2705              		.size	TIM_ICInit, .-TIM_ICInit
 2706 014e 00BF     		.section	.text.TIM_ICStructInit,"ax",%progbits
 2707              		.align	2
 2708              		.p2align 4,,15
 2709              		.global	TIM_ICStructInit
 2710              		.thumb
 2711              		.thumb_func
 2712              		.type	TIM_ICStructInit, %function
 2713              	TIM_ICStructInit:
 2714              	.LFB163:
 2715              		.loc 1 1961 0
 2716              		.cfi_startproc
 2717              		@ args = 0, pretend = 0, frame = 0
 2718              		@ frame_needed = 0, uses_anonymous_args = 0
 2719              		@ link register save eliminated.
 2720              	.LVL292:
ARM GAS  /tmp/cchgQdZS.s 			page 50


 2721              		.loc 1 1963 0
 2722 0000 0023     		movs	r3, #0
 2723              		.loc 1 1965 0
 2724 0002 0122     		movs	r2, #1
 2725 0004 8280     		strh	r2, [r0, #4]	@ movhi
 2726              		.loc 1 1963 0
 2727 0006 0380     		strh	r3, [r0]	@ movhi
 2728              		.loc 1 1964 0
 2729 0008 4380     		strh	r3, [r0, #2]	@ movhi
 2730              		.loc 1 1966 0
 2731 000a C380     		strh	r3, [r0, #6]	@ movhi
 2732              		.loc 1 1967 0
 2733 000c 0381     		strh	r3, [r0, #8]	@ movhi
 2734 000e 7047     		bx	lr
 2735              		.cfi_endproc
 2736              	.LFE163:
 2737              		.size	TIM_ICStructInit, .-TIM_ICStructInit
 2738              		.section	.text.TIM_PWMIConfig,"ax",%progbits
 2739              		.align	2
 2740              		.p2align 4,,15
 2741              		.global	TIM_PWMIConfig
 2742              		.thumb
 2743              		.thumb_func
 2744              		.type	TIM_PWMIConfig, %function
 2745              	TIM_PWMIConfig:
 2746              	.LFB164:
 2747              		.loc 1 1980 0
 2748              		.cfi_startproc
 2749              		@ args = 0, pretend = 0, frame = 0
 2750              		@ frame_needed = 0, uses_anonymous_args = 0
 2751              		@ link register save eliminated.
 2752              	.LVL293:
 2753              		.loc 1 1988 0
 2754 0000 4B88     		ldrh	r3, [r1, #2]
 2755              		.loc 1 1997 0
 2756 0002 8A88     		ldrh	r2, [r1, #4]
 2757              		.loc 1 1980 0
 2758 0004 2DE9F003 		push	{r4, r5, r6, r7, r8, r9}
 2759              		.cfi_def_cfa_offset 24
 2760              		.cfi_offset 4, -24
 2761              		.cfi_offset 5, -20
 2762              		.cfi_offset 6, -16
 2763              		.cfi_offset 7, -12
 2764              		.cfi_offset 8, -8
 2765              		.cfi_offset 9, -4
 2766              		.loc 1 1988 0
 2767 0008 002B     		cmp	r3, #0
 2768              		.loc 1 2005 0
 2769 000a 0C88     		ldrh	r4, [r1]
 2770              		.loc 1 1990 0
 2771 000c 14BF     		ite	ne
 2772 000e 0025     		movne	r5, #0
 2773 0010 0225     		moveq	r5, #2
 2774              	.LVL294:
 2775              		.loc 1 1997 0
 2776 0012 012A     		cmp	r2, #1
 2777              		.loc 1 1999 0
ARM GAS  /tmp/cchgQdZS.s 			page 51


 2778 0014 14BF     		ite	ne
 2779 0016 0126     		movne	r6, #1
 2780 0018 0226     		moveq	r6, #2
 2781              	.LVL295:
 2782              		.loc 1 2005 0
 2783 001a 002C     		cmp	r4, #0
 2784 001c 4BD0     		beq	.L142
 2785              	.LBB70:
 2786              	.LBB71:
 2787              		.loc 1 3255 0
 2788 001e 046A     		ldr	r4, [r0, #32]
 2789              	.LBE71:
 2790              	.LBE70:
 2791              		.loc 1 2020 0
 2792 0020 B1F808C0 		ldrh	ip, [r1, #8]
 2793              	.LVL296:
 2794              		.loc 1 2023 0
 2795 0024 CF88     		ldrh	r7, [r1, #6]
 2796              	.LBB73:
 2797              	.LBB72:
 2798              		.loc 1 3255 0
 2799 0026 4FF6EF71 		movw	r1, #65519
 2800              	.LVL297:
 2801 002a 2140     		ands	r1, r1, r4
 2802 002c 0162     		str	r1, [r0, #32]
 2803              		.loc 1 3256 0
 2804 002e D0F81880 		ldr	r8, [r0, #24]
 2805              	.LVL298:
 2806              		.loc 1 3257 0
 2807 0032 016A     		ldr	r1, [r0, #32]
 2808              	.LVL299:
 2809              		.loc 1 3266 0
 2810 0034 4FF65F74 		movw	r4, #65375
 2811              		.loc 1 3262 0
 2812 0038 4FEA0C39 		lsl	r9, ip, #12
 2813              		.loc 1 3266 0
 2814 003c 0C40     		ands	r4, r4, r1
 2815              		.loc 1 3262 0
 2816 003e 49EA0222 		orr	r2, r9, r2, lsl #8
 2817              	.LVL300:
 2818              		.loc 1 3267 0
 2819 0042 44EA0313 		orr	r3, r4, r3, lsl #4
 2820              	.LVL301:
 2821              		.loc 1 3261 0
 2822 0046 40F6FF41 		movw	r1, #3327
 2823              	.LVL302:
 2824 004a 08EA0101 		and	r1, r8, r1
 2825              	.LVL303:
 2826              		.loc 1 3262 0
 2827 004e 92B2     		uxth	r2, r2
 2828              	.LVL304:
 2829              		.loc 1 3267 0
 2830 0050 43F01003 		orr	r3, r3, #16
 2831              		.loc 1 3270 0
 2832 0054 1143     		orrs	r1, r1, r2
 2833              	.LVL305:
 2834              		.loc 1 3271 0
ARM GAS  /tmp/cchgQdZS.s 			page 52


 2835 0056 9BB2     		uxth	r3, r3
 2836              		.loc 1 3270 0
 2837 0058 8161     		str	r1, [r0, #24]
 2838              		.loc 1 3271 0
 2839 005a 0362     		str	r3, [r0, #32]
 2840              	.LBE72:
 2841              	.LBE73:
 2842              	.LBB74:
 2843              	.LBB75:
 2844              		.loc 1 2131 0
 2845 005c 8269     		ldr	r2, [r0, #24]
 2846              	.LVL306:
 2847 005e 4FF2FF33 		movw	r3, #62463
 2848 0062 1340     		ands	r3, r3, r2
 2849 0064 8361     		str	r3, [r0, #24]
 2850              		.loc 1 2134 0
 2851 0066 8269     		ldr	r2, [r0, #24]
 2852 0068 3B02     		lsls	r3, r7, #8
 2853 006a 9BB2     		uxth	r3, r3
 2854 006c 1343     		orrs	r3, r3, r2
 2855 006e 8361     		str	r3, [r0, #24]
 2856              	.LVL307:
 2857              	.LBE75:
 2858              	.LBE74:
 2859              	.LBB76:
 2860              	.LBB77:
 2861              		.loc 1 3214 0
 2862 0070 026A     		ldr	r2, [r0, #32]
 2863 0072 4FF6FE73 		movw	r3, #65534
 2864 0076 1340     		ands	r3, r3, r2
 2865 0078 0362     		str	r3, [r0, #32]
 2866              		.loc 1 3215 0
 2867 007a 8269     		ldr	r2, [r0, #24]
 2868              		.loc 1 3216 0
 2869 007c 036A     		ldr	r3, [r0, #32]
 2870              		.loc 1 3215 0
 2871 007e 92B2     		uxth	r2, r2
 2872              	.LVL308:
 2873              		.loc 1 3219 0
 2874 0080 22F0F302 		bic	r2, r2, #243
 2875              	.LVL309:
 2876              		.loc 1 3216 0
 2877 0084 9BB2     		uxth	r3, r3
 2878              	.LVL310:
 2879              		.loc 1 3220 0
 2880 0086 42EA0C1C 		orr	ip, r2, ip, lsl #4
 2881              	.LVL311:
 2882              		.loc 1 3223 0
 2883 008a 23F00A03 		bic	r3, r3, #10
 2884              	.LVL312:
 2885              		.loc 1 3224 0
 2886 008e 43F00103 		orr	r3, r3, #1
 2887              		.loc 1 3220 0
 2888 0092 1FFA8CFC 		uxth	ip, ip
 2889              	.LVL313:
 2890              		.loc 1 3228 0
 2891 0096 1D43     		orrs	r5, r5, r3
ARM GAS  /tmp/cchgQdZS.s 			page 53


 2892              	.LVL314:
 2893              		.loc 1 3227 0
 2894 0098 4CEA0606 		orr	r6, ip, r6
 2895              	.LVL315:
 2896 009c 8661     		str	r6, [r0, #24]
 2897              		.loc 1 3228 0
 2898 009e 0562     		str	r5, [r0, #32]
 2899              	.LVL316:
 2900              	.LBE77:
 2901              	.LBE76:
 2902              	.LBB78:
 2903              	.LBB79:
 2904              		.loc 1 2106 0
 2905 00a0 8269     		ldr	r2, [r0, #24]
 2906 00a2 4FF6F373 		movw	r3, #65523
 2907              	.LVL317:
 2908 00a6 1340     		ands	r3, r3, r2
 2909 00a8 8361     		str	r3, [r0, #24]
 2910              		.loc 1 2109 0
 2911 00aa 8369     		ldr	r3, [r0, #24]
 2912 00ac 1F43     		orrs	r7, r7, r3
 2913              	.LVL318:
 2914 00ae 8761     		str	r7, [r0, #24]
 2915              	.LBE79:
 2916              	.LBE78:
 2917              		.loc 1 2029 0
 2918 00b0 BDE8F003 		pop	{r4, r5, r6, r7, r8, r9}
 2919              	.LVL319:
 2920 00b4 7047     		bx	lr
 2921              	.LVL320:
 2922              	.L142:
 2923              	.LBB80:
 2924              	.LBB81:
 2925              		.loc 1 3214 0
 2926 00b6 046A     		ldr	r4, [r0, #32]
 2927              	.LBE81:
 2928              	.LBE80:
 2929              		.loc 1 2008 0
 2930 00b8 B1F808C0 		ldrh	ip, [r1, #8]
 2931              	.LVL321:
 2932              		.loc 1 2011 0
 2933 00bc CF88     		ldrh	r7, [r1, #6]
 2934              	.LBB83:
 2935              	.LBB82:
 2936              		.loc 1 3214 0
 2937 00be 4FF6FE71 		movw	r1, #65534
 2938              	.LVL322:
 2939 00c2 2140     		ands	r1, r1, r4
 2940 00c4 0162     		str	r1, [r0, #32]
 2941              		.loc 1 3215 0
 2942 00c6 D0F81890 		ldr	r9, [r0, #24]
 2943              	.LVL323:
 2944              		.loc 1 3216 0
 2945 00ca D0F82080 		ldr	r8, [r0, #32]
 2946              	.LVL324:
 2947              		.loc 1 3219 0
 2948 00ce 4FF60C74 		movw	r4, #65292
ARM GAS  /tmp/cchgQdZS.s 			page 54


 2949              		.loc 1 3220 0
 2950 00d2 42EA0C12 		orr	r2, r2, ip, lsl #4
 2951              	.LVL325:
 2952              		.loc 1 3219 0
 2953 00d6 09EA0404 		and	r4, r9, r4
 2954              	.LVL326:
 2955              		.loc 1 3223 0
 2956 00da 4FF6F571 		movw	r1, #65525
 2957              		.loc 1 3224 0
 2958 00de 43F00103 		orr	r3, r3, #1
 2959              	.LVL327:
 2960              		.loc 1 3223 0
 2961 00e2 08EA0101 		and	r1, r8, r1
 2962              	.LVL328:
 2963              		.loc 1 3220 0
 2964 00e6 1443     		orrs	r4, r4, r2
 2965              	.LVL329:
 2966              		.loc 1 3228 0
 2967 00e8 1943     		orrs	r1, r1, r3
 2968              	.LVL330:
 2969              		.loc 1 3227 0
 2970 00ea A4B2     		uxth	r4, r4
 2971 00ec 8461     		str	r4, [r0, #24]
 2972              		.loc 1 3228 0
 2973 00ee 0162     		str	r1, [r0, #32]
 2974              	.LBE82:
 2975              	.LBE83:
 2976              	.LBB84:
 2977              	.LBB85:
 2978              		.loc 1 2106 0
 2979 00f0 8369     		ldr	r3, [r0, #24]
 2980 00f2 4FF6F372 		movw	r2, #65523
 2981 00f6 1A40     		ands	r2, r2, r3
 2982 00f8 8261     		str	r2, [r0, #24]
 2983              		.loc 1 2109 0
 2984 00fa 8369     		ldr	r3, [r0, #24]
 2985 00fc 3B43     		orrs	r3, r3, r7
 2986 00fe 8361     		str	r3, [r0, #24]
 2987              	.LVL331:
 2988              	.LBE85:
 2989              	.LBE84:
 2990              	.LBB86:
 2991              	.LBB87:
 2992              		.loc 1 3255 0
 2993 0100 036A     		ldr	r3, [r0, #32]
 2994 0102 4FF6EF72 		movw	r2, #65519
 2995 0106 1A40     		ands	r2, r2, r3
 2996 0108 0262     		str	r2, [r0, #32]
 2997              		.loc 1 3256 0
 2998 010a 8169     		ldr	r1, [r0, #24]
 2999              	.LVL332:
 3000              		.loc 1 3257 0
 3001 010c 026A     		ldr	r2, [r0, #32]
 3002              		.loc 1 3261 0
 3003 010e 40F6FF43 		movw	r3, #3327
 3004 0112 0B40     		ands	r3, r3, r1
 3005              		.loc 1 3257 0
ARM GAS  /tmp/cchgQdZS.s 			page 55


 3006 0114 92B2     		uxth	r2, r2
 3007              	.LVL333:
 3008              		.loc 1 3262 0
 3009 0116 43EA0C33 		orr	r3, r3, ip, lsl #12
 3010              	.LVL334:
 3011              		.loc 1 3266 0
 3012 011a 22F0A002 		bic	r2, r2, #160
 3013              	.LVL335:
 3014              		.loc 1 3262 0
 3015 011e 9BB2     		uxth	r3, r3
 3016              	.LVL336:
 3017              		.loc 1 3267 0
 3018 0120 42F01002 		orr	r2, r2, #16
 3019              	.LVL337:
 3020              		.loc 1 3270 0
 3021 0124 43EA0626 		orr	r6, r3, r6, lsl #8
 3022              	.LVL338:
 3023              		.loc 1 3271 0
 3024 0128 42EA0515 		orr	r5, r2, r5, lsl #4
 3025              	.LVL339:
 3026              		.loc 1 3270 0
 3027 012c 8661     		str	r6, [r0, #24]
 3028              		.loc 1 3271 0
 3029 012e 0562     		str	r5, [r0, #32]
 3030              	.LVL340:
 3031              	.LBE87:
 3032              	.LBE86:
 3033              	.LBB88:
 3034              	.LBB89:
 3035              		.loc 1 2131 0
 3036 0130 8269     		ldr	r2, [r0, #24]
 3037              	.LVL341:
 3038 0132 4FF2FF33 		movw	r3, #62463
 3039              	.LVL342:
 3040 0136 1340     		ands	r3, r3, r2
 3041 0138 8361     		str	r3, [r0, #24]
 3042              		.loc 1 2134 0
 3043 013a 8369     		ldr	r3, [r0, #24]
 3044 013c 3F02     		lsls	r7, r7, #8
 3045              	.LVL343:
 3046 013e BFB2     		uxth	r7, r7
 3047 0140 1F43     		orrs	r7, r7, r3
 3048 0142 8761     		str	r7, [r0, #24]
 3049              	.LBE89:
 3050              	.LBE88:
 3051              		.loc 1 2029 0
 3052 0144 BDE8F003 		pop	{r4, r5, r6, r7, r8, r9}
 3053              	.LVL344:
 3054 0148 7047     		bx	lr
 3055              		.cfi_endproc
 3056              	.LFE164:
 3057              		.size	TIM_PWMIConfig, .-TIM_PWMIConfig
 3058 014a 00BFAFF3 		.section	.text.TIM_GetCapture1,"ax",%progbits
 3058      0080
 3059              		.align	2
 3060              		.p2align 4,,15
 3061              		.global	TIM_GetCapture1
ARM GAS  /tmp/cchgQdZS.s 			page 56


 3062              		.thumb
 3063              		.thumb_func
 3064              		.type	TIM_GetCapture1, %function
 3065              	TIM_GetCapture1:
 3066              	.LFB165:
 3067              		.loc 1 2037 0
 3068              		.cfi_startproc
 3069              		@ args = 0, pretend = 0, frame = 0
 3070              		@ frame_needed = 0, uses_anonymous_args = 0
 3071              		@ link register save eliminated.
 3072              	.LVL345:
 3073              		.loc 1 2042 0
 3074 0000 406B     		ldr	r0, [r0, #52]
 3075              	.LVL346:
 3076              		.loc 1 2043 0
 3077 0002 7047     		bx	lr
 3078              		.cfi_endproc
 3079              	.LFE165:
 3080              		.size	TIM_GetCapture1, .-TIM_GetCapture1
 3081 0004 AFF30080 		.section	.text.TIM_GetCapture2,"ax",%progbits
 3081      AFF30080 
 3081      AFF30080 
 3082              		.align	2
 3083              		.p2align 4,,15
 3084              		.global	TIM_GetCapture2
 3085              		.thumb
 3086              		.thumb_func
 3087              		.type	TIM_GetCapture2, %function
 3088              	TIM_GetCapture2:
 3089              	.LFB166:
 3090              		.loc 1 2052 0
 3091              		.cfi_startproc
 3092              		@ args = 0, pretend = 0, frame = 0
 3093              		@ frame_needed = 0, uses_anonymous_args = 0
 3094              		@ link register save eliminated.
 3095              	.LVL347:
 3096              		.loc 1 2057 0
 3097 0000 806B     		ldr	r0, [r0, #56]
 3098              	.LVL348:
 3099              		.loc 1 2058 0
 3100 0002 7047     		bx	lr
 3101              		.cfi_endproc
 3102              	.LFE166:
 3103              		.size	TIM_GetCapture2, .-TIM_GetCapture2
 3104 0004 AFF30080 		.section	.text.TIM_GetCapture3,"ax",%progbits
 3104      AFF30080 
 3104      AFF30080 
 3105              		.align	2
 3106              		.p2align 4,,15
 3107              		.global	TIM_GetCapture3
 3108              		.thumb
 3109              		.thumb_func
 3110              		.type	TIM_GetCapture3, %function
 3111              	TIM_GetCapture3:
 3112              	.LFB167:
 3113              		.loc 1 2066 0
 3114              		.cfi_startproc
ARM GAS  /tmp/cchgQdZS.s 			page 57


 3115              		@ args = 0, pretend = 0, frame = 0
 3116              		@ frame_needed = 0, uses_anonymous_args = 0
 3117              		@ link register save eliminated.
 3118              	.LVL349:
 3119              		.loc 1 2071 0
 3120 0000 C06B     		ldr	r0, [r0, #60]
 3121              	.LVL350:
 3122              		.loc 1 2072 0
 3123 0002 7047     		bx	lr
 3124              		.cfi_endproc
 3125              	.LFE167:
 3126              		.size	TIM_GetCapture3, .-TIM_GetCapture3
 3127 0004 AFF30080 		.section	.text.TIM_GetCapture4,"ax",%progbits
 3127      AFF30080 
 3127      AFF30080 
 3128              		.align	2
 3129              		.p2align 4,,15
 3130              		.global	TIM_GetCapture4
 3131              		.thumb
 3132              		.thumb_func
 3133              		.type	TIM_GetCapture4, %function
 3134              	TIM_GetCapture4:
 3135              	.LFB168:
 3136              		.loc 1 2080 0
 3137              		.cfi_startproc
 3138              		@ args = 0, pretend = 0, frame = 0
 3139              		@ frame_needed = 0, uses_anonymous_args = 0
 3140              		@ link register save eliminated.
 3141              	.LVL351:
 3142              		.loc 1 2085 0
 3143 0000 006C     		ldr	r0, [r0, #64]
 3144              	.LVL352:
 3145              		.loc 1 2086 0
 3146 0002 7047     		bx	lr
 3147              		.cfi_endproc
 3148              	.LFE168:
 3149              		.size	TIM_GetCapture4, .-TIM_GetCapture4
 3150 0004 AFF30080 		.section	.text.TIM_SetIC1Prescaler,"ax",%progbits
 3150      AFF30080 
 3150      AFF30080 
 3151              		.align	2
 3152              		.p2align 4,,15
 3153              		.global	TIM_SetIC1Prescaler
 3154              		.thumb
 3155              		.thumb_func
 3156              		.type	TIM_SetIC1Prescaler, %function
 3157              	TIM_SetIC1Prescaler:
 3158              	.LFB169:
 3159              		.loc 1 2100 0
 3160              		.cfi_startproc
 3161              		@ args = 0, pretend = 0, frame = 0
 3162              		@ frame_needed = 0, uses_anonymous_args = 0
 3163              		@ link register save eliminated.
 3164              	.LVL353:
 3165              		.loc 1 2106 0
 3166 0000 8269     		ldr	r2, [r0, #24]
 3167 0002 4FF6F373 		movw	r3, #65523
ARM GAS  /tmp/cchgQdZS.s 			page 58


 3168 0006 1340     		ands	r3, r3, r2
 3169 0008 8361     		str	r3, [r0, #24]
 3170              		.loc 1 2109 0
 3171 000a 8369     		ldr	r3, [r0, #24]
 3172 000c 1943     		orrs	r1, r1, r3
 3173              	.LVL354:
 3174 000e 8161     		str	r1, [r0, #24]
 3175 0010 7047     		bx	lr
 3176              		.cfi_endproc
 3177              	.LFE169:
 3178              		.size	TIM_SetIC1Prescaler, .-TIM_SetIC1Prescaler
 3179 0012 00BFAFF3 		.section	.text.TIM_SetIC2Prescaler,"ax",%progbits
 3179      0080AFF3 
 3179      0080AFF3 
 3179      0080
 3180              		.align	2
 3181              		.p2align 4,,15
 3182              		.global	TIM_SetIC2Prescaler
 3183              		.thumb
 3184              		.thumb_func
 3185              		.type	TIM_SetIC2Prescaler, %function
 3186              	TIM_SetIC2Prescaler:
 3187              	.LFB170:
 3188              		.loc 1 2125 0
 3189              		.cfi_startproc
 3190              		@ args = 0, pretend = 0, frame = 0
 3191              		@ frame_needed = 0, uses_anonymous_args = 0
 3192              		@ link register save eliminated.
 3193              	.LVL355:
 3194              		.loc 1 2131 0
 3195 0000 8269     		ldr	r2, [r0, #24]
 3196 0002 4FF2FF33 		movw	r3, #62463
 3197 0006 1340     		ands	r3, r3, r2
 3198 0008 8361     		str	r3, [r0, #24]
 3199              		.loc 1 2134 0
 3200 000a 8269     		ldr	r2, [r0, #24]
 3201 000c 0902     		lsls	r1, r1, #8
 3202              	.LVL356:
 3203 000e 8BB2     		uxth	r3, r1
 3204 0010 1343     		orrs	r3, r3, r2
 3205 0012 8361     		str	r3, [r0, #24]
 3206 0014 7047     		bx	lr
 3207              		.cfi_endproc
 3208              	.LFE170:
 3209              		.size	TIM_SetIC2Prescaler, .-TIM_SetIC2Prescaler
 3210 0016 00BFAFF3 		.section	.text.TIM_SetIC3Prescaler,"ax",%progbits
 3210      0080AFF3 
 3210      0080
 3211              		.align	2
 3212              		.p2align 4,,15
 3213              		.global	TIM_SetIC3Prescaler
 3214              		.thumb
 3215              		.thumb_func
 3216              		.type	TIM_SetIC3Prescaler, %function
 3217              	TIM_SetIC3Prescaler:
 3218              	.LFB171:
 3219              		.loc 1 2149 0
ARM GAS  /tmp/cchgQdZS.s 			page 59


 3220              		.cfi_startproc
 3221              		@ args = 0, pretend = 0, frame = 0
 3222              		@ frame_needed = 0, uses_anonymous_args = 0
 3223              		@ link register save eliminated.
 3224              	.LVL357:
 3225              		.loc 1 2155 0
 3226 0000 C269     		ldr	r2, [r0, #28]
 3227 0002 4FF6F373 		movw	r3, #65523
 3228 0006 1340     		ands	r3, r3, r2
 3229 0008 C361     		str	r3, [r0, #28]
 3230              		.loc 1 2158 0
 3231 000a C369     		ldr	r3, [r0, #28]
 3232 000c 1943     		orrs	r1, r1, r3
 3233              	.LVL358:
 3234 000e C161     		str	r1, [r0, #28]
 3235 0010 7047     		bx	lr
 3236              		.cfi_endproc
 3237              	.LFE171:
 3238              		.size	TIM_SetIC3Prescaler, .-TIM_SetIC3Prescaler
 3239 0012 00BFAFF3 		.section	.text.TIM_SetIC4Prescaler,"ax",%progbits
 3239      0080AFF3 
 3239      0080AFF3 
 3239      0080
 3240              		.align	2
 3241              		.p2align 4,,15
 3242              		.global	TIM_SetIC4Prescaler
 3243              		.thumb
 3244              		.thumb_func
 3245              		.type	TIM_SetIC4Prescaler, %function
 3246              	TIM_SetIC4Prescaler:
 3247              	.LFB172:
 3248              		.loc 1 2173 0
 3249              		.cfi_startproc
 3250              		@ args = 0, pretend = 0, frame = 0
 3251              		@ frame_needed = 0, uses_anonymous_args = 0
 3252              		@ link register save eliminated.
 3253              	.LVL359:
 3254              		.loc 1 2179 0
 3255 0000 C269     		ldr	r2, [r0, #28]
 3256 0002 4FF2FF33 		movw	r3, #62463
 3257 0006 1340     		ands	r3, r3, r2
 3258 0008 C361     		str	r3, [r0, #28]
 3259              		.loc 1 2182 0
 3260 000a C269     		ldr	r2, [r0, #28]
 3261 000c 0902     		lsls	r1, r1, #8
 3262              	.LVL360:
 3263 000e 8BB2     		uxth	r3, r1
 3264 0010 1343     		orrs	r3, r3, r2
 3265 0012 C361     		str	r3, [r0, #28]
 3266 0014 7047     		bx	lr
 3267              		.cfi_endproc
 3268              	.LFE172:
 3269              		.size	TIM_SetIC4Prescaler, .-TIM_SetIC4Prescaler
 3270 0016 00BFAFF3 		.section	.text.TIM_BDTRConfig,"ax",%progbits
 3270      0080AFF3 
 3270      0080
 3271              		.align	2
ARM GAS  /tmp/cchgQdZS.s 			page 60


 3272              		.p2align 4,,15
 3273              		.global	TIM_BDTRConfig
 3274              		.thumb
 3275              		.thumb_func
 3276              		.type	TIM_BDTRConfig, %function
 3277              	TIM_BDTRConfig:
 3278              	.LFB173:
 3279              		.loc 1 2226 0
 3280              		.cfi_startproc
 3281              		@ args = 0, pretend = 0, frame = 0
 3282              		@ frame_needed = 0, uses_anonymous_args = 0
 3283              		@ link register save eliminated.
 3284              	.LVL361:
 3285              		.loc 1 2240 0
 3286 0000 B1F802C0 		ldrh	ip, [r1, #2]
 3287 0004 0B88     		ldrh	r3, [r1]
 3288 0006 8A89     		ldrh	r2, [r1, #12]
 3289              		.loc 1 2226 0
 3290 0008 F0B4     		push	{r4, r5, r6, r7}
 3291              		.cfi_def_cfa_offset 16
 3292              		.cfi_offset 4, -16
 3293              		.cfi_offset 5, -12
 3294              		.cfi_offset 6, -8
 3295              		.cfi_offset 7, -4
 3296              		.loc 1 2240 0
 3297 000a 8F88     		ldrh	r7, [r1, #4]
 3298 000c CE88     		ldrh	r6, [r1, #6]
 3299 000e 0D89     		ldrh	r5, [r1, #8]
 3300 0010 4C89     		ldrh	r4, [r1, #10]
 3301 0012 4CEA0303 		orr	r3, ip, r3
 3302 0016 3B43     		orrs	r3, r3, r7
 3303 0018 3343     		orrs	r3, r3, r6
 3304 001a 2B43     		orrs	r3, r3, r5
 3305 001c 2343     		orrs	r3, r3, r4
 3306 001e 1343     		orrs	r3, r3, r2
 3307 0020 9BB2     		uxth	r3, r3
 3308              		.loc 1 2238 0
 3309 0022 4364     		str	r3, [r0, #68]
 3310              		.loc 1 2242 0
 3311 0024 F0BC     		pop	{r4, r5, r6, r7}
 3312 0026 7047     		bx	lr
 3313              		.cfi_endproc
 3314              	.LFE173:
 3315              		.size	TIM_BDTRConfig, .-TIM_BDTRConfig
 3316 0028 AFF30080 		.section	.text.TIM_BDTRStructInit,"ax",%progbits
 3316      AFF30080 
 3317              		.align	2
 3318              		.p2align 4,,15
 3319              		.global	TIM_BDTRStructInit
 3320              		.thumb
 3321              		.thumb_func
 3322              		.type	TIM_BDTRStructInit, %function
 3323              	TIM_BDTRStructInit:
 3324              	.LFB174:
 3325              		.loc 1 2251 0
 3326              		.cfi_startproc
 3327              		@ args = 0, pretend = 0, frame = 0
ARM GAS  /tmp/cchgQdZS.s 			page 61


 3328              		@ frame_needed = 0, uses_anonymous_args = 0
 3329              		@ link register save eliminated.
 3330              	.LVL362:
 3331              		.loc 1 2253 0
 3332 0000 0023     		movs	r3, #0
 3333 0002 0380     		strh	r3, [r0]	@ movhi
 3334              		.loc 1 2254 0
 3335 0004 4380     		strh	r3, [r0, #2]	@ movhi
 3336              		.loc 1 2255 0
 3337 0006 8380     		strh	r3, [r0, #4]	@ movhi
 3338              		.loc 1 2256 0
 3339 0008 C380     		strh	r3, [r0, #6]	@ movhi
 3340              		.loc 1 2257 0
 3341 000a 0381     		strh	r3, [r0, #8]	@ movhi
 3342              		.loc 1 2258 0
 3343 000c 4381     		strh	r3, [r0, #10]	@ movhi
 3344              		.loc 1 2259 0
 3345 000e 8381     		strh	r3, [r0, #12]	@ movhi
 3346 0010 7047     		bx	lr
 3347              		.cfi_endproc
 3348              	.LFE174:
 3349              		.size	TIM_BDTRStructInit, .-TIM_BDTRStructInit
 3350 0012 00BFAFF3 		.section	.text.TIM_CtrlPWMOutputs,"ax",%progbits
 3350      0080AFF3 
 3350      0080AFF3 
 3350      0080
 3351              		.align	2
 3352              		.p2align 4,,15
 3353              		.global	TIM_CtrlPWMOutputs
 3354              		.thumb
 3355              		.thumb_func
 3356              		.type	TIM_CtrlPWMOutputs, %function
 3357              	TIM_CtrlPWMOutputs:
 3358              	.LFB175:
 3359              		.loc 1 2270 0
 3360              		.cfi_startproc
 3361              		@ args = 0, pretend = 0, frame = 0
 3362              		@ frame_needed = 0, uses_anonymous_args = 0
 3363              		@ link register save eliminated.
 3364              	.LVL363:
 3365              		.loc 1 2278 0
 3366 0000 436C     		ldr	r3, [r0, #68]
 3367              		.loc 1 2275 0
 3368 0002 19B9     		cbnz	r1, .L156
 3369              		.loc 1 2283 0
 3370 0004 C3F30E03 		ubfx	r3, r3, #0, #15
 3371 0008 4364     		str	r3, [r0, #68]
 3372 000a 7047     		bx	lr
 3373              	.L156:
 3374              		.loc 1 2278 0
 3375 000c 43F40043 		orr	r3, r3, #32768
 3376 0010 4364     		str	r3, [r0, #68]
 3377 0012 7047     		bx	lr
 3378              		.cfi_endproc
 3379              	.LFE175:
 3380              		.size	TIM_CtrlPWMOutputs, .-TIM_CtrlPWMOutputs
 3381 0014 AFF30080 		.section	.text.TIM_SelectCOM,"ax",%progbits
ARM GAS  /tmp/cchgQdZS.s 			page 62


 3381      AFF30080 
 3381      AFF30080 
 3382              		.align	2
 3383              		.p2align 4,,15
 3384              		.global	TIM_SelectCOM
 3385              		.thumb
 3386              		.thumb_func
 3387              		.type	TIM_SelectCOM, %function
 3388              	TIM_SelectCOM:
 3389              	.LFB176:
 3390              		.loc 1 2295 0
 3391              		.cfi_startproc
 3392              		@ args = 0, pretend = 0, frame = 0
 3393              		@ frame_needed = 0, uses_anonymous_args = 0
 3394              		@ link register save eliminated.
 3395              	.LVL364:
 3396              		.loc 1 2300 0
 3397 0000 29B9     		cbnz	r1, .L160
 3398              		.loc 1 2308 0
 3399 0002 4268     		ldr	r2, [r0, #4]
 3400 0004 4FF6FB73 		movw	r3, #65531
 3401 0008 1340     		ands	r3, r3, r2
 3402 000a 4360     		str	r3, [r0, #4]
 3403 000c 7047     		bx	lr
 3404              	.L160:
 3405              		.loc 1 2303 0
 3406 000e 4368     		ldr	r3, [r0, #4]
 3407 0010 43F00403 		orr	r3, r3, #4
 3408 0014 4360     		str	r3, [r0, #4]
 3409 0016 7047     		bx	lr
 3410              		.cfi_endproc
 3411              	.LFE176:
 3412              		.size	TIM_SelectCOM, .-TIM_SelectCOM
 3413 0018 AFF30080 		.section	.text.TIM_CCPreloadControl,"ax",%progbits
 3413      AFF30080 
 3414              		.align	2
 3415              		.p2align 4,,15
 3416              		.global	TIM_CCPreloadControl
 3417              		.thumb
 3418              		.thumb_func
 3419              		.type	TIM_CCPreloadControl, %function
 3420              	TIM_CCPreloadControl:
 3421              	.LFB177:
 3422              		.loc 1 2320 0
 3423              		.cfi_startproc
 3424              		@ args = 0, pretend = 0, frame = 0
 3425              		@ frame_needed = 0, uses_anonymous_args = 0
 3426              		@ link register save eliminated.
 3427              	.LVL365:
 3428              		.loc 1 2324 0
 3429 0000 29B9     		cbnz	r1, .L164
 3430              		.loc 1 2332 0
 3431 0002 4268     		ldr	r2, [r0, #4]
 3432 0004 4FF6FE73 		movw	r3, #65534
 3433 0008 1340     		ands	r3, r3, r2
 3434 000a 4360     		str	r3, [r0, #4]
 3435 000c 7047     		bx	lr
ARM GAS  /tmp/cchgQdZS.s 			page 63


 3436              	.L164:
 3437              		.loc 1 2327 0
 3438 000e 4368     		ldr	r3, [r0, #4]
 3439 0010 43F00103 		orr	r3, r3, #1
 3440 0014 4360     		str	r3, [r0, #4]
 3441 0016 7047     		bx	lr
 3442              		.cfi_endproc
 3443              	.LFE177:
 3444              		.size	TIM_CCPreloadControl, .-TIM_CCPreloadControl
 3445 0018 AFF30080 		.section	.text.TIM_ITConfig,"ax",%progbits
 3445      AFF30080 
 3446              		.align	2
 3447              		.p2align 4,,15
 3448              		.global	TIM_ITConfig
 3449              		.thumb
 3450              		.thumb_func
 3451              		.type	TIM_ITConfig, %function
 3452              	TIM_ITConfig:
 3453              	.LFB178:
 3454              		.loc 1 2377 0
 3455              		.cfi_startproc
 3456              		@ args = 0, pretend = 0, frame = 0
 3457              		@ frame_needed = 0, uses_anonymous_args = 0
 3458              		@ link register save eliminated.
 3459              	.LVL366:
 3460              		.loc 1 2383 0
 3461 0000 2AB9     		cbnz	r2, .L168
 3462              		.loc 1 2391 0
 3463 0002 C368     		ldr	r3, [r0, #12]
 3464 0004 C943     		mvns	r1, r1
 3465              	.LVL367:
 3466 0006 89B2     		uxth	r1, r1
 3467 0008 1940     		ands	r1, r1, r3
 3468 000a C160     		str	r1, [r0, #12]
 3469 000c 7047     		bx	lr
 3470              	.LVL368:
 3471              	.L168:
 3472              		.loc 1 2386 0
 3473 000e C368     		ldr	r3, [r0, #12]
 3474 0010 1943     		orrs	r1, r1, r3
 3475              	.LVL369:
 3476 0012 C160     		str	r1, [r0, #12]
 3477 0014 7047     		bx	lr
 3478              		.cfi_endproc
 3479              	.LFE178:
 3480              		.size	TIM_ITConfig, .-TIM_ITConfig
 3481 0016 00BFAFF3 		.section	.text.TIM_GenerateEvent,"ax",%progbits
 3481      0080AFF3 
 3481      0080
 3482              		.align	2
 3483              		.p2align 4,,15
 3484              		.global	TIM_GenerateEvent
 3485              		.thumb
 3486              		.thumb_func
 3487              		.type	TIM_GenerateEvent, %function
 3488              	TIM_GenerateEvent:
 3489              	.LFB179:
ARM GAS  /tmp/cchgQdZS.s 			page 64


 3490              		.loc 1 2415 0
 3491              		.cfi_startproc
 3492              		@ args = 0, pretend = 0, frame = 0
 3493              		@ frame_needed = 0, uses_anonymous_args = 0
 3494              		@ link register save eliminated.
 3495              	.LVL370:
 3496              		.loc 1 2421 0
 3497 0000 4161     		str	r1, [r0, #20]
 3498 0002 7047     		bx	lr
 3499              		.cfi_endproc
 3500              	.LFE179:
 3501              		.size	TIM_GenerateEvent, .-TIM_GenerateEvent
 3502 0004 AFF30080 		.section	.text.TIM_GetFlagStatus,"ax",%progbits
 3502      AFF30080 
 3502      AFF30080 
 3503              		.align	2
 3504              		.p2align 4,,15
 3505              		.global	TIM_GetFlagStatus
 3506              		.thumb
 3507              		.thumb_func
 3508              		.type	TIM_GetFlagStatus, %function
 3509              	TIM_GetFlagStatus:
 3510              	.LFB180:
 3511              		.loc 1 2448 0
 3512              		.cfi_startproc
 3513              		@ args = 0, pretend = 0, frame = 0
 3514              		@ frame_needed = 0, uses_anonymous_args = 0
 3515              		@ link register save eliminated.
 3516              	.LVL371:
 3517              		.loc 1 2455 0
 3518 0000 0369     		ldr	r3, [r0, #16]
 3519              	.LVL372:
 3520 0002 1942     		tst	r1, r3
 3521              		.loc 1 2464 0
 3522 0004 0CBF     		ite	eq
 3523 0006 0020     		moveq	r0, #0
 3524 0008 0120     		movne	r0, #1
 3525              	.LVL373:
 3526 000a 7047     		bx	lr
 3527              		.cfi_endproc
 3528              	.LFE180:
 3529              		.size	TIM_GetFlagStatus, .-TIM_GetFlagStatus
 3530 000c AFF30080 		.section	.text.TIM_ClearFlag,"ax",%progbits
 3531              		.align	2
 3532              		.p2align 4,,15
 3533              		.global	TIM_ClearFlag
 3534              		.thumb
 3535              		.thumb_func
 3536              		.type	TIM_ClearFlag, %function
 3537              	TIM_ClearFlag:
 3538              	.LFB181:
 3539              		.loc 1 2490 0
 3540              		.cfi_startproc
 3541              		@ args = 0, pretend = 0, frame = 0
 3542              		@ frame_needed = 0, uses_anonymous_args = 0
 3543              		@ link register save eliminated.
 3544              	.LVL374:
ARM GAS  /tmp/cchgQdZS.s 			page 65


 3545              		.loc 1 2495 0
 3546 0000 C943     		mvns	r1, r1
 3547              	.LVL375:
 3548 0002 89B2     		uxth	r1, r1
 3549 0004 0161     		str	r1, [r0, #16]
 3550 0006 7047     		bx	lr
 3551              		.cfi_endproc
 3552              	.LFE181:
 3553              		.size	TIM_ClearFlag, .-TIM_ClearFlag
 3554 0008 AFF30080 		.section	.text.TIM_GetITStatus,"ax",%progbits
 3554      AFF30080 
 3555              		.align	2
 3556              		.p2align 4,,15
 3557              		.global	TIM_GetITStatus
 3558              		.thumb
 3559              		.thumb_func
 3560              		.type	TIM_GetITStatus, %function
 3561              	TIM_GetITStatus:
 3562              	.LFB182:
 3563              		.loc 1 2518 0
 3564              		.cfi_startproc
 3565              		@ args = 0, pretend = 0, frame = 0
 3566              		@ frame_needed = 0, uses_anonymous_args = 0
 3567              		@ link register save eliminated.
 3568              	.LVL376:
 3569              		.loc 1 2525 0
 3570 0000 0369     		ldr	r3, [r0, #16]
 3571              	.LVL377:
 3572              		.loc 1 2527 0
 3573 0002 C268     		ldr	r2, [r0, #12]
 3574              	.LVL378:
 3575              		.loc 1 2528 0
 3576 0004 11EA0300 		ands	r0, r1, r3
 3577              	.LVL379:
 3578 0008 03D0     		beq	.L173
 3579              		.loc 1 2528 0 is_stmt 0 discriminator 1
 3580 000a 1142     		tst	r1, r2
 3581              		.loc 1 2530 0 is_stmt 1 discriminator 1
 3582 000c 0CBF     		ite	eq
 3583 000e 0020     		moveq	r0, #0
 3584 0010 0120     		movne	r0, #1
 3585              	.L173:
 3586              	.LVL380:
 3587              		.loc 1 2537 0
 3588 0012 7047     		bx	lr
 3589              		.cfi_endproc
 3590              	.LFE182:
 3591              		.size	TIM_GetITStatus, .-TIM_GetITStatus
 3592 0014 AFF30080 		.section	.text.TIM_ClearITPendingBit,"ax",%progbits
 3592      AFF30080 
 3592      AFF30080 
 3593              		.align	2
 3594              		.p2align 4,,15
 3595              		.global	TIM_ClearITPendingBit
 3596              		.thumb
 3597              		.thumb_func
 3598              		.type	TIM_ClearITPendingBit, %function
ARM GAS  /tmp/cchgQdZS.s 			page 66


 3599              	TIM_ClearITPendingBit:
 3600              	.LFB183:
 3601              		.loc 1 2559 0
 3602              		.cfi_startproc
 3603              		@ args = 0, pretend = 0, frame = 0
 3604              		@ frame_needed = 0, uses_anonymous_args = 0
 3605              		@ link register save eliminated.
 3606              	.LVL381:
 3607              		.loc 1 2564 0
 3608 0000 C943     		mvns	r1, r1
 3609              	.LVL382:
 3610 0002 89B2     		uxth	r1, r1
 3611 0004 0161     		str	r1, [r0, #16]
 3612 0006 7047     		bx	lr
 3613              		.cfi_endproc
 3614              	.LFE183:
 3615              		.size	TIM_ClearITPendingBit, .-TIM_ClearITPendingBit
 3616 0008 AFF30080 		.section	.text.TIM_DMAConfig,"ax",%progbits
 3616      AFF30080 
 3617              		.align	2
 3618              		.p2align 4,,15
 3619              		.global	TIM_DMAConfig
 3620              		.thumb
 3621              		.thumb_func
 3622              		.type	TIM_DMAConfig, %function
 3623              	TIM_DMAConfig:
 3624              	.LFB184:
 3625              		.loc 1 2596 0
 3626              		.cfi_startproc
 3627              		@ args = 0, pretend = 0, frame = 0
 3628              		@ frame_needed = 0, uses_anonymous_args = 0
 3629              		@ link register save eliminated.
 3630              	.LVL383:
 3631              		.loc 1 2603 0
 3632 0000 0A43     		orrs	r2, r2, r1
 3633              	.LVL384:
 3634 0002 8264     		str	r2, [r0, #72]
 3635 0004 7047     		bx	lr
 3636              		.cfi_endproc
 3637              	.LFE184:
 3638              		.size	TIM_DMAConfig, .-TIM_DMAConfig
 3639 0006 00BFAFF3 		.section	.text.TIM_DMACmd,"ax",%progbits
 3639      0080AFF3 
 3639      0080
 3640              		.align	2
 3641              		.p2align 4,,15
 3642              		.global	TIM_DMACmd
 3643              		.thumb
 3644              		.thumb_func
 3645              		.type	TIM_DMACmd, %function
 3646              	TIM_DMACmd:
 3647              	.LFB185:
 3648              		.loc 1 2623 0
 3649              		.cfi_startproc
 3650              		@ args = 0, pretend = 0, frame = 0
 3651              		@ frame_needed = 0, uses_anonymous_args = 0
 3652              		@ link register save eliminated.
ARM GAS  /tmp/cchgQdZS.s 			page 67


 3653              	.LVL385:
 3654              		.loc 1 2629 0
 3655 0000 2AB9     		cbnz	r2, .L180
 3656              		.loc 1 2637 0
 3657 0002 C368     		ldr	r3, [r0, #12]
 3658 0004 C943     		mvns	r1, r1
 3659              	.LVL386:
 3660 0006 89B2     		uxth	r1, r1
 3661 0008 1940     		ands	r1, r1, r3
 3662 000a C160     		str	r1, [r0, #12]
 3663 000c 7047     		bx	lr
 3664              	.LVL387:
 3665              	.L180:
 3666              		.loc 1 2632 0
 3667 000e C368     		ldr	r3, [r0, #12]
 3668 0010 1943     		orrs	r1, r1, r3
 3669              	.LVL388:
 3670 0012 C160     		str	r1, [r0, #12]
 3671 0014 7047     		bx	lr
 3672              		.cfi_endproc
 3673              	.LFE185:
 3674              		.size	TIM_DMACmd, .-TIM_DMACmd
 3675 0016 00BFAFF3 		.section	.text.TIM_SelectCCDMA,"ax",%progbits
 3675      0080AFF3 
 3675      0080
 3676              		.align	2
 3677              		.p2align 4,,15
 3678              		.global	TIM_SelectCCDMA
 3679              		.thumb
 3680              		.thumb_func
 3681              		.type	TIM_SelectCCDMA, %function
 3682              	TIM_SelectCCDMA:
 3683              	.LFB186:
 3684              		.loc 1 2649 0
 3685              		.cfi_startproc
 3686              		@ args = 0, pretend = 0, frame = 0
 3687              		@ frame_needed = 0, uses_anonymous_args = 0
 3688              		@ link register save eliminated.
 3689              	.LVL389:
 3690              		.loc 1 2654 0
 3691 0000 29B9     		cbnz	r1, .L184
 3692              		.loc 1 2662 0
 3693 0002 4268     		ldr	r2, [r0, #4]
 3694 0004 4FF6F773 		movw	r3, #65527
 3695 0008 1340     		ands	r3, r3, r2
 3696 000a 4360     		str	r3, [r0, #4]
 3697 000c 7047     		bx	lr
 3698              	.L184:
 3699              		.loc 1 2657 0
 3700 000e 4368     		ldr	r3, [r0, #4]
 3701 0010 43F00803 		orr	r3, r3, #8
 3702 0014 4360     		str	r3, [r0, #4]
 3703 0016 7047     		bx	lr
 3704              		.cfi_endproc
 3705              	.LFE186:
 3706              		.size	TIM_SelectCCDMA, .-TIM_SelectCCDMA
 3707 0018 AFF30080 		.section	.text.TIM_InternalClockConfig,"ax",%progbits
ARM GAS  /tmp/cchgQdZS.s 			page 68


 3707      AFF30080 
 3708              		.align	2
 3709              		.p2align 4,,15
 3710              		.global	TIM_InternalClockConfig
 3711              		.thumb
 3712              		.thumb_func
 3713              		.type	TIM_InternalClockConfig, %function
 3714              	TIM_InternalClockConfig:
 3715              	.LFB187:
 3716              		.loc 1 2688 0
 3717              		.cfi_startproc
 3718              		@ args = 0, pretend = 0, frame = 0
 3719              		@ frame_needed = 0, uses_anonymous_args = 0
 3720              		@ link register save eliminated.
 3721              	.LVL390:
 3722              		.loc 1 2693 0
 3723 0000 8268     		ldr	r2, [r0, #8]
 3724 0002 4FF6F873 		movw	r3, #65528
 3725 0006 1340     		ands	r3, r3, r2
 3726 0008 8360     		str	r3, [r0, #8]
 3727 000a 7047     		bx	lr
 3728              		.cfi_endproc
 3729              	.LFE187:
 3730              		.size	TIM_InternalClockConfig, .-TIM_InternalClockConfig
 3731 000c AFF30080 		.section	.text.TIM_ITRxExternalClockConfig,"ax",%progbits
 3732              		.align	2
 3733              		.p2align 4,,15
 3734              		.global	TIM_ITRxExternalClockConfig
 3735              		.thumb
 3736              		.thumb_func
 3737              		.type	TIM_ITRxExternalClockConfig, %function
 3738              	TIM_ITRxExternalClockConfig:
 3739              	.LFB188:
 3740              		.loc 1 2709 0
 3741              		.cfi_startproc
 3742              		@ args = 0, pretend = 0, frame = 0
 3743              		@ frame_needed = 0, uses_anonymous_args = 0
 3744              		@ link register save eliminated.
 3745              	.LVL391:
 3746              	.LBB90:
 3747              	.LBB91:
 3748              		.loc 1 2905 0
 3749 0000 8268     		ldr	r2, [r0, #8]
 3750              	.LVL392:
 3751              		.loc 1 2908 0
 3752 0002 4FF68F73 		movw	r3, #65423
 3753 0006 1340     		ands	r3, r3, r2
 3754              	.LVL393:
 3755              		.loc 1 2914 0
 3756 0008 1943     		orrs	r1, r1, r3
 3757              	.LVL394:
 3758 000a 8160     		str	r1, [r0, #8]
 3759              	.LBE91:
 3760              	.LBE90:
 3761              		.loc 1 2718 0
 3762 000c 8368     		ldr	r3, [r0, #8]
 3763              	.LVL395:
ARM GAS  /tmp/cchgQdZS.s 			page 69


 3764 000e 43F00703 		orr	r3, r3, #7
 3765 0012 8360     		str	r3, [r0, #8]
 3766 0014 7047     		bx	lr
 3767              		.cfi_endproc
 3768              	.LFE188:
 3769              		.size	TIM_ITRxExternalClockConfig, .-TIM_ITRxExternalClockConfig
 3770 0016 00BFAFF3 		.section	.text.TIM_TIxExternalClockConfig,"ax",%progbits
 3770      0080AFF3 
 3770      0080
 3771              		.align	2
 3772              		.p2align 4,,15
 3773              		.global	TIM_TIxExternalClockConfig
 3774              		.thumb
 3775              		.thumb_func
 3776              		.type	TIM_TIxExternalClockConfig, %function
 3777              	TIM_TIxExternalClockConfig:
 3778              	.LFB189:
 3779              		.loc 1 2740 0
 3780              		.cfi_startproc
 3781              		@ args = 0, pretend = 0, frame = 0
 3782              		@ frame_needed = 0, uses_anonymous_args = 0
 3783              		@ link register save eliminated.
 3784              	.LVL396:
 3785              		.loc 1 2747 0
 3786 0000 6029     		cmp	r1, #96
 3787              		.loc 1 2740 0
 3788 0002 70B4     		push	{r4, r5, r6}
 3789              		.cfi_def_cfa_offset 12
 3790              		.cfi_offset 4, -12
 3791              		.cfi_offset 5, -8
 3792              		.cfi_offset 6, -4
 3793              	.LBB92:
 3794              	.LBB93:
 3795              		.loc 1 3255 0
 3796 0004 056A     		ldr	r5, [r0, #32]
 3797              	.LBE93:
 3798              	.LBE92:
 3799              		.loc 1 2747 0
 3800 0006 21D0     		beq	.L190
 3801              	.LVL397:
 3802              	.LBB95:
 3803              	.LBB96:
 3804              		.loc 1 3214 0
 3805 0008 4FF6FE74 		movw	r4, #65534
 3806 000c 2C40     		ands	r4, r4, r5
 3807 000e 0462     		str	r4, [r0, #32]
 3808              		.loc 1 3215 0
 3809 0010 8569     		ldr	r5, [r0, #24]
 3810              		.loc 1 3216 0
 3811 0012 046A     		ldr	r4, [r0, #32]
 3812              		.loc 1 3215 0
 3813 0014 ADB2     		uxth	r5, r5
 3814              	.LVL398:
 3815              		.loc 1 3219 0
 3816 0016 25F0F305 		bic	r5, r5, #243
 3817              	.LVL399:
 3818              		.loc 1 3216 0
ARM GAS  /tmp/cchgQdZS.s 			page 70


 3819 001a A4B2     		uxth	r4, r4
 3820              	.LVL400:
 3821              		.loc 1 3220 0
 3822 001c 45F00105 		orr	r5, r5, #1
 3823              	.LVL401:
 3824              		.loc 1 3223 0
 3825 0020 24F00A04 		bic	r4, r4, #10
 3826              	.LVL402:
 3827              		.loc 1 3220 0
 3828 0024 45EA0313 		orr	r3, r5, r3, lsl #4
 3829              	.LVL403:
 3830              		.loc 1 3224 0
 3831 0028 44F00104 		orr	r4, r4, #1
 3832              	.LVL404:
 3833              		.loc 1 3227 0
 3834 002c 9BB2     		uxth	r3, r3
 3835              		.loc 1 3228 0
 3836 002e 2243     		orrs	r2, r2, r4
 3837              	.LVL405:
 3838              		.loc 1 3227 0
 3839 0030 8361     		str	r3, [r0, #24]
 3840              		.loc 1 3228 0
 3841 0032 0262     		str	r2, [r0, #32]
 3842              	.LVL406:
 3843              	.L189:
 3844              	.LBE96:
 3845              	.LBE95:
 3846              	.LBB97:
 3847              	.LBB98:
 3848              		.loc 1 2905 0
 3849 0034 8268     		ldr	r2, [r0, #8]
 3850              	.LVL407:
 3851              		.loc 1 2908 0
 3852 0036 4FF68F73 		movw	r3, #65423
 3853 003a 1340     		ands	r3, r3, r2
 3854              	.LVL408:
 3855              		.loc 1 2914 0
 3856 003c 0B43     		orrs	r3, r3, r1
 3857              	.LVL409:
 3858 003e 8360     		str	r3, [r0, #8]
 3859              	.LBE98:
 3860              	.LBE97:
 3861              		.loc 1 2758 0
 3862 0040 8368     		ldr	r3, [r0, #8]
 3863 0042 43F00703 		orr	r3, r3, #7
 3864 0046 8360     		str	r3, [r0, #8]
 3865              		.loc 1 2759 0
 3866 0048 70BC     		pop	{r4, r5, r6}
 3867 004a 7047     		bx	lr
 3868              	.LVL410:
 3869              	.L190:
 3870              	.LBB99:
 3871              	.LBB94:
 3872              		.loc 1 3255 0
 3873 004c 4FF6EF74 		movw	r4, #65519
 3874 0050 2C40     		ands	r4, r4, r5
 3875 0052 0462     		str	r4, [r0, #32]
ARM GAS  /tmp/cchgQdZS.s 			page 71


 3876              		.loc 1 3256 0
 3877 0054 8669     		ldr	r6, [r0, #24]
 3878              	.LVL411:
 3879              		.loc 1 3257 0
 3880 0056 056A     		ldr	r5, [r0, #32]
 3881              		.loc 1 3261 0
 3882 0058 40F6FF44 		movw	r4, #3327
 3883              		.loc 1 3257 0
 3884 005c ADB2     		uxth	r5, r5
 3885              	.LVL412:
 3886              		.loc 1 3261 0
 3887 005e 3440     		ands	r4, r4, r6
 3888              	.LVL413:
 3889              		.loc 1 3266 0
 3890 0060 25F0A005 		bic	r5, r5, #160
 3891              	.LVL414:
 3892              		.loc 1 3262 0
 3893 0064 44F48074 		orr	r4, r4, #256
 3894              	.LVL415:
 3895              		.loc 1 3267 0
 3896 0068 45F01005 		orr	r5, r5, #16
 3897              	.LVL416:
 3898              		.loc 1 3263 0
 3899 006c 44EA0333 		orr	r3, r4, r3, lsl #12
 3900              	.LVL417:
 3901              		.loc 1 3267 0
 3902 0070 45EA0212 		orr	r2, r5, r2, lsl #4
 3903              	.LVL418:
 3904              		.loc 1 3270 0
 3905 0074 9BB2     		uxth	r3, r3
 3906              		.loc 1 3271 0
 3907 0076 92B2     		uxth	r2, r2
 3908              		.loc 1 3270 0
 3909 0078 8361     		str	r3, [r0, #24]
 3910              		.loc 1 3271 0
 3911 007a 0262     		str	r2, [r0, #32]
 3912 007c DAE7     		b	.L189
 3913              	.LBE94:
 3914              	.LBE99:
 3915              		.cfi_endproc
 3916              	.LFE189:
 3917              		.size	TIM_TIxExternalClockConfig, .-TIM_TIxExternalClockConfig
 3918 007e 00BF     		.section	.text.TIM_ETRClockMode1Config,"ax",%progbits
 3919              		.align	2
 3920              		.p2align 4,,15
 3921              		.global	TIM_ETRClockMode1Config
 3922              		.thumb
 3923              		.thumb_func
 3924              		.type	TIM_ETRClockMode1Config, %function
 3925              	TIM_ETRClockMode1Config:
 3926              	.LFB190:
 3927              		.loc 1 2780 0
 3928              		.cfi_startproc
 3929              		@ args = 0, pretend = 0, frame = 0
 3930              		@ frame_needed = 0, uses_anonymous_args = 0
 3931              		@ link register save eliminated.
 3932              	.LVL419:
ARM GAS  /tmp/cchgQdZS.s 			page 72


 3933 0000 10B4     		push	{r4}
 3934              		.cfi_def_cfa_offset 4
 3935              		.cfi_offset 4, -4
 3936              	.LBB100:
 3937              	.LBB101:
 3938              		.loc 1 3027 0
 3939 0002 8468     		ldr	r4, [r0, #8]
 3940              	.LVL420:
 3941              		.loc 1 3033 0
 3942 0004 42EA0323 		orr	r3, r2, r3, lsl #8
 3943              	.LVL421:
 3944              		.loc 1 3030 0
 3945 0008 E4B2     		uxtb	r4, r4
 3946              	.LVL422:
 3947              		.loc 1 3033 0
 3948 000a 2343     		orrs	r3, r3, r4
 3949 000c 9BB2     		uxth	r3, r3
 3950              	.LVL423:
 3951              		.loc 1 3036 0
 3952 000e 1943     		orrs	r1, r1, r3
 3953              	.LVL424:
 3954 0010 8160     		str	r1, [r0, #8]
 3955              	.LBE101:
 3956              	.LBE100:
 3957              		.loc 1 2792 0
 3958 0012 8368     		ldr	r3, [r0, #8]
 3959              	.LVL425:
 3960              		.loc 1 2806 0
 3961 0014 5DF8044B 		ldr	r4, [sp], #4
 3962              		.loc 1 2801 0
 3963 0018 23F07703 		bic	r3, r3, #119
 3964              	.LVL426:
 3965 001c 9BB2     		uxth	r3, r3
 3966              	.LVL427:
 3967              		.loc 1 2805 0
 3968 001e 43F07703 		orr	r3, r3, #119
 3969              	.LVL428:
 3970 0022 8360     		str	r3, [r0, #8]
 3971              		.loc 1 2806 0
 3972 0024 7047     		bx	lr
 3973              		.cfi_endproc
 3974              	.LFE190:
 3975              		.size	TIM_ETRClockMode1Config, .-TIM_ETRClockMode1Config
 3976 0026 00BFAFF3 		.section	.text.TIM_ETRClockMode2Config,"ax",%progbits
 3976      0080AFF3 
 3976      0080
 3977              		.align	2
 3978              		.p2align 4,,15
 3979              		.global	TIM_ETRClockMode2Config
 3980              		.thumb
 3981              		.thumb_func
 3982              		.type	TIM_ETRClockMode2Config, %function
 3983              	TIM_ETRClockMode2Config:
 3984              	.LFB191:
 3985              		.loc 1 2827 0
 3986              		.cfi_startproc
 3987              		@ args = 0, pretend = 0, frame = 0
ARM GAS  /tmp/cchgQdZS.s 			page 73


 3988              		@ frame_needed = 0, uses_anonymous_args = 0
 3989              		@ link register save eliminated.
 3990              	.LVL429:
 3991 0000 10B4     		push	{r4}
 3992              		.cfi_def_cfa_offset 4
 3993              		.cfi_offset 4, -4
 3994              	.LBB102:
 3995              	.LBB103:
 3996              		.loc 1 3027 0
 3997 0002 8468     		ldr	r4, [r0, #8]
 3998              	.LVL430:
 3999              		.loc 1 3033 0
 4000 0004 42EA0323 		orr	r3, r2, r3, lsl #8
 4001              	.LVL431:
 4002              		.loc 1 3030 0
 4003 0008 E4B2     		uxtb	r4, r4
 4004              	.LVL432:
 4005              		.loc 1 3033 0
 4006 000a 2343     		orrs	r3, r3, r4
 4007 000c 9BB2     		uxth	r3, r3
 4008              	.LVL433:
 4009              		.loc 1 3036 0
 4010 000e 1943     		orrs	r1, r1, r3
 4011              	.LVL434:
 4012 0010 8160     		str	r1, [r0, #8]
 4013              	.LBE103:
 4014              	.LBE102:
 4015              		.loc 1 2838 0
 4016 0012 8368     		ldr	r3, [r0, #8]
 4017              	.LVL435:
 4018              		.loc 1 2839 0
 4019 0014 5DF8044B 		ldr	r4, [sp], #4
 4020              		.loc 1 2838 0
 4021 0018 43F48043 		orr	r3, r3, #16384
 4022 001c 8360     		str	r3, [r0, #8]
 4023              		.loc 1 2839 0
 4024 001e 7047     		bx	lr
 4025              		.cfi_endproc
 4026              	.LFE191:
 4027              		.size	TIM_ETRClockMode2Config, .-TIM_ETRClockMode2Config
 4028              		.section	.text.TIM_SelectInputTrigger,"ax",%progbits
 4029              		.align	2
 4030              		.p2align 4,,15
 4031              		.global	TIM_SelectInputTrigger
 4032              		.thumb
 4033              		.thumb_func
 4034              		.type	TIM_SelectInputTrigger, %function
 4035              	TIM_SelectInputTrigger:
 4036              	.LFB192:
 4037              		.loc 1 2897 0
 4038              		.cfi_startproc
 4039              		@ args = 0, pretend = 0, frame = 0
 4040              		@ frame_needed = 0, uses_anonymous_args = 0
 4041              		@ link register save eliminated.
 4042              	.LVL436:
 4043              		.loc 1 2905 0
 4044 0000 8268     		ldr	r2, [r0, #8]
ARM GAS  /tmp/cchgQdZS.s 			page 74


 4045              	.LVL437:
 4046              		.loc 1 2908 0
 4047 0002 4FF68F73 		movw	r3, #65423
 4048 0006 1340     		ands	r3, r3, r2
 4049              	.LVL438:
 4050              		.loc 1 2914 0
 4051 0008 1943     		orrs	r1, r1, r3
 4052              	.LVL439:
 4053 000a 8160     		str	r1, [r0, #8]
 4054 000c 7047     		bx	lr
 4055              		.cfi_endproc
 4056              	.LFE192:
 4057              		.size	TIM_SelectInputTrigger, .-TIM_SelectInputTrigger
 4058 000e 00BF     		.section	.text.TIM_SelectOutputTrigger,"ax",%progbits
 4059              		.align	2
 4060              		.p2align 4,,15
 4061              		.global	TIM_SelectOutputTrigger
 4062              		.thumb
 4063              		.thumb_func
 4064              		.type	TIM_SelectOutputTrigger, %function
 4065              	TIM_SelectOutputTrigger:
 4066              	.LFB193:
 4067              		.loc 1 2940 0
 4068              		.cfi_startproc
 4069              		@ args = 0, pretend = 0, frame = 0
 4070              		@ frame_needed = 0, uses_anonymous_args = 0
 4071              		@ link register save eliminated.
 4072              	.LVL440:
 4073              		.loc 1 2946 0
 4074 0000 4268     		ldr	r2, [r0, #4]
 4075 0002 4FF68F73 		movw	r3, #65423
 4076 0006 1340     		ands	r3, r3, r2
 4077 0008 4360     		str	r3, [r0, #4]
 4078              		.loc 1 2948 0
 4079 000a 4368     		ldr	r3, [r0, #4]
 4080 000c 1943     		orrs	r1, r1, r3
 4081              	.LVL441:
 4082 000e 4160     		str	r1, [r0, #4]
 4083 0010 7047     		bx	lr
 4084              		.cfi_endproc
 4085              	.LFE193:
 4086              		.size	TIM_SelectOutputTrigger, .-TIM_SelectOutputTrigger
 4087 0012 00BFAFF3 		.section	.text.TIM_SelectSlaveMode,"ax",%progbits
 4087      0080AFF3 
 4087      0080AFF3 
 4087      0080
 4088              		.align	2
 4089              		.p2align 4,,15
 4090              		.global	TIM_SelectSlaveMode
 4091              		.thumb
 4092              		.thumb_func
 4093              		.type	TIM_SelectSlaveMode, %function
 4094              	TIM_SelectSlaveMode:
 4095              	.LFB194:
 4096              		.loc 1 2964 0
 4097              		.cfi_startproc
 4098              		@ args = 0, pretend = 0, frame = 0
ARM GAS  /tmp/cchgQdZS.s 			page 75


 4099              		@ frame_needed = 0, uses_anonymous_args = 0
 4100              		@ link register save eliminated.
 4101              	.LVL442:
 4102              		.loc 1 2970 0
 4103 0000 8268     		ldr	r2, [r0, #8]
 4104 0002 4FF6F873 		movw	r3, #65528
 4105 0006 1340     		ands	r3, r3, r2
 4106 0008 8360     		str	r3, [r0, #8]
 4107              		.loc 1 2973 0
 4108 000a 8368     		ldr	r3, [r0, #8]
 4109 000c 1943     		orrs	r1, r1, r3
 4110              	.LVL443:
 4111 000e 8160     		str	r1, [r0, #8]
 4112 0010 7047     		bx	lr
 4113              		.cfi_endproc
 4114              	.LFE194:
 4115              		.size	TIM_SelectSlaveMode, .-TIM_SelectSlaveMode
 4116 0012 00BFAFF3 		.section	.text.TIM_SelectMasterSlaveMode,"ax",%progbits
 4116      0080AFF3 
 4116      0080AFF3 
 4116      0080
 4117              		.align	2
 4118              		.p2align 4,,15
 4119              		.global	TIM_SelectMasterSlaveMode
 4120              		.thumb
 4121              		.thumb_func
 4122              		.type	TIM_SelectMasterSlaveMode, %function
 4123              	TIM_SelectMasterSlaveMode:
 4124              	.LFB195:
 4125              		.loc 1 2987 0
 4126              		.cfi_startproc
 4127              		@ args = 0, pretend = 0, frame = 0
 4128              		@ frame_needed = 0, uses_anonymous_args = 0
 4129              		@ link register save eliminated.
 4130              	.LVL444:
 4131              		.loc 1 2993 0
 4132 0000 8268     		ldr	r2, [r0, #8]
 4133 0002 4FF67F73 		movw	r3, #65407
 4134 0006 1340     		ands	r3, r3, r2
 4135 0008 8360     		str	r3, [r0, #8]
 4136              		.loc 1 2996 0
 4137 000a 8368     		ldr	r3, [r0, #8]
 4138 000c 1943     		orrs	r1, r1, r3
 4139              	.LVL445:
 4140 000e 8160     		str	r1, [r0, #8]
 4141 0010 7047     		bx	lr
 4142              		.cfi_endproc
 4143              	.LFE195:
 4144              		.size	TIM_SelectMasterSlaveMode, .-TIM_SelectMasterSlaveMode
 4145 0012 00BFAFF3 		.section	.text.TIM_ETRConfig,"ax",%progbits
 4145      0080AFF3 
 4145      0080AFF3 
 4145      0080
 4146              		.align	2
 4147              		.p2align 4,,15
 4148              		.global	TIM_ETRConfig
 4149              		.thumb
ARM GAS  /tmp/cchgQdZS.s 			page 76


 4150              		.thumb_func
 4151              		.type	TIM_ETRConfig, %function
 4152              	TIM_ETRConfig:
 4153              	.LFB196:
 4154              		.loc 1 3018 0
 4155              		.cfi_startproc
 4156              		@ args = 0, pretend = 0, frame = 0
 4157              		@ frame_needed = 0, uses_anonymous_args = 0
 4158              		@ link register save eliminated.
 4159              	.LVL446:
 4160 0000 10B4     		push	{r4}
 4161              		.cfi_def_cfa_offset 4
 4162              		.cfi_offset 4, -4
 4163              		.loc 1 3027 0
 4164 0002 8468     		ldr	r4, [r0, #8]
 4165              	.LVL447:
 4166              		.loc 1 3030 0
 4167 0004 E4B2     		uxtb	r4, r4
 4168              	.LVL448:
 4169              		.loc 1 3033 0
 4170 0006 2143     		orrs	r1, r1, r4
 4171              	.LVL449:
 4172 0008 0A43     		orrs	r2, r2, r1
 4173              	.LVL450:
 4174 000a 42EA0323 		orr	r3, r2, r3, lsl #8
 4175              	.LVL451:
 4176              		.loc 1 3036 0
 4177 000e 9CB2     		uxth	r4, r3
 4178 0010 8460     		str	r4, [r0, #8]
 4179              		.loc 1 3037 0
 4180 0012 5DF8044B 		ldr	r4, [sp], #4
 4181 0016 7047     		bx	lr
 4182              		.cfi_endproc
 4183              	.LFE196:
 4184              		.size	TIM_ETRConfig, .-TIM_ETRConfig
 4185 0018 AFF30080 		.section	.text.TIM_EncoderInterfaceConfig,"ax",%progbits
 4185      AFF30080 
 4186              		.align	2
 4187              		.p2align 4,,15
 4188              		.global	TIM_EncoderInterfaceConfig
 4189              		.thumb
 4190              		.thumb_func
 4191              		.type	TIM_EncoderInterfaceConfig, %function
 4192              	TIM_EncoderInterfaceConfig:
 4193              	.LFB197:
 4194              		.loc 1 3076 0
 4195              		.cfi_startproc
 4196              		@ args = 0, pretend = 0, frame = 0
 4197              		@ frame_needed = 0, uses_anonymous_args = 0
 4198              		@ link register save eliminated.
 4199              	.LVL452:
 4200 0000 F0B4     		push	{r4, r5, r6, r7}
 4201              		.cfi_def_cfa_offset 16
 4202              		.cfi_offset 4, -16
 4203              		.cfi_offset 5, -12
 4204              		.cfi_offset 6, -8
 4205              		.cfi_offset 7, -4
ARM GAS  /tmp/cchgQdZS.s 			page 77


 4206              		.loc 1 3088 0
 4207 0002 8668     		ldr	r6, [r0, #8]
 4208              	.LVL453:
 4209              		.loc 1 3091 0
 4210 0004 8769     		ldr	r7, [r0, #24]
 4211              	.LVL454:
 4212              		.loc 1 3094 0
 4213 0006 046A     		ldr	r4, [r0, #32]
 4214 0008 1FFA84FC 		uxth	ip, r4
 4215              	.LVL455:
 4216              		.loc 1 3101 0
 4217 000c 4FF6FC45 		movw	r5, #64764
 4218              		.loc 1 3105 0
 4219 0010 2CF0220C 		bic	ip, ip, #34
 4220              		.loc 1 3101 0
 4221 0014 3D40     		ands	r5, r5, r7
 4222              		.loc 1 3097 0
 4223 0016 4FF6F874 		movw	r4, #65528
 4224              	.LVL456:
 4225              		.loc 1 3106 0
 4226 001a 42EA0C02 		orr	r2, r2, ip
 4227              	.LVL457:
 4228              		.loc 1 3097 0
 4229 001e 3440     		ands	r4, r4, r6
 4230              	.LVL458:
 4231              		.loc 1 3106 0
 4232 0020 42EA0313 		orr	r3, r2, r3, lsl #4
 4233              	.LVL459:
 4234              		.loc 1 3112 0
 4235 0024 45F48075 		orr	r5, r5, #256
 4236              	.LVL460:
 4237              		.loc 1 3109 0
 4238 0028 2143     		orrs	r1, r1, r4
 4239              	.LVL461:
 4240              		.loc 1 3112 0
 4241 002a 45F00105 		orr	r5, r5, #1
 4242              		.loc 1 3115 0
 4243 002e 9BB2     		uxth	r3, r3
 4244              		.loc 1 3109 0
 4245 0030 8160     		str	r1, [r0, #8]
 4246              		.loc 1 3112 0
 4247 0032 8561     		str	r5, [r0, #24]
 4248              		.loc 1 3115 0
 4249 0034 0362     		str	r3, [r0, #32]
 4250              		.loc 1 3116 0
 4251 0036 F0BC     		pop	{r4, r5, r6, r7}
 4252              	.LVL462:
 4253 0038 7047     		bx	lr
 4254              		.cfi_endproc
 4255              	.LFE197:
 4256              		.size	TIM_EncoderInterfaceConfig, .-TIM_EncoderInterfaceConfig
 4257 003a 00BFAFF3 		.section	.text.TIM_SelectHallSensor,"ax",%progbits
 4257      0080
 4258              		.align	2
 4259              		.p2align 4,,15
 4260              		.global	TIM_SelectHallSensor
 4261              		.thumb
ARM GAS  /tmp/cchgQdZS.s 			page 78


 4262              		.thumb_func
 4263              		.type	TIM_SelectHallSensor, %function
 4264              	TIM_SelectHallSensor:
 4265              	.LFB198:
 4266              		.loc 1 3127 0
 4267              		.cfi_startproc
 4268              		@ args = 0, pretend = 0, frame = 0
 4269              		@ frame_needed = 0, uses_anonymous_args = 0
 4270              		@ link register save eliminated.
 4271              	.LVL463:
 4272              		.loc 1 3132 0
 4273 0000 29B9     		cbnz	r1, .L202
 4274              		.loc 1 3140 0
 4275 0002 4268     		ldr	r2, [r0, #4]
 4276 0004 4FF67F73 		movw	r3, #65407
 4277 0008 1340     		ands	r3, r3, r2
 4278 000a 4360     		str	r3, [r0, #4]
 4279 000c 7047     		bx	lr
 4280              	.L202:
 4281              		.loc 1 3135 0
 4282 000e 4368     		ldr	r3, [r0, #4]
 4283 0010 43F08003 		orr	r3, r3, #128
 4284 0014 4360     		str	r3, [r0, #4]
 4285 0016 7047     		bx	lr
 4286              		.cfi_endproc
 4287              	.LFE198:
 4288              		.size	TIM_SelectHallSensor, .-TIM_SelectHallSensor
 4289 0018 AFF30080 		.section	.text.TIM_RemapConfig,"ax",%progbits
 4289      AFF30080 
 4290              		.align	2
 4291              		.p2align 4,,15
 4292              		.global	TIM_RemapConfig
 4293              		.thumb
 4294              		.thumb_func
 4295              		.type	TIM_RemapConfig, %function
 4296              	TIM_RemapConfig:
 4297              	.LFB199:
 4298              		.loc 1 3178 0
 4299              		.cfi_startproc
 4300              		@ args = 0, pretend = 0, frame = 0
 4301              		@ frame_needed = 0, uses_anonymous_args = 0
 4302              		@ link register save eliminated.
 4303              	.LVL464:
 4304              		.loc 1 3184 0
 4305 0000 0165     		str	r1, [r0, #80]
 4306 0002 7047     		bx	lr
 4307              		.cfi_endproc
 4308              	.LFE199:
 4309              		.size	TIM_RemapConfig, .-TIM_RemapConfig
 4310 0004 AFF30080 		.text
 4310      AFF30080 
 4310      AFF30080 
 4311              	.Letext0:
 4312              		.file 2 "/usr/include/newlib/machine/_default_types.h"
 4313              		.file 3 "/usr/include/newlib/stdint.h"
 4314              		.file 4 "ChibiOS_3.0.2/os/ext/CMSIS/ST/stm32f407xx.h"
 4315              		.file 5 "ChibiOS_3.0.2/os/ext/CMSIS/ST/stm32f4xx.h"
ARM GAS  /tmp/cchgQdZS.s 			page 79


 4316              		.file 6 "ChibiOS_3.0.2/ext/stdperiph_stm32f4/inc/stm32f4xx_tim.h"
 4317              		.file 7 "ChibiOS_3.0.2/ext/stdperiph_stm32f4/inc/stm32f4xx_rcc.h"
 4318              		.file 8 "ChibiOS_3.0.2/os/ext/CMSIS/include/core_cm4.h"