ARM GAS  /tmp/ccyJVbjO.s 			page 1


   1              		.syntax unified
   2              		.cpu cortex-m4
   3              		.eabi_attribute 27, 3
   4              		.eabi_attribute 28, 1
   5              		.fpu fpv4-sp-d16
   6              		.eabi_attribute 20, 1
   7              		.eabi_attribute 21, 1
   8              		.eabi_attribute 23, 3
   9              		.eabi_attribute 24, 1
  10              		.eabi_attribute 25, 1
  11              		.eabi_attribute 26, 1
  12              		.eabi_attribute 30, 2
  13              		.eabi_attribute 34, 1
  14              		.eabi_attribute 18, 4
  15              		.thumb
  16              		.file	"stm32f4xx_rcc.c"
  17              		.text
  18              	.Ltext0:
  19              		.cfi_sections	.debug_frame
  20              		.section	.text.RCC_DeInit,"ax",%progbits
  21              		.align	2
  22              		.p2align 4,,15
  23              		.global	RCC_DeInit
  24              		.thumb
  25              		.thumb_func
  26              		.type	RCC_DeInit, %function
  27              	RCC_DeInit:
  28              	.LFB112:
  29              		.file 1 "ChibiOS_3.0.2/ext/stdperiph_stm32f4/src/stm32f4xx_rcc.c"
  30              		.loc 1 246 0
  31              		.cfi_startproc
  32              		@ args = 0, pretend = 0, frame = 0
  33              		@ frame_needed = 0, uses_anonymous_args = 0
  34              		@ link register save eliminated.
  35              		.loc 1 248 0
  36 0000 0A4B     		ldr	r3, .L2
  37              		.loc 1 257 0
  38 0002 0B48     		ldr	r0, .L2+4
  39              		.loc 1 248 0
  40 0004 1A68     		ldr	r2, [r3]
  41              		.loc 1 251 0
  42 0006 0021     		movs	r1, #0
  43              		.loc 1 248 0
  44 0008 42F00102 		orr	r2, r2, #1
  45 000c 1A60     		str	r2, [r3]
  46              		.loc 1 251 0
  47 000e 9960     		str	r1, [r3, #8]
  48              		.loc 1 254 0
  49 0010 1A68     		ldr	r2, [r3]
  50 0012 22F0A852 		bic	r2, r2, #352321536
  51 0016 22F41022 		bic	r2, r2, #589824
  52 001a 1A60     		str	r2, [r3]
  53              		.loc 1 257 0
  54 001c 5860     		str	r0, [r3, #4]
  55              		.loc 1 270 0
  56 001e 1A68     		ldr	r2, [r3]
  57 0020 22F48022 		bic	r2, r2, #262144
ARM GAS  /tmp/ccyJVbjO.s 			page 2


  58 0024 1A60     		str	r2, [r3]
  59              		.loc 1 273 0
  60 0026 D960     		str	r1, [r3, #12]
  61 0028 7047     		bx	lr
  62              	.L3:
  63 002a 00BF     		.align	2
  64              	.L2:
  65 002c 00380240 		.word	1073887232
  66 0030 10300024 		.word	603992080
  67              		.cfi_endproc
  68              	.LFE112:
  69              		.size	RCC_DeInit, .-RCC_DeInit
  70 0034 AFF30080 		.section	.text.RCC_HSEConfig,"ax",%progbits
  70      AFF30080 
  70      AFF30080 
  71              		.align	2
  72              		.p2align 4,,15
  73              		.global	RCC_HSEConfig
  74              		.thumb
  75              		.thumb_func
  76              		.type	RCC_HSEConfig, %function
  77              	RCC_HSEConfig:
  78              	.LFB113:
  79              		.loc 1 297 0
  80              		.cfi_startproc
  81              		@ args = 0, pretend = 0, frame = 0
  82              		@ frame_needed = 0, uses_anonymous_args = 0
  83              		@ link register save eliminated.
  84              	.LVL0:
  85              		.loc 1 302 0
  86 0000 024B     		ldr	r3, .L5
  87 0002 0022     		movs	r2, #0
  88 0004 1A70     		strb	r2, [r3]
  89              		.loc 1 305 0
  90 0006 1870     		strb	r0, [r3]
  91 0008 7047     		bx	lr
  92              	.L6:
  93 000a 00BF     		.align	2
  94              	.L5:
  95 000c 02380240 		.word	1073887234
  96              		.cfi_endproc
  97              	.LFE113:
  98              		.size	RCC_HSEConfig, .-RCC_HSEConfig
  99              		.section	.text.RCC_WaitForHSEStartUp,"ax",%progbits
 100              		.align	2
 101              		.p2align 4,,15
 102              		.global	RCC_WaitForHSEStartUp
 103              		.thumb
 104              		.thumb_func
 105              		.type	RCC_WaitForHSEStartUp, %function
 106              	RCC_WaitForHSEStartUp:
 107              	.LFB114:
 108              		.loc 1 321 0
 109              		.cfi_startproc
 110              		@ args = 0, pretend = 0, frame = 8
 111              		@ frame_needed = 0, uses_anonymous_args = 0
 112              		@ link register save eliminated.
ARM GAS  /tmp/ccyJVbjO.s 			page 3


 113 0000 82B0     		sub	sp, sp, #8
 114              		.cfi_def_cfa_offset 8
 115              		.loc 1 322 0
 116 0002 0023     		movs	r3, #0
 117              	.LBB6:
 118              	.LBB7:
 119              		.loc 1 2750 0
 120 0004 0B4A     		ldr	r2, .L19
 121              	.LBE7:
 122              	.LBE6:
 123              		.loc 1 322 0
 124 0006 0193     		str	r3, [sp, #4]
 125              	.LVL1:
 126              	.L11:
 127              	.LBB9:
 128              	.LBB8:
 129              		.loc 1 2750 0 discriminator 1
 130 0008 1368     		ldr	r3, [r2]
 131              	.LVL2:
 132              		.loc 1 2763 0 discriminator 1
 133 000a 9B03     		lsls	r3, r3, #14
 134              	.LVL3:
 135 000c 0CD4     		bmi	.L18
 136              	.LBE8:
 137              	.LBE9:
 138              		.loc 1 329 0
 139 000e 019B     		ldr	r3, [sp, #4]
 140 0010 0133     		adds	r3, r3, #1
 141 0012 0193     		str	r3, [sp, #4]
 142              		.loc 1 330 0
 143 0014 019B     		ldr	r3, [sp, #4]
 144 0016 B3F5A04F 		cmp	r3, #20480
 145 001a F5D1     		bne	.L11
 146              	.LVL4:
 147              	.L10:
 148              	.LBB10:
 149              	.LBB11:
 150              		.loc 1 2750 0
 151 001c 054B     		ldr	r3, .L19
 152 001e 1868     		ldr	r0, [r3]
 153              	.LVL5:
 154              	.LBE11:
 155              	.LBE10:
 156              		.loc 1 340 0
 157 0020 C0F34040 		ubfx	r0, r0, #17, #1
 158              	.LVL6:
 159              		.loc 1 341 0
 160 0024 02B0     		add	sp, sp, #8
 161              		@ sp needed
 162 0026 7047     		bx	lr
 163              	.LVL7:
 164              	.L18:
 165              		.loc 1 329 0
 166 0028 019B     		ldr	r3, [sp, #4]
 167 002a 0133     		adds	r3, r3, #1
 168 002c 0193     		str	r3, [sp, #4]
 169              		.loc 1 330 0
ARM GAS  /tmp/ccyJVbjO.s 			page 4


 170 002e 019B     		ldr	r3, [sp, #4]
 171 0030 F4E7     		b	.L10
 172              	.L20:
 173 0032 00BF     		.align	2
 174              	.L19:
 175 0034 00380240 		.word	1073887232
 176              		.cfi_endproc
 177              	.LFE114:
 178              		.size	RCC_WaitForHSEStartUp, .-RCC_WaitForHSEStartUp
 179 0038 AFF30080 		.section	.text.RCC_AdjustHSICalibrationValue,"ax",%progbits
 179      AFF30080 
 180              		.align	2
 181              		.p2align 4,,15
 182              		.global	RCC_AdjustHSICalibrationValue
 183              		.thumb
 184              		.thumb_func
 185              		.type	RCC_AdjustHSICalibrationValue, %function
 186              	RCC_AdjustHSICalibrationValue:
 187              	.LFB115:
 188              		.loc 1 352 0
 189              		.cfi_startproc
 190              		@ args = 0, pretend = 0, frame = 0
 191              		@ frame_needed = 0, uses_anonymous_args = 0
 192              		@ link register save eliminated.
 193              	.LVL8:
 194              		.loc 1 357 0
 195 0000 034B     		ldr	r3, .L22
 196 0002 1A68     		ldr	r2, [r3]
 197              	.LVL9:
 198              		.loc 1 360 0
 199 0004 22F0F802 		bic	r2, r2, #248
 200              	.LVL10:
 201              		.loc 1 363 0
 202 0008 42EAC000 		orr	r0, r2, r0, lsl #3
 203              	.LVL11:
 204              		.loc 1 366 0
 205 000c 1860     		str	r0, [r3]
 206 000e 7047     		bx	lr
 207              	.L23:
 208              		.align	2
 209              	.L22:
 210 0010 00380240 		.word	1073887232
 211              		.cfi_endproc
 212              	.LFE115:
 213              		.size	RCC_AdjustHSICalibrationValue, .-RCC_AdjustHSICalibrationValue
 214 0014 AFF30080 		.section	.text.RCC_HSICmd,"ax",%progbits
 214      AFF30080 
 214      AFF30080 
 215              		.align	2
 216              		.p2align 4,,15
 217              		.global	RCC_HSICmd
 218              		.thumb
 219              		.thumb_func
 220              		.type	RCC_HSICmd, %function
 221              	RCC_HSICmd:
 222              	.LFB116:
 223              		.loc 1 388 0
ARM GAS  /tmp/ccyJVbjO.s 			page 5


 224              		.cfi_startproc
 225              		@ args = 0, pretend = 0, frame = 0
 226              		@ frame_needed = 0, uses_anonymous_args = 0
 227              		@ link register save eliminated.
 228              	.LVL12:
 229              		.loc 1 392 0
 230 0000 014B     		ldr	r3, .L25
 231 0002 1860     		str	r0, [r3]
 232 0004 7047     		bx	lr
 233              	.L26:
 234 0006 00BF     		.align	2
 235              	.L25:
 236 0008 00004742 		.word	1111949312
 237              		.cfi_endproc
 238              	.LFE116:
 239              		.size	RCC_HSICmd, .-RCC_HSICmd
 240 000c AFF30080 		.section	.text.RCC_LSEConfig,"ax",%progbits
 241              		.align	2
 242              		.p2align 4,,15
 243              		.global	RCC_LSEConfig
 244              		.thumb
 245              		.thumb_func
 246              		.type	RCC_LSEConfig, %function
 247              	RCC_LSEConfig:
 248              	.LFB117:
 249              		.loc 1 413 0
 250              		.cfi_startproc
 251              		@ args = 0, pretend = 0, frame = 0
 252              		@ frame_needed = 0, uses_anonymous_args = 0
 253              		@ link register save eliminated.
 254              	.LVL13:
 255              		.loc 1 419 0
 256 0000 064B     		ldr	r3, .L32
 257 0002 0022     		movs	r2, #0
 258              		.loc 1 425 0
 259 0004 0128     		cmp	r0, #1
 260              		.loc 1 419 0
 261 0006 1A70     		strb	r2, [r3]
 262              		.loc 1 422 0
 263 0008 1A70     		strb	r2, [r3]
 264              		.loc 1 425 0
 265 000a 05D0     		beq	.L29
 266 000c 0428     		cmp	r0, #4
 267 000e 02D1     		bne	.L31
 268              		.loc 1 433 0
 269 0010 0522     		movs	r2, #5
 270 0012 1A70     		strb	r2, [r3]
 271 0014 7047     		bx	lr
 272              	.L31:
 273 0016 7047     		bx	lr
 274              	.L29:
 275              		.loc 1 429 0
 276 0018 1870     		strb	r0, [r3]
 277              		.loc 1 430 0
 278 001a 7047     		bx	lr
 279              	.L33:
 280              		.align	2
ARM GAS  /tmp/ccyJVbjO.s 			page 6


 281              	.L32:
 282 001c 70380240 		.word	1073887344
 283              		.cfi_endproc
 284              	.LFE117:
 285              		.size	RCC_LSEConfig, .-RCC_LSEConfig
 286              		.section	.text.RCC_LSICmd,"ax",%progbits
 287              		.align	2
 288              		.p2align 4,,15
 289              		.global	RCC_LSICmd
 290              		.thumb
 291              		.thumb_func
 292              		.type	RCC_LSICmd, %function
 293              	RCC_LSICmd:
 294              	.LFB118:
 295              		.loc 1 453 0
 296              		.cfi_startproc
 297              		@ args = 0, pretend = 0, frame = 0
 298              		@ frame_needed = 0, uses_anonymous_args = 0
 299              		@ link register save eliminated.
 300              	.LVL14:
 301              		.loc 1 457 0
 302 0000 014B     		ldr	r3, .L35
 303 0002 1860     		str	r0, [r3]
 304 0004 7047     		bx	lr
 305              	.L36:
 306 0006 00BF     		.align	2
 307              	.L35:
 308 0008 800E4742 		.word	1111953024
 309              		.cfi_endproc
 310              	.LFE118:
 311              		.size	RCC_LSICmd, .-RCC_LSICmd
 312 000c AFF30080 		.section	.text.RCC_PLLCmd,"ax",%progbits
 313              		.align	2
 314              		.p2align 4,,15
 315              		.global	RCC_PLLCmd
 316              		.thumb
 317              		.thumb_func
 318              		.type	RCC_PLLCmd, %function
 319              	RCC_PLLCmd:
 320              	.LFB119:
 321              		.loc 1 576 0
 322              		.cfi_startproc
 323              		@ args = 0, pretend = 0, frame = 0
 324              		@ frame_needed = 0, uses_anonymous_args = 0
 325              		@ link register save eliminated.
 326              	.LVL15:
 327              		.loc 1 579 0
 328 0000 014B     		ldr	r3, .L38
 329 0002 1860     		str	r0, [r3]
 330 0004 7047     		bx	lr
 331              	.L39:
 332 0006 00BF     		.align	2
 333              	.L38:
 334 0008 60004742 		.word	1111949408
 335              		.cfi_endproc
 336              	.LFE119:
 337              		.size	RCC_PLLCmd, .-RCC_PLLCmd
ARM GAS  /tmp/ccyJVbjO.s 			page 7


 338 000c AFF30080 		.section	.text.RCC_PLLI2SCmd,"ax",%progbits
 339              		.align	2
 340              		.p2align 4,,15
 341              		.global	RCC_PLLI2SCmd
 342              		.thumb
 343              		.thumb_func
 344              		.type	RCC_PLLI2SCmd, %function
 345              	RCC_PLLI2SCmd:
 346              	.LFB120:
 347              		.loc 1 745 0
 348              		.cfi_startproc
 349              		@ args = 0, pretend = 0, frame = 0
 350              		@ frame_needed = 0, uses_anonymous_args = 0
 351              		@ link register save eliminated.
 352              	.LVL16:
 353              		.loc 1 748 0
 354 0000 014B     		ldr	r3, .L41
 355 0002 1860     		str	r0, [r3]
 356 0004 7047     		bx	lr
 357              	.L42:
 358 0006 00BF     		.align	2
 359              	.L41:
 360 0008 68004742 		.word	1111949416
 361              		.cfi_endproc
 362              	.LFE120:
 363              		.size	RCC_PLLI2SCmd, .-RCC_PLLI2SCmd
 364 000c AFF30080 		.section	.text.RCC_PLLSAICmd,"ax",%progbits
 365              		.align	2
 366              		.p2align 4,,15
 367              		.global	RCC_PLLSAICmd
 368              		.thumb
 369              		.thumb_func
 370              		.type	RCC_PLLSAICmd, %function
 371              	RCC_PLLSAICmd:
 372              	.LFB121:
 373              		.loc 1 874 0
 374              		.cfi_startproc
 375              		@ args = 0, pretend = 0, frame = 0
 376              		@ frame_needed = 0, uses_anonymous_args = 0
 377              		@ link register save eliminated.
 378              	.LVL17:
 379              		.loc 1 877 0
 380 0000 014B     		ldr	r3, .L44
 381 0002 1860     		str	r0, [r3]
 382 0004 7047     		bx	lr
 383              	.L45:
 384 0006 00BF     		.align	2
 385              	.L44:
 386 0008 70004742 		.word	1111949424
 387              		.cfi_endproc
 388              	.LFE121:
 389              		.size	RCC_PLLSAICmd, .-RCC_PLLSAICmd
 390 000c AFF30080 		.section	.text.RCC_ClockSecuritySystemCmd,"ax",%progbits
 391              		.align	2
 392              		.p2align 4,,15
 393              		.global	RCC_ClockSecuritySystemCmd
 394              		.thumb
ARM GAS  /tmp/ccyJVbjO.s 			page 8


 395              		.thumb_func
 396              		.type	RCC_ClockSecuritySystemCmd, %function
 397              	RCC_ClockSecuritySystemCmd:
 398              	.LFB122:
 399              		.loc 1 892 0
 400              		.cfi_startproc
 401              		@ args = 0, pretend = 0, frame = 0
 402              		@ frame_needed = 0, uses_anonymous_args = 0
 403              		@ link register save eliminated.
 404              	.LVL18:
 405              		.loc 1 895 0
 406 0000 014B     		ldr	r3, .L47
 407 0002 1860     		str	r0, [r3]
 408 0004 7047     		bx	lr
 409              	.L48:
 410 0006 00BF     		.align	2
 411              	.L47:
 412 0008 4C004742 		.word	1111949388
 413              		.cfi_endproc
 414              	.LFE122:
 415              		.size	RCC_ClockSecuritySystemCmd, .-RCC_ClockSecuritySystemCmd
 416 000c AFF30080 		.section	.text.RCC_MCO1Config,"ax",%progbits
 417              		.align	2
 418              		.p2align 4,,15
 419              		.global	RCC_MCO1Config
 420              		.thumb
 421              		.thumb_func
 422              		.type	RCC_MCO1Config, %function
 423              	RCC_MCO1Config:
 424              	.LFB123:
 425              		.loc 1 917 0
 426              		.cfi_startproc
 427              		@ args = 0, pretend = 0, frame = 0
 428              		@ frame_needed = 0, uses_anonymous_args = 0
 429              		@ link register save eliminated.
 430              	.LVL19:
 431              		.loc 1 924 0
 432 0000 034B     		ldr	r3, .L50
 433 0002 9A68     		ldr	r2, [r3, #8]
 434              	.LVL20:
 435              		.loc 1 927 0
 436 0004 22F0EC62 		bic	r2, r2, #123731968
 437              	.LVL21:
 438              		.loc 1 930 0
 439 0008 1143     		orrs	r1, r1, r2
 440              	.LVL22:
 441 000a 0843     		orrs	r0, r0, r1
 442              	.LVL23:
 443              		.loc 1 933 0
 444 000c 9860     		str	r0, [r3, #8]
 445 000e 7047     		bx	lr
 446              	.L51:
 447              		.align	2
 448              	.L50:
 449 0010 00380240 		.word	1073887232
 450              		.cfi_endproc
 451              	.LFE123:
ARM GAS  /tmp/ccyJVbjO.s 			page 9


 452              		.size	RCC_MCO1Config, .-RCC_MCO1Config
 453 0014 AFF30080 		.section	.text.RCC_MCO2Config,"ax",%progbits
 453      AFF30080 
 453      AFF30080 
 454              		.align	2
 455              		.p2align 4,,15
 456              		.global	RCC_MCO2Config
 457              		.thumb
 458              		.thumb_func
 459              		.type	RCC_MCO2Config, %function
 460              	RCC_MCO2Config:
 461              	.LFB124:
 462              		.loc 1 962 0
 463              		.cfi_startproc
 464              		@ args = 0, pretend = 0, frame = 0
 465              		@ frame_needed = 0, uses_anonymous_args = 0
 466              		@ link register save eliminated.
 467              	.LVL24:
 468              		.loc 1 969 0
 469 0000 034B     		ldr	r3, .L53
 470 0002 9A68     		ldr	r2, [r3, #8]
 471              	.LVL25:
 472              		.loc 1 972 0
 473 0004 22F07842 		bic	r2, r2, #-134217728
 474              	.LVL26:
 475              		.loc 1 975 0
 476 0008 1143     		orrs	r1, r1, r2
 477              	.LVL27:
 478 000a 0843     		orrs	r0, r0, r1
 479              	.LVL28:
 480              		.loc 1 978 0
 481 000c 9860     		str	r0, [r3, #8]
 482 000e 7047     		bx	lr
 483              	.L54:
 484              		.align	2
 485              	.L53:
 486 0010 00380240 		.word	1073887232
 487              		.cfi_endproc
 488              	.LFE124:
 489              		.size	RCC_MCO2Config, .-RCC_MCO2Config
 490 0014 AFF30080 		.section	.text.RCC_SYSCLKConfig,"ax",%progbits
 490      AFF30080 
 490      AFF30080 
 491              		.align	2
 492              		.p2align 4,,15
 493              		.global	RCC_SYSCLKConfig
 494              		.thumb
 495              		.thumb_func
 496              		.type	RCC_SYSCLKConfig, %function
 497              	RCC_SYSCLKConfig:
 498              	.LFB125:
 499              		.loc 1 1162 0
 500              		.cfi_startproc
 501              		@ args = 0, pretend = 0, frame = 0
 502              		@ frame_needed = 0, uses_anonymous_args = 0
 503              		@ link register save eliminated.
 504              	.LVL29:
ARM GAS  /tmp/ccyJVbjO.s 			page 10


 505              		.loc 1 1168 0
 506 0000 034B     		ldr	r3, .L56
 507 0002 9A68     		ldr	r2, [r3, #8]
 508              	.LVL30:
 509              		.loc 1 1171 0
 510 0004 22F00302 		bic	r2, r2, #3
 511              	.LVL31:
 512              		.loc 1 1174 0
 513 0008 1043     		orrs	r0, r0, r2
 514              	.LVL32:
 515              		.loc 1 1177 0
 516 000a 9860     		str	r0, [r3, #8]
 517 000c 7047     		bx	lr
 518              	.L57:
 519 000e 00BF     		.align	2
 520              	.L56:
 521 0010 00380240 		.word	1073887232
 522              		.cfi_endproc
 523              	.LFE125:
 524              		.size	RCC_SYSCLKConfig, .-RCC_SYSCLKConfig
 525 0014 AFF30080 		.section	.text.RCC_GetSYSCLKSource,"ax",%progbits
 525      AFF30080 
 525      AFF30080 
 526              		.align	2
 527              		.p2align 4,,15
 528              		.global	RCC_GetSYSCLKSource
 529              		.thumb
 530              		.thumb_func
 531              		.type	RCC_GetSYSCLKSource, %function
 532              	RCC_GetSYSCLKSource:
 533              	.LFB126:
 534              		.loc 1 1191 0
 535              		.cfi_startproc
 536              		@ args = 0, pretend = 0, frame = 0
 537              		@ frame_needed = 0, uses_anonymous_args = 0
 538              		@ link register save eliminated.
 539              		.loc 1 1192 0
 540 0000 024B     		ldr	r3, .L59
 541 0002 9868     		ldr	r0, [r3, #8]
 542              		.loc 1 1193 0
 543 0004 00F00C00 		and	r0, r0, #12
 544 0008 7047     		bx	lr
 545              	.L60:
 546 000a 00BF     		.align	2
 547              	.L59:
 548 000c 00380240 		.word	1073887232
 549              		.cfi_endproc
 550              	.LFE126:
 551              		.size	RCC_GetSYSCLKSource, .-RCC_GetSYSCLKSource
 552              		.section	.text.RCC_HCLKConfig,"ax",%progbits
 553              		.align	2
 554              		.p2align 4,,15
 555              		.global	RCC_HCLKConfig
 556              		.thumb
 557              		.thumb_func
 558              		.type	RCC_HCLKConfig, %function
 559              	RCC_HCLKConfig:
ARM GAS  /tmp/ccyJVbjO.s 			page 11


 560              	.LFB127:
 561              		.loc 1 1216 0
 562              		.cfi_startproc
 563              		@ args = 0, pretend = 0, frame = 0
 564              		@ frame_needed = 0, uses_anonymous_args = 0
 565              		@ link register save eliminated.
 566              	.LVL33:
 567              		.loc 1 1222 0
 568 0000 034B     		ldr	r3, .L62
 569 0002 9A68     		ldr	r2, [r3, #8]
 570              	.LVL34:
 571              		.loc 1 1225 0
 572 0004 22F0F002 		bic	r2, r2, #240
 573              	.LVL35:
 574              		.loc 1 1228 0
 575 0008 1043     		orrs	r0, r0, r2
 576              	.LVL36:
 577              		.loc 1 1231 0
 578 000a 9860     		str	r0, [r3, #8]
 579 000c 7047     		bx	lr
 580              	.L63:
 581 000e 00BF     		.align	2
 582              	.L62:
 583 0010 00380240 		.word	1073887232
 584              		.cfi_endproc
 585              	.LFE127:
 586              		.size	RCC_HCLKConfig, .-RCC_HCLKConfig
 587 0014 AFF30080 		.section	.text.RCC_PCLK1Config,"ax",%progbits
 587      AFF30080 
 587      AFF30080 
 588              		.align	2
 589              		.p2align 4,,15
 590              		.global	RCC_PCLK1Config
 591              		.thumb
 592              		.thumb_func
 593              		.type	RCC_PCLK1Config, %function
 594              	RCC_PCLK1Config:
 595              	.LFB128:
 596              		.loc 1 1247 0
 597              		.cfi_startproc
 598              		@ args = 0, pretend = 0, frame = 0
 599              		@ frame_needed = 0, uses_anonymous_args = 0
 600              		@ link register save eliminated.
 601              	.LVL37:
 602              		.loc 1 1253 0
 603 0000 034B     		ldr	r3, .L65
 604 0002 9A68     		ldr	r2, [r3, #8]
 605              	.LVL38:
 606              		.loc 1 1256 0
 607 0004 22F4E052 		bic	r2, r2, #7168
 608              	.LVL39:
 609              		.loc 1 1259 0
 610 0008 1043     		orrs	r0, r0, r2
 611              	.LVL40:
 612              		.loc 1 1262 0
 613 000a 9860     		str	r0, [r3, #8]
 614 000c 7047     		bx	lr
ARM GAS  /tmp/ccyJVbjO.s 			page 12


 615              	.L66:
 616 000e 00BF     		.align	2
 617              	.L65:
 618 0010 00380240 		.word	1073887232
 619              		.cfi_endproc
 620              	.LFE128:
 621              		.size	RCC_PCLK1Config, .-RCC_PCLK1Config
 622 0014 AFF30080 		.section	.text.RCC_PCLK2Config,"ax",%progbits
 622      AFF30080 
 622      AFF30080 
 623              		.align	2
 624              		.p2align 4,,15
 625              		.global	RCC_PCLK2Config
 626              		.thumb
 627              		.thumb_func
 628              		.type	RCC_PCLK2Config, %function
 629              	RCC_PCLK2Config:
 630              	.LFB129:
 631              		.loc 1 1278 0
 632              		.cfi_startproc
 633              		@ args = 0, pretend = 0, frame = 0
 634              		@ frame_needed = 0, uses_anonymous_args = 0
 635              		@ link register save eliminated.
 636              	.LVL41:
 637              		.loc 1 1284 0
 638 0000 034B     		ldr	r3, .L68
 639 0002 9A68     		ldr	r2, [r3, #8]
 640              	.LVL42:
 641              		.loc 1 1287 0
 642 0004 22F46042 		bic	r2, r2, #57344
 643              	.LVL43:
 644              		.loc 1 1290 0
 645 0008 42EAC000 		orr	r0, r2, r0, lsl #3
 646              	.LVL44:
 647              		.loc 1 1293 0
 648 000c 9860     		str	r0, [r3, #8]
 649 000e 7047     		bx	lr
 650              	.L69:
 651              		.align	2
 652              	.L68:
 653 0010 00380240 		.word	1073887232
 654              		.cfi_endproc
 655              	.LFE129:
 656              		.size	RCC_PCLK2Config, .-RCC_PCLK2Config
 657 0014 AFF30080 		.section	.text.RCC_GetClocksFreq,"ax",%progbits
 657      AFF30080 
 657      AFF30080 
 658              		.align	2
 659              		.p2align 4,,15
 660              		.global	RCC_GetClocksFreq
 661              		.thumb
 662              		.thumb_func
 663              		.type	RCC_GetClocksFreq, %function
 664              	RCC_GetClocksFreq:
 665              	.LFB130:
 666              		.loc 1 1330 0
 667              		.cfi_startproc
ARM GAS  /tmp/ccyJVbjO.s 			page 13


 668              		@ args = 0, pretend = 0, frame = 0
 669              		@ frame_needed = 0, uses_anonymous_args = 0
 670              		@ link register save eliminated.
 671              	.LVL45:
 672              		.loc 1 1337 0
 673 0000 1F4A     		ldr	r2, .L79
 674 0002 9368     		ldr	r3, [r2, #8]
 675              	.LVL46:
 676 0004 03F00C03 		and	r3, r3, #12
 677              	.LVL47:
 678              		.loc 1 1339 0
 679 0008 042B     		cmp	r3, #4
 680              		.loc 1 1330 0
 681 000a 10B4     		push	{r4}
 682              		.cfi_def_cfa_offset 4
 683              		.cfi_offset 4, -4
 684              		.loc 1 1339 0
 685 000c 1BD0     		beq	.L72
 686 000e 082B     		cmp	r3, #8
 687 0010 1CD0     		beq	.L73
 688              		.loc 1 1395 0
 689 0012 1C4B     		ldr	r3, .L79+4
 690              	.LVL48:
 691 0014 0360     		str	r3, [r0]
 692              	.LVL49:
 693              	.L75:
 694              		.loc 1 1401 0
 695 0016 1A49     		ldr	r1, .L79
 696              		.loc 1 1403 0
 697 0018 1B4A     		ldr	r2, .L79+8
 698              		.loc 1 1401 0
 699 001a 8C68     		ldr	r4, [r1, #8]
 700              	.LVL50:
 701              		.loc 1 1402 0
 702 001c C4F30314 		ubfx	r4, r4, #4, #4
 703              	.LVL51:
 704              		.loc 1 1403 0
 705 0020 145D     		ldrb	r4, [r2, r4]	@ zero_extendqisi2
 706              	.LVL52:
 707              		.loc 1 1405 0
 708 0022 E340     		lsrs	r3, r3, r4
 709 0024 4360     		str	r3, [r0, #4]
 710              		.loc 1 1408 0
 711 0026 8C68     		ldr	r4, [r1, #8]
 712              	.LVL53:
 713              		.loc 1 1409 0
 714 0028 C4F38224 		ubfx	r4, r4, #10, #3
 715              	.LVL54:
 716              		.loc 1 1410 0
 717 002c 145D     		ldrb	r4, [r2, r4]	@ zero_extendqisi2
 718              	.LVL55:
 719              		.loc 1 1412 0
 720 002e 23FA04F4 		lsr	r4, r3, r4
 721              	.LVL56:
 722 0032 8460     		str	r4, [r0, #8]
 723              		.loc 1 1415 0
 724 0034 8968     		ldr	r1, [r1, #8]
ARM GAS  /tmp/ccyJVbjO.s 			page 14


 725              	.LVL57:
 726              		.loc 1 1420 0
 727 0036 5DF8044B 		ldr	r4, [sp], #4
 728              		.loc 1 1416 0
 729 003a C1F34231 		ubfx	r1, r1, #13, #3
 730              	.LVL58:
 731              		.loc 1 1417 0
 732 003e 525C     		ldrb	r2, [r2, r1]	@ zero_extendqisi2
 733              	.LVL59:
 734              		.loc 1 1419 0
 735 0040 D340     		lsrs	r3, r3, r2
 736 0042 C360     		str	r3, [r0, #12]
 737              		.loc 1 1420 0
 738 0044 7047     		bx	lr
 739              	.LVL60:
 740              	.L72:
 741              		.loc 1 1345 0
 742 0046 114B     		ldr	r3, .L79+12
 743              	.LVL61:
 744 0048 0360     		str	r3, [r0]
 745              		.loc 1 1346 0
 746 004a E4E7     		b	.L75
 747              	.LVL62:
 748              	.L73:
 749              		.loc 1 1352 0
 750 004c 5468     		ldr	r4, [r2, #4]
 751              	.LVL63:
 752              		.loc 1 1353 0
 753 004e 5168     		ldr	r1, [r2, #4]
 754              		.loc 1 1358 0
 755 0050 5268     		ldr	r2, [r2, #4]
 756              		.loc 1 1355 0
 757 0052 6302     		lsls	r3, r4, #9
 758              	.LVL64:
 759              		.loc 1 1358 0
 760 0054 4CBF     		ite	mi
 761 0056 0D4B     		ldrmi	r3, .L79+12
 762              		.loc 1 1363 0
 763 0058 0A4B     		ldrpl	r3, .L79+4
 764              		.loc 1 1353 0
 765 005a 01F03F01 		and	r1, r1, #63
 766              	.LVL65:
 767              		.loc 1 1363 0
 768 005e C2F38812 		ubfx	r2, r2, #6, #9
 769 0062 B3FBF1F3 		udiv	r3, r3, r1
 770 0066 03FB02F3 		mul	r3, r3, r2
 771              	.LVL66:
 772              		.loc 1 1366 0
 773 006a 054A     		ldr	r2, .L79
 774 006c 5268     		ldr	r2, [r2, #4]
 775              	.LVL67:
 776 006e C2F30142 		ubfx	r2, r2, #16, #2
 777              	.LVL68:
 778 0072 0132     		adds	r2, r2, #1
 779 0074 5200     		lsls	r2, r2, #1
 780              		.loc 1 1367 0
 781 0076 B3FBF2F3 		udiv	r3, r3, r2
ARM GAS  /tmp/ccyJVbjO.s 			page 15


 782              	.LVL69:
 783 007a 0360     		str	r3, [r0]
 784              		.loc 1 1368 0
 785 007c CBE7     		b	.L75
 786              	.L80:
 787 007e 00BF     		.align	2
 788              	.L79:
 789 0080 00380240 		.word	1073887232
 790 0084 0024F400 		.word	16000000
 791 0088 00000000 		.word	.LANCHOR0
 792 008c 00127A00 		.word	8000000
 793              		.cfi_endproc
 794              	.LFE130:
 795              		.size	RCC_GetClocksFreq, .-RCC_GetClocksFreq
 796              		.section	.text.RCC_RTCCLKConfig,"ax",%progbits
 797              		.align	2
 798              		.p2align 4,,15
 799              		.global	RCC_RTCCLKConfig
 800              		.thumb
 801              		.thumb_func
 802              		.type	RCC_RTCCLKConfig, %function
 803              	RCC_RTCCLKConfig:
 804              	.LFB131:
 805              		.loc 1 1483 0
 806              		.cfi_startproc
 807              		@ args = 0, pretend = 0, frame = 0
 808              		@ frame_needed = 0, uses_anonymous_args = 0
 809              		@ link register save eliminated.
 810              	.LVL70:
 811              		.loc 1 1489 0
 812 0000 00F44073 		and	r3, r0, #768
 813 0004 B3F5407F 		cmp	r3, #768
 814 0008 09D1     		bne	.L82
 815              		.loc 1 1491 0
 816 000a 084A     		ldr	r2, .L83
 817 000c 9168     		ldr	r1, [r2, #8]
 818              	.LVL71:
 819              		.loc 1 1497 0
 820 000e 20F07043 		bic	r3, r0, #-268435456
 821              		.loc 1 1494 0
 822 0012 21F4F811 		bic	r1, r1, #2031616
 823              	.LVL72:
 824              		.loc 1 1497 0
 825 0016 23F44073 		bic	r3, r3, #768
 826 001a 0B43     		orrs	r3, r3, r1
 827              	.LVL73:
 828              		.loc 1 1500 0
 829 001c 9360     		str	r3, [r2, #8]
 830              	.LVL74:
 831              	.L82:
 832              		.loc 1 1504 0
 833 001e 034B     		ldr	r3, .L83
 834 0020 1A6F     		ldr	r2, [r3, #112]
 835 0022 C0F30B00 		ubfx	r0, r0, #0, #12
 836              	.LVL75:
 837 0026 1043     		orrs	r0, r0, r2
 838 0028 1867     		str	r0, [r3, #112]
ARM GAS  /tmp/ccyJVbjO.s 			page 16


 839 002a 7047     		bx	lr
 840              	.L84:
 841              		.align	2
 842              	.L83:
 843 002c 00380240 		.word	1073887232
 844              		.cfi_endproc
 845              	.LFE131:
 846              		.size	RCC_RTCCLKConfig, .-RCC_RTCCLKConfig
 847              		.section	.text.RCC_RTCCLKCmd,"ax",%progbits
 848              		.align	2
 849              		.p2align 4,,15
 850              		.global	RCC_RTCCLKCmd
 851              		.thumb
 852              		.thumb_func
 853              		.type	RCC_RTCCLKCmd, %function
 854              	RCC_RTCCLKCmd:
 855              	.LFB132:
 856              		.loc 1 1515 0
 857              		.cfi_startproc
 858              		@ args = 0, pretend = 0, frame = 0
 859              		@ frame_needed = 0, uses_anonymous_args = 0
 860              		@ link register save eliminated.
 861              	.LVL76:
 862              		.loc 1 1519 0
 863 0000 014B     		ldr	r3, .L86
 864 0002 1860     		str	r0, [r3]
 865 0004 7047     		bx	lr
 866              	.L87:
 867 0006 00BF     		.align	2
 868              	.L86:
 869 0008 3C0E4742 		.word	1111952956
 870              		.cfi_endproc
 871              	.LFE132:
 872              		.size	RCC_RTCCLKCmd, .-RCC_RTCCLKCmd
 873 000c AFF30080 		.section	.text.RCC_BackupResetCmd,"ax",%progbits
 874              		.align	2
 875              		.p2align 4,,15
 876              		.global	RCC_BackupResetCmd
 877              		.thumb
 878              		.thumb_func
 879              		.type	RCC_BackupResetCmd, %function
 880              	RCC_BackupResetCmd:
 881              	.LFB133:
 882              		.loc 1 1532 0
 883              		.cfi_startproc
 884              		@ args = 0, pretend = 0, frame = 0
 885              		@ frame_needed = 0, uses_anonymous_args = 0
 886              		@ link register save eliminated.
 887              	.LVL77:
 888              		.loc 1 1535 0
 889 0000 014B     		ldr	r3, .L89
 890 0002 1860     		str	r0, [r3]
 891 0004 7047     		bx	lr
 892              	.L90:
 893 0006 00BF     		.align	2
 894              	.L89:
 895 0008 400E4742 		.word	1111952960
ARM GAS  /tmp/ccyJVbjO.s 			page 17


 896              		.cfi_endproc
 897              	.LFE133:
 898              		.size	RCC_BackupResetCmd, .-RCC_BackupResetCmd
 899 000c AFF30080 		.section	.text.RCC_TIMCLKPresConfig,"ax",%progbits
 900              		.align	2
 901              		.p2align 4,,15
 902              		.global	RCC_TIMCLKPresConfig
 903              		.thumb
 904              		.thumb_func
 905              		.type	RCC_TIMCLKPresConfig, %function
 906              	RCC_TIMCLKPresConfig:
 907              	.LFB134:
 908              		.loc 1 1756 0
 909              		.cfi_startproc
 910              		@ args = 0, pretend = 0, frame = 0
 911              		@ frame_needed = 0, uses_anonymous_args = 0
 912              		@ link register save eliminated.
 913              	.LVL78:
 914              		.loc 1 1760 0
 915 0000 014B     		ldr	r3, .L92
 916 0002 1860     		str	r0, [r3]
 917 0004 7047     		bx	lr
 918              	.L93:
 919 0006 00BF     		.align	2
 920              	.L92:
 921 0008 E0114742 		.word	1111953888
 922              		.cfi_endproc
 923              	.LFE134:
 924              		.size	RCC_TIMCLKPresConfig, .-RCC_TIMCLKPresConfig
 925 000c AFF30080 		.section	.text.RCC_AHB1PeriphClockCmd,"ax",%progbits
 926              		.align	2
 927              		.p2align 4,,15
 928              		.global	RCC_AHB1PeriphClockCmd
 929              		.thumb
 930              		.thumb_func
 931              		.type	RCC_AHB1PeriphClockCmd, %function
 932              	RCC_AHB1PeriphClockCmd:
 933              	.LFB135:
 934              		.loc 1 1798 0
 935              		.cfi_startproc
 936              		@ args = 0, pretend = 0, frame = 0
 937              		@ frame_needed = 0, uses_anonymous_args = 0
 938              		@ link register save eliminated.
 939              	.LVL79:
 940              		.loc 1 1805 0
 941 0000 044B     		ldr	r3, .L98
 942 0002 1A6B     		ldr	r2, [r3, #48]
 943              		.loc 1 1803 0
 944 0004 19B9     		cbnz	r1, .L97
 945              		.loc 1 1809 0
 946 0006 22EA0000 		bic	r0, r2, r0
 947              	.LVL80:
 948 000a 1863     		str	r0, [r3, #48]
 949 000c 7047     		bx	lr
 950              	.LVL81:
 951              	.L97:
 952              		.loc 1 1805 0
ARM GAS  /tmp/ccyJVbjO.s 			page 18


 953 000e 1043     		orrs	r0, r0, r2
 954              	.LVL82:
 955 0010 1863     		str	r0, [r3, #48]
 956 0012 7047     		bx	lr
 957              	.L99:
 958              		.align	2
 959              	.L98:
 960 0014 00380240 		.word	1073887232
 961              		.cfi_endproc
 962              	.LFE135:
 963              		.size	RCC_AHB1PeriphClockCmd, .-RCC_AHB1PeriphClockCmd
 964 0018 AFF30080 		.section	.text.RCC_AHB2PeriphClockCmd,"ax",%progbits
 964      AFF30080 
 965              		.align	2
 966              		.p2align 4,,15
 967              		.global	RCC_AHB2PeriphClockCmd
 968              		.thumb
 969              		.thumb_func
 970              		.type	RCC_AHB2PeriphClockCmd, %function
 971              	RCC_AHB2PeriphClockCmd:
 972              	.LFB136:
 973              		.loc 1 1830 0
 974              		.cfi_startproc
 975              		@ args = 0, pretend = 0, frame = 0
 976              		@ frame_needed = 0, uses_anonymous_args = 0
 977              		@ link register save eliminated.
 978              	.LVL83:
 979              		.loc 1 1837 0
 980 0000 044B     		ldr	r3, .L104
 981 0002 5A6B     		ldr	r2, [r3, #52]
 982              		.loc 1 1835 0
 983 0004 19B9     		cbnz	r1, .L103
 984              		.loc 1 1841 0
 985 0006 22EA0000 		bic	r0, r2, r0
 986              	.LVL84:
 987 000a 5863     		str	r0, [r3, #52]
 988 000c 7047     		bx	lr
 989              	.LVL85:
 990              	.L103:
 991              		.loc 1 1837 0
 992 000e 1043     		orrs	r0, r0, r2
 993              	.LVL86:
 994 0010 5863     		str	r0, [r3, #52]
 995 0012 7047     		bx	lr
 996              	.L105:
 997              		.align	2
 998              	.L104:
 999 0014 00380240 		.word	1073887232
 1000              		.cfi_endproc
 1001              	.LFE136:
 1002              		.size	RCC_AHB2PeriphClockCmd, .-RCC_AHB2PeriphClockCmd
 1003 0018 AFF30080 		.section	.text.RCC_APB1PeriphClockCmd,"ax",%progbits
 1003      AFF30080 
 1004              		.align	2
 1005              		.p2align 4,,15
 1006              		.global	RCC_APB1PeriphClockCmd
 1007              		.thumb
ARM GAS  /tmp/ccyJVbjO.s 			page 19


 1008              		.thumb_func
 1009              		.type	RCC_APB1PeriphClockCmd, %function
 1010              	RCC_APB1PeriphClockCmd:
 1011              	.LFB137:
 1012              		.loc 1 1917 0
 1013              		.cfi_startproc
 1014              		@ args = 0, pretend = 0, frame = 0
 1015              		@ frame_needed = 0, uses_anonymous_args = 0
 1016              		@ link register save eliminated.
 1017              	.LVL87:
 1018              		.loc 1 1924 0
 1019 0000 044B     		ldr	r3, .L110
 1020 0002 1A6C     		ldr	r2, [r3, #64]
 1021              		.loc 1 1922 0
 1022 0004 19B9     		cbnz	r1, .L109
 1023              		.loc 1 1928 0
 1024 0006 22EA0000 		bic	r0, r2, r0
 1025              	.LVL88:
 1026 000a 1864     		str	r0, [r3, #64]
 1027 000c 7047     		bx	lr
 1028              	.LVL89:
 1029              	.L109:
 1030              		.loc 1 1924 0
 1031 000e 1043     		orrs	r0, r0, r2
 1032              	.LVL90:
 1033 0010 1864     		str	r0, [r3, #64]
 1034 0012 7047     		bx	lr
 1035              	.L111:
 1036              		.align	2
 1037              	.L110:
 1038 0014 00380240 		.word	1073887232
 1039              		.cfi_endproc
 1040              	.LFE137:
 1041              		.size	RCC_APB1PeriphClockCmd, .-RCC_APB1PeriphClockCmd
 1042 0018 AFF30080 		.section	.text.RCC_APB2PeriphClockCmd,"ax",%progbits
 1042      AFF30080 
 1043              		.align	2
 1044              		.p2align 4,,15
 1045              		.global	RCC_APB2PeriphClockCmd
 1046              		.thumb
 1047              		.thumb_func
 1048              		.type	RCC_APB2PeriphClockCmd, %function
 1049              	RCC_APB2PeriphClockCmd:
 1050              	.LFB138:
 1051              		.loc 1 1964 0
 1052              		.cfi_startproc
 1053              		@ args = 0, pretend = 0, frame = 0
 1054              		@ frame_needed = 0, uses_anonymous_args = 0
 1055              		@ link register save eliminated.
 1056              	.LVL91:
 1057              		.loc 1 1971 0
 1058 0000 044B     		ldr	r3, .L116
 1059 0002 5A6C     		ldr	r2, [r3, #68]
 1060              		.loc 1 1969 0
 1061 0004 19B9     		cbnz	r1, .L115
 1062              		.loc 1 1975 0
 1063 0006 22EA0000 		bic	r0, r2, r0
ARM GAS  /tmp/ccyJVbjO.s 			page 20


 1064              	.LVL92:
 1065 000a 5864     		str	r0, [r3, #68]
 1066 000c 7047     		bx	lr
 1067              	.LVL93:
 1068              	.L115:
 1069              		.loc 1 1971 0
 1070 000e 1043     		orrs	r0, r0, r2
 1071              	.LVL94:
 1072 0010 5864     		str	r0, [r3, #68]
 1073 0012 7047     		bx	lr
 1074              	.L117:
 1075              		.align	2
 1076              	.L116:
 1077 0014 00380240 		.word	1073887232
 1078              		.cfi_endproc
 1079              	.LFE138:
 1080              		.size	RCC_APB2PeriphClockCmd, .-RCC_APB2PeriphClockCmd
 1081 0018 AFF30080 		.section	.text.RCC_AHB1PeriphResetCmd,"ax",%progbits
 1081      AFF30080 
 1082              		.align	2
 1083              		.p2align 4,,15
 1084              		.global	RCC_AHB1PeriphResetCmd
 1085              		.thumb
 1086              		.thumb_func
 1087              		.type	RCC_AHB1PeriphResetCmd, %function
 1088              	RCC_AHB1PeriphResetCmd:
 1089              	.LFB139:
 1090              		.loc 1 2007 0
 1091              		.cfi_startproc
 1092              		@ args = 0, pretend = 0, frame = 0
 1093              		@ frame_needed = 0, uses_anonymous_args = 0
 1094              		@ link register save eliminated.
 1095              	.LVL95:
 1096              		.loc 1 2014 0
 1097 0000 044B     		ldr	r3, .L122
 1098 0002 1A69     		ldr	r2, [r3, #16]
 1099              		.loc 1 2012 0
 1100 0004 19B9     		cbnz	r1, .L121
 1101              		.loc 1 2018 0
 1102 0006 22EA0000 		bic	r0, r2, r0
 1103              	.LVL96:
 1104 000a 1861     		str	r0, [r3, #16]
 1105 000c 7047     		bx	lr
 1106              	.LVL97:
 1107              	.L121:
 1108              		.loc 1 2014 0
 1109 000e 1043     		orrs	r0, r0, r2
 1110              	.LVL98:
 1111 0010 1861     		str	r0, [r3, #16]
 1112 0012 7047     		bx	lr
 1113              	.L123:
 1114              		.align	2
 1115              	.L122:
 1116 0014 00380240 		.word	1073887232
 1117              		.cfi_endproc
 1118              	.LFE139:
 1119              		.size	RCC_AHB1PeriphResetCmd, .-RCC_AHB1PeriphResetCmd
ARM GAS  /tmp/ccyJVbjO.s 			page 21


 1120 0018 AFF30080 		.section	.text.RCC_AHB2PeriphResetCmd,"ax",%progbits
 1120      AFF30080 
 1121              		.align	2
 1122              		.p2align 4,,15
 1123              		.global	RCC_AHB2PeriphResetCmd
 1124              		.thumb
 1125              		.thumb_func
 1126              		.type	RCC_AHB2PeriphResetCmd, %function
 1127              	RCC_AHB2PeriphResetCmd:
 1128              	.LFB140:
 1129              		.loc 1 2036 0
 1130              		.cfi_startproc
 1131              		@ args = 0, pretend = 0, frame = 0
 1132              		@ frame_needed = 0, uses_anonymous_args = 0
 1133              		@ link register save eliminated.
 1134              	.LVL99:
 1135              		.loc 1 2043 0
 1136 0000 044B     		ldr	r3, .L128
 1137 0002 5A69     		ldr	r2, [r3, #20]
 1138              		.loc 1 2041 0
 1139 0004 19B9     		cbnz	r1, .L127
 1140              		.loc 1 2047 0
 1141 0006 22EA0000 		bic	r0, r2, r0
 1142              	.LVL100:
 1143 000a 5861     		str	r0, [r3, #20]
 1144 000c 7047     		bx	lr
 1145              	.LVL101:
 1146              	.L127:
 1147              		.loc 1 2043 0
 1148 000e 1043     		orrs	r0, r0, r2
 1149              	.LVL102:
 1150 0010 5861     		str	r0, [r3, #20]
 1151 0012 7047     		bx	lr
 1152              	.L129:
 1153              		.align	2
 1154              	.L128:
 1155 0014 00380240 		.word	1073887232
 1156              		.cfi_endproc
 1157              	.LFE140:
 1158              		.size	RCC_AHB2PeriphResetCmd, .-RCC_AHB2PeriphResetCmd
 1159 0018 AFF30080 		.section	.text.RCC_APB1PeriphResetCmd,"ax",%progbits
 1159      AFF30080 
 1160              		.align	2
 1161              		.p2align 4,,15
 1162              		.global	RCC_APB1PeriphResetCmd
 1163              		.thumb
 1164              		.thumb_func
 1165              		.type	RCC_APB1PeriphResetCmd, %function
 1166              	RCC_APB1PeriphResetCmd:
 1167              	.LFB141:
 1168              		.loc 1 2117 0
 1169              		.cfi_startproc
 1170              		@ args = 0, pretend = 0, frame = 0
 1171              		@ frame_needed = 0, uses_anonymous_args = 0
 1172              		@ link register save eliminated.
 1173              	.LVL103:
 1174              		.loc 1 2123 0
ARM GAS  /tmp/ccyJVbjO.s 			page 22


 1175 0000 044B     		ldr	r3, .L134
 1176 0002 1A6A     		ldr	r2, [r3, #32]
 1177              		.loc 1 2121 0
 1178 0004 19B9     		cbnz	r1, .L133
 1179              		.loc 1 2127 0
 1180 0006 22EA0000 		bic	r0, r2, r0
 1181              	.LVL104:
 1182 000a 1862     		str	r0, [r3, #32]
 1183 000c 7047     		bx	lr
 1184              	.LVL105:
 1185              	.L133:
 1186              		.loc 1 2123 0
 1187 000e 1043     		orrs	r0, r0, r2
 1188              	.LVL106:
 1189 0010 1862     		str	r0, [r3, #32]
 1190 0012 7047     		bx	lr
 1191              	.L135:
 1192              		.align	2
 1193              	.L134:
 1194 0014 00380240 		.word	1073887232
 1195              		.cfi_endproc
 1196              	.LFE141:
 1197              		.size	RCC_APB1PeriphResetCmd, .-RCC_APB1PeriphResetCmd
 1198 0018 AFF30080 		.section	.text.RCC_APB2PeriphResetCmd,"ax",%progbits
 1198      AFF30080 
 1199              		.align	2
 1200              		.p2align 4,,15
 1201              		.global	RCC_APB2PeriphResetCmd
 1202              		.thumb
 1203              		.thumb_func
 1204              		.type	RCC_APB2PeriphResetCmd, %function
 1205              	RCC_APB2PeriphResetCmd:
 1206              	.LFB142:
 1207              		.loc 1 2160 0
 1208              		.cfi_startproc
 1209              		@ args = 0, pretend = 0, frame = 0
 1210              		@ frame_needed = 0, uses_anonymous_args = 0
 1211              		@ link register save eliminated.
 1212              	.LVL107:
 1213              		.loc 1 2166 0
 1214 0000 044B     		ldr	r3, .L140
 1215 0002 5A6A     		ldr	r2, [r3, #36]
 1216              		.loc 1 2164 0
 1217 0004 19B9     		cbnz	r1, .L139
 1218              		.loc 1 2170 0
 1219 0006 22EA0000 		bic	r0, r2, r0
 1220              	.LVL108:
 1221 000a 5862     		str	r0, [r3, #36]
 1222 000c 7047     		bx	lr
 1223              	.LVL109:
 1224              	.L139:
 1225              		.loc 1 2166 0
 1226 000e 1043     		orrs	r0, r0, r2
 1227              	.LVL110:
 1228 0010 5862     		str	r0, [r3, #36]
 1229 0012 7047     		bx	lr
 1230              	.L141:
ARM GAS  /tmp/ccyJVbjO.s 			page 23


 1231              		.align	2
 1232              	.L140:
 1233 0014 00380240 		.word	1073887232
 1234              		.cfi_endproc
 1235              	.LFE142:
 1236              		.size	RCC_APB2PeriphResetCmd, .-RCC_APB2PeriphResetCmd
 1237 0018 AFF30080 		.section	.text.RCC_AHB1PeriphClockLPModeCmd,"ax",%progbits
 1237      AFF30080 
 1238              		.align	2
 1239              		.p2align 4,,15
 1240              		.global	RCC_AHB1PeriphClockLPModeCmd
 1241              		.thumb
 1242              		.thumb_func
 1243              		.type	RCC_AHB1PeriphClockLPModeCmd, %function
 1244              	RCC_AHB1PeriphClockLPModeCmd:
 1245              	.LFB143:
 1246              		.loc 1 2209 0
 1247              		.cfi_startproc
 1248              		@ args = 0, pretend = 0, frame = 0
 1249              		@ frame_needed = 0, uses_anonymous_args = 0
 1250              		@ link register save eliminated.
 1251              	.LVL111:
 1252              		.loc 1 2215 0
 1253 0000 044B     		ldr	r3, .L146
 1254 0002 1A6D     		ldr	r2, [r3, #80]
 1255              		.loc 1 2213 0
 1256 0004 19B9     		cbnz	r1, .L145
 1257              		.loc 1 2219 0
 1258 0006 22EA0000 		bic	r0, r2, r0
 1259              	.LVL112:
 1260 000a 1865     		str	r0, [r3, #80]
 1261 000c 7047     		bx	lr
 1262              	.LVL113:
 1263              	.L145:
 1264              		.loc 1 2215 0
 1265 000e 1043     		orrs	r0, r0, r2
 1266              	.LVL114:
 1267 0010 1865     		str	r0, [r3, #80]
 1268 0012 7047     		bx	lr
 1269              	.L147:
 1270              		.align	2
 1271              	.L146:
 1272 0014 00380240 		.word	1073887232
 1273              		.cfi_endproc
 1274              	.LFE143:
 1275              		.size	RCC_AHB1PeriphClockLPModeCmd, .-RCC_AHB1PeriphClockLPModeCmd
 1276 0018 AFF30080 		.section	.text.RCC_AHB2PeriphClockLPModeCmd,"ax",%progbits
 1276      AFF30080 
 1277              		.align	2
 1278              		.p2align 4,,15
 1279              		.global	RCC_AHB2PeriphClockLPModeCmd
 1280              		.thumb
 1281              		.thumb_func
 1282              		.type	RCC_AHB2PeriphClockLPModeCmd, %function
 1283              	RCC_AHB2PeriphClockLPModeCmd:
 1284              	.LFB144:
 1285              		.loc 1 2241 0
ARM GAS  /tmp/ccyJVbjO.s 			page 24


 1286              		.cfi_startproc
 1287              		@ args = 0, pretend = 0, frame = 0
 1288              		@ frame_needed = 0, uses_anonymous_args = 0
 1289              		@ link register save eliminated.
 1290              	.LVL115:
 1291              		.loc 1 2247 0
 1292 0000 044B     		ldr	r3, .L152
 1293 0002 5A6D     		ldr	r2, [r3, #84]
 1294              		.loc 1 2245 0
 1295 0004 19B9     		cbnz	r1, .L151
 1296              		.loc 1 2251 0
 1297 0006 22EA0000 		bic	r0, r2, r0
 1298              	.LVL116:
 1299 000a 5865     		str	r0, [r3, #84]
 1300 000c 7047     		bx	lr
 1301              	.LVL117:
 1302              	.L151:
 1303              		.loc 1 2247 0
 1304 000e 1043     		orrs	r0, r0, r2
 1305              	.LVL118:
 1306 0010 5865     		str	r0, [r3, #84]
 1307 0012 7047     		bx	lr
 1308              	.L153:
 1309              		.align	2
 1310              	.L152:
 1311 0014 00380240 		.word	1073887232
 1312              		.cfi_endproc
 1313              	.LFE144:
 1314              		.size	RCC_AHB2PeriphClockLPModeCmd, .-RCC_AHB2PeriphClockLPModeCmd
 1315 0018 AFF30080 		.section	.text.RCC_APB1PeriphClockLPModeCmd,"ax",%progbits
 1315      AFF30080 
 1316              		.align	2
 1317              		.p2align 4,,15
 1318              		.global	RCC_APB1PeriphClockLPModeCmd
 1319              		.thumb
 1320              		.thumb_func
 1321              		.type	RCC_APB1PeriphClockLPModeCmd, %function
 1322              	RCC_APB1PeriphClockLPModeCmd:
 1323              	.LFB145:
 1324              		.loc 1 2328 0
 1325              		.cfi_startproc
 1326              		@ args = 0, pretend = 0, frame = 0
 1327              		@ frame_needed = 0, uses_anonymous_args = 0
 1328              		@ link register save eliminated.
 1329              	.LVL119:
 1330              		.loc 1 2334 0
 1331 0000 044B     		ldr	r3, .L158
 1332 0002 1A6E     		ldr	r2, [r3, #96]
 1333              		.loc 1 2332 0
 1334 0004 19B9     		cbnz	r1, .L157
 1335              		.loc 1 2338 0
 1336 0006 22EA0000 		bic	r0, r2, r0
 1337              	.LVL120:
 1338 000a 1866     		str	r0, [r3, #96]
 1339 000c 7047     		bx	lr
 1340              	.LVL121:
 1341              	.L157:
ARM GAS  /tmp/ccyJVbjO.s 			page 25


 1342              		.loc 1 2334 0
 1343 000e 1043     		orrs	r0, r0, r2
 1344              	.LVL122:
 1345 0010 1866     		str	r0, [r3, #96]
 1346 0012 7047     		bx	lr
 1347              	.L159:
 1348              		.align	2
 1349              	.L158:
 1350 0014 00380240 		.word	1073887232
 1351              		.cfi_endproc
 1352              	.LFE145:
 1353              		.size	RCC_APB1PeriphClockLPModeCmd, .-RCC_APB1PeriphClockLPModeCmd
 1354 0018 AFF30080 		.section	.text.RCC_APB2PeriphClockLPModeCmd,"ax",%progbits
 1354      AFF30080 
 1355              		.align	2
 1356              		.p2align 4,,15
 1357              		.global	RCC_APB2PeriphClockLPModeCmd
 1358              		.thumb
 1359              		.thumb_func
 1360              		.type	RCC_APB2PeriphClockLPModeCmd, %function
 1361              	RCC_APB2PeriphClockLPModeCmd:
 1362              	.LFB146:
 1363              		.loc 1 2375 0
 1364              		.cfi_startproc
 1365              		@ args = 0, pretend = 0, frame = 0
 1366              		@ frame_needed = 0, uses_anonymous_args = 0
 1367              		@ link register save eliminated.
 1368              	.LVL123:
 1369              		.loc 1 2381 0
 1370 0000 044B     		ldr	r3, .L164
 1371 0002 5A6E     		ldr	r2, [r3, #100]
 1372              		.loc 1 2379 0
 1373 0004 19B9     		cbnz	r1, .L163
 1374              		.loc 1 2385 0
 1375 0006 22EA0000 		bic	r0, r2, r0
 1376              	.LVL124:
 1377 000a 5866     		str	r0, [r3, #100]
 1378 000c 7047     		bx	lr
 1379              	.LVL125:
 1380              	.L163:
 1381              		.loc 1 2381 0
 1382 000e 1043     		orrs	r0, r0, r2
 1383              	.LVL126:
 1384 0010 5866     		str	r0, [r3, #100]
 1385 0012 7047     		bx	lr
 1386              	.L165:
 1387              		.align	2
 1388              	.L164:
 1389 0014 00380240 		.word	1073887232
 1390              		.cfi_endproc
 1391              	.LFE146:
 1392              		.size	RCC_APB2PeriphClockLPModeCmd, .-RCC_APB2PeriphClockLPModeCmd
 1393 0018 AFF30080 		.section	.text.RCC_LSEModeConfig,"ax",%progbits
 1393      AFF30080 
 1394              		.align	2
 1395              		.p2align 4,,15
 1396              		.global	RCC_LSEModeConfig
ARM GAS  /tmp/ccyJVbjO.s 			page 26


 1397              		.thumb
 1398              		.thumb_func
 1399              		.type	RCC_LSEModeConfig, %function
 1400              	RCC_LSEModeConfig:
 1401              	.LFB147:
 1402              		.loc 1 2399 0
 1403              		.cfi_startproc
 1404              		@ args = 0, pretend = 0, frame = 0
 1405              		@ frame_needed = 0, uses_anonymous_args = 0
 1406              		@ link register save eliminated.
 1407              	.LVL127:
 1408              		.loc 1 2405 0
 1409 0000 044B     		ldr	r3, .L169
 1410 0002 1A6F     		ldr	r2, [r3, #112]
 1411              		.loc 1 2403 0
 1412 0004 0128     		cmp	r0, #1
 1413              		.loc 1 2405 0
 1414 0006 0CBF     		ite	eq
 1415 0008 42F00802 		orreq	r2, r2, #8
 1416              		.loc 1 2409 0
 1417 000c 22F00802 		bicne	r2, r2, #8
 1418 0010 1A67     		str	r2, [r3, #112]
 1419 0012 7047     		bx	lr
 1420              	.L170:
 1421              		.align	2
 1422              	.L169:
 1423 0014 00380240 		.word	1073887232
 1424              		.cfi_endproc
 1425              	.LFE147:
 1426              		.size	RCC_LSEModeConfig, .-RCC_LSEModeConfig
 1427 0018 AFF30080 		.section	.text.RCC_ITConfig,"ax",%progbits
 1427      AFF30080 
 1428              		.align	2
 1429              		.p2align 4,,15
 1430              		.global	RCC_ITConfig
 1431              		.thumb
 1432              		.thumb_func
 1433              		.type	RCC_ITConfig, %function
 1434              	RCC_ITConfig:
 1435              	.LFB148:
 1436              		.loc 1 2701 0
 1437              		.cfi_startproc
 1438              		@ args = 0, pretend = 0, frame = 0
 1439              		@ frame_needed = 0, uses_anonymous_args = 0
 1440              		@ link register save eliminated.
 1441              	.LVL128:
 1442              		.loc 1 2708 0
 1443 0000 044B     		ldr	r3, .L175
 1444 0002 1A78     		ldrb	r2, [r3]	@ zero_extendqisi2
 1445              		.loc 1 2705 0
 1446 0004 19B9     		cbnz	r1, .L174
 1447              		.loc 1 2713 0
 1448 0006 22EA0000 		bic	r0, r2, r0
 1449              	.LVL129:
 1450 000a 1870     		strb	r0, [r3]
 1451 000c 7047     		bx	lr
 1452              	.LVL130:
ARM GAS  /tmp/ccyJVbjO.s 			page 27


 1453              	.L174:
 1454              		.loc 1 2708 0
 1455 000e 1043     		orrs	r0, r0, r2
 1456              	.LVL131:
 1457 0010 1870     		strb	r0, [r3]
 1458 0012 7047     		bx	lr
 1459              	.L176:
 1460              		.align	2
 1461              	.L175:
 1462 0014 0D380240 		.word	1073887245
 1463              		.cfi_endproc
 1464              	.LFE148:
 1465              		.size	RCC_ITConfig, .-RCC_ITConfig
 1466 0018 AFF30080 		.section	.text.RCC_GetFlagStatus,"ax",%progbits
 1466      AFF30080 
 1467              		.align	2
 1468              		.p2align 4,,15
 1469              		.global	RCC_GetFlagStatus
 1470              		.thumb
 1471              		.thumb_func
 1472              		.type	RCC_GetFlagStatus, %function
 1473              	RCC_GetFlagStatus:
 1474              	.LFB149:
 1475              		.loc 1 2738 0
 1476              		.cfi_startproc
 1477              		@ args = 0, pretend = 0, frame = 0
 1478              		@ frame_needed = 0, uses_anonymous_args = 0
 1479              		@ link register save eliminated.
 1480              	.LVL132:
 1481              		.loc 1 2747 0
 1482 0000 4309     		lsrs	r3, r0, #5
 1483              	.LVL133:
 1484              		.loc 1 2748 0
 1485 0002 012B     		cmp	r3, #1
 1486 0004 0BD0     		beq	.L181
 1487              		.loc 1 2752 0
 1488 0006 022B     		cmp	r3, #2
 1489              		.loc 1 2754 0
 1490 0008 094B     		ldr	r3, .L182
 1491              	.LVL134:
 1492 000a 0CBF     		ite	eq
 1493 000c 1B6F     		ldreq	r3, [r3, #112]
 1494              	.LVL135:
 1495              		.loc 1 2758 0
 1496 000e 5B6F     		ldrne	r3, [r3, #116]
 1497              	.LVL136:
 1498              		.loc 1 2763 0
 1499 0010 00F01F00 		and	r0, r0, #31
 1500              	.LVL137:
 1501 0014 23FA00F0 		lsr	r0, r3, r0
 1502              		.loc 1 2773 0
 1503 0018 00F00100 		and	r0, r0, #1
 1504 001c 7047     		bx	lr
 1505              	.LVL138:
 1506              	.L181:
 1507              		.loc 1 2750 0
 1508 001e 044B     		ldr	r3, .L182
ARM GAS  /tmp/ccyJVbjO.s 			page 28


 1509              	.LVL139:
 1510 0020 1B68     		ldr	r3, [r3]
 1511              	.LVL140:
 1512              		.loc 1 2763 0
 1513 0022 00F01F00 		and	r0, r0, #31
 1514              	.LVL141:
 1515 0026 23FA00F0 		lsr	r0, r3, r0
 1516              		.loc 1 2773 0
 1517 002a 00F00100 		and	r0, r0, #1
 1518 002e 7047     		bx	lr
 1519              	.L183:
 1520              		.align	2
 1521              	.L182:
 1522 0030 00380240 		.word	1073887232
 1523              		.cfi_endproc
 1524              	.LFE149:
 1525              		.size	RCC_GetFlagStatus, .-RCC_GetFlagStatus
 1526 0034 AFF30080 		.section	.text.RCC_ClearFlag,"ax",%progbits
 1526      AFF30080 
 1526      AFF30080 
 1527              		.align	2
 1528              		.p2align 4,,15
 1529              		.global	RCC_ClearFlag
 1530              		.thumb
 1531              		.thumb_func
 1532              		.type	RCC_ClearFlag, %function
 1533              	RCC_ClearFlag:
 1534              	.LFB150:
 1535              		.loc 1 2783 0
 1536              		.cfi_startproc
 1537              		@ args = 0, pretend = 0, frame = 0
 1538              		@ frame_needed = 0, uses_anonymous_args = 0
 1539              		@ link register save eliminated.
 1540              		.loc 1 2785 0
 1541 0000 024B     		ldr	r3, .L185
 1542 0002 5A6F     		ldr	r2, [r3, #116]
 1543 0004 42F08072 		orr	r2, r2, #16777216
 1544 0008 5A67     		str	r2, [r3, #116]
 1545 000a 7047     		bx	lr
 1546              	.L186:
 1547              		.align	2
 1548              	.L185:
 1549 000c 00380240 		.word	1073887232
 1550              		.cfi_endproc
 1551              	.LFE150:
 1552              		.size	RCC_ClearFlag, .-RCC_ClearFlag
 1553              		.section	.text.RCC_GetITStatus,"ax",%progbits
 1554              		.align	2
 1555              		.p2align 4,,15
 1556              		.global	RCC_GetITStatus
 1557              		.thumb
 1558              		.thumb_func
 1559              		.type	RCC_GetITStatus, %function
 1560              	RCC_GetITStatus:
 1561              	.LFB151:
 1562              		.loc 1 2803 0
 1563              		.cfi_startproc
ARM GAS  /tmp/ccyJVbjO.s 			page 29


 1564              		@ args = 0, pretend = 0, frame = 0
 1565              		@ frame_needed = 0, uses_anonymous_args = 0
 1566              		@ link register save eliminated.
 1567              	.LVL142:
 1568              		.loc 1 2810 0
 1569 0000 034B     		ldr	r3, .L188
 1570 0002 DB68     		ldr	r3, [r3, #12]
 1571              	.LVL143:
 1572 0004 1842     		tst	r0, r3
 1573              		.loc 1 2820 0
 1574 0006 0CBF     		ite	eq
 1575 0008 0020     		moveq	r0, #0
 1576 000a 0120     		movne	r0, #1
 1577              	.LVL144:
 1578 000c 7047     		bx	lr
 1579              	.L189:
 1580 000e 00BF     		.align	2
 1581              	.L188:
 1582 0010 00380240 		.word	1073887232
 1583              		.cfi_endproc
 1584              	.LFE151:
 1585              		.size	RCC_GetITStatus, .-RCC_GetITStatus
 1586 0014 AFF30080 		.section	.text.RCC_ClearITPendingBit,"ax",%progbits
 1586      AFF30080 
 1586      AFF30080 
 1587              		.align	2
 1588              		.p2align 4,,15
 1589              		.global	RCC_ClearITPendingBit
 1590              		.thumb
 1591              		.thumb_func
 1592              		.type	RCC_ClearITPendingBit, %function
 1593              	RCC_ClearITPendingBit:
 1594              	.LFB152:
 1595              		.loc 1 2837 0
 1596              		.cfi_startproc
 1597              		@ args = 0, pretend = 0, frame = 0
 1598              		@ frame_needed = 0, uses_anonymous_args = 0
 1599              		@ link register save eliminated.
 1600              	.LVL145:
 1601              		.loc 1 2843 0
 1602 0000 014B     		ldr	r3, .L191
 1603 0002 1870     		strb	r0, [r3]
 1604 0004 7047     		bx	lr
 1605              	.L192:
 1606 0006 00BF     		.align	2
 1607              	.L191:
 1608 0008 0E380240 		.word	1073887246
 1609              		.cfi_endproc
 1610              	.LFE152:
 1611              		.size	RCC_ClearITPendingBit, .-RCC_ClearITPendingBit
 1612 000c AFF30080 		.section	.data.APBAHBPrescTable,"aw",%progbits
 1613              		.align	2
 1614              		.set	.LANCHOR0,. + 0
 1615              		.type	APBAHBPrescTable, %object
 1616              		.size	APBAHBPrescTable, 16
 1617              	APBAHBPrescTable:
 1618 0000 00       		.byte	0
ARM GAS  /tmp/ccyJVbjO.s 			page 30


 1619 0001 00       		.byte	0
 1620 0002 00       		.byte	0
 1621 0003 00       		.byte	0
 1622 0004 01       		.byte	1
 1623 0005 02       		.byte	2
 1624 0006 03       		.byte	3
 1625 0007 04       		.byte	4
 1626 0008 01       		.byte	1
 1627 0009 02       		.byte	2
 1628 000a 03       		.byte	3
 1629 000b 04       		.byte	4
 1630 000c 06       		.byte	6
 1631 000d 07       		.byte	7
 1632 000e 08       		.byte	8
 1633 000f 09       		.byte	9
 1634              		.text
 1635              	.Letext0:
 1636              		.file 2 "/usr/include/newlib/machine/_default_types.h"
 1637              		.file 3 "/usr/include/newlib/stdint.h"
 1638              		.file 4 "ChibiOS_3.0.2/os/ext/CMSIS/ST/stm32f407xx.h"
 1639              		.file 5 "ChibiOS_3.0.2/os/ext/CMSIS/ST/stm32f4xx.h"
 1640              		.file 6 "ChibiOS_3.0.2/ext/stdperiph_stm32f4/inc/stm32f4xx_rcc.h"
 1641              		.file 7 "ChibiOS_3.0.2/os/ext/CMSIS/include/core_cm4.h"
 1642              		.section	.debug_info,"",%progbits
 1643              	.Ldebug_info0:
 1644 0000 060C0000 		.4byte	0xc06
 1645 0004 0400     		.2byte	0x4
 1646 0006 00000000 		.4byte	.Ldebug_abbrev0
 1647 000a 04       		.byte	0x4
 1648 000b 01       		.uleb128 0x1
 1649 000c E8010000 		.4byte	.LASF131
 1650 0010 01       		.byte	0x1
 1651 0011 D2070000 		.4byte	.LASF132
 1652 0015 4E030000 		.4byte	.LASF133
 1653 0019 18000000 		.4byte	.Ldebug_ranges0+0x18
 1654 001d 00000000 		.4byte	0
 1655 0021 00000000 		.4byte	.Ldebug_line0
 1656 0025 02       		.uleb128 0x2
 1657 0026 01       		.byte	0x1
 1658 0027 06       		.byte	0x6
 1659 0028 1A010000 		.4byte	.LASF0
 1660 002c 03       		.uleb128 0x3
 1661 002d 59000000 		.4byte	.LASF3
 1662 0031 02       		.byte	0x2
 1663 0032 1D       		.byte	0x1d
 1664 0033 37000000 		.4byte	0x37
 1665 0037 02       		.uleb128 0x2
 1666 0038 01       		.byte	0x1
 1667 0039 08       		.byte	0x8
 1668 003a A8050000 		.4byte	.LASF1
 1669 003e 02       		.uleb128 0x2
 1670 003f 02       		.byte	0x2
 1671 0040 05       		.byte	0x5
 1672 0041 B6050000 		.4byte	.LASF2
 1673 0045 03       		.uleb128 0x3
 1674 0046 E8060000 		.4byte	.LASF4
 1675 004a 02       		.byte	0x2
ARM GAS  /tmp/ccyJVbjO.s 			page 31


 1676 004b 2B       		.byte	0x2b
 1677 004c 50000000 		.4byte	0x50
 1678 0050 02       		.uleb128 0x2
 1679 0051 02       		.byte	0x2
 1680 0052 07       		.byte	0x7
 1681 0053 28040000 		.4byte	.LASF5
 1682 0057 03       		.uleb128 0x3
 1683 0058 07070000 		.4byte	.LASF6
 1684 005c 02       		.byte	0x2
 1685 005d 3F       		.byte	0x3f
 1686 005e 62000000 		.4byte	0x62
 1687 0062 02       		.uleb128 0x2
 1688 0063 04       		.byte	0x4
 1689 0064 05       		.byte	0x5
 1690 0065 39080000 		.4byte	.LASF7
 1691 0069 03       		.uleb128 0x3
 1692 006a 23030000 		.4byte	.LASF8
 1693 006e 02       		.byte	0x2
 1694 006f 41       		.byte	0x41
 1695 0070 74000000 		.4byte	0x74
 1696 0074 02       		.uleb128 0x2
 1697 0075 04       		.byte	0x4
 1698 0076 07       		.byte	0x7
 1699 0077 DA030000 		.4byte	.LASF9
 1700 007b 02       		.uleb128 0x2
 1701 007c 08       		.byte	0x8
 1702 007d 05       		.byte	0x5
 1703 007e C0010000 		.4byte	.LASF10
 1704 0082 02       		.uleb128 0x2
 1705 0083 08       		.byte	0x8
 1706 0084 07       		.byte	0x7
 1707 0085 A7000000 		.4byte	.LASF11
 1708 0089 04       		.uleb128 0x4
 1709 008a 04       		.byte	0x4
 1710 008b 05       		.byte	0x5
 1711 008c 696E7400 		.ascii	"int\000"
 1712 0090 02       		.uleb128 0x2
 1713 0091 04       		.byte	0x4
 1714 0092 07       		.byte	0x7
 1715 0093 AD030000 		.4byte	.LASF12
 1716 0097 03       		.uleb128 0x3
 1717 0098 0A080000 		.4byte	.LASF13
 1718 009c 03       		.byte	0x3
 1719 009d 2A       		.byte	0x2a
 1720 009e 2C000000 		.4byte	0x2c
 1721 00a2 03       		.uleb128 0x3
 1722 00a3 DF010000 		.4byte	.LASF14
 1723 00a7 03       		.byte	0x3
 1724 00a8 36       		.byte	0x36
 1725 00a9 45000000 		.4byte	0x45
 1726 00ad 03       		.uleb128 0x3
 1727 00ae A0050000 		.4byte	.LASF15
 1728 00b2 03       		.byte	0x3
 1729 00b3 41       		.byte	0x41
 1730 00b4 57000000 		.4byte	0x57
 1731 00b8 03       		.uleb128 0x3
 1732 00b9 6D060000 		.4byte	.LASF16
ARM GAS  /tmp/ccyJVbjO.s 			page 32


 1733 00bd 03       		.byte	0x3
 1734 00be 42       		.byte	0x42
 1735 00bf 69000000 		.4byte	0x69
 1736 00c3 02       		.uleb128 0x2
 1737 00c4 04       		.byte	0x4
 1738 00c5 07       		.byte	0x7
 1739 00c6 A4040000 		.4byte	.LASF17
 1740 00ca 05       		.uleb128 0x5
 1741 00cb B8000000 		.4byte	0xb8
 1742 00cf 06       		.uleb128 0x6
 1743 00d0 B8000000 		.4byte	0xb8
 1744 00d4 DF000000 		.4byte	0xdf
 1745 00d8 07       		.uleb128 0x7
 1746 00d9 C3000000 		.4byte	0xc3
 1747 00dd 01       		.byte	0x1
 1748 00de 00       		.byte	0
 1749 00df 08       		.uleb128 0x8
 1750 00e0 88       		.byte	0x88
 1751 00e1 04       		.byte	0x4
 1752 00e2 6702     		.2byte	0x267
 1753 00e4 6E020000 		.4byte	0x26e
 1754 00e8 09       		.uleb128 0x9
 1755 00e9 435200   		.ascii	"CR\000"
 1756 00ec 04       		.byte	0x4
 1757 00ed 6902     		.2byte	0x269
 1758 00ef CA000000 		.4byte	0xca
 1759 00f3 00       		.byte	0
 1760 00f4 0A       		.uleb128 0xa
 1761 00f5 08030000 		.4byte	.LASF18
 1762 00f9 04       		.byte	0x4
 1763 00fa 6A02     		.2byte	0x26a
 1764 00fc CA000000 		.4byte	0xca
 1765 0100 04       		.byte	0x4
 1766 0101 0A       		.uleb128 0xa
 1767 0102 34080000 		.4byte	.LASF19
 1768 0106 04       		.byte	0x4
 1769 0107 6B02     		.2byte	0x26b
 1770 0109 CA000000 		.4byte	0xca
 1771 010d 08       		.byte	0x8
 1772 010e 09       		.uleb128 0x9
 1773 010f 43495200 		.ascii	"CIR\000"
 1774 0113 04       		.byte	0x4
 1775 0114 6C02     		.2byte	0x26c
 1776 0116 CA000000 		.4byte	0xca
 1777 011a 0C       		.byte	0xc
 1778 011b 0A       		.uleb128 0xa
 1779 011c 26010000 		.4byte	.LASF20
 1780 0120 04       		.byte	0x4
 1781 0121 6D02     		.2byte	0x26d
 1782 0123 CA000000 		.4byte	0xca
 1783 0127 10       		.byte	0x10
 1784 0128 0A       		.uleb128 0xa
 1785 0129 F3060000 		.4byte	.LASF21
 1786 012d 04       		.byte	0x4
 1787 012e 6E02     		.2byte	0x26e
 1788 0130 CA000000 		.4byte	0xca
 1789 0134 14       		.byte	0x14
ARM GAS  /tmp/ccyJVbjO.s 			page 33


 1790 0135 0A       		.uleb128 0xa
 1791 0136 FE050000 		.4byte	.LASF22
 1792 013a 04       		.byte	0x4
 1793 013b 6F02     		.2byte	0x26f
 1794 013d CA000000 		.4byte	0xca
 1795 0141 18       		.byte	0x18
 1796 0142 0A       		.uleb128 0xa
 1797 0143 34050000 		.4byte	.LASF23
 1798 0147 04       		.byte	0x4
 1799 0148 7002     		.2byte	0x270
 1800 014a B8000000 		.4byte	0xb8
 1801 014e 1C       		.byte	0x1c
 1802 014f 0A       		.uleb128 0xa
 1803 0150 8E070000 		.4byte	.LASF24
 1804 0154 04       		.byte	0x4
 1805 0155 7102     		.2byte	0x271
 1806 0157 CA000000 		.4byte	0xca
 1807 015b 20       		.byte	0x20
 1808 015c 0A       		.uleb128 0xa
 1809 015d 7A010000 		.4byte	.LASF25
 1810 0161 04       		.byte	0x4
 1811 0162 7202     		.2byte	0x272
 1812 0164 CA000000 		.4byte	0xca
 1813 0168 24       		.byte	0x24
 1814 0169 0A       		.uleb128 0xa
 1815 016a 3E050000 		.4byte	.LASF26
 1816 016e 04       		.byte	0x4
 1817 016f 7302     		.2byte	0x273
 1818 0171 CF000000 		.4byte	0xcf
 1819 0175 28       		.byte	0x28
 1820 0176 0A       		.uleb128 0xa
 1821 0177 2C080000 		.4byte	.LASF27
 1822 017b 04       		.byte	0x4
 1823 017c 7402     		.2byte	0x274
 1824 017e CA000000 		.4byte	0xca
 1825 0182 30       		.byte	0x30
 1826 0183 0A       		.uleb128 0xa
 1827 0184 29070000 		.4byte	.LASF28
 1828 0188 04       		.byte	0x4
 1829 0189 7502     		.2byte	0x275
 1830 018b CA000000 		.4byte	0xca
 1831 018f 34       		.byte	0x34
 1832 0190 0A       		.uleb128 0xa
 1833 0191 CE040000 		.4byte	.LASF29
 1834 0195 04       		.byte	0x4
 1835 0196 7602     		.2byte	0x276
 1836 0198 CA000000 		.4byte	0xca
 1837 019c 38       		.byte	0x38
 1838 019d 0A       		.uleb128 0xa
 1839 019e 48050000 		.4byte	.LASF30
 1840 01a2 04       		.byte	0x4
 1841 01a3 7702     		.2byte	0x277
 1842 01a5 B8000000 		.4byte	0xb8
 1843 01a9 3C       		.byte	0x3c
 1844 01aa 0A       		.uleb128 0xa
 1845 01ab 21070000 		.4byte	.LASF31
 1846 01af 04       		.byte	0x4
ARM GAS  /tmp/ccyJVbjO.s 			page 34


 1847 01b0 7802     		.2byte	0x278
 1848 01b2 CA000000 		.4byte	0xca
 1849 01b6 40       		.byte	0x40
 1850 01b7 0A       		.uleb128 0xa
 1851 01b8 F6050000 		.4byte	.LASF32
 1852 01bc 04       		.byte	0x4
 1853 01bd 7902     		.2byte	0x279
 1854 01bf CA000000 		.4byte	0xca
 1855 01c3 44       		.byte	0x44
 1856 01c4 0A       		.uleb128 0xa
 1857 01c5 52050000 		.4byte	.LASF33
 1858 01c9 04       		.byte	0x4
 1859 01ca 7A02     		.2byte	0x27a
 1860 01cc CF000000 		.4byte	0xcf
 1861 01d0 48       		.byte	0x48
 1862 01d1 0A       		.uleb128 0xa
 1863 01d2 DA000000 		.4byte	.LASF34
 1864 01d6 04       		.byte	0x4
 1865 01d7 7B02     		.2byte	0x27b
 1866 01d9 CA000000 		.4byte	0xca
 1867 01dd 50       		.byte	0x50
 1868 01de 0A       		.uleb128 0xa
 1869 01df E8040000 		.4byte	.LASF35
 1870 01e3 04       		.byte	0x4
 1871 01e4 7C02     		.2byte	0x27c
 1872 01e6 CA000000 		.4byte	0xca
 1873 01ea 54       		.byte	0x54
 1874 01eb 0A       		.uleb128 0xa
 1875 01ec 84070000 		.4byte	.LASF36
 1876 01f0 04       		.byte	0x4
 1877 01f1 7D02     		.2byte	0x27d
 1878 01f3 CA000000 		.4byte	0xca
 1879 01f7 58       		.byte	0x58
 1880 01f8 0A       		.uleb128 0xa
 1881 01f9 5C050000 		.4byte	.LASF37
 1882 01fd 04       		.byte	0x4
 1883 01fe 7E02     		.2byte	0x27e
 1884 0200 B8000000 		.4byte	0xb8
 1885 0204 5C       		.byte	0x5c
 1886 0205 0A       		.uleb128 0xa
 1887 0206 11000000 		.4byte	.LASF38
 1888 020a 04       		.byte	0x4
 1889 020b 7F02     		.2byte	0x27f
 1890 020d CA000000 		.4byte	0xca
 1891 0211 60       		.byte	0x60
 1892 0212 0A       		.uleb128 0xa
 1893 0213 80040000 		.4byte	.LASF39
 1894 0217 04       		.byte	0x4
 1895 0218 8002     		.2byte	0x280
 1896 021a CA000000 		.4byte	0xca
 1897 021e 64       		.byte	0x64
 1898 021f 0A       		.uleb128 0xa
 1899 0220 66050000 		.4byte	.LASF40
 1900 0224 04       		.byte	0x4
 1901 0225 8102     		.2byte	0x281
 1902 0227 CF000000 		.4byte	0xcf
 1903 022b 68       		.byte	0x68
ARM GAS  /tmp/ccyJVbjO.s 			page 35


 1904 022c 0A       		.uleb128 0xa
 1905 022d A9070000 		.4byte	.LASF41
 1906 0231 04       		.byte	0x4
 1907 0232 8202     		.2byte	0x282
 1908 0234 CA000000 		.4byte	0xca
 1909 0238 70       		.byte	0x70
 1910 0239 09       		.uleb128 0x9
 1911 023a 43535200 		.ascii	"CSR\000"
 1912 023e 04       		.byte	0x4
 1913 023f 8302     		.2byte	0x283
 1914 0241 CA000000 		.4byte	0xca
 1915 0245 74       		.byte	0x74
 1916 0246 0A       		.uleb128 0xa
 1917 0247 70050000 		.4byte	.LASF42
 1918 024b 04       		.byte	0x4
 1919 024c 8402     		.2byte	0x284
 1920 024e CF000000 		.4byte	0xcf
 1921 0252 78       		.byte	0x78
 1922 0253 0A       		.uleb128 0xa
 1923 0254 7E070000 		.4byte	.LASF43
 1924 0258 04       		.byte	0x4
 1925 0259 8502     		.2byte	0x285
 1926 025b CA000000 		.4byte	0xca
 1927 025f 80       		.byte	0x80
 1928 0260 0A       		.uleb128 0xa
 1929 0261 3B040000 		.4byte	.LASF44
 1930 0265 04       		.byte	0x4
 1931 0266 8602     		.2byte	0x286
 1932 0268 CA000000 		.4byte	0xca
 1933 026c 84       		.byte	0x84
 1934 026d 00       		.byte	0
 1935 026e 0B       		.uleb128 0xb
 1936 026f 05040000 		.4byte	.LASF45
 1937 0273 04       		.byte	0x4
 1938 0274 8802     		.2byte	0x288
 1939 0276 DF000000 		.4byte	0xdf
 1940 027a 0C       		.uleb128 0xc
 1941 027b 01       		.byte	0x1
 1942 027c 05       		.byte	0x5
 1943 027d A2       		.byte	0xa2
 1944 027e 8F020000 		.4byte	0x28f
 1945 0282 0D       		.uleb128 0xd
 1946 0283 7A050000 		.4byte	.LASF46
 1947 0287 00       		.sleb128 0
 1948 0288 0E       		.uleb128 0xe
 1949 0289 53455400 		.ascii	"SET\000"
 1950 028d 01       		.sleb128 1
 1951 028e 00       		.byte	0
 1952 028f 03       		.uleb128 0x3
 1953 0290 33000000 		.4byte	.LASF47
 1954 0294 05       		.byte	0x5
 1955 0295 A5       		.byte	0xa5
 1956 0296 7A020000 		.4byte	0x27a
 1957 029a 03       		.uleb128 0x3
 1958 029b 8E030000 		.4byte	.LASF48
 1959 029f 05       		.byte	0x5
 1960 02a0 A5       		.byte	0xa5
ARM GAS  /tmp/ccyJVbjO.s 			page 36


 1961 02a1 7A020000 		.4byte	0x27a
 1962 02a5 0C       		.uleb128 0xc
 1963 02a6 01       		.byte	0x1
 1964 02a7 05       		.byte	0x5
 1965 02a8 A8       		.byte	0xa8
 1966 02a9 BA020000 		.4byte	0x2ba
 1967 02ad 0D       		.uleb128 0xd
 1968 02ae 89000000 		.4byte	.LASF49
 1969 02b2 00       		.sleb128 0
 1970 02b3 0D       		.uleb128 0xd
 1971 02b4 73010000 		.4byte	.LASF50
 1972 02b8 01       		.sleb128 1
 1973 02b9 00       		.byte	0
 1974 02ba 03       		.uleb128 0x3
 1975 02bb F2040000 		.4byte	.LASF51
 1976 02bf 05       		.byte	0x5
 1977 02c0 AB       		.byte	0xab
 1978 02c1 A5020000 		.4byte	0x2a5
 1979 02c5 0C       		.uleb128 0xc
 1980 02c6 01       		.byte	0x1
 1981 02c7 05       		.byte	0x5
 1982 02c8 AF       		.byte	0xaf
 1983 02c9 DA020000 		.4byte	0x2da
 1984 02cd 0D       		.uleb128 0xd
 1985 02ce AD040000 		.4byte	.LASF52
 1986 02d2 00       		.sleb128 0
 1987 02d3 0D       		.uleb128 0xd
 1988 02d4 12080000 		.4byte	.LASF53
 1989 02d8 01       		.sleb128 1
 1990 02d9 00       		.byte	0
 1991 02da 03       		.uleb128 0x3
 1992 02db 2E030000 		.4byte	.LASF54
 1993 02df 05       		.byte	0x5
 1994 02e0 B2       		.byte	0xb2
 1995 02e1 C5020000 		.4byte	0x2c5
 1996 02e5 0F       		.uleb128 0xf
 1997 02e6 10       		.byte	0x10
 1998 02e7 06       		.byte	0x6
 1999 02e8 30       		.byte	0x30
 2000 02e9 1E030000 		.4byte	0x31e
 2001 02ed 10       		.uleb128 0x10
 2002 02ee 3E000000 		.4byte	.LASF55
 2003 02f2 06       		.byte	0x6
 2004 02f3 32       		.byte	0x32
 2005 02f4 B8000000 		.4byte	0xb8
 2006 02f8 00       		.byte	0
 2007 02f9 10       		.uleb128 0x10
 2008 02fa 7F030000 		.4byte	.LASF56
 2009 02fe 06       		.byte	0x6
 2010 02ff 33       		.byte	0x33
 2011 0300 B8000000 		.4byte	0xb8
 2012 0304 04       		.byte	0x4
 2013 0305 10       		.uleb128 0x10
 2014 0306 76060000 		.4byte	.LASF57
 2015 030a 06       		.byte	0x6
 2016 030b 34       		.byte	0x34
 2017 030c B8000000 		.4byte	0xb8
ARM GAS  /tmp/ccyJVbjO.s 			page 37


 2018 0310 08       		.byte	0x8
 2019 0311 10       		.uleb128 0x10
 2020 0312 4C010000 		.4byte	.LASF58
 2021 0316 06       		.byte	0x6
 2022 0317 35       		.byte	0x35
 2023 0318 B8000000 		.4byte	0xb8
 2024 031c 0C       		.byte	0xc
 2025 031d 00       		.byte	0
 2026 031e 03       		.uleb128 0x3
 2027 031f 1A080000 		.4byte	.LASF59
 2028 0323 06       		.byte	0x6
 2029 0324 36       		.byte	0x36
 2030 0325 E5020000 		.4byte	0x2e5
 2031 0329 11       		.uleb128 0x11
 2032 032a 80050000 		.4byte	.LASF134
 2033 032e 01       		.byte	0x1
 2034 032f B10A     		.2byte	0xab1
 2035 0331 8F020000 		.4byte	0x28f
 2036 0335 01       		.byte	0x1
 2037 0336 6B030000 		.4byte	0x36b
 2038 033a 12       		.uleb128 0x12
 2039 033b E2020000 		.4byte	.LASF135
 2040 033f 01       		.byte	0x1
 2041 0340 B10A     		.2byte	0xab1
 2042 0342 97000000 		.4byte	0x97
 2043 0346 13       		.uleb128 0x13
 2044 0347 746D7000 		.ascii	"tmp\000"
 2045 034b 01       		.byte	0x1
 2046 034c B30A     		.2byte	0xab3
 2047 034e B8000000 		.4byte	0xb8
 2048 0352 14       		.uleb128 0x14
 2049 0353 29000000 		.4byte	.LASF60
 2050 0357 01       		.byte	0x1
 2051 0358 B40A     		.2byte	0xab4
 2052 035a B8000000 		.4byte	0xb8
 2053 035e 14       		.uleb128 0x14
 2054 035f 75030000 		.4byte	.LASF61
 2055 0363 01       		.byte	0x1
 2056 0364 B50A     		.2byte	0xab5
 2057 0366 8F020000 		.4byte	0x28f
 2058 036a 00       		.byte	0
 2059 036b 15       		.uleb128 0x15
 2060 036c FC060000 		.4byte	.LASF125
 2061 0370 01       		.byte	0x1
 2062 0371 F5       		.byte	0xf5
 2063 0372 00000000 		.4byte	.LFB112
 2064 0376 34000000 		.4byte	.LFE112-.LFB112
 2065 037a 01       		.uleb128 0x1
 2066 037b 9C       		.byte	0x9c
 2067 037c 16       		.uleb128 0x16
 2068 037d 92050000 		.4byte	.LASF65
 2069 0381 01       		.byte	0x1
 2070 0382 2801     		.2byte	0x128
 2071 0384 00000000 		.4byte	.LFB113
 2072 0388 10000000 		.4byte	.LFE113-.LFB113
 2073 038c 01       		.uleb128 0x1
 2074 038d 9C       		.byte	0x9c
ARM GAS  /tmp/ccyJVbjO.s 			page 38


 2075 038e A1030000 		.4byte	0x3a1
 2076 0392 17       		.uleb128 0x17
 2077 0393 65060000 		.4byte	.LASF67
 2078 0397 01       		.byte	0x1
 2079 0398 2801     		.2byte	0x128
 2080 039a 97000000 		.4byte	0x97
 2081 039e 01       		.uleb128 0x1
 2082 039f 50       		.byte	0x50
 2083 03a0 00       		.byte	0
 2084 03a1 18       		.uleb128 0x18
 2085 03a2 2F010000 		.4byte	.LASF127
 2086 03a6 01       		.byte	0x1
 2087 03a7 4001     		.2byte	0x140
 2088 03a9 DA020000 		.4byte	0x2da
 2089 03ad 00000000 		.4byte	.LFB114
 2090 03b1 38000000 		.4byte	.LFE114-.LFB114
 2091 03b5 01       		.uleb128 0x1
 2092 03b6 9C       		.byte	0x9c
 2093 03b7 62040000 		.4byte	0x462
 2094 03bb 19       		.uleb128 0x19
 2095 03bc 3C070000 		.4byte	.LASF62
 2096 03c0 01       		.byte	0x1
 2097 03c1 4201     		.2byte	0x142
 2098 03c3 CA000000 		.4byte	0xca
 2099 03c7 02       		.uleb128 0x2
 2100 03c8 91       		.byte	0x91
 2101 03c9 7C       		.sleb128 -4
 2102 03ca 1A       		.uleb128 0x1a
 2103 03cb A2070000 		.4byte	.LASF63
 2104 03cf 01       		.byte	0x1
 2105 03d0 4301     		.2byte	0x143
 2106 03d2 DA020000 		.4byte	0x2da
 2107 03d6 00000000 		.4byte	.LLST0
 2108 03da 14       		.uleb128 0x14
 2109 03db B5060000 		.4byte	.LASF64
 2110 03df 01       		.byte	0x1
 2111 03e0 4401     		.2byte	0x144
 2112 03e2 8F020000 		.4byte	0x28f
 2113 03e6 1B       		.uleb128 0x1b
 2114 03e7 29030000 		.4byte	0x329
 2115 03eb 04000000 		.4byte	.LBB6
 2116 03ef 00000000 		.4byte	.Ldebug_ranges0+0
 2117 03f3 01       		.byte	0x1
 2118 03f4 4801     		.2byte	0x148
 2119 03f6 22040000 		.4byte	0x422
 2120 03fa 1C       		.uleb128 0x1c
 2121 03fb 3A030000 		.4byte	0x33a
 2122 03ff 31       		.byte	0x31
 2123 0400 1D       		.uleb128 0x1d
 2124 0401 00000000 		.4byte	.Ldebug_ranges0+0
 2125 0405 1E       		.uleb128 0x1e
 2126 0406 46030000 		.4byte	0x346
 2127 040a 31000000 		.4byte	.LLST1
 2128 040e 1E       		.uleb128 0x1e
 2129 040f 52030000 		.4byte	0x352
 2130 0413 51000000 		.4byte	.LLST2
 2131 0417 1E       		.uleb128 0x1e
ARM GAS  /tmp/ccyJVbjO.s 			page 39


 2132 0418 5E030000 		.4byte	0x35e
 2133 041c 70000000 		.4byte	.LLST3
 2134 0420 00       		.byte	0
 2135 0421 00       		.byte	0
 2136 0422 1F       		.uleb128 0x1f
 2137 0423 29030000 		.4byte	0x329
 2138 0427 1C000000 		.4byte	.LBB10
 2139 042b 04000000 		.4byte	.LBE10-.LBB10
 2140 042f 01       		.byte	0x1
 2141 0430 4C01     		.2byte	0x14c
 2142 0432 20       		.uleb128 0x20
 2143 0433 3A030000 		.4byte	0x33a
 2144 0437 90000000 		.4byte	.LLST4
 2145 043b 21       		.uleb128 0x21
 2146 043c 1C000000 		.4byte	.LBB11
 2147 0440 04000000 		.4byte	.LBE11-.LBB11
 2148 0444 1E       		.uleb128 0x1e
 2149 0445 46030000 		.4byte	0x346
 2150 0449 A5000000 		.4byte	.LLST5
 2151 044d 1E       		.uleb128 0x1e
 2152 044e 52030000 		.4byte	0x352
 2153 0452 C5000000 		.4byte	.LLST6
 2154 0456 1E       		.uleb128 0x1e
 2155 0457 5E030000 		.4byte	0x35e
 2156 045b E4000000 		.4byte	.LLST7
 2157 045f 00       		.byte	0
 2158 0460 00       		.byte	0
 2159 0461 00       		.byte	0
 2160 0462 16       		.uleb128 0x16
 2161 0463 97060000 		.4byte	.LASF66
 2162 0467 01       		.byte	0x1
 2163 0468 5F01     		.2byte	0x15f
 2164 046a 00000000 		.4byte	.LFB115
 2165 046e 14000000 		.4byte	.LFE115-.LFB115
 2166 0472 01       		.uleb128 0x1
 2167 0473 9C       		.byte	0x9c
 2168 0474 99040000 		.4byte	0x499
 2169 0478 22       		.uleb128 0x22
 2170 0479 EB020000 		.4byte	.LASF68
 2171 047d 01       		.byte	0x1
 2172 047e 5F01     		.2byte	0x15f
 2173 0480 97000000 		.4byte	0x97
 2174 0484 F8000000 		.4byte	.LLST8
 2175 0488 1A       		.uleb128 0x1a
 2176 0489 45010000 		.4byte	.LASF69
 2177 048d 01       		.byte	0x1
 2178 048e 6101     		.2byte	0x161
 2179 0490 B8000000 		.4byte	0xb8
 2180 0494 19010000 		.4byte	.LLST9
 2181 0498 00       		.byte	0
 2182 0499 16       		.uleb128 0x16
 2183 049a 31070000 		.4byte	.LASF70
 2184 049e 01       		.byte	0x1
 2185 049f 8301     		.2byte	0x183
 2186 04a1 00000000 		.4byte	.LFB116
 2187 04a5 0C000000 		.4byte	.LFE116-.LFB116
 2188 04a9 01       		.uleb128 0x1
ARM GAS  /tmp/ccyJVbjO.s 			page 40


 2189 04aa 9C       		.byte	0x9c
 2190 04ab BE040000 		.4byte	0x4be
 2191 04af 17       		.uleb128 0x17
 2192 04b0 FF020000 		.4byte	.LASF71
 2193 04b4 01       		.byte	0x1
 2194 04b5 8301     		.2byte	0x183
 2195 04b7 BA020000 		.4byte	0x2ba
 2196 04bb 01       		.uleb128 0x1
 2197 04bc 50       		.byte	0x50
 2198 04bd 00       		.byte	0
 2199 04be 16       		.uleb128 0x16
 2200 04bf 63040000 		.4byte	.LASF72
 2201 04c3 01       		.byte	0x1
 2202 04c4 9C01     		.2byte	0x19c
 2203 04c6 00000000 		.4byte	.LFB117
 2204 04ca 20000000 		.4byte	.LFE117-.LFB117
 2205 04ce 01       		.uleb128 0x1
 2206 04cf 9C       		.byte	0x9c
 2207 04d0 E3040000 		.4byte	0x4e3
 2208 04d4 17       		.uleb128 0x17
 2209 04d5 09000000 		.4byte	.LASF73
 2210 04d9 01       		.byte	0x1
 2211 04da 9C01     		.2byte	0x19c
 2212 04dc 97000000 		.4byte	0x97
 2213 04e0 01       		.uleb128 0x1
 2214 04e1 50       		.byte	0x50
 2215 04e2 00       		.byte	0
 2216 04e3 16       		.uleb128 0x16
 2217 04e4 97070000 		.4byte	.LASF74
 2218 04e8 01       		.byte	0x1
 2219 04e9 C401     		.2byte	0x1c4
 2220 04eb 00000000 		.4byte	.LFB118
 2221 04ef 0C000000 		.4byte	.LFE118-.LFB118
 2222 04f3 01       		.uleb128 0x1
 2223 04f4 9C       		.byte	0x9c
 2224 04f5 08050000 		.4byte	0x508
 2225 04f9 17       		.uleb128 0x17
 2226 04fa FF020000 		.4byte	.LASF71
 2227 04fe 01       		.byte	0x1
 2228 04ff C401     		.2byte	0x1c4
 2229 0501 BA020000 		.4byte	0x2ba
 2230 0505 01       		.uleb128 0x1
 2231 0506 50       		.byte	0x50
 2232 0507 00       		.byte	0
 2233 0508 16       		.uleb128 0x16
 2234 0509 D4050000 		.4byte	.LASF75
 2235 050d 01       		.byte	0x1
 2236 050e 3F02     		.2byte	0x23f
 2237 0510 00000000 		.4byte	.LFB119
 2238 0514 0C000000 		.4byte	.LFE119-.LFB119
 2239 0518 01       		.uleb128 0x1
 2240 0519 9C       		.byte	0x9c
 2241 051a 2D050000 		.4byte	0x52d
 2242 051e 17       		.uleb128 0x17
 2243 051f FF020000 		.4byte	.LASF71
 2244 0523 01       		.byte	0x1
 2245 0524 3F02     		.2byte	0x23f
ARM GAS  /tmp/ccyJVbjO.s 			page 41


 2246 0526 BA020000 		.4byte	0x2ba
 2247 052a 01       		.uleb128 0x1
 2248 052b 50       		.byte	0x50
 2249 052c 00       		.byte	0
 2250 052d 16       		.uleb128 0x16
 2251 052e F7030000 		.4byte	.LASF76
 2252 0532 01       		.byte	0x1
 2253 0533 E802     		.2byte	0x2e8
 2254 0535 00000000 		.4byte	.LFB120
 2255 0539 0C000000 		.4byte	.LFE120-.LFB120
 2256 053d 01       		.uleb128 0x1
 2257 053e 9C       		.byte	0x9c
 2258 053f 52050000 		.4byte	0x552
 2259 0543 17       		.uleb128 0x17
 2260 0544 FF020000 		.4byte	.LASF71
 2261 0548 01       		.byte	0x1
 2262 0549 E802     		.2byte	0x2e8
 2263 054b BA020000 		.4byte	0x2ba
 2264 054f 01       		.uleb128 0x1
 2265 0550 50       		.byte	0x50
 2266 0551 00       		.byte	0
 2267 0552 16       		.uleb128 0x16
 2268 0553 1B000000 		.4byte	.LASF77
 2269 0557 01       		.byte	0x1
 2270 0558 6903     		.2byte	0x369
 2271 055a 00000000 		.4byte	.LFB121
 2272 055e 0C000000 		.4byte	.LFE121-.LFB121
 2273 0562 01       		.uleb128 0x1
 2274 0563 9C       		.byte	0x9c
 2275 0564 77050000 		.4byte	0x577
 2276 0568 17       		.uleb128 0x17
 2277 0569 FF020000 		.4byte	.LASF71
 2278 056d 01       		.byte	0x1
 2279 056e 6903     		.2byte	0x369
 2280 0570 BA020000 		.4byte	0x2ba
 2281 0574 01       		.uleb128 0x1
 2282 0575 50       		.byte	0x50
 2283 0576 00       		.byte	0
 2284 0577 16       		.uleb128 0x16
 2285 0578 B3040000 		.4byte	.LASF78
 2286 057c 01       		.byte	0x1
 2287 057d 7B03     		.2byte	0x37b
 2288 057f 00000000 		.4byte	.LFB122
 2289 0583 0C000000 		.4byte	.LFE122-.LFB122
 2290 0587 01       		.uleb128 0x1
 2291 0588 9C       		.byte	0x9c
 2292 0589 9C050000 		.4byte	0x59c
 2293 058d 17       		.uleb128 0x17
 2294 058e FF020000 		.4byte	.LASF71
 2295 0592 01       		.byte	0x1
 2296 0593 7B03     		.2byte	0x37b
 2297 0595 BA020000 		.4byte	0x2ba
 2298 0599 01       		.uleb128 0x1
 2299 059a 50       		.byte	0x50
 2300 059b 00       		.byte	0
 2301 059c 16       		.uleb128 0x16
 2302 059d CB030000 		.4byte	.LASF79
ARM GAS  /tmp/ccyJVbjO.s 			page 42


 2303 05a1 01       		.byte	0x1
 2304 05a2 9403     		.2byte	0x394
 2305 05a4 00000000 		.4byte	.LFB123
 2306 05a8 14000000 		.4byte	.LFE123-.LFB123
 2307 05ac 01       		.uleb128 0x1
 2308 05ad 9C       		.byte	0x9c
 2309 05ae E3050000 		.4byte	0x5e3
 2310 05b2 22       		.uleb128 0x22
 2311 05b3 63000000 		.4byte	.LASF80
 2312 05b7 01       		.byte	0x1
 2313 05b8 9403     		.2byte	0x394
 2314 05ba B8000000 		.4byte	0xb8
 2315 05be 43010000 		.4byte	.LLST10
 2316 05c2 22       		.uleb128 0x22
 2317 05c3 02050000 		.4byte	.LASF81
 2318 05c7 01       		.byte	0x1
 2319 05c8 9403     		.2byte	0x394
 2320 05ca B8000000 		.4byte	0xb8
 2321 05ce 64010000 		.4byte	.LLST11
 2322 05d2 1A       		.uleb128 0x1a
 2323 05d3 45010000 		.4byte	.LASF69
 2324 05d7 01       		.byte	0x1
 2325 05d8 9603     		.2byte	0x396
 2326 05da B8000000 		.4byte	0xb8
 2327 05de 85010000 		.4byte	.LLST12
 2328 05e2 00       		.byte	0
 2329 05e3 16       		.uleb128 0x16
 2330 05e4 6F070000 		.4byte	.LASF82
 2331 05e8 01       		.byte	0x1
 2332 05e9 C103     		.2byte	0x3c1
 2333 05eb 00000000 		.4byte	.LFB124
 2334 05ef 14000000 		.4byte	.LFE124-.LFB124
 2335 05f3 01       		.uleb128 0x1
 2336 05f4 9C       		.byte	0x9c
 2337 05f5 2A060000 		.4byte	0x62a
 2338 05f9 22       		.uleb128 0x22
 2339 05fa 25050000 		.4byte	.LASF83
 2340 05fe 01       		.byte	0x1
 2341 05ff C103     		.2byte	0x3c1
 2342 0601 B8000000 		.4byte	0xb8
 2343 0605 C2010000 		.4byte	.LLST13
 2344 0609 22       		.uleb128 0x22
 2345 060a 8A040000 		.4byte	.LASF84
 2346 060e 01       		.byte	0x1
 2347 060f C103     		.2byte	0x3c1
 2348 0611 B8000000 		.4byte	0xb8
 2349 0615 E3010000 		.4byte	.LLST14
 2350 0619 1A       		.uleb128 0x1a
 2351 061a 45010000 		.4byte	.LASF69
 2352 061e 01       		.byte	0x1
 2353 061f C303     		.2byte	0x3c3
 2354 0621 B8000000 		.4byte	0xb8
 2355 0625 04020000 		.4byte	.LLST15
 2356 0629 00       		.byte	0
 2357 062a 16       		.uleb128 0x16
 2358 062b CE010000 		.4byte	.LASF85
 2359 062f 01       		.byte	0x1
ARM GAS  /tmp/ccyJVbjO.s 			page 43


 2360 0630 8904     		.2byte	0x489
 2361 0632 00000000 		.4byte	.LFB125
 2362 0636 14000000 		.4byte	.LFE125-.LFB125
 2363 063a 01       		.uleb128 0x1
 2364 063b 9C       		.byte	0x9c
 2365 063c 61060000 		.4byte	0x661
 2366 0640 22       		.uleb128 0x22
 2367 0641 54060000 		.4byte	.LASF86
 2368 0645 01       		.byte	0x1
 2369 0646 8904     		.2byte	0x489
 2370 0648 B8000000 		.4byte	0xb8
 2371 064c 41020000 		.4byte	.LLST16
 2372 0650 1A       		.uleb128 0x1a
 2373 0651 45010000 		.4byte	.LASF69
 2374 0655 01       		.byte	0x1
 2375 0656 8B04     		.2byte	0x48b
 2376 0658 B8000000 		.4byte	0xb8
 2377 065c 62020000 		.4byte	.LLST17
 2378 0660 00       		.byte	0
 2379 0661 23       		.uleb128 0x23
 2380 0662 3A030000 		.4byte	.LASF136
 2381 0666 01       		.byte	0x1
 2382 0667 A604     		.2byte	0x4a6
 2383 0669 97000000 		.4byte	0x97
 2384 066d 00000000 		.4byte	.LFB126
 2385 0671 10000000 		.4byte	.LFE126-.LFB126
 2386 0675 01       		.uleb128 0x1
 2387 0676 9C       		.byte	0x9c
 2388 0677 16       		.uleb128 0x16
 2389 0678 B1010000 		.4byte	.LASF87
 2390 067c 01       		.byte	0x1
 2391 067d BF04     		.2byte	0x4bf
 2392 067f 00000000 		.4byte	.LFB127
 2393 0683 14000000 		.4byte	.LFE127-.LFB127
 2394 0687 01       		.uleb128 0x1
 2395 0688 9C       		.byte	0x9c
 2396 0689 AE060000 		.4byte	0x6ae
 2397 068d 22       		.uleb128 0x22
 2398 068e EC030000 		.4byte	.LASF88
 2399 0692 01       		.byte	0x1
 2400 0693 BF04     		.2byte	0x4bf
 2401 0695 B8000000 		.4byte	0xb8
 2402 0699 8C020000 		.4byte	.LLST18
 2403 069d 1A       		.uleb128 0x1a
 2404 069e 45010000 		.4byte	.LASF69
 2405 06a2 01       		.byte	0x1
 2406 06a3 C104     		.2byte	0x4c1
 2407 06a5 B8000000 		.4byte	0xb8
 2408 06a9 AD020000 		.4byte	.LLST19
 2409 06ad 00       		.byte	0
 2410 06ae 16       		.uleb128 0x16
 2411 06af 83010000 		.4byte	.LASF89
 2412 06b3 01       		.byte	0x1
 2413 06b4 DE04     		.2byte	0x4de
 2414 06b6 00000000 		.4byte	.LFB128
 2415 06ba 14000000 		.4byte	.LFE128-.LFB128
 2416 06be 01       		.uleb128 0x1
ARM GAS  /tmp/ccyJVbjO.s 			page 44


 2417 06bf 9C       		.byte	0x9c
 2418 06c0 E5060000 		.4byte	0x6e5
 2419 06c4 22       		.uleb128 0x22
 2420 06c5 00000000 		.4byte	.LASF90
 2421 06c9 01       		.byte	0x1
 2422 06ca DE04     		.2byte	0x4de
 2423 06cc B8000000 		.4byte	0xb8
 2424 06d0 D7020000 		.4byte	.LLST20
 2425 06d4 1A       		.uleb128 0x1a
 2426 06d5 45010000 		.4byte	.LASF69
 2427 06d9 01       		.byte	0x1
 2428 06da E004     		.2byte	0x4e0
 2429 06dc B8000000 		.4byte	0xb8
 2430 06e0 F8020000 		.4byte	.LLST21
 2431 06e4 00       		.byte	0
 2432 06e5 16       		.uleb128 0x16
 2433 06e6 44060000 		.4byte	.LASF91
 2434 06ea 01       		.byte	0x1
 2435 06eb FD04     		.2byte	0x4fd
 2436 06ed 00000000 		.4byte	.LFB129
 2437 06f1 14000000 		.4byte	.LFE129-.LFB129
 2438 06f5 01       		.uleb128 0x1
 2439 06f6 9C       		.byte	0x9c
 2440 06f7 1C070000 		.4byte	0x71c
 2441 06fb 22       		.uleb128 0x22
 2442 06fc 00000000 		.4byte	.LASF90
 2443 0700 01       		.byte	0x1
 2444 0701 FD04     		.2byte	0x4fd
 2445 0703 B8000000 		.4byte	0xb8
 2446 0707 22030000 		.4byte	.LLST22
 2447 070b 1A       		.uleb128 0x1a
 2448 070c 45010000 		.4byte	.LASF69
 2449 0710 01       		.byte	0x1
 2450 0711 FF04     		.2byte	0x4ff
 2451 0713 B8000000 		.4byte	0xb8
 2452 0717 43030000 		.4byte	.LLST23
 2453 071b 00       		.byte	0
 2454 071c 16       		.uleb128 0x16
 2455 071d BF060000 		.4byte	.LASF92
 2456 0721 01       		.byte	0x1
 2457 0722 3105     		.2byte	0x531
 2458 0724 00000000 		.4byte	.LFB130
 2459 0728 90000000 		.4byte	.LFE130-.LFB130
 2460 072c 01       		.uleb128 0x1
 2461 072d 9C       		.byte	0x9c
 2462 072e A1070000 		.4byte	0x7a1
 2463 0732 17       		.uleb128 0x17
 2464 0733 E4000000 		.4byte	.LASF93
 2465 0737 01       		.byte	0x1
 2466 0738 3105     		.2byte	0x531
 2467 073a A1070000 		.4byte	0x7a1
 2468 073e 01       		.uleb128 0x1
 2469 073f 50       		.byte	0x50
 2470 0740 24       		.uleb128 0x24
 2471 0741 746D7000 		.ascii	"tmp\000"
 2472 0745 01       		.byte	0x1
 2473 0746 3305     		.2byte	0x533
ARM GAS  /tmp/ccyJVbjO.s 			page 45


 2474 0748 B8000000 		.4byte	0xb8
 2475 074c 6D030000 		.4byte	.LLST24
 2476 0750 1A       		.uleb128 0x1a
 2477 0751 11040000 		.4byte	.LASF94
 2478 0755 01       		.byte	0x1
 2479 0756 3305     		.2byte	0x533
 2480 0758 B8000000 		.4byte	0xb8
 2481 075c 04040000 		.4byte	.LLST25
 2482 0760 1A       		.uleb128 0x1a
 2483 0761 A6030000 		.4byte	.LASF95
 2484 0765 01       		.byte	0x1
 2485 0766 3305     		.2byte	0x533
 2486 0768 B8000000 		.4byte	0xb8
 2487 076c 54040000 		.4byte	.LLST26
 2488 0770 1A       		.uleb128 0x1a
 2489 0771 54000000 		.4byte	.LASF96
 2490 0775 01       		.byte	0x1
 2491 0776 3305     		.2byte	0x533
 2492 0778 B8000000 		.4byte	0xb8
 2493 077c 7F040000 		.4byte	.LLST27
 2494 0780 1A       		.uleb128 0x1a
 2495 0781 42080000 		.4byte	.LASF97
 2496 0785 01       		.byte	0x1
 2497 0786 3305     		.2byte	0x533
 2498 0788 B8000000 		.4byte	0xb8
 2499 078c B6040000 		.4byte	.LLST28
 2500 0790 1A       		.uleb128 0x1a
 2501 0791 4F000000 		.4byte	.LASF98
 2502 0795 01       		.byte	0x1
 2503 0796 3305     		.2byte	0x533
 2504 0798 B8000000 		.4byte	0xb8
 2505 079c E9040000 		.4byte	.LLST29
 2506 07a0 00       		.byte	0
 2507 07a1 25       		.uleb128 0x25
 2508 07a2 04       		.byte	0x4
 2509 07a3 1E030000 		.4byte	0x31e
 2510 07a7 16       		.uleb128 0x16
 2511 07a8 BA030000 		.4byte	.LASF99
 2512 07ac 01       		.byte	0x1
 2513 07ad CA05     		.2byte	0x5ca
 2514 07af 00000000 		.4byte	.LFB131
 2515 07b3 30000000 		.4byte	.LFE131-.LFB131
 2516 07b7 01       		.uleb128 0x1
 2517 07b8 9C       		.byte	0x9c
 2518 07b9 DE070000 		.4byte	0x7de
 2519 07bd 22       		.uleb128 0x22
 2520 07be 17040000 		.4byte	.LASF100
 2521 07c2 01       		.byte	0x1
 2522 07c3 CA05     		.2byte	0x5ca
 2523 07c5 B8000000 		.4byte	0xb8
 2524 07c9 14050000 		.4byte	.LLST30
 2525 07cd 1A       		.uleb128 0x1a
 2526 07ce 45010000 		.4byte	.LASF69
 2527 07d2 01       		.byte	0x1
 2528 07d3 CC05     		.2byte	0x5cc
 2529 07d5 B8000000 		.4byte	0xb8
 2530 07d9 35050000 		.4byte	.LLST31
ARM GAS  /tmp/ccyJVbjO.s 			page 46


 2531 07dd 00       		.byte	0
 2532 07de 16       		.uleb128 0x16
 2533 07df 96040000 		.4byte	.LASF101
 2534 07e3 01       		.byte	0x1
 2535 07e4 EA05     		.2byte	0x5ea
 2536 07e6 00000000 		.4byte	.LFB132
 2537 07ea 0C000000 		.4byte	.LFE132-.LFB132
 2538 07ee 01       		.uleb128 0x1
 2539 07ef 9C       		.byte	0x9c
 2540 07f0 03080000 		.4byte	0x803
 2541 07f4 17       		.uleb128 0x17
 2542 07f5 FF020000 		.4byte	.LASF71
 2543 07f9 01       		.byte	0x1
 2544 07fa EA05     		.2byte	0x5ea
 2545 07fc BA020000 		.4byte	0x2ba
 2546 0800 01       		.uleb128 0x1
 2547 0801 50       		.byte	0x50
 2548 0802 00       		.byte	0
 2549 0803 16       		.uleb128 0x16
 2550 0804 10030000 		.4byte	.LASF102
 2551 0808 01       		.byte	0x1
 2552 0809 FB05     		.2byte	0x5fb
 2553 080b 00000000 		.4byte	.LFB133
 2554 080f 0C000000 		.4byte	.LFE133-.LFB133
 2555 0813 01       		.uleb128 0x1
 2556 0814 9C       		.byte	0x9c
 2557 0815 28080000 		.4byte	0x828
 2558 0819 17       		.uleb128 0x17
 2559 081a FF020000 		.4byte	.LASF71
 2560 081e 01       		.byte	0x1
 2561 081f FB05     		.2byte	0x5fb
 2562 0821 BA020000 		.4byte	0x2ba
 2563 0825 01       		.uleb128 0x1
 2564 0826 50       		.byte	0x50
 2565 0827 00       		.byte	0
 2566 0828 16       		.uleb128 0x16
 2567 0829 5A070000 		.4byte	.LASF103
 2568 082d 01       		.byte	0x1
 2569 082e DB06     		.2byte	0x6db
 2570 0830 00000000 		.4byte	.LFB134
 2571 0834 0C000000 		.4byte	.LFE134-.LFB134
 2572 0838 01       		.uleb128 0x1
 2573 0839 9C       		.byte	0x9c
 2574 083a 4D080000 		.4byte	0x84d
 2575 083e 17       		.uleb128 0x17
 2576 083f C0050000 		.4byte	.LASF104
 2577 0843 01       		.byte	0x1
 2578 0844 DB06     		.2byte	0x6db
 2579 0846 B8000000 		.4byte	0xb8
 2580 084a 01       		.uleb128 0x1
 2581 084b 50       		.byte	0x50
 2582 084c 00       		.byte	0
 2583 084d 16       		.uleb128 0x16
 2584 084e DF050000 		.4byte	.LASF105
 2585 0852 01       		.byte	0x1
 2586 0853 0507     		.2byte	0x705
 2587 0855 00000000 		.4byte	.LFB135
ARM GAS  /tmp/ccyJVbjO.s 			page 47


 2588 0859 18000000 		.4byte	.LFE135-.LFB135
 2589 085d 01       		.uleb128 0x1
 2590 085e 9C       		.byte	0x9c
 2591 085f 82080000 		.4byte	0x882
 2592 0863 22       		.uleb128 0x22
 2593 0864 CB000000 		.4byte	.LASF106
 2594 0868 01       		.byte	0x1
 2595 0869 0507     		.2byte	0x705
 2596 086b B8000000 		.4byte	0xb8
 2597 086f 5F050000 		.4byte	.LLST32
 2598 0873 17       		.uleb128 0x17
 2599 0874 FF020000 		.4byte	.LASF71
 2600 0878 01       		.byte	0x1
 2601 0879 0507     		.2byte	0x705
 2602 087b BA020000 		.4byte	0x2ba
 2603 087f 01       		.uleb128 0x1
 2604 0880 51       		.byte	0x51
 2605 0881 00       		.byte	0
 2606 0882 16       		.uleb128 0x16
 2607 0883 5C010000 		.4byte	.LASF107
 2608 0887 01       		.byte	0x1
 2609 0888 2507     		.2byte	0x725
 2610 088a 00000000 		.4byte	.LFB136
 2611 088e 18000000 		.4byte	.LFE136-.LFB136
 2612 0892 01       		.uleb128 0x1
 2613 0893 9C       		.byte	0x9c
 2614 0894 B7080000 		.4byte	0x8b7
 2615 0898 22       		.uleb128 0x22
 2616 0899 71040000 		.4byte	.LASF108
 2617 089d 01       		.byte	0x1
 2618 089e 2507     		.2byte	0x725
 2619 08a0 B8000000 		.4byte	0xb8
 2620 08a4 99050000 		.4byte	.LLST33
 2621 08a8 17       		.uleb128 0x17
 2622 08a9 FF020000 		.4byte	.LASF71
 2623 08ad 01       		.byte	0x1
 2624 08ae 2507     		.2byte	0x725
 2625 08b0 BA020000 		.4byte	0x2ba
 2626 08b4 01       		.uleb128 0x1
 2627 08b5 51       		.byte	0x51
 2628 08b6 00       		.byte	0
 2629 08b7 16       		.uleb128 0x16
 2630 08b8 AE070000 		.4byte	.LASF109
 2631 08bc 01       		.byte	0x1
 2632 08bd 7C07     		.2byte	0x77c
 2633 08bf 00000000 		.4byte	.LFB137
 2634 08c3 18000000 		.4byte	.LFE137-.LFB137
 2635 08c7 01       		.uleb128 0x1
 2636 08c8 9C       		.byte	0x9c
 2637 08c9 EC080000 		.4byte	0x8ec
 2638 08cd 22       		.uleb128 0x22
 2639 08ce 97030000 		.4byte	.LASF110
 2640 08d2 01       		.byte	0x1
 2641 08d3 7C07     		.2byte	0x77c
 2642 08d5 B8000000 		.4byte	0xb8
 2643 08d9 D3050000 		.4byte	.LLST34
 2644 08dd 17       		.uleb128 0x17
ARM GAS  /tmp/ccyJVbjO.s 			page 48


 2645 08de FF020000 		.4byte	.LASF71
 2646 08e2 01       		.byte	0x1
 2647 08e3 7C07     		.2byte	0x77c
 2648 08e5 BA020000 		.4byte	0x2ba
 2649 08e9 01       		.uleb128 0x1
 2650 08ea 51       		.byte	0x51
 2651 08eb 00       		.byte	0
 2652 08ec 16       		.uleb128 0x16
 2653 08ed D1060000 		.4byte	.LASF111
 2654 08f1 01       		.byte	0x1
 2655 08f2 AB07     		.2byte	0x7ab
 2656 08f4 00000000 		.4byte	.LFB138
 2657 08f8 18000000 		.4byte	.LFE138-.LFB138
 2658 08fc 01       		.uleb128 0x1
 2659 08fd 9C       		.byte	0x9c
 2660 08fe 21090000 		.4byte	0x921
 2661 0902 22       		.uleb128 0x22
 2662 0903 4B070000 		.4byte	.LASF112
 2663 0907 01       		.byte	0x1
 2664 0908 AB07     		.2byte	0x7ab
 2665 090a B8000000 		.4byte	0xb8
 2666 090e 0D060000 		.4byte	.LLST35
 2667 0912 17       		.uleb128 0x17
 2668 0913 FF020000 		.4byte	.LASF71
 2669 0917 01       		.byte	0x1
 2670 0918 AB07     		.2byte	0x7ab
 2671 091a BA020000 		.4byte	0x2ba
 2672 091e 01       		.uleb128 0x1
 2673 091f 51       		.byte	0x51
 2674 0920 00       		.byte	0
 2675 0921 16       		.uleb128 0x16
 2676 0922 9A010000 		.4byte	.LASF113
 2677 0926 01       		.byte	0x1
 2678 0927 D607     		.2byte	0x7d6
 2679 0929 00000000 		.4byte	.LFB139
 2680 092d 18000000 		.4byte	.LFE139-.LFB139
 2681 0931 01       		.uleb128 0x1
 2682 0932 9C       		.byte	0x9c
 2683 0933 56090000 		.4byte	0x956
 2684 0937 22       		.uleb128 0x22
 2685 0938 CB000000 		.4byte	.LASF106
 2686 093c 01       		.byte	0x1
 2687 093d D607     		.2byte	0x7d6
 2688 093f B8000000 		.4byte	0xb8
 2689 0943 47060000 		.4byte	.LLST36
 2690 0947 17       		.uleb128 0x17
 2691 0948 FF020000 		.4byte	.LASF71
 2692 094c 01       		.byte	0x1
 2693 094d D607     		.2byte	0x7d6
 2694 094f BA020000 		.4byte	0x2ba
 2695 0953 01       		.uleb128 0x1
 2696 0954 51       		.byte	0x51
 2697 0955 00       		.byte	0
 2698 0956 16       		.uleb128 0x16
 2699 0957 10060000 		.4byte	.LASF114
 2700 095b 01       		.byte	0x1
 2701 095c F307     		.2byte	0x7f3
ARM GAS  /tmp/ccyJVbjO.s 			page 49


 2702 095e 00000000 		.4byte	.LFB140
 2703 0962 18000000 		.4byte	.LFE140-.LFB140
 2704 0966 01       		.uleb128 0x1
 2705 0967 9C       		.byte	0x9c
 2706 0968 8B090000 		.4byte	0x98b
 2707 096c 22       		.uleb128 0x22
 2708 096d 71040000 		.4byte	.LASF108
 2709 0971 01       		.byte	0x1
 2710 0972 F307     		.2byte	0x7f3
 2711 0974 B8000000 		.4byte	0xb8
 2712 0978 81060000 		.4byte	.LLST37
 2713 097c 17       		.uleb128 0x17
 2714 097d FF020000 		.4byte	.LASF71
 2715 0981 01       		.byte	0x1
 2716 0982 F307     		.2byte	0x7f3
 2717 0984 BA020000 		.4byte	0x2ba
 2718 0988 01       		.uleb128 0x1
 2719 0989 51       		.byte	0x51
 2720 098a 00       		.byte	0
 2721 098b 16       		.uleb128 0x16
 2722 098c 72000000 		.4byte	.LASF115
 2723 0990 01       		.byte	0x1
 2724 0991 4408     		.2byte	0x844
 2725 0993 00000000 		.4byte	.LFB141
 2726 0997 18000000 		.4byte	.LFE141-.LFB141
 2727 099b 01       		.uleb128 0x1
 2728 099c 9C       		.byte	0x9c
 2729 099d C0090000 		.4byte	0x9c0
 2730 09a1 22       		.uleb128 0x22
 2731 09a2 97030000 		.4byte	.LASF110
 2732 09a6 01       		.byte	0x1
 2733 09a7 4408     		.2byte	0x844
 2734 09a9 B8000000 		.4byte	0xb8
 2735 09ad BB060000 		.4byte	.LLST38
 2736 09b1 17       		.uleb128 0x17
 2737 09b2 FF020000 		.4byte	.LASF71
 2738 09b6 01       		.byte	0x1
 2739 09b7 4408     		.2byte	0x844
 2740 09b9 BA020000 		.4byte	0x2ba
 2741 09bd 01       		.uleb128 0x1
 2742 09be 51       		.byte	0x51
 2743 09bf 00       		.byte	0
 2744 09c0 16       		.uleb128 0x16
 2745 09c1 0E050000 		.4byte	.LASF116
 2746 09c5 01       		.byte	0x1
 2747 09c6 6F08     		.2byte	0x86f
 2748 09c8 00000000 		.4byte	.LFB142
 2749 09cc 18000000 		.4byte	.LFE142-.LFB142
 2750 09d0 01       		.uleb128 0x1
 2751 09d1 9C       		.byte	0x9c
 2752 09d2 F5090000 		.4byte	0x9f5
 2753 09d6 22       		.uleb128 0x22
 2754 09d7 4B070000 		.4byte	.LASF112
 2755 09db 01       		.byte	0x1
 2756 09dc 6F08     		.2byte	0x86f
 2757 09de B8000000 		.4byte	0xb8
 2758 09e2 F5060000 		.4byte	.LLST39
ARM GAS  /tmp/ccyJVbjO.s 			page 50


 2759 09e6 17       		.uleb128 0x17
 2760 09e7 FF020000 		.4byte	.LASF71
 2761 09eb 01       		.byte	0x1
 2762 09ec 6F08     		.2byte	0x86f
 2763 09ee BA020000 		.4byte	0x2ba
 2764 09f2 01       		.uleb128 0x1
 2765 09f3 51       		.byte	0x51
 2766 09f4 00       		.byte	0
 2767 09f5 16       		.uleb128 0x16
 2768 09f6 4C080000 		.4byte	.LASF117
 2769 09fa 01       		.byte	0x1
 2770 09fb A008     		.2byte	0x8a0
 2771 09fd 00000000 		.4byte	.LFB143
 2772 0a01 18000000 		.4byte	.LFE143-.LFB143
 2773 0a05 01       		.uleb128 0x1
 2774 0a06 9C       		.byte	0x9c
 2775 0a07 2A0A0000 		.4byte	0xa2a
 2776 0a0b 22       		.uleb128 0x22
 2777 0a0c CB000000 		.4byte	.LASF106
 2778 0a10 01       		.byte	0x1
 2779 0a11 A008     		.2byte	0x8a0
 2780 0a13 B8000000 		.4byte	0xb8
 2781 0a17 2F070000 		.4byte	.LLST40
 2782 0a1b 17       		.uleb128 0x17
 2783 0a1c FF020000 		.4byte	.LASF71
 2784 0a20 01       		.byte	0x1
 2785 0a21 A008     		.2byte	0x8a0
 2786 0a23 BA020000 		.4byte	0x2ba
 2787 0a27 01       		.uleb128 0x1
 2788 0a28 51       		.byte	0x51
 2789 0a29 00       		.byte	0
 2790 0a2a 16       		.uleb128 0x16
 2791 0a2b 46040000 		.4byte	.LASF118
 2792 0a2f 01       		.byte	0x1
 2793 0a30 C008     		.2byte	0x8c0
 2794 0a32 00000000 		.4byte	.LFB144
 2795 0a36 18000000 		.4byte	.LFE144-.LFB144
 2796 0a3a 01       		.uleb128 0x1
 2797 0a3b 9C       		.byte	0x9c
 2798 0a3c 5F0A0000 		.4byte	0xa5f
 2799 0a40 22       		.uleb128 0x22
 2800 0a41 71040000 		.4byte	.LASF108
 2801 0a45 01       		.byte	0x1
 2802 0a46 C008     		.2byte	0x8c0
 2803 0a48 B8000000 		.4byte	0xb8
 2804 0a4c 69070000 		.4byte	.LLST41
 2805 0a50 17       		.uleb128 0x17
 2806 0a51 FF020000 		.4byte	.LASF71
 2807 0a55 01       		.byte	0x1
 2808 0a56 C008     		.2byte	0x8c0
 2809 0a58 BA020000 		.4byte	0x2ba
 2810 0a5c 01       		.uleb128 0x1
 2811 0a5d 51       		.byte	0x51
 2812 0a5e 00       		.byte	0
 2813 0a5f 16       		.uleb128 0x16
 2814 0a60 27060000 		.4byte	.LASF119
 2815 0a64 01       		.byte	0x1
ARM GAS  /tmp/ccyJVbjO.s 			page 51


 2816 0a65 1709     		.2byte	0x917
 2817 0a67 00000000 		.4byte	.LFB145
 2818 0a6b 18000000 		.4byte	.LFE145-.LFB145
 2819 0a6f 01       		.uleb128 0x1
 2820 0a70 9C       		.byte	0x9c
 2821 0a71 940A0000 		.4byte	0xa94
 2822 0a75 22       		.uleb128 0x22
 2823 0a76 97030000 		.4byte	.LASF110
 2824 0a7a 01       		.byte	0x1
 2825 0a7b 1709     		.2byte	0x917
 2826 0a7d B8000000 		.4byte	0xb8
 2827 0a81 A3070000 		.4byte	.LLST42
 2828 0a85 17       		.uleb128 0x17
 2829 0a86 FF020000 		.4byte	.LASF71
 2830 0a8a 01       		.byte	0x1
 2831 0a8b 1709     		.2byte	0x917
 2832 0a8d BA020000 		.4byte	0x2ba
 2833 0a91 01       		.uleb128 0x1
 2834 0a92 51       		.byte	0x51
 2835 0a93 00       		.byte	0
 2836 0a94 16       		.uleb128 0x16
 2837 0a95 EF000000 		.4byte	.LASF120
 2838 0a99 01       		.byte	0x1
 2839 0a9a 4609     		.2byte	0x946
 2840 0a9c 00000000 		.4byte	.LFB146
 2841 0aa0 18000000 		.4byte	.LFE146-.LFB146
 2842 0aa4 01       		.uleb128 0x1
 2843 0aa5 9C       		.byte	0x9c
 2844 0aa6 C90A0000 		.4byte	0xac9
 2845 0aaa 22       		.uleb128 0x22
 2846 0aab 4B070000 		.4byte	.LASF112
 2847 0aaf 01       		.byte	0x1
 2848 0ab0 4609     		.2byte	0x946
 2849 0ab2 B8000000 		.4byte	0xb8
 2850 0ab6 DD070000 		.4byte	.LLST43
 2851 0aba 17       		.uleb128 0x17
 2852 0abb FF020000 		.4byte	.LASF71
 2853 0abf 01       		.byte	0x1
 2854 0ac0 4609     		.2byte	0x946
 2855 0ac2 BA020000 		.4byte	0x2ba
 2856 0ac6 01       		.uleb128 0x1
 2857 0ac7 51       		.byte	0x51
 2858 0ac8 00       		.byte	0
 2859 0ac9 16       		.uleb128 0x16
 2860 0aca D6040000 		.4byte	.LASF121
 2861 0ace 01       		.byte	0x1
 2862 0acf 5E09     		.2byte	0x95e
 2863 0ad1 00000000 		.4byte	.LFB147
 2864 0ad5 18000000 		.4byte	.LFE147-.LFB147
 2865 0ad9 01       		.uleb128 0x1
 2866 0ada 9C       		.byte	0x9c
 2867 0adb EE0A0000 		.4byte	0xaee
 2868 0adf 17       		.uleb128 0x17
 2869 0ae0 07060000 		.4byte	.LASF122
 2870 0ae4 01       		.byte	0x1
 2871 0ae5 5E09     		.2byte	0x95e
 2872 0ae7 97000000 		.4byte	0x97
ARM GAS  /tmp/ccyJVbjO.s 			page 52


 2873 0aeb 01       		.uleb128 0x1
 2874 0aec 50       		.byte	0x50
 2875 0aed 00       		.byte	0
 2876 0aee 16       		.uleb128 0x16
 2877 0aef C5070000 		.4byte	.LASF123
 2878 0af3 01       		.byte	0x1
 2879 0af4 8C0A     		.2byte	0xa8c
 2880 0af6 00000000 		.4byte	.LFB148
 2881 0afa 18000000 		.4byte	.LFE148-.LFB148
 2882 0afe 01       		.uleb128 0x1
 2883 0aff 9C       		.byte	0x9c
 2884 0b00 230B0000 		.4byte	0xb23
 2885 0b04 22       		.uleb128 0x22
 2886 0b05 93010000 		.4byte	.LASF124
 2887 0b09 01       		.byte	0x1
 2888 0b0a 8C0A     		.2byte	0xa8c
 2889 0b0c 97000000 		.4byte	0x97
 2890 0b10 17080000 		.4byte	.LLST44
 2891 0b14 17       		.uleb128 0x17
 2892 0b15 FF020000 		.4byte	.LASF71
 2893 0b19 01       		.byte	0x1
 2894 0b1a 8C0A     		.2byte	0xa8c
 2895 0b1c BA020000 		.4byte	0x2ba
 2896 0b20 01       		.uleb128 0x1
 2897 0b21 51       		.byte	0x51
 2898 0b22 00       		.byte	0
 2899 0b23 26       		.uleb128 0x26
 2900 0b24 29030000 		.4byte	0x329
 2901 0b28 00000000 		.4byte	.LFB149
 2902 0b2c 34000000 		.4byte	.LFE149-.LFB149
 2903 0b30 01       		.uleb128 0x1
 2904 0b31 9C       		.byte	0x9c
 2905 0b32 5B0B0000 		.4byte	0xb5b
 2906 0b36 20       		.uleb128 0x20
 2907 0b37 3A030000 		.4byte	0x33a
 2908 0b3b 51080000 		.4byte	.LLST45
 2909 0b3f 1E       		.uleb128 0x1e
 2910 0b40 46030000 		.4byte	0x346
 2911 0b44 8B080000 		.4byte	.LLST46
 2912 0b48 1E       		.uleb128 0x1e
 2913 0b49 52030000 		.4byte	0x352
 2914 0b4d F7080000 		.4byte	.LLST47
 2915 0b51 1E       		.uleb128 0x1e
 2916 0b52 5E030000 		.4byte	0x35e
 2917 0b56 2D090000 		.4byte	.LLST48
 2918 0b5a 00       		.byte	0
 2919 0b5b 27       		.uleb128 0x27
 2920 0b5c 0C010000 		.4byte	.LASF126
 2921 0b60 01       		.byte	0x1
 2922 0b61 DE0A     		.2byte	0xade
 2923 0b63 00000000 		.4byte	.LFB150
 2924 0b67 10000000 		.4byte	.LFE150-.LFB150
 2925 0b6b 01       		.uleb128 0x1
 2926 0b6c 9C       		.byte	0x9c
 2927 0b6d 18       		.uleb128 0x18
 2928 0b6e 11070000 		.4byte	.LASF128
 2929 0b72 01       		.byte	0x1
ARM GAS  /tmp/ccyJVbjO.s 			page 53


 2930 0b73 F20A     		.2byte	0xaf2
 2931 0b75 9A020000 		.4byte	0x29a
 2932 0b79 00000000 		.4byte	.LFB151
 2933 0b7d 14000000 		.4byte	.LFE151-.LFB151
 2934 0b81 01       		.uleb128 0x1
 2935 0b82 9C       		.byte	0x9c
 2936 0b83 A80B0000 		.4byte	0xba8
 2937 0b87 22       		.uleb128 0x22
 2938 0b88 93010000 		.4byte	.LASF124
 2939 0b8c 01       		.byte	0x1
 2940 0b8d F20A     		.2byte	0xaf2
 2941 0b8f 97000000 		.4byte	0x97
 2942 0b93 7B090000 		.4byte	.LLST49
 2943 0b97 1A       		.uleb128 0x1a
 2944 0b98 75030000 		.4byte	.LASF61
 2945 0b9c 01       		.byte	0x1
 2946 0b9d F40A     		.2byte	0xaf4
 2947 0b9f 9A020000 		.4byte	0x29a
 2948 0ba3 9C090000 		.4byte	.LLST50
 2949 0ba7 00       		.byte	0
 2950 0ba8 16       		.uleb128 0x16
 2951 0ba9 91000000 		.4byte	.LASF129
 2952 0bad 01       		.byte	0x1
 2953 0bae 140B     		.2byte	0xb14
 2954 0bb0 00000000 		.4byte	.LFB152
 2955 0bb4 0C000000 		.4byte	.LFE152-.LFB152
 2956 0bb8 01       		.uleb128 0x1
 2957 0bb9 9C       		.byte	0x9c
 2958 0bba CD0B0000 		.4byte	0xbcd
 2959 0bbe 17       		.uleb128 0x17
 2960 0bbf 93010000 		.4byte	.LASF124
 2961 0bc3 01       		.byte	0x1
 2962 0bc4 140B     		.2byte	0xb14
 2963 0bc6 97000000 		.4byte	0x97
 2964 0bca 01       		.uleb128 0x1
 2965 0bcb 50       		.byte	0x50
 2966 0bcc 00       		.byte	0
 2967 0bcd 06       		.uleb128 0x6
 2968 0bce 97000000 		.4byte	0x97
 2969 0bd2 DD0B0000 		.4byte	0xbdd
 2970 0bd6 07       		.uleb128 0x7
 2971 0bd7 C3000000 		.4byte	0xc3
 2972 0bdb 0F       		.byte	0xf
 2973 0bdc 00       		.byte	0
 2974 0bdd 28       		.uleb128 0x28
 2975 0bde 86060000 		.4byte	.LASF130
 2976 0be2 01       		.byte	0x1
 2977 0be3 AD       		.byte	0xad
 2978 0be4 EE0B0000 		.4byte	0xbee
 2979 0be8 05       		.uleb128 0x5
 2980 0be9 03       		.byte	0x3
 2981 0bea 00000000 		.4byte	APBAHBPrescTable
 2982 0bee 29       		.uleb128 0x29
 2983 0bef F30B0000 		.4byte	0xbf3
 2984 0bf3 05       		.uleb128 0x5
 2985 0bf4 CD0B0000 		.4byte	0xbcd
 2986 0bf8 2A       		.uleb128 0x2a
ARM GAS  /tmp/ccyJVbjO.s 			page 54


 2987 0bf9 BE000000 		.4byte	.LASF137
 2988 0bfd 07       		.byte	0x7
 2989 0bfe A706     		.2byte	0x6a7
 2990 0c00 040C0000 		.4byte	0xc04
 2991 0c04 05       		.uleb128 0x5
 2992 0c05 AD000000 		.4byte	0xad
 2993 0c09 00       		.byte	0
 2994              		.section	.debug_abbrev,"",%progbits
 2995              	.Ldebug_abbrev0:
 2996 0000 01       		.uleb128 0x1
 2997 0001 11       		.uleb128 0x11
 2998 0002 01       		.byte	0x1
 2999 0003 25       		.uleb128 0x25
 3000 0004 0E       		.uleb128 0xe
 3001 0005 13       		.uleb128 0x13
 3002 0006 0B       		.uleb128 0xb
 3003 0007 03       		.uleb128 0x3
 3004 0008 0E       		.uleb128 0xe
 3005 0009 1B       		.uleb128 0x1b
 3006 000a 0E       		.uleb128 0xe
 3007 000b 55       		.uleb128 0x55
 3008 000c 17       		.uleb128 0x17
 3009 000d 11       		.uleb128 0x11
 3010 000e 01       		.uleb128 0x1
 3011 000f 10       		.uleb128 0x10
 3012 0010 17       		.uleb128 0x17
 3013 0011 00       		.byte	0
 3014 0012 00       		.byte	0
 3015 0013 02       		.uleb128 0x2
 3016 0014 24       		.uleb128 0x24
 3017 0015 00       		.byte	0
 3018 0016 0B       		.uleb128 0xb
 3019 0017 0B       		.uleb128 0xb
 3020 0018 3E       		.uleb128 0x3e
 3021 0019 0B       		.uleb128 0xb
 3022 001a 03       		.uleb128 0x3
 3023 001b 0E       		.uleb128 0xe
 3024 001c 00       		.byte	0
 3025 001d 00       		.byte	0
 3026 001e 03       		.uleb128 0x3
 3027 001f 16       		.uleb128 0x16
 3028 0020 00       		.byte	0
 3029 0021 03       		.uleb128 0x3
 3030 0022 0E       		.uleb128 0xe
 3031 0023 3A       		.uleb128 0x3a
 3032 0024 0B       		.uleb128 0xb
 3033 0025 3B       		.uleb128 0x3b
 3034 0026 0B       		.uleb128 0xb
 3035 0027 49       		.uleb128 0x49
 3036 0028 13       		.uleb128 0x13
 3037 0029 00       		.byte	0
 3038 002a 00       		.byte	0
 3039 002b 04       		.uleb128 0x4
 3040 002c 24       		.uleb128 0x24
 3041 002d 00       		.byte	0
 3042 002e 0B       		.uleb128 0xb
 3043 002f 0B       		.uleb128 0xb
ARM GAS  /tmp/ccyJVbjO.s 			page 55


 3044 0030 3E       		.uleb128 0x3e
 3045 0031 0B       		.uleb128 0xb
 3046 0032 03       		.uleb128 0x3
 3047 0033 08       		.uleb128 0x8
 3048 0034 00       		.byte	0
 3049 0035 00       		.byte	0
 3050 0036 05       		.uleb128 0x5
 3051 0037 35       		.uleb128 0x35
 3052 0038 00       		.byte	0
 3053 0039 49       		.uleb128 0x49
 3054 003a 13       		.uleb128 0x13
 3055 003b 00       		.byte	0
 3056 003c 00       		.byte	0
 3057 003d 06       		.uleb128 0x6
 3058 003e 01       		.uleb128 0x1
 3059 003f 01       		.byte	0x1
 3060 0040 49       		.uleb128 0x49
 3061 0041 13       		.uleb128 0x13
 3062 0042 01       		.uleb128 0x1
 3063 0043 13       		.uleb128 0x13
 3064 0044 00       		.byte	0
 3065 0045 00       		.byte	0
 3066 0046 07       		.uleb128 0x7
 3067 0047 21       		.uleb128 0x21
 3068 0048 00       		.byte	0
 3069 0049 49       		.uleb128 0x49
 3070 004a 13       		.uleb128 0x13
 3071 004b 2F       		.uleb128 0x2f
 3072 004c 0B       		.uleb128 0xb
 3073 004d 00       		.byte	0
 3074 004e 00       		.byte	0
 3075 004f 08       		.uleb128 0x8
 3076 0050 13       		.uleb128 0x13
 3077 0051 01       		.byte	0x1
 3078 0052 0B       		.uleb128 0xb
 3079 0053 0B       		.uleb128 0xb
 3080 0054 3A       		.uleb128 0x3a
 3081 0055 0B       		.uleb128 0xb
 3082 0056 3B       		.uleb128 0x3b
 3083 0057 05       		.uleb128 0x5
 3084 0058 01       		.uleb128 0x1
 3085 0059 13       		.uleb128 0x13
 3086 005a 00       		.byte	0
 3087 005b 00       		.byte	0
 3088 005c 09       		.uleb128 0x9
 3089 005d 0D       		.uleb128 0xd
 3090 005e 00       		.byte	0
 3091 005f 03       		.uleb128 0x3
 3092 0060 08       		.uleb128 0x8
 3093 0061 3A       		.uleb128 0x3a
 3094 0062 0B       		.uleb128 0xb
 3095 0063 3B       		.uleb128 0x3b
 3096 0064 05       		.uleb128 0x5
 3097 0065 49       		.uleb128 0x49
 3098 0066 13       		.uleb128 0x13
 3099 0067 38       		.uleb128 0x38
 3100 0068 0B       		.uleb128 0xb
ARM GAS  /tmp/ccyJVbjO.s 			page 56


 3101 0069 00       		.byte	0
 3102 006a 00       		.byte	0
 3103 006b 0A       		.uleb128 0xa
 3104 006c 0D       		.uleb128 0xd
 3105 006d 00       		.byte	0
 3106 006e 03       		.uleb128 0x3
 3107 006f 0E       		.uleb128 0xe
 3108 0070 3A       		.uleb128 0x3a
 3109 0071 0B       		.uleb128 0xb
 3110 0072 3B       		.uleb128 0x3b
 3111 0073 05       		.uleb128 0x5
 3112 0074 49       		.uleb128 0x49
 3113 0075 13       		.uleb128 0x13
 3114 0076 38       		.uleb128 0x38
 3115 0077 0B       		.uleb128 0xb
 3116 0078 00       		.byte	0
 3117 0079 00       		.byte	0
 3118 007a 0B       		.uleb128 0xb
 3119 007b 16       		.uleb128 0x16
 3120 007c 00       		.byte	0
 3121 007d 03       		.uleb128 0x3
 3122 007e 0E       		.uleb128 0xe
 3123 007f 3A       		.uleb128 0x3a
 3124 0080 0B       		.uleb128 0xb
 3125 0081 3B       		.uleb128 0x3b
 3126 0082 05       		.uleb128 0x5
 3127 0083 49       		.uleb128 0x49
 3128 0084 13       		.uleb128 0x13
 3129 0085 00       		.byte	0
 3130 0086 00       		.byte	0
 3131 0087 0C       		.uleb128 0xc
 3132 0088 04       		.uleb128 0x4
 3133 0089 01       		.byte	0x1
 3134 008a 0B       		.uleb128 0xb
 3135 008b 0B       		.uleb128 0xb
 3136 008c 3A       		.uleb128 0x3a
 3137 008d 0B       		.uleb128 0xb
 3138 008e 3B       		.uleb128 0x3b
 3139 008f 0B       		.uleb128 0xb
 3140 0090 01       		.uleb128 0x1
 3141 0091 13       		.uleb128 0x13
 3142 0092 00       		.byte	0
 3143 0093 00       		.byte	0
 3144 0094 0D       		.uleb128 0xd
 3145 0095 28       		.uleb128 0x28
 3146 0096 00       		.byte	0
 3147 0097 03       		.uleb128 0x3
 3148 0098 0E       		.uleb128 0xe
 3149 0099 1C       		.uleb128 0x1c
 3150 009a 0D       		.uleb128 0xd
 3151 009b 00       		.byte	0
 3152 009c 00       		.byte	0
 3153 009d 0E       		.uleb128 0xe
 3154 009e 28       		.uleb128 0x28
 3155 009f 00       		.byte	0
 3156 00a0 03       		.uleb128 0x3
 3157 00a1 08       		.uleb128 0x8
ARM GAS  /tmp/ccyJVbjO.s 			page 57


 3158 00a2 1C       		.uleb128 0x1c
 3159 00a3 0D       		.uleb128 0xd
 3160 00a4 00       		.byte	0
 3161 00a5 00       		.byte	0
 3162 00a6 0F       		.uleb128 0xf
 3163 00a7 13       		.uleb128 0x13
 3164 00a8 01       		.byte	0x1
 3165 00a9 0B       		.uleb128 0xb
 3166 00aa 0B       		.uleb128 0xb
 3167 00ab 3A       		.uleb128 0x3a
 3168 00ac 0B       		.uleb128 0xb
 3169 00ad 3B       		.uleb128 0x3b
 3170 00ae 0B       		.uleb128 0xb
 3171 00af 01       		.uleb128 0x1
 3172 00b0 13       		.uleb128 0x13
 3173 00b1 00       		.byte	0
 3174 00b2 00       		.byte	0
 3175 00b3 10       		.uleb128 0x10
 3176 00b4 0D       		.uleb128 0xd
 3177 00b5 00       		.byte	0
 3178 00b6 03       		.uleb128 0x3
 3179 00b7 0E       		.uleb128 0xe
 3180 00b8 3A       		.uleb128 0x3a
 3181 00b9 0B       		.uleb128 0xb
 3182 00ba 3B       		.uleb128 0x3b
 3183 00bb 0B       		.uleb128 0xb
 3184 00bc 49       		.uleb128 0x49
 3185 00bd 13       		.uleb128 0x13
 3186 00be 38       		.uleb128 0x38
 3187 00bf 0B       		.uleb128 0xb
 3188 00c0 00       		.byte	0
 3189 00c1 00       		.byte	0
 3190 00c2 11       		.uleb128 0x11
 3191 00c3 2E       		.uleb128 0x2e
 3192 00c4 01       		.byte	0x1
 3193 00c5 3F       		.uleb128 0x3f
 3194 00c6 19       		.uleb128 0x19
 3195 00c7 03       		.uleb128 0x3
 3196 00c8 0E       		.uleb128 0xe
 3197 00c9 3A       		.uleb128 0x3a
 3198 00ca 0B       		.uleb128 0xb
 3199 00cb 3B       		.uleb128 0x3b
 3200 00cc 05       		.uleb128 0x5
 3201 00cd 27       		.uleb128 0x27
 3202 00ce 19       		.uleb128 0x19
 3203 00cf 49       		.uleb128 0x49
 3204 00d0 13       		.uleb128 0x13
 3205 00d1 20       		.uleb128 0x20
 3206 00d2 0B       		.uleb128 0xb
 3207 00d3 01       		.uleb128 0x1
 3208 00d4 13       		.uleb128 0x13
 3209 00d5 00       		.byte	0
 3210 00d6 00       		.byte	0
 3211 00d7 12       		.uleb128 0x12
 3212 00d8 05       		.uleb128 0x5
 3213 00d9 00       		.byte	0
 3214 00da 03       		.uleb128 0x3
ARM GAS  /tmp/ccyJVbjO.s 			page 58


 3215 00db 0E       		.uleb128 0xe
 3216 00dc 3A       		.uleb128 0x3a
 3217 00dd 0B       		.uleb128 0xb
 3218 00de 3B       		.uleb128 0x3b
 3219 00df 05       		.uleb128 0x5
 3220 00e0 49       		.uleb128 0x49
 3221 00e1 13       		.uleb128 0x13
 3222 00e2 00       		.byte	0
 3223 00e3 00       		.byte	0
 3224 00e4 13       		.uleb128 0x13
 3225 00e5 34       		.uleb128 0x34
 3226 00e6 00       		.byte	0
 3227 00e7 03       		.uleb128 0x3
 3228 00e8 08       		.uleb128 0x8
 3229 00e9 3A       		.uleb128 0x3a
 3230 00ea 0B       		.uleb128 0xb
 3231 00eb 3B       		.uleb128 0x3b
 3232 00ec 05       		.uleb128 0x5
 3233 00ed 49       		.uleb128 0x49
 3234 00ee 13       		.uleb128 0x13
 3235 00ef 00       		.byte	0
 3236 00f0 00       		.byte	0
 3237 00f1 14       		.uleb128 0x14
 3238 00f2 34       		.uleb128 0x34
 3239 00f3 00       		.byte	0
 3240 00f4 03       		.uleb128 0x3
 3241 00f5 0E       		.uleb128 0xe
 3242 00f6 3A       		.uleb128 0x3a
 3243 00f7 0B       		.uleb128 0xb
 3244 00f8 3B       		.uleb128 0x3b
 3245 00f9 05       		.uleb128 0x5
 3246 00fa 49       		.uleb128 0x49
 3247 00fb 13       		.uleb128 0x13
 3248 00fc 00       		.byte	0
 3249 00fd 00       		.byte	0
 3250 00fe 15       		.uleb128 0x15
 3251 00ff 2E       		.uleb128 0x2e
 3252 0100 00       		.byte	0
 3253 0101 3F       		.uleb128 0x3f
 3254 0102 19       		.uleb128 0x19
 3255 0103 03       		.uleb128 0x3
 3256 0104 0E       		.uleb128 0xe
 3257 0105 3A       		.uleb128 0x3a
 3258 0106 0B       		.uleb128 0xb
 3259 0107 3B       		.uleb128 0x3b
 3260 0108 0B       		.uleb128 0xb
 3261 0109 27       		.uleb128 0x27
 3262 010a 19       		.uleb128 0x19
 3263 010b 11       		.uleb128 0x11
 3264 010c 01       		.uleb128 0x1
 3265 010d 12       		.uleb128 0x12
 3266 010e 06       		.uleb128 0x6
 3267 010f 40       		.uleb128 0x40
 3268 0110 18       		.uleb128 0x18
 3269 0111 9742     		.uleb128 0x2117
 3270 0113 19       		.uleb128 0x19
 3271 0114 00       		.byte	0
ARM GAS  /tmp/ccyJVbjO.s 			page 59


 3272 0115 00       		.byte	0
 3273 0116 16       		.uleb128 0x16
 3274 0117 2E       		.uleb128 0x2e
 3275 0118 01       		.byte	0x1
 3276 0119 3F       		.uleb128 0x3f
 3277 011a 19       		.uleb128 0x19
 3278 011b 03       		.uleb128 0x3
 3279 011c 0E       		.uleb128 0xe
 3280 011d 3A       		.uleb128 0x3a
 3281 011e 0B       		.uleb128 0xb
 3282 011f 3B       		.uleb128 0x3b
 3283 0120 05       		.uleb128 0x5
 3284 0121 27       		.uleb128 0x27
 3285 0122 19       		.uleb128 0x19
 3286 0123 11       		.uleb128 0x11
 3287 0124 01       		.uleb128 0x1
 3288 0125 12       		.uleb128 0x12
 3289 0126 06       		.uleb128 0x6
 3290 0127 40       		.uleb128 0x40
 3291 0128 18       		.uleb128 0x18
 3292 0129 9742     		.uleb128 0x2117
 3293 012b 19       		.uleb128 0x19
 3294 012c 01       		.uleb128 0x1
 3295 012d 13       		.uleb128 0x13
 3296 012e 00       		.byte	0
 3297 012f 00       		.byte	0
 3298 0130 17       		.uleb128 0x17
 3299 0131 05       		.uleb128 0x5
 3300 0132 00       		.byte	0
 3301 0133 03       		.uleb128 0x3
 3302 0134 0E       		.uleb128 0xe
 3303 0135 3A       		.uleb128 0x3a
 3304 0136 0B       		.uleb128 0xb
 3305 0137 3B       		.uleb128 0x3b
 3306 0138 05       		.uleb128 0x5
 3307 0139 49       		.uleb128 0x49
 3308 013a 13       		.uleb128 0x13
 3309 013b 02       		.uleb128 0x2
 3310 013c 18       		.uleb128 0x18
 3311 013d 00       		.byte	0
 3312 013e 00       		.byte	0
 3313 013f 18       		.uleb128 0x18
 3314 0140 2E       		.uleb128 0x2e
 3315 0141 01       		.byte	0x1
 3316 0142 3F       		.uleb128 0x3f
 3317 0143 19       		.uleb128 0x19
 3318 0144 03       		.uleb128 0x3
 3319 0145 0E       		.uleb128 0xe
 3320 0146 3A       		.uleb128 0x3a
 3321 0147 0B       		.uleb128 0xb
 3322 0148 3B       		.uleb128 0x3b
 3323 0149 05       		.uleb128 0x5
 3324 014a 27       		.uleb128 0x27
 3325 014b 19       		.uleb128 0x19
 3326 014c 49       		.uleb128 0x49
 3327 014d 13       		.uleb128 0x13
 3328 014e 11       		.uleb128 0x11
ARM GAS  /tmp/ccyJVbjO.s 			page 60


 3329 014f 01       		.uleb128 0x1
 3330 0150 12       		.uleb128 0x12
 3331 0151 06       		.uleb128 0x6
 3332 0152 40       		.uleb128 0x40
 3333 0153 18       		.uleb128 0x18
 3334 0154 9742     		.uleb128 0x2117
 3335 0156 19       		.uleb128 0x19
 3336 0157 01       		.uleb128 0x1
 3337 0158 13       		.uleb128 0x13
 3338 0159 00       		.byte	0
 3339 015a 00       		.byte	0
 3340 015b 19       		.uleb128 0x19
 3341 015c 34       		.uleb128 0x34
 3342 015d 00       		.byte	0
 3343 015e 03       		.uleb128 0x3
 3344 015f 0E       		.uleb128 0xe
 3345 0160 3A       		.uleb128 0x3a
 3346 0161 0B       		.uleb128 0xb
 3347 0162 3B       		.uleb128 0x3b
 3348 0163 05       		.uleb128 0x5
 3349 0164 49       		.uleb128 0x49
 3350 0165 13       		.uleb128 0x13
 3351 0166 02       		.uleb128 0x2
 3352 0167 18       		.uleb128 0x18
 3353 0168 00       		.byte	0
 3354 0169 00       		.byte	0
 3355 016a 1A       		.uleb128 0x1a
 3356 016b 34       		.uleb128 0x34
 3357 016c 00       		.byte	0
 3358 016d 03       		.uleb128 0x3
 3359 016e 0E       		.uleb128 0xe
 3360 016f 3A       		.uleb128 0x3a
 3361 0170 0B       		.uleb128 0xb
 3362 0171 3B       		.uleb128 0x3b
 3363 0172 05       		.uleb128 0x5
 3364 0173 49       		.uleb128 0x49
 3365 0174 13       		.uleb128 0x13
 3366 0175 02       		.uleb128 0x2
 3367 0176 17       		.uleb128 0x17
 3368 0177 00       		.byte	0
 3369 0178 00       		.byte	0
 3370 0179 1B       		.uleb128 0x1b
 3371 017a 1D       		.uleb128 0x1d
 3372 017b 01       		.byte	0x1
 3373 017c 31       		.uleb128 0x31
 3374 017d 13       		.uleb128 0x13
 3375 017e 52       		.uleb128 0x52
 3376 017f 01       		.uleb128 0x1
 3377 0180 55       		.uleb128 0x55
 3378 0181 17       		.uleb128 0x17
 3379 0182 58       		.uleb128 0x58
 3380 0183 0B       		.uleb128 0xb
 3381 0184 59       		.uleb128 0x59
 3382 0185 05       		.uleb128 0x5
 3383 0186 01       		.uleb128 0x1
 3384 0187 13       		.uleb128 0x13
 3385 0188 00       		.byte	0
ARM GAS  /tmp/ccyJVbjO.s 			page 61


 3386 0189 00       		.byte	0
 3387 018a 1C       		.uleb128 0x1c
 3388 018b 05       		.uleb128 0x5
 3389 018c 00       		.byte	0
 3390 018d 31       		.uleb128 0x31
 3391 018e 13       		.uleb128 0x13
 3392 018f 1C       		.uleb128 0x1c
 3393 0190 0B       		.uleb128 0xb
 3394 0191 00       		.byte	0
 3395 0192 00       		.byte	0
 3396 0193 1D       		.uleb128 0x1d
 3397 0194 0B       		.uleb128 0xb
 3398 0195 01       		.byte	0x1
 3399 0196 55       		.uleb128 0x55
 3400 0197 17       		.uleb128 0x17
 3401 0198 00       		.byte	0
 3402 0199 00       		.byte	0
 3403 019a 1E       		.uleb128 0x1e
 3404 019b 34       		.uleb128 0x34
 3405 019c 00       		.byte	0
 3406 019d 31       		.uleb128 0x31
 3407 019e 13       		.uleb128 0x13
 3408 019f 02       		.uleb128 0x2
 3409 01a0 17       		.uleb128 0x17
 3410 01a1 00       		.byte	0
 3411 01a2 00       		.byte	0
 3412 01a3 1F       		.uleb128 0x1f
 3413 01a4 1D       		.uleb128 0x1d
 3414 01a5 01       		.byte	0x1
 3415 01a6 31       		.uleb128 0x31
 3416 01a7 13       		.uleb128 0x13
 3417 01a8 11       		.uleb128 0x11
 3418 01a9 01       		.uleb128 0x1
 3419 01aa 12       		.uleb128 0x12
 3420 01ab 06       		.uleb128 0x6
 3421 01ac 58       		.uleb128 0x58
 3422 01ad 0B       		.uleb128 0xb
 3423 01ae 59       		.uleb128 0x59
 3424 01af 05       		.uleb128 0x5
 3425 01b0 00       		.byte	0
 3426 01b1 00       		.byte	0
 3427 01b2 20       		.uleb128 0x20
 3428 01b3 05       		.uleb128 0x5
 3429 01b4 00       		.byte	0
 3430 01b5 31       		.uleb128 0x31
 3431 01b6 13       		.uleb128 0x13
 3432 01b7 02       		.uleb128 0x2
 3433 01b8 17       		.uleb128 0x17
 3434 01b9 00       		.byte	0
 3435 01ba 00       		.byte	0
 3436 01bb 21       		.uleb128 0x21
 3437 01bc 0B       		.uleb128 0xb
 3438 01bd 01       		.byte	0x1
 3439 01be 11       		.uleb128 0x11
 3440 01bf 01       		.uleb128 0x1
 3441 01c0 12       		.uleb128 0x12
 3442 01c1 06       		.uleb128 0x6
ARM GAS  /tmp/ccyJVbjO.s 			page 62


 3443 01c2 00       		.byte	0
 3444 01c3 00       		.byte	0
 3445 01c4 22       		.uleb128 0x22
 3446 01c5 05       		.uleb128 0x5
 3447 01c6 00       		.byte	0
 3448 01c7 03       		.uleb128 0x3
 3449 01c8 0E       		.uleb128 0xe
 3450 01c9 3A       		.uleb128 0x3a
 3451 01ca 0B       		.uleb128 0xb
 3452 01cb 3B       		.uleb128 0x3b
 3453 01cc 05       		.uleb128 0x5
 3454 01cd 49       		.uleb128 0x49
 3455 01ce 13       		.uleb128 0x13
 3456 01cf 02       		.uleb128 0x2
 3457 01d0 17       		.uleb128 0x17
 3458 01d1 00       		.byte	0
 3459 01d2 00       		.byte	0
 3460 01d3 23       		.uleb128 0x23
 3461 01d4 2E       		.uleb128 0x2e
 3462 01d5 00       		.byte	0
 3463 01d6 3F       		.uleb128 0x3f
 3464 01d7 19       		.uleb128 0x19
 3465 01d8 03       		.uleb128 0x3
 3466 01d9 0E       		.uleb128 0xe
 3467 01da 3A       		.uleb128 0x3a
 3468 01db 0B       		.uleb128 0xb
 3469 01dc 3B       		.uleb128 0x3b
 3470 01dd 05       		.uleb128 0x5
 3471 01de 27       		.uleb128 0x27
 3472 01df 19       		.uleb128 0x19
 3473 01e0 49       		.uleb128 0x49
 3474 01e1 13       		.uleb128 0x13
 3475 01e2 11       		.uleb128 0x11
 3476 01e3 01       		.uleb128 0x1
 3477 01e4 12       		.uleb128 0x12
 3478 01e5 06       		.uleb128 0x6
 3479 01e6 40       		.uleb128 0x40
 3480 01e7 18       		.uleb128 0x18
 3481 01e8 9742     		.uleb128 0x2117
 3482 01ea 19       		.uleb128 0x19
 3483 01eb 00       		.byte	0
 3484 01ec 00       		.byte	0
 3485 01ed 24       		.uleb128 0x24
 3486 01ee 34       		.uleb128 0x34
 3487 01ef 00       		.byte	0
 3488 01f0 03       		.uleb128 0x3
 3489 01f1 08       		.uleb128 0x8
 3490 01f2 3A       		.uleb128 0x3a
 3491 01f3 0B       		.uleb128 0xb
 3492 01f4 3B       		.uleb128 0x3b
 3493 01f5 05       		.uleb128 0x5
 3494 01f6 49       		.uleb128 0x49
 3495 01f7 13       		.uleb128 0x13
 3496 01f8 02       		.uleb128 0x2
 3497 01f9 17       		.uleb128 0x17
 3498 01fa 00       		.byte	0
 3499 01fb 00       		.byte	0
ARM GAS  /tmp/ccyJVbjO.s 			page 63


 3500 01fc 25       		.uleb128 0x25
 3501 01fd 0F       		.uleb128 0xf
 3502 01fe 00       		.byte	0
 3503 01ff 0B       		.uleb128 0xb
 3504 0200 0B       		.uleb128 0xb
 3505 0201 49       		.uleb128 0x49
 3506 0202 13       		.uleb128 0x13
 3507 0203 00       		.byte	0
 3508 0204 00       		.byte	0
 3509 0205 26       		.uleb128 0x26
 3510 0206 2E       		.uleb128 0x2e
 3511 0207 01       		.byte	0x1
 3512 0208 31       		.uleb128 0x31
 3513 0209 13       		.uleb128 0x13
 3514 020a 11       		.uleb128 0x11
 3515 020b 01       		.uleb128 0x1
 3516 020c 12       		.uleb128 0x12
 3517 020d 06       		.uleb128 0x6
 3518 020e 40       		.uleb128 0x40
 3519 020f 18       		.uleb128 0x18
 3520 0210 9742     		.uleb128 0x2117
 3521 0212 19       		.uleb128 0x19
 3522 0213 01       		.uleb128 0x1
 3523 0214 13       		.uleb128 0x13
 3524 0215 00       		.byte	0
 3525 0216 00       		.byte	0
 3526 0217 27       		.uleb128 0x27
 3527 0218 2E       		.uleb128 0x2e
 3528 0219 00       		.byte	0
 3529 021a 3F       		.uleb128 0x3f
 3530 021b 19       		.uleb128 0x19
 3531 021c 03       		.uleb128 0x3
 3532 021d 0E       		.uleb128 0xe
 3533 021e 3A       		.uleb128 0x3a
 3534 021f 0B       		.uleb128 0xb
 3535 0220 3B       		.uleb128 0x3b
 3536 0221 05       		.uleb128 0x5
 3537 0222 27       		.uleb128 0x27
 3538 0223 19       		.uleb128 0x19
 3539 0224 11       		.uleb128 0x11
 3540 0225 01       		.uleb128 0x1
 3541 0226 12       		.uleb128 0x12
 3542 0227 06       		.uleb128 0x6
 3543 0228 40       		.uleb128 0x40
 3544 0229 18       		.uleb128 0x18
 3545 022a 9742     		.uleb128 0x2117
 3546 022c 19       		.uleb128 0x19
 3547 022d 00       		.byte	0
 3548 022e 00       		.byte	0
 3549 022f 28       		.uleb128 0x28
 3550 0230 34       		.uleb128 0x34
 3551 0231 00       		.byte	0
 3552 0232 03       		.uleb128 0x3
 3553 0233 0E       		.uleb128 0xe
 3554 0234 3A       		.uleb128 0x3a
 3555 0235 0B       		.uleb128 0xb
 3556 0236 3B       		.uleb128 0x3b
ARM GAS  /tmp/ccyJVbjO.s 			page 64


 3557 0237 0B       		.uleb128 0xb
 3558 0238 49       		.uleb128 0x49
 3559 0239 13       		.uleb128 0x13
 3560 023a 02       		.uleb128 0x2
 3561 023b 18       		.uleb128 0x18
 3562 023c 00       		.byte	0
 3563 023d 00       		.byte	0
 3564 023e 29       		.uleb128 0x29
 3565 023f 26       		.uleb128 0x26
 3566 0240 00       		.byte	0
 3567 0241 49       		.uleb128 0x49
 3568 0242 13       		.uleb128 0x13
 3569 0243 00       		.byte	0
 3570 0244 00       		.byte	0
 3571 0245 2A       		.uleb128 0x2a
 3572 0246 34       		.uleb128 0x34
 3573 0247 00       		.byte	0
 3574 0248 03       		.uleb128 0x3
 3575 0249 0E       		.uleb128 0xe
 3576 024a 3A       		.uleb128 0x3a
 3577 024b 0B       		.uleb128 0xb
 3578 024c 3B       		.uleb128 0x3b
 3579 024d 05       		.uleb128 0x5
 3580 024e 49       		.uleb128 0x49
 3581 024f 13       		.uleb128 0x13
 3582 0250 3F       		.uleb128 0x3f
 3583 0251 19       		.uleb128 0x19
 3584 0252 3C       		.uleb128 0x3c
 3585 0253 19       		.uleb128 0x19
 3586 0254 00       		.byte	0
 3587 0255 00       		.byte	0
 3588 0256 00       		.byte	0
 3589              		.section	.debug_loc,"",%progbits
 3590              	.Ldebug_loc0:
 3591              	.LLST0:
 3592 0000 08000000 		.4byte	.LVL1
 3593 0004 20000000 		.4byte	.LVL5
 3594 0008 0200     		.2byte	0x2
 3595 000a 30       		.byte	0x30
 3596 000b 9F       		.byte	0x9f
 3597 000c 20000000 		.4byte	.LVL5
 3598 0010 24000000 		.4byte	.LVL6
 3599 0014 0700     		.2byte	0x7
 3600 0016 70       		.byte	0x70
 3601 0017 00       		.sleb128 0
 3602 0018 41       		.byte	0x41
 3603 0019 25       		.byte	0x25
 3604 001a 31       		.byte	0x31
 3605 001b 1A       		.byte	0x1a
 3606 001c 9F       		.byte	0x9f
 3607 001d 28000000 		.4byte	.LVL7
 3608 0021 38000000 		.4byte	.LFE114
 3609 0025 0200     		.2byte	0x2
 3610 0027 30       		.byte	0x30
 3611 0028 9F       		.byte	0x9f
 3612 0029 00000000 		.4byte	0
 3613 002d 00000000 		.4byte	0
ARM GAS  /tmp/ccyJVbjO.s 			page 65


 3614              	.LLST1:
 3615 0031 08000000 		.4byte	.LVL1
 3616 0035 0A000000 		.4byte	.LVL2
 3617 0039 0200     		.2byte	0x2
 3618 003b 31       		.byte	0x31
 3619 003c 9F       		.byte	0x9f
 3620 003d 0A000000 		.4byte	.LVL2
 3621 0041 38000000 		.4byte	.LFE114
 3622 0045 0200     		.2byte	0x2
 3623 0047 41       		.byte	0x41
 3624 0048 9F       		.byte	0x9f
 3625 0049 00000000 		.4byte	0
 3626 004d 00000000 		.4byte	0
 3627              	.LLST2:
 3628 0051 08000000 		.4byte	.LVL1
 3629 0055 0A000000 		.4byte	.LVL2
 3630 0059 0200     		.2byte	0x2
 3631 005b 30       		.byte	0x30
 3632 005c 9F       		.byte	0x9f
 3633 005d 0A000000 		.4byte	.LVL2
 3634 0061 0C000000 		.4byte	.LVL3
 3635 0065 0100     		.2byte	0x1
 3636 0067 53       		.byte	0x53
 3637 0068 00000000 		.4byte	0
 3638 006c 00000000 		.4byte	0
 3639              	.LLST3:
 3640 0070 08000000 		.4byte	.LVL1
 3641 0074 1C000000 		.4byte	.LVL4
 3642 0078 0200     		.2byte	0x2
 3643 007a 30       		.byte	0x30
 3644 007b 9F       		.byte	0x9f
 3645 007c 28000000 		.4byte	.LVL7
 3646 0080 38000000 		.4byte	.LFE114
 3647 0084 0200     		.2byte	0x2
 3648 0086 31       		.byte	0x31
 3649 0087 9F       		.byte	0x9f
 3650 0088 00000000 		.4byte	0
 3651 008c 00000000 		.4byte	0
 3652              	.LLST4:
 3653 0090 1C000000 		.4byte	.LVL4
 3654 0094 28000000 		.4byte	.LVL7
 3655 0098 0300     		.2byte	0x3
 3656 009a 08       		.byte	0x8
 3657 009b 31       		.byte	0x31
 3658 009c 9F       		.byte	0x9f
 3659 009d 00000000 		.4byte	0
 3660 00a1 00000000 		.4byte	0
 3661              	.LLST5:
 3662 00a5 1C000000 		.4byte	.LVL4
 3663 00a9 20000000 		.4byte	.LVL5
 3664 00ad 0200     		.2byte	0x2
 3665 00af 31       		.byte	0x31
 3666 00b0 9F       		.byte	0x9f
 3667 00b1 20000000 		.4byte	.LVL5
 3668 00b5 28000000 		.4byte	.LVL7
 3669 00b9 0200     		.2byte	0x2
 3670 00bb 41       		.byte	0x41
ARM GAS  /tmp/ccyJVbjO.s 			page 66


 3671 00bc 9F       		.byte	0x9f
 3672 00bd 00000000 		.4byte	0
 3673 00c1 00000000 		.4byte	0
 3674              	.LLST6:
 3675 00c5 1C000000 		.4byte	.LVL4
 3676 00c9 20000000 		.4byte	.LVL5
 3677 00cd 0200     		.2byte	0x2
 3678 00cf 30       		.byte	0x30
 3679 00d0 9F       		.byte	0x9f
 3680 00d1 20000000 		.4byte	.LVL5
 3681 00d5 24000000 		.4byte	.LVL6
 3682 00d9 0100     		.2byte	0x1
 3683 00db 50       		.byte	0x50
 3684 00dc 00000000 		.4byte	0
 3685 00e0 00000000 		.4byte	0
 3686              	.LLST7:
 3687 00e4 1C000000 		.4byte	.LVL4
 3688 00e8 28000000 		.4byte	.LVL7
 3689 00ec 0200     		.2byte	0x2
 3690 00ee 30       		.byte	0x30
 3691 00ef 9F       		.byte	0x9f
 3692 00f0 00000000 		.4byte	0
 3693 00f4 00000000 		.4byte	0
 3694              	.LLST8:
 3695 00f8 00000000 		.4byte	.LVL8
 3696 00fc 0C000000 		.4byte	.LVL11
 3697 0100 0100     		.2byte	0x1
 3698 0102 50       		.byte	0x50
 3699 0103 0C000000 		.4byte	.LVL11
 3700 0107 14000000 		.4byte	.LFE115
 3701 010b 0400     		.2byte	0x4
 3702 010d F3       		.byte	0xf3
 3703 010e 01       		.uleb128 0x1
 3704 010f 50       		.byte	0x50
 3705 0110 9F       		.byte	0x9f
 3706 0111 00000000 		.4byte	0
 3707 0115 00000000 		.4byte	0
 3708              	.LLST9:
 3709 0119 00000000 		.4byte	.LVL8
 3710 011d 04000000 		.4byte	.LVL9
 3711 0121 0200     		.2byte	0x2
 3712 0123 30       		.byte	0x30
 3713 0124 9F       		.byte	0x9f
 3714 0125 04000000 		.4byte	.LVL9
 3715 0129 0C000000 		.4byte	.LVL11
 3716 012d 0100     		.2byte	0x1
 3717 012f 52       		.byte	0x52
 3718 0130 0C000000 		.4byte	.LVL11
 3719 0134 14000000 		.4byte	.LFE115
 3720 0138 0100     		.2byte	0x1
 3721 013a 50       		.byte	0x50
 3722 013b 00000000 		.4byte	0
 3723 013f 00000000 		.4byte	0
 3724              	.LLST10:
 3725 0143 00000000 		.4byte	.LVL19
 3726 0147 0C000000 		.4byte	.LVL23
 3727 014b 0100     		.2byte	0x1
ARM GAS  /tmp/ccyJVbjO.s 			page 67


 3728 014d 50       		.byte	0x50
 3729 014e 0C000000 		.4byte	.LVL23
 3730 0152 14000000 		.4byte	.LFE123
 3731 0156 0400     		.2byte	0x4
 3732 0158 F3       		.byte	0xf3
 3733 0159 01       		.uleb128 0x1
 3734 015a 50       		.byte	0x50
 3735 015b 9F       		.byte	0x9f
 3736 015c 00000000 		.4byte	0
 3737 0160 00000000 		.4byte	0
 3738              	.LLST11:
 3739 0164 00000000 		.4byte	.LVL19
 3740 0168 0A000000 		.4byte	.LVL22
 3741 016c 0100     		.2byte	0x1
 3742 016e 51       		.byte	0x51
 3743 016f 0A000000 		.4byte	.LVL22
 3744 0173 14000000 		.4byte	.LFE123
 3745 0177 0400     		.2byte	0x4
 3746 0179 F3       		.byte	0xf3
 3747 017a 01       		.uleb128 0x1
 3748 017b 51       		.byte	0x51
 3749 017c 9F       		.byte	0x9f
 3750 017d 00000000 		.4byte	0
 3751 0181 00000000 		.4byte	0
 3752              	.LLST12:
 3753 0185 00000000 		.4byte	.LVL19
 3754 0189 04000000 		.4byte	.LVL20
 3755 018d 0200     		.2byte	0x2
 3756 018f 30       		.byte	0x30
 3757 0190 9F       		.byte	0x9f
 3758 0191 04000000 		.4byte	.LVL20
 3759 0195 08000000 		.4byte	.LVL21
 3760 0199 0900     		.2byte	0x9
 3761 019b 72       		.byte	0x72
 3762 019c 00       		.sleb128 0
 3763 019d 11       		.byte	0x11
 3764 019e FFFFFF44 		.sleb128 -123731969
 3765 01a2 1A       		.byte	0x1a
 3766 01a3 9F       		.byte	0x9f
 3767 01a4 08000000 		.4byte	.LVL21
 3768 01a8 0C000000 		.4byte	.LVL23
 3769 01ac 0100     		.2byte	0x1
 3770 01ae 52       		.byte	0x52
 3771 01af 0C000000 		.4byte	.LVL23
 3772 01b3 14000000 		.4byte	.LFE123
 3773 01b7 0100     		.2byte	0x1
 3774 01b9 50       		.byte	0x50
 3775 01ba 00000000 		.4byte	0
 3776 01be 00000000 		.4byte	0
 3777              	.LLST13:
 3778 01c2 00000000 		.4byte	.LVL24
 3779 01c6 0C000000 		.4byte	.LVL28
 3780 01ca 0100     		.2byte	0x1
 3781 01cc 50       		.byte	0x50
 3782 01cd 0C000000 		.4byte	.LVL28
 3783 01d1 14000000 		.4byte	.LFE124
 3784 01d5 0400     		.2byte	0x4
ARM GAS  /tmp/ccyJVbjO.s 			page 68


 3785 01d7 F3       		.byte	0xf3
 3786 01d8 01       		.uleb128 0x1
 3787 01d9 50       		.byte	0x50
 3788 01da 9F       		.byte	0x9f
 3789 01db 00000000 		.4byte	0
 3790 01df 00000000 		.4byte	0
 3791              	.LLST14:
 3792 01e3 00000000 		.4byte	.LVL24
 3793 01e7 0A000000 		.4byte	.LVL27
 3794 01eb 0100     		.2byte	0x1
 3795 01ed 51       		.byte	0x51
 3796 01ee 0A000000 		.4byte	.LVL27
 3797 01f2 14000000 		.4byte	.LFE124
 3798 01f6 0400     		.2byte	0x4
 3799 01f8 F3       		.byte	0xf3
 3800 01f9 01       		.uleb128 0x1
 3801 01fa 51       		.byte	0x51
 3802 01fb 9F       		.byte	0x9f
 3803 01fc 00000000 		.4byte	0
 3804 0200 00000000 		.4byte	0
 3805              	.LLST15:
 3806 0204 00000000 		.4byte	.LVL24
 3807 0208 04000000 		.4byte	.LVL25
 3808 020c 0200     		.2byte	0x2
 3809 020e 30       		.byte	0x30
 3810 020f 9F       		.byte	0x9f
 3811 0210 04000000 		.4byte	.LVL25
 3812 0214 08000000 		.4byte	.LVL26
 3813 0218 0900     		.2byte	0x9
 3814 021a 72       		.byte	0x72
 3815 021b 00       		.sleb128 0
 3816 021c 0C       		.byte	0xc
 3817 021d FFFFFF07 		.4byte	0x7ffffff
 3818 0221 1A       		.byte	0x1a
 3819 0222 9F       		.byte	0x9f
 3820 0223 08000000 		.4byte	.LVL26
 3821 0227 0C000000 		.4byte	.LVL28
 3822 022b 0100     		.2byte	0x1
 3823 022d 52       		.byte	0x52
 3824 022e 0C000000 		.4byte	.LVL28
 3825 0232 14000000 		.4byte	.LFE124
 3826 0236 0100     		.2byte	0x1
 3827 0238 50       		.byte	0x50
 3828 0239 00000000 		.4byte	0
 3829 023d 00000000 		.4byte	0
 3830              	.LLST16:
 3831 0241 00000000 		.4byte	.LVL29
 3832 0245 0A000000 		.4byte	.LVL32
 3833 0249 0100     		.2byte	0x1
 3834 024b 50       		.byte	0x50
 3835 024c 0A000000 		.4byte	.LVL32
 3836 0250 14000000 		.4byte	.LFE125
 3837 0254 0400     		.2byte	0x4
 3838 0256 F3       		.byte	0xf3
 3839 0257 01       		.uleb128 0x1
 3840 0258 50       		.byte	0x50
 3841 0259 9F       		.byte	0x9f
ARM GAS  /tmp/ccyJVbjO.s 			page 69


 3842 025a 00000000 		.4byte	0
 3843 025e 00000000 		.4byte	0
 3844              	.LLST17:
 3845 0262 00000000 		.4byte	.LVL29
 3846 0266 04000000 		.4byte	.LVL30
 3847 026a 0200     		.2byte	0x2
 3848 026c 30       		.byte	0x30
 3849 026d 9F       		.byte	0x9f
 3850 026e 04000000 		.4byte	.LVL30
 3851 0272 0A000000 		.4byte	.LVL32
 3852 0276 0100     		.2byte	0x1
 3853 0278 52       		.byte	0x52
 3854 0279 0A000000 		.4byte	.LVL32
 3855 027d 14000000 		.4byte	.LFE125
 3856 0281 0100     		.2byte	0x1
 3857 0283 50       		.byte	0x50
 3858 0284 00000000 		.4byte	0
 3859 0288 00000000 		.4byte	0
 3860              	.LLST18:
 3861 028c 00000000 		.4byte	.LVL33
 3862 0290 0A000000 		.4byte	.LVL36
 3863 0294 0100     		.2byte	0x1
 3864 0296 50       		.byte	0x50
 3865 0297 0A000000 		.4byte	.LVL36
 3866 029b 14000000 		.4byte	.LFE127
 3867 029f 0400     		.2byte	0x4
 3868 02a1 F3       		.byte	0xf3
 3869 02a2 01       		.uleb128 0x1
 3870 02a3 50       		.byte	0x50
 3871 02a4 9F       		.byte	0x9f
 3872 02a5 00000000 		.4byte	0
 3873 02a9 00000000 		.4byte	0
 3874              	.LLST19:
 3875 02ad 00000000 		.4byte	.LVL33
 3876 02b1 04000000 		.4byte	.LVL34
 3877 02b5 0200     		.2byte	0x2
 3878 02b7 30       		.byte	0x30
 3879 02b8 9F       		.byte	0x9f
 3880 02b9 04000000 		.4byte	.LVL34
 3881 02bd 0A000000 		.4byte	.LVL36
 3882 02c1 0100     		.2byte	0x1
 3883 02c3 52       		.byte	0x52
 3884 02c4 0A000000 		.4byte	.LVL36
 3885 02c8 14000000 		.4byte	.LFE127
 3886 02cc 0100     		.2byte	0x1
 3887 02ce 50       		.byte	0x50
 3888 02cf 00000000 		.4byte	0
 3889 02d3 00000000 		.4byte	0
 3890              	.LLST20:
 3891 02d7 00000000 		.4byte	.LVL37
 3892 02db 0A000000 		.4byte	.LVL40
 3893 02df 0100     		.2byte	0x1
 3894 02e1 50       		.byte	0x50
 3895 02e2 0A000000 		.4byte	.LVL40
 3896 02e6 14000000 		.4byte	.LFE128
 3897 02ea 0400     		.2byte	0x4
 3898 02ec F3       		.byte	0xf3
ARM GAS  /tmp/ccyJVbjO.s 			page 70


 3899 02ed 01       		.uleb128 0x1
 3900 02ee 50       		.byte	0x50
 3901 02ef 9F       		.byte	0x9f
 3902 02f0 00000000 		.4byte	0
 3903 02f4 00000000 		.4byte	0
 3904              	.LLST21:
 3905 02f8 00000000 		.4byte	.LVL37
 3906 02fc 04000000 		.4byte	.LVL38
 3907 0300 0200     		.2byte	0x2
 3908 0302 30       		.byte	0x30
 3909 0303 9F       		.byte	0x9f
 3910 0304 04000000 		.4byte	.LVL38
 3911 0308 0A000000 		.4byte	.LVL40
 3912 030c 0100     		.2byte	0x1
 3913 030e 52       		.byte	0x52
 3914 030f 0A000000 		.4byte	.LVL40
 3915 0313 14000000 		.4byte	.LFE128
 3916 0317 0100     		.2byte	0x1
 3917 0319 50       		.byte	0x50
 3918 031a 00000000 		.4byte	0
 3919 031e 00000000 		.4byte	0
 3920              	.LLST22:
 3921 0322 00000000 		.4byte	.LVL41
 3922 0326 0C000000 		.4byte	.LVL44
 3923 032a 0100     		.2byte	0x1
 3924 032c 50       		.byte	0x50
 3925 032d 0C000000 		.4byte	.LVL44
 3926 0331 14000000 		.4byte	.LFE129
 3927 0335 0400     		.2byte	0x4
 3928 0337 F3       		.byte	0xf3
 3929 0338 01       		.uleb128 0x1
 3930 0339 50       		.byte	0x50
 3931 033a 9F       		.byte	0x9f
 3932 033b 00000000 		.4byte	0
 3933 033f 00000000 		.4byte	0
 3934              	.LLST23:
 3935 0343 00000000 		.4byte	.LVL41
 3936 0347 04000000 		.4byte	.LVL42
 3937 034b 0200     		.2byte	0x2
 3938 034d 30       		.byte	0x30
 3939 034e 9F       		.byte	0x9f
 3940 034f 04000000 		.4byte	.LVL42
 3941 0353 0C000000 		.4byte	.LVL44
 3942 0357 0100     		.2byte	0x1
 3943 0359 52       		.byte	0x52
 3944 035a 0C000000 		.4byte	.LVL44
 3945 035e 14000000 		.4byte	.LFE129
 3946 0362 0100     		.2byte	0x1
 3947 0364 50       		.byte	0x50
 3948 0365 00000000 		.4byte	0
 3949 0369 00000000 		.4byte	0
 3950              	.LLST24:
 3951 036d 00000000 		.4byte	.LVL45
 3952 0371 04000000 		.4byte	.LVL46
 3953 0375 0200     		.2byte	0x2
 3954 0377 30       		.byte	0x30
 3955 0378 9F       		.byte	0x9f
ARM GAS  /tmp/ccyJVbjO.s 			page 71


 3956 0379 04000000 		.4byte	.LVL46
 3957 037d 08000000 		.4byte	.LVL47
 3958 0381 0500     		.2byte	0x5
 3959 0383 73       		.byte	0x73
 3960 0384 00       		.sleb128 0
 3961 0385 3C       		.byte	0x3c
 3962 0386 1A       		.byte	0x1a
 3963 0387 9F       		.byte	0x9f
 3964 0388 08000000 		.4byte	.LVL47
 3965 038c 14000000 		.4byte	.LVL48
 3966 0390 0100     		.2byte	0x1
 3967 0392 53       		.byte	0x53
 3968 0393 1C000000 		.4byte	.LVL50
 3969 0397 20000000 		.4byte	.LVL51
 3970 039b 0600     		.2byte	0x6
 3971 039d 74       		.byte	0x74
 3972 039e 00       		.sleb128 0
 3973 039f 08       		.byte	0x8
 3974 03a0 F0       		.byte	0xf0
 3975 03a1 1A       		.byte	0x1a
 3976 03a2 9F       		.byte	0x9f
 3977 03a3 20000000 		.4byte	.LVL51
 3978 03a7 22000000 		.4byte	.LVL52
 3979 03ab 0100     		.2byte	0x1
 3980 03ad 54       		.byte	0x54
 3981 03ae 28000000 		.4byte	.LVL53
 3982 03b2 2C000000 		.4byte	.LVL54
 3983 03b6 0700     		.2byte	0x7
 3984 03b8 74       		.byte	0x74
 3985 03b9 00       		.sleb128 0
 3986 03ba 0A       		.byte	0xa
 3987 03bb 001C     		.2byte	0x1c00
 3988 03bd 1A       		.byte	0x1a
 3989 03be 9F       		.byte	0x9f
 3990 03bf 2C000000 		.4byte	.LVL54
 3991 03c3 2E000000 		.4byte	.LVL55
 3992 03c7 0100     		.2byte	0x1
 3993 03c9 54       		.byte	0x54
 3994 03ca 36000000 		.4byte	.LVL57
 3995 03ce 3E000000 		.4byte	.LVL58
 3996 03d2 0700     		.2byte	0x7
 3997 03d4 71       		.byte	0x71
 3998 03d5 00       		.sleb128 0
 3999 03d6 0A       		.byte	0xa
 4000 03d7 00E0     		.2byte	0xe000
 4001 03d9 1A       		.byte	0x1a
 4002 03da 9F       		.byte	0x9f
 4003 03db 3E000000 		.4byte	.LVL58
 4004 03df 46000000 		.4byte	.LVL60
 4005 03e3 0100     		.2byte	0x1
 4006 03e5 51       		.byte	0x51
 4007 03e6 46000000 		.4byte	.LVL60
 4008 03ea 48000000 		.4byte	.LVL61
 4009 03ee 0100     		.2byte	0x1
 4010 03f0 53       		.byte	0x53
 4011 03f1 4C000000 		.4byte	.LVL62
 4012 03f5 54000000 		.4byte	.LVL64
ARM GAS  /tmp/ccyJVbjO.s 			page 72


 4013 03f9 0100     		.2byte	0x1
 4014 03fb 53       		.byte	0x53
 4015 03fc 00000000 		.4byte	0
 4016 0400 00000000 		.4byte	0
 4017              	.LLST25:
 4018 0404 00000000 		.4byte	.LVL45
 4019 0408 22000000 		.4byte	.LVL52
 4020 040c 0200     		.2byte	0x2
 4021 040e 30       		.byte	0x30
 4022 040f 9F       		.byte	0x9f
 4023 0410 22000000 		.4byte	.LVL52
 4024 0414 28000000 		.4byte	.LVL53
 4025 0418 0600     		.2byte	0x6
 4026 041a 74       		.byte	0x74
 4027 041b 00       		.sleb128 0
 4028 041c 08       		.byte	0x8
 4029 041d FF       		.byte	0xff
 4030 041e 1A       		.byte	0x1a
 4031 041f 9F       		.byte	0x9f
 4032 0420 2E000000 		.4byte	.LVL55
 4033 0424 32000000 		.4byte	.LVL56
 4034 0428 0600     		.2byte	0x6
 4035 042a 74       		.byte	0x74
 4036 042b 00       		.sleb128 0
 4037 042c 08       		.byte	0x8
 4038 042d FF       		.byte	0xff
 4039 042e 1A       		.byte	0x1a
 4040 042f 9F       		.byte	0x9f
 4041 0430 40000000 		.4byte	.LVL59
 4042 0434 46000000 		.4byte	.LVL60
 4043 0438 0600     		.2byte	0x6
 4044 043a 72       		.byte	0x72
 4045 043b 00       		.sleb128 0
 4046 043c 08       		.byte	0x8
 4047 043d FF       		.byte	0xff
 4048 043e 1A       		.byte	0x1a
 4049 043f 9F       		.byte	0x9f
 4050 0440 46000000 		.4byte	.LVL60
 4051 0444 90000000 		.4byte	.LFE130
 4052 0448 0200     		.2byte	0x2
 4053 044a 30       		.byte	0x30
 4054 044b 9F       		.byte	0x9f
 4055 044c 00000000 		.4byte	0
 4056 0450 00000000 		.4byte	0
 4057              	.LLST26:
 4058 0454 00000000 		.4byte	.LVL45
 4059 0458 16000000 		.4byte	.LVL49
 4060 045c 0200     		.2byte	0x2
 4061 045e 30       		.byte	0x30
 4062 045f 9F       		.byte	0x9f
 4063 0460 46000000 		.4byte	.LVL60
 4064 0464 6A000000 		.4byte	.LVL66
 4065 0468 0200     		.2byte	0x2
 4066 046a 30       		.byte	0x30
 4067 046b 9F       		.byte	0x9f
 4068 046c 6A000000 		.4byte	.LVL66
 4069 0470 7A000000 		.4byte	.LVL69
ARM GAS  /tmp/ccyJVbjO.s 			page 73


 4070 0474 0100     		.2byte	0x1
 4071 0476 53       		.byte	0x53
 4072 0477 00000000 		.4byte	0
 4073 047b 00000000 		.4byte	0
 4074              	.LLST27:
 4075 047f 00000000 		.4byte	.LVL45
 4076 0483 16000000 		.4byte	.LVL49
 4077 0487 0200     		.2byte	0x2
 4078 0489 32       		.byte	0x32
 4079 048a 9F       		.byte	0x9f
 4080 048b 46000000 		.4byte	.LVL60
 4081 048f 6E000000 		.4byte	.LVL67
 4082 0493 0200     		.2byte	0x2
 4083 0495 32       		.byte	0x32
 4084 0496 9F       		.byte	0x9f
 4085 0497 6E000000 		.4byte	.LVL67
 4086 049b 72000000 		.4byte	.LVL68
 4087 049f 0D00     		.2byte	0xd
 4088 04a1 72       		.byte	0x72
 4089 04a2 00       		.sleb128 0
 4090 04a3 48       		.byte	0x48
 4091 04a4 3D       		.byte	0x3d
 4092 04a5 24       		.byte	0x24
 4093 04a6 1A       		.byte	0x1a
 4094 04a7 40       		.byte	0x40
 4095 04a8 25       		.byte	0x25
 4096 04a9 23       		.byte	0x23
 4097 04aa 01       		.uleb128 0x1
 4098 04ab 31       		.byte	0x31
 4099 04ac 24       		.byte	0x24
 4100 04ad 9F       		.byte	0x9f
 4101 04ae 00000000 		.4byte	0
 4102 04b2 00000000 		.4byte	0
 4103              	.LLST28:
 4104 04b6 00000000 		.4byte	.LVL45
 4105 04ba 16000000 		.4byte	.LVL49
 4106 04be 0200     		.2byte	0x2
 4107 04c0 30       		.byte	0x30
 4108 04c1 9F       		.byte	0x9f
 4109 04c2 46000000 		.4byte	.LVL60
 4110 04c6 4E000000 		.4byte	.LVL63
 4111 04ca 0200     		.2byte	0x2
 4112 04cc 30       		.byte	0x30
 4113 04cd 9F       		.byte	0x9f
 4114 04ce 4E000000 		.4byte	.LVL63
 4115 04d2 90000000 		.4byte	.LFE130
 4116 04d6 0900     		.2byte	0x9
 4117 04d8 74       		.byte	0x74
 4118 04d9 00       		.sleb128 0
 4119 04da 40       		.byte	0x40
 4120 04db 42       		.byte	0x42
 4121 04dc 24       		.byte	0x24
 4122 04dd 1A       		.byte	0x1a
 4123 04de 46       		.byte	0x46
 4124 04df 25       		.byte	0x25
 4125 04e0 9F       		.byte	0x9f
 4126 04e1 00000000 		.4byte	0
ARM GAS  /tmp/ccyJVbjO.s 			page 74


 4127 04e5 00000000 		.4byte	0
 4128              	.LLST29:
 4129 04e9 00000000 		.4byte	.LVL45
 4130 04ed 16000000 		.4byte	.LVL49
 4131 04f1 0200     		.2byte	0x2
 4132 04f3 32       		.byte	0x32
 4133 04f4 9F       		.byte	0x9f
 4134 04f5 46000000 		.4byte	.LVL60
 4135 04f9 5E000000 		.4byte	.LVL65
 4136 04fd 0200     		.2byte	0x2
 4137 04ff 32       		.byte	0x32
 4138 0500 9F       		.byte	0x9f
 4139 0501 5E000000 		.4byte	.LVL65
 4140 0505 90000000 		.4byte	.LFE130
 4141 0509 0100     		.2byte	0x1
 4142 050b 51       		.byte	0x51
 4143 050c 00000000 		.4byte	0
 4144 0510 00000000 		.4byte	0
 4145              	.LLST30:
 4146 0514 00000000 		.4byte	.LVL70
 4147 0518 26000000 		.4byte	.LVL75
 4148 051c 0100     		.2byte	0x1
 4149 051e 50       		.byte	0x50
 4150 051f 26000000 		.4byte	.LVL75
 4151 0523 30000000 		.4byte	.LFE131
 4152 0527 0400     		.2byte	0x4
 4153 0529 F3       		.byte	0xf3
 4154 052a 01       		.uleb128 0x1
 4155 052b 50       		.byte	0x50
 4156 052c 9F       		.byte	0x9f
 4157 052d 00000000 		.4byte	0
 4158 0531 00000000 		.4byte	0
 4159              	.LLST31:
 4160 0535 00000000 		.4byte	.LVL70
 4161 0539 0E000000 		.4byte	.LVL71
 4162 053d 0200     		.2byte	0x2
 4163 053f 30       		.byte	0x30
 4164 0540 9F       		.byte	0x9f
 4165 0541 0E000000 		.4byte	.LVL71
 4166 0545 1C000000 		.4byte	.LVL73
 4167 0549 0100     		.2byte	0x1
 4168 054b 51       		.byte	0x51
 4169 054c 1C000000 		.4byte	.LVL73
 4170 0550 1E000000 		.4byte	.LVL74
 4171 0554 0100     		.2byte	0x1
 4172 0556 53       		.byte	0x53
 4173 0557 00000000 		.4byte	0
 4174 055b 00000000 		.4byte	0
 4175              	.LLST32:
 4176 055f 00000000 		.4byte	.LVL79
 4177 0563 0A000000 		.4byte	.LVL80
 4178 0567 0100     		.2byte	0x1
 4179 0569 50       		.byte	0x50
 4180 056a 0A000000 		.4byte	.LVL80
 4181 056e 0E000000 		.4byte	.LVL81
 4182 0572 0400     		.2byte	0x4
 4183 0574 F3       		.byte	0xf3
ARM GAS  /tmp/ccyJVbjO.s 			page 75


 4184 0575 01       		.uleb128 0x1
 4185 0576 50       		.byte	0x50
 4186 0577 9F       		.byte	0x9f
 4187 0578 0E000000 		.4byte	.LVL81
 4188 057c 10000000 		.4byte	.LVL82
 4189 0580 0100     		.2byte	0x1
 4190 0582 50       		.byte	0x50
 4191 0583 10000000 		.4byte	.LVL82
 4192 0587 18000000 		.4byte	.LFE135
 4193 058b 0400     		.2byte	0x4
 4194 058d F3       		.byte	0xf3
 4195 058e 01       		.uleb128 0x1
 4196 058f 50       		.byte	0x50
 4197 0590 9F       		.byte	0x9f
 4198 0591 00000000 		.4byte	0
 4199 0595 00000000 		.4byte	0
 4200              	.LLST33:
 4201 0599 00000000 		.4byte	.LVL83
 4202 059d 0A000000 		.4byte	.LVL84
 4203 05a1 0100     		.2byte	0x1
 4204 05a3 50       		.byte	0x50
 4205 05a4 0A000000 		.4byte	.LVL84
 4206 05a8 0E000000 		.4byte	.LVL85
 4207 05ac 0400     		.2byte	0x4
 4208 05ae F3       		.byte	0xf3
 4209 05af 01       		.uleb128 0x1
 4210 05b0 50       		.byte	0x50
 4211 05b1 9F       		.byte	0x9f
 4212 05b2 0E000000 		.4byte	.LVL85
 4213 05b6 10000000 		.4byte	.LVL86
 4214 05ba 0100     		.2byte	0x1
 4215 05bc 50       		.byte	0x50
 4216 05bd 10000000 		.4byte	.LVL86
 4217 05c1 18000000 		.4byte	.LFE136
 4218 05c5 0400     		.2byte	0x4
 4219 05c7 F3       		.byte	0xf3
 4220 05c8 01       		.uleb128 0x1
 4221 05c9 50       		.byte	0x50
 4222 05ca 9F       		.byte	0x9f
 4223 05cb 00000000 		.4byte	0
 4224 05cf 00000000 		.4byte	0
 4225              	.LLST34:
 4226 05d3 00000000 		.4byte	.LVL87
 4227 05d7 0A000000 		.4byte	.LVL88
 4228 05db 0100     		.2byte	0x1
 4229 05dd 50       		.byte	0x50
 4230 05de 0A000000 		.4byte	.LVL88
 4231 05e2 0E000000 		.4byte	.LVL89
 4232 05e6 0400     		.2byte	0x4
 4233 05e8 F3       		.byte	0xf3
 4234 05e9 01       		.uleb128 0x1
 4235 05ea 50       		.byte	0x50
 4236 05eb 9F       		.byte	0x9f
 4237 05ec 0E000000 		.4byte	.LVL89
 4238 05f0 10000000 		.4byte	.LVL90
 4239 05f4 0100     		.2byte	0x1
 4240 05f6 50       		.byte	0x50
ARM GAS  /tmp/ccyJVbjO.s 			page 76


 4241 05f7 10000000 		.4byte	.LVL90
 4242 05fb 18000000 		.4byte	.LFE137
 4243 05ff 0400     		.2byte	0x4
 4244 0601 F3       		.byte	0xf3
 4245 0602 01       		.uleb128 0x1
 4246 0603 50       		.byte	0x50
 4247 0604 9F       		.byte	0x9f
 4248 0605 00000000 		.4byte	0
 4249 0609 00000000 		.4byte	0
 4250              	.LLST35:
 4251 060d 00000000 		.4byte	.LVL91
 4252 0611 0A000000 		.4byte	.LVL92
 4253 0615 0100     		.2byte	0x1
 4254 0617 50       		.byte	0x50
 4255 0618 0A000000 		.4byte	.LVL92
 4256 061c 0E000000 		.4byte	.LVL93
 4257 0620 0400     		.2byte	0x4
 4258 0622 F3       		.byte	0xf3
 4259 0623 01       		.uleb128 0x1
 4260 0624 50       		.byte	0x50
 4261 0625 9F       		.byte	0x9f
 4262 0626 0E000000 		.4byte	.LVL93
 4263 062a 10000000 		.4byte	.LVL94
 4264 062e 0100     		.2byte	0x1
 4265 0630 50       		.byte	0x50
 4266 0631 10000000 		.4byte	.LVL94
 4267 0635 18000000 		.4byte	.LFE138
 4268 0639 0400     		.2byte	0x4
 4269 063b F3       		.byte	0xf3
 4270 063c 01       		.uleb128 0x1
 4271 063d 50       		.byte	0x50
 4272 063e 9F       		.byte	0x9f
 4273 063f 00000000 		.4byte	0
 4274 0643 00000000 		.4byte	0
 4275              	.LLST36:
 4276 0647 00000000 		.4byte	.LVL95
 4277 064b 0A000000 		.4byte	.LVL96
 4278 064f 0100     		.2byte	0x1
 4279 0651 50       		.byte	0x50
 4280 0652 0A000000 		.4byte	.LVL96
 4281 0656 0E000000 		.4byte	.LVL97
 4282 065a 0400     		.2byte	0x4
 4283 065c F3       		.byte	0xf3
 4284 065d 01       		.uleb128 0x1
 4285 065e 50       		.byte	0x50
 4286 065f 9F       		.byte	0x9f
 4287 0660 0E000000 		.4byte	.LVL97
 4288 0664 10000000 		.4byte	.LVL98
 4289 0668 0100     		.2byte	0x1
 4290 066a 50       		.byte	0x50
 4291 066b 10000000 		.4byte	.LVL98
 4292 066f 18000000 		.4byte	.LFE139
 4293 0673 0400     		.2byte	0x4
 4294 0675 F3       		.byte	0xf3
 4295 0676 01       		.uleb128 0x1
 4296 0677 50       		.byte	0x50
 4297 0678 9F       		.byte	0x9f
ARM GAS  /tmp/ccyJVbjO.s 			page 77


 4298 0679 00000000 		.4byte	0
 4299 067d 00000000 		.4byte	0
 4300              	.LLST37:
 4301 0681 00000000 		.4byte	.LVL99
 4302 0685 0A000000 		.4byte	.LVL100
 4303 0689 0100     		.2byte	0x1
 4304 068b 50       		.byte	0x50
 4305 068c 0A000000 		.4byte	.LVL100
 4306 0690 0E000000 		.4byte	.LVL101
 4307 0694 0400     		.2byte	0x4
 4308 0696 F3       		.byte	0xf3
 4309 0697 01       		.uleb128 0x1
 4310 0698 50       		.byte	0x50
 4311 0699 9F       		.byte	0x9f
 4312 069a 0E000000 		.4byte	.LVL101
 4313 069e 10000000 		.4byte	.LVL102
 4314 06a2 0100     		.2byte	0x1
 4315 06a4 50       		.byte	0x50
 4316 06a5 10000000 		.4byte	.LVL102
 4317 06a9 18000000 		.4byte	.LFE140
 4318 06ad 0400     		.2byte	0x4
 4319 06af F3       		.byte	0xf3
 4320 06b0 01       		.uleb128 0x1
 4321 06b1 50       		.byte	0x50
 4322 06b2 9F       		.byte	0x9f
 4323 06b3 00000000 		.4byte	0
 4324 06b7 00000000 		.4byte	0
 4325              	.LLST38:
 4326 06bb 00000000 		.4byte	.LVL103
 4327 06bf 0A000000 		.4byte	.LVL104
 4328 06c3 0100     		.2byte	0x1
 4329 06c5 50       		.byte	0x50
 4330 06c6 0A000000 		.4byte	.LVL104
 4331 06ca 0E000000 		.4byte	.LVL105
 4332 06ce 0400     		.2byte	0x4
 4333 06d0 F3       		.byte	0xf3
 4334 06d1 01       		.uleb128 0x1
 4335 06d2 50       		.byte	0x50
 4336 06d3 9F       		.byte	0x9f
 4337 06d4 0E000000 		.4byte	.LVL105
 4338 06d8 10000000 		.4byte	.LVL106
 4339 06dc 0100     		.2byte	0x1
 4340 06de 50       		.byte	0x50
 4341 06df 10000000 		.4byte	.LVL106
 4342 06e3 18000000 		.4byte	.LFE141
 4343 06e7 0400     		.2byte	0x4
 4344 06e9 F3       		.byte	0xf3
 4345 06ea 01       		.uleb128 0x1
 4346 06eb 50       		.byte	0x50
 4347 06ec 9F       		.byte	0x9f
 4348 06ed 00000000 		.4byte	0
 4349 06f1 00000000 		.4byte	0
 4350              	.LLST39:
 4351 06f5 00000000 		.4byte	.LVL107
 4352 06f9 0A000000 		.4byte	.LVL108
 4353 06fd 0100     		.2byte	0x1
 4354 06ff 50       		.byte	0x50
ARM GAS  /tmp/ccyJVbjO.s 			page 78


 4355 0700 0A000000 		.4byte	.LVL108
 4356 0704 0E000000 		.4byte	.LVL109
 4357 0708 0400     		.2byte	0x4
 4358 070a F3       		.byte	0xf3
 4359 070b 01       		.uleb128 0x1
 4360 070c 50       		.byte	0x50
 4361 070d 9F       		.byte	0x9f
 4362 070e 0E000000 		.4byte	.LVL109
 4363 0712 10000000 		.4byte	.LVL110
 4364 0716 0100     		.2byte	0x1
 4365 0718 50       		.byte	0x50
 4366 0719 10000000 		.4byte	.LVL110
 4367 071d 18000000 		.4byte	.LFE142
 4368 0721 0400     		.2byte	0x4
 4369 0723 F3       		.byte	0xf3
 4370 0724 01       		.uleb128 0x1
 4371 0725 50       		.byte	0x50
 4372 0726 9F       		.byte	0x9f
 4373 0727 00000000 		.4byte	0
 4374 072b 00000000 		.4byte	0
 4375              	.LLST40:
 4376 072f 00000000 		.4byte	.LVL111
 4377 0733 0A000000 		.4byte	.LVL112
 4378 0737 0100     		.2byte	0x1
 4379 0739 50       		.byte	0x50
 4380 073a 0A000000 		.4byte	.LVL112
 4381 073e 0E000000 		.4byte	.LVL113
 4382 0742 0400     		.2byte	0x4
 4383 0744 F3       		.byte	0xf3
 4384 0745 01       		.uleb128 0x1
 4385 0746 50       		.byte	0x50
 4386 0747 9F       		.byte	0x9f
 4387 0748 0E000000 		.4byte	.LVL113
 4388 074c 10000000 		.4byte	.LVL114
 4389 0750 0100     		.2byte	0x1
 4390 0752 50       		.byte	0x50
 4391 0753 10000000 		.4byte	.LVL114
 4392 0757 18000000 		.4byte	.LFE143
 4393 075b 0400     		.2byte	0x4
 4394 075d F3       		.byte	0xf3
 4395 075e 01       		.uleb128 0x1
 4396 075f 50       		.byte	0x50
 4397 0760 9F       		.byte	0x9f
 4398 0761 00000000 		.4byte	0
 4399 0765 00000000 		.4byte	0
 4400              	.LLST41:
 4401 0769 00000000 		.4byte	.LVL115
 4402 076d 0A000000 		.4byte	.LVL116
 4403 0771 0100     		.2byte	0x1
 4404 0773 50       		.byte	0x50
 4405 0774 0A000000 		.4byte	.LVL116
 4406 0778 0E000000 		.4byte	.LVL117
 4407 077c 0400     		.2byte	0x4
 4408 077e F3       		.byte	0xf3
 4409 077f 01       		.uleb128 0x1
 4410 0780 50       		.byte	0x50
 4411 0781 9F       		.byte	0x9f
ARM GAS  /tmp/ccyJVbjO.s 			page 79


 4412 0782 0E000000 		.4byte	.LVL117
 4413 0786 10000000 		.4byte	.LVL118
 4414 078a 0100     		.2byte	0x1
 4415 078c 50       		.byte	0x50
 4416 078d 10000000 		.4byte	.LVL118
 4417 0791 18000000 		.4byte	.LFE144
 4418 0795 0400     		.2byte	0x4
 4419 0797 F3       		.byte	0xf3
 4420 0798 01       		.uleb128 0x1
 4421 0799 50       		.byte	0x50
 4422 079a 9F       		.byte	0x9f
 4423 079b 00000000 		.4byte	0
 4424 079f 00000000 		.4byte	0
 4425              	.LLST42:
 4426 07a3 00000000 		.4byte	.LVL119
 4427 07a7 0A000000 		.4byte	.LVL120
 4428 07ab 0100     		.2byte	0x1
 4429 07ad 50       		.byte	0x50
 4430 07ae 0A000000 		.4byte	.LVL120
 4431 07b2 0E000000 		.4byte	.LVL121
 4432 07b6 0400     		.2byte	0x4
 4433 07b8 F3       		.byte	0xf3
 4434 07b9 01       		.uleb128 0x1
 4435 07ba 50       		.byte	0x50
 4436 07bb 9F       		.byte	0x9f
 4437 07bc 0E000000 		.4byte	.LVL121
 4438 07c0 10000000 		.4byte	.LVL122
 4439 07c4 0100     		.2byte	0x1
 4440 07c6 50       		.byte	0x50
 4441 07c7 10000000 		.4byte	.LVL122
 4442 07cb 18000000 		.4byte	.LFE145
 4443 07cf 0400     		.2byte	0x4
 4444 07d1 F3       		.byte	0xf3
 4445 07d2 01       		.uleb128 0x1
 4446 07d3 50       		.byte	0x50
 4447 07d4 9F       		.byte	0x9f
 4448 07d5 00000000 		.4byte	0
 4449 07d9 00000000 		.4byte	0
 4450              	.LLST43:
 4451 07dd 00000000 		.4byte	.LVL123
 4452 07e1 0A000000 		.4byte	.LVL124
 4453 07e5 0100     		.2byte	0x1
 4454 07e7 50       		.byte	0x50
 4455 07e8 0A000000 		.4byte	.LVL124
 4456 07ec 0E000000 		.4byte	.LVL125
 4457 07f0 0400     		.2byte	0x4
 4458 07f2 F3       		.byte	0xf3
 4459 07f3 01       		.uleb128 0x1
 4460 07f4 50       		.byte	0x50
 4461 07f5 9F       		.byte	0x9f
 4462 07f6 0E000000 		.4byte	.LVL125
 4463 07fa 10000000 		.4byte	.LVL126
 4464 07fe 0100     		.2byte	0x1
 4465 0800 50       		.byte	0x50
 4466 0801 10000000 		.4byte	.LVL126
 4467 0805 18000000 		.4byte	.LFE146
 4468 0809 0400     		.2byte	0x4
ARM GAS  /tmp/ccyJVbjO.s 			page 80


 4469 080b F3       		.byte	0xf3
 4470 080c 01       		.uleb128 0x1
 4471 080d 50       		.byte	0x50
 4472 080e 9F       		.byte	0x9f
 4473 080f 00000000 		.4byte	0
 4474 0813 00000000 		.4byte	0
 4475              	.LLST44:
 4476 0817 00000000 		.4byte	.LVL128
 4477 081b 0A000000 		.4byte	.LVL129
 4478 081f 0100     		.2byte	0x1
 4479 0821 50       		.byte	0x50
 4480 0822 0A000000 		.4byte	.LVL129
 4481 0826 0E000000 		.4byte	.LVL130
 4482 082a 0400     		.2byte	0x4
 4483 082c F3       		.byte	0xf3
 4484 082d 01       		.uleb128 0x1
 4485 082e 50       		.byte	0x50
 4486 082f 9F       		.byte	0x9f
 4487 0830 0E000000 		.4byte	.LVL130
 4488 0834 10000000 		.4byte	.LVL131
 4489 0838 0100     		.2byte	0x1
 4490 083a 50       		.byte	0x50
 4491 083b 10000000 		.4byte	.LVL131
 4492 083f 18000000 		.4byte	.LFE148
 4493 0843 0400     		.2byte	0x4
 4494 0845 F3       		.byte	0xf3
 4495 0846 01       		.uleb128 0x1
 4496 0847 50       		.byte	0x50
 4497 0848 9F       		.byte	0x9f
 4498 0849 00000000 		.4byte	0
 4499 084d 00000000 		.4byte	0
 4500              	.LLST45:
 4501 0851 00000000 		.4byte	.LVL132
 4502 0855 14000000 		.4byte	.LVL137
 4503 0859 0100     		.2byte	0x1
 4504 085b 50       		.byte	0x50
 4505 085c 14000000 		.4byte	.LVL137
 4506 0860 1E000000 		.4byte	.LVL138
 4507 0864 0400     		.2byte	0x4
 4508 0866 F3       		.byte	0xf3
 4509 0867 01       		.uleb128 0x1
 4510 0868 50       		.byte	0x50
 4511 0869 9F       		.byte	0x9f
 4512 086a 1E000000 		.4byte	.LVL138
 4513 086e 26000000 		.4byte	.LVL141
 4514 0872 0100     		.2byte	0x1
 4515 0874 50       		.byte	0x50
 4516 0875 26000000 		.4byte	.LVL141
 4517 0879 34000000 		.4byte	.LFE149
 4518 087d 0400     		.2byte	0x4
 4519 087f F3       		.byte	0xf3
 4520 0880 01       		.uleb128 0x1
 4521 0881 50       		.byte	0x50
 4522 0882 9F       		.byte	0x9f
 4523 0883 00000000 		.4byte	0
 4524 0887 00000000 		.4byte	0
 4525              	.LLST46:
ARM GAS  /tmp/ccyJVbjO.s 			page 81


 4526 088b 00000000 		.4byte	.LVL132
 4527 088f 02000000 		.4byte	.LVL133
 4528 0893 0200     		.2byte	0x2
 4529 0895 30       		.byte	0x30
 4530 0896 9F       		.byte	0x9f
 4531 0897 02000000 		.4byte	.LVL133
 4532 089b 0A000000 		.4byte	.LVL134
 4533 089f 0100     		.2byte	0x1
 4534 08a1 53       		.byte	0x53
 4535 08a2 0A000000 		.4byte	.LVL134
 4536 08a6 10000000 		.4byte	.LVL136
 4537 08aa 0500     		.2byte	0x5
 4538 08ac 70       		.byte	0x70
 4539 08ad 00       		.sleb128 0
 4540 08ae 35       		.byte	0x35
 4541 08af 25       		.byte	0x25
 4542 08b0 9F       		.byte	0x9f
 4543 08b1 10000000 		.4byte	.LVL136
 4544 08b5 14000000 		.4byte	.LVL137
 4545 08b9 0800     		.2byte	0x8
 4546 08bb 70       		.byte	0x70
 4547 08bc 00       		.sleb128 0
 4548 08bd 4F       		.byte	0x4f
 4549 08be 1A       		.byte	0x1a
 4550 08bf 08       		.byte	0x8
 4551 08c0 FF       		.byte	0xff
 4552 08c1 1A       		.byte	0x1a
 4553 08c2 9F       		.byte	0x9f
 4554 08c3 1E000000 		.4byte	.LVL138
 4555 08c7 20000000 		.4byte	.LVL139
 4556 08cb 0100     		.2byte	0x1
 4557 08cd 53       		.byte	0x53
 4558 08ce 20000000 		.4byte	.LVL139
 4559 08d2 22000000 		.4byte	.LVL140
 4560 08d6 0500     		.2byte	0x5
 4561 08d8 70       		.byte	0x70
 4562 08d9 00       		.sleb128 0
 4563 08da 35       		.byte	0x35
 4564 08db 25       		.byte	0x25
 4565 08dc 9F       		.byte	0x9f
 4566 08dd 22000000 		.4byte	.LVL140
 4567 08e1 26000000 		.4byte	.LVL141
 4568 08e5 0800     		.2byte	0x8
 4569 08e7 70       		.byte	0x70
 4570 08e8 00       		.sleb128 0
 4571 08e9 4F       		.byte	0x4f
 4572 08ea 1A       		.byte	0x1a
 4573 08eb 08       		.byte	0x8
 4574 08ec FF       		.byte	0xff
 4575 08ed 1A       		.byte	0x1a
 4576 08ee 9F       		.byte	0x9f
 4577 08ef 00000000 		.4byte	0
 4578 08f3 00000000 		.4byte	0
 4579              	.LLST47:
 4580 08f7 00000000 		.4byte	.LVL132
 4581 08fb 0E000000 		.4byte	.LVL135
 4582 08ff 0200     		.2byte	0x2
ARM GAS  /tmp/ccyJVbjO.s 			page 82


 4583 0901 30       		.byte	0x30
 4584 0902 9F       		.byte	0x9f
 4585 0903 0E000000 		.4byte	.LVL135
 4586 0907 1E000000 		.4byte	.LVL138
 4587 090b 0100     		.2byte	0x1
 4588 090d 53       		.byte	0x53
 4589 090e 1E000000 		.4byte	.LVL138
 4590 0912 22000000 		.4byte	.LVL140
 4591 0916 0200     		.2byte	0x2
 4592 0918 30       		.byte	0x30
 4593 0919 9F       		.byte	0x9f
 4594 091a 22000000 		.4byte	.LVL140
 4595 091e 34000000 		.4byte	.LFE149
 4596 0922 0100     		.2byte	0x1
 4597 0924 53       		.byte	0x53
 4598 0925 00000000 		.4byte	0
 4599 0929 00000000 		.4byte	0
 4600              	.LLST48:
 4601 092d 00000000 		.4byte	.LVL132
 4602 0931 10000000 		.4byte	.LVL136
 4603 0935 0200     		.2byte	0x2
 4604 0937 30       		.byte	0x30
 4605 0938 9F       		.byte	0x9f
 4606 0939 10000000 		.4byte	.LVL136
 4607 093d 14000000 		.4byte	.LVL137
 4608 0941 0D00     		.2byte	0xd
 4609 0943 73       		.byte	0x73
 4610 0944 00       		.sleb128 0
 4611 0945 70       		.byte	0x70
 4612 0946 00       		.sleb128 0
 4613 0947 4F       		.byte	0x4f
 4614 0948 1A       		.byte	0x1a
 4615 0949 08       		.byte	0x8
 4616 094a FF       		.byte	0xff
 4617 094b 1A       		.byte	0x1a
 4618 094c 25       		.byte	0x25
 4619 094d 31       		.byte	0x31
 4620 094e 1A       		.byte	0x1a
 4621 094f 9F       		.byte	0x9f
 4622 0950 1E000000 		.4byte	.LVL138
 4623 0954 22000000 		.4byte	.LVL140
 4624 0958 0200     		.2byte	0x2
 4625 095a 30       		.byte	0x30
 4626 095b 9F       		.byte	0x9f
 4627 095c 22000000 		.4byte	.LVL140
 4628 0960 26000000 		.4byte	.LVL141
 4629 0964 0D00     		.2byte	0xd
 4630 0966 73       		.byte	0x73
 4631 0967 00       		.sleb128 0
 4632 0968 70       		.byte	0x70
 4633 0969 00       		.sleb128 0
 4634 096a 4F       		.byte	0x4f
 4635 096b 1A       		.byte	0x1a
 4636 096c 08       		.byte	0x8
 4637 096d FF       		.byte	0xff
 4638 096e 1A       		.byte	0x1a
 4639 096f 25       		.byte	0x25
ARM GAS  /tmp/ccyJVbjO.s 			page 83


 4640 0970 31       		.byte	0x31
 4641 0971 1A       		.byte	0x1a
 4642 0972 9F       		.byte	0x9f
 4643 0973 00000000 		.4byte	0
 4644 0977 00000000 		.4byte	0
 4645              	.LLST49:
 4646 097b 00000000 		.4byte	.LVL142
 4647 097f 0C000000 		.4byte	.LVL144
 4648 0983 0100     		.2byte	0x1
 4649 0985 50       		.byte	0x50
 4650 0986 0C000000 		.4byte	.LVL144
 4651 098a 14000000 		.4byte	.LFE151
 4652 098e 0400     		.2byte	0x4
 4653 0990 F3       		.byte	0xf3
 4654 0991 01       		.uleb128 0x1
 4655 0992 50       		.byte	0x50
 4656 0993 9F       		.byte	0x9f
 4657 0994 00000000 		.4byte	0
 4658 0998 00000000 		.4byte	0
 4659              	.LLST50:
 4660 099c 00000000 		.4byte	.LVL142
 4661 09a0 04000000 		.4byte	.LVL143
 4662 09a4 0200     		.2byte	0x2
 4663 09a6 30       		.byte	0x30
 4664 09a7 9F       		.byte	0x9f
 4665 09a8 04000000 		.4byte	.LVL143
 4666 09ac 0C000000 		.4byte	.LVL144
 4667 09b0 0B00     		.2byte	0xb
 4668 09b2 70       		.byte	0x70
 4669 09b3 00       		.sleb128 0
 4670 09b4 08       		.byte	0x8
 4671 09b5 FF       		.byte	0xff
 4672 09b6 1A       		.byte	0x1a
 4673 09b7 73       		.byte	0x73
 4674 09b8 00       		.sleb128 0
 4675 09b9 1A       		.byte	0x1a
 4676 09ba 30       		.byte	0x30
 4677 09bb 2E       		.byte	0x2e
 4678 09bc 9F       		.byte	0x9f
 4679 09bd 0C000000 		.4byte	.LVL144
 4680 09c1 14000000 		.4byte	.LFE151
 4681 09c5 0C00     		.2byte	0xc
 4682 09c7 F3       		.byte	0xf3
 4683 09c8 01       		.uleb128 0x1
 4684 09c9 50       		.byte	0x50
 4685 09ca 08       		.byte	0x8
 4686 09cb FF       		.byte	0xff
 4687 09cc 1A       		.byte	0x1a
 4688 09cd 73       		.byte	0x73
 4689 09ce 00       		.sleb128 0
 4690 09cf 1A       		.byte	0x1a
 4691 09d0 30       		.byte	0x30
 4692 09d1 2E       		.byte	0x2e
 4693 09d2 9F       		.byte	0x9f
 4694 09d3 00000000 		.4byte	0
 4695 09d7 00000000 		.4byte	0
 4696              		.section	.debug_aranges,"",%progbits
ARM GAS  /tmp/ccyJVbjO.s 			page 84


 4697 0000 5C010000 		.4byte	0x15c
 4698 0004 0200     		.2byte	0x2
 4699 0006 00000000 		.4byte	.Ldebug_info0
 4700 000a 04       		.byte	0x4
 4701 000b 00       		.byte	0
 4702 000c 0000     		.2byte	0
 4703 000e 0000     		.2byte	0
 4704 0010 00000000 		.4byte	.LFB112
 4705 0014 34000000 		.4byte	.LFE112-.LFB112
 4706 0018 00000000 		.4byte	.LFB113
 4707 001c 10000000 		.4byte	.LFE113-.LFB113
 4708 0020 00000000 		.4byte	.LFB114
 4709 0024 38000000 		.4byte	.LFE114-.LFB114
 4710 0028 00000000 		.4byte	.LFB115
 4711 002c 14000000 		.4byte	.LFE115-.LFB115
 4712 0030 00000000 		.4byte	.LFB116
 4713 0034 0C000000 		.4byte	.LFE116-.LFB116
 4714 0038 00000000 		.4byte	.LFB117
 4715 003c 20000000 		.4byte	.LFE117-.LFB117
 4716 0040 00000000 		.4byte	.LFB118
 4717 0044 0C000000 		.4byte	.LFE118-.LFB118
 4718 0048 00000000 		.4byte	.LFB119
 4719 004c 0C000000 		.4byte	.LFE119-.LFB119
 4720 0050 00000000 		.4byte	.LFB120
 4721 0054 0C000000 		.4byte	.LFE120-.LFB120
 4722 0058 00000000 		.4byte	.LFB121
 4723 005c 0C000000 		.4byte	.LFE121-.LFB121
 4724 0060 00000000 		.4byte	.LFB122
 4725 0064 0C000000 		.4byte	.LFE122-.LFB122
 4726 0068 00000000 		.4byte	.LFB123
 4727 006c 14000000 		.4byte	.LFE123-.LFB123
 4728 0070 00000000 		.4byte	.LFB124
 4729 0074 14000000 		.4byte	.LFE124-.LFB124
 4730 0078 00000000 		.4byte	.LFB125
 4731 007c 14000000 		.4byte	.LFE125-.LFB125
 4732 0080 00000000 		.4byte	.LFB126
 4733 0084 10000000 		.4byte	.LFE126-.LFB126
 4734 0088 00000000 		.4byte	.LFB127
 4735 008c 14000000 		.4byte	.LFE127-.LFB127
 4736 0090 00000000 		.4byte	.LFB128
 4737 0094 14000000 		.4byte	.LFE128-.LFB128
 4738 0098 00000000 		.4byte	.LFB129
 4739 009c 14000000 		.4byte	.LFE129-.LFB129
 4740 00a0 00000000 		.4byte	.LFB130
 4741 00a4 90000000 		.4byte	.LFE130-.LFB130
 4742 00a8 00000000 		.4byte	.LFB131
 4743 00ac 30000000 		.4byte	.LFE131-.LFB131
 4744 00b0 00000000 		.4byte	.LFB132
 4745 00b4 0C000000 		.4byte	.LFE132-.LFB132
 4746 00b8 00000000 		.4byte	.LFB133
 4747 00bc 0C000000 		.4byte	.LFE133-.LFB133
 4748 00c0 00000000 		.4byte	.LFB134
 4749 00c4 0C000000 		.4byte	.LFE134-.LFB134
 4750 00c8 00000000 		.4byte	.LFB135
 4751 00cc 18000000 		.4byte	.LFE135-.LFB135
 4752 00d0 00000000 		.4byte	.LFB136
 4753 00d4 18000000 		.4byte	.LFE136-.LFB136
ARM GAS  /tmp/ccyJVbjO.s 			page 85


 4754 00d8 00000000 		.4byte	.LFB137
 4755 00dc 18000000 		.4byte	.LFE137-.LFB137
 4756 00e0 00000000 		.4byte	.LFB138
 4757 00e4 18000000 		.4byte	.LFE138-.LFB138
 4758 00e8 00000000 		.4byte	.LFB139
 4759 00ec 18000000 		.4byte	.LFE139-.LFB139
 4760 00f0 00000000 		.4byte	.LFB140
 4761 00f4 18000000 		.4byte	.LFE140-.LFB140
 4762 00f8 00000000 		.4byte	.LFB141
 4763 00fc 18000000 		.4byte	.LFE141-.LFB141
 4764 0100 00000000 		.4byte	.LFB142
 4765 0104 18000000 		.4byte	.LFE142-.LFB142
 4766 0108 00000000 		.4byte	.LFB143
 4767 010c 18000000 		.4byte	.LFE143-.LFB143
 4768 0110 00000000 		.4byte	.LFB144
 4769 0114 18000000 		.4byte	.LFE144-.LFB144
 4770 0118 00000000 		.4byte	.LFB145
 4771 011c 18000000 		.4byte	.LFE145-.LFB145
 4772 0120 00000000 		.4byte	.LFB146
 4773 0124 18000000 		.4byte	.LFE146-.LFB146
 4774 0128 00000000 		.4byte	.LFB147
 4775 012c 18000000 		.4byte	.LFE147-.LFB147
 4776 0130 00000000 		.4byte	.LFB148
 4777 0134 18000000 		.4byte	.LFE148-.LFB148
 4778 0138 00000000 		.4byte	.LFB149
 4779 013c 34000000 		.4byte	.LFE149-.LFB149
 4780 0140 00000000 		.4byte	.LFB150
 4781 0144 10000000 		.4byte	.LFE150-.LFB150
 4782 0148 00000000 		.4byte	.LFB151
 4783 014c 14000000 		.4byte	.LFE151-.LFB151
 4784 0150 00000000 		.4byte	.LFB152
 4785 0154 0C000000 		.4byte	.LFE152-.LFB152
 4786 0158 00000000 		.4byte	0
 4787 015c 00000000 		.4byte	0
 4788              		.section	.debug_ranges,"",%progbits
 4789              	.Ldebug_ranges0:
 4790 0000 04000000 		.4byte	.LBB6
 4791 0004 06000000 		.4byte	.LBE6
 4792 0008 08000000 		.4byte	.LBB9
 4793 000c 0E000000 		.4byte	.LBE9
 4794 0010 00000000 		.4byte	0
 4795 0014 00000000 		.4byte	0
 4796 0018 00000000 		.4byte	.LFB112
 4797 001c 34000000 		.4byte	.LFE112
 4798 0020 00000000 		.4byte	.LFB113
 4799 0024 10000000 		.4byte	.LFE113
 4800 0028 00000000 		.4byte	.LFB114
 4801 002c 38000000 		.4byte	.LFE114
 4802 0030 00000000 		.4byte	.LFB115
 4803 0034 14000000 		.4byte	.LFE115
 4804 0038 00000000 		.4byte	.LFB116
 4805 003c 0C000000 		.4byte	.LFE116
 4806 0040 00000000 		.4byte	.LFB117
 4807 0044 20000000 		.4byte	.LFE117
 4808 0048 00000000 		.4byte	.LFB118
 4809 004c 0C000000 		.4byte	.LFE118
 4810 0050 00000000 		.4byte	.LFB119
ARM GAS  /tmp/ccyJVbjO.s 			page 86


 4811 0054 0C000000 		.4byte	.LFE119
 4812 0058 00000000 		.4byte	.LFB120
 4813 005c 0C000000 		.4byte	.LFE120
 4814 0060 00000000 		.4byte	.LFB121
 4815 0064 0C000000 		.4byte	.LFE121
 4816 0068 00000000 		.4byte	.LFB122
 4817 006c 0C000000 		.4byte	.LFE122
 4818 0070 00000000 		.4byte	.LFB123
 4819 0074 14000000 		.4byte	.LFE123
 4820 0078 00000000 		.4byte	.LFB124
 4821 007c 14000000 		.4byte	.LFE124
 4822 0080 00000000 		.4byte	.LFB125
 4823 0084 14000000 		.4byte	.LFE125
 4824 0088 00000000 		.4byte	.LFB126
 4825 008c 10000000 		.4byte	.LFE126
 4826 0090 00000000 		.4byte	.LFB127
 4827 0094 14000000 		.4byte	.LFE127
 4828 0098 00000000 		.4byte	.LFB128
 4829 009c 14000000 		.4byte	.LFE128
 4830 00a0 00000000 		.4byte	.LFB129
 4831 00a4 14000000 		.4byte	.LFE129
 4832 00a8 00000000 		.4byte	.LFB130
 4833 00ac 90000000 		.4byte	.LFE130
 4834 00b0 00000000 		.4byte	.LFB131
 4835 00b4 30000000 		.4byte	.LFE131
 4836 00b8 00000000 		.4byte	.LFB132
 4837 00bc 0C000000 		.4byte	.LFE132
 4838 00c0 00000000 		.4byte	.LFB133
 4839 00c4 0C000000 		.4byte	.LFE133
 4840 00c8 00000000 		.4byte	.LFB134
 4841 00cc 0C000000 		.4byte	.LFE134
 4842 00d0 00000000 		.4byte	.LFB135
 4843 00d4 18000000 		.4byte	.LFE135
 4844 00d8 00000000 		.4byte	.LFB136
 4845 00dc 18000000 		.4byte	.LFE136
 4846 00e0 00000000 		.4byte	.LFB137
 4847 00e4 18000000 		.4byte	.LFE137
 4848 00e8 00000000 		.4byte	.LFB138
 4849 00ec 18000000 		.4byte	.LFE138
 4850 00f0 00000000 		.4byte	.LFB139
 4851 00f4 18000000 		.4byte	.LFE139
 4852 00f8 00000000 		.4byte	.LFB140
 4853 00fc 18000000 		.4byte	.LFE140
 4854 0100 00000000 		.4byte	.LFB141
 4855 0104 18000000 		.4byte	.LFE141
 4856 0108 00000000 		.4byte	.LFB142
 4857 010c 18000000 		.4byte	.LFE142
 4858 0110 00000000 		.4byte	.LFB143
 4859 0114 18000000 		.4byte	.LFE143
 4860 0118 00000000 		.4byte	.LFB144
 4861 011c 18000000 		.4byte	.LFE144
 4862 0120 00000000 		.4byte	.LFB145
 4863 0124 18000000 		.4byte	.LFE145
 4864 0128 00000000 		.4byte	.LFB146
 4865 012c 18000000 		.4byte	.LFE146
 4866 0130 00000000 		.4byte	.LFB147
 4867 0134 18000000 		.4byte	.LFE147
ARM GAS  /tmp/ccyJVbjO.s 			page 87


 4868 0138 00000000 		.4byte	.LFB148
 4869 013c 18000000 		.4byte	.LFE148
 4870 0140 00000000 		.4byte	.LFB149
 4871 0144 34000000 		.4byte	.LFE149
 4872 0148 00000000 		.4byte	.LFB150
 4873 014c 10000000 		.4byte	.LFE150
 4874 0150 00000000 		.4byte	.LFB151
 4875 0154 14000000 		.4byte	.LFE151
 4876 0158 00000000 		.4byte	.LFB152
 4877 015c 0C000000 		.4byte	.LFE152
 4878 0160 00000000 		.4byte	0
 4879 0164 00000000 		.4byte	0
 4880              		.section	.debug_line,"",%progbits
 4881              	.Ldebug_line0:
 4882 0000 D3040000 		.section	.debug_str,"MS",%progbits,1
 4882      02004801 
 4882      00000201 
 4882      FB0E0D00 
 4882      01010101 
 4883              	.LASF90:
 4884 0000 5243435F 		.ascii	"RCC_HCLK\000"
 4884      48434C4B 
 4884      00
 4885              	.LASF73:
 4886 0009 5243435F 		.ascii	"RCC_LSE\000"
 4886      4C534500 
 4887              	.LASF38:
 4888 0011 41504231 		.ascii	"APB1LPENR\000"
 4888      4C50454E 
 4888      5200
 4889              	.LASF77:
 4890 001b 5243435F 		.ascii	"RCC_PLLSAICmd\000"
 4890      504C4C53 
 4890      4149436D 
 4890      6400
 4891              	.LASF60:
 4892 0029 73746174 		.ascii	"statusreg\000"
 4892      75737265 
 4892      6700
 4893              	.LASF47:
 4894 0033 466C6167 		.ascii	"FlagStatus\000"
 4894      53746174 
 4894      757300
 4895              	.LASF55:
 4896 003e 53595343 		.ascii	"SYSCLK_Frequency\000"
 4896      4C4B5F46 
 4896      72657175 
 4896      656E6379 
 4896      00
 4897              	.LASF98:
 4898 004f 706C6C6D 		.ascii	"pllm\000"
 4898      00
 4899              	.LASF96:
 4900 0054 706C6C70 		.ascii	"pllp\000"
 4900      00
 4901              	.LASF3:
 4902 0059 5F5F7569 		.ascii	"__uint8_t\000"
ARM GAS  /tmp/ccyJVbjO.s 			page 88


 4902      6E74385F 
 4902      7400
 4903              	.LASF80:
 4904 0063 5243435F 		.ascii	"RCC_MCO1Source\000"
 4904      4D434F31 
 4904      536F7572 
 4904      636500
 4905              	.LASF115:
 4906 0072 5243435F 		.ascii	"RCC_APB1PeriphResetCmd\000"
 4906      41504231 
 4906      50657269 
 4906      70685265 
 4906      73657443 
 4907              	.LASF49:
 4908 0089 44495341 		.ascii	"DISABLE\000"
 4908      424C4500 
 4909              	.LASF129:
 4910 0091 5243435F 		.ascii	"RCC_ClearITPendingBit\000"
 4910      436C6561 
 4910      72495450 
 4910      656E6469 
 4910      6E674269 
 4911              	.LASF11:
 4912 00a7 6C6F6E67 		.ascii	"long long unsigned int\000"
 4912      206C6F6E 
 4912      6720756E 
 4912      7369676E 
 4912      65642069 
 4913              	.LASF137:
 4914 00be 49544D5F 		.ascii	"ITM_RxBuffer\000"
 4914      52784275 
 4914      66666572 
 4914      00
 4915              	.LASF106:
 4916 00cb 5243435F 		.ascii	"RCC_AHB1Periph\000"
 4916      41484231 
 4916      50657269 
 4916      706800
 4917              	.LASF34:
 4918 00da 41484231 		.ascii	"AHB1LPENR\000"
 4918      4C50454E 
 4918      5200
 4919              	.LASF93:
 4920 00e4 5243435F 		.ascii	"RCC_Clocks\000"
 4920      436C6F63 
 4920      6B7300
 4921              	.LASF120:
 4922 00ef 5243435F 		.ascii	"RCC_APB2PeriphClockLPModeCmd\000"
 4922      41504232 
 4922      50657269 
 4922      7068436C 
 4922      6F636B4C 
 4923              	.LASF126:
 4924 010c 5243435F 		.ascii	"RCC_ClearFlag\000"
 4924      436C6561 
 4924      72466C61 
 4924      6700
ARM GAS  /tmp/ccyJVbjO.s 			page 89


 4925              	.LASF0:
 4926 011a 7369676E 		.ascii	"signed char\000"
 4926      65642063 
 4926      68617200 
 4927              	.LASF20:
 4928 0126 41484231 		.ascii	"AHB1RSTR\000"
 4928      52535452 
 4928      00
 4929              	.LASF127:
 4930 012f 5243435F 		.ascii	"RCC_WaitForHSEStartUp\000"
 4930      57616974 
 4930      466F7248 
 4930      53455374 
 4930      61727455 
 4931              	.LASF69:
 4932 0145 746D7072 		.ascii	"tmpreg\000"
 4932      656700
 4933              	.LASF58:
 4934 014c 50434C4B 		.ascii	"PCLK2_Frequency\000"
 4934      325F4672 
 4934      65717565 
 4934      6E637900 
 4935              	.LASF107:
 4936 015c 5243435F 		.ascii	"RCC_AHB2PeriphClockCmd\000"
 4936      41484232 
 4936      50657269 
 4936      7068436C 
 4936      6F636B43 
 4937              	.LASF50:
 4938 0173 454E4142 		.ascii	"ENABLE\000"
 4938      4C4500
 4939              	.LASF25:
 4940 017a 41504232 		.ascii	"APB2RSTR\000"
 4940      52535452 
 4940      00
 4941              	.LASF89:
 4942 0183 5243435F 		.ascii	"RCC_PCLK1Config\000"
 4942      50434C4B 
 4942      31436F6E 
 4942      66696700 
 4943              	.LASF124:
 4944 0193 5243435F 		.ascii	"RCC_IT\000"
 4944      495400
 4945              	.LASF113:
 4946 019a 5243435F 		.ascii	"RCC_AHB1PeriphResetCmd\000"
 4946      41484231 
 4946      50657269 
 4946      70685265 
 4946      73657443 
 4947              	.LASF87:
 4948 01b1 5243435F 		.ascii	"RCC_HCLKConfig\000"
 4948      48434C4B 
 4948      436F6E66 
 4948      696700
 4949              	.LASF10:
 4950 01c0 6C6F6E67 		.ascii	"long long int\000"
 4950      206C6F6E 
ARM GAS  /tmp/ccyJVbjO.s 			page 90


 4950      6720696E 
 4950      7400
 4951              	.LASF85:
 4952 01ce 5243435F 		.ascii	"RCC_SYSCLKConfig\000"
 4952      53595343 
 4952      4C4B436F 
 4952      6E666967 
 4952      00
 4953              	.LASF14:
 4954 01df 75696E74 		.ascii	"uint16_t\000"
 4954      31365F74 
 4954      00
 4955              	.LASF131:
 4956 01e8 474E5520 		.ascii	"GNU C 4.8.4 20141219 (release) -mcpu=cortex-m4 -mfl"
 4956      4320342E 
 4956      382E3420 
 4956      32303134 
 4956      31323139 
 4957 021b 6F61742D 		.ascii	"oat-abi=hard -mfpu=fpv4-sp-d16 -mno-thumb-interwork"
 4957      6162693D 
 4957      68617264 
 4957      202D6D66 
 4957      70753D66 
 4958 024e 202D6D74 		.ascii	" -mthumb -ggdb -O2 -std=gnu99 -fomit-frame-pointer "
 4958      68756D62 
 4958      202D6767 
 4958      6462202D 
 4958      4F32202D 
 4959 0281 2D66616C 		.ascii	"-falign-functions=16 -ffunction-sections -fdata-sec"
 4959      69676E2D 
 4959      66756E63 
 4959      74696F6E 
 4959      733D3136 
 4960 02b4 74696F6E 		.ascii	"tions -fno-common -fsingle-precision-constant\000"
 4960      73202D66 
 4960      6E6F2D63 
 4960      6F6D6D6F 
 4960      6E202D66 
 4961              	.LASF135:
 4962 02e2 5243435F 		.ascii	"RCC_FLAG\000"
 4962      464C4147 
 4962      00
 4963              	.LASF68:
 4964 02eb 48534943 		.ascii	"HSICalibrationValue\000"
 4964      616C6962 
 4964      72617469 
 4964      6F6E5661 
 4964      6C756500 
 4965              	.LASF71:
 4966 02ff 4E657753 		.ascii	"NewState\000"
 4966      74617465 
 4966      00
 4967              	.LASF18:
 4968 0308 504C4C43 		.ascii	"PLLCFGR\000"
 4968      46475200 
 4969              	.LASF102:
 4970 0310 5243435F 		.ascii	"RCC_BackupResetCmd\000"
ARM GAS  /tmp/ccyJVbjO.s 			page 91


 4970      4261636B 
 4970      75705265 
 4970      73657443 
 4970      6D6400
 4971              	.LASF8:
 4972 0323 5F5F7569 		.ascii	"__uint32_t\000"
 4972      6E743332 
 4972      5F7400
 4973              	.LASF54:
 4974 032e 4572726F 		.ascii	"ErrorStatus\000"
 4974      72537461 
 4974      74757300 
 4975              	.LASF136:
 4976 033a 5243435F 		.ascii	"RCC_GetSYSCLKSource\000"
 4976      47657453 
 4976      5953434C 
 4976      4B536F75 
 4976      72636500 
 4977              	.LASF133:
 4978 034e 2F686F6D 		.ascii	"/home/taylor/Programming/VESC/firmware\000"
 4978      652F7461 
 4978      796C6F72 
 4978      2F50726F 
 4978      6772616D 
 4979              	.LASF61:
 4980 0375 62697473 		.ascii	"bitstatus\000"
 4980      74617475 
 4980      7300
 4981              	.LASF56:
 4982 037f 48434C4B 		.ascii	"HCLK_Frequency\000"
 4982      5F467265 
 4982      7175656E 
 4982      637900
 4983              	.LASF48:
 4984 038e 49545374 		.ascii	"ITStatus\000"
 4984      61747573 
 4984      00
 4985              	.LASF110:
 4986 0397 5243435F 		.ascii	"RCC_APB1Periph\000"
 4986      41504231 
 4986      50657269 
 4986      706800
 4987              	.LASF95:
 4988 03a6 706C6C76 		.ascii	"pllvco\000"
 4988      636F00
 4989              	.LASF12:
 4990 03ad 756E7369 		.ascii	"unsigned int\000"
 4990      676E6564 
 4990      20696E74 
 4990      00
 4991              	.LASF99:
 4992 03ba 5243435F 		.ascii	"RCC_RTCCLKConfig\000"
 4992      52544343 
 4992      4C4B436F 
 4992      6E666967 
 4992      00
 4993              	.LASF79:
ARM GAS  /tmp/ccyJVbjO.s 			page 92


 4994 03cb 5243435F 		.ascii	"RCC_MCO1Config\000"
 4994      4D434F31 
 4994      436F6E66 
 4994      696700
 4995              	.LASF9:
 4996 03da 6C6F6E67 		.ascii	"long unsigned int\000"
 4996      20756E73 
 4996      69676E65 
 4996      6420696E 
 4996      7400
 4997              	.LASF88:
 4998 03ec 5243435F 		.ascii	"RCC_SYSCLK\000"
 4998      53595343 
 4998      4C4B00
 4999              	.LASF76:
 5000 03f7 5243435F 		.ascii	"RCC_PLLI2SCmd\000"
 5000      504C4C49 
 5000      3253436D 
 5000      6400
 5001              	.LASF45:
 5002 0405 5243435F 		.ascii	"RCC_TypeDef\000"
 5002      54797065 
 5002      44656600 
 5003              	.LASF94:
 5004 0411 70726573 		.ascii	"presc\000"
 5004      6300
 5005              	.LASF100:
 5006 0417 5243435F 		.ascii	"RCC_RTCCLKSource\000"
 5006      52544343 
 5006      4C4B536F 
 5006      75726365 
 5006      00
 5007              	.LASF5:
 5008 0428 73686F72 		.ascii	"short unsigned int\000"
 5008      7420756E 
 5008      7369676E 
 5008      65642069 
 5008      6E7400
 5009              	.LASF44:
 5010 043b 504C4C49 		.ascii	"PLLI2SCFGR\000"
 5010      32534346 
 5010      475200
 5011              	.LASF118:
 5012 0446 5243435F 		.ascii	"RCC_AHB2PeriphClockLPModeCmd\000"
 5012      41484232 
 5012      50657269 
 5012      7068436C 
 5012      6F636B4C 
 5013              	.LASF72:
 5014 0463 5243435F 		.ascii	"RCC_LSEConfig\000"
 5014      4C534543 
 5014      6F6E6669 
 5014      6700
 5015              	.LASF108:
 5016 0471 5243435F 		.ascii	"RCC_AHB2Periph\000"
 5016      41484232 
 5016      50657269 
ARM GAS  /tmp/ccyJVbjO.s 			page 93


 5016      706800
 5017              	.LASF39:
 5018 0480 41504232 		.ascii	"APB2LPENR\000"
 5018      4C50454E 
 5018      5200
 5019              	.LASF84:
 5020 048a 5243435F 		.ascii	"RCC_MCO2Div\000"
 5020      4D434F32 
 5020      44697600 
 5021              	.LASF101:
 5022 0496 5243435F 		.ascii	"RCC_RTCCLKCmd\000"
 5022      52544343 
 5022      4C4B436D 
 5022      6400
 5023              	.LASF17:
 5024 04a4 73697A65 		.ascii	"sizetype\000"
 5024      74797065 
 5024      00
 5025              	.LASF52:
 5026 04ad 4552524F 		.ascii	"ERROR\000"
 5026      5200
 5027              	.LASF78:
 5028 04b3 5243435F 		.ascii	"RCC_ClockSecuritySystemCmd\000"
 5028      436C6F63 
 5028      6B536563 
 5028      75726974 
 5028      79537973 
 5029              	.LASF29:
 5030 04ce 41484233 		.ascii	"AHB3ENR\000"
 5030      454E5200 
 5031              	.LASF121:
 5032 04d6 5243435F 		.ascii	"RCC_LSEModeConfig\000"
 5032      4C53454D 
 5032      6F646543 
 5032      6F6E6669 
 5032      6700
 5033              	.LASF35:
 5034 04e8 41484232 		.ascii	"AHB2LPENR\000"
 5034      4C50454E 
 5034      5200
 5035              	.LASF51:
 5036 04f2 46756E63 		.ascii	"FunctionalState\000"
 5036      74696F6E 
 5036      616C5374 
 5036      61746500 
 5037              	.LASF81:
 5038 0502 5243435F 		.ascii	"RCC_MCO1Div\000"
 5038      4D434F31 
 5038      44697600 
 5039              	.LASF116:
 5040 050e 5243435F 		.ascii	"RCC_APB2PeriphResetCmd\000"
 5040      41504232 
 5040      50657269 
 5040      70685265 
 5040      73657443 
 5041              	.LASF83:
 5042 0525 5243435F 		.ascii	"RCC_MCO2Source\000"
ARM GAS  /tmp/ccyJVbjO.s 			page 94


 5042      4D434F32 
 5042      536F7572 
 5042      636500
 5043              	.LASF23:
 5044 0534 52455345 		.ascii	"RESERVED0\000"
 5044      52564544 
 5044      3000
 5045              	.LASF26:
 5046 053e 52455345 		.ascii	"RESERVED1\000"
 5046      52564544 
 5046      3100
 5047              	.LASF30:
 5048 0548 52455345 		.ascii	"RESERVED2\000"
 5048      52564544 
 5048      3200
 5049              	.LASF33:
 5050 0552 52455345 		.ascii	"RESERVED3\000"
 5050      52564544 
 5050      3300
 5051              	.LASF37:
 5052 055c 52455345 		.ascii	"RESERVED4\000"
 5052      52564544 
 5052      3400
 5053              	.LASF40:
 5054 0566 52455345 		.ascii	"RESERVED5\000"
 5054      52564544 
 5054      3500
 5055              	.LASF42:
 5056 0570 52455345 		.ascii	"RESERVED6\000"
 5056      52564544 
 5056      3600
 5057              	.LASF46:
 5058 057a 52455345 		.ascii	"RESET\000"
 5058      5400
 5059              	.LASF134:
 5060 0580 5243435F 		.ascii	"RCC_GetFlagStatus\000"
 5060      47657446 
 5060      6C616753 
 5060      74617475 
 5060      7300
 5061              	.LASF65:
 5062 0592 5243435F 		.ascii	"RCC_HSEConfig\000"
 5062      48534543 
 5062      6F6E6669 
 5062      6700
 5063              	.LASF15:
 5064 05a0 696E7433 		.ascii	"int32_t\000"
 5064      325F7400 
 5065              	.LASF1:
 5066 05a8 756E7369 		.ascii	"unsigned char\000"
 5066      676E6564 
 5066      20636861 
 5066      7200
 5067              	.LASF2:
 5068 05b6 73686F72 		.ascii	"short int\000"
 5068      7420696E 
 5068      7400
ARM GAS  /tmp/ccyJVbjO.s 			page 95


 5069              	.LASF104:
 5070 05c0 5243435F 		.ascii	"RCC_TIMCLKPrescaler\000"
 5070      54494D43 
 5070      4C4B5072 
 5070      65736361 
 5070      6C657200 
 5071              	.LASF75:
 5072 05d4 5243435F 		.ascii	"RCC_PLLCmd\000"
 5072      504C4C43 
 5072      6D6400
 5073              	.LASF105:
 5074 05df 5243435F 		.ascii	"RCC_AHB1PeriphClockCmd\000"
 5074      41484231 
 5074      50657269 
 5074      7068436C 
 5074      6F636B43 
 5075              	.LASF32:
 5076 05f6 41504232 		.ascii	"APB2ENR\000"
 5076      454E5200 
 5077              	.LASF22:
 5078 05fe 41484233 		.ascii	"AHB3RSTR\000"
 5078      52535452 
 5078      00
 5079              	.LASF122:
 5080 0607 5243435F 		.ascii	"RCC_Mode\000"
 5080      4D6F6465 
 5080      00
 5081              	.LASF114:
 5082 0610 5243435F 		.ascii	"RCC_AHB2PeriphResetCmd\000"
 5082      41484232 
 5082      50657269 
 5082      70685265 
 5082      73657443 
 5083              	.LASF119:
 5084 0627 5243435F 		.ascii	"RCC_APB1PeriphClockLPModeCmd\000"
 5084      41504231 
 5084      50657269 
 5084      7068436C 
 5084      6F636B4C 
 5085              	.LASF91:
 5086 0644 5243435F 		.ascii	"RCC_PCLK2Config\000"
 5086      50434C4B 
 5086      32436F6E 
 5086      66696700 
 5087              	.LASF86:
 5088 0654 5243435F 		.ascii	"RCC_SYSCLKSource\000"
 5088      53595343 
 5088      4C4B536F 
 5088      75726365 
 5088      00
 5089              	.LASF67:
 5090 0665 5243435F 		.ascii	"RCC_HSE\000"
 5090      48534500 
 5091              	.LASF16:
 5092 066d 75696E74 		.ascii	"uint32_t\000"
 5092      33325F74 
 5092      00
ARM GAS  /tmp/ccyJVbjO.s 			page 96


 5093              	.LASF57:
 5094 0676 50434C4B 		.ascii	"PCLK1_Frequency\000"
 5094      315F4672 
 5094      65717565 
 5094      6E637900 
 5095              	.LASF130:
 5096 0686 41504241 		.ascii	"APBAHBPrescTable\000"
 5096      48425072 
 5096      65736354 
 5096      61626C65 
 5096      00
 5097              	.LASF66:
 5098 0697 5243435F 		.ascii	"RCC_AdjustHSICalibrationValue\000"
 5098      41646A75 
 5098      73744853 
 5098      4943616C 
 5098      69627261 
 5099              	.LASF64:
 5100 06b5 68736573 		.ascii	"hsestatus\000"
 5100      74617475 
 5100      7300
 5101              	.LASF92:
 5102 06bf 5243435F 		.ascii	"RCC_GetClocksFreq\000"
 5102      47657443 
 5102      6C6F636B 
 5102      73467265 
 5102      7100
 5103              	.LASF111:
 5104 06d1 5243435F 		.ascii	"RCC_APB2PeriphClockCmd\000"
 5104      41504232 
 5104      50657269 
 5104      7068436C 
 5104      6F636B43 
 5105              	.LASF4:
 5106 06e8 5F5F7569 		.ascii	"__uint16_t\000"
 5106      6E743136 
 5106      5F7400
 5107              	.LASF21:
 5108 06f3 41484232 		.ascii	"AHB2RSTR\000"
 5108      52535452 
 5108      00
 5109              	.LASF125:
 5110 06fc 5243435F 		.ascii	"RCC_DeInit\000"
 5110      4465496E 
 5110      697400
 5111              	.LASF6:
 5112 0707 5F5F696E 		.ascii	"__int32_t\000"
 5112      7433325F 
 5112      7400
 5113              	.LASF128:
 5114 0711 5243435F 		.ascii	"RCC_GetITStatus\000"
 5114      47657449 
 5114      54537461 
 5114      74757300 
 5115              	.LASF31:
 5116 0721 41504231 		.ascii	"APB1ENR\000"
 5116      454E5200 
ARM GAS  /tmp/ccyJVbjO.s 			page 97


 5117              	.LASF28:
 5118 0729 41484232 		.ascii	"AHB2ENR\000"
 5118      454E5200 
 5119              	.LASF70:
 5120 0731 5243435F 		.ascii	"RCC_HSICmd\000"
 5120      48534943 
 5120      6D6400
 5121              	.LASF62:
 5122 073c 73746172 		.ascii	"startupcounter\000"
 5122      74757063 
 5122      6F756E74 
 5122      657200
 5123              	.LASF112:
 5124 074b 5243435F 		.ascii	"RCC_APB2Periph\000"
 5124      41504232 
 5124      50657269 
 5124      706800
 5125              	.LASF103:
 5126 075a 5243435F 		.ascii	"RCC_TIMCLKPresConfig\000"
 5126      54494D43 
 5126      4C4B5072 
 5126      6573436F 
 5126      6E666967 
 5127              	.LASF82:
 5128 076f 5243435F 		.ascii	"RCC_MCO2Config\000"
 5128      4D434F32 
 5128      436F6E66 
 5128      696700
 5129              	.LASF43:
 5130 077e 53534347 		.ascii	"SSCGR\000"
 5130      5200
 5131              	.LASF36:
 5132 0784 41484233 		.ascii	"AHB3LPENR\000"
 5132      4C50454E 
 5132      5200
 5133              	.LASF24:
 5134 078e 41504231 		.ascii	"APB1RSTR\000"
 5134      52535452 
 5134      00
 5135              	.LASF74:
 5136 0797 5243435F 		.ascii	"RCC_LSICmd\000"
 5136      4C534943 
 5136      6D6400
 5137              	.LASF63:
 5138 07a2 73746174 		.ascii	"status\000"
 5138      757300
 5139              	.LASF41:
 5140 07a9 42444352 		.ascii	"BDCR\000"
 5140      00
 5141              	.LASF109:
 5142 07ae 5243435F 		.ascii	"RCC_APB1PeriphClockCmd\000"
 5142      41504231 
 5142      50657269 
 5142      7068436C 
 5142      6F636B43 
 5143              	.LASF123:
 5144 07c5 5243435F 		.ascii	"RCC_ITConfig\000"
ARM GAS  /tmp/ccyJVbjO.s 			page 98


 5144      4954436F 
 5144      6E666967 
 5144      00
 5145              	.LASF132:
 5146 07d2 43686962 		.ascii	"ChibiOS_3.0.2/ext/stdperiph_stm32f4/src/stm32f4xx_r"
 5146      694F535F 
 5146      332E302E 
 5146      322F6578 
 5146      742F7374 
 5147 0805 63632E63 		.ascii	"cc.c\000"
 5147      00
 5148              	.LASF13:
 5149 080a 75696E74 		.ascii	"uint8_t\000"
 5149      385F7400 
 5150              	.LASF53:
 5151 0812 53554343 		.ascii	"SUCCESS\000"
 5151      45535300 
 5152              	.LASF59:
 5153 081a 5243435F 		.ascii	"RCC_ClocksTypeDef\000"
 5153      436C6F63 
 5153      6B735479 
 5153      70654465 
 5153      6600
 5154              	.LASF27:
 5155 082c 41484231 		.ascii	"AHB1ENR\000"
 5155      454E5200 
 5156              	.LASF19:
 5157 0834 43464752 		.ascii	"CFGR\000"
 5157      00
 5158              	.LASF7:
 5159 0839 6C6F6E67 		.ascii	"long int\000"
 5159      20696E74 
 5159      00
 5160              	.LASF97:
 5161 0842 706C6C73 		.ascii	"pllsource\000"
 5161      6F757263 
 5161      6500
 5162              	.LASF117:
 5163 084c 5243435F 		.ascii	"RCC_AHB1PeriphClockLPModeCmd\000"
 5163      41484231 
 5163      50657269 
 5163      7068436C 
 5163      6F636B4C 
 5164              		.ident	"GCC: (4.8.4-1+11-1) 4.8.4 20141219 (release)"
ARM GAS  /tmp/ccyJVbjO.s 			page 99


DEFINED SYMBOLS
                            *ABS*:0000000000000000 stm32f4xx_rcc.c
     /tmp/ccyJVbjO.s:21     .text.RCC_DeInit:0000000000000000 $t
     /tmp/ccyJVbjO.s:27     .text.RCC_DeInit:0000000000000000 RCC_DeInit
     /tmp/ccyJVbjO.s:65     .text.RCC_DeInit:000000000000002c $d
     /tmp/ccyJVbjO.s:71     .text.RCC_HSEConfig:0000000000000000 $t
     /tmp/ccyJVbjO.s:77     .text.RCC_HSEConfig:0000000000000000 RCC_HSEConfig
     /tmp/ccyJVbjO.s:95     .text.RCC_HSEConfig:000000000000000c $d
     /tmp/ccyJVbjO.s:100    .text.RCC_WaitForHSEStartUp:0000000000000000 $t
     /tmp/ccyJVbjO.s:106    .text.RCC_WaitForHSEStartUp:0000000000000000 RCC_WaitForHSEStartUp
     /tmp/ccyJVbjO.s:175    .text.RCC_WaitForHSEStartUp:0000000000000034 $d
     /tmp/ccyJVbjO.s:180    .text.RCC_AdjustHSICalibrationValue:0000000000000000 $t
     /tmp/ccyJVbjO.s:186    .text.RCC_AdjustHSICalibrationValue:0000000000000000 RCC_AdjustHSICalibrationValue
     /tmp/ccyJVbjO.s:210    .text.RCC_AdjustHSICalibrationValue:0000000000000010 $d
     /tmp/ccyJVbjO.s:215    .text.RCC_HSICmd:0000000000000000 $t
     /tmp/ccyJVbjO.s:221    .text.RCC_HSICmd:0000000000000000 RCC_HSICmd
     /tmp/ccyJVbjO.s:236    .text.RCC_HSICmd:0000000000000008 $d
     /tmp/ccyJVbjO.s:241    .text.RCC_LSEConfig:0000000000000000 $t
     /tmp/ccyJVbjO.s:247    .text.RCC_LSEConfig:0000000000000000 RCC_LSEConfig
     /tmp/ccyJVbjO.s:282    .text.RCC_LSEConfig:000000000000001c $d
     /tmp/ccyJVbjO.s:287    .text.RCC_LSICmd:0000000000000000 $t
     /tmp/ccyJVbjO.s:293    .text.RCC_LSICmd:0000000000000000 RCC_LSICmd
     /tmp/ccyJVbjO.s:308    .text.RCC_LSICmd:0000000000000008 $d
     /tmp/ccyJVbjO.s:313    .text.RCC_PLLCmd:0000000000000000 $t
     /tmp/ccyJVbjO.s:319    .text.RCC_PLLCmd:0000000000000000 RCC_PLLCmd
     /tmp/ccyJVbjO.s:334    .text.RCC_PLLCmd:0000000000000008 $d
     /tmp/ccyJVbjO.s:339    .text.RCC_PLLI2SCmd:0000000000000000 $t
     /tmp/ccyJVbjO.s:345    .text.RCC_PLLI2SCmd:0000000000000000 RCC_PLLI2SCmd
     /tmp/ccyJVbjO.s:360    .text.RCC_PLLI2SCmd:0000000000000008 $d
     /tmp/ccyJVbjO.s:365    .text.RCC_PLLSAICmd:0000000000000000 $t
     /tmp/ccyJVbjO.s:371    .text.RCC_PLLSAICmd:0000000000000000 RCC_PLLSAICmd
     /tmp/ccyJVbjO.s:386    .text.RCC_PLLSAICmd:0000000000000008 $d
     /tmp/ccyJVbjO.s:391    .text.RCC_ClockSecuritySystemCmd:0000000000000000 $t
     /tmp/ccyJVbjO.s:397    .text.RCC_ClockSecuritySystemCmd:0000000000000000 RCC_ClockSecuritySystemCmd
     /tmp/ccyJVbjO.s:412    .text.RCC_ClockSecuritySystemCmd:0000000000000008 $d
     /tmp/ccyJVbjO.s:417    .text.RCC_MCO1Config:0000000000000000 $t
     /tmp/ccyJVbjO.s:423    .text.RCC_MCO1Config:0000000000000000 RCC_MCO1Config
     /tmp/ccyJVbjO.s:449    .text.RCC_MCO1Config:0000000000000010 $d
     /tmp/ccyJVbjO.s:454    .text.RCC_MCO2Config:0000000000000000 $t
     /tmp/ccyJVbjO.s:460    .text.RCC_MCO2Config:0000000000000000 RCC_MCO2Config
     /tmp/ccyJVbjO.s:486    .text.RCC_MCO2Config:0000000000000010 $d
     /tmp/ccyJVbjO.s:491    .text.RCC_SYSCLKConfig:0000000000000000 $t
     /tmp/ccyJVbjO.s:497    .text.RCC_SYSCLKConfig:0000000000000000 RCC_SYSCLKConfig
     /tmp/ccyJVbjO.s:521    .text.RCC_SYSCLKConfig:0000000000000010 $d
     /tmp/ccyJVbjO.s:526    .text.RCC_GetSYSCLKSource:0000000000000000 $t
     /tmp/ccyJVbjO.s:532    .text.RCC_GetSYSCLKSource:0000000000000000 RCC_GetSYSCLKSource
     /tmp/ccyJVbjO.s:548    .text.RCC_GetSYSCLKSource:000000000000000c $d
     /tmp/ccyJVbjO.s:553    .text.RCC_HCLKConfig:0000000000000000 $t
     /tmp/ccyJVbjO.s:559    .text.RCC_HCLKConfig:0000000000000000 RCC_HCLKConfig
     /tmp/ccyJVbjO.s:583    .text.RCC_HCLKConfig:0000000000000010 $d
     /tmp/ccyJVbjO.s:588    .text.RCC_PCLK1Config:0000000000000000 $t
     /tmp/ccyJVbjO.s:594    .text.RCC_PCLK1Config:0000000000000000 RCC_PCLK1Config
     /tmp/ccyJVbjO.s:618    .text.RCC_PCLK1Config:0000000000000010 $d
     /tmp/ccyJVbjO.s:623    .text.RCC_PCLK2Config:0000000000000000 $t
     /tmp/ccyJVbjO.s:629    .text.RCC_PCLK2Config:0000000000000000 RCC_PCLK2Config
     /tmp/ccyJVbjO.s:653    .text.RCC_PCLK2Config:0000000000000010 $d
     /tmp/ccyJVbjO.s:658    .text.RCC_GetClocksFreq:0000000000000000 $t
ARM GAS  /tmp/ccyJVbjO.s 			page 100


     /tmp/ccyJVbjO.s:664    .text.RCC_GetClocksFreq:0000000000000000 RCC_GetClocksFreq
     /tmp/ccyJVbjO.s:789    .text.RCC_GetClocksFreq:0000000000000080 $d
     /tmp/ccyJVbjO.s:797    .text.RCC_RTCCLKConfig:0000000000000000 $t
     /tmp/ccyJVbjO.s:803    .text.RCC_RTCCLKConfig:0000000000000000 RCC_RTCCLKConfig
     /tmp/ccyJVbjO.s:843    .text.RCC_RTCCLKConfig:000000000000002c $d
     /tmp/ccyJVbjO.s:848    .text.RCC_RTCCLKCmd:0000000000000000 $t
     /tmp/ccyJVbjO.s:854    .text.RCC_RTCCLKCmd:0000000000000000 RCC_RTCCLKCmd
     /tmp/ccyJVbjO.s:869    .text.RCC_RTCCLKCmd:0000000000000008 $d
     /tmp/ccyJVbjO.s:874    .text.RCC_BackupResetCmd:0000000000000000 $t
     /tmp/ccyJVbjO.s:880    .text.RCC_BackupResetCmd:0000000000000000 RCC_BackupResetCmd
     /tmp/ccyJVbjO.s:895    .text.RCC_BackupResetCmd:0000000000000008 $d
     /tmp/ccyJVbjO.s:900    .text.RCC_TIMCLKPresConfig:0000000000000000 $t
     /tmp/ccyJVbjO.s:906    .text.RCC_TIMCLKPresConfig:0000000000000000 RCC_TIMCLKPresConfig
     /tmp/ccyJVbjO.s:921    .text.RCC_TIMCLKPresConfig:0000000000000008 $d
     /tmp/ccyJVbjO.s:926    .text.RCC_AHB1PeriphClockCmd:0000000000000000 $t
     /tmp/ccyJVbjO.s:932    .text.RCC_AHB1PeriphClockCmd:0000000000000000 RCC_AHB1PeriphClockCmd
     /tmp/ccyJVbjO.s:960    .text.RCC_AHB1PeriphClockCmd:0000000000000014 $d
     /tmp/ccyJVbjO.s:965    .text.RCC_AHB2PeriphClockCmd:0000000000000000 $t
     /tmp/ccyJVbjO.s:971    .text.RCC_AHB2PeriphClockCmd:0000000000000000 RCC_AHB2PeriphClockCmd
     /tmp/ccyJVbjO.s:999    .text.RCC_AHB2PeriphClockCmd:0000000000000014 $d
     /tmp/ccyJVbjO.s:1004   .text.RCC_APB1PeriphClockCmd:0000000000000000 $t
     /tmp/ccyJVbjO.s:1010   .text.RCC_APB1PeriphClockCmd:0000000000000000 RCC_APB1PeriphClockCmd
     /tmp/ccyJVbjO.s:1038   .text.RCC_APB1PeriphClockCmd:0000000000000014 $d
     /tmp/ccyJVbjO.s:1043   .text.RCC_APB2PeriphClockCmd:0000000000000000 $t
     /tmp/ccyJVbjO.s:1049   .text.RCC_APB2PeriphClockCmd:0000000000000000 RCC_APB2PeriphClockCmd
     /tmp/ccyJVbjO.s:1077   .text.RCC_APB2PeriphClockCmd:0000000000000014 $d
     /tmp/ccyJVbjO.s:1082   .text.RCC_AHB1PeriphResetCmd:0000000000000000 $t
     /tmp/ccyJVbjO.s:1088   .text.RCC_AHB1PeriphResetCmd:0000000000000000 RCC_AHB1PeriphResetCmd
     /tmp/ccyJVbjO.s:1116   .text.RCC_AHB1PeriphResetCmd:0000000000000014 $d
     /tmp/ccyJVbjO.s:1121   .text.RCC_AHB2PeriphResetCmd:0000000000000000 $t
     /tmp/ccyJVbjO.s:1127   .text.RCC_AHB2PeriphResetCmd:0000000000000000 RCC_AHB2PeriphResetCmd
     /tmp/ccyJVbjO.s:1155   .text.RCC_AHB2PeriphResetCmd:0000000000000014 $d
     /tmp/ccyJVbjO.s:1160   .text.RCC_APB1PeriphResetCmd:0000000000000000 $t
     /tmp/ccyJVbjO.s:1166   .text.RCC_APB1PeriphResetCmd:0000000000000000 RCC_APB1PeriphResetCmd
     /tmp/ccyJVbjO.s:1194   .text.RCC_APB1PeriphResetCmd:0000000000000014 $d
     /tmp/ccyJVbjO.s:1199   .text.RCC_APB2PeriphResetCmd:0000000000000000 $t
     /tmp/ccyJVbjO.s:1205   .text.RCC_APB2PeriphResetCmd:0000000000000000 RCC_APB2PeriphResetCmd
     /tmp/ccyJVbjO.s:1233   .text.RCC_APB2PeriphResetCmd:0000000000000014 $d
     /tmp/ccyJVbjO.s:1238   .text.RCC_AHB1PeriphClockLPModeCmd:0000000000000000 $t
     /tmp/ccyJVbjO.s:1244   .text.RCC_AHB1PeriphClockLPModeCmd:0000000000000000 RCC_AHB1PeriphClockLPModeCmd
     /tmp/ccyJVbjO.s:1272   .text.RCC_AHB1PeriphClockLPModeCmd:0000000000000014 $d
     /tmp/ccyJVbjO.s:1277   .text.RCC_AHB2PeriphClockLPModeCmd:0000000000000000 $t
     /tmp/ccyJVbjO.s:1283   .text.RCC_AHB2PeriphClockLPModeCmd:0000000000000000 RCC_AHB2PeriphClockLPModeCmd
     /tmp/ccyJVbjO.s:1311   .text.RCC_AHB2PeriphClockLPModeCmd:0000000000000014 $d
     /tmp/ccyJVbjO.s:1316   .text.RCC_APB1PeriphClockLPModeCmd:0000000000000000 $t
     /tmp/ccyJVbjO.s:1322   .text.RCC_APB1PeriphClockLPModeCmd:0000000000000000 RCC_APB1PeriphClockLPModeCmd
     /tmp/ccyJVbjO.s:1350   .text.RCC_APB1PeriphClockLPModeCmd:0000000000000014 $d
     /tmp/ccyJVbjO.s:1355   .text.RCC_APB2PeriphClockLPModeCmd:0000000000000000 $t
     /tmp/ccyJVbjO.s:1361   .text.RCC_APB2PeriphClockLPModeCmd:0000000000000000 RCC_APB2PeriphClockLPModeCmd
     /tmp/ccyJVbjO.s:1389   .text.RCC_APB2PeriphClockLPModeCmd:0000000000000014 $d
     /tmp/ccyJVbjO.s:1394   .text.RCC_LSEModeConfig:0000000000000000 $t
     /tmp/ccyJVbjO.s:1400   .text.RCC_LSEModeConfig:0000000000000000 RCC_LSEModeConfig
     /tmp/ccyJVbjO.s:1423   .text.RCC_LSEModeConfig:0000000000000014 $d
     /tmp/ccyJVbjO.s:1428   .text.RCC_ITConfig:0000000000000000 $t
     /tmp/ccyJVbjO.s:1434   .text.RCC_ITConfig:0000000000000000 RCC_ITConfig
     /tmp/ccyJVbjO.s:1462   .text.RCC_ITConfig:0000000000000014 $d
     /tmp/ccyJVbjO.s:1467   .text.RCC_GetFlagStatus:0000000000000000 $t
ARM GAS  /tmp/ccyJVbjO.s 			page 101


     /tmp/ccyJVbjO.s:1473   .text.RCC_GetFlagStatus:0000000000000000 RCC_GetFlagStatus
     /tmp/ccyJVbjO.s:1522   .text.RCC_GetFlagStatus:0000000000000030 $d
     /tmp/ccyJVbjO.s:1527   .text.RCC_ClearFlag:0000000000000000 $t
     /tmp/ccyJVbjO.s:1533   .text.RCC_ClearFlag:0000000000000000 RCC_ClearFlag
     /tmp/ccyJVbjO.s:1549   .text.RCC_ClearFlag:000000000000000c $d
     /tmp/ccyJVbjO.s:1554   .text.RCC_GetITStatus:0000000000000000 $t
     /tmp/ccyJVbjO.s:1560   .text.RCC_GetITStatus:0000000000000000 RCC_GetITStatus
     /tmp/ccyJVbjO.s:1582   .text.RCC_GetITStatus:0000000000000010 $d
     /tmp/ccyJVbjO.s:1587   .text.RCC_ClearITPendingBit:0000000000000000 $t
     /tmp/ccyJVbjO.s:1593   .text.RCC_ClearITPendingBit:0000000000000000 RCC_ClearITPendingBit
     /tmp/ccyJVbjO.s:1608   .text.RCC_ClearITPendingBit:0000000000000008 $d
     /tmp/ccyJVbjO.s:1613   .data.APBAHBPrescTable:0000000000000000 $d
     /tmp/ccyJVbjO.s:1617   .data.APBAHBPrescTable:0000000000000000 APBAHBPrescTable
                     .debug_frame:0000000000000010 $d
     /tmp/ccyJVbjO.s:70     .text.RCC_DeInit:0000000000000034 $t
     /tmp/ccyJVbjO.s:179    .text.RCC_WaitForHSEStartUp:0000000000000038 $t
     /tmp/ccyJVbjO.s:214    .text.RCC_AdjustHSICalibrationValue:0000000000000014 $t
     /tmp/ccyJVbjO.s:240    .text.RCC_HSICmd:000000000000000c $t
     /tmp/ccyJVbjO.s:312    .text.RCC_LSICmd:000000000000000c $t
     /tmp/ccyJVbjO.s:338    .text.RCC_PLLCmd:000000000000000c $t
     /tmp/ccyJVbjO.s:364    .text.RCC_PLLI2SCmd:000000000000000c $t
     /tmp/ccyJVbjO.s:390    .text.RCC_PLLSAICmd:000000000000000c $t
     /tmp/ccyJVbjO.s:416    .text.RCC_ClockSecuritySystemCmd:000000000000000c $t
     /tmp/ccyJVbjO.s:453    .text.RCC_MCO1Config:0000000000000014 $t
     /tmp/ccyJVbjO.s:490    .text.RCC_MCO2Config:0000000000000014 $t
     /tmp/ccyJVbjO.s:525    .text.RCC_SYSCLKConfig:0000000000000014 $t
     /tmp/ccyJVbjO.s:587    .text.RCC_HCLKConfig:0000000000000014 $t
     /tmp/ccyJVbjO.s:622    .text.RCC_PCLK1Config:0000000000000014 $t
     /tmp/ccyJVbjO.s:657    .text.RCC_PCLK2Config:0000000000000014 $t
     /tmp/ccyJVbjO.s:873    .text.RCC_RTCCLKCmd:000000000000000c $t
     /tmp/ccyJVbjO.s:899    .text.RCC_BackupResetCmd:000000000000000c $t
     /tmp/ccyJVbjO.s:925    .text.RCC_TIMCLKPresConfig:000000000000000c $t
     /tmp/ccyJVbjO.s:964    .text.RCC_AHB1PeriphClockCmd:0000000000000018 $t
     /tmp/ccyJVbjO.s:1003   .text.RCC_AHB2PeriphClockCmd:0000000000000018 $t
     /tmp/ccyJVbjO.s:1042   .text.RCC_APB1PeriphClockCmd:0000000000000018 $t
     /tmp/ccyJVbjO.s:1081   .text.RCC_APB2PeriphClockCmd:0000000000000018 $t
     /tmp/ccyJVbjO.s:1120   .text.RCC_AHB1PeriphResetCmd:0000000000000018 $t
     /tmp/ccyJVbjO.s:1159   .text.RCC_AHB2PeriphResetCmd:0000000000000018 $t
     /tmp/ccyJVbjO.s:1198   .text.RCC_APB1PeriphResetCmd:0000000000000018 $t
     /tmp/ccyJVbjO.s:1237   .text.RCC_APB2PeriphResetCmd:0000000000000018 $t
     /tmp/ccyJVbjO.s:1276   .text.RCC_AHB1PeriphClockLPModeCmd:0000000000000018 $t
     /tmp/ccyJVbjO.s:1315   .text.RCC_AHB2PeriphClockLPModeCmd:0000000000000018 $t
     /tmp/ccyJVbjO.s:1354   .text.RCC_APB1PeriphClockLPModeCmd:0000000000000018 $t
     /tmp/ccyJVbjO.s:1393   .text.RCC_APB2PeriphClockLPModeCmd:0000000000000018 $t
     /tmp/ccyJVbjO.s:1427   .text.RCC_LSEModeConfig:0000000000000018 $t
     /tmp/ccyJVbjO.s:1466   .text.RCC_ITConfig:0000000000000018 $t
     /tmp/ccyJVbjO.s:1526   .text.RCC_GetFlagStatus:0000000000000034 $t
     /tmp/ccyJVbjO.s:1586   .text.RCC_GetITStatus:0000000000000014 $t
     /tmp/ccyJVbjO.s:1612   .text.RCC_ClearITPendingBit:000000000000000c $t

NO UNDEFINED SYMBOLS
