ARM GAS  /tmp/ccQvsvFG.s 			page 1


   1              		.syntax unified
   2              		.cpu cortex-m4
   3              		.eabi_attribute 27, 3
   4              		.eabi_attribute 28, 1
   5              		.fpu fpv4-sp-d16
   6              		.eabi_attribute 20, 1
   7              		.eabi_attribute 21, 1
   8              		.eabi_attribute 23, 3
   9              		.eabi_attribute 24, 1
  10              		.eabi_attribute 25, 1
  11              		.eabi_attribute 26, 1
  12              		.eabi_attribute 30, 2
  13              		.eabi_attribute 34, 1
  14              		.eabi_attribute 18, 4
  15              		.thumb
  16              		.file	"stm32f4xx_flash.c"
  17              		.text
  18              	.Ltext0:
  19              		.cfi_sections	.debug_frame
  20              		.section	.text.FLASH_SetLatency,"ax",%progbits
  21              		.align	2
  22              		.p2align 4,,15
  23              		.global	FLASH_SetLatency
  24              		.thumb
  25              		.thumb_func
  26              		.type	FLASH_SetLatency, %function
  27              	FLASH_SetLatency:
  28              	.LFB112:
  29              		.file 1 "ChibiOS_3.0.2/ext/stdperiph_stm32f4/src/stm32f4xx_flash.c"
  30              		.loc 1 296 0
  31              		.cfi_startproc
  32              		@ args = 0, pretend = 0, frame = 0
  33              		@ frame_needed = 0, uses_anonymous_args = 0
  34              		@ link register save eliminated.
  35              	.LVL0:
  36              		.loc 1 301 0
  37 0000 014B     		ldr	r3, .L2
  38 0002 C0B2     		uxtb	r0, r0
  39              	.LVL1:
  40 0004 1870     		strb	r0, [r3]
  41 0006 7047     		bx	lr
  42              	.L3:
  43              		.align	2
  44              	.L2:
  45 0008 003C0240 		.word	1073888256
  46              		.cfi_endproc
  47              	.LFE112:
  48              		.size	FLASH_SetLatency, .-FLASH_SetLatency
  49 000c AFF30080 		.section	.text.FLASH_PrefetchBufferCmd,"ax",%progbits
  50              		.align	2
  51              		.p2align 4,,15
  52              		.global	FLASH_PrefetchBufferCmd
  53              		.thumb
  54              		.thumb_func
  55              		.type	FLASH_PrefetchBufferCmd, %function
  56              	FLASH_PrefetchBufferCmd:
  57              	.LFB113:
ARM GAS  /tmp/ccQvsvFG.s 			page 2


  58              		.loc 1 311 0
  59              		.cfi_startproc
  60              		@ args = 0, pretend = 0, frame = 0
  61              		@ frame_needed = 0, uses_anonymous_args = 0
  62              		@ link register save eliminated.
  63              	.LVL2:
  64              		.loc 1 318 0
  65 0000 054B     		ldr	r3, .L9
  66 0002 1A68     		ldr	r2, [r3]
  67              		.loc 1 316 0
  68 0004 18B9     		cbnz	r0, .L8
  69              		.loc 1 322 0
  70 0006 22F48072 		bic	r2, r2, #256
  71 000a 1A60     		str	r2, [r3]
  72 000c 7047     		bx	lr
  73              	.L8:
  74              		.loc 1 318 0
  75 000e 42F48072 		orr	r2, r2, #256
  76 0012 1A60     		str	r2, [r3]
  77 0014 7047     		bx	lr
  78              	.L10:
  79 0016 00BF     		.align	2
  80              	.L9:
  81 0018 003C0240 		.word	1073888256
  82              		.cfi_endproc
  83              	.LFE113:
  84              		.size	FLASH_PrefetchBufferCmd, .-FLASH_PrefetchBufferCmd
  85 001c AFF30080 		.section	.text.FLASH_InstructionCacheCmd,"ax",%progbits
  86              		.align	2
  87              		.p2align 4,,15
  88              		.global	FLASH_InstructionCacheCmd
  89              		.thumb
  90              		.thumb_func
  91              		.type	FLASH_InstructionCacheCmd, %function
  92              	FLASH_InstructionCacheCmd:
  93              	.LFB114:
  94              		.loc 1 333 0
  95              		.cfi_startproc
  96              		@ args = 0, pretend = 0, frame = 0
  97              		@ frame_needed = 0, uses_anonymous_args = 0
  98              		@ link register save eliminated.
  99              	.LVL3:
 100              		.loc 1 339 0
 101 0000 054B     		ldr	r3, .L15
 102 0002 1A68     		ldr	r2, [r3]
 103              		.loc 1 337 0
 104 0004 18B9     		cbnz	r0, .L14
 105              		.loc 1 343 0
 106 0006 22F40072 		bic	r2, r2, #512
 107 000a 1A60     		str	r2, [r3]
 108 000c 7047     		bx	lr
 109              	.L14:
 110              		.loc 1 339 0
 111 000e 42F40072 		orr	r2, r2, #512
 112 0012 1A60     		str	r2, [r3]
 113 0014 7047     		bx	lr
 114              	.L16:
ARM GAS  /tmp/ccQvsvFG.s 			page 3


 115 0016 00BF     		.align	2
 116              	.L15:
 117 0018 003C0240 		.word	1073888256
 118              		.cfi_endproc
 119              	.LFE114:
 120              		.size	FLASH_InstructionCacheCmd, .-FLASH_InstructionCacheCmd
 121 001c AFF30080 		.section	.text.FLASH_DataCacheCmd,"ax",%progbits
 122              		.align	2
 123              		.p2align 4,,15
 124              		.global	FLASH_DataCacheCmd
 125              		.thumb
 126              		.thumb_func
 127              		.type	FLASH_DataCacheCmd, %function
 128              	FLASH_DataCacheCmd:
 129              	.LFB115:
 130              		.loc 1 354 0
 131              		.cfi_startproc
 132              		@ args = 0, pretend = 0, frame = 0
 133              		@ frame_needed = 0, uses_anonymous_args = 0
 134              		@ link register save eliminated.
 135              	.LVL4:
 136              		.loc 1 360 0
 137 0000 054B     		ldr	r3, .L21
 138 0002 1A68     		ldr	r2, [r3]
 139              		.loc 1 358 0
 140 0004 18B9     		cbnz	r0, .L20
 141              		.loc 1 364 0
 142 0006 22F48062 		bic	r2, r2, #1024
 143 000a 1A60     		str	r2, [r3]
 144 000c 7047     		bx	lr
 145              	.L20:
 146              		.loc 1 360 0
 147 000e 42F48062 		orr	r2, r2, #1024
 148 0012 1A60     		str	r2, [r3]
 149 0014 7047     		bx	lr
 150              	.L22:
 151 0016 00BF     		.align	2
 152              	.L21:
 153 0018 003C0240 		.word	1073888256
 154              		.cfi_endproc
 155              	.LFE115:
 156              		.size	FLASH_DataCacheCmd, .-FLASH_DataCacheCmd
 157 001c AFF30080 		.section	.text.FLASH_InstructionCacheReset,"ax",%progbits
 158              		.align	2
 159              		.p2align 4,,15
 160              		.global	FLASH_InstructionCacheReset
 161              		.thumb
 162              		.thumb_func
 163              		.type	FLASH_InstructionCacheReset, %function
 164              	FLASH_InstructionCacheReset:
 165              	.LFB116:
 166              		.loc 1 375 0
 167              		.cfi_startproc
 168              		@ args = 0, pretend = 0, frame = 0
 169              		@ frame_needed = 0, uses_anonymous_args = 0
 170              		@ link register save eliminated.
 171              		.loc 1 376 0
ARM GAS  /tmp/ccQvsvFG.s 			page 4


 172 0000 024B     		ldr	r3, .L24
 173 0002 1A68     		ldr	r2, [r3]
 174 0004 42F40062 		orr	r2, r2, #2048
 175 0008 1A60     		str	r2, [r3]
 176 000a 7047     		bx	lr
 177              	.L25:
 178              		.align	2
 179              	.L24:
 180 000c 003C0240 		.word	1073888256
 181              		.cfi_endproc
 182              	.LFE116:
 183              		.size	FLASH_InstructionCacheReset, .-FLASH_InstructionCacheReset
 184              		.section	.text.FLASH_DataCacheReset,"ax",%progbits
 185              		.align	2
 186              		.p2align 4,,15
 187              		.global	FLASH_DataCacheReset
 188              		.thumb
 189              		.thumb_func
 190              		.type	FLASH_DataCacheReset, %function
 191              	FLASH_DataCacheReset:
 192              	.LFB117:
 193              		.loc 1 386 0
 194              		.cfi_startproc
 195              		@ args = 0, pretend = 0, frame = 0
 196              		@ frame_needed = 0, uses_anonymous_args = 0
 197              		@ link register save eliminated.
 198              		.loc 1 387 0
 199 0000 024B     		ldr	r3, .L27
 200 0002 1A68     		ldr	r2, [r3]
 201 0004 42F48052 		orr	r2, r2, #4096
 202 0008 1A60     		str	r2, [r3]
 203 000a 7047     		bx	lr
 204              	.L28:
 205              		.align	2
 206              	.L27:
 207 000c 003C0240 		.word	1073888256
 208              		.cfi_endproc
 209              	.LFE117:
 210              		.size	FLASH_DataCacheReset, .-FLASH_DataCacheReset
 211              		.section	.text.FLASH_Unlock,"ax",%progbits
 212              		.align	2
 213              		.p2align 4,,15
 214              		.global	FLASH_Unlock
 215              		.thumb
 216              		.thumb_func
 217              		.type	FLASH_Unlock, %function
 218              	FLASH_Unlock:
 219              	.LFB118:
 220              		.loc 1 433 0
 221              		.cfi_startproc
 222              		@ args = 0, pretend = 0, frame = 0
 223              		@ frame_needed = 0, uses_anonymous_args = 0
 224              		@ link register save eliminated.
 225              		.loc 1 434 0
 226 0000 044B     		ldr	r3, .L31
 227 0002 1A69     		ldr	r2, [r3, #16]
 228 0004 002A     		cmp	r2, #0
ARM GAS  /tmp/ccQvsvFG.s 			page 5


 229 0006 03DA     		bge	.L29
 230              		.loc 1 437 0
 231 0008 0349     		ldr	r1, .L31+4
 232              		.loc 1 438 0
 233 000a 044A     		ldr	r2, .L31+8
 234              		.loc 1 437 0
 235 000c 5960     		str	r1, [r3, #4]
 236              		.loc 1 438 0
 237 000e 5A60     		str	r2, [r3, #4]
 238              	.L29:
 239 0010 7047     		bx	lr
 240              	.L32:
 241 0012 00BF     		.align	2
 242              	.L31:
 243 0014 003C0240 		.word	1073888256
 244 0018 23016745 		.word	1164378403
 245 001c AB89EFCD 		.word	-839939669
 246              		.cfi_endproc
 247              	.LFE118:
 248              		.size	FLASH_Unlock, .-FLASH_Unlock
 249              		.section	.text.FLASH_Lock,"ax",%progbits
 250              		.align	2
 251              		.p2align 4,,15
 252              		.global	FLASH_Lock
 253              		.thumb
 254              		.thumb_func
 255              		.type	FLASH_Lock, %function
 256              	FLASH_Lock:
 257              	.LFB119:
 258              		.loc 1 448 0
 259              		.cfi_startproc
 260              		@ args = 0, pretend = 0, frame = 0
 261              		@ frame_needed = 0, uses_anonymous_args = 0
 262              		@ link register save eliminated.
 263              		.loc 1 450 0
 264 0000 024B     		ldr	r3, .L34
 265 0002 1A69     		ldr	r2, [r3, #16]
 266 0004 42F00042 		orr	r2, r2, #-2147483648
 267 0008 1A61     		str	r2, [r3, #16]
 268 000a 7047     		bx	lr
 269              	.L35:
 270              		.align	2
 271              	.L34:
 272 000c 003C0240 		.word	1073888256
 273              		.cfi_endproc
 274              	.LFE119:
 275              		.size	FLASH_Lock, .-FLASH_Lock
 276              		.section	.text.FLASH_OB_Unlock,"ax",%progbits
 277              		.align	2
 278              		.p2align 4,,15
 279              		.global	FLASH_OB_Unlock
 280              		.thumb
 281              		.thumb_func
 282              		.type	FLASH_OB_Unlock, %function
 283              	FLASH_OB_Unlock:
 284              	.LFB128:
 285              		.loc 1 990 0
ARM GAS  /tmp/ccQvsvFG.s 			page 6


 286              		.cfi_startproc
 287              		@ args = 0, pretend = 0, frame = 0
 288              		@ frame_needed = 0, uses_anonymous_args = 0
 289              		@ link register save eliminated.
 290              		.loc 1 991 0
 291 0000 044B     		ldr	r3, .L41
 292 0002 5A69     		ldr	r2, [r3, #20]
 293 0004 D207     		lsls	r2, r2, #31
 294 0006 03D5     		bpl	.L36
 295              		.loc 1 994 0
 296 0008 0349     		ldr	r1, .L41+4
 297              		.loc 1 995 0
 298 000a 044A     		ldr	r2, .L41+8
 299              		.loc 1 994 0
 300 000c 9960     		str	r1, [r3, #8]
 301              		.loc 1 995 0
 302 000e 9A60     		str	r2, [r3, #8]
 303              	.L36:
 304 0010 7047     		bx	lr
 305              	.L42:
 306 0012 00BF     		.align	2
 307              	.L41:
 308 0014 003C0240 		.word	1073888256
 309 0018 3B2A1908 		.word	135866939
 310 001c 7F6E5D4C 		.word	1281191551
 311              		.cfi_endproc
 312              	.LFE128:
 313              		.size	FLASH_OB_Unlock, .-FLASH_OB_Unlock
 314              		.section	.text.FLASH_OB_Lock,"ax",%progbits
 315              		.align	2
 316              		.p2align 4,,15
 317              		.global	FLASH_OB_Lock
 318              		.thumb
 319              		.thumb_func
 320              		.type	FLASH_OB_Lock, %function
 321              	FLASH_OB_Lock:
 322              	.LFB129:
 323              		.loc 1 1005 0
 324              		.cfi_startproc
 325              		@ args = 0, pretend = 0, frame = 0
 326              		@ frame_needed = 0, uses_anonymous_args = 0
 327              		@ link register save eliminated.
 328              		.loc 1 1007 0
 329 0000 024B     		ldr	r3, .L44
 330 0002 5A69     		ldr	r2, [r3, #20]
 331 0004 42F00102 		orr	r2, r2, #1
 332 0008 5A61     		str	r2, [r3, #20]
 333 000a 7047     		bx	lr
 334              	.L45:
 335              		.align	2
 336              	.L44:
 337 000c 003C0240 		.word	1073888256
 338              		.cfi_endproc
 339              	.LFE129:
 340              		.size	FLASH_OB_Lock, .-FLASH_OB_Lock
 341              		.section	.text.FLASH_OB_PCROPSelectionConfig,"ax",%progbits
 342              		.align	2
ARM GAS  /tmp/ccQvsvFG.s 			page 7


 343              		.p2align 4,,15
 344              		.global	FLASH_OB_PCROPSelectionConfig
 345              		.thumb
 346              		.thumb_func
 347              		.type	FLASH_OB_PCROPSelectionConfig, %function
 348              	FLASH_OB_PCROPSelectionConfig:
 349              	.LFB132:
 350              		.loc 1 1120 0
 351              		.cfi_startproc
 352              		@ args = 0, pretend = 0, frame = 0
 353              		@ frame_needed = 0, uses_anonymous_args = 0
 354              		@ link register save eliminated.
 355              	.LVL5:
 356              		.loc 1 1127 0
 357 0000 034B     		ldr	r3, .L47
 358 0002 1A78     		ldrb	r2, [r3]	@ zero_extendqisi2
 359              	.LVL6:
 360 0004 02F07F02 		and	r2, r2, #127
 361              	.LVL7:
 362              		.loc 1 1129 0
 363 0008 1043     		orrs	r0, r0, r2
 364              	.LVL8:
 365 000a 1870     		strb	r0, [r3]
 366 000c 7047     		bx	lr
 367              	.L48:
 368 000e 00BF     		.align	2
 369              	.L47:
 370 0010 173C0240 		.word	1073888279
 371              		.cfi_endproc
 372              	.LFE132:
 373              		.size	FLASH_OB_PCROPSelectionConfig, .-FLASH_OB_PCROPSelectionConfig
 374 0014 AFF30080 		.section	.text.FLASH_OB_BootConfig,"ax",%progbits
 374      AFF30080 
 374      AFF30080 
 375              		.align	2
 376              		.p2align 4,,15
 377              		.global	FLASH_OB_BootConfig
 378              		.thumb
 379              		.thumb_func
 380              		.type	FLASH_OB_BootConfig, %function
 381              	FLASH_OB_BootConfig:
 382              	.LFB137:
 383              		.loc 1 1296 0
 384              		.cfi_startproc
 385              		@ args = 0, pretend = 0, frame = 0
 386              		@ frame_needed = 0, uses_anonymous_args = 0
 387              		@ link register save eliminated.
 388              	.LVL9:
 389              		.loc 1 1301 0
 390 0000 044B     		ldr	r3, .L50
 391 0002 1A78     		ldrb	r2, [r3]	@ zero_extendqisi2
 392 0004 02F0EF02 		and	r2, r2, #239
 393 0008 1A70     		strb	r2, [r3]
 394              		.loc 1 1302 0
 395 000a 1A78     		ldrb	r2, [r3]	@ zero_extendqisi2
 396 000c 1043     		orrs	r0, r0, r2
 397              	.LVL10:
ARM GAS  /tmp/ccQvsvFG.s 			page 8


 398 000e 1870     		strb	r0, [r3]
 399 0010 7047     		bx	lr
 400              	.L51:
 401 0012 00BF     		.align	2
 402              	.L50:
 403 0014 143C0240 		.word	1073888276
 404              		.cfi_endproc
 405              	.LFE137:
 406              		.size	FLASH_OB_BootConfig, .-FLASH_OB_BootConfig
 407 0018 AFF30080 		.section	.text.FLASH_OB_BORConfig,"ax",%progbits
 407      AFF30080 
 408              		.align	2
 409              		.p2align 4,,15
 410              		.global	FLASH_OB_BORConfig
 411              		.thumb
 412              		.thumb_func
 413              		.type	FLASH_OB_BORConfig, %function
 414              	FLASH_OB_BORConfig:
 415              	.LFB138:
 416              		.loc 1 1317 0
 417              		.cfi_startproc
 418              		@ args = 0, pretend = 0, frame = 0
 419              		@ frame_needed = 0, uses_anonymous_args = 0
 420              		@ link register save eliminated.
 421              	.LVL11:
 422              		.loc 1 1322 0
 423 0000 044B     		ldr	r3, .L53
 424 0002 1A78     		ldrb	r2, [r3]	@ zero_extendqisi2
 425 0004 02F0F302 		and	r2, r2, #243
 426 0008 1A70     		strb	r2, [r3]
 427              		.loc 1 1323 0
 428 000a 1A78     		ldrb	r2, [r3]	@ zero_extendqisi2
 429 000c 1043     		orrs	r0, r0, r2
 430              	.LVL12:
 431 000e 1870     		strb	r0, [r3]
 432 0010 7047     		bx	lr
 433              	.L54:
 434 0012 00BF     		.align	2
 435              	.L53:
 436 0014 143C0240 		.word	1073888276
 437              		.cfi_endproc
 438              	.LFE138:
 439              		.size	FLASH_OB_BORConfig, .-FLASH_OB_BORConfig
 440 0018 AFF30080 		.section	.text.FLASH_OB_GetUser,"ax",%progbits
 440      AFF30080 
 441              		.align	2
 442              		.p2align 4,,15
 443              		.global	FLASH_OB_GetUser
 444              		.thumb
 445              		.thumb_func
 446              		.type	FLASH_OB_GetUser, %function
 447              	FLASH_OB_GetUser:
 448              	.LFB140:
 449              		.loc 1 1353 0
 450              		.cfi_startproc
 451              		@ args = 0, pretend = 0, frame = 0
 452              		@ frame_needed = 0, uses_anonymous_args = 0
ARM GAS  /tmp/ccQvsvFG.s 			page 9


 453              		@ link register save eliminated.
 454              		.loc 1 1355 0
 455 0000 024B     		ldr	r3, .L56
 456 0002 5869     		ldr	r0, [r3, #20]
 457              		.loc 1 1356 0
 458 0004 C0F34710 		ubfx	r0, r0, #5, #8
 459 0008 7047     		bx	lr
 460              	.L57:
 461 000a 00BF     		.align	2
 462              	.L56:
 463 000c 003C0240 		.word	1073888256
 464              		.cfi_endproc
 465              	.LFE140:
 466              		.size	FLASH_OB_GetUser, .-FLASH_OB_GetUser
 467              		.section	.text.FLASH_OB_GetWRP,"ax",%progbits
 468              		.align	2
 469              		.p2align 4,,15
 470              		.global	FLASH_OB_GetWRP
 471              		.thumb
 472              		.thumb_func
 473              		.type	FLASH_OB_GetWRP, %function
 474              	FLASH_OB_GetWRP:
 475              	.LFB141:
 476              		.loc 1 1364 0
 477              		.cfi_startproc
 478              		@ args = 0, pretend = 0, frame = 0
 479              		@ frame_needed = 0, uses_anonymous_args = 0
 480              		@ link register save eliminated.
 481              		.loc 1 1366 0
 482 0000 014B     		ldr	r3, .L59
 483 0002 1888     		ldrh	r0, [r3]
 484              		.loc 1 1367 0
 485 0004 80B2     		uxth	r0, r0
 486 0006 7047     		bx	lr
 487              	.L60:
 488              		.align	2
 489              	.L59:
 490 0008 163C0240 		.word	1073888278
 491              		.cfi_endproc
 492              	.LFE141:
 493              		.size	FLASH_OB_GetWRP, .-FLASH_OB_GetWRP
 494 000c AFF30080 		.section	.text.FLASH_OB_GetWRP1,"ax",%progbits
 495              		.align	2
 496              		.p2align 4,,15
 497              		.global	FLASH_OB_GetWRP1
 498              		.thumb
 499              		.thumb_func
 500              		.type	FLASH_OB_GetWRP1, %function
 501              	FLASH_OB_GetWRP1:
 502              	.LFB142:
 503              		.loc 1 1378 0
 504              		.cfi_startproc
 505              		@ args = 0, pretend = 0, frame = 0
 506              		@ frame_needed = 0, uses_anonymous_args = 0
 507              		@ link register save eliminated.
 508              		.loc 1 1380 0
 509 0000 014B     		ldr	r3, .L62
ARM GAS  /tmp/ccQvsvFG.s 			page 10


 510 0002 1888     		ldrh	r0, [r3]
 511              		.loc 1 1381 0
 512 0004 80B2     		uxth	r0, r0
 513 0006 7047     		bx	lr
 514              	.L63:
 515              		.align	2
 516              	.L62:
 517 0008 1A3C0240 		.word	1073888282
 518              		.cfi_endproc
 519              	.LFE142:
 520              		.size	FLASH_OB_GetWRP1, .-FLASH_OB_GetWRP1
 521 000c AFF30080 		.section	.text.FLASH_OB_GetPCROP,"ax",%progbits
 522              		.align	2
 523              		.p2align 4,,15
 524              		.global	FLASH_OB_GetPCROP
 525              		.thumb
 526              		.thumb_func
 527              		.type	FLASH_OB_GetPCROP, %function
 528              	FLASH_OB_GetPCROP:
 529              	.LFB143:
 530              		.loc 1 1392 0
 531              		.cfi_startproc
 532              		@ args = 0, pretend = 0, frame = 0
 533              		@ frame_needed = 0, uses_anonymous_args = 0
 534              		@ link register save eliminated.
 535              		.loc 1 1394 0
 536 0000 014B     		ldr	r3, .L65
 537 0002 1888     		ldrh	r0, [r3]
 538              		.loc 1 1395 0
 539 0004 80B2     		uxth	r0, r0
 540 0006 7047     		bx	lr
 541              	.L66:
 542              		.align	2
 543              	.L65:
 544 0008 163C0240 		.word	1073888278
 545              		.cfi_endproc
 546              	.LFE143:
 547              		.size	FLASH_OB_GetPCROP, .-FLASH_OB_GetPCROP
 548 000c AFF30080 		.section	.text.FLASH_OB_GetPCROP1,"ax",%progbits
 549              		.align	2
 550              		.p2align 4,,15
 551              		.global	FLASH_OB_GetPCROP1
 552              		.thumb
 553              		.thumb_func
 554              		.type	FLASH_OB_GetPCROP1, %function
 555              	FLASH_OB_GetPCROP1:
 556              	.LFB144:
 557              		.loc 1 1406 0
 558              		.cfi_startproc
 559              		@ args = 0, pretend = 0, frame = 0
 560              		@ frame_needed = 0, uses_anonymous_args = 0
 561              		@ link register save eliminated.
 562              		.loc 1 1408 0
 563 0000 014B     		ldr	r3, .L68
 564 0002 1888     		ldrh	r0, [r3]
 565              		.loc 1 1409 0
 566 0004 80B2     		uxth	r0, r0
ARM GAS  /tmp/ccQvsvFG.s 			page 11


 567 0006 7047     		bx	lr
 568              	.L69:
 569              		.align	2
 570              	.L68:
 571 0008 1A3C0240 		.word	1073888282
 572              		.cfi_endproc
 573              	.LFE144:
 574              		.size	FLASH_OB_GetPCROP1, .-FLASH_OB_GetPCROP1
 575 000c AFF30080 		.section	.text.FLASH_OB_GetRDP,"ax",%progbits
 576              		.align	2
 577              		.p2align 4,,15
 578              		.global	FLASH_OB_GetRDP
 579              		.thumb
 580              		.thumb_func
 581              		.type	FLASH_OB_GetRDP, %function
 582              	FLASH_OB_GetRDP:
 583              	.LFB145:
 584              		.loc 1 1419 0
 585              		.cfi_startproc
 586              		@ args = 0, pretend = 0, frame = 0
 587              		@ frame_needed = 0, uses_anonymous_args = 0
 588              		@ link register save eliminated.
 589              	.LVL13:
 590              		.loc 1 1422 0
 591 0000 024B     		ldr	r3, .L71
 592 0002 1878     		ldrb	r0, [r3]	@ zero_extendqisi2
 593              	.LVL14:
 594              		.loc 1 1431 0
 595 0004 AA38     		subs	r0, r0, #170
 596              	.LVL15:
 597 0006 18BF     		it	ne
 598 0008 0120     		movne	r0, #1
 599              	.LVL16:
 600 000a 7047     		bx	lr
 601              	.L72:
 602              		.align	2
 603              	.L71:
 604 000c 153C0240 		.word	1073888277
 605              		.cfi_endproc
 606              	.LFE145:
 607              		.size	FLASH_OB_GetRDP, .-FLASH_OB_GetRDP
 608              		.section	.text.FLASH_OB_GetBOR,"ax",%progbits
 609              		.align	2
 610              		.p2align 4,,15
 611              		.global	FLASH_OB_GetBOR
 612              		.thumb
 613              		.thumb_func
 614              		.type	FLASH_OB_GetBOR, %function
 615              	FLASH_OB_GetBOR:
 616              	.LFB146:
 617              		.loc 1 1443 0
 618              		.cfi_startproc
 619              		@ args = 0, pretend = 0, frame = 0
 620              		@ frame_needed = 0, uses_anonymous_args = 0
 621              		@ link register save eliminated.
 622              		.loc 1 1445 0
 623 0000 024B     		ldr	r3, .L74
ARM GAS  /tmp/ccQvsvFG.s 			page 12


 624 0002 1878     		ldrb	r0, [r3]	@ zero_extendqisi2
 625              		.loc 1 1446 0
 626 0004 00F00C00 		and	r0, r0, #12
 627 0008 7047     		bx	lr
 628              	.L75:
 629 000a 00BF     		.align	2
 630              	.L74:
 631 000c 143C0240 		.word	1073888276
 632              		.cfi_endproc
 633              	.LFE146:
 634              		.size	FLASH_OB_GetBOR, .-FLASH_OB_GetBOR
 635              		.section	.text.FLASH_ITConfig,"ax",%progbits
 636              		.align	2
 637              		.p2align 4,,15
 638              		.global	FLASH_ITConfig
 639              		.thumb
 640              		.thumb_func
 641              		.type	FLASH_ITConfig, %function
 642              	FLASH_ITConfig:
 643              	.LFB147:
 644              		.loc 1 1472 0
 645              		.cfi_startproc
 646              		@ args = 0, pretend = 0, frame = 0
 647              		@ frame_needed = 0, uses_anonymous_args = 0
 648              		@ link register save eliminated.
 649              	.LVL17:
 650              		.loc 1 1480 0
 651 0000 044B     		ldr	r3, .L80
 652 0002 1A69     		ldr	r2, [r3, #16]
 653              		.loc 1 1477 0
 654 0004 19B9     		cbnz	r1, .L79
 655              		.loc 1 1485 0
 656 0006 22EA0000 		bic	r0, r2, r0
 657              	.LVL18:
 658 000a 1861     		str	r0, [r3, #16]
 659 000c 7047     		bx	lr
 660              	.LVL19:
 661              	.L79:
 662              		.loc 1 1480 0
 663 000e 1043     		orrs	r0, r0, r2
 664              	.LVL20:
 665 0010 1861     		str	r0, [r3, #16]
 666 0012 7047     		bx	lr
 667              	.L81:
 668              		.align	2
 669              	.L80:
 670 0014 003C0240 		.word	1073888256
 671              		.cfi_endproc
 672              	.LFE147:
 673              		.size	FLASH_ITConfig, .-FLASH_ITConfig
 674 0018 AFF30080 		.section	.text.FLASH_GetFlagStatus,"ax",%progbits
 674      AFF30080 
 675              		.align	2
 676              		.p2align 4,,15
 677              		.global	FLASH_GetFlagStatus
 678              		.thumb
 679              		.thumb_func
ARM GAS  /tmp/ccQvsvFG.s 			page 13


 680              		.type	FLASH_GetFlagStatus, %function
 681              	FLASH_GetFlagStatus:
 682              	.LFB148:
 683              		.loc 1 1504 0
 684              		.cfi_startproc
 685              		@ args = 0, pretend = 0, frame = 0
 686              		@ frame_needed = 0, uses_anonymous_args = 0
 687              		@ link register save eliminated.
 688              	.LVL21:
 689              		.loc 1 1509 0
 690 0000 034B     		ldr	r3, .L83
 691 0002 DB68     		ldr	r3, [r3, #12]
 692              	.LVL22:
 693 0004 1842     		tst	r0, r3
 694              		.loc 1 1519 0
 695 0006 0CBF     		ite	eq
 696 0008 0020     		moveq	r0, #0
 697 000a 0120     		movne	r0, #1
 698              	.LVL23:
 699 000c 7047     		bx	lr
 700              	.L84:
 701 000e 00BF     		.align	2
 702              	.L83:
 703 0010 003C0240 		.word	1073888256
 704              		.cfi_endproc
 705              	.LFE148:
 706              		.size	FLASH_GetFlagStatus, .-FLASH_GetFlagStatus
 707 0014 AFF30080 		.section	.text.FLASH_ClearFlag,"ax",%progbits
 707      AFF30080 
 707      AFF30080 
 708              		.align	2
 709              		.p2align 4,,15
 710              		.global	FLASH_ClearFlag
 711              		.thumb
 712              		.thumb_func
 713              		.type	FLASH_ClearFlag, %function
 714              	FLASH_ClearFlag:
 715              	.LFB149:
 716              		.loc 1 1535 0
 717              		.cfi_startproc
 718              		@ args = 0, pretend = 0, frame = 0
 719              		@ frame_needed = 0, uses_anonymous_args = 0
 720              		@ link register save eliminated.
 721              	.LVL24:
 722              		.loc 1 1540 0
 723 0000 014B     		ldr	r3, .L86
 724 0002 D860     		str	r0, [r3, #12]
 725 0004 7047     		bx	lr
 726              	.L87:
 727 0006 00BF     		.align	2
 728              	.L86:
 729 0008 003C0240 		.word	1073888256
 730              		.cfi_endproc
 731              	.LFE149:
 732              		.size	FLASH_ClearFlag, .-FLASH_ClearFlag
 733 000c AFF30080 		.section	.text.FLASH_GetStatus,"ax",%progbits
 734              		.align	2
ARM GAS  /tmp/ccQvsvFG.s 			page 14


 735              		.p2align 4,,15
 736              		.global	FLASH_GetStatus
 737              		.thumb
 738              		.thumb_func
 739              		.type	FLASH_GetStatus, %function
 740              	FLASH_GetStatus:
 741              	.LFB150:
 742              		.loc 1 1550 0
 743              		.cfi_startproc
 744              		@ args = 0, pretend = 0, frame = 0
 745              		@ frame_needed = 0, uses_anonymous_args = 0
 746              		@ link register save eliminated.
 747              	.LVL25:
 748              		.loc 1 1553 0
 749 0000 0E4B     		ldr	r3, .L99
 750 0002 DA68     		ldr	r2, [r3, #12]
 751 0004 D003     		lsls	r0, r2, #15
 752 0006 09D4     		bmi	.L91
 753              		.loc 1 1559 0
 754 0008 DA68     		ldr	r2, [r3, #12]
 755 000a D106     		lsls	r1, r2, #27
 756 000c 01D5     		bpl	.L96
 757              		.loc 1 1561 0
 758 000e 0620     		movs	r0, #6
 759 0010 7047     		bx	lr
 760              	.L96:
 761              		.loc 1 1565 0
 762 0012 DA68     		ldr	r2, [r3, #12]
 763 0014 D205     		lsls	r2, r2, #23
 764 0016 03D5     		bpl	.L97
 765              		.loc 1 1567 0
 766 0018 0220     		movs	r0, #2
 767 001a 7047     		bx	lr
 768              	.L91:
 769              		.loc 1 1555 0
 770 001c 0120     		movs	r0, #1
 771 001e 7047     		bx	lr
 772              	.L97:
 773              		.loc 1 1571 0
 774 0020 DA68     		ldr	r2, [r3, #12]
 775 0022 12F0E00F 		tst	r2, #224
 776 0026 01D0     		beq	.L98
 777              		.loc 1 1573 0
 778 0028 0720     		movs	r0, #7
 779              	.LVL26:
 780              		.loc 1 1591 0
 781 002a 7047     		bx	lr
 782              	.LVL27:
 783              	.L98:
 784              	.LBB4:
 785              	.LBB5:
 786              		.loc 1 1577 0
 787 002c DB68     		ldr	r3, [r3, #12]
 788 002e 13F0020F 		tst	r3, #2
 789              		.loc 1 1579 0
 790 0032 0CBF     		ite	eq
 791 0034 0920     		moveq	r0, #9
ARM GAS  /tmp/ccQvsvFG.s 			page 15


 792 0036 0820     		movne	r0, #8
 793 0038 7047     		bx	lr
 794              	.L100:
 795 003a 00BF     		.align	2
 796              	.L99:
 797 003c 003C0240 		.word	1073888256
 798              	.LBE5:
 799              	.LBE4:
 800              		.cfi_endproc
 801              	.LFE150:
 802              		.size	FLASH_GetStatus, .-FLASH_GetStatus
 803              		.section	.text.FLASH_WaitForLastOperation,"ax",%progbits
 804              		.align	2
 805              		.p2align 4,,15
 806              		.global	FLASH_WaitForLastOperation
 807              		.thumb
 808              		.thumb_func
 809              		.type	FLASH_WaitForLastOperation, %function
 810              	FLASH_WaitForLastOperation:
 811              	.LFB151:
 812              		.loc 1 1600 0
 813              		.cfi_startproc
 814              		@ args = 0, pretend = 0, frame = 8
 815              		@ frame_needed = 0, uses_anonymous_args = 0
 816 0000 00B5     		push	{lr}
 817              		.cfi_def_cfa_offset 4
 818              		.cfi_offset 14, -4
 819 0002 83B0     		sub	sp, sp, #12
 820              		.cfi_def_cfa_offset 16
 821              		.loc 1 1601 0
 822 0004 0923     		movs	r3, #9
 823 0006 8DF80730 		strb	r3, [sp, #7]
 824              	.L108:
 825              		.loc 1 1604 0
 826 000a FFF7FEFF 		bl	FLASH_GetStatus
 827              	.LVL28:
 828 000e 8DF80700 		strb	r0, [sp, #7]
 829              		.loc 1 1609 0
 830 0012 9DF80730 		ldrb	r3, [sp, #7]	@ zero_extendqisi2
 831 0016 012B     		cmp	r3, #1
 832 0018 F7D0     		beq	.L108
 833              		.loc 1 1614 0
 834 001a 9DF80700 		ldrb	r0, [sp, #7]	@ zero_extendqisi2
 835 001e C0B2     		uxtb	r0, r0
 836              		.loc 1 1615 0
 837 0020 03B0     		add	sp, sp, #12
 838              		@ sp needed
 839 0022 5DF804FB 		ldr	pc, [sp], #4
 840              		.cfi_endproc
 841              	.LFE151:
 842              		.size	FLASH_WaitForLastOperation, .-FLASH_WaitForLastOperation
 843 0026 00BFAFF3 		.section	.text.FLASH_EraseSector,"ax",%progbits
 843      0080AFF3 
 843      0080
 844              		.align	2
 845              		.p2align 4,,15
 846              		.global	FLASH_EraseSector
ARM GAS  /tmp/ccQvsvFG.s 			page 16


 847              		.thumb
 848              		.thumb_func
 849              		.type	FLASH_EraseSector, %function
 850              	FLASH_EraseSector:
 851              	.LFB120:
 852              		.loc 1 491 0
 853              		.cfi_startproc
 854              		@ args = 0, pretend = 0, frame = 0
 855              		@ frame_needed = 0, uses_anonymous_args = 0
 856              	.LVL29:
 857 0000 70B5     		push	{r4, r5, r6, lr}
 858              		.cfi_def_cfa_offset 16
 859              		.cfi_offset 4, -16
 860              		.cfi_offset 5, -12
 861              		.cfi_offset 6, -8
 862              		.cfi_offset 14, -4
 863              		.loc 1 491 0
 864 0002 0546     		mov	r5, r0
 865              		.loc 1 499 0
 866 0004 59B3     		cbz	r1, .L112
 867              		.loc 1 503 0
 868 0006 0129     		cmp	r1, #1
 869 0008 2FD0     		beq	.L113
 870              		.loc 1 507 0
 871 000a 0229     		cmp	r1, #2
 872              		.loc 1 509 0
 873 000c 14BF     		ite	ne
 874 000e 4FF44076 		movne	r6, #768
 875 0012 4FF40076 		moveq	r6, #512
 876              	.LVL30:
 877              		.loc 1 516 0
 878 0016 FFF7FEFF 		bl	FLASH_WaitForLastOperation
 879              	.LVL31:
 880              		.loc 1 518 0
 881 001a 0928     		cmp	r0, #9
 882 001c 24D1     		bne	.L111
 883              	.LVL32:
 884              	.L115:
 885              		.loc 1 521 0
 886 001e 144C     		ldr	r4, .L116
 887 0020 2369     		ldr	r3, [r4, #16]
 888 0022 23F44073 		bic	r3, r3, #768
 889 0026 2361     		str	r3, [r4, #16]
 890              		.loc 1 522 0
 891 0028 2169     		ldr	r1, [r4, #16]
 892 002a 0E43     		orrs	r6, r6, r1
 893              	.LVL33:
 894 002c 2661     		str	r6, [r4, #16]
 895              		.loc 1 523 0
 896 002e 2369     		ldr	r3, [r4, #16]
 897 0030 23F0F803 		bic	r3, r3, #248
 898 0034 2361     		str	r3, [r4, #16]
 899              		.loc 1 524 0
 900 0036 2369     		ldr	r3, [r4, #16]
 901 0038 43F00203 		orr	r3, r3, #2
 902 003c 1D43     		orrs	r5, r5, r3
 903              	.LVL34:
ARM GAS  /tmp/ccQvsvFG.s 			page 17


 904 003e 2561     		str	r5, [r4, #16]
 905              		.loc 1 525 0
 906 0040 2369     		ldr	r3, [r4, #16]
 907 0042 43F48033 		orr	r3, r3, #65536
 908 0046 2361     		str	r3, [r4, #16]
 909              		.loc 1 528 0
 910 0048 FFF7FEFF 		bl	FLASH_WaitForLastOperation
 911              	.LVL35:
 912              		.loc 1 531 0
 913 004c 2369     		ldr	r3, [r4, #16]
 914 004e 23F00203 		bic	r3, r3, #2
 915 0052 2361     		str	r3, [r4, #16]
 916              		.loc 1 532 0
 917 0054 2369     		ldr	r3, [r4, #16]
 918 0056 23F0F803 		bic	r3, r3, #248
 919 005a 2361     		str	r3, [r4, #16]
 920              		.loc 1 536 0
 921 005c 70BD     		pop	{r4, r5, r6, pc}
 922              	.LVL36:
 923              	.L112:
 924              		.loc 1 501 0
 925 005e 0E46     		mov	r6, r1
 926              	.L110:
 927              	.LVL37:
 928              		.loc 1 516 0
 929 0060 FFF7FEFF 		bl	FLASH_WaitForLastOperation
 930              	.LVL38:
 931              		.loc 1 518 0
 932 0064 0928     		cmp	r0, #9
 933 0066 DAD0     		beq	.L115
 934              	.LVL39:
 935              	.L111:
 936              		.loc 1 536 0
 937 0068 70BD     		pop	{r4, r5, r6, pc}
 938              	.LVL40:
 939              	.L113:
 940              		.loc 1 505 0
 941 006a 4FF48076 		mov	r6, #256
 942 006e F7E7     		b	.L110
 943              	.L117:
 944              		.align	2
 945              	.L116:
 946 0070 003C0240 		.word	1073888256
 947              		.cfi_endproc
 948              	.LFE120:
 949              		.size	FLASH_EraseSector, .-FLASH_EraseSector
 950 0074 AFF30080 		.section	.text.FLASH_EraseAllSectors,"ax",%progbits
 950      AFF30080 
 950      AFF30080 
 951              		.align	2
 952              		.p2align 4,,15
 953              		.global	FLASH_EraseAllSectors
 954              		.thumb
 955              		.thumb_func
 956              		.type	FLASH_EraseAllSectors, %function
 957              	FLASH_EraseAllSectors:
 958              	.LFB121:
ARM GAS  /tmp/ccQvsvFG.s 			page 18


 959              		.loc 1 559 0
 960              		.cfi_startproc
 961              		@ args = 0, pretend = 0, frame = 0
 962              		@ frame_needed = 0, uses_anonymous_args = 0
 963              	.LVL41:
 964 0000 38B5     		push	{r3, r4, r5, lr}
 965              		.cfi_def_cfa_offset 16
 966              		.cfi_offset 3, -16
 967              		.cfi_offset 4, -12
 968              		.cfi_offset 5, -8
 969              		.cfi_offset 14, -4
 970              		.loc 1 559 0
 971 0002 0446     		mov	r4, r0
 972              		.loc 1 564 0
 973 0004 FFF7FEFF 		bl	FLASH_WaitForLastOperation
 974              	.LVL42:
 975              		.loc 1 567 0
 976 0008 3CB1     		cbz	r4, .L119
 977              		.loc 1 571 0
 978 000a 012C     		cmp	r4, #1
 979 000c 08D0     		beq	.L122
 980              		.loc 1 575 0
 981 000e 022C     		cmp	r4, #2
 982              		.loc 1 577 0
 983 0010 14BF     		ite	ne
 984 0012 4FF44074 		movne	r4, #768
 985 0016 4FF40074 		moveq	r4, #512
 986              	.L119:
 987              	.LVL43:
 988              		.loc 1 583 0
 989 001a 0928     		cmp	r0, #9
 990 001c 04D0     		beq	.L124
 991              	.L120:
 992              		.loc 1 615 0
 993 001e 38BD     		pop	{r3, r4, r5, pc}
 994              	.LVL44:
 995              	.L122:
 996              		.loc 1 583 0
 997 0020 0928     		cmp	r0, #9
 998              		.loc 1 573 0
 999 0022 4FF48074 		mov	r4, #256
 1000              	.LVL45:
 1001              		.loc 1 583 0
 1002 0026 FAD1     		bne	.L120
 1003              	.L124:
 1004              		.loc 1 600 0
 1005 0028 0B4D     		ldr	r5, .L125
 1006 002a 2B69     		ldr	r3, [r5, #16]
 1007 002c 23F44073 		bic	r3, r3, #768
 1008 0030 2B61     		str	r3, [r5, #16]
 1009              		.loc 1 601 0
 1010 0032 2B69     		ldr	r3, [r5, #16]
 1011 0034 1C43     		orrs	r4, r4, r3
 1012              	.LVL46:
 1013 0036 2C61     		str	r4, [r5, #16]
 1014              		.loc 1 602 0
 1015 0038 2B69     		ldr	r3, [r5, #16]
ARM GAS  /tmp/ccQvsvFG.s 			page 19


 1016 003a 43F00403 		orr	r3, r3, #4
 1017 003e 2B61     		str	r3, [r5, #16]
 1018              		.loc 1 603 0
 1019 0040 2B69     		ldr	r3, [r5, #16]
 1020 0042 43F48033 		orr	r3, r3, #65536
 1021 0046 2B61     		str	r3, [r5, #16]
 1022              		.loc 1 606 0
 1023 0048 FFF7FEFF 		bl	FLASH_WaitForLastOperation
 1024              	.LVL47:
 1025              		.loc 1 609 0
 1026 004c 2B69     		ldr	r3, [r5, #16]
 1027 004e 23F00403 		bic	r3, r3, #4
 1028 0052 2B61     		str	r3, [r5, #16]
 1029              		.loc 1 615 0
 1030 0054 38BD     		pop	{r3, r4, r5, pc}
 1031              	.L126:
 1032 0056 00BF     		.align	2
 1033              	.L125:
 1034 0058 003C0240 		.word	1073888256
 1035              		.cfi_endproc
 1036              	.LFE121:
 1037              		.size	FLASH_EraseAllSectors, .-FLASH_EraseAllSectors
 1038 005c AFF30080 		.section	.text.FLASH_EraseAllBank1Sectors,"ax",%progbits
 1039              		.align	2
 1040              		.p2align 4,,15
 1041              		.global	FLASH_EraseAllBank1Sectors
 1042              		.thumb
 1043              		.thumb_func
 1044              		.type	FLASH_EraseAllBank1Sectors, %function
 1045              	FLASH_EraseAllBank1Sectors:
 1046              	.LFB122:
 1047              		.loc 1 640 0
 1048              		.cfi_startproc
 1049              		@ args = 0, pretend = 0, frame = 0
 1050              		@ frame_needed = 0, uses_anonymous_args = 0
 1051              	.LVL48:
 1052 0000 38B5     		push	{r3, r4, r5, lr}
 1053              		.cfi_def_cfa_offset 16
 1054              		.cfi_offset 3, -16
 1055              		.cfi_offset 4, -12
 1056              		.cfi_offset 5, -8
 1057              		.cfi_offset 14, -4
 1058              		.loc 1 640 0
 1059 0002 0446     		mov	r4, r0
 1060              		.loc 1 645 0
 1061 0004 FFF7FEFF 		bl	FLASH_WaitForLastOperation
 1062              	.LVL49:
 1063              		.loc 1 648 0
 1064 0008 3CB1     		cbz	r4, .L128
 1065              		.loc 1 652 0
 1066 000a 012C     		cmp	r4, #1
 1067 000c 08D0     		beq	.L131
 1068              		.loc 1 656 0
 1069 000e 022C     		cmp	r4, #2
 1070              		.loc 1 658 0
 1071 0010 14BF     		ite	ne
 1072 0012 4FF44074 		movne	r4, #768
ARM GAS  /tmp/ccQvsvFG.s 			page 20


 1073 0016 4FF40074 		moveq	r4, #512
 1074              	.L128:
 1075              	.LVL50:
 1076              		.loc 1 664 0
 1077 001a 0928     		cmp	r0, #9
 1078 001c 04D0     		beq	.L133
 1079              	.L129:
 1080              		.loc 1 681 0
 1081 001e 38BD     		pop	{r3, r4, r5, pc}
 1082              	.LVL51:
 1083              	.L131:
 1084              		.loc 1 664 0
 1085 0020 0928     		cmp	r0, #9
 1086              		.loc 1 654 0
 1087 0022 4FF48074 		mov	r4, #256
 1088              	.LVL52:
 1089              		.loc 1 664 0
 1090 0026 FAD1     		bne	.L129
 1091              	.L133:
 1092              		.loc 1 667 0
 1093 0028 0B4D     		ldr	r5, .L134
 1094 002a 2B69     		ldr	r3, [r5, #16]
 1095 002c 23F44073 		bic	r3, r3, #768
 1096 0030 2B61     		str	r3, [r5, #16]
 1097              		.loc 1 668 0
 1098 0032 2B69     		ldr	r3, [r5, #16]
 1099 0034 1C43     		orrs	r4, r4, r3
 1100              	.LVL53:
 1101 0036 2C61     		str	r4, [r5, #16]
 1102              		.loc 1 669 0
 1103 0038 2B69     		ldr	r3, [r5, #16]
 1104 003a 43F00403 		orr	r3, r3, #4
 1105 003e 2B61     		str	r3, [r5, #16]
 1106              		.loc 1 670 0
 1107 0040 2B69     		ldr	r3, [r5, #16]
 1108 0042 43F48033 		orr	r3, r3, #65536
 1109 0046 2B61     		str	r3, [r5, #16]
 1110              		.loc 1 673 0
 1111 0048 FFF7FEFF 		bl	FLASH_WaitForLastOperation
 1112              	.LVL54:
 1113              		.loc 1 676 0
 1114 004c 2B69     		ldr	r3, [r5, #16]
 1115 004e 23F00403 		bic	r3, r3, #4
 1116 0052 2B61     		str	r3, [r5, #16]
 1117              		.loc 1 681 0
 1118 0054 38BD     		pop	{r3, r4, r5, pc}
 1119              	.L135:
 1120 0056 00BF     		.align	2
 1121              	.L134:
 1122 0058 003C0240 		.word	1073888256
 1123              		.cfi_endproc
 1124              	.LFE122:
 1125              		.size	FLASH_EraseAllBank1Sectors, .-FLASH_EraseAllBank1Sectors
 1126 005c AFF30080 		.section	.text.FLASH_EraseAllBank2Sectors,"ax",%progbits
 1127              		.align	2
 1128              		.p2align 4,,15
 1129              		.global	FLASH_EraseAllBank2Sectors
ARM GAS  /tmp/ccQvsvFG.s 			page 21


 1130              		.thumb
 1131              		.thumb_func
 1132              		.type	FLASH_EraseAllBank2Sectors, %function
 1133              	FLASH_EraseAllBank2Sectors:
 1134              	.LFB123:
 1135              		.loc 1 707 0
 1136              		.cfi_startproc
 1137              		@ args = 0, pretend = 0, frame = 0
 1138              		@ frame_needed = 0, uses_anonymous_args = 0
 1139              	.LVL55:
 1140 0000 38B5     		push	{r3, r4, r5, lr}
 1141              		.cfi_def_cfa_offset 16
 1142              		.cfi_offset 3, -16
 1143              		.cfi_offset 4, -12
 1144              		.cfi_offset 5, -8
 1145              		.cfi_offset 14, -4
 1146              		.loc 1 707 0
 1147 0002 0446     		mov	r4, r0
 1148              		.loc 1 712 0
 1149 0004 FFF7FEFF 		bl	FLASH_WaitForLastOperation
 1150              	.LVL56:
 1151              		.loc 1 715 0
 1152 0008 3CB1     		cbz	r4, .L137
 1153              		.loc 1 719 0
 1154 000a 012C     		cmp	r4, #1
 1155 000c 08D0     		beq	.L140
 1156              		.loc 1 723 0
 1157 000e 022C     		cmp	r4, #2
 1158              		.loc 1 725 0
 1159 0010 14BF     		ite	ne
 1160 0012 4FF44074 		movne	r4, #768
 1161 0016 4FF40074 		moveq	r4, #512
 1162              	.L137:
 1163              	.LVL57:
 1164              		.loc 1 731 0
 1165 001a 0928     		cmp	r0, #9
 1166 001c 04D0     		beq	.L142
 1167              	.L138:
 1168              		.loc 1 748 0
 1169 001e 38BD     		pop	{r3, r4, r5, pc}
 1170              	.LVL58:
 1171              	.L140:
 1172              		.loc 1 731 0
 1173 0020 0928     		cmp	r0, #9
 1174              		.loc 1 721 0
 1175 0022 4FF48074 		mov	r4, #256
 1176              	.LVL59:
 1177              		.loc 1 731 0
 1178 0026 FAD1     		bne	.L138
 1179              	.L142:
 1180              		.loc 1 734 0
 1181 0028 0B4D     		ldr	r5, .L143
 1182 002a 2B69     		ldr	r3, [r5, #16]
 1183 002c 23F44073 		bic	r3, r3, #768
 1184 0030 2B61     		str	r3, [r5, #16]
 1185              		.loc 1 735 0
 1186 0032 2B69     		ldr	r3, [r5, #16]
ARM GAS  /tmp/ccQvsvFG.s 			page 22


 1187 0034 1C43     		orrs	r4, r4, r3
 1188              	.LVL60:
 1189 0036 2C61     		str	r4, [r5, #16]
 1190              		.loc 1 736 0
 1191 0038 2B69     		ldr	r3, [r5, #16]
 1192 003a 43F40043 		orr	r3, r3, #32768
 1193 003e 2B61     		str	r3, [r5, #16]
 1194              		.loc 1 737 0
 1195 0040 2B69     		ldr	r3, [r5, #16]
 1196 0042 43F48033 		orr	r3, r3, #65536
 1197 0046 2B61     		str	r3, [r5, #16]
 1198              		.loc 1 740 0
 1199 0048 FFF7FEFF 		bl	FLASH_WaitForLastOperation
 1200              	.LVL61:
 1201              		.loc 1 743 0
 1202 004c 2B69     		ldr	r3, [r5, #16]
 1203 004e 23F40043 		bic	r3, r3, #32768
 1204 0052 2B61     		str	r3, [r5, #16]
 1205              		.loc 1 748 0
 1206 0054 38BD     		pop	{r3, r4, r5, pc}
 1207              	.L144:
 1208 0056 00BF     		.align	2
 1209              	.L143:
 1210 0058 003C0240 		.word	1073888256
 1211              		.cfi_endproc
 1212              	.LFE123:
 1213              		.size	FLASH_EraseAllBank2Sectors, .-FLASH_EraseAllBank2Sectors
 1214 005c AFF30080 		.section	.text.FLASH_ProgramDoubleWord,"ax",%progbits
 1215              		.align	2
 1216              		.p2align 4,,15
 1217              		.global	FLASH_ProgramDoubleWord
 1218              		.thumb
 1219              		.thumb_func
 1220              		.type	FLASH_ProgramDoubleWord, %function
 1221              	FLASH_ProgramDoubleWord:
 1222              	.LFB124:
 1223              		.loc 1 764 0
 1224              		.cfi_startproc
 1225              		@ args = 0, pretend = 0, frame = 0
 1226              		@ frame_needed = 0, uses_anonymous_args = 0
 1227              	.LVL62:
 1228 0000 F8B5     		push	{r3, r4, r5, r6, r7, lr}
 1229              		.cfi_def_cfa_offset 24
 1230              		.cfi_offset 3, -24
 1231              		.cfi_offset 4, -20
 1232              		.cfi_offset 5, -16
 1233              		.cfi_offset 6, -12
 1234              		.cfi_offset 7, -8
 1235              		.cfi_offset 14, -4
 1236              		.loc 1 764 0
 1237 0002 0746     		mov	r7, r0
 1238 0004 1446     		mov	r4, r2
 1239 0006 1D46     		mov	r5, r3
 1240              		.loc 1 771 0
 1241 0008 FFF7FEFF 		bl	FLASH_WaitForLastOperation
 1242              	.LVL63:
 1243              		.loc 1 773 0
ARM GAS  /tmp/ccQvsvFG.s 			page 23


 1244 000c 0928     		cmp	r0, #9
 1245 000e 00D0     		beq	.L147
 1246              		.loc 1 790 0
 1247 0010 F8BD     		pop	{r3, r4, r5, r6, r7, pc}
 1248              	.LVL64:
 1249              	.L147:
 1250              		.loc 1 776 0
 1251 0012 0B4E     		ldr	r6, .L148
 1252 0014 3369     		ldr	r3, [r6, #16]
 1253 0016 23F44073 		bic	r3, r3, #768
 1254 001a 3361     		str	r3, [r6, #16]
 1255              		.loc 1 777 0
 1256 001c 3369     		ldr	r3, [r6, #16]
 1257 001e 43F44073 		orr	r3, r3, #768
 1258 0022 3361     		str	r3, [r6, #16]
 1259              		.loc 1 778 0
 1260 0024 3369     		ldr	r3, [r6, #16]
 1261 0026 43F00103 		orr	r3, r3, #1
 1262 002a 3361     		str	r3, [r6, #16]
 1263              		.loc 1 780 0
 1264 002c C7E90045 		strd	r4, [r7]
 1265              		.loc 1 783 0
 1266 0030 FFF7FEFF 		bl	FLASH_WaitForLastOperation
 1267              	.LVL65:
 1268              		.loc 1 786 0
 1269 0034 3369     		ldr	r3, [r6, #16]
 1270 0036 23F00103 		bic	r3, r3, #1
 1271 003a 3361     		str	r3, [r6, #16]
 1272              		.loc 1 790 0
 1273 003c F8BD     		pop	{r3, r4, r5, r6, r7, pc}
 1274              	.LVL66:
 1275              	.L149:
 1276 003e 00BF     		.align	2
 1277              	.L148:
 1278 0040 003C0240 		.word	1073888256
 1279              		.cfi_endproc
 1280              	.LFE124:
 1281              		.size	FLASH_ProgramDoubleWord, .-FLASH_ProgramDoubleWord
 1282 0044 AFF30080 		.section	.text.FLASH_ProgramWord,"ax",%progbits
 1282      AFF30080 
 1282      AFF30080 
 1283              		.align	2
 1284              		.p2align 4,,15
 1285              		.global	FLASH_ProgramWord
 1286              		.thumb
 1287              		.thumb_func
 1288              		.type	FLASH_ProgramWord, %function
 1289              	FLASH_ProgramWord:
 1290              	.LFB125:
 1291              		.loc 1 807 0
 1292              		.cfi_startproc
 1293              		@ args = 0, pretend = 0, frame = 0
 1294              		@ frame_needed = 0, uses_anonymous_args = 0
 1295              	.LVL67:
 1296 0000 70B5     		push	{r4, r5, r6, lr}
 1297              		.cfi_def_cfa_offset 16
 1298              		.cfi_offset 4, -16
ARM GAS  /tmp/ccQvsvFG.s 			page 24


 1299              		.cfi_offset 5, -12
 1300              		.cfi_offset 6, -8
 1301              		.cfi_offset 14, -4
 1302              		.loc 1 807 0
 1303 0002 0546     		mov	r5, r0
 1304 0004 0E46     		mov	r6, r1
 1305              		.loc 1 814 0
 1306 0006 FFF7FEFF 		bl	FLASH_WaitForLastOperation
 1307              	.LVL68:
 1308              		.loc 1 816 0
 1309 000a 0928     		cmp	r0, #9
 1310 000c 00D0     		beq	.L152
 1311              		.loc 1 833 0
 1312 000e 70BD     		pop	{r4, r5, r6, pc}
 1313              	.LVL69:
 1314              	.L152:
 1315              		.loc 1 819 0
 1316 0010 0A4C     		ldr	r4, .L153
 1317 0012 2369     		ldr	r3, [r4, #16]
 1318 0014 23F44073 		bic	r3, r3, #768
 1319 0018 2361     		str	r3, [r4, #16]
 1320              		.loc 1 820 0
 1321 001a 2369     		ldr	r3, [r4, #16]
 1322 001c 43F40073 		orr	r3, r3, #512
 1323 0020 2361     		str	r3, [r4, #16]
 1324              		.loc 1 821 0
 1325 0022 2369     		ldr	r3, [r4, #16]
 1326 0024 43F00103 		orr	r3, r3, #1
 1327 0028 2361     		str	r3, [r4, #16]
 1328              		.loc 1 823 0
 1329 002a 2E60     		str	r6, [r5]
 1330              		.loc 1 826 0
 1331 002c FFF7FEFF 		bl	FLASH_WaitForLastOperation
 1332              	.LVL70:
 1333              		.loc 1 829 0
 1334 0030 2369     		ldr	r3, [r4, #16]
 1335 0032 23F00103 		bic	r3, r3, #1
 1336 0036 2361     		str	r3, [r4, #16]
 1337              		.loc 1 833 0
 1338 0038 70BD     		pop	{r4, r5, r6, pc}
 1339              	.LVL71:
 1340              	.L154:
 1341 003a 00BF     		.align	2
 1342              	.L153:
 1343 003c 003C0240 		.word	1073888256
 1344              		.cfi_endproc
 1345              	.LFE125:
 1346              		.size	FLASH_ProgramWord, .-FLASH_ProgramWord
 1347              		.section	.text.FLASH_ProgramHalfWord,"ax",%progbits
 1348              		.align	2
 1349              		.p2align 4,,15
 1350              		.global	FLASH_ProgramHalfWord
 1351              		.thumb
 1352              		.thumb_func
 1353              		.type	FLASH_ProgramHalfWord, %function
 1354              	FLASH_ProgramHalfWord:
 1355              	.LFB126:
ARM GAS  /tmp/ccQvsvFG.s 			page 25


 1356              		.loc 1 849 0
 1357              		.cfi_startproc
 1358              		@ args = 0, pretend = 0, frame = 0
 1359              		@ frame_needed = 0, uses_anonymous_args = 0
 1360              	.LVL72:
 1361 0000 70B5     		push	{r4, r5, r6, lr}
 1362              		.cfi_def_cfa_offset 16
 1363              		.cfi_offset 4, -16
 1364              		.cfi_offset 5, -12
 1365              		.cfi_offset 6, -8
 1366              		.cfi_offset 14, -4
 1367              		.loc 1 849 0
 1368 0002 0546     		mov	r5, r0
 1369 0004 0E46     		mov	r6, r1
 1370              		.loc 1 856 0
 1371 0006 FFF7FEFF 		bl	FLASH_WaitForLastOperation
 1372              	.LVL73:
 1373              		.loc 1 858 0
 1374 000a 0928     		cmp	r0, #9
 1375 000c 00D0     		beq	.L157
 1376              		.loc 1 875 0
 1377 000e 70BD     		pop	{r4, r5, r6, pc}
 1378              	.LVL74:
 1379              	.L157:
 1380              		.loc 1 861 0
 1381 0010 0A4C     		ldr	r4, .L158
 1382 0012 2369     		ldr	r3, [r4, #16]
 1383 0014 23F44073 		bic	r3, r3, #768
 1384 0018 2361     		str	r3, [r4, #16]
 1385              		.loc 1 862 0
 1386 001a 2369     		ldr	r3, [r4, #16]
 1387 001c 43F48073 		orr	r3, r3, #256
 1388 0020 2361     		str	r3, [r4, #16]
 1389              		.loc 1 863 0
 1390 0022 2369     		ldr	r3, [r4, #16]
 1391 0024 43F00103 		orr	r3, r3, #1
 1392 0028 2361     		str	r3, [r4, #16]
 1393              		.loc 1 865 0
 1394 002a 2E80     		strh	r6, [r5]	@ movhi
 1395              		.loc 1 868 0
 1396 002c FFF7FEFF 		bl	FLASH_WaitForLastOperation
 1397              	.LVL75:
 1398              		.loc 1 871 0
 1399 0030 2369     		ldr	r3, [r4, #16]
 1400 0032 23F00103 		bic	r3, r3, #1
 1401 0036 2361     		str	r3, [r4, #16]
 1402              		.loc 1 875 0
 1403 0038 70BD     		pop	{r4, r5, r6, pc}
 1404              	.LVL76:
 1405              	.L159:
 1406 003a 00BF     		.align	2
 1407              	.L158:
 1408 003c 003C0240 		.word	1073888256
 1409              		.cfi_endproc
 1410              	.LFE126:
 1411              		.size	FLASH_ProgramHalfWord, .-FLASH_ProgramHalfWord
 1412              		.section	.text.FLASH_ProgramByte,"ax",%progbits
ARM GAS  /tmp/ccQvsvFG.s 			page 26


 1413              		.align	2
 1414              		.p2align 4,,15
 1415              		.global	FLASH_ProgramByte
 1416              		.thumb
 1417              		.thumb_func
 1418              		.type	FLASH_ProgramByte, %function
 1419              	FLASH_ProgramByte:
 1420              	.LFB127:
 1421              		.loc 1 891 0
 1422              		.cfi_startproc
 1423              		@ args = 0, pretend = 0, frame = 0
 1424              		@ frame_needed = 0, uses_anonymous_args = 0
 1425              	.LVL77:
 1426 0000 70B5     		push	{r4, r5, r6, lr}
 1427              		.cfi_def_cfa_offset 16
 1428              		.cfi_offset 4, -16
 1429              		.cfi_offset 5, -12
 1430              		.cfi_offset 6, -8
 1431              		.cfi_offset 14, -4
 1432              		.loc 1 891 0
 1433 0002 0546     		mov	r5, r0
 1434 0004 0E46     		mov	r6, r1
 1435              		.loc 1 898 0
 1436 0006 FFF7FEFF 		bl	FLASH_WaitForLastOperation
 1437              	.LVL78:
 1438              		.loc 1 900 0
 1439 000a 0928     		cmp	r0, #9
 1440 000c 00D0     		beq	.L162
 1441              		.loc 1 918 0
 1442 000e 70BD     		pop	{r4, r5, r6, pc}
 1443              	.LVL79:
 1444              	.L162:
 1445              		.loc 1 903 0
 1446 0010 094C     		ldr	r4, .L163
 1447 0012 2369     		ldr	r3, [r4, #16]
 1448 0014 23F44073 		bic	r3, r3, #768
 1449 0018 2361     		str	r3, [r4, #16]
 1450              		.loc 1 904 0
 1451 001a 2369     		ldr	r3, [r4, #16]
 1452 001c 2361     		str	r3, [r4, #16]
 1453              		.loc 1 905 0
 1454 001e 2369     		ldr	r3, [r4, #16]
 1455 0020 43F00103 		orr	r3, r3, #1
 1456 0024 2361     		str	r3, [r4, #16]
 1457              		.loc 1 907 0
 1458 0026 2E70     		strb	r6, [r5]
 1459              		.loc 1 910 0
 1460 0028 FFF7FEFF 		bl	FLASH_WaitForLastOperation
 1461              	.LVL80:
 1462              		.loc 1 913 0
 1463 002c 2369     		ldr	r3, [r4, #16]
 1464 002e 23F00103 		bic	r3, r3, #1
 1465 0032 2361     		str	r3, [r4, #16]
 1466              		.loc 1 918 0
 1467 0034 70BD     		pop	{r4, r5, r6, pc}
 1468              	.LVL81:
 1469              	.L164:
ARM GAS  /tmp/ccQvsvFG.s 			page 27


 1470 0036 00BF     		.align	2
 1471              	.L163:
 1472 0038 003C0240 		.word	1073888256
 1473              		.cfi_endproc
 1474              	.LFE127:
 1475              		.size	FLASH_ProgramByte, .-FLASH_ProgramByte
 1476 003c AFF30080 		.section	.text.FLASH_OB_WRPConfig,"ax",%progbits
 1477              		.align	2
 1478              		.p2align 4,,15
 1479              		.global	FLASH_OB_WRPConfig
 1480              		.thumb
 1481              		.thumb_func
 1482              		.type	FLASH_OB_WRPConfig, %function
 1483              	FLASH_OB_WRPConfig:
 1484              	.LFB130:
 1485              		.loc 1 1028 0
 1486              		.cfi_startproc
 1487              		@ args = 0, pretend = 0, frame = 0
 1488              		@ frame_needed = 0, uses_anonymous_args = 0
 1489              	.LVL82:
 1490 0000 38B5     		push	{r3, r4, r5, lr}
 1491              		.cfi_def_cfa_offset 16
 1492              		.cfi_offset 3, -16
 1493              		.cfi_offset 4, -12
 1494              		.cfi_offset 5, -8
 1495              		.cfi_offset 14, -4
 1496              		.loc 1 1028 0
 1497 0002 0546     		mov	r5, r0
 1498 0004 0C46     		mov	r4, r1
 1499              		.loc 1 1035 0
 1500 0006 FFF7FEFF 		bl	FLASH_WaitForLastOperation
 1501              	.LVL83:
 1502              		.loc 1 1037 0
 1503 000a 0928     		cmp	r0, #9
 1504 000c 00D0     		beq	.L168
 1505 000e 38BD     		pop	{r3, r4, r5, pc}
 1506              	.LVL84:
 1507              	.L168:
 1508              		.loc 1 1041 0
 1509 0010 054B     		ldr	r3, .L170
 1510 0012 1A88     		ldrh	r2, [r3]
 1511              		.loc 1 1039 0
 1512 0014 1CB9     		cbnz	r4, .L169
 1513              		.loc 1 1045 0
 1514 0016 1543     		orrs	r5, r5, r2
 1515              	.LVL85:
 1516 0018 ADB2     		uxth	r5, r5
 1517 001a 1D80     		strh	r5, [r3]	@ movhi
 1518 001c 38BD     		pop	{r3, r4, r5, pc}
 1519              	.LVL86:
 1520              	.L169:
 1521              		.loc 1 1041 0
 1522 001e 92B2     		uxth	r2, r2
 1523 0020 22EA0505 		bic	r5, r2, r5
 1524              	.LVL87:
 1525 0024 1D80     		strh	r5, [r3]	@ movhi
 1526 0026 38BD     		pop	{r3, r4, r5, pc}
ARM GAS  /tmp/ccQvsvFG.s 			page 28


 1527              	.L171:
 1528              		.align	2
 1529              	.L170:
 1530 0028 163C0240 		.word	1073888278
 1531              		.cfi_endproc
 1532              	.LFE130:
 1533              		.size	FLASH_OB_WRPConfig, .-FLASH_OB_WRPConfig
 1534 002c AFF30080 		.section	.text.FLASH_OB_WRP1Config,"ax",%progbits
 1535              		.align	2
 1536              		.p2align 4,,15
 1537              		.global	FLASH_OB_WRP1Config
 1538              		.thumb
 1539              		.thumb_func
 1540              		.type	FLASH_OB_WRP1Config, %function
 1541              	FLASH_OB_WRP1Config:
 1542              	.LFB131:
 1543              		.loc 1 1070 0
 1544              		.cfi_startproc
 1545              		@ args = 0, pretend = 0, frame = 0
 1546              		@ frame_needed = 0, uses_anonymous_args = 0
 1547              	.LVL88:
 1548 0000 38B5     		push	{r3, r4, r5, lr}
 1549              		.cfi_def_cfa_offset 16
 1550              		.cfi_offset 3, -16
 1551              		.cfi_offset 4, -12
 1552              		.cfi_offset 5, -8
 1553              		.cfi_offset 14, -4
 1554              		.loc 1 1070 0
 1555 0002 0546     		mov	r5, r0
 1556 0004 0C46     		mov	r4, r1
 1557              		.loc 1 1077 0
 1558 0006 FFF7FEFF 		bl	FLASH_WaitForLastOperation
 1559              	.LVL89:
 1560              		.loc 1 1079 0
 1561 000a 0928     		cmp	r0, #9
 1562 000c 00D0     		beq	.L175
 1563 000e 38BD     		pop	{r3, r4, r5, pc}
 1564              	.LVL90:
 1565              	.L175:
 1566              		.loc 1 1083 0
 1567 0010 054B     		ldr	r3, .L177
 1568 0012 1A88     		ldrh	r2, [r3]
 1569              		.loc 1 1081 0
 1570 0014 1CB9     		cbnz	r4, .L176
 1571              		.loc 1 1087 0
 1572 0016 1543     		orrs	r5, r5, r2
 1573              	.LVL91:
 1574 0018 ADB2     		uxth	r5, r5
 1575 001a 1D80     		strh	r5, [r3]	@ movhi
 1576 001c 38BD     		pop	{r3, r4, r5, pc}
 1577              	.LVL92:
 1578              	.L176:
 1579              		.loc 1 1083 0
 1580 001e 92B2     		uxth	r2, r2
 1581 0020 22EA0505 		bic	r5, r2, r5
 1582              	.LVL93:
 1583 0024 1D80     		strh	r5, [r3]	@ movhi
ARM GAS  /tmp/ccQvsvFG.s 			page 29


 1584 0026 38BD     		pop	{r3, r4, r5, pc}
 1585              	.L178:
 1586              		.align	2
 1587              	.L177:
 1588 0028 1A3C0240 		.word	1073888282
 1589              		.cfi_endproc
 1590              	.LFE131:
 1591              		.size	FLASH_OB_WRP1Config, .-FLASH_OB_WRP1Config
 1592 002c AFF30080 		.section	.text.FLASH_OB_PCROPConfig,"ax",%progbits
 1593              		.align	2
 1594              		.p2align 4,,15
 1595              		.global	FLASH_OB_PCROPConfig
 1596              		.thumb
 1597              		.thumb_func
 1598              		.type	FLASH_OB_PCROPConfig, %function
 1599              	FLASH_OB_PCROPConfig:
 1600              	.LFB133:
 1601              		.loc 1 1150 0
 1602              		.cfi_startproc
 1603              		@ args = 0, pretend = 0, frame = 0
 1604              		@ frame_needed = 0, uses_anonymous_args = 0
 1605              	.LVL94:
 1606 0000 38B5     		push	{r3, r4, r5, lr}
 1607              		.cfi_def_cfa_offset 16
 1608              		.cfi_offset 3, -16
 1609              		.cfi_offset 4, -12
 1610              		.cfi_offset 5, -8
 1611              		.cfi_offset 14, -4
 1612              		.loc 1 1150 0
 1613 0002 0546     		mov	r5, r0
 1614 0004 0C46     		mov	r4, r1
 1615              		.loc 1 1157 0
 1616 0006 FFF7FEFF 		bl	FLASH_WaitForLastOperation
 1617              	.LVL95:
 1618              		.loc 1 1159 0
 1619 000a 0928     		cmp	r0, #9
 1620 000c 00D0     		beq	.L182
 1621 000e 38BD     		pop	{r3, r4, r5, pc}
 1622              	.LVL96:
 1623              	.L182:
 1624              		.loc 1 1163 0
 1625 0010 054B     		ldr	r3, .L184
 1626 0012 1A88     		ldrh	r2, [r3]
 1627              		.loc 1 1161 0
 1628 0014 24B9     		cbnz	r4, .L183
 1629              		.loc 1 1167 0
 1630 0016 92B2     		uxth	r2, r2
 1631 0018 22EA0505 		bic	r5, r2, r5
 1632              	.LVL97:
 1633 001c 1D80     		strh	r5, [r3]	@ movhi
 1634 001e 38BD     		pop	{r3, r4, r5, pc}
 1635              	.LVL98:
 1636              	.L183:
 1637              		.loc 1 1163 0
 1638 0020 1543     		orrs	r5, r5, r2
 1639              	.LVL99:
 1640 0022 ADB2     		uxth	r5, r5
ARM GAS  /tmp/ccQvsvFG.s 			page 30


 1641 0024 1D80     		strh	r5, [r3]	@ movhi
 1642 0026 38BD     		pop	{r3, r4, r5, pc}
 1643              	.L185:
 1644              		.align	2
 1645              	.L184:
 1646 0028 163C0240 		.word	1073888278
 1647              		.cfi_endproc
 1648              	.LFE133:
 1649              		.size	FLASH_OB_PCROPConfig, .-FLASH_OB_PCROPConfig
 1650 002c AFF30080 		.section	.text.FLASH_OB_PCROP1Config,"ax",%progbits
 1651              		.align	2
 1652              		.p2align 4,,15
 1653              		.global	FLASH_OB_PCROP1Config
 1654              		.thumb
 1655              		.thumb_func
 1656              		.type	FLASH_OB_PCROP1Config, %function
 1657              	FLASH_OB_PCROP1Config:
 1658              	.LFB134:
 1659              		.loc 1 1187 0
 1660              		.cfi_startproc
 1661              		@ args = 0, pretend = 0, frame = 0
 1662              		@ frame_needed = 0, uses_anonymous_args = 0
 1663              	.LVL100:
 1664 0000 38B5     		push	{r3, r4, r5, lr}
 1665              		.cfi_def_cfa_offset 16
 1666              		.cfi_offset 3, -16
 1667              		.cfi_offset 4, -12
 1668              		.cfi_offset 5, -8
 1669              		.cfi_offset 14, -4
 1670              		.loc 1 1187 0
 1671 0002 0546     		mov	r5, r0
 1672 0004 0C46     		mov	r4, r1
 1673              		.loc 1 1194 0
 1674 0006 FFF7FEFF 		bl	FLASH_WaitForLastOperation
 1675              	.LVL101:
 1676              		.loc 1 1196 0
 1677 000a 0928     		cmp	r0, #9
 1678 000c 00D0     		beq	.L189
 1679 000e 38BD     		pop	{r3, r4, r5, pc}
 1680              	.LVL102:
 1681              	.L189:
 1682              		.loc 1 1200 0
 1683 0010 054B     		ldr	r3, .L191
 1684 0012 1A88     		ldrh	r2, [r3]
 1685              		.loc 1 1198 0
 1686 0014 24B9     		cbnz	r4, .L190
 1687              		.loc 1 1204 0
 1688 0016 92B2     		uxth	r2, r2
 1689 0018 22EA0505 		bic	r5, r2, r5
 1690              	.LVL103:
 1691 001c 1D80     		strh	r5, [r3]	@ movhi
 1692 001e 38BD     		pop	{r3, r4, r5, pc}
 1693              	.LVL104:
 1694              	.L190:
 1695              		.loc 1 1200 0
 1696 0020 1543     		orrs	r5, r5, r2
 1697              	.LVL105:
ARM GAS  /tmp/ccQvsvFG.s 			page 31


 1698 0022 ADB2     		uxth	r5, r5
 1699 0024 1D80     		strh	r5, [r3]	@ movhi
 1700 0026 38BD     		pop	{r3, r4, r5, pc}
 1701              	.L192:
 1702              		.align	2
 1703              	.L191:
 1704 0028 1A3C0240 		.word	1073888282
 1705              		.cfi_endproc
 1706              	.LFE134:
 1707              		.size	FLASH_OB_PCROP1Config, .-FLASH_OB_PCROP1Config
 1708 002c AFF30080 		.section	.text.FLASH_OB_RDPConfig,"ax",%progbits
 1709              		.align	2
 1710              		.p2align 4,,15
 1711              		.global	FLASH_OB_RDPConfig
 1712              		.thumb
 1713              		.thumb_func
 1714              		.type	FLASH_OB_RDPConfig, %function
 1715              	FLASH_OB_RDPConfig:
 1716              	.LFB135:
 1717              		.loc 1 1223 0
 1718              		.cfi_startproc
 1719              		@ args = 0, pretend = 0, frame = 0
 1720              		@ frame_needed = 0, uses_anonymous_args = 0
 1721              	.LVL106:
 1722 0000 10B5     		push	{r4, lr}
 1723              		.cfi_def_cfa_offset 8
 1724              		.cfi_offset 4, -8
 1725              		.cfi_offset 14, -4
 1726              		.loc 1 1223 0
 1727 0002 0446     		mov	r4, r0
 1728              		.loc 1 1229 0
 1729 0004 FFF7FEFF 		bl	FLASH_WaitForLastOperation
 1730              	.LVL107:
 1731              		.loc 1 1231 0
 1732 0008 0928     		cmp	r0, #9
 1733              		.loc 1 1233 0
 1734 000a 04BF     		itt	eq
 1735 000c 014B     		ldreq	r3, .L195
 1736 000e 1C70     		strbeq	r4, [r3]
 1737 0010 10BD     		pop	{r4, pc}
 1738              	.L196:
 1739 0012 00BF     		.align	2
 1740              	.L195:
 1741 0014 153C0240 		.word	1073888277
 1742              		.cfi_endproc
 1743              	.LFE135:
 1744              		.size	FLASH_OB_RDPConfig, .-FLASH_OB_RDPConfig
 1745 0018 AFF30080 		.section	.text.FLASH_OB_UserConfig,"ax",%progbits
 1745      AFF30080 
 1746              		.align	2
 1747              		.p2align 4,,15
 1748              		.global	FLASH_OB_UserConfig
 1749              		.thumb
 1750              		.thumb_func
 1751              		.type	FLASH_OB_UserConfig, %function
 1752              	FLASH_OB_UserConfig:
 1753              	.LFB136:
ARM GAS  /tmp/ccQvsvFG.s 			page 32


 1754              		.loc 1 1255 0
 1755              		.cfi_startproc
 1756              		@ args = 0, pretend = 0, frame = 0
 1757              		@ frame_needed = 0, uses_anonymous_args = 0
 1758              	.LVL108:
 1759 0000 70B5     		push	{r4, r5, r6, lr}
 1760              		.cfi_def_cfa_offset 16
 1761              		.cfi_offset 4, -16
 1762              		.cfi_offset 5, -12
 1763              		.cfi_offset 6, -8
 1764              		.cfi_offset 14, -4
 1765              		.loc 1 1255 0
 1766 0002 0646     		mov	r6, r0
 1767 0004 0C46     		mov	r4, r1
 1768 0006 1546     		mov	r5, r2
 1769              		.loc 1 1265 0
 1770 0008 FFF7FEFF 		bl	FLASH_WaitForLastOperation
 1771              	.LVL109:
 1772              		.loc 1 1267 0
 1773 000c 0928     		cmp	r0, #9
 1774 000e 07D1     		bne	.L197
 1775              		.loc 1 1276 0
 1776 0010 044B     		ldr	r3, .L199
 1777 0012 1A78     		ldrb	r2, [r3]	@ zero_extendqisi2
 1778              	.LVL110:
 1779 0014 02F00F02 		and	r2, r2, #15
 1780              	.LVL111:
 1781              		.loc 1 1280 0
 1782 0018 1643     		orrs	r6, r6, r2
 1783 001a 3543     		orrs	r5, r5, r6
 1784 001c 2C43     		orrs	r4, r4, r5
 1785 001e 1C70     		strb	r4, [r3]
 1786              	.L197:
 1787 0020 70BD     		pop	{r4, r5, r6, pc}
 1788              	.L200:
 1789 0022 00BF     		.align	2
 1790              	.L199:
 1791 0024 143C0240 		.word	1073888276
 1792              		.cfi_endproc
 1793              	.LFE136:
 1794              		.size	FLASH_OB_UserConfig, .-FLASH_OB_UserConfig
 1795 0028 AFF30080 		.section	.text.FLASH_OB_Launch,"ax",%progbits
 1795      AFF30080 
 1796              		.align	2
 1797              		.p2align 4,,15
 1798              		.global	FLASH_OB_Launch
 1799              		.thumb
 1800              		.thumb_func
 1801              		.type	FLASH_OB_Launch, %function
 1802              	FLASH_OB_Launch:
 1803              	.LFB139:
 1804              		.loc 1 1334 0
 1805              		.cfi_startproc
 1806              		@ args = 0, pretend = 0, frame = 0
 1807              		@ frame_needed = 0, uses_anonymous_args = 0
 1808              		@ link register save eliminated.
 1809              	.LVL112:
ARM GAS  /tmp/ccQvsvFG.s 			page 33


 1810              		.loc 1 1338 0
 1811 0000 034B     		ldr	r3, .L202
 1812 0002 1A78     		ldrb	r2, [r3]	@ zero_extendqisi2
 1813 0004 42F00202 		orr	r2, r2, #2
 1814 0008 1A70     		strb	r2, [r3]
 1815              		.loc 1 1341 0
 1816 000a FFF7FEBF 		b	FLASH_WaitForLastOperation
 1817              	.LVL113:
 1818              	.L203:
 1819 000e 00BF     		.align	2
 1820              	.L202:
 1821 0010 143C0240 		.word	1073888276
 1822              		.cfi_endproc
 1823              	.LFE139:
 1824              		.size	FLASH_OB_Launch, .-FLASH_OB_Launch
 1825 0014 AFF30080 		.text
 1825      AFF30080 
 1825      AFF30080 
 1826              	.Letext0:
 1827              		.file 2 "/usr/include/newlib/machine/_default_types.h"
 1828              		.file 3 "/usr/include/newlib/stdint.h"
 1829              		.file 4 "ChibiOS_3.0.2/os/ext/CMSIS/ST/stm32f407xx.h"
 1830              		.file 5 "ChibiOS_3.0.2/os/ext/CMSIS/ST/stm32f4xx.h"
 1831              		.file 6 "ChibiOS_3.0.2/ext/stdperiph_stm32f4/inc/stm32f4xx_flash.h"
 1832              		.file 7 "ChibiOS_3.0.2/os/ext/CMSIS/include/core_cm4.h"