ARM GAS  /tmp/ccYjUgc7.s 			page 1


   1              		.syntax unified
   2              		.cpu cortex-m4
   3              		.eabi_attribute 27, 3
   4              		.eabi_attribute 28, 1
   5              		.fpu fpv4-sp-d16
   6              		.eabi_attribute 20, 1
   7              		.eabi_attribute 21, 1
   8              		.eabi_attribute 23, 3
   9              		.eabi_attribute 24, 1
  10              		.eabi_attribute 25, 1
  11              		.eabi_attribute 26, 1
  12              		.eabi_attribute 30, 2
  13              		.eabi_attribute 34, 1
  14              		.eabi_attribute 18, 4
  15              		.thumb
  16              		.file	"stm32_dma.c"
  17              		.text
  18              	.Ltext0:
  19              		.cfi_sections	.debug_frame
  20              		.section	.text.Vector6C,"ax",%progbits
  21              		.align	2
  22              		.p2align 4,,15
  23              		.global	Vector6C
  24              		.thumb
  25              		.thumb_func
  26              		.type	Vector6C, %function
  27              	Vector6C:
  28              	.LFB256:
  29              		.file 1 "ChibiOS_3.0.2/os/hal/ports/STM32/STM32F4xx/stm32_dma.c"
  30              		.loc 1 127 0
  31              		.cfi_startproc
  32              		@ args = 0, pretend = 0, frame = 0
  33              		@ frame_needed = 0, uses_anonymous_args = 0
  34 0000 08B5     		push	{r3, lr}
  35              		.cfi_def_cfa_offset 8
  36              		.cfi_offset 3, -8
  37              		.cfi_offset 14, -4
  38              		.loc 1 132 0
  39 0002 074B     		ldr	r3, .L7
  40              		.loc 1 134 0
  41 0004 074A     		ldr	r2, .L7+4
  42              		.loc 1 132 0
  43 0006 1968     		ldr	r1, [r3]
  44 0008 01F03D01 		and	r1, r1, #61
  45              	.LVL0:
  46              		.loc 1 133 0
  47 000c 9960     		str	r1, [r3, #8]
  48              		.loc 1 134 0
  49 000e 1368     		ldr	r3, [r2]
  50 0010 0BB1     		cbz	r3, .L2
  51              		.loc 1 135 0
  52 0012 5068     		ldr	r0, [r2, #4]
  53 0014 9847     		blx	r3
  54              	.LVL1:
  55              	.L2:
  56              		.loc 1 138 0
  57 0016 BDE80840 		pop	{r3, lr}
ARM GAS  /tmp/ccYjUgc7.s 			page 2


  58              		.loc 1 137 0
  59 001a FFF7FEBF 		b	_port_irq_epilogue
  60              	.LVL2:
  61              	.L8:
  62 001e 00BF     		.align	2
  63              	.L7:
  64 0020 00600240 		.word	1073897472
  65 0024 00000000 		.word	.LANCHOR0
  66              		.cfi_endproc
  67              	.LFE256:
  68              		.size	Vector6C, .-Vector6C
  69 0028 AFF30080 		.section	.text.Vector70,"ax",%progbits
  69      AFF30080 
  70              		.align	2
  71              		.p2align 4,,15
  72              		.global	Vector70
  73              		.thumb
  74              		.thumb_func
  75              		.type	Vector70, %function
  76              	Vector70:
  77              	.LFB257:
  78              		.loc 1 145 0
  79              		.cfi_startproc
  80              		@ args = 0, pretend = 0, frame = 0
  81              		@ frame_needed = 0, uses_anonymous_args = 0
  82              		.loc 1 150 0
  83 0000 084B     		ldr	r3, .L14
  84              		.loc 1 152 0
  85 0002 0948     		ldr	r0, .L14+4
  86              		.loc 1 150 0
  87 0004 1968     		ldr	r1, [r3]
  88              		.loc 1 152 0
  89 0006 8268     		ldr	r2, [r0, #8]
  90              		.loc 1 150 0
  91 0008 8909     		lsrs	r1, r1, #6
  92 000a 01F03D01 		and	r1, r1, #61
  93              	.LVL3:
  94              		.loc 1 145 0
  95 000e 10B5     		push	{r4, lr}
  96              		.cfi_def_cfa_offset 8
  97              		.cfi_offset 4, -8
  98              		.cfi_offset 14, -4
  99              		.loc 1 151 0
 100 0010 8C01     		lsls	r4, r1, #6
 101 0012 9C60     		str	r4, [r3, #8]
 102              		.loc 1 152 0
 103 0014 0AB1     		cbz	r2, .L10
 104              		.loc 1 153 0
 105 0016 C068     		ldr	r0, [r0, #12]
 106 0018 9047     		blx	r2
 107              	.LVL4:
 108              	.L10:
 109              		.loc 1 156 0
 110 001a BDE81040 		pop	{r4, lr}
 111              		.loc 1 155 0
 112 001e FFF7FEBF 		b	_port_irq_epilogue
 113              	.LVL5:
ARM GAS  /tmp/ccYjUgc7.s 			page 3


 114              	.L15:
 115 0022 00BF     		.align	2
 116              	.L14:
 117 0024 00600240 		.word	1073897472
 118 0028 00000000 		.word	.LANCHOR0
 119              		.cfi_endproc
 120              	.LFE257:
 121              		.size	Vector70, .-Vector70
 122 002c AFF30080 		.section	.text.Vector74,"ax",%progbits
 123              		.align	2
 124              		.p2align 4,,15
 125              		.global	Vector74
 126              		.thumb
 127              		.thumb_func
 128              		.type	Vector74, %function
 129              	Vector74:
 130              	.LFB258:
 131              		.loc 1 163 0
 132              		.cfi_startproc
 133              		@ args = 0, pretend = 0, frame = 0
 134              		@ frame_needed = 0, uses_anonymous_args = 0
 135              		.loc 1 168 0
 136 0000 084B     		ldr	r3, .L21
 137              		.loc 1 170 0
 138 0002 0948     		ldr	r0, .L21+4
 139              		.loc 1 168 0
 140 0004 1968     		ldr	r1, [r3]
 141              		.loc 1 170 0
 142 0006 0269     		ldr	r2, [r0, #16]
 143              		.loc 1 168 0
 144 0008 090C     		lsrs	r1, r1, #16
 145 000a 01F03D01 		and	r1, r1, #61
 146              	.LVL6:
 147              		.loc 1 163 0
 148 000e 10B5     		push	{r4, lr}
 149              		.cfi_def_cfa_offset 8
 150              		.cfi_offset 4, -8
 151              		.cfi_offset 14, -4
 152              		.loc 1 169 0
 153 0010 0C04     		lsls	r4, r1, #16
 154 0012 9C60     		str	r4, [r3, #8]
 155              		.loc 1 170 0
 156 0014 0AB1     		cbz	r2, .L17
 157              		.loc 1 171 0
 158 0016 4069     		ldr	r0, [r0, #20]
 159 0018 9047     		blx	r2
 160              	.LVL7:
 161              	.L17:
 162              		.loc 1 174 0
 163 001a BDE81040 		pop	{r4, lr}
 164              		.loc 1 173 0
 165 001e FFF7FEBF 		b	_port_irq_epilogue
 166              	.LVL8:
 167              	.L22:
 168 0022 00BF     		.align	2
 169              	.L21:
 170 0024 00600240 		.word	1073897472
ARM GAS  /tmp/ccYjUgc7.s 			page 4


 171 0028 00000000 		.word	.LANCHOR0
 172              		.cfi_endproc
 173              	.LFE258:
 174              		.size	Vector74, .-Vector74
 175 002c AFF30080 		.section	.text.Vector78,"ax",%progbits
 176              		.align	2
 177              		.p2align 4,,15
 178              		.global	Vector78
 179              		.thumb
 180              		.thumb_func
 181              		.type	Vector78, %function
 182              	Vector78:
 183              	.LFB259:
 184              		.loc 1 181 0
 185              		.cfi_startproc
 186              		@ args = 0, pretend = 0, frame = 0
 187              		@ frame_needed = 0, uses_anonymous_args = 0
 188              		.loc 1 186 0
 189 0000 084B     		ldr	r3, .L28
 190              		.loc 1 188 0
 191 0002 0948     		ldr	r0, .L28+4
 192              		.loc 1 186 0
 193 0004 1968     		ldr	r1, [r3]
 194              		.loc 1 188 0
 195 0006 8269     		ldr	r2, [r0, #24]
 196              		.loc 1 186 0
 197 0008 890D     		lsrs	r1, r1, #22
 198 000a 01F03D01 		and	r1, r1, #61
 199              	.LVL9:
 200              		.loc 1 181 0
 201 000e 10B5     		push	{r4, lr}
 202              		.cfi_def_cfa_offset 8
 203              		.cfi_offset 4, -8
 204              		.cfi_offset 14, -4
 205              		.loc 1 187 0
 206 0010 8C05     		lsls	r4, r1, #22
 207 0012 9C60     		str	r4, [r3, #8]
 208              		.loc 1 188 0
 209 0014 0AB1     		cbz	r2, .L24
 210              		.loc 1 189 0
 211 0016 C069     		ldr	r0, [r0, #28]
 212 0018 9047     		blx	r2
 213              	.LVL10:
 214              	.L24:
 215              		.loc 1 192 0
 216 001a BDE81040 		pop	{r4, lr}
 217              		.loc 1 191 0
 218 001e FFF7FEBF 		b	_port_irq_epilogue
 219              	.LVL11:
 220              	.L29:
 221 0022 00BF     		.align	2
 222              	.L28:
 223 0024 00600240 		.word	1073897472
 224 0028 00000000 		.word	.LANCHOR0
 225              		.cfi_endproc
 226              	.LFE259:
 227              		.size	Vector78, .-Vector78
ARM GAS  /tmp/ccYjUgc7.s 			page 5


 228 002c AFF30080 		.section	.text.Vector7C,"ax",%progbits
 229              		.align	2
 230              		.p2align 4,,15
 231              		.global	Vector7C
 232              		.thumb
 233              		.thumb_func
 234              		.type	Vector7C, %function
 235              	Vector7C:
 236              	.LFB260:
 237              		.loc 1 199 0
 238              		.cfi_startproc
 239              		@ args = 0, pretend = 0, frame = 0
 240              		@ frame_needed = 0, uses_anonymous_args = 0
 241 0000 08B5     		push	{r3, lr}
 242              		.cfi_def_cfa_offset 8
 243              		.cfi_offset 3, -8
 244              		.cfi_offset 14, -4
 245              		.loc 1 204 0
 246 0002 074B     		ldr	r3, .L35
 247              		.loc 1 206 0
 248 0004 0748     		ldr	r0, .L35+4
 249              		.loc 1 204 0
 250 0006 5968     		ldr	r1, [r3, #4]
 251              		.loc 1 206 0
 252 0008 026A     		ldr	r2, [r0, #32]
 253              		.loc 1 204 0
 254 000a 01F03D01 		and	r1, r1, #61
 255              	.LVL12:
 256              		.loc 1 205 0
 257 000e D960     		str	r1, [r3, #12]
 258              		.loc 1 206 0
 259 0010 0AB1     		cbz	r2, .L31
 260              		.loc 1 207 0
 261 0012 406A     		ldr	r0, [r0, #36]
 262 0014 9047     		blx	r2
 263              	.LVL13:
 264              	.L31:
 265              		.loc 1 210 0
 266 0016 BDE80840 		pop	{r3, lr}
 267              		.loc 1 209 0
 268 001a FFF7FEBF 		b	_port_irq_epilogue
 269              	.LVL14:
 270              	.L36:
 271 001e 00BF     		.align	2
 272              	.L35:
 273 0020 00600240 		.word	1073897472
 274 0024 00000000 		.word	.LANCHOR0
 275              		.cfi_endproc
 276              	.LFE260:
 277              		.size	Vector7C, .-Vector7C
 278 0028 AFF30080 		.section	.text.Vector80,"ax",%progbits
 278      AFF30080 
 279              		.align	2
 280              		.p2align 4,,15
 281              		.global	Vector80
 282              		.thumb
 283              		.thumb_func
ARM GAS  /tmp/ccYjUgc7.s 			page 6


 284              		.type	Vector80, %function
 285              	Vector80:
 286              	.LFB261:
 287              		.loc 1 217 0
 288              		.cfi_startproc
 289              		@ args = 0, pretend = 0, frame = 0
 290              		@ frame_needed = 0, uses_anonymous_args = 0
 291              		.loc 1 222 0
 292 0000 084B     		ldr	r3, .L42
 293              		.loc 1 224 0
 294 0002 0948     		ldr	r0, .L42+4
 295              		.loc 1 222 0
 296 0004 5968     		ldr	r1, [r3, #4]
 297              		.loc 1 224 0
 298 0006 826A     		ldr	r2, [r0, #40]
 299              		.loc 1 222 0
 300 0008 8909     		lsrs	r1, r1, #6
 301 000a 01F03D01 		and	r1, r1, #61
 302              	.LVL15:
 303              		.loc 1 217 0
 304 000e 10B5     		push	{r4, lr}
 305              		.cfi_def_cfa_offset 8
 306              		.cfi_offset 4, -8
 307              		.cfi_offset 14, -4
 308              		.loc 1 223 0
 309 0010 8C01     		lsls	r4, r1, #6
 310 0012 DC60     		str	r4, [r3, #12]
 311              		.loc 1 224 0
 312 0014 0AB1     		cbz	r2, .L38
 313              		.loc 1 225 0
 314 0016 C06A     		ldr	r0, [r0, #44]
 315 0018 9047     		blx	r2
 316              	.LVL16:
 317              	.L38:
 318              		.loc 1 228 0
 319 001a BDE81040 		pop	{r4, lr}
 320              		.loc 1 227 0
 321 001e FFF7FEBF 		b	_port_irq_epilogue
 322              	.LVL17:
 323              	.L43:
 324 0022 00BF     		.align	2
 325              	.L42:
 326 0024 00600240 		.word	1073897472
 327 0028 00000000 		.word	.LANCHOR0
 328              		.cfi_endproc
 329              	.LFE261:
 330              		.size	Vector80, .-Vector80
 331 002c AFF30080 		.section	.text.Vector84,"ax",%progbits
 332              		.align	2
 333              		.p2align 4,,15
 334              		.global	Vector84
 335              		.thumb
 336              		.thumb_func
 337              		.type	Vector84, %function
 338              	Vector84:
 339              	.LFB262:
 340              		.loc 1 235 0
ARM GAS  /tmp/ccYjUgc7.s 			page 7


 341              		.cfi_startproc
 342              		@ args = 0, pretend = 0, frame = 0
 343              		@ frame_needed = 0, uses_anonymous_args = 0
 344              		.loc 1 240 0
 345 0000 084B     		ldr	r3, .L49
 346              		.loc 1 242 0
 347 0002 0948     		ldr	r0, .L49+4
 348              		.loc 1 240 0
 349 0004 5968     		ldr	r1, [r3, #4]
 350              		.loc 1 242 0
 351 0006 026B     		ldr	r2, [r0, #48]
 352              		.loc 1 240 0
 353 0008 090C     		lsrs	r1, r1, #16
 354 000a 01F03D01 		and	r1, r1, #61
 355              	.LVL18:
 356              		.loc 1 235 0
 357 000e 10B5     		push	{r4, lr}
 358              		.cfi_def_cfa_offset 8
 359              		.cfi_offset 4, -8
 360              		.cfi_offset 14, -4
 361              		.loc 1 241 0
 362 0010 0C04     		lsls	r4, r1, #16
 363 0012 DC60     		str	r4, [r3, #12]
 364              		.loc 1 242 0
 365 0014 0AB1     		cbz	r2, .L45
 366              		.loc 1 243 0
 367 0016 406B     		ldr	r0, [r0, #52]
 368 0018 9047     		blx	r2
 369              	.LVL19:
 370              	.L45:
 371              		.loc 1 246 0
 372 001a BDE81040 		pop	{r4, lr}
 373              		.loc 1 245 0
 374 001e FFF7FEBF 		b	_port_irq_epilogue
 375              	.LVL20:
 376              	.L50:
 377 0022 00BF     		.align	2
 378              	.L49:
 379 0024 00600240 		.word	1073897472
 380 0028 00000000 		.word	.LANCHOR0
 381              		.cfi_endproc
 382              	.LFE262:
 383              		.size	Vector84, .-Vector84
 384 002c AFF30080 		.section	.text.VectorFC,"ax",%progbits
 385              		.align	2
 386              		.p2align 4,,15
 387              		.global	VectorFC
 388              		.thumb
 389              		.thumb_func
 390              		.type	VectorFC, %function
 391              	VectorFC:
 392              	.LFB263:
 393              		.loc 1 253 0
 394              		.cfi_startproc
 395              		@ args = 0, pretend = 0, frame = 0
 396              		@ frame_needed = 0, uses_anonymous_args = 0
 397              		.loc 1 258 0
ARM GAS  /tmp/ccYjUgc7.s 			page 8


 398 0000 084B     		ldr	r3, .L56
 399              		.loc 1 260 0
 400 0002 0948     		ldr	r0, .L56+4
 401              		.loc 1 258 0
 402 0004 5968     		ldr	r1, [r3, #4]
 403              		.loc 1 260 0
 404 0006 826B     		ldr	r2, [r0, #56]
 405              		.loc 1 258 0
 406 0008 890D     		lsrs	r1, r1, #22
 407 000a 01F03D01 		and	r1, r1, #61
 408              	.LVL21:
 409              		.loc 1 253 0
 410 000e 10B5     		push	{r4, lr}
 411              		.cfi_def_cfa_offset 8
 412              		.cfi_offset 4, -8
 413              		.cfi_offset 14, -4
 414              		.loc 1 259 0
 415 0010 8C05     		lsls	r4, r1, #22
 416 0012 DC60     		str	r4, [r3, #12]
 417              		.loc 1 260 0
 418 0014 0AB1     		cbz	r2, .L52
 419              		.loc 1 261 0
 420 0016 C06B     		ldr	r0, [r0, #60]
 421 0018 9047     		blx	r2
 422              	.LVL22:
 423              	.L52:
 424              		.loc 1 264 0
 425 001a BDE81040 		pop	{r4, lr}
 426              		.loc 1 263 0
 427 001e FFF7FEBF 		b	_port_irq_epilogue
 428              	.LVL23:
 429              	.L57:
 430 0022 00BF     		.align	2
 431              	.L56:
 432 0024 00600240 		.word	1073897472
 433 0028 00000000 		.word	.LANCHOR0
 434              		.cfi_endproc
 435              	.LFE263:
 436              		.size	VectorFC, .-VectorFC
 437 002c AFF30080 		.section	.text.Vector120,"ax",%progbits
 438              		.align	2
 439              		.p2align 4,,15
 440              		.global	Vector120
 441              		.thumb
 442              		.thumb_func
 443              		.type	Vector120, %function
 444              	Vector120:
 445              	.LFB264:
 446              		.loc 1 271 0
 447              		.cfi_startproc
 448              		@ args = 0, pretend = 0, frame = 0
 449              		@ frame_needed = 0, uses_anonymous_args = 0
 450 0000 08B5     		push	{r3, lr}
 451              		.cfi_def_cfa_offset 8
 452              		.cfi_offset 3, -8
 453              		.cfi_offset 14, -4
 454              		.loc 1 276 0
ARM GAS  /tmp/ccYjUgc7.s 			page 9


 455 0002 074B     		ldr	r3, .L63
 456              		.loc 1 278 0
 457 0004 0748     		ldr	r0, .L63+4
 458              		.loc 1 276 0
 459 0006 1968     		ldr	r1, [r3]
 460              		.loc 1 278 0
 461 0008 026C     		ldr	r2, [r0, #64]
 462              		.loc 1 276 0
 463 000a 01F03D01 		and	r1, r1, #61
 464              	.LVL24:
 465              		.loc 1 277 0
 466 000e 9960     		str	r1, [r3, #8]
 467              		.loc 1 278 0
 468 0010 0AB1     		cbz	r2, .L59
 469              		.loc 1 279 0
 470 0012 406C     		ldr	r0, [r0, #68]
 471 0014 9047     		blx	r2
 472              	.LVL25:
 473              	.L59:
 474              		.loc 1 282 0
 475 0016 BDE80840 		pop	{r3, lr}
 476              		.loc 1 281 0
 477 001a FFF7FEBF 		b	_port_irq_epilogue
 478              	.LVL26:
 479              	.L64:
 480 001e 00BF     		.align	2
 481              	.L63:
 482 0020 00640240 		.word	1073898496
 483 0024 00000000 		.word	.LANCHOR0
 484              		.cfi_endproc
 485              	.LFE264:
 486              		.size	Vector120, .-Vector120
 487 0028 AFF30080 		.section	.text.Vector124,"ax",%progbits
 487      AFF30080 
 488              		.align	2
 489              		.p2align 4,,15
 490              		.global	Vector124
 491              		.thumb
 492              		.thumb_func
 493              		.type	Vector124, %function
 494              	Vector124:
 495              	.LFB265:
 496              		.loc 1 289 0
 497              		.cfi_startproc
 498              		@ args = 0, pretend = 0, frame = 0
 499              		@ frame_needed = 0, uses_anonymous_args = 0
 500              		.loc 1 294 0
 501 0000 084B     		ldr	r3, .L70
 502              		.loc 1 296 0
 503 0002 0948     		ldr	r0, .L70+4
 504              		.loc 1 294 0
 505 0004 1968     		ldr	r1, [r3]
 506              		.loc 1 296 0
 507 0006 826C     		ldr	r2, [r0, #72]
 508              		.loc 1 294 0
 509 0008 8909     		lsrs	r1, r1, #6
 510 000a 01F03D01 		and	r1, r1, #61
ARM GAS  /tmp/ccYjUgc7.s 			page 10


 511              	.LVL27:
 512              		.loc 1 289 0
 513 000e 10B5     		push	{r4, lr}
 514              		.cfi_def_cfa_offset 8
 515              		.cfi_offset 4, -8
 516              		.cfi_offset 14, -4
 517              		.loc 1 295 0
 518 0010 8C01     		lsls	r4, r1, #6
 519 0012 9C60     		str	r4, [r3, #8]
 520              		.loc 1 296 0
 521 0014 0AB1     		cbz	r2, .L66
 522              		.loc 1 297 0
 523 0016 C06C     		ldr	r0, [r0, #76]
 524 0018 9047     		blx	r2
 525              	.LVL28:
 526              	.L66:
 527              		.loc 1 300 0
 528 001a BDE81040 		pop	{r4, lr}
 529              		.loc 1 299 0
 530 001e FFF7FEBF 		b	_port_irq_epilogue
 531              	.LVL29:
 532              	.L71:
 533 0022 00BF     		.align	2
 534              	.L70:
 535 0024 00640240 		.word	1073898496
 536 0028 00000000 		.word	.LANCHOR0
 537              		.cfi_endproc
 538              	.LFE265:
 539              		.size	Vector124, .-Vector124
 540 002c AFF30080 		.section	.text.Vector128,"ax",%progbits
 541              		.align	2
 542              		.p2align 4,,15
 543              		.global	Vector128
 544              		.thumb
 545              		.thumb_func
 546              		.type	Vector128, %function
 547              	Vector128:
 548              	.LFB266:
 549              		.loc 1 307 0
 550              		.cfi_startproc
 551              		@ args = 0, pretend = 0, frame = 0
 552              		@ frame_needed = 0, uses_anonymous_args = 0
 553              		.loc 1 312 0
 554 0000 084B     		ldr	r3, .L77
 555              		.loc 1 314 0
 556 0002 0948     		ldr	r0, .L77+4
 557              		.loc 1 312 0
 558 0004 1968     		ldr	r1, [r3]
 559              		.loc 1 314 0
 560 0006 026D     		ldr	r2, [r0, #80]
 561              		.loc 1 312 0
 562 0008 090C     		lsrs	r1, r1, #16
 563 000a 01F03D01 		and	r1, r1, #61
 564              	.LVL30:
 565              		.loc 1 307 0
 566 000e 10B5     		push	{r4, lr}
 567              		.cfi_def_cfa_offset 8
ARM GAS  /tmp/ccYjUgc7.s 			page 11


 568              		.cfi_offset 4, -8
 569              		.cfi_offset 14, -4
 570              		.loc 1 313 0
 571 0010 0C04     		lsls	r4, r1, #16
 572 0012 9C60     		str	r4, [r3, #8]
 573              		.loc 1 314 0
 574 0014 0AB1     		cbz	r2, .L73
 575              		.loc 1 315 0
 576 0016 406D     		ldr	r0, [r0, #84]
 577 0018 9047     		blx	r2
 578              	.LVL31:
 579              	.L73:
 580              		.loc 1 318 0
 581 001a BDE81040 		pop	{r4, lr}
 582              		.loc 1 317 0
 583 001e FFF7FEBF 		b	_port_irq_epilogue
 584              	.LVL32:
 585              	.L78:
 586 0022 00BF     		.align	2
 587              	.L77:
 588 0024 00640240 		.word	1073898496
 589 0028 00000000 		.word	.LANCHOR0
 590              		.cfi_endproc
 591              	.LFE266:
 592              		.size	Vector128, .-Vector128
 593 002c AFF30080 		.section	.text.Vector12C,"ax",%progbits
 594              		.align	2
 595              		.p2align 4,,15
 596              		.global	Vector12C
 597              		.thumb
 598              		.thumb_func
 599              		.type	Vector12C, %function
 600              	Vector12C:
 601              	.LFB267:
 602              		.loc 1 325 0
 603              		.cfi_startproc
 604              		@ args = 0, pretend = 0, frame = 0
 605              		@ frame_needed = 0, uses_anonymous_args = 0
 606              		.loc 1 330 0
 607 0000 084B     		ldr	r3, .L84
 608              		.loc 1 332 0
 609 0002 0948     		ldr	r0, .L84+4
 610              		.loc 1 330 0
 611 0004 1968     		ldr	r1, [r3]
 612              		.loc 1 332 0
 613 0006 826D     		ldr	r2, [r0, #88]
 614              		.loc 1 330 0
 615 0008 890D     		lsrs	r1, r1, #22
 616 000a 01F03D01 		and	r1, r1, #61
 617              	.LVL33:
 618              		.loc 1 325 0
 619 000e 10B5     		push	{r4, lr}
 620              		.cfi_def_cfa_offset 8
 621              		.cfi_offset 4, -8
 622              		.cfi_offset 14, -4
 623              		.loc 1 331 0
 624 0010 8C05     		lsls	r4, r1, #22
ARM GAS  /tmp/ccYjUgc7.s 			page 12


 625 0012 9C60     		str	r4, [r3, #8]
 626              		.loc 1 332 0
 627 0014 0AB1     		cbz	r2, .L80
 628              		.loc 1 333 0
 629 0016 C06D     		ldr	r0, [r0, #92]
 630 0018 9047     		blx	r2
 631              	.LVL34:
 632              	.L80:
 633              		.loc 1 336 0
 634 001a BDE81040 		pop	{r4, lr}
 635              		.loc 1 335 0
 636 001e FFF7FEBF 		b	_port_irq_epilogue
 637              	.LVL35:
 638              	.L85:
 639 0022 00BF     		.align	2
 640              	.L84:
 641 0024 00640240 		.word	1073898496
 642 0028 00000000 		.word	.LANCHOR0
 643              		.cfi_endproc
 644              	.LFE267:
 645              		.size	Vector12C, .-Vector12C
 646 002c AFF30080 		.section	.text.Vector130,"ax",%progbits
 647              		.align	2
 648              		.p2align 4,,15
 649              		.global	Vector130
 650              		.thumb
 651              		.thumb_func
 652              		.type	Vector130, %function
 653              	Vector130:
 654              	.LFB268:
 655              		.loc 1 343 0
 656              		.cfi_startproc
 657              		@ args = 0, pretend = 0, frame = 0
 658              		@ frame_needed = 0, uses_anonymous_args = 0
 659 0000 08B5     		push	{r3, lr}
 660              		.cfi_def_cfa_offset 8
 661              		.cfi_offset 3, -8
 662              		.cfi_offset 14, -4
 663              		.loc 1 348 0
 664 0002 074B     		ldr	r3, .L91
 665              		.loc 1 350 0
 666 0004 0748     		ldr	r0, .L91+4
 667              		.loc 1 348 0
 668 0006 5968     		ldr	r1, [r3, #4]
 669              		.loc 1 350 0
 670 0008 026E     		ldr	r2, [r0, #96]
 671              		.loc 1 348 0
 672 000a 01F03D01 		and	r1, r1, #61
 673              	.LVL36:
 674              		.loc 1 349 0
 675 000e D960     		str	r1, [r3, #12]
 676              		.loc 1 350 0
 677 0010 0AB1     		cbz	r2, .L87
 678              		.loc 1 351 0
 679 0012 406E     		ldr	r0, [r0, #100]
 680 0014 9047     		blx	r2
 681              	.LVL37:
ARM GAS  /tmp/ccYjUgc7.s 			page 13


 682              	.L87:
 683              		.loc 1 354 0
 684 0016 BDE80840 		pop	{r3, lr}
 685              		.loc 1 353 0
 686 001a FFF7FEBF 		b	_port_irq_epilogue
 687              	.LVL38:
 688              	.L92:
 689 001e 00BF     		.align	2
 690              	.L91:
 691 0020 00640240 		.word	1073898496
 692 0024 00000000 		.word	.LANCHOR0
 693              		.cfi_endproc
 694              	.LFE268:
 695              		.size	Vector130, .-Vector130
 696 0028 AFF30080 		.section	.text.Vector150,"ax",%progbits
 696      AFF30080 
 697              		.align	2
 698              		.p2align 4,,15
 699              		.global	Vector150
 700              		.thumb
 701              		.thumb_func
 702              		.type	Vector150, %function
 703              	Vector150:
 704              	.LFB269:
 705              		.loc 1 361 0
 706              		.cfi_startproc
 707              		@ args = 0, pretend = 0, frame = 0
 708              		@ frame_needed = 0, uses_anonymous_args = 0
 709              		.loc 1 366 0
 710 0000 084B     		ldr	r3, .L98
 711              		.loc 1 368 0
 712 0002 0948     		ldr	r0, .L98+4
 713              		.loc 1 366 0
 714 0004 5968     		ldr	r1, [r3, #4]
 715              		.loc 1 368 0
 716 0006 826E     		ldr	r2, [r0, #104]
 717              		.loc 1 366 0
 718 0008 8909     		lsrs	r1, r1, #6
 719 000a 01F03D01 		and	r1, r1, #61
 720              	.LVL39:
 721              		.loc 1 361 0
 722 000e 10B5     		push	{r4, lr}
 723              		.cfi_def_cfa_offset 8
 724              		.cfi_offset 4, -8
 725              		.cfi_offset 14, -4
 726              		.loc 1 367 0
 727 0010 8C01     		lsls	r4, r1, #6
 728 0012 DC60     		str	r4, [r3, #12]
 729              		.loc 1 368 0
 730 0014 0AB1     		cbz	r2, .L94
 731              		.loc 1 369 0
 732 0016 C06E     		ldr	r0, [r0, #108]
 733 0018 9047     		blx	r2
 734              	.LVL40:
 735              	.L94:
 736              		.loc 1 372 0
 737 001a BDE81040 		pop	{r4, lr}
ARM GAS  /tmp/ccYjUgc7.s 			page 14


 738              		.loc 1 371 0
 739 001e FFF7FEBF 		b	_port_irq_epilogue
 740              	.LVL41:
 741              	.L99:
 742 0022 00BF     		.align	2
 743              	.L98:
 744 0024 00640240 		.word	1073898496
 745 0028 00000000 		.word	.LANCHOR0
 746              		.cfi_endproc
 747              	.LFE269:
 748              		.size	Vector150, .-Vector150
 749 002c AFF30080 		.section	.text.Vector154,"ax",%progbits
 750              		.align	2
 751              		.p2align 4,,15
 752              		.global	Vector154
 753              		.thumb
 754              		.thumb_func
 755              		.type	Vector154, %function
 756              	Vector154:
 757              	.LFB270:
 758              		.loc 1 379 0
 759              		.cfi_startproc
 760              		@ args = 0, pretend = 0, frame = 0
 761              		@ frame_needed = 0, uses_anonymous_args = 0
 762              		.loc 1 384 0
 763 0000 084B     		ldr	r3, .L105
 764              		.loc 1 386 0
 765 0002 0948     		ldr	r0, .L105+4
 766              		.loc 1 384 0
 767 0004 5968     		ldr	r1, [r3, #4]
 768              		.loc 1 386 0
 769 0006 026F     		ldr	r2, [r0, #112]
 770              		.loc 1 384 0
 771 0008 090C     		lsrs	r1, r1, #16
 772 000a 01F03D01 		and	r1, r1, #61
 773              	.LVL42:
 774              		.loc 1 379 0
 775 000e 10B5     		push	{r4, lr}
 776              		.cfi_def_cfa_offset 8
 777              		.cfi_offset 4, -8
 778              		.cfi_offset 14, -4
 779              		.loc 1 385 0
 780 0010 0C04     		lsls	r4, r1, #16
 781 0012 DC60     		str	r4, [r3, #12]
 782              		.loc 1 386 0
 783 0014 0AB1     		cbz	r2, .L101
 784              		.loc 1 387 0
 785 0016 406F     		ldr	r0, [r0, #116]
 786 0018 9047     		blx	r2
 787              	.LVL43:
 788              	.L101:
 789              		.loc 1 390 0
 790 001a BDE81040 		pop	{r4, lr}
 791              		.loc 1 389 0
 792 001e FFF7FEBF 		b	_port_irq_epilogue
 793              	.LVL44:
 794              	.L106:
ARM GAS  /tmp/ccYjUgc7.s 			page 15


 795 0022 00BF     		.align	2
 796              	.L105:
 797 0024 00640240 		.word	1073898496
 798 0028 00000000 		.word	.LANCHOR0
 799              		.cfi_endproc
 800              	.LFE270:
 801              		.size	Vector154, .-Vector154
 802 002c AFF30080 		.section	.text.Vector158,"ax",%progbits
 803              		.align	2
 804              		.p2align 4,,15
 805              		.global	Vector158
 806              		.thumb
 807              		.thumb_func
 808              		.type	Vector158, %function
 809              	Vector158:
 810              	.LFB271:
 811              		.loc 1 397 0
 812              		.cfi_startproc
 813              		@ args = 0, pretend = 0, frame = 0
 814              		@ frame_needed = 0, uses_anonymous_args = 0
 815              		.loc 1 402 0
 816 0000 084B     		ldr	r3, .L112
 817              		.loc 1 404 0
 818 0002 0948     		ldr	r0, .L112+4
 819              		.loc 1 402 0
 820 0004 5968     		ldr	r1, [r3, #4]
 821              		.loc 1 404 0
 822 0006 826F     		ldr	r2, [r0, #120]
 823              		.loc 1 402 0
 824 0008 890D     		lsrs	r1, r1, #22
 825 000a 01F03D01 		and	r1, r1, #61
 826              	.LVL45:
 827              		.loc 1 397 0
 828 000e 10B5     		push	{r4, lr}
 829              		.cfi_def_cfa_offset 8
 830              		.cfi_offset 4, -8
 831              		.cfi_offset 14, -4
 832              		.loc 1 403 0
 833 0010 8C05     		lsls	r4, r1, #22
 834 0012 DC60     		str	r4, [r3, #12]
 835              		.loc 1 404 0
 836 0014 0AB1     		cbz	r2, .L108
 837              		.loc 1 405 0
 838 0016 C06F     		ldr	r0, [r0, #124]
 839 0018 9047     		blx	r2
 840              	.LVL46:
 841              	.L108:
 842              		.loc 1 408 0
 843 001a BDE81040 		pop	{r4, lr}
 844              		.loc 1 407 0
 845 001e FFF7FEBF 		b	_port_irq_epilogue
 846              	.LVL47:
 847              	.L113:
 848 0022 00BF     		.align	2
 849              	.L112:
 850 0024 00640240 		.word	1073898496
 851 0028 00000000 		.word	.LANCHOR0
ARM GAS  /tmp/ccYjUgc7.s 			page 16


 852              		.cfi_endproc
 853              	.LFE271:
 854              		.size	Vector158, .-Vector158
 855 002c AFF30080 		.section	.text.dmaInit,"ax",%progbits
 856              		.align	2
 857              		.p2align 4,,15
 858              		.global	dmaInit
 859              		.thumb
 860              		.thumb_func
 861              		.type	dmaInit, %function
 862              	dmaInit:
 863              	.LFB272:
 864              		.loc 1 419 0
 865              		.cfi_startproc
 866              		@ args = 0, pretend = 0, frame = 0
 867              		@ frame_needed = 0, uses_anonymous_args = 0
 868              		@ link register save eliminated.
 869              		.loc 1 422 0
 870 0000 0C4B     		ldr	r3, .L118
 871              		.loc 1 419 0
 872 0002 30B4     		push	{r4, r5}
 873              		.cfi_def_cfa_offset 8
 874              		.cfi_offset 4, -8
 875              		.cfi_offset 5, -4
 876              		.loc 1 422 0
 877 0004 0022     		movs	r2, #0
 878 0006 0C4D     		ldr	r5, .L118+4
 879 0008 0C4C     		ldr	r4, .L118+8
 880 000a 1A60     		str	r2, [r3]
 881              	.LVL48:
 882              		.loc 1 424 0
 883 000c 1146     		mov	r1, r2
 884              		.loc 1 422 0
 885 000e 1346     		mov	r3, r2
 886              	.LVL49:
 887              	.L116:
 888              		.loc 1 424 0 discriminator 2
 889 0010 E858     		ldr	r0, [r5, r3]
 890 0012 0C33     		adds	r3, r3, #12
 891              		.loc 1 423 0 discriminator 2
 892 0014 C02B     		cmp	r3, #192
 893              		.loc 1 424 0 discriminator 2
 894 0016 0160     		str	r1, [r0]
 895              		.loc 1 425 0 discriminator 2
 896 0018 A150     		str	r1, [r4, r2]
 897 001a 02F10802 		add	r2, r2, #8
 898              		.loc 1 423 0 discriminator 2
 899 001e F7D1     		bne	.L116
 900              		.loc 1 427 0
 901 0020 0749     		ldr	r1, .L118+12
 902              		.loc 1 429 0
 903 0022 084A     		ldr	r2, .L118+16
 904              		.loc 1 427 0
 905 0024 4FF0FF33 		mov	r3, #-1
 906 0028 8B60     		str	r3, [r1, #8]
 907              		.loc 1 431 0
 908 002a 30BC     		pop	{r4, r5}
ARM GAS  /tmp/ccYjUgc7.s 			page 17


 909              		.loc 1 428 0
 910 002c CB60     		str	r3, [r1, #12]
 911              		.loc 1 429 0
 912 002e 9360     		str	r3, [r2, #8]
 913              		.loc 1 430 0
 914 0030 D360     		str	r3, [r2, #12]
 915              		.loc 1 431 0
 916 0032 7047     		bx	lr
 917              	.L119:
 918              		.align	2
 919              	.L118:
 920 0034 00000000 		.word	.LANCHOR1
 921 0038 00000000 		.word	.LANCHOR2
 922 003c 00000000 		.word	.LANCHOR0
 923 0040 00600240 		.word	1073897472
 924 0044 00640240 		.word	1073898496
 925              		.cfi_endproc
 926              	.LFE272:
 927              		.size	dmaInit, .-dmaInit
 928 0048 AFF30080 		.section	.text.dmaStreamAllocate,"ax",%progbits
 928      AFF30080 
 929              		.align	2
 930              		.p2align 4,,15
 931              		.global	dmaStreamAllocate
 932              		.thumb
 933              		.thumb_func
 934              		.type	dmaStreamAllocate, %function
 935              	dmaStreamAllocate:
 936              	.LFB273:
 937              		.loc 1 460 0
 938              		.cfi_startproc
 939              		@ args = 0, pretend = 0, frame = 0
 940              		@ frame_needed = 0, uses_anonymous_args = 0
 941              	.LVL50:
 942 0000 2DE9F041 		push	{r4, r5, r6, r7, r8, lr}
 943              		.cfi_def_cfa_offset 24
 944              		.cfi_offset 4, -24
 945              		.cfi_offset 5, -20
 946              		.cfi_offset 6, -16
 947              		.cfi_offset 7, -12
 948              		.cfi_offset 8, -8
 949              		.cfi_offset 14, -4
 950              		.loc 1 465 0
 951 0004 204E     		ldr	r6, .L135
 952 0006 447A     		ldrb	r4, [r0, #9]	@ zero_extendqisi2
 953 0008 3768     		ldr	r7, [r6]
 954 000a 0125     		movs	r5, #1
 955 000c 05FA04FC 		lsl	ip, r5, r4
 956 0010 1CEA070F 		tst	ip, r7
 957 0014 32D1     		bne	.L126
 958              		.loc 1 469 0
 959 0016 1D4D     		ldr	r5, .L135+4
 960              		.loc 1 471 0
 961 0018 4CEA0707 		orr	r7, ip, r7
 962              		.loc 1 470 0
 963 001c 05EBC408 		add	r8, r5, r4, lsl #3
 964              		.loc 1 474 0
ARM GAS  /tmp/ccYjUgc7.s 			page 18


 965 0020 17F0FF0F 		tst	r7, #255
 966              		.loc 1 469 0
 967 0024 45F83420 		str	r2, [r5, r4, lsl #3]
 968              		.loc 1 471 0
 969 0028 3760     		str	r7, [r6]
 970              		.loc 1 470 0
 971 002a C8F80430 		str	r3, [r8, #4]
 972              		.loc 1 474 0
 973 002e 04D0     		beq	.L122
 974              		.loc 1 475 0
 975 0030 174B     		ldr	r3, .L135+8
 976              	.LVL51:
 977 0032 1C6B     		ldr	r4, [r3, #48]
 978 0034 44F40014 		orr	r4, r4, #2097152
 979 0038 1C63     		str	r4, [r3, #48]
 980              	.L122:
 981              		.loc 1 476 0
 982 003a 17F47F4F 		tst	r7, #65280
 983 003e 17D1     		bne	.L134
 984              	.L123:
 985              		.loc 1 480 0
 986 0040 0468     		ldr	r4, [r0]
 987 0042 2368     		ldr	r3, [r4]
 988 0044 23F01F03 		bic	r3, r3, #31
 989 0048 2360     		str	r3, [r4]
 990              	.L125:
 991              		.loc 1 480 0 is_stmt 0 discriminator 1
 992 004a 2368     		ldr	r3, [r4]
 993 004c 13F00105 		ands	r5, r3, #1
 994 0050 FBD1     		bne	.L125
 995              		.loc 1 480 0 discriminator 2
 996 0052 067A     		ldrb	r6, [r0, #8]	@ zero_extendqisi2
 997 0054 4368     		ldr	r3, [r0, #4]
 998 0056 3D27     		movs	r7, #61
 999 0058 B740     		lsls	r7, r7, r6
 1000              		.loc 1 482 0 is_stmt 1 discriminator 2
 1001 005a 2126     		movs	r6, #33
 1002              		.loc 1 480 0 discriminator 2
 1003 005c 1F60     		str	r7, [r3]
 1004              		.loc 1 481 0 discriminator 2
 1005 005e 2560     		str	r5, [r4]
 1006              		.loc 1 482 0 discriminator 2
 1007 0060 6661     		str	r6, [r4, #20]
 1008              		.loc 1 485 0 discriminator 2
 1009 0062 72B1     		cbz	r2, .L127
 1010              		.loc 1 486 0
 1011 0064 807A     		ldrb	r0, [r0, #10]	@ zero_extendqisi2
 1012              	.LVL52:
 1013 0066 FFF7FEFF 		bl	nvicEnableVector
 1014              	.LVL53:
 1015              		.loc 1 488 0
 1016 006a 2846     		mov	r0, r5
 1017 006c BDE8F081 		pop	{r4, r5, r6, r7, r8, pc}
 1018              	.LVL54:
 1019              	.L134:
 1020              		.loc 1 477 0
 1021 0070 074B     		ldr	r3, .L135+8
ARM GAS  /tmp/ccYjUgc7.s 			page 19


 1022 0072 1C6B     		ldr	r4, [r3, #48]
 1023 0074 44F48004 		orr	r4, r4, #4194304
 1024 0078 1C63     		str	r4, [r3, #48]
 1025 007a E1E7     		b	.L123
 1026              	.LVL55:
 1027              	.L126:
 1028              		.loc 1 466 0
 1029 007c 2846     		mov	r0, r5
 1030              	.LVL56:
 1031 007e BDE8F081 		pop	{r4, r5, r6, r7, r8, pc}
 1032              	.LVL57:
 1033              	.L127:
 1034              		.loc 1 488 0
 1035 0082 1046     		mov	r0, r2
 1036              	.LVL58:
 1037              		.loc 1 489 0
 1038 0084 BDE8F081 		pop	{r4, r5, r6, r7, r8, pc}
 1039              	.LVL59:
 1040              	.L136:
 1041              		.align	2
 1042              	.L135:
 1043 0088 00000000 		.word	.LANCHOR1
 1044 008c 00000000 		.word	.LANCHOR0
 1045 0090 00380240 		.word	1073887232
 1046              		.cfi_endproc
 1047              	.LFE273:
 1048              		.size	dmaStreamAllocate, .-dmaStreamAllocate
 1049 0094 AFF30080 		.section	.text.dmaStreamRelease,"ax",%progbits
 1049      AFF30080 
 1049      AFF30080 
 1050              		.align	2
 1051              		.p2align 4,,15
 1052              		.global	dmaStreamRelease
 1053              		.thumb
 1054              		.thumb_func
 1055              		.type	dmaStreamRelease, %function
 1056              	dmaStreamRelease:
 1057              	.LFB274:
 1058              		.loc 1 504 0
 1059              		.cfi_startproc
 1060              		@ args = 0, pretend = 0, frame = 0
 1061              		@ frame_needed = 0, uses_anonymous_args = 0
 1062              	.LVL60:
 1063 0000 10B5     		push	{r4, lr}
 1064              		.cfi_def_cfa_offset 8
 1065              		.cfi_offset 4, -8
 1066              		.cfi_offset 14, -4
 1067              		.loc 1 504 0
 1068 0002 0446     		mov	r4, r0
 1069              		.loc 1 513 0
 1070 0004 807A     		ldrb	r0, [r0, #10]	@ zero_extendqisi2
 1071              	.LVL61:
 1072 0006 FFF7FEFF 		bl	nvicDisableVector
 1073              	.LVL62:
 1074              		.loc 1 516 0
 1075 000a 0D4A     		ldr	r2, .L140
 1076 000c 637A     		ldrb	r3, [r4, #9]	@ zero_extendqisi2
ARM GAS  /tmp/ccYjUgc7.s 			page 20


 1077 000e 1168     		ldr	r1, [r2]
 1078 0010 0120     		movs	r0, #1
 1079 0012 00FA03F3 		lsl	r3, r0, r3
 1080 0016 21EA0303 		bic	r3, r1, r3
 1081              		.loc 1 519 0
 1082 001a 13F0FF0F 		tst	r3, #255
 1083              		.loc 1 516 0
 1084 001e 1360     		str	r3, [r2]
 1085              		.loc 1 519 0
 1086 0020 04D1     		bne	.L138
 1087              		.loc 1 520 0
 1088 0022 084A     		ldr	r2, .L140+4
 1089 0024 116B     		ldr	r1, [r2, #48]
 1090 0026 21F40011 		bic	r1, r1, #2097152
 1091 002a 1163     		str	r1, [r2, #48]
 1092              	.L138:
 1093              		.loc 1 521 0
 1094 002c 13F47F4F 		tst	r3, #65280
 1095 0030 04D1     		bne	.L137
 1096              		.loc 1 522 0
 1097 0032 044B     		ldr	r3, .L140+4
 1098 0034 1A6B     		ldr	r2, [r3, #48]
 1099 0036 22F48002 		bic	r2, r2, #4194304
 1100 003a 1A63     		str	r2, [r3, #48]
 1101              	.L137:
 1102 003c 10BD     		pop	{r4, pc}
 1103              	.LVL63:
 1104              	.L141:
 1105 003e 00BF     		.align	2
 1106              	.L140:
 1107 0040 00000000 		.word	.LANCHOR1
 1108 0044 00380240 		.word	1073887232
 1109              		.cfi_endproc
 1110              	.LFE274:
 1111              		.size	dmaStreamRelease, .-dmaStreamRelease
 1112              		.global	_stm32_dma_streams
 1113 0048 AFF30080 		.section	.bss.dma_isr_redir,"aw",%nobits
 1113      AFF30080 
 1114              		.align	2
 1115              		.set	.LANCHOR0,. + 0
 1116              		.type	dma_isr_redir, %object
 1117              		.size	dma_isr_redir, 128
 1118              	dma_isr_redir:
 1119 0000 00000000 		.space	128
 1119      00000000 
 1119      00000000 
 1119      00000000 
 1119      00000000 
 1120              		.section	.rodata._stm32_dma_streams,"a",%progbits
 1121              		.align	2
 1122              		.set	.LANCHOR2,. + 0
 1123              		.type	_stm32_dma_streams, %object
 1124              		.size	_stm32_dma_streams, 192
 1125              	_stm32_dma_streams:
 1126 0000 10600240 		.word	1073897488
 1127 0004 08600240 		.word	1073897480
 1128 0008 00       		.byte	0
ARM GAS  /tmp/ccYjUgc7.s 			page 21


 1129 0009 00       		.byte	0
 1130 000a 0B       		.byte	11
 1131 000b 00       		.space	1
 1132 000c 28600240 		.word	1073897512
 1133 0010 08600240 		.word	1073897480
 1134 0014 06       		.byte	6
 1135 0015 01       		.byte	1
 1136 0016 0C       		.byte	12
 1137 0017 00       		.space	1
 1138 0018 40600240 		.word	1073897536
 1139 001c 08600240 		.word	1073897480
 1140 0020 10       		.byte	16
 1141 0021 02       		.byte	2
 1142 0022 0D       		.byte	13
 1143 0023 00       		.space	1
 1144 0024 58600240 		.word	1073897560
 1145 0028 08600240 		.word	1073897480
 1146 002c 16       		.byte	22
 1147 002d 03       		.byte	3
 1148 002e 0E       		.byte	14
 1149 002f 00       		.space	1
 1150 0030 70600240 		.word	1073897584
 1151 0034 0C600240 		.word	1073897484
 1152 0038 00       		.byte	0
 1153 0039 04       		.byte	4
 1154 003a 0F       		.byte	15
 1155 003b 00       		.space	1
 1156 003c 88600240 		.word	1073897608
 1157 0040 0C600240 		.word	1073897484
 1158 0044 06       		.byte	6
 1159 0045 05       		.byte	5
 1160 0046 10       		.byte	16
 1161 0047 00       		.space	1
 1162 0048 A0600240 		.word	1073897632
 1163 004c 0C600240 		.word	1073897484
 1164 0050 10       		.byte	16
 1165 0051 06       		.byte	6
 1166 0052 11       		.byte	17
 1167 0053 00       		.space	1
 1168 0054 B8600240 		.word	1073897656
 1169 0058 0C600240 		.word	1073897484
 1170 005c 16       		.byte	22
 1171 005d 07       		.byte	7
 1172 005e 2F       		.byte	47
 1173 005f 00       		.space	1
 1174 0060 10640240 		.word	1073898512
 1175 0064 08640240 		.word	1073898504
 1176 0068 00       		.byte	0
 1177 0069 08       		.byte	8
 1178 006a 38       		.byte	56
 1179 006b 00       		.space	1
 1180 006c 28640240 		.word	1073898536
 1181 0070 08640240 		.word	1073898504
 1182 0074 06       		.byte	6
 1183 0075 09       		.byte	9
 1184 0076 39       		.byte	57
 1185 0077 00       		.space	1
ARM GAS  /tmp/ccYjUgc7.s 			page 22


 1186 0078 40640240 		.word	1073898560
 1187 007c 08640240 		.word	1073898504
 1188 0080 10       		.byte	16
 1189 0081 0A       		.byte	10
 1190 0082 3A       		.byte	58
 1191 0083 00       		.space	1
 1192 0084 58640240 		.word	1073898584
 1193 0088 08640240 		.word	1073898504
 1194 008c 16       		.byte	22
 1195 008d 0B       		.byte	11
 1196 008e 3B       		.byte	59
 1197 008f 00       		.space	1
 1198 0090 70640240 		.word	1073898608
 1199 0094 0C640240 		.word	1073898508
 1200 0098 00       		.byte	0
 1201 0099 0C       		.byte	12
 1202 009a 3C       		.byte	60
 1203 009b 00       		.space	1
 1204 009c 88640240 		.word	1073898632
 1205 00a0 0C640240 		.word	1073898508
 1206 00a4 06       		.byte	6
 1207 00a5 0D       		.byte	13
 1208 00a6 44       		.byte	68
 1209 00a7 00       		.space	1
 1210 00a8 A0640240 		.word	1073898656
 1211 00ac 0C640240 		.word	1073898508
 1212 00b0 10       		.byte	16
 1213 00b1 0E       		.byte	14
 1214 00b2 45       		.byte	69
 1215 00b3 00       		.space	1
 1216 00b4 B8640240 		.word	1073898680
 1217 00b8 0C640240 		.word	1073898508
 1218 00bc 16       		.byte	22
 1219 00bd 0F       		.byte	15
 1220 00be 46       		.byte	70
 1221 00bf 00       		.space	1
 1222              		.section	.bss.dma_streams_mask,"aw",%nobits
 1223              		.align	2
 1224              		.set	.LANCHOR1,. + 0
 1225              		.type	dma_streams_mask, %object
 1226              		.size	dma_streams_mask, 4
 1227              	dma_streams_mask:
 1228 0000 00000000 		.space	4
 1229              		.text
 1230              	.Letext0:
 1231              		.file 2 "/usr/lib/gcc/arm-none-eabi/4.8/include/stddef.h"
 1232              		.file 3 "/usr/include/newlib/machine/_default_types.h"
 1233              		.file 4 "/usr/include/newlib/stdint.h"
 1234              		.file 5 "ChibiOS_3.0.2/os/rt/ports/ARMCMx/compilers/GCC/chtypes.h"
 1235              		.file 6 "ChibiOS_3.0.2/os/rt/include/chsystypes.h"
 1236              		.file 7 "ChibiOS_3.0.2/os/rt/include/chschd.h"
 1237              		.file 8 "ChibiOS_3.0.2/os/ext/CMSIS/ST/stm32f407xx.h"
 1238              		.file 9 "ChibiOS_3.0.2/os/rt/ports/ARMCMx/chcore.h"
 1239              		.file 10 "ChibiOS_3.0.2/os/rt/ports/ARMCMx/chcore_v7m.h"
 1240              		.file 11 "ChibiOS_3.0.2/os/rt/include/chtm.h"
 1241              		.file 12 "ChibiOS_3.0.2/os/rt/include/chsem.h"
 1242              		.file 13 "ChibiOS_3.0.2/os/rt/include/chmtx.h"
ARM GAS  /tmp/ccYjUgc7.s 			page 23


 1243              		.file 14 "ChibiOS_3.0.2/os/hal/ports/STM32/STM32F4xx/stm32_dma.h"
 1244              		.file 15 "ChibiOS_3.0.2/os/ext/CMSIS/include/core_cm4.h"
 1245              		.file 16 "ChibiOS_3.0.2/os/hal/ports/common/ARMCMx/nvic.h"
 1246              		.section	.debug_info,"",%progbits
 1247              	.Ldebug_info0:
 1248 0000 DF100000 		.4byte	0x10df
 1249 0004 0400     		.2byte	0x4
 1250 0006 00000000 		.4byte	.Ldebug_abbrev0
 1251 000a 04       		.byte	0x4
 1252 000b 01       		.uleb128 0x1
 1253 000c 03040000 		.4byte	.LASF271
 1254 0010 01       		.byte	0x1
 1255 0011 A40C0000 		.4byte	.LASF272
 1256 0015 A2070000 		.4byte	.LASF273
 1257 0019 00000000 		.4byte	.Ldebug_ranges0+0
 1258 001d 00000000 		.4byte	0
 1259 0021 00000000 		.4byte	.Ldebug_line0
 1260 0025 02       		.uleb128 0x2
 1261 0026 04       		.byte	0x4
 1262 0027 05       		.byte	0x5
 1263 0028 696E7400 		.ascii	"int\000"
 1264 002c 03       		.uleb128 0x3
 1265 002d 0F050000 		.4byte	.LASF2
 1266 0031 02       		.byte	0x2
 1267 0032 D4       		.byte	0xd4
 1268 0033 37000000 		.4byte	0x37
 1269 0037 04       		.uleb128 0x4
 1270 0038 04       		.byte	0x4
 1271 0039 07       		.byte	0x7
 1272 003a 06010000 		.4byte	.LASF0
 1273 003e 04       		.uleb128 0x4
 1274 003f 01       		.byte	0x1
 1275 0040 06       		.byte	0x6
 1276 0041 B9020000 		.4byte	.LASF1
 1277 0045 03       		.uleb128 0x3
 1278 0046 420A0000 		.4byte	.LASF3
 1279 004a 03       		.byte	0x3
 1280 004b 1D       		.byte	0x1d
 1281 004c 50000000 		.4byte	0x50
 1282 0050 04       		.uleb128 0x4
 1283 0051 01       		.byte	0x1
 1284 0052 08       		.byte	0x8
 1285 0053 3A0B0000 		.4byte	.LASF4
 1286 0057 04       		.uleb128 0x4
 1287 0058 02       		.byte	0x2
 1288 0059 05       		.byte	0x5
 1289 005a CD010000 		.4byte	.LASF5
 1290 005e 04       		.uleb128 0x4
 1291 005f 02       		.byte	0x2
 1292 0060 07       		.byte	0x7
 1293 0061 640C0000 		.4byte	.LASF6
 1294 0065 03       		.uleb128 0x3
 1295 0066 60010000 		.4byte	.LASF7
 1296 006a 03       		.byte	0x3
 1297 006b 3F       		.byte	0x3f
 1298 006c 70000000 		.4byte	0x70
 1299 0070 04       		.uleb128 0x4
ARM GAS  /tmp/ccYjUgc7.s 			page 24


 1300 0071 04       		.byte	0x4
 1301 0072 05       		.byte	0x5
 1302 0073 5C090000 		.4byte	.LASF8
 1303 0077 03       		.uleb128 0x3
 1304 0078 480B0000 		.4byte	.LASF9
 1305 007c 03       		.byte	0x3
 1306 007d 41       		.byte	0x41
 1307 007e 82000000 		.4byte	0x82
 1308 0082 04       		.uleb128 0x4
 1309 0083 04       		.byte	0x4
 1310 0084 07       		.byte	0x7
 1311 0085 B20A0000 		.4byte	.LASF10
 1312 0089 04       		.uleb128 0x4
 1313 008a 08       		.byte	0x8
 1314 008b 05       		.byte	0x5
 1315 008c 3F060000 		.4byte	.LASF11
 1316 0090 03       		.uleb128 0x3
 1317 0091 6B050000 		.4byte	.LASF12
 1318 0095 03       		.byte	0x3
 1319 0096 5B       		.byte	0x5b
 1320 0097 9B000000 		.4byte	0x9b
 1321 009b 04       		.uleb128 0x4
 1322 009c 08       		.byte	0x8
 1323 009d 07       		.byte	0x7
 1324 009e 7A030000 		.4byte	.LASF13
 1325 00a2 03       		.uleb128 0x3
 1326 00a3 78060000 		.4byte	.LASF14
 1327 00a7 04       		.byte	0x4
 1328 00a8 2A       		.byte	0x2a
 1329 00a9 45000000 		.4byte	0x45
 1330 00ad 03       		.uleb128 0x3
 1331 00ae E50A0000 		.4byte	.LASF15
 1332 00b2 04       		.byte	0x4
 1333 00b3 41       		.byte	0x41
 1334 00b4 65000000 		.4byte	0x65
 1335 00b8 03       		.uleb128 0x3
 1336 00b9 C5020000 		.4byte	.LASF16
 1337 00bd 04       		.byte	0x4
 1338 00be 42       		.byte	0x42
 1339 00bf 77000000 		.4byte	0x77
 1340 00c3 03       		.uleb128 0x3
 1341 00c4 0A0A0000 		.4byte	.LASF17
 1342 00c8 04       		.byte	0x4
 1343 00c9 4E       		.byte	0x4e
 1344 00ca 90000000 		.4byte	0x90
 1345 00ce 05       		.uleb128 0x5
 1346 00cf AD000000 		.4byte	0xad
 1347 00d3 05       		.uleb128 0x5
 1348 00d4 B8000000 		.4byte	0xb8
 1349 00d8 03       		.uleb128 0x3
 1350 00d9 A1080000 		.4byte	.LASF18
 1351 00dd 05       		.byte	0x5
 1352 00de 45       		.byte	0x45
 1353 00df B8000000 		.4byte	0xb8
 1354 00e3 03       		.uleb128 0x3
 1355 00e4 2E080000 		.4byte	.LASF19
 1356 00e8 05       		.byte	0x5
ARM GAS  /tmp/ccYjUgc7.s 			page 25


 1357 00e9 48       		.byte	0x48
 1358 00ea A2000000 		.4byte	0xa2
 1359 00ee 03       		.uleb128 0x3
 1360 00ef 08060000 		.4byte	.LASF20
 1361 00f3 05       		.byte	0x5
 1362 00f4 49       		.byte	0x49
 1363 00f5 A2000000 		.4byte	0xa2
 1364 00f9 03       		.uleb128 0x3
 1365 00fa AA0A0000 		.4byte	.LASF21
 1366 00fe 05       		.byte	0x5
 1367 00ff 4A       		.byte	0x4a
 1368 0100 A2000000 		.4byte	0xa2
 1369 0104 03       		.uleb128 0x3
 1370 0105 09080000 		.4byte	.LASF22
 1371 0109 05       		.byte	0x5
 1372 010a 4B       		.byte	0x4b
 1373 010b A2000000 		.4byte	0xa2
 1374 010f 03       		.uleb128 0x3
 1375 0110 2C030000 		.4byte	.LASF23
 1376 0114 05       		.byte	0x5
 1377 0115 4C       		.byte	0x4c
 1378 0116 B8000000 		.4byte	0xb8
 1379 011a 03       		.uleb128 0x3
 1380 011b 30070000 		.4byte	.LASF24
 1381 011f 05       		.byte	0x5
 1382 0120 4D       		.byte	0x4d
 1383 0121 AD000000 		.4byte	0xad
 1384 0125 03       		.uleb128 0x3
 1385 0126 DE020000 		.4byte	.LASF25
 1386 012a 05       		.byte	0x5
 1387 012b 4F       		.byte	0x4f
 1388 012c B8000000 		.4byte	0xb8
 1389 0130 03       		.uleb128 0x3
 1390 0131 B0030000 		.4byte	.LASF26
 1391 0135 05       		.byte	0x5
 1392 0136 51       		.byte	0x51
 1393 0137 AD000000 		.4byte	0xad
 1394 013b 03       		.uleb128 0x3
 1395 013c B6000000 		.4byte	.LASF27
 1396 0140 06       		.byte	0x6
 1397 0141 33       		.byte	0x33
 1398 0142 B8000000 		.4byte	0xb8
 1399 0146 03       		.uleb128 0x3
 1400 0147 FA030000 		.4byte	.LASF28
 1401 014b 06       		.byte	0x6
 1402 014c 3F       		.byte	0x3f
 1403 014d 51010000 		.4byte	0x151
 1404 0151 06       		.uleb128 0x6
 1405 0152 A6060000 		.4byte	.LASF50
 1406 0156 48       		.byte	0x48
 1407 0157 07       		.byte	0x7
 1408 0158 C2       		.byte	0xc2
 1409 0159 56020000 		.4byte	0x256
 1410 015d 07       		.uleb128 0x7
 1411 015e E4090000 		.4byte	.LASF29
 1412 0162 07       		.byte	0x7
 1413 0163 C3       		.byte	0xc3
ARM GAS  /tmp/ccYjUgc7.s 			page 26


 1414 0164 61020000 		.4byte	0x261
 1415 0168 00       		.byte	0
 1416 0169 07       		.uleb128 0x7
 1417 016a 900A0000 		.4byte	.LASF30
 1418 016e 07       		.byte	0x7
 1419 016f C5       		.byte	0xc5
 1420 0170 61020000 		.4byte	0x261
 1421 0174 04       		.byte	0x4
 1422 0175 07       		.uleb128 0x7
 1423 0176 5F000000 		.4byte	.LASF31
 1424 017a 07       		.byte	0x7
 1425 017b C7       		.byte	0xc7
 1426 017c 0F010000 		.4byte	0x10f
 1427 0180 08       		.byte	0x8
 1428 0181 07       		.uleb128 0x7
 1429 0182 130A0000 		.4byte	.LASF32
 1430 0186 07       		.byte	0x7
 1431 0187 C8       		.byte	0xc8
 1432 0188 19090000 		.4byte	0x919
 1433 018c 0C       		.byte	0xc
 1434 018d 07       		.uleb128 0x7
 1435 018e DB030000 		.4byte	.LASF33
 1436 0192 07       		.byte	0x7
 1437 0193 CA       		.byte	0xca
 1438 0194 61020000 		.4byte	0x261
 1439 0198 10       		.byte	0x10
 1440 0199 07       		.uleb128 0x7
 1441 019a 5F060000 		.4byte	.LASF34
 1442 019e 07       		.byte	0x7
 1443 019f CB       		.byte	0xcb
 1444 01a0 61020000 		.4byte	0x261
 1445 01a4 14       		.byte	0x14
 1446 01a5 07       		.uleb128 0x7
 1447 01a6 AC050000 		.4byte	.LASF35
 1448 01aa 07       		.byte	0x7
 1449 01ab D2       		.byte	0xd2
 1450 01ac 5E0B0000 		.4byte	0xb5e
 1451 01b0 18       		.byte	0x18
 1452 01b1 07       		.uleb128 0x7
 1453 01b2 67060000 		.4byte	.LASF36
 1454 01b6 07       		.byte	0x7
 1455 01b7 DD       		.byte	0xdd
 1456 01b8 EE000000 		.4byte	0xee
 1457 01bc 1C       		.byte	0x1c
 1458 01bd 07       		.uleb128 0x7
 1459 01be 47070000 		.4byte	.LASF37
 1460 01c2 07       		.byte	0x7
 1461 01c3 E1       		.byte	0xe1
 1462 01c4 E3000000 		.4byte	0xe3
 1463 01c8 1D       		.byte	0x1d
 1464 01c9 07       		.uleb128 0x7
 1465 01ca 290C0000 		.4byte	.LASF38
 1466 01ce 07       		.byte	0x7
 1467 01cf E6       		.byte	0xe6
 1468 01d0 F9000000 		.4byte	0xf9
 1469 01d4 1E       		.byte	0x1e
 1470 01d5 07       		.uleb128 0x7
ARM GAS  /tmp/ccYjUgc7.s 			page 27


 1471 01d6 950B0000 		.4byte	.LASF39
 1472 01da 07       		.byte	0x7
 1473 01db EC       		.byte	0xec
 1474 01dc 04010000 		.4byte	0x104
 1475 01e0 1F       		.byte	0x1f
 1476 01e1 07       		.uleb128 0x7
 1477 01e2 4A000000 		.4byte	.LASF40
 1478 01e6 07       		.byte	0x7
 1479 01e7 F3       		.byte	0xf3
 1480 01e8 700B0000 		.4byte	0xb70
 1481 01ec 20       		.byte	0x20
 1482 01ed 08       		.uleb128 0x8
 1483 01ee 705F7500 		.ascii	"p_u\000"
 1484 01f2 07       		.byte	0x7
 1485 01f3 3101     		.2byte	0x131
 1486 01f5 990A0000 		.4byte	0xa99
 1487 01f9 24       		.byte	0x24
 1488 01fa 09       		.uleb128 0x9
 1489 01fb 4B010000 		.4byte	.LASF41
 1490 01ff 07       		.byte	0x7
 1491 0200 3601     		.2byte	0x136
 1492 0202 67020000 		.4byte	0x267
 1493 0206 28       		.byte	0x28
 1494 0207 09       		.uleb128 0x9
 1495 0208 FB000000 		.4byte	.LASF42
 1496 020c 07       		.byte	0x7
 1497 020d 3C01     		.2byte	0x13c
 1498 020f 8B020000 		.4byte	0x28b
 1499 0213 2C       		.byte	0x2c
 1500 0214 09       		.uleb128 0x9
 1501 0215 28080000 		.4byte	.LASF43
 1502 0219 07       		.byte	0x7
 1503 021a 4001     		.2byte	0x140
 1504 021c 1A010000 		.4byte	0x11a
 1505 0220 34       		.byte	0x34
 1506 0221 09       		.uleb128 0x9
 1507 0222 FF0B0000 		.4byte	.LASF44
 1508 0226 07       		.byte	0x7
 1509 0227 4601     		.2byte	0x146
 1510 0229 25010000 		.4byte	0x125
 1511 022d 38       		.byte	0x38
 1512 022e 09       		.uleb128 0x9
 1513 022f 9C060000 		.4byte	.LASF45
 1514 0233 07       		.byte	0x7
 1515 0234 4D01     		.2byte	0x14d
 1516 0236 580B0000 		.4byte	0xb58
 1517 023a 3C       		.byte	0x3c
 1518 023b 09       		.uleb128 0x9
 1519 023c DA080000 		.4byte	.LASF46
 1520 0240 07       		.byte	0x7
 1521 0241 5101     		.2byte	0x151
 1522 0243 0F010000 		.4byte	0x10f
 1523 0247 40       		.byte	0x40
 1524 0248 09       		.uleb128 0x9
 1525 0249 94060000 		.4byte	.LASF47
 1526 024d 07       		.byte	0x7
 1527 024e 5801     		.2byte	0x158
ARM GAS  /tmp/ccYjUgc7.s 			page 28


 1528 0250 3E030000 		.4byte	0x33e
 1529 0254 44       		.byte	0x44
 1530 0255 00       		.byte	0
 1531 0256 03       		.uleb128 0x3
 1532 0257 77080000 		.4byte	.LASF48
 1533 025b 06       		.byte	0x6
 1534 025c 44       		.byte	0x44
 1535 025d 61020000 		.4byte	0x261
 1536 0261 0A       		.uleb128 0xa
 1537 0262 04       		.byte	0x4
 1538 0263 46010000 		.4byte	0x146
 1539 0267 03       		.uleb128 0x3
 1540 0268 25010000 		.4byte	.LASF49
 1541 026c 06       		.byte	0x6
 1542 026d 49       		.byte	0x49
 1543 026e 72020000 		.4byte	0x272
 1544 0272 06       		.uleb128 0x6
 1545 0273 0A000000 		.4byte	.LASF51
 1546 0277 04       		.byte	0x4
 1547 0278 07       		.byte	0x7
 1548 0279 B0       		.byte	0xb0
 1549 027a 8B020000 		.4byte	0x28b
 1550 027e 07       		.uleb128 0x7
 1551 027f E4090000 		.4byte	.LASF29
 1552 0283 07       		.byte	0x7
 1553 0284 B1       		.byte	0xb1
 1554 0285 61020000 		.4byte	0x261
 1555 0289 00       		.byte	0
 1556 028a 00       		.byte	0
 1557 028b 03       		.uleb128 0x3
 1558 028c 1A000000 		.4byte	.LASF52
 1559 0290 06       		.byte	0x6
 1560 0291 50       		.byte	0x50
 1561 0292 96020000 		.4byte	0x296
 1562 0296 06       		.uleb128 0x6
 1563 0297 E4060000 		.4byte	.LASF53
 1564 029b 08       		.byte	0x8
 1565 029c 07       		.byte	0x7
 1566 029d B7       		.byte	0xb7
 1567 029e BB020000 		.4byte	0x2bb
 1568 02a2 07       		.uleb128 0x7
 1569 02a3 E4090000 		.4byte	.LASF29
 1570 02a7 07       		.byte	0x7
 1571 02a8 B8       		.byte	0xb8
 1572 02a9 61020000 		.4byte	0x261
 1573 02ad 00       		.byte	0
 1574 02ae 07       		.uleb128 0x7
 1575 02af 900A0000 		.4byte	.LASF30
 1576 02b3 07       		.byte	0x7
 1577 02b4 B9       		.byte	0xb9
 1578 02b5 61020000 		.4byte	0x261
 1579 02b9 04       		.byte	0x4
 1580 02ba 00       		.byte	0
 1581 02bb 03       		.uleb128 0x3
 1582 02bc CE0A0000 		.4byte	.LASF54
 1583 02c0 06       		.byte	0x6
 1584 02c1 57       		.byte	0x57
ARM GAS  /tmp/ccYjUgc7.s 			page 29


 1585 02c2 C6020000 		.4byte	0x2c6
 1586 02c6 0B       		.uleb128 0xb
 1587 02c7 E6010000 		.4byte	.LASF55
 1588 02cb 1C       		.byte	0x1c
 1589 02cc 07       		.byte	0x7
 1590 02cd 9001     		.2byte	0x190
 1591 02cf 22030000 		.4byte	0x322
 1592 02d3 09       		.uleb128 0x9
 1593 02d4 FF060000 		.4byte	.LASF56
 1594 02d8 07       		.byte	0x7
 1595 02d9 9101     		.2byte	0x191
 1596 02db 8B020000 		.4byte	0x28b
 1597 02df 00       		.byte	0
 1598 02e0 09       		.uleb128 0x9
 1599 02e1 EA020000 		.4byte	.LASF57
 1600 02e5 07       		.byte	0x7
 1601 02e6 9201     		.2byte	0x192
 1602 02e8 0F010000 		.4byte	0x10f
 1603 02ec 08       		.byte	0x8
 1604 02ed 09       		.uleb128 0x9
 1605 02ee 770C0000 		.4byte	.LASF58
 1606 02f2 07       		.byte	0x7
 1607 02f3 9401     		.2byte	0x194
 1608 02f5 19090000 		.4byte	0x919
 1609 02f9 0C       		.byte	0xc
 1610 02fa 09       		.uleb128 0x9
 1611 02fb EF050000 		.4byte	.LASF59
 1612 02ff 07       		.byte	0x7
 1613 0300 9701     		.2byte	0x197
 1614 0302 61020000 		.4byte	0x261
 1615 0306 10       		.byte	0x10
 1616 0307 09       		.uleb128 0x9
 1617 0308 13080000 		.4byte	.LASF60
 1618 030c 07       		.byte	0x7
 1619 030d 9801     		.2byte	0x198
 1620 030f 61020000 		.4byte	0x261
 1621 0313 14       		.byte	0x14
 1622 0314 09       		.uleb128 0x9
 1623 0315 2B090000 		.4byte	.LASF61
 1624 0319 07       		.byte	0x7
 1625 031a 9B01     		.2byte	0x19b
 1626 031c 61020000 		.4byte	0x261
 1627 0320 18       		.byte	0x18
 1628 0321 00       		.byte	0
 1629 0322 03       		.uleb128 0x3
 1630 0323 71020000 		.4byte	.LASF62
 1631 0327 06       		.byte	0x6
 1632 0328 5C       		.byte	0x5c
 1633 0329 2D030000 		.4byte	0x32d
 1634 032d 0A       		.uleb128 0xa
 1635 032e 04       		.byte	0x4
 1636 032f 33030000 		.4byte	0x333
 1637 0333 0C       		.uleb128 0xc
 1638 0334 3E030000 		.4byte	0x33e
 1639 0338 0D       		.uleb128 0xd
 1640 0339 3E030000 		.4byte	0x33e
 1641 033d 00       		.byte	0
ARM GAS  /tmp/ccYjUgc7.s 			page 30


 1642 033e 0E       		.uleb128 0xe
 1643 033f 04       		.byte	0x4
 1644 0340 03       		.uleb128 0x3
 1645 0341 60070000 		.4byte	.LASF63
 1646 0345 06       		.byte	0x6
 1647 0346 61       		.byte	0x61
 1648 0347 4B030000 		.4byte	0x34b
 1649 034b 0B       		.uleb128 0xb
 1650 034c 3A030000 		.4byte	.LASF64
 1651 0350 14       		.byte	0x14
 1652 0351 07       		.byte	0x7
 1653 0352 6B01     		.2byte	0x16b
 1654 0354 9A030000 		.4byte	0x39a
 1655 0358 09       		.uleb128 0x9
 1656 0359 0A0C0000 		.4byte	.LASF65
 1657 035d 07       		.byte	0x7
 1658 035e 6C01     		.2byte	0x16c
 1659 0360 750B0000 		.4byte	0xb75
 1660 0364 00       		.byte	0
 1661 0365 09       		.uleb128 0x9
 1662 0366 DB0C0000 		.4byte	.LASF66
 1663 036a 07       		.byte	0x7
 1664 036b 6D01     		.2byte	0x16d
 1665 036d 750B0000 		.4byte	0xb75
 1666 0371 04       		.byte	0x4
 1667 0372 09       		.uleb128 0x9
 1668 0373 DC050000 		.4byte	.LASF67
 1669 0377 07       		.byte	0x7
 1670 0378 6E01     		.2byte	0x16e
 1671 037a 3B010000 		.4byte	0x13b
 1672 037e 08       		.byte	0x8
 1673 037f 09       		.uleb128 0x9
 1674 0380 9C0C0000 		.4byte	.LASF68
 1675 0384 07       		.byte	0x7
 1676 0385 6F01     		.2byte	0x16f
 1677 0387 22030000 		.4byte	0x322
 1678 038b 0C       		.byte	0xc
 1679 038c 09       		.uleb128 0x9
 1680 038d F6020000 		.4byte	.LASF69
 1681 0391 07       		.byte	0x7
 1682 0392 7101     		.2byte	0x171
 1683 0394 3E030000 		.4byte	0x33e
 1684 0398 10       		.byte	0x10
 1685 0399 00       		.byte	0
 1686 039a 03       		.uleb128 0x3
 1687 039b 530B0000 		.4byte	.LASF70
 1688 039f 06       		.byte	0x6
 1689 03a0 66       		.byte	0x66
 1690 03a1 A5030000 		.4byte	0x3a5
 1691 03a5 0B       		.uleb128 0xb
 1692 03a6 E3030000 		.4byte	.LASF71
 1693 03aa 10       		.byte	0x10
 1694 03ab 07       		.byte	0x7
 1695 03ac 7B01     		.2byte	0x17b
 1696 03ae E7030000 		.4byte	0x3e7
 1697 03b2 09       		.uleb128 0x9
 1698 03b3 0A0C0000 		.4byte	.LASF65
ARM GAS  /tmp/ccYjUgc7.s 			page 31


 1699 03b7 07       		.byte	0x7
 1700 03b8 7C01     		.2byte	0x17c
 1701 03ba 750B0000 		.4byte	0xb75
 1702 03be 00       		.byte	0
 1703 03bf 09       		.uleb128 0x9
 1704 03c0 DB0C0000 		.4byte	.LASF66
 1705 03c4 07       		.byte	0x7
 1706 03c5 7E01     		.2byte	0x17e
 1707 03c7 750B0000 		.4byte	0xb75
 1708 03cb 04       		.byte	0x4
 1709 03cc 09       		.uleb128 0x9
 1710 03cd DC050000 		.4byte	.LASF67
 1711 03d1 07       		.byte	0x7
 1712 03d2 8001     		.2byte	0x180
 1713 03d4 3B010000 		.4byte	0x13b
 1714 03d8 08       		.byte	0x8
 1715 03d9 09       		.uleb128 0x9
 1716 03da E2000000 		.4byte	.LASF72
 1717 03de 07       		.byte	0x7
 1718 03df 8201     		.2byte	0x182
 1719 03e1 700B0000 		.4byte	0xb70
 1720 03e5 0C       		.byte	0xc
 1721 03e6 00       		.byte	0
 1722 03e7 03       		.uleb128 0x3
 1723 03e8 D5060000 		.4byte	.LASF73
 1724 03ec 06       		.byte	0x6
 1725 03ed 6B       		.byte	0x6b
 1726 03ee F2030000 		.4byte	0x3f2
 1727 03f2 0B       		.uleb128 0xb
 1728 03f3 7A020000 		.4byte	.LASF74
 1729 03f7 04       		.byte	0x4
 1730 03f8 07       		.byte	0x7
 1731 03f9 A201     		.2byte	0x1a2
 1732 03fb 0D040000 		.4byte	0x40d
 1733 03ff 09       		.uleb128 0x9
 1734 0400 3D0D0000 		.4byte	.LASF75
 1735 0404 07       		.byte	0x7
 1736 0405 AA01     		.2byte	0x1aa
 1737 0407 7B0B0000 		.4byte	0xb7b
 1738 040b 00       		.byte	0
 1739 040c 00       		.byte	0
 1740 040d 03       		.uleb128 0x3
 1741 040e 120C0000 		.4byte	.LASF76
 1742 0412 06       		.byte	0x6
 1743 0413 70       		.byte	0x70
 1744 0414 18040000 		.4byte	0x418
 1745 0418 0F       		.uleb128 0xf
 1746 0419 34010000 		.4byte	.LASF77
 1747 041d 5802     		.2byte	0x258
 1748 041f 07       		.byte	0x7
 1749 0420 C201     		.2byte	0x1c2
 1750 0422 74040000 		.4byte	0x474
 1751 0426 09       		.uleb128 0x9
 1752 0427 1E0A0000 		.4byte	.LASF78
 1753 042b 07       		.byte	0x7
 1754 042c C601     		.2byte	0x1c6
 1755 042e BB020000 		.4byte	0x2bb
ARM GAS  /tmp/ccYjUgc7.s 			page 32


 1756 0432 00       		.byte	0
 1757 0433 09       		.uleb128 0x9
 1758 0434 B3010000 		.4byte	.LASF79
 1759 0438 07       		.byte	0x7
 1760 0439 CA01     		.2byte	0x1ca
 1761 043b 9A030000 		.4byte	0x39a
 1762 043f 1C       		.byte	0x1c
 1763 0440 08       		.uleb128 0x8
 1764 0441 64626700 		.ascii	"dbg\000"
 1765 0445 07       		.byte	0x7
 1766 0446 CE01     		.2byte	0x1ce
 1767 0448 E7030000 		.4byte	0x3e7
 1768 044c 2C       		.byte	0x2c
 1769 044d 09       		.uleb128 0x9
 1770 044e 4D080000 		.4byte	.LASF80
 1771 0452 07       		.byte	0x7
 1772 0453 D201     		.2byte	0x1d2
 1773 0455 46010000 		.4byte	0x146
 1774 0459 30       		.byte	0x30
 1775 045a 08       		.uleb128 0x8
 1776 045b 746D00   		.ascii	"tm\000"
 1777 045e 07       		.byte	0x7
 1778 045f D701     		.2byte	0x1d7
 1779 0461 8E0A0000 		.4byte	0xa8e
 1780 0465 78       		.byte	0x78
 1781 0466 09       		.uleb128 0x9
 1782 0467 F4010000 		.4byte	.LASF81
 1783 046b 07       		.byte	0x7
 1784 046c E301     		.2byte	0x1e3
 1785 046e 800B0000 		.4byte	0xb80
 1786 0472 80       		.byte	0x80
 1787 0473 00       		.byte	0
 1788 0474 10       		.uleb128 0x10
 1789 0475 01       		.byte	0x1
 1790 0476 08       		.byte	0x8
 1791 0477 56       		.byte	0x56
 1792 0478 A4060000 		.4byte	0x6a4
 1793 047c 11       		.uleb128 0x11
 1794 047d 9F090000 		.4byte	.LASF82
 1795 0481 72       		.sleb128 -14
 1796 0482 11       		.uleb128 0x11
 1797 0483 A3020000 		.4byte	.LASF83
 1798 0487 74       		.sleb128 -12
 1799 0488 11       		.uleb128 0x11
 1800 0489 70070000 		.4byte	.LASF84
 1801 048d 75       		.sleb128 -11
 1802 048e 11       		.uleb128 0x11
 1803 048f 2A0B0000 		.4byte	.LASF85
 1804 0493 76       		.sleb128 -10
 1805 0494 11       		.uleb128 0x11
 1806 0495 760B0000 		.4byte	.LASF86
 1807 0499 7B       		.sleb128 -5
 1808 049a 11       		.uleb128 0x11
 1809 049b 0D0B0000 		.4byte	.LASF87
 1810 049f 7C       		.sleb128 -4
 1811 04a0 11       		.uleb128 0x11
 1812 04a1 49020000 		.4byte	.LASF88
ARM GAS  /tmp/ccYjUgc7.s 			page 33


 1813 04a5 7E       		.sleb128 -2
 1814 04a6 11       		.uleb128 0x11
 1815 04a7 3E010000 		.4byte	.LASF89
 1816 04ab 7F       		.sleb128 -1
 1817 04ac 11       		.uleb128 0x11
 1818 04ad F5060000 		.4byte	.LASF90
 1819 04b1 00       		.sleb128 0
 1820 04b2 11       		.uleb128 0x11
 1821 04b3 F7070000 		.4byte	.LASF91
 1822 04b7 01       		.sleb128 1
 1823 04b8 11       		.uleb128 0x11
 1824 04b9 CE020000 		.4byte	.LASF92
 1825 04bd 02       		.sleb128 2
 1826 04be 11       		.uleb128 0x11
 1827 04bf 48050000 		.4byte	.LASF93
 1828 04c3 03       		.sleb128 3
 1829 04c4 11       		.uleb128 0x11
 1830 04c5 7C010000 		.4byte	.LASF94
 1831 04c9 04       		.sleb128 4
 1832 04ca 11       		.uleb128 0x11
 1833 04cb 9A020000 		.4byte	.LASF95
 1834 04cf 05       		.sleb128 5
 1835 04d0 11       		.uleb128 0x11
 1836 04d1 95010000 		.4byte	.LASF96
 1837 04d5 06       		.sleb128 6
 1838 04d6 11       		.uleb128 0x11
 1839 04d7 89060000 		.4byte	.LASF97
 1840 04db 07       		.sleb128 7
 1841 04dc 11       		.uleb128 0x11
 1842 04dd 92050000 		.4byte	.LASF98
 1843 04e1 08       		.sleb128 8
 1844 04e2 11       		.uleb128 0x11
 1845 04e3 7D0C0000 		.4byte	.LASF99
 1846 04e7 09       		.sleb128 9
 1847 04e8 11       		.uleb128 0x11
 1848 04e9 D3070000 		.4byte	.LASF100
 1849 04ed 0A       		.sleb128 10
 1850 04ee 11       		.uleb128 0x11
 1851 04ef 6A010000 		.4byte	.LASF101
 1852 04f3 0B       		.sleb128 11
 1853 04f4 11       		.uleb128 0x11
 1854 04f5 65080000 		.4byte	.LASF102
 1855 04f9 0C       		.sleb128 12
 1856 04fa 11       		.uleb128 0x11
 1857 04fb B0060000 		.4byte	.LASF103
 1858 04ff 0D       		.sleb128 13
 1859 0500 11       		.uleb128 0x11
 1860 0501 370C0000 		.4byte	.LASF104
 1861 0505 0E       		.sleb128 14
 1862 0506 11       		.uleb128 0x11
 1863 0507 11060000 		.4byte	.LASF105
 1864 050b 0F       		.sleb128 15
 1865 050c 11       		.uleb128 0x11
 1866 050d 13010000 		.4byte	.LASF106
 1867 0511 10       		.sleb128 16
 1868 0512 11       		.uleb128 0x11
 1869 0513 F8090000 		.4byte	.LASF107
ARM GAS  /tmp/ccYjUgc7.s 			page 34


 1870 0517 11       		.sleb128 17
 1871 0518 11       		.uleb128 0x11
 1872 0519 00080000 		.4byte	.LASF108
 1873 051d 12       		.sleb128 18
 1874 051e 11       		.uleb128 0x11
 1875 051f 58080000 		.4byte	.LASF109
 1876 0523 13       		.sleb128 19
 1877 0524 11       		.uleb128 0x11
 1878 0525 8A080000 		.4byte	.LASF110
 1879 0529 14       		.sleb128 20
 1880 052a 11       		.uleb128 0x11
 1881 052b C4030000 		.4byte	.LASF111
 1882 052f 15       		.sleb128 21
 1883 0530 11       		.uleb128 0x11
 1884 0531 95000000 		.4byte	.LASF112
 1885 0535 16       		.sleb128 22
 1886 0536 11       		.uleb128 0x11
 1887 0537 690B0000 		.4byte	.LASF113
 1888 053b 17       		.sleb128 23
 1889 053c 11       		.uleb128 0x11
 1890 053d 67030000 		.4byte	.LASF114
 1891 0541 18       		.sleb128 24
 1892 0542 11       		.uleb128 0x11
 1893 0543 2A0D0000 		.4byte	.LASF115
 1894 0547 19       		.sleb128 25
 1895 0548 11       		.uleb128 0x11
 1896 0549 8A070000 		.4byte	.LASF116
 1897 054d 1A       		.sleb128 26
 1898 054e 11       		.uleb128 0x11
 1899 054f D7090000 		.4byte	.LASF117
 1900 0553 1B       		.sleb128 27
 1901 0554 11       		.uleb128 0x11
 1902 0555 C40A0000 		.4byte	.LASF118
 1903 0559 1C       		.sleb128 28
 1904 055a 11       		.uleb128 0x11
 1905 055b FE050000 		.4byte	.LASF119
 1906 055f 1D       		.sleb128 29
 1907 0560 11       		.uleb128 0x11
 1908 0561 23020000 		.4byte	.LASF120
 1909 0565 1E       		.sleb128 30
 1910 0566 11       		.uleb128 0x11
 1911 0567 40080000 		.4byte	.LASF121
 1912 056b 1F       		.sleb128 31
 1913 056c 11       		.uleb128 0x11
 1914 056d 720A0000 		.4byte	.LASF122
 1915 0571 20       		.sleb128 32
 1916 0572 11       		.uleb128 0x11
 1917 0573 C5050000 		.4byte	.LASF123
 1918 0577 21       		.sleb128 33
 1919 0578 11       		.uleb128 0x11
 1920 0579 A3000000 		.4byte	.LASF124
 1921 057d 22       		.sleb128 34
 1922 057e 11       		.uleb128 0x11
 1923 057f 5D030000 		.4byte	.LASF125
 1924 0583 23       		.sleb128 35
 1925 0584 11       		.uleb128 0x11
 1926 0585 C90B0000 		.4byte	.LASF126
ARM GAS  /tmp/ccYjUgc7.s 			page 35


 1927 0589 24       		.sleb128 36
 1928 058a 11       		.uleb128 0x11
 1929 058b 65090000 		.4byte	.LASF127
 1930 058f 25       		.sleb128 37
 1931 0590 11       		.uleb128 0x11
 1932 0591 1D050000 		.4byte	.LASF128
 1933 0595 26       		.sleb128 38
 1934 0596 11       		.uleb128 0x11
 1935 0597 1E0D0000 		.4byte	.LASF129
 1936 059b 27       		.sleb128 39
 1937 059c 11       		.uleb128 0x11
 1938 059d D7010000 		.4byte	.LASF130
 1939 05a1 28       		.sleb128 40
 1940 05a2 11       		.uleb128 0x11
 1941 05a3 BA080000 		.4byte	.LASF131
 1942 05a7 29       		.sleb128 41
 1943 05a8 11       		.uleb128 0x11
 1944 05a9 55020000 		.4byte	.LASF132
 1945 05ad 2A       		.sleb128 42
 1946 05ae 11       		.uleb128 0x11
 1947 05af 03020000 		.4byte	.LASF133
 1948 05b3 2B       		.sleb128 43
 1949 05b4 11       		.uleb128 0x11
 1950 05b5 C2060000 		.4byte	.LASF134
 1951 05b9 2C       		.sleb128 44
 1952 05ba 11       		.uleb128 0x11
 1953 05bb DD0B0000 		.4byte	.LASF135
 1954 05bf 2D       		.sleb128 45
 1955 05c0 11       		.uleb128 0x11
 1956 05c1 EB090000 		.4byte	.LASF136
 1957 05c5 2E       		.sleb128 46
 1958 05c6 11       		.uleb128 0x11
 1959 05c7 91030000 		.4byte	.LASF137
 1960 05cb 2F       		.sleb128 47
 1961 05cc 11       		.uleb128 0x11
 1962 05cd 2E0A0000 		.4byte	.LASF138
 1963 05d1 30       		.sleb128 48
 1964 05d2 11       		.uleb128 0x11
 1965 05d3 82000000 		.4byte	.LASF139
 1966 05d7 31       		.sleb128 49
 1967 05d8 11       		.uleb128 0x11
 1968 05d9 8A020000 		.4byte	.LASF140
 1969 05dd 32       		.sleb128 50
 1970 05de 11       		.uleb128 0x11
 1971 05df D2050000 		.4byte	.LASF141
 1972 05e3 33       		.sleb128 51
 1973 05e4 11       		.uleb128 0x11
 1974 05e5 66020000 		.4byte	.LASF142
 1975 05e9 34       		.sleb128 52
 1976 05ea 11       		.uleb128 0x11
 1977 05eb 7D090000 		.4byte	.LASF143
 1978 05ef 35       		.sleb128 53
 1979 05f0 11       		.uleb128 0x11
 1980 05f1 4C0A0000 		.4byte	.LASF144
 1981 05f5 36       		.sleb128 54
 1982 05f6 11       		.uleb128 0x11
 1983 05f7 F50B0000 		.4byte	.LASF145
ARM GAS  /tmp/ccYjUgc7.s 			page 36


 1984 05fb 37       		.sleb128 55
 1985 05fc 11       		.uleb128 0x11
 1986 05fd C0000000 		.4byte	.LASF146
 1987 0601 38       		.sleb128 56
 1988 0602 11       		.uleb128 0x11
 1989 0603 BC090000 		.4byte	.LASF147
 1990 0607 39       		.sleb128 57
 1991 0608 11       		.uleb128 0x11
 1992 0609 4B030000 		.4byte	.LASF148
 1993 060d 3A       		.sleb128 58
 1994 060e 11       		.uleb128 0x11
 1995 060f B70B0000 		.4byte	.LASF149
 1996 0613 3B       		.sleb128 59
 1997 0614 11       		.uleb128 0x11
 1998 0615 1E070000 		.4byte	.LASF150
 1999 0619 3C       		.sleb128 60
 2000 061a 11       		.uleb128 0x11
 2001 061b 620D0000 		.4byte	.LASF151
 2002 061f 3D       		.sleb128 61
 2003 0620 11       		.uleb128 0x11
 2004 0621 ED000000 		.4byte	.LASF152
 2005 0625 3E       		.sleb128 62
 2006 0626 11       		.uleb128 0x11
 2007 0627 570C0000 		.4byte	.LASF153
 2008 062b 3F       		.sleb128 63
 2009 062c 11       		.uleb128 0x11
 2010 062d 9F0B0000 		.4byte	.LASF154
 2011 0631 C000     		.sleb128 64
 2012 0633 11       		.uleb128 0x11
 2013 0634 07070000 		.4byte	.LASF155
 2014 0638 C100     		.sleb128 65
 2015 063a 11       		.uleb128 0x11
 2016 063b B6030000 		.4byte	.LASF156
 2017 063f C200     		.sleb128 66
 2018 0641 11       		.uleb128 0x11
 2019 0642 03030000 		.4byte	.LASF157
 2020 0646 C300     		.sleb128 67
 2021 0648 11       		.uleb128 0x11
 2022 0649 70000000 		.4byte	.LASF158
 2023 064d C400     		.sleb128 68
 2024 064f 11       		.uleb128 0x11
 2025 0650 35090000 		.4byte	.LASF159
 2026 0654 C500     		.sleb128 69
 2027 0656 11       		.uleb128 0x11
 2028 0657 FD040000 		.4byte	.LASF160
 2029 065b C600     		.sleb128 70
 2030 065d 11       		.uleb128 0x11
 2031 065e 840A0000 		.4byte	.LASF161
 2032 0662 C700     		.sleb128 71
 2033 0664 11       		.uleb128 0x11
 2034 0665 4F090000 		.4byte	.LASF162
 2035 0669 C800     		.sleb128 72
 2036 066b 11       		.uleb128 0x11
 2037 066c 3B050000 		.4byte	.LASF163
 2038 0670 C900     		.sleb128 73
 2039 0672 11       		.uleb128 0x11
 2040 0673 0A0D0000 		.4byte	.LASF164
ARM GAS  /tmp/ccYjUgc7.s 			page 37


 2041 0677 CA00     		.sleb128 74
 2042 0679 11       		.uleb128 0x11
 2043 067a BA010000 		.4byte	.LASF165
 2044 067e CB00     		.sleb128 75
 2045 0680 11       		.uleb128 0x11
 2046 0681 F40A0000 		.4byte	.LASF166
 2047 0685 CC00     		.sleb128 76
 2048 0687 11       		.uleb128 0x11
 2049 0688 56050000 		.4byte	.LASF167
 2050 068c CD00     		.sleb128 77
 2051 068e 11       		.uleb128 0x11
 2052 068f 00000000 		.4byte	.LASF168
 2053 0693 CE00     		.sleb128 78
 2054 0695 11       		.uleb128 0x11
 2055 0696 87010000 		.4byte	.LASF169
 2056 069a D000     		.sleb128 80
 2057 069c 11       		.uleb128 0x11
 2058 069d 470D0000 		.4byte	.LASF170
 2059 06a1 D100     		.sleb128 81
 2060 06a3 00       		.byte	0
 2061 06a4 04       		.uleb128 0x4
 2062 06a5 04       		.byte	0x4
 2063 06a6 07       		.byte	0x7
 2064 06a7 A10A0000 		.4byte	.LASF171
 2065 06ab 12       		.uleb128 0x12
 2066 06ac B8000000 		.4byte	0xb8
 2067 06b0 BB060000 		.4byte	0x6bb
 2068 06b4 13       		.uleb128 0x13
 2069 06b5 A4060000 		.4byte	0x6a4
 2070 06b9 01       		.byte	0x1
 2071 06ba 00       		.byte	0
 2072 06bb 14       		.uleb128 0x14
 2073 06bc 18       		.byte	0x18
 2074 06bd 08       		.byte	0x8
 2075 06be 6B01     		.2byte	0x16b
 2076 06c0 12070000 		.4byte	0x712
 2077 06c4 08       		.uleb128 0x8
 2078 06c5 435200   		.ascii	"CR\000"
 2079 06c8 08       		.byte	0x8
 2080 06c9 6D01     		.2byte	0x16d
 2081 06cb D3000000 		.4byte	0xd3
 2082 06cf 00       		.byte	0
 2083 06d0 09       		.uleb128 0x9
 2084 06d1 17020000 		.4byte	.LASF172
 2085 06d5 08       		.byte	0x8
 2086 06d6 6E01     		.2byte	0x16e
 2087 06d8 D3000000 		.4byte	0xd3
 2088 06dc 04       		.byte	0x4
 2089 06dd 08       		.uleb128 0x8
 2090 06de 50415200 		.ascii	"PAR\000"
 2091 06e2 08       		.byte	0x8
 2092 06e3 6F01     		.2byte	0x16f
 2093 06e5 D3000000 		.4byte	0xd3
 2094 06e9 08       		.byte	0x8
 2095 06ea 09       		.uleb128 0x9
 2096 06eb 76050000 		.4byte	.LASF173
 2097 06ef 08       		.byte	0x8
ARM GAS  /tmp/ccYjUgc7.s 			page 38


 2098 06f0 7001     		.2byte	0x170
 2099 06f2 D3000000 		.4byte	0xd3
 2100 06f6 0C       		.byte	0xc
 2101 06f7 09       		.uleb128 0x9
 2102 06f8 7F0A0000 		.4byte	.LASF174
 2103 06fc 08       		.byte	0x8
 2104 06fd 7101     		.2byte	0x171
 2105 06ff D3000000 		.4byte	0xd3
 2106 0703 10       		.byte	0x10
 2107 0704 08       		.uleb128 0x8
 2108 0705 46435200 		.ascii	"FCR\000"
 2109 0709 08       		.byte	0x8
 2110 070a 7201     		.2byte	0x172
 2111 070c D3000000 		.4byte	0xd3
 2112 0710 14       		.byte	0x14
 2113 0711 00       		.byte	0
 2114 0712 15       		.uleb128 0x15
 2115 0713 DE070000 		.4byte	.LASF175
 2116 0717 08       		.byte	0x8
 2117 0718 7301     		.2byte	0x173
 2118 071a BB060000 		.4byte	0x6bb
 2119 071e 14       		.uleb128 0x14
 2120 071f 10       		.byte	0x10
 2121 0720 08       		.byte	0x8
 2122 0721 7501     		.2byte	0x175
 2123 0723 5C070000 		.4byte	0x75c
 2124 0727 09       		.uleb128 0x9
 2125 0728 240C0000 		.4byte	.LASF176
 2126 072c 08       		.byte	0x8
 2127 072d 7701     		.2byte	0x177
 2128 072f D3000000 		.4byte	0xd3
 2129 0733 00       		.byte	0
 2130 0734 09       		.uleb128 0x9
 2131 0735 1B080000 		.4byte	.LASF177
 2132 0739 08       		.byte	0x8
 2133 073a 7801     		.2byte	0x178
 2134 073c D3000000 		.4byte	0xd3
 2135 0740 04       		.byte	0x4
 2136 0741 09       		.uleb128 0x9
 2137 0742 A3030000 		.4byte	.LASF178
 2138 0746 08       		.byte	0x8
 2139 0747 7901     		.2byte	0x179
 2140 0749 D3000000 		.4byte	0xd3
 2141 074d 08       		.byte	0x8
 2142 074e 09       		.uleb128 0x9
 2143 074f 55010000 		.4byte	.LASF179
 2144 0753 08       		.byte	0x8
 2145 0754 7A01     		.2byte	0x17a
 2146 0756 D3000000 		.4byte	0xd3
 2147 075a 0C       		.byte	0xc
 2148 075b 00       		.byte	0
 2149 075c 15       		.uleb128 0x15
 2150 075d 7E070000 		.4byte	.LASF180
 2151 0761 08       		.byte	0x8
 2152 0762 7B01     		.2byte	0x17b
 2153 0764 1E070000 		.4byte	0x71e
 2154 0768 14       		.uleb128 0x14
ARM GAS  /tmp/ccYjUgc7.s 			page 39


 2155 0769 88       		.byte	0x88
 2156 076a 08       		.byte	0x8
 2157 076b 6702     		.2byte	0x267
 2158 076d F7080000 		.4byte	0x8f7
 2159 0771 08       		.uleb128 0x8
 2160 0772 435200   		.ascii	"CR\000"
 2161 0775 08       		.byte	0x8
 2162 0776 6902     		.2byte	0x269
 2163 0778 D3000000 		.4byte	0xd3
 2164 077c 00       		.byte	0
 2165 077d 09       		.uleb128 0x9
 2166 077e 5A0A0000 		.4byte	.LASF181
 2167 0782 08       		.byte	0x8
 2168 0783 6A02     		.2byte	0x26a
 2169 0785 D3000000 		.4byte	0xd3
 2170 0789 04       		.byte	0x4
 2171 078a 09       		.uleb128 0x9
 2172 078b 190A0000 		.4byte	.LASF182
 2173 078f 08       		.byte	0x8
 2174 0790 6B02     		.2byte	0x26b
 2175 0792 D3000000 		.4byte	0xd3
 2176 0796 08       		.byte	0x8
 2177 0797 08       		.uleb128 0x8
 2178 0798 43495200 		.ascii	"CIR\000"
 2179 079c 08       		.byte	0x8
 2180 079d 6C02     		.2byte	0x26c
 2181 079f D3000000 		.4byte	0xd3
 2182 07a3 0C       		.byte	0xc
 2183 07a4 09       		.uleb128 0x9
 2184 07a5 7E0D0000 		.4byte	.LASF183
 2185 07a9 08       		.byte	0x8
 2186 07aa 6D02     		.2byte	0x26d
 2187 07ac D3000000 		.4byte	0xd3
 2188 07b0 10       		.byte	0x10
 2189 07b1 09       		.uleb128 0x9
 2190 07b2 98080000 		.4byte	.LASF184
 2191 07b6 08       		.byte	0x8
 2192 07b7 6E02     		.2byte	0x26e
 2193 07b9 D3000000 		.4byte	0xd3
 2194 07bd 14       		.byte	0x14
 2195 07be 09       		.uleb128 0x9
 2196 07bf D2030000 		.4byte	.LASF185
 2197 07c3 08       		.byte	0x8
 2198 07c4 6F02     		.2byte	0x26f
 2199 07c6 D3000000 		.4byte	0xd3
 2200 07ca 18       		.byte	0x18
 2201 07cb 09       		.uleb128 0x9
 2202 07cc E30C0000 		.4byte	.LASF186
 2203 07d0 08       		.byte	0x8
 2204 07d1 7002     		.2byte	0x270
 2205 07d3 B8000000 		.4byte	0xb8
 2206 07d7 1C       		.byte	0x1c
 2207 07d8 09       		.uleb128 0x9
 2208 07d9 BC050000 		.4byte	.LASF187
 2209 07dd 08       		.byte	0x8
 2210 07de 7102     		.2byte	0x271
 2211 07e0 D3000000 		.4byte	0xd3
ARM GAS  /tmp/ccYjUgc7.s 			page 40


 2212 07e4 20       		.byte	0x20
 2213 07e5 09       		.uleb128 0x9
 2214 07e6 8C000000 		.4byte	.LASF188
 2215 07ea 08       		.byte	0x8
 2216 07eb 7202     		.2byte	0x272
 2217 07ed D3000000 		.4byte	0xd3
 2218 07f1 24       		.byte	0x24
 2219 07f2 09       		.uleb128 0x9
 2220 07f3 E5080000 		.4byte	.LASF189
 2221 07f7 08       		.byte	0x8
 2222 07f8 7302     		.2byte	0x273
 2223 07fa AB060000 		.4byte	0x6ab
 2224 07fe 28       		.byte	0x28
 2225 07ff 09       		.uleb128 0x9
 2226 0800 24030000 		.4byte	.LASF190
 2227 0804 08       		.byte	0x8
 2228 0805 7402     		.2byte	0x274
 2229 0807 D3000000 		.4byte	0xd3
 2230 080b 30       		.byte	0x30
 2231 080c 09       		.uleb128 0x9
 2232 080d 7B050000 		.4byte	.LASF191
 2233 0811 08       		.byte	0x8
 2234 0812 7502     		.2byte	0x275
 2235 0814 D3000000 		.4byte	0xd3
 2236 0818 34       		.byte	0x34
 2237 0819 09       		.uleb128 0x9
 2238 081a 83050000 		.4byte	.LASF192
 2239 081e 08       		.byte	0x8
 2240 081f 7602     		.2byte	0x276
 2241 0821 D3000000 		.4byte	0xd3
 2242 0825 38       		.byte	0x38
 2243 0826 09       		.uleb128 0x9
 2244 0827 EF080000 		.4byte	.LASF193
 2245 082b 08       		.byte	0x8
 2246 082c 7702     		.2byte	0x277
 2247 082e B8000000 		.4byte	0xb8
 2248 0832 3C       		.byte	0x3c
 2249 0833 09       		.uleb128 0x9
 2250 0834 2A000000 		.4byte	.LASF194
 2251 0838 08       		.byte	0x8
 2252 0839 7802     		.2byte	0x278
 2253 083b D3000000 		.4byte	0xd3
 2254 083f 40       		.byte	0x40
 2255 0840 09       		.uleb128 0x9
 2256 0841 20080000 		.4byte	.LASF195
 2257 0845 08       		.byte	0x8
 2258 0846 7902     		.2byte	0x279
 2259 0848 D3000000 		.4byte	0xd3
 2260 084c 44       		.byte	0x44
 2261 084d 09       		.uleb128 0x9
 2262 084e ED0C0000 		.4byte	.LASF196
 2263 0852 08       		.byte	0x8
 2264 0853 7A02     		.2byte	0x27a
 2265 0855 AB060000 		.4byte	0x6ab
 2266 0859 48       		.byte	0x48
 2267 085a 09       		.uleb128 0x9
 2268 085b 36080000 		.4byte	.LASF197
ARM GAS  /tmp/ccYjUgc7.s 			page 41


 2269 085f 08       		.byte	0x8
 2270 0860 7B02     		.2byte	0x27b
 2271 0862 D3000000 		.4byte	0xd3
 2272 0866 50       		.byte	0x50
 2273 0867 09       		.uleb128 0x9
 2274 0868 3F020000 		.4byte	.LASF198
 2275 086c 08       		.byte	0x8
 2276 086d 7C02     		.2byte	0x27c
 2277 086f D3000000 		.4byte	0xd3
 2278 0873 54       		.byte	0x54
 2279 0874 09       		.uleb128 0x9
 2280 0875 970A0000 		.4byte	.LASF199
 2281 0879 08       		.byte	0x8
 2282 087a 7D02     		.2byte	0x27d
 2283 087c D3000000 		.4byte	0xd3
 2284 0880 58       		.byte	0x58
 2285 0881 09       		.uleb128 0x9
 2286 0882 03090000 		.4byte	.LASF200
 2287 0886 08       		.byte	0x8
 2288 0887 7E02     		.2byte	0x27e
 2289 0889 B8000000 		.4byte	0xb8
 2290 088d 5C       		.byte	0x5c
 2291 088e 09       		.uleb128 0x9
 2292 088f 380A0000 		.4byte	.LASF201
 2293 0893 08       		.byte	0x8
 2294 0894 7F02     		.2byte	0x27f
 2295 0896 D3000000 		.4byte	0xd3
 2296 089a 60       		.byte	0x60
 2297 089b 09       		.uleb128 0x9
 2298 089c 66000000 		.4byte	.LASF202
 2299 08a0 08       		.byte	0x8
 2300 08a1 8002     		.2byte	0x280
 2301 08a3 D3000000 		.4byte	0xd3
 2302 08a7 64       		.byte	0x64
 2303 08a8 09       		.uleb128 0x9
 2304 08a9 0D090000 		.4byte	.LASF203
 2305 08ad 08       		.byte	0x8
 2306 08ae 8102     		.2byte	0x281
 2307 08b0 AB060000 		.4byte	0x6ab
 2308 08b4 68       		.byte	0x68
 2309 08b5 09       		.uleb128 0x9
 2310 08b6 5B010000 		.4byte	.LASF204
 2311 08ba 08       		.byte	0x8
 2312 08bb 8202     		.2byte	0x282
 2313 08bd D3000000 		.4byte	0xd3
 2314 08c1 70       		.byte	0x70
 2315 08c2 08       		.uleb128 0x8
 2316 08c3 43535200 		.ascii	"CSR\000"
 2317 08c7 08       		.byte	0x8
 2318 08c8 8302     		.2byte	0x283
 2319 08ca D3000000 		.4byte	0xd3
 2320 08ce 74       		.byte	0x74
 2321 08cf 09       		.uleb128 0x9
 2322 08d0 17090000 		.4byte	.LASF205
 2323 08d4 08       		.byte	0x8
 2324 08d5 8402     		.2byte	0x284
 2325 08d7 AB060000 		.4byte	0x6ab
ARM GAS  /tmp/ccYjUgc7.s 			page 42


 2326 08db 78       		.byte	0x78
 2327 08dc 09       		.uleb128 0x9
 2328 08dd 34030000 		.4byte	.LASF206
 2329 08e1 08       		.byte	0x8
 2330 08e2 8502     		.2byte	0x285
 2331 08e4 D3000000 		.4byte	0xd3
 2332 08e8 80       		.byte	0x80
 2333 08e9 09       		.uleb128 0x9
 2334 08ea 1F0B0000 		.4byte	.LASF207
 2335 08ee 08       		.byte	0x8
 2336 08ef 8602     		.2byte	0x286
 2337 08f1 D3000000 		.4byte	0xd3
 2338 08f5 84       		.byte	0x84
 2339 08f6 00       		.byte	0
 2340 08f7 15       		.uleb128 0x15
 2341 08f8 A0010000 		.4byte	.LASF208
 2342 08fc 08       		.byte	0x8
 2343 08fd 8802     		.2byte	0x288
 2344 08ff 68070000 		.4byte	0x768
 2345 0903 03       		.uleb128 0x3
 2346 0904 56000000 		.4byte	.LASF209
 2347 0908 09       		.byte	0x9
 2348 0909 65       		.byte	0x65
 2349 090a 3E030000 		.4byte	0x33e
 2350 090e 03       		.uleb128 0x3
 2351 090f 880C0000 		.4byte	.LASF210
 2352 0913 09       		.byte	0x9
 2353 0914 6D       		.byte	0x6d
 2354 0915 C3000000 		.4byte	0xc3
 2355 0919 06       		.uleb128 0x6
 2356 091a 3F070000 		.4byte	.LASF211
 2357 091e 04       		.byte	0x4
 2358 091f 09       		.byte	0x9
 2359 0920 89       		.byte	0x89
 2360 0921 32090000 		.4byte	0x932
 2361 0925 16       		.uleb128 0x16
 2362 0926 72313300 		.ascii	"r13\000"
 2363 092a 09       		.byte	0x9
 2364 092b 8A       		.byte	0x8a
 2365 092c 730A0000 		.4byte	0xa73
 2366 0930 00       		.byte	0
 2367 0931 00       		.byte	0
 2368 0932 06       		.uleb128 0x6
 2369 0933 71090000 		.4byte	.LASF212
 2370 0937 64       		.byte	0x64
 2371 0938 0A       		.byte	0xa
 2372 0939 F4       		.byte	0xf4
 2373 093a 730A0000 		.4byte	0xa73
 2374 093e 16       		.uleb128 0x16
 2375 093f 73313600 		.ascii	"s16\000"
 2376 0943 0A       		.byte	0xa
 2377 0944 F6       		.byte	0xf6
 2378 0945 03090000 		.4byte	0x903
 2379 0949 00       		.byte	0
 2380 094a 16       		.uleb128 0x16
 2381 094b 73313700 		.ascii	"s17\000"
 2382 094f 0A       		.byte	0xa
ARM GAS  /tmp/ccYjUgc7.s 			page 43


 2383 0950 F7       		.byte	0xf7
 2384 0951 03090000 		.4byte	0x903
 2385 0955 04       		.byte	0x4
 2386 0956 16       		.uleb128 0x16
 2387 0957 73313800 		.ascii	"s18\000"
 2388 095b 0A       		.byte	0xa
 2389 095c F8       		.byte	0xf8
 2390 095d 03090000 		.4byte	0x903
 2391 0961 08       		.byte	0x8
 2392 0962 16       		.uleb128 0x16
 2393 0963 73313900 		.ascii	"s19\000"
 2394 0967 0A       		.byte	0xa
 2395 0968 F9       		.byte	0xf9
 2396 0969 03090000 		.4byte	0x903
 2397 096d 0C       		.byte	0xc
 2398 096e 16       		.uleb128 0x16
 2399 096f 73323000 		.ascii	"s20\000"
 2400 0973 0A       		.byte	0xa
 2401 0974 FA       		.byte	0xfa
 2402 0975 03090000 		.4byte	0x903
 2403 0979 10       		.byte	0x10
 2404 097a 16       		.uleb128 0x16
 2405 097b 73323100 		.ascii	"s21\000"
 2406 097f 0A       		.byte	0xa
 2407 0980 FB       		.byte	0xfb
 2408 0981 03090000 		.4byte	0x903
 2409 0985 14       		.byte	0x14
 2410 0986 16       		.uleb128 0x16
 2411 0987 73323200 		.ascii	"s22\000"
 2412 098b 0A       		.byte	0xa
 2413 098c FC       		.byte	0xfc
 2414 098d 03090000 		.4byte	0x903
 2415 0991 18       		.byte	0x18
 2416 0992 16       		.uleb128 0x16
 2417 0993 73323300 		.ascii	"s23\000"
 2418 0997 0A       		.byte	0xa
 2419 0998 FD       		.byte	0xfd
 2420 0999 03090000 		.4byte	0x903
 2421 099d 1C       		.byte	0x1c
 2422 099e 16       		.uleb128 0x16
 2423 099f 73323400 		.ascii	"s24\000"
 2424 09a3 0A       		.byte	0xa
 2425 09a4 FE       		.byte	0xfe
 2426 09a5 03090000 		.4byte	0x903
 2427 09a9 20       		.byte	0x20
 2428 09aa 16       		.uleb128 0x16
 2429 09ab 73323500 		.ascii	"s25\000"
 2430 09af 0A       		.byte	0xa
 2431 09b0 FF       		.byte	0xff
 2432 09b1 03090000 		.4byte	0x903
 2433 09b5 24       		.byte	0x24
 2434 09b6 08       		.uleb128 0x8
 2435 09b7 73323600 		.ascii	"s26\000"
 2436 09bb 0A       		.byte	0xa
 2437 09bc 0001     		.2byte	0x100
 2438 09be 03090000 		.4byte	0x903
 2439 09c2 28       		.byte	0x28
ARM GAS  /tmp/ccYjUgc7.s 			page 44


 2440 09c3 08       		.uleb128 0x8
 2441 09c4 73323700 		.ascii	"s27\000"
 2442 09c8 0A       		.byte	0xa
 2443 09c9 0101     		.2byte	0x101
 2444 09cb 03090000 		.4byte	0x903
 2445 09cf 2C       		.byte	0x2c
 2446 09d0 08       		.uleb128 0x8
 2447 09d1 73323800 		.ascii	"s28\000"
 2448 09d5 0A       		.byte	0xa
 2449 09d6 0201     		.2byte	0x102
 2450 09d8 03090000 		.4byte	0x903
 2451 09dc 30       		.byte	0x30
 2452 09dd 08       		.uleb128 0x8
 2453 09de 73323900 		.ascii	"s29\000"
 2454 09e2 0A       		.byte	0xa
 2455 09e3 0301     		.2byte	0x103
 2456 09e5 03090000 		.4byte	0x903
 2457 09e9 34       		.byte	0x34
 2458 09ea 08       		.uleb128 0x8
 2459 09eb 73333000 		.ascii	"s30\000"
 2460 09ef 0A       		.byte	0xa
 2461 09f0 0401     		.2byte	0x104
 2462 09f2 03090000 		.4byte	0x903
 2463 09f6 38       		.byte	0x38
 2464 09f7 08       		.uleb128 0x8
 2465 09f8 73333100 		.ascii	"s31\000"
 2466 09fc 0A       		.byte	0xa
 2467 09fd 0501     		.2byte	0x105
 2468 09ff 03090000 		.4byte	0x903
 2469 0a03 3C       		.byte	0x3c
 2470 0a04 08       		.uleb128 0x8
 2471 0a05 723400   		.ascii	"r4\000"
 2472 0a08 0A       		.byte	0xa
 2473 0a09 0701     		.2byte	0x107
 2474 0a0b 03090000 		.4byte	0x903
 2475 0a0f 40       		.byte	0x40
 2476 0a10 08       		.uleb128 0x8
 2477 0a11 723500   		.ascii	"r5\000"
 2478 0a14 0A       		.byte	0xa
 2479 0a15 0801     		.2byte	0x108
 2480 0a17 03090000 		.4byte	0x903
 2481 0a1b 44       		.byte	0x44
 2482 0a1c 08       		.uleb128 0x8
 2483 0a1d 723600   		.ascii	"r6\000"
 2484 0a20 0A       		.byte	0xa
 2485 0a21 0901     		.2byte	0x109
 2486 0a23 03090000 		.4byte	0x903
 2487 0a27 48       		.byte	0x48
 2488 0a28 08       		.uleb128 0x8
 2489 0a29 723700   		.ascii	"r7\000"
 2490 0a2c 0A       		.byte	0xa
 2491 0a2d 0A01     		.2byte	0x10a
 2492 0a2f 03090000 		.4byte	0x903
 2493 0a33 4C       		.byte	0x4c
 2494 0a34 08       		.uleb128 0x8
 2495 0a35 723800   		.ascii	"r8\000"
 2496 0a38 0A       		.byte	0xa
ARM GAS  /tmp/ccYjUgc7.s 			page 45


 2497 0a39 0B01     		.2byte	0x10b
 2498 0a3b 03090000 		.4byte	0x903
 2499 0a3f 50       		.byte	0x50
 2500 0a40 08       		.uleb128 0x8
 2501 0a41 723900   		.ascii	"r9\000"
 2502 0a44 0A       		.byte	0xa
 2503 0a45 0C01     		.2byte	0x10c
 2504 0a47 03090000 		.4byte	0x903
 2505 0a4b 54       		.byte	0x54
 2506 0a4c 08       		.uleb128 0x8
 2507 0a4d 72313000 		.ascii	"r10\000"
 2508 0a51 0A       		.byte	0xa
 2509 0a52 0D01     		.2byte	0x10d
 2510 0a54 03090000 		.4byte	0x903
 2511 0a58 58       		.byte	0x58
 2512 0a59 08       		.uleb128 0x8
 2513 0a5a 72313100 		.ascii	"r11\000"
 2514 0a5e 0A       		.byte	0xa
 2515 0a5f 0E01     		.2byte	0x10e
 2516 0a61 03090000 		.4byte	0x903
 2517 0a65 5C       		.byte	0x5c
 2518 0a66 08       		.uleb128 0x8
 2519 0a67 6C7200   		.ascii	"lr\000"
 2520 0a6a 0A       		.byte	0xa
 2521 0a6b 0F01     		.2byte	0x10f
 2522 0a6d 03090000 		.4byte	0x903
 2523 0a71 60       		.byte	0x60
 2524 0a72 00       		.byte	0
 2525 0a73 0A       		.uleb128 0xa
 2526 0a74 04       		.byte	0x4
 2527 0a75 32090000 		.4byte	0x932
 2528 0a79 17       		.uleb128 0x17
 2529 0a7a 04       		.byte	0x4
 2530 0a7b 0B       		.byte	0xb
 2531 0a7c 38       		.byte	0x38
 2532 0a7d 8E0A0000 		.4byte	0xa8e
 2533 0a81 07       		.uleb128 0x7
 2534 0a82 29050000 		.4byte	.LASF213
 2535 0a86 0B       		.byte	0xb
 2536 0a87 3C       		.byte	0x3c
 2537 0a88 D8000000 		.4byte	0xd8
 2538 0a8c 00       		.byte	0
 2539 0a8d 00       		.byte	0
 2540 0a8e 03       		.uleb128 0x3
 2541 0a8f 39000000 		.4byte	.LASF214
 2542 0a93 0B       		.byte	0xb
 2543 0a94 3D       		.byte	0x3d
 2544 0a95 790A0000 		.4byte	0xa79
 2545 0a99 18       		.uleb128 0x18
 2546 0a9a 04       		.byte	0x4
 2547 0a9b 07       		.byte	0x7
 2548 0a9c FA       		.byte	0xfa
 2549 0a9d F60A0000 		.4byte	0xaf6
 2550 0aa1 19       		.uleb128 0x19
 2551 0aa2 16050000 		.4byte	.LASF215
 2552 0aa6 07       		.byte	0x7
 2553 0aa7 0101     		.2byte	0x101
ARM GAS  /tmp/ccYjUgc7.s 			page 46


 2554 0aa9 1A010000 		.4byte	0x11a
 2555 0aad 19       		.uleb128 0x19
 2556 0aae 6B0D0000 		.4byte	.LASF216
 2557 0ab2 07       		.byte	0x7
 2558 0ab3 0801     		.2byte	0x108
 2559 0ab5 1A010000 		.4byte	0x11a
 2560 0ab9 19       		.uleb128 0x19
 2561 0aba AC010000 		.4byte	.LASF217
 2562 0abe 07       		.byte	0x7
 2563 0abf 0F01     		.2byte	0x10f
 2564 0ac1 3E030000 		.4byte	0x33e
 2565 0ac5 19       		.uleb128 0x19
 2566 0ac6 1E0C0000 		.4byte	.LASF218
 2567 0aca 07       		.byte	0x7
 2568 0acb 1601     		.2byte	0x116
 2569 0acd F60A0000 		.4byte	0xaf6
 2570 0ad1 19       		.uleb128 0x19
 2571 0ad2 ED0A0000 		.4byte	.LASF219
 2572 0ad6 07       		.byte	0x7
 2573 0ad7 1E01     		.2byte	0x11e
 2574 0ad9 210B0000 		.4byte	0xb21
 2575 0add 19       		.uleb128 0x19
 2576 0ade 32000000 		.4byte	.LASF220
 2577 0ae2 07       		.byte	0x7
 2578 0ae3 2701     		.2byte	0x127
 2579 0ae5 580B0000 		.4byte	0xb58
 2580 0ae9 19       		.uleb128 0x19
 2581 0aea 1C020000 		.4byte	.LASF221
 2582 0aee 07       		.byte	0x7
 2583 0aef 2F01     		.2byte	0x12f
 2584 0af1 25010000 		.4byte	0x125
 2585 0af5 00       		.byte	0
 2586 0af6 0A       		.uleb128 0xa
 2587 0af7 04       		.byte	0x4
 2588 0af8 56020000 		.4byte	0x256
 2589 0afc 06       		.uleb128 0x6
 2590 0afd 17030000 		.4byte	.LASF222
 2591 0b01 0C       		.byte	0xc
 2592 0b02 0C       		.byte	0xc
 2593 0b03 34       		.byte	0x34
 2594 0b04 210B0000 		.4byte	0xb21
 2595 0b08 07       		.uleb128 0x7
 2596 0b09 DA000000 		.4byte	.LASF223
 2597 0b0d 0C       		.byte	0xc
 2598 0b0e 35       		.byte	0x35
 2599 0b0f 8B020000 		.4byte	0x28b
 2600 0b13 00       		.byte	0
 2601 0b14 07       		.uleb128 0x7
 2602 0b15 94020000 		.4byte	.LASF224
 2603 0b19 0C       		.byte	0xc
 2604 0b1a 37       		.byte	0x37
 2605 0b1b 30010000 		.4byte	0x130
 2606 0b1f 08       		.byte	0x8
 2607 0b20 00       		.byte	0
 2608 0b21 0A       		.uleb128 0xa
 2609 0b22 04       		.byte	0x4
 2610 0b23 FC0A0000 		.4byte	0xafc
ARM GAS  /tmp/ccYjUgc7.s 			page 47


 2611 0b27 06       		.uleb128 0x6
 2612 0b28 62050000 		.4byte	.LASF225
 2613 0b2c 10       		.byte	0x10
 2614 0b2d 0D       		.byte	0xd
 2615 0b2e 39       		.byte	0x39
 2616 0b2f 580B0000 		.4byte	0xb58
 2617 0b33 07       		.uleb128 0x7
 2618 0b34 47090000 		.4byte	.LASF226
 2619 0b38 0D       		.byte	0xd
 2620 0b39 3A       		.byte	0x3a
 2621 0b3a 8B020000 		.4byte	0x28b
 2622 0b3e 00       		.byte	0
 2623 0b3f 07       		.uleb128 0x7
 2624 0b40 D2000000 		.4byte	.LASF227
 2625 0b44 0D       		.byte	0xd
 2626 0b45 3C       		.byte	0x3c
 2627 0b46 61020000 		.4byte	0x261
 2628 0b4a 08       		.byte	0x8
 2629 0b4b 07       		.uleb128 0x7
 2630 0b4c 300C0000 		.4byte	.LASF228
 2631 0b50 0D       		.byte	0xd
 2632 0b51 3E       		.byte	0x3e
 2633 0b52 9B0B0000 		.4byte	0xb9b
 2634 0b56 0C       		.byte	0xc
 2635 0b57 00       		.byte	0
 2636 0b58 0A       		.uleb128 0xa
 2637 0b59 04       		.byte	0x4
 2638 0b5a 270B0000 		.4byte	0xb27
 2639 0b5e 0A       		.uleb128 0xa
 2640 0b5f 04       		.byte	0x4
 2641 0b60 640B0000 		.4byte	0xb64
 2642 0b64 1A       		.uleb128 0x1a
 2643 0b65 690B0000 		.4byte	0xb69
 2644 0b69 04       		.uleb128 0x4
 2645 0b6a 01       		.byte	0x1
 2646 0b6b 08       		.byte	0x8
 2647 0b6c 51000000 		.4byte	.LASF229
 2648 0b70 05       		.uleb128 0x5
 2649 0b71 3B010000 		.4byte	0x13b
 2650 0b75 0A       		.uleb128 0xa
 2651 0b76 04       		.byte	0x4
 2652 0b77 40030000 		.4byte	0x340
 2653 0b7b 05       		.uleb128 0x5
 2654 0b7c 5E0B0000 		.4byte	0xb5e
 2655 0b80 12       		.uleb128 0x12
 2656 0b81 0E090000 		.4byte	0x90e
 2657 0b85 900B0000 		.4byte	0xb90
 2658 0b89 13       		.uleb128 0x13
 2659 0b8a A4060000 		.4byte	0x6a4
 2660 0b8e 3A       		.byte	0x3a
 2661 0b8f 00       		.byte	0
 2662 0b90 03       		.uleb128 0x3
 2663 0b91 050B0000 		.4byte	.LASF230
 2664 0b95 0D       		.byte	0xd
 2665 0b96 34       		.byte	0x34
 2666 0b97 270B0000 		.4byte	0xb27
 2667 0b9b 0A       		.uleb128 0xa
ARM GAS  /tmp/ccYjUgc7.s 			page 48


 2668 0b9c 04       		.byte	0x4
 2669 0b9d 900B0000 		.4byte	0xb90
 2670 0ba1 04       		.uleb128 0x4
 2671 0ba2 04       		.byte	0x4
 2672 0ba3 04       		.byte	0x4
 2673 0ba4 FD020000 		.4byte	.LASF231
 2674 0ba8 04       		.uleb128 0x4
 2675 0ba9 01       		.byte	0x1
 2676 0baa 02       		.byte	0x2
 2677 0bab 35050000 		.4byte	.LASF232
 2678 0baf 17       		.uleb128 0x17
 2679 0bb0 0C       		.byte	0xc
 2680 0bb1 0E       		.byte	0xe
 2681 0bb2 DA       		.byte	0xda
 2682 0bb3 F40B0000 		.4byte	0xbf4
 2683 0bb7 07       		.uleb128 0x7
 2684 0bb8 870D0000 		.4byte	.LASF233
 2685 0bbc 0E       		.byte	0xe
 2686 0bbd DB       		.byte	0xdb
 2687 0bbe F40B0000 		.4byte	0xbf4
 2688 0bc2 00       		.byte	0
 2689 0bc3 07       		.uleb128 0x7
 2690 0bc4 F1020000 		.4byte	.LASF234
 2691 0bc8 0E       		.byte	0xe
 2692 0bc9 DC       		.byte	0xdc
 2693 0bca FA0B0000 		.4byte	0xbfa
 2694 0bce 04       		.byte	0x4
 2695 0bcf 07       		.uleb128 0x7
 2696 0bd0 F7050000 		.4byte	.LASF235
 2697 0bd4 0E       		.byte	0xe
 2698 0bd5 DD       		.byte	0xdd
 2699 0bd6 A2000000 		.4byte	0xa2
 2700 0bda 08       		.byte	0x8
 2701 0bdb 07       		.uleb128 0x7
 2702 0bdc 740D0000 		.4byte	.LASF236
 2703 0be0 0E       		.byte	0xe
 2704 0be1 DF       		.byte	0xdf
 2705 0be2 A2000000 		.4byte	0xa2
 2706 0be6 09       		.byte	0x9
 2707 0be7 07       		.uleb128 0x7
 2708 0be8 A9030000 		.4byte	.LASF237
 2709 0bec 0E       		.byte	0xe
 2710 0bed E0       		.byte	0xe0
 2711 0bee A2000000 		.4byte	0xa2
 2712 0bf2 0A       		.byte	0xa
 2713 0bf3 00       		.byte	0
 2714 0bf4 0A       		.uleb128 0xa
 2715 0bf5 04       		.byte	0x4
 2716 0bf6 12070000 		.4byte	0x712
 2717 0bfa 0A       		.uleb128 0xa
 2718 0bfb 04       		.byte	0x4
 2719 0bfc D3000000 		.4byte	0xd3
 2720 0c00 03       		.uleb128 0x3
 2721 0c01 2C060000 		.4byte	.LASF238
 2722 0c05 0E       		.byte	0xe
 2723 0c06 E1       		.byte	0xe1
 2724 0c07 AF0B0000 		.4byte	0xbaf
ARM GAS  /tmp/ccYjUgc7.s 			page 49


 2725 0c0b 03       		.uleb128 0x3
 2726 0c0c 9D050000 		.4byte	.LASF239
 2727 0c10 0E       		.byte	0xe
 2728 0c11 EA       		.byte	0xea
 2729 0c12 160C0000 		.4byte	0xc16
 2730 0c16 0A       		.uleb128 0xa
 2731 0c17 04       		.byte	0x4
 2732 0c18 1C0C0000 		.4byte	0xc1c
 2733 0c1c 0C       		.uleb128 0xc
 2734 0c1d 2C0C0000 		.4byte	0xc2c
 2735 0c21 0D       		.uleb128 0xd
 2736 0c22 3E030000 		.4byte	0x33e
 2737 0c26 0D       		.uleb128 0xd
 2738 0c27 B8000000 		.4byte	0xb8
 2739 0c2b 00       		.byte	0
 2740 0c2c 0A       		.uleb128 0xa
 2741 0c2d 04       		.byte	0x4
 2742 0c2e 320C0000 		.4byte	0xc32
 2743 0c32 1A       		.uleb128 0x1a
 2744 0c33 000C0000 		.4byte	0xc00
 2745 0c37 17       		.uleb128 0x17
 2746 0c38 08       		.byte	0x8
 2747 0c39 01       		.byte	0x1
 2748 0c3a 63       		.byte	0x63
 2749 0c3b 580C0000 		.4byte	0xc58
 2750 0c3f 07       		.uleb128 0x7
 2751 0c40 B3090000 		.4byte	.LASF240
 2752 0c44 01       		.byte	0x1
 2753 0c45 64       		.byte	0x64
 2754 0c46 0B0C0000 		.4byte	0xc0b
 2755 0c4a 00       		.byte	0
 2756 0c4b 07       		.uleb128 0x7
 2757 0c4c C9070000 		.4byte	.LASF241
 2758 0c50 01       		.byte	0x1
 2759 0c51 65       		.byte	0x65
 2760 0c52 3E030000 		.4byte	0x33e
 2761 0c56 04       		.byte	0x4
 2762 0c57 00       		.byte	0
 2763 0c58 03       		.uleb128 0x3
 2764 0c59 620A0000 		.4byte	.LASF242
 2765 0c5d 01       		.byte	0x1
 2766 0c5e 66       		.byte	0x66
 2767 0c5f 370C0000 		.4byte	0xc37
 2768 0c63 1B       		.uleb128 0x1b
 2769 0c64 B3050000 		.4byte	.LASF243
 2770 0c68 01       		.byte	0x1
 2771 0c69 7F       		.byte	0x7f
 2772 0c6a 00000000 		.4byte	.LFB256
 2773 0c6e 28000000 		.4byte	.LFE256-.LFB256
 2774 0c72 01       		.uleb128 0x1
 2775 0c73 9C       		.byte	0x9c
 2776 0c74 910C0000 		.4byte	0xc91
 2777 0c78 1C       		.uleb128 0x1c
 2778 0c79 B0000000 		.4byte	.LASF245
 2779 0c7d 01       		.byte	0x1
 2780 0c7e 80       		.byte	0x80
 2781 0c7f B8000000 		.4byte	0xb8
ARM GAS  /tmp/ccYjUgc7.s 			page 50


 2782 0c83 00000000 		.4byte	.LLST0
 2783 0c87 1D       		.uleb128 0x1d
 2784 0c88 1E000000 		.4byte	.LVL2
 2785 0c8c B7100000 		.4byte	0x10b7
 2786 0c90 00       		.byte	0
 2787 0c91 1B       		.uleb128 0x1b
 2788 0c92 23060000 		.4byte	.LASF244
 2789 0c96 01       		.byte	0x1
 2790 0c97 91       		.byte	0x91
 2791 0c98 00000000 		.4byte	.LFB257
 2792 0c9c 2C000000 		.4byte	.LFE257-.LFB257
 2793 0ca0 01       		.uleb128 0x1
 2794 0ca1 9C       		.byte	0x9c
 2795 0ca2 BF0C0000 		.4byte	0xcbf
 2796 0ca6 1C       		.uleb128 0x1c
 2797 0ca7 B0000000 		.4byte	.LASF245
 2798 0cab 01       		.byte	0x1
 2799 0cac 92       		.byte	0x92
 2800 0cad B8000000 		.4byte	0xb8
 2801 0cb1 13000000 		.4byte	.LLST1
 2802 0cb5 1D       		.uleb128 0x1d
 2803 0cb6 22000000 		.4byte	.LVL5
 2804 0cba B7100000 		.4byte	0x10b7
 2805 0cbe 00       		.byte	0
 2806 0cbf 1B       		.uleb128 0x1b
 2807 0cc0 56060000 		.4byte	.LASF246
 2808 0cc4 01       		.byte	0x1
 2809 0cc5 A3       		.byte	0xa3
 2810 0cc6 00000000 		.4byte	.LFB258
 2811 0cca 2C000000 		.4byte	.LFE258-.LFB258
 2812 0cce 01       		.uleb128 0x1
 2813 0ccf 9C       		.byte	0x9c
 2814 0cd0 ED0C0000 		.4byte	0xced
 2815 0cd4 1C       		.uleb128 0x1c
 2816 0cd5 B0000000 		.4byte	.LASF245
 2817 0cd9 01       		.byte	0x1
 2818 0cda A4       		.byte	0xa4
 2819 0cdb B8000000 		.4byte	0xb8
 2820 0cdf 26000000 		.4byte	.LLST2
 2821 0ce3 1D       		.uleb128 0x1d
 2822 0ce4 22000000 		.4byte	.LVL8
 2823 0ce8 B7100000 		.4byte	0x10b7
 2824 0cec 00       		.byte	0
 2825 0ced 1B       		.uleb128 0x1b
 2826 0cee 6F060000 		.4byte	.LASF247
 2827 0cf2 01       		.byte	0x1
 2828 0cf3 B5       		.byte	0xb5
 2829 0cf4 00000000 		.4byte	.LFB259
 2830 0cf8 2C000000 		.4byte	.LFE259-.LFB259
 2831 0cfc 01       		.uleb128 0x1
 2832 0cfd 9C       		.byte	0x9c
 2833 0cfe 1B0D0000 		.4byte	0xd1b
 2834 0d02 1C       		.uleb128 0x1c
 2835 0d03 B0000000 		.4byte	.LASF245
 2836 0d07 01       		.byte	0x1
 2837 0d08 B6       		.byte	0xb6
 2838 0d09 B8000000 		.4byte	0xb8
ARM GAS  /tmp/ccYjUgc7.s 			page 51


 2839 0d0d 39000000 		.4byte	.LLST3
 2840 0d11 1D       		.uleb128 0x1d
 2841 0d12 22000000 		.4byte	.LVL11
 2842 0d16 B7100000 		.4byte	0x10b7
 2843 0d1a 00       		.byte	0
 2844 0d1b 1B       		.uleb128 0x1b
 2845 0d1c 80060000 		.4byte	.LASF248
 2846 0d20 01       		.byte	0x1
 2847 0d21 C7       		.byte	0xc7
 2848 0d22 00000000 		.4byte	.LFB260
 2849 0d26 28000000 		.4byte	.LFE260-.LFB260
 2850 0d2a 01       		.uleb128 0x1
 2851 0d2b 9C       		.byte	0x9c
 2852 0d2c 490D0000 		.4byte	0xd49
 2853 0d30 1C       		.uleb128 0x1c
 2854 0d31 B0000000 		.4byte	.LASF245
 2855 0d35 01       		.byte	0x1
 2856 0d36 C8       		.byte	0xc8
 2857 0d37 B8000000 		.4byte	0xb8
 2858 0d3b 4C000000 		.4byte	.LLST4
 2859 0d3f 1D       		.uleb128 0x1d
 2860 0d40 1E000000 		.4byte	.LVL14
 2861 0d44 B7100000 		.4byte	0x10b7
 2862 0d48 00       		.byte	0
 2863 0d49 1B       		.uleb128 0x1b
 2864 0d4a 15070000 		.4byte	.LASF249
 2865 0d4e 01       		.byte	0x1
 2866 0d4f D9       		.byte	0xd9
 2867 0d50 00000000 		.4byte	.LFB261
 2868 0d54 2C000000 		.4byte	.LFE261-.LFB261
 2869 0d58 01       		.uleb128 0x1
 2870 0d59 9C       		.byte	0x9c
 2871 0d5a 770D0000 		.4byte	0xd77
 2872 0d5e 1C       		.uleb128 0x1c
 2873 0d5f B0000000 		.4byte	.LASF245
 2874 0d63 01       		.byte	0x1
 2875 0d64 DA       		.byte	0xda
 2876 0d65 B8000000 		.4byte	0xb8
 2877 0d69 5F000000 		.4byte	.LLST5
 2878 0d6d 1D       		.uleb128 0x1d
 2879 0d6e 22000000 		.4byte	.LVL17
 2880 0d72 B7100000 		.4byte	0x10b7
 2881 0d76 00       		.byte	0
 2882 0d77 1B       		.uleb128 0x1b
 2883 0d78 36070000 		.4byte	.LASF250
 2884 0d7c 01       		.byte	0x1
 2885 0d7d EB       		.byte	0xeb
 2886 0d7e 00000000 		.4byte	.LFB262
 2887 0d82 2C000000 		.4byte	.LFE262-.LFB262
 2888 0d86 01       		.uleb128 0x1
 2889 0d87 9C       		.byte	0x9c
 2890 0d88 A50D0000 		.4byte	0xda5
 2891 0d8c 1C       		.uleb128 0x1c
 2892 0d8d B0000000 		.4byte	.LASF245
 2893 0d91 01       		.byte	0x1
 2894 0d92 EC       		.byte	0xec
 2895 0d93 B8000000 		.4byte	0xb8
ARM GAS  /tmp/ccYjUgc7.s 			page 52


 2896 0d97 72000000 		.4byte	.LLST6
 2897 0d9b 1D       		.uleb128 0x1d
 2898 0d9c 22000000 		.4byte	.LVL20
 2899 0da0 B7100000 		.4byte	0x10b7
 2900 0da4 00       		.byte	0
 2901 0da5 1B       		.uleb128 0x1b
 2902 0da6 4D060000 		.4byte	.LASF251
 2903 0daa 01       		.byte	0x1
 2904 0dab FD       		.byte	0xfd
 2905 0dac 00000000 		.4byte	.LFB263
 2906 0db0 2C000000 		.4byte	.LFE263-.LFB263
 2907 0db4 01       		.uleb128 0x1
 2908 0db5 9C       		.byte	0x9c
 2909 0db6 D30D0000 		.4byte	0xdd3
 2910 0dba 1C       		.uleb128 0x1c
 2911 0dbb B0000000 		.4byte	.LASF245
 2912 0dbf 01       		.byte	0x1
 2913 0dc0 FE       		.byte	0xfe
 2914 0dc1 B8000000 		.4byte	0xb8
 2915 0dc5 85000000 		.4byte	.LLST7
 2916 0dc9 1D       		.uleb128 0x1d
 2917 0dca 22000000 		.4byte	.LVL23
 2918 0dce B7100000 		.4byte	0x10b7
 2919 0dd2 00       		.byte	0
 2920 0dd3 1E       		.uleb128 0x1e
 2921 0dd4 F9080000 		.4byte	.LASF252
 2922 0dd8 01       		.byte	0x1
 2923 0dd9 0F01     		.2byte	0x10f
 2924 0ddb 00000000 		.4byte	.LFB264
 2925 0ddf 28000000 		.4byte	.LFE264-.LFB264
 2926 0de3 01       		.uleb128 0x1
 2927 0de4 9C       		.byte	0x9c
 2928 0de5 030E0000 		.4byte	0xe03
 2929 0de9 1F       		.uleb128 0x1f
 2930 0dea B0000000 		.4byte	.LASF245
 2931 0dee 01       		.byte	0x1
 2932 0def 1001     		.2byte	0x110
 2933 0df1 B8000000 		.4byte	0xb8
 2934 0df5 98000000 		.4byte	.LLST8
 2935 0df9 1D       		.uleb128 0x1d
 2936 0dfa 1E000000 		.4byte	.LVL26
 2937 0dfe B7100000 		.4byte	0x10b7
 2938 0e02 00       		.byte	0
 2939 0e03 1E       		.uleb128 0x1e
 2940 0e04 21090000 		.4byte	.LASF253
 2941 0e08 01       		.byte	0x1
 2942 0e09 2101     		.2byte	0x121
 2943 0e0b 00000000 		.4byte	.LFB265
 2944 0e0f 2C000000 		.4byte	.LFE265-.LFB265
 2945 0e13 01       		.uleb128 0x1
 2946 0e14 9C       		.byte	0x9c
 2947 0e15 330E0000 		.4byte	0xe33
 2948 0e19 1F       		.uleb128 0x1f
 2949 0e1a B0000000 		.4byte	.LASF245
 2950 0e1e 01       		.byte	0x1
 2951 0e1f 2201     		.2byte	0x122
 2952 0e21 B8000000 		.4byte	0xb8
ARM GAS  /tmp/ccYjUgc7.s 			page 53


 2953 0e25 AB000000 		.4byte	.LLST9
 2954 0e29 1D       		.uleb128 0x1d
 2955 0e2a 22000000 		.4byte	.LVL29
 2956 0e2e B7100000 		.4byte	0x10b7
 2957 0e32 00       		.byte	0
 2958 0e33 1E       		.uleb128 0x1e
 2959 0e34 E5050000 		.4byte	.LASF254
 2960 0e38 01       		.byte	0x1
 2961 0e39 3301     		.2byte	0x133
 2962 0e3b 00000000 		.4byte	.LFB266
 2963 0e3f 2C000000 		.4byte	.LFE266-.LFB266
 2964 0e43 01       		.uleb128 0x1
 2965 0e44 9C       		.byte	0x9c
 2966 0e45 630E0000 		.4byte	0xe63
 2967 0e49 1F       		.uleb128 0x1f
 2968 0e4a B0000000 		.4byte	.LASF245
 2969 0e4e 01       		.byte	0x1
 2970 0e4f 3401     		.2byte	0x134
 2971 0e51 B8000000 		.4byte	0xb8
 2972 0e55 BE000000 		.4byte	.LLST10
 2973 0e59 1D       		.uleb128 0x1d
 2974 0e5a 22000000 		.4byte	.LVL32
 2975 0e5e B7100000 		.4byte	0x10b7
 2976 0e62 00       		.byte	0
 2977 0e63 1E       		.uleb128 0x1e
 2978 0e64 88090000 		.4byte	.LASF255
 2979 0e68 01       		.byte	0x1
 2980 0e69 4501     		.2byte	0x145
 2981 0e6b 00000000 		.4byte	.LFB267
 2982 0e6f 2C000000 		.4byte	.LFE267-.LFB267
 2983 0e73 01       		.uleb128 0x1
 2984 0e74 9C       		.byte	0x9c
 2985 0e75 930E0000 		.4byte	0xe93
 2986 0e79 1F       		.uleb128 0x1f
 2987 0e7a B0000000 		.4byte	.LASF245
 2988 0e7e 01       		.byte	0x1
 2989 0e7f 4601     		.2byte	0x146
 2990 0e81 B8000000 		.4byte	0xb8
 2991 0e85 D1000000 		.4byte	.LLST11
 2992 0e89 1D       		.uleb128 0x1d
 2993 0e8a 22000000 		.4byte	.LVL35
 2994 0e8e B7100000 		.4byte	0x10b7
 2995 0e92 00       		.byte	0
 2996 0e93 1E       		.uleb128 0x1e
 2997 0e94 240A0000 		.4byte	.LASF256
 2998 0e98 01       		.byte	0x1
 2999 0e99 5701     		.2byte	0x157
 3000 0e9b 00000000 		.4byte	.LFB268
 3001 0e9f 28000000 		.4byte	.LFE268-.LFB268
 3002 0ea3 01       		.uleb128 0x1
 3003 0ea4 9C       		.byte	0x9c
 3004 0ea5 C30E0000 		.4byte	0xec3
 3005 0ea9 1F       		.uleb128 0x1f
 3006 0eaa B0000000 		.4byte	.LASF245
 3007 0eae 01       		.byte	0x1
 3008 0eaf 5801     		.2byte	0x158
 3009 0eb1 B8000000 		.4byte	0xb8
ARM GAS  /tmp/ccYjUgc7.s 			page 54


 3010 0eb5 E4000000 		.4byte	.LLST12
 3011 0eb9 1D       		.uleb128 0x1d
 3012 0eba 1E000000 		.4byte	.LVL38
 3013 0ebe B7100000 		.4byte	0x10b7
 3014 0ec2 00       		.byte	0
 3015 0ec3 1E       		.uleb128 0x1e
 3016 0ec4 AD0B0000 		.4byte	.LASF257
 3017 0ec8 01       		.byte	0x1
 3018 0ec9 6901     		.2byte	0x169
 3019 0ecb 00000000 		.4byte	.LFB269
 3020 0ecf 2C000000 		.4byte	.LFE269-.LFB269
 3021 0ed3 01       		.uleb128 0x1
 3022 0ed4 9C       		.byte	0x9c
 3023 0ed5 F30E0000 		.4byte	0xef3
 3024 0ed9 1F       		.uleb128 0x1f
 3025 0eda B0000000 		.4byte	.LASF245
 3026 0ede 01       		.byte	0x1
 3027 0edf 6A01     		.2byte	0x16a
 3028 0ee1 B8000000 		.4byte	0xb8
 3029 0ee5 F7000000 		.4byte	.LLST13
 3030 0ee9 1D       		.uleb128 0x1d
 3031 0eea 22000000 		.4byte	.LVL41
 3032 0eee B7100000 		.4byte	0x10b7
 3033 0ef2 00       		.byte	0
 3034 0ef3 1E       		.uleb128 0x1e
 3035 0ef4 DB0A0000 		.4byte	.LASF258
 3036 0ef8 01       		.byte	0x1
 3037 0ef9 7B01     		.2byte	0x17b
 3038 0efb 00000000 		.4byte	.LFB270
 3039 0eff 2C000000 		.4byte	.LFE270-.LFB270
 3040 0f03 01       		.uleb128 0x1
 3041 0f04 9C       		.byte	0x9c
 3042 0f05 230F0000 		.4byte	0xf23
 3043 0f09 1F       		.uleb128 0x1f
 3044 0f0a B0000000 		.4byte	.LASF245
 3045 0f0e 01       		.byte	0x1
 3046 0f0f 7C01     		.2byte	0x17c
 3047 0f11 B8000000 		.4byte	0xb8
 3048 0f15 0A010000 		.4byte	.LLST14
 3049 0f19 1D       		.uleb128 0x1d
 3050 0f1a 22000000 		.4byte	.LVL44
 3051 0f1e B7100000 		.4byte	0x10b7
 3052 0f22 00       		.byte	0
 3053 0f23 1E       		.uleb128 0x1e
 3054 0f24 D30B0000 		.4byte	.LASF259
 3055 0f28 01       		.byte	0x1
 3056 0f29 8D01     		.2byte	0x18d
 3057 0f2b 00000000 		.4byte	.LFB271
 3058 0f2f 2C000000 		.4byte	.LFE271-.LFB271
 3059 0f33 01       		.uleb128 0x1
 3060 0f34 9C       		.byte	0x9c
 3061 0f35 530F0000 		.4byte	0xf53
 3062 0f39 1F       		.uleb128 0x1f
 3063 0f3a B0000000 		.4byte	.LASF245
 3064 0f3e 01       		.byte	0x1
 3065 0f3f 8E01     		.2byte	0x18e
 3066 0f41 B8000000 		.4byte	0xb8
ARM GAS  /tmp/ccYjUgc7.s 			page 55


 3067 0f45 1D010000 		.4byte	.LLST15
 3068 0f49 1D       		.uleb128 0x1d
 3069 0f4a 22000000 		.4byte	.LVL47
 3070 0f4e B7100000 		.4byte	0x10b7
 3071 0f52 00       		.byte	0
 3072 0f53 20       		.uleb128 0x20
 3073 0f54 0F030000 		.4byte	.LASF260
 3074 0f58 01       		.byte	0x1
 3075 0f59 A301     		.2byte	0x1a3
 3076 0f5b 00000000 		.4byte	.LFB272
 3077 0f5f 48000000 		.4byte	.LFE272-.LFB272
 3078 0f63 01       		.uleb128 0x1
 3079 0f64 9C       		.byte	0x9c
 3080 0f65 780F0000 		.4byte	0xf78
 3081 0f69 21       		.uleb128 0x21
 3082 0f6a 6900     		.ascii	"i\000"
 3083 0f6c 01       		.byte	0x1
 3084 0f6d A401     		.2byte	0x1a4
 3085 0f6f 25000000 		.4byte	0x25
 3086 0f73 30010000 		.4byte	.LLST16
 3087 0f77 00       		.byte	0
 3088 0f78 22       		.uleb128 0x22
 3089 0f79 500D0000 		.4byte	.LASF274
 3090 0f7d 01       		.byte	0x1
 3091 0f7e C901     		.2byte	0x1c9
 3092 0f80 A80B0000 		.4byte	0xba8
 3093 0f84 00000000 		.4byte	.LFB273
 3094 0f88 94000000 		.4byte	.LFE273-.LFB273
 3095 0f8c 01       		.uleb128 0x1
 3096 0f8d 9C       		.byte	0x9c
 3097 0f8e E50F0000 		.4byte	0xfe5
 3098 0f92 23       		.uleb128 0x23
 3099 0f93 8B050000 		.4byte	.LASF261
 3100 0f97 01       		.byte	0x1
 3101 0f98 C901     		.2byte	0x1c9
 3102 0f9a 2C0C0000 		.4byte	0xc2c
 3103 0f9e 44010000 		.4byte	.LLST17
 3104 0fa2 23       		.uleb128 0x23
 3105 0fa3 CE090000 		.4byte	.LASF262
 3106 0fa7 01       		.byte	0x1
 3107 0fa8 CA01     		.2byte	0x1ca
 3108 0faa B8000000 		.4byte	0xb8
 3109 0fae 97010000 		.4byte	.LLST18
 3110 0fb2 23       		.uleb128 0x23
 3111 0fb3 30050000 		.4byte	.LASF263
 3112 0fb7 01       		.byte	0x1
 3113 0fb8 CB01     		.2byte	0x1cb
 3114 0fba 0B0C0000 		.4byte	0xc0b
 3115 0fbe C3010000 		.4byte	.LLST19
 3116 0fc2 23       		.uleb128 0x23
 3117 0fc3 F1070000 		.4byte	.LASF264
 3118 0fc7 01       		.byte	0x1
 3119 0fc8 CC01     		.2byte	0x1cc
 3120 0fca 3E030000 		.4byte	0x33e
 3121 0fce EF010000 		.4byte	.LLST20
 3122 0fd2 24       		.uleb128 0x24
 3123 0fd3 930C0000 		.4byte	.LASF266
ARM GAS  /tmp/ccYjUgc7.s 			page 56


 3124 0fd7 F50F0000 		.4byte	0xff5
 3125 0fdb 25       		.uleb128 0x25
 3126 0fdc 6A000000 		.4byte	.LVL53
 3127 0fe0 BF100000 		.4byte	0x10bf
 3128 0fe4 00       		.byte	0
 3129 0fe5 12       		.uleb128 0x12
 3130 0fe6 690B0000 		.4byte	0xb69
 3131 0fea F50F0000 		.4byte	0xff5
 3132 0fee 13       		.uleb128 0x13
 3133 0fef A4060000 		.4byte	0x6a4
 3134 0ff3 11       		.byte	0x11
 3135 0ff4 00       		.byte	0
 3136 0ff5 1A       		.uleb128 0x1a
 3137 0ff6 E50F0000 		.4byte	0xfe5
 3138 0ffa 20       		.uleb128 0x20
 3139 0ffb C9080000 		.4byte	.LASF265
 3140 0fff 01       		.byte	0x1
 3141 1000 F801     		.2byte	0x1f8
 3142 1002 00000000 		.4byte	.LFB274
 3143 1006 48000000 		.4byte	.LFE274-.LFB274
 3144 100a 01       		.uleb128 0x1
 3145 100b 9C       		.byte	0x9c
 3146 100c 33100000 		.4byte	0x1033
 3147 1010 23       		.uleb128 0x23
 3148 1011 8B050000 		.4byte	.LASF261
 3149 1015 01       		.byte	0x1
 3150 1016 F801     		.2byte	0x1f8
 3151 1018 2C0C0000 		.4byte	0xc2c
 3152 101c 4D020000 		.4byte	.LLST21
 3153 1020 24       		.uleb128 0x24
 3154 1021 930C0000 		.4byte	.LASF266
 3155 1025 43100000 		.4byte	0x1043
 3156 1029 25       		.uleb128 0x25
 3157 102a 0A000000 		.4byte	.LVL62
 3158 102e D5100000 		.4byte	0x10d5
 3159 1032 00       		.byte	0
 3160 1033 12       		.uleb128 0x12
 3161 1034 690B0000 		.4byte	0xb69
 3162 1038 43100000 		.4byte	0x1043
 3163 103c 13       		.uleb128 0x13
 3164 103d A4060000 		.4byte	0x6a4
 3165 1041 10       		.byte	0x10
 3166 1042 00       		.byte	0
 3167 1043 1A       		.uleb128 0x1a
 3168 1044 33100000 		.4byte	0x1033
 3169 1048 26       		.uleb128 0x26
 3170 1049 4F070000 		.4byte	.LASF267
 3171 104d 01       		.byte	0x1
 3172 104e 6B       		.byte	0x6b
 3173 104f B8000000 		.4byte	0xb8
 3174 1053 05       		.uleb128 0x5
 3175 1054 03       		.byte	0x3
 3176 1055 00000000 		.4byte	dma_streams_mask
 3177 1059 12       		.uleb128 0x12
 3178 105a 580C0000 		.4byte	0xc58
 3179 105e 69100000 		.4byte	0x1069
 3180 1062 13       		.uleb128 0x13
ARM GAS  /tmp/ccYjUgc7.s 			page 57


 3181 1063 A4060000 		.4byte	0x6a4
 3182 1067 0F       		.byte	0xf
 3183 1068 00       		.byte	0
 3184 1069 26       		.uleb128 0x26
 3185 106a 490C0000 		.4byte	.LASF268
 3186 106e 01       		.byte	0x1
 3187 106f 70       		.byte	0x70
 3188 1070 59100000 		.4byte	0x1059
 3189 1074 05       		.uleb128 0x5
 3190 1075 03       		.byte	0x3
 3191 1076 00000000 		.4byte	dma_isr_redir
 3192 107a 27       		.uleb128 0x27
 3193 107b 92090000 		.4byte	.LASF269
 3194 107f 0F       		.byte	0xf
 3195 1080 A706     		.2byte	0x6a7
 3196 1082 CE000000 		.4byte	0xce
 3197 1086 28       		.uleb128 0x28
 3198 1087 636800   		.ascii	"ch\000"
 3199 108a 07       		.byte	0x7
 3200 108b 0902     		.2byte	0x209
 3201 108d 0D040000 		.4byte	0x40d
 3202 1091 12       		.uleb128 0x12
 3203 1092 000C0000 		.4byte	0xc00
 3204 1096 A1100000 		.4byte	0x10a1
 3205 109a 13       		.uleb128 0x13
 3206 109b A4060000 		.4byte	0x6a4
 3207 109f 0F       		.byte	0xf
 3208 10a0 00       		.byte	0
 3209 10a1 29       		.uleb128 0x29
 3210 10a2 F70C0000 		.4byte	.LASF270
 3211 10a6 01       		.byte	0x1
 3212 10a7 49       		.byte	0x49
 3213 10a8 B2100000 		.4byte	0x10b2
 3214 10ac 05       		.uleb128 0x5
 3215 10ad 03       		.byte	0x3
 3216 10ae 00000000 		.4byte	_stm32_dma_streams
 3217 10b2 1A       		.uleb128 0x1a
 3218 10b3 91100000 		.4byte	0x1091
 3219 10b7 2A       		.uleb128 0x2a
 3220 10b8 820B0000 		.4byte	.LASF275
 3221 10bc 0A       		.byte	0xa
 3222 10bd 6601     		.2byte	0x166
 3223 10bf 2B       		.uleb128 0x2b
 3224 10c0 A9080000 		.4byte	.LASF276
 3225 10c4 10       		.byte	0x10
 3226 10c5 4E       		.byte	0x4e
 3227 10c6 D5100000 		.4byte	0x10d5
 3228 10ca 0D       		.uleb128 0xd
 3229 10cb B8000000 		.4byte	0xb8
 3230 10cf 0D       		.uleb128 0xd
 3231 10d0 B8000000 		.4byte	0xb8
 3232 10d4 00       		.byte	0
 3233 10d5 2C       		.uleb128 0x2c
 3234 10d6 2D020000 		.4byte	.LASF277
 3235 10da 10       		.byte	0x10
 3236 10db 4F       		.byte	0x4f
 3237 10dc 0D       		.uleb128 0xd
ARM GAS  /tmp/ccYjUgc7.s 			page 58


 3238 10dd B8000000 		.4byte	0xb8
 3239 10e1 00       		.byte	0
 3240 10e2 00       		.byte	0
 3241              		.section	.debug_abbrev,"",%progbits
 3242              	.Ldebug_abbrev0:
 3243 0000 01       		.uleb128 0x1
 3244 0001 11       		.uleb128 0x11
 3245 0002 01       		.byte	0x1
 3246 0003 25       		.uleb128 0x25
 3247 0004 0E       		.uleb128 0xe
 3248 0005 13       		.uleb128 0x13
 3249 0006 0B       		.uleb128 0xb
 3250 0007 03       		.uleb128 0x3
 3251 0008 0E       		.uleb128 0xe
 3252 0009 1B       		.uleb128 0x1b
 3253 000a 0E       		.uleb128 0xe
 3254 000b 55       		.uleb128 0x55
 3255 000c 17       		.uleb128 0x17
 3256 000d 11       		.uleb128 0x11
 3257 000e 01       		.uleb128 0x1
 3258 000f 10       		.uleb128 0x10
 3259 0010 17       		.uleb128 0x17
 3260 0011 00       		.byte	0
 3261 0012 00       		.byte	0
 3262 0013 02       		.uleb128 0x2
 3263 0014 24       		.uleb128 0x24
 3264 0015 00       		.byte	0
 3265 0016 0B       		.uleb128 0xb
 3266 0017 0B       		.uleb128 0xb
 3267 0018 3E       		.uleb128 0x3e
 3268 0019 0B       		.uleb128 0xb
 3269 001a 03       		.uleb128 0x3
 3270 001b 08       		.uleb128 0x8
 3271 001c 00       		.byte	0
 3272 001d 00       		.byte	0
 3273 001e 03       		.uleb128 0x3
 3274 001f 16       		.uleb128 0x16
 3275 0020 00       		.byte	0
 3276 0021 03       		.uleb128 0x3
 3277 0022 0E       		.uleb128 0xe
 3278 0023 3A       		.uleb128 0x3a
 3279 0024 0B       		.uleb128 0xb
 3280 0025 3B       		.uleb128 0x3b
 3281 0026 0B       		.uleb128 0xb
 3282 0027 49       		.uleb128 0x49
 3283 0028 13       		.uleb128 0x13
 3284 0029 00       		.byte	0
 3285 002a 00       		.byte	0
 3286 002b 04       		.uleb128 0x4
 3287 002c 24       		.uleb128 0x24
 3288 002d 00       		.byte	0
 3289 002e 0B       		.uleb128 0xb
 3290 002f 0B       		.uleb128 0xb
 3291 0030 3E       		.uleb128 0x3e
 3292 0031 0B       		.uleb128 0xb
 3293 0032 03       		.uleb128 0x3
 3294 0033 0E       		.uleb128 0xe
ARM GAS  /tmp/ccYjUgc7.s 			page 59


 3295 0034 00       		.byte	0
 3296 0035 00       		.byte	0
 3297 0036 05       		.uleb128 0x5
 3298 0037 35       		.uleb128 0x35
 3299 0038 00       		.byte	0
 3300 0039 49       		.uleb128 0x49
 3301 003a 13       		.uleb128 0x13
 3302 003b 00       		.byte	0
 3303 003c 00       		.byte	0
 3304 003d 06       		.uleb128 0x6
 3305 003e 13       		.uleb128 0x13
 3306 003f 01       		.byte	0x1
 3307 0040 03       		.uleb128 0x3
 3308 0041 0E       		.uleb128 0xe
 3309 0042 0B       		.uleb128 0xb
 3310 0043 0B       		.uleb128 0xb
 3311 0044 3A       		.uleb128 0x3a
 3312 0045 0B       		.uleb128 0xb
 3313 0046 3B       		.uleb128 0x3b
 3314 0047 0B       		.uleb128 0xb
 3315 0048 01       		.uleb128 0x1
 3316 0049 13       		.uleb128 0x13
 3317 004a 00       		.byte	0
 3318 004b 00       		.byte	0
 3319 004c 07       		.uleb128 0x7
 3320 004d 0D       		.uleb128 0xd
 3321 004e 00       		.byte	0
 3322 004f 03       		.uleb128 0x3
 3323 0050 0E       		.uleb128 0xe
 3324 0051 3A       		.uleb128 0x3a
 3325 0052 0B       		.uleb128 0xb
 3326 0053 3B       		.uleb128 0x3b
 3327 0054 0B       		.uleb128 0xb
 3328 0055 49       		.uleb128 0x49
 3329 0056 13       		.uleb128 0x13
 3330 0057 38       		.uleb128 0x38
 3331 0058 0B       		.uleb128 0xb
 3332 0059 00       		.byte	0
 3333 005a 00       		.byte	0
 3334 005b 08       		.uleb128 0x8
 3335 005c 0D       		.uleb128 0xd
 3336 005d 00       		.byte	0
 3337 005e 03       		.uleb128 0x3
 3338 005f 08       		.uleb128 0x8
 3339 0060 3A       		.uleb128 0x3a
 3340 0061 0B       		.uleb128 0xb
 3341 0062 3B       		.uleb128 0x3b
 3342 0063 05       		.uleb128 0x5
 3343 0064 49       		.uleb128 0x49
 3344 0065 13       		.uleb128 0x13
 3345 0066 38       		.uleb128 0x38
 3346 0067 0B       		.uleb128 0xb
 3347 0068 00       		.byte	0
 3348 0069 00       		.byte	0
 3349 006a 09       		.uleb128 0x9
 3350 006b 0D       		.uleb128 0xd
 3351 006c 00       		.byte	0
ARM GAS  /tmp/ccYjUgc7.s 			page 60


 3352 006d 03       		.uleb128 0x3
 3353 006e 0E       		.uleb128 0xe
 3354 006f 3A       		.uleb128 0x3a
 3355 0070 0B       		.uleb128 0xb
 3356 0071 3B       		.uleb128 0x3b
 3357 0072 05       		.uleb128 0x5
 3358 0073 49       		.uleb128 0x49
 3359 0074 13       		.uleb128 0x13
 3360 0075 38       		.uleb128 0x38
 3361 0076 0B       		.uleb128 0xb
 3362 0077 00       		.byte	0
 3363 0078 00       		.byte	0
 3364 0079 0A       		.uleb128 0xa
 3365 007a 0F       		.uleb128 0xf
 3366 007b 00       		.byte	0
 3367 007c 0B       		.uleb128 0xb
 3368 007d 0B       		.uleb128 0xb
 3369 007e 49       		.uleb128 0x49
 3370 007f 13       		.uleb128 0x13
 3371 0080 00       		.byte	0
 3372 0081 00       		.byte	0
 3373 0082 0B       		.uleb128 0xb
 3374 0083 13       		.uleb128 0x13
 3375 0084 01       		.byte	0x1
 3376 0085 03       		.uleb128 0x3
 3377 0086 0E       		.uleb128 0xe
 3378 0087 0B       		.uleb128 0xb
 3379 0088 0B       		.uleb128 0xb
 3380 0089 3A       		.uleb128 0x3a
 3381 008a 0B       		.uleb128 0xb
 3382 008b 3B       		.uleb128 0x3b
 3383 008c 05       		.uleb128 0x5
 3384 008d 01       		.uleb128 0x1
 3385 008e 13       		.uleb128 0x13
 3386 008f 00       		.byte	0
 3387 0090 00       		.byte	0
 3388 0091 0C       		.uleb128 0xc
 3389 0092 15       		.uleb128 0x15
 3390 0093 01       		.byte	0x1
 3391 0094 27       		.uleb128 0x27
 3392 0095 19       		.uleb128 0x19
 3393 0096 01       		.uleb128 0x1
 3394 0097 13       		.uleb128 0x13
 3395 0098 00       		.byte	0
 3396 0099 00       		.byte	0
 3397 009a 0D       		.uleb128 0xd
 3398 009b 05       		.uleb128 0x5
 3399 009c 00       		.byte	0
 3400 009d 49       		.uleb128 0x49
 3401 009e 13       		.uleb128 0x13
 3402 009f 00       		.byte	0
 3403 00a0 00       		.byte	0
 3404 00a1 0E       		.uleb128 0xe
 3405 00a2 0F       		.uleb128 0xf
 3406 00a3 00       		.byte	0
 3407 00a4 0B       		.uleb128 0xb
 3408 00a5 0B       		.uleb128 0xb
ARM GAS  /tmp/ccYjUgc7.s 			page 61


 3409 00a6 00       		.byte	0
 3410 00a7 00       		.byte	0
 3411 00a8 0F       		.uleb128 0xf
 3412 00a9 13       		.uleb128 0x13
 3413 00aa 01       		.byte	0x1
 3414 00ab 03       		.uleb128 0x3
 3415 00ac 0E       		.uleb128 0xe
 3416 00ad 0B       		.uleb128 0xb
 3417 00ae 05       		.uleb128 0x5
 3418 00af 3A       		.uleb128 0x3a
 3419 00b0 0B       		.uleb128 0xb
 3420 00b1 3B       		.uleb128 0x3b
 3421 00b2 05       		.uleb128 0x5
 3422 00b3 01       		.uleb128 0x1
 3423 00b4 13       		.uleb128 0x13
 3424 00b5 00       		.byte	0
 3425 00b6 00       		.byte	0
 3426 00b7 10       		.uleb128 0x10
 3427 00b8 04       		.uleb128 0x4
 3428 00b9 01       		.byte	0x1
 3429 00ba 0B       		.uleb128 0xb
 3430 00bb 0B       		.uleb128 0xb
 3431 00bc 3A       		.uleb128 0x3a
 3432 00bd 0B       		.uleb128 0xb
 3433 00be 3B       		.uleb128 0x3b
 3434 00bf 0B       		.uleb128 0xb
 3435 00c0 01       		.uleb128 0x1
 3436 00c1 13       		.uleb128 0x13
 3437 00c2 00       		.byte	0
 3438 00c3 00       		.byte	0
 3439 00c4 11       		.uleb128 0x11
 3440 00c5 28       		.uleb128 0x28
 3441 00c6 00       		.byte	0
 3442 00c7 03       		.uleb128 0x3
 3443 00c8 0E       		.uleb128 0xe
 3444 00c9 1C       		.uleb128 0x1c
 3445 00ca 0D       		.uleb128 0xd
 3446 00cb 00       		.byte	0
 3447 00cc 00       		.byte	0
 3448 00cd 12       		.uleb128 0x12
 3449 00ce 01       		.uleb128 0x1
 3450 00cf 01       		.byte	0x1
 3451 00d0 49       		.uleb128 0x49
 3452 00d1 13       		.uleb128 0x13
 3453 00d2 01       		.uleb128 0x1
 3454 00d3 13       		.uleb128 0x13
 3455 00d4 00       		.byte	0
 3456 00d5 00       		.byte	0
 3457 00d6 13       		.uleb128 0x13
 3458 00d7 21       		.uleb128 0x21
 3459 00d8 00       		.byte	0
 3460 00d9 49       		.uleb128 0x49
 3461 00da 13       		.uleb128 0x13
 3462 00db 2F       		.uleb128 0x2f
 3463 00dc 0B       		.uleb128 0xb
 3464 00dd 00       		.byte	0
 3465 00de 00       		.byte	0
ARM GAS  /tmp/ccYjUgc7.s 			page 62


 3466 00df 14       		.uleb128 0x14
 3467 00e0 13       		.uleb128 0x13
 3468 00e1 01       		.byte	0x1
 3469 00e2 0B       		.uleb128 0xb
 3470 00e3 0B       		.uleb128 0xb
 3471 00e4 3A       		.uleb128 0x3a
 3472 00e5 0B       		.uleb128 0xb
 3473 00e6 3B       		.uleb128 0x3b
 3474 00e7 05       		.uleb128 0x5
 3475 00e8 01       		.uleb128 0x1
 3476 00e9 13       		.uleb128 0x13
 3477 00ea 00       		.byte	0
 3478 00eb 00       		.byte	0
 3479 00ec 15       		.uleb128 0x15
 3480 00ed 16       		.uleb128 0x16
 3481 00ee 00       		.byte	0
 3482 00ef 03       		.uleb128 0x3
 3483 00f0 0E       		.uleb128 0xe
 3484 00f1 3A       		.uleb128 0x3a
 3485 00f2 0B       		.uleb128 0xb
 3486 00f3 3B       		.uleb128 0x3b
 3487 00f4 05       		.uleb128 0x5
 3488 00f5 49       		.uleb128 0x49
 3489 00f6 13       		.uleb128 0x13
 3490 00f7 00       		.byte	0
 3491 00f8 00       		.byte	0
 3492 00f9 16       		.uleb128 0x16
 3493 00fa 0D       		.uleb128 0xd
 3494 00fb 00       		.byte	0
 3495 00fc 03       		.uleb128 0x3
 3496 00fd 08       		.uleb128 0x8
 3497 00fe 3A       		.uleb128 0x3a
 3498 00ff 0B       		.uleb128 0xb
 3499 0100 3B       		.uleb128 0x3b
 3500 0101 0B       		.uleb128 0xb
 3501 0102 49       		.uleb128 0x49
 3502 0103 13       		.uleb128 0x13
 3503 0104 38       		.uleb128 0x38
 3504 0105 0B       		.uleb128 0xb
 3505 0106 00       		.byte	0
 3506 0107 00       		.byte	0
 3507 0108 17       		.uleb128 0x17
 3508 0109 13       		.uleb128 0x13
 3509 010a 01       		.byte	0x1
 3510 010b 0B       		.uleb128 0xb
 3511 010c 0B       		.uleb128 0xb
 3512 010d 3A       		.uleb128 0x3a
 3513 010e 0B       		.uleb128 0xb
 3514 010f 3B       		.uleb128 0x3b
 3515 0110 0B       		.uleb128 0xb
 3516 0111 01       		.uleb128 0x1
 3517 0112 13       		.uleb128 0x13
 3518 0113 00       		.byte	0
 3519 0114 00       		.byte	0
 3520 0115 18       		.uleb128 0x18
 3521 0116 17       		.uleb128 0x17
 3522 0117 01       		.byte	0x1
ARM GAS  /tmp/ccYjUgc7.s 			page 63


 3523 0118 0B       		.uleb128 0xb
 3524 0119 0B       		.uleb128 0xb
 3525 011a 3A       		.uleb128 0x3a
 3526 011b 0B       		.uleb128 0xb
 3527 011c 3B       		.uleb128 0x3b
 3528 011d 0B       		.uleb128 0xb
 3529 011e 01       		.uleb128 0x1
 3530 011f 13       		.uleb128 0x13
 3531 0120 00       		.byte	0
 3532 0121 00       		.byte	0
 3533 0122 19       		.uleb128 0x19
 3534 0123 0D       		.uleb128 0xd
 3535 0124 00       		.byte	0
 3536 0125 03       		.uleb128 0x3
 3537 0126 0E       		.uleb128 0xe
 3538 0127 3A       		.uleb128 0x3a
 3539 0128 0B       		.uleb128 0xb
 3540 0129 3B       		.uleb128 0x3b
 3541 012a 05       		.uleb128 0x5
 3542 012b 49       		.uleb128 0x49
 3543 012c 13       		.uleb128 0x13
 3544 012d 00       		.byte	0
 3545 012e 00       		.byte	0
 3546 012f 1A       		.uleb128 0x1a
 3547 0130 26       		.uleb128 0x26
 3548 0131 00       		.byte	0
 3549 0132 49       		.uleb128 0x49
 3550 0133 13       		.uleb128 0x13
 3551 0134 00       		.byte	0
 3552 0135 00       		.byte	0
 3553 0136 1B       		.uleb128 0x1b
 3554 0137 2E       		.uleb128 0x2e
 3555 0138 01       		.byte	0x1
 3556 0139 3F       		.uleb128 0x3f
 3557 013a 19       		.uleb128 0x19
 3558 013b 03       		.uleb128 0x3
 3559 013c 0E       		.uleb128 0xe
 3560 013d 3A       		.uleb128 0x3a
 3561 013e 0B       		.uleb128 0xb
 3562 013f 3B       		.uleb128 0x3b
 3563 0140 0B       		.uleb128 0xb
 3564 0141 27       		.uleb128 0x27
 3565 0142 19       		.uleb128 0x19
 3566 0143 11       		.uleb128 0x11
 3567 0144 01       		.uleb128 0x1
 3568 0145 12       		.uleb128 0x12
 3569 0146 06       		.uleb128 0x6
 3570 0147 40       		.uleb128 0x40
 3571 0148 18       		.uleb128 0x18
 3572 0149 9642     		.uleb128 0x2116
 3573 014b 19       		.uleb128 0x19
 3574 014c 01       		.uleb128 0x1
 3575 014d 13       		.uleb128 0x13
 3576 014e 00       		.byte	0
 3577 014f 00       		.byte	0
 3578 0150 1C       		.uleb128 0x1c
 3579 0151 34       		.uleb128 0x34
ARM GAS  /tmp/ccYjUgc7.s 			page 64


 3580 0152 00       		.byte	0
 3581 0153 03       		.uleb128 0x3
 3582 0154 0E       		.uleb128 0xe
 3583 0155 3A       		.uleb128 0x3a
 3584 0156 0B       		.uleb128 0xb
 3585 0157 3B       		.uleb128 0x3b
 3586 0158 0B       		.uleb128 0xb
 3587 0159 49       		.uleb128 0x49
 3588 015a 13       		.uleb128 0x13
 3589 015b 02       		.uleb128 0x2
 3590 015c 17       		.uleb128 0x17
 3591 015d 00       		.byte	0
 3592 015e 00       		.byte	0
 3593 015f 1D       		.uleb128 0x1d
 3594 0160 898201   		.uleb128 0x4109
 3595 0163 00       		.byte	0
 3596 0164 11       		.uleb128 0x11
 3597 0165 01       		.uleb128 0x1
 3598 0166 9542     		.uleb128 0x2115
 3599 0168 19       		.uleb128 0x19
 3600 0169 31       		.uleb128 0x31
 3601 016a 13       		.uleb128 0x13
 3602 016b 00       		.byte	0
 3603 016c 00       		.byte	0
 3604 016d 1E       		.uleb128 0x1e
 3605 016e 2E       		.uleb128 0x2e
 3606 016f 01       		.byte	0x1
 3607 0170 3F       		.uleb128 0x3f
 3608 0171 19       		.uleb128 0x19
 3609 0172 03       		.uleb128 0x3
 3610 0173 0E       		.uleb128 0xe
 3611 0174 3A       		.uleb128 0x3a
 3612 0175 0B       		.uleb128 0xb
 3613 0176 3B       		.uleb128 0x3b
 3614 0177 05       		.uleb128 0x5
 3615 0178 27       		.uleb128 0x27
 3616 0179 19       		.uleb128 0x19
 3617 017a 11       		.uleb128 0x11
 3618 017b 01       		.uleb128 0x1
 3619 017c 12       		.uleb128 0x12
 3620 017d 06       		.uleb128 0x6
 3621 017e 40       		.uleb128 0x40
 3622 017f 18       		.uleb128 0x18
 3623 0180 9642     		.uleb128 0x2116
 3624 0182 19       		.uleb128 0x19
 3625 0183 01       		.uleb128 0x1
 3626 0184 13       		.uleb128 0x13
 3627 0185 00       		.byte	0
 3628 0186 00       		.byte	0
 3629 0187 1F       		.uleb128 0x1f
 3630 0188 34       		.uleb128 0x34
 3631 0189 00       		.byte	0
 3632 018a 03       		.uleb128 0x3
 3633 018b 0E       		.uleb128 0xe
 3634 018c 3A       		.uleb128 0x3a
 3635 018d 0B       		.uleb128 0xb
 3636 018e 3B       		.uleb128 0x3b
ARM GAS  /tmp/ccYjUgc7.s 			page 65


 3637 018f 05       		.uleb128 0x5
 3638 0190 49       		.uleb128 0x49
 3639 0191 13       		.uleb128 0x13
 3640 0192 02       		.uleb128 0x2
 3641 0193 17       		.uleb128 0x17
 3642 0194 00       		.byte	0
 3643 0195 00       		.byte	0
 3644 0196 20       		.uleb128 0x20
 3645 0197 2E       		.uleb128 0x2e
 3646 0198 01       		.byte	0x1
 3647 0199 3F       		.uleb128 0x3f
 3648 019a 19       		.uleb128 0x19
 3649 019b 03       		.uleb128 0x3
 3650 019c 0E       		.uleb128 0xe
 3651 019d 3A       		.uleb128 0x3a
 3652 019e 0B       		.uleb128 0xb
 3653 019f 3B       		.uleb128 0x3b
 3654 01a0 05       		.uleb128 0x5
 3655 01a1 27       		.uleb128 0x27
 3656 01a2 19       		.uleb128 0x19
 3657 01a3 11       		.uleb128 0x11
 3658 01a4 01       		.uleb128 0x1
 3659 01a5 12       		.uleb128 0x12
 3660 01a6 06       		.uleb128 0x6
 3661 01a7 40       		.uleb128 0x40
 3662 01a8 18       		.uleb128 0x18
 3663 01a9 9742     		.uleb128 0x2117
 3664 01ab 19       		.uleb128 0x19
 3665 01ac 01       		.uleb128 0x1
 3666 01ad 13       		.uleb128 0x13
 3667 01ae 00       		.byte	0
 3668 01af 00       		.byte	0
 3669 01b0 21       		.uleb128 0x21
 3670 01b1 34       		.uleb128 0x34
 3671 01b2 00       		.byte	0
 3672 01b3 03       		.uleb128 0x3
 3673 01b4 08       		.uleb128 0x8
 3674 01b5 3A       		.uleb128 0x3a
 3675 01b6 0B       		.uleb128 0xb
 3676 01b7 3B       		.uleb128 0x3b
 3677 01b8 05       		.uleb128 0x5
 3678 01b9 49       		.uleb128 0x49
 3679 01ba 13       		.uleb128 0x13
 3680 01bb 02       		.uleb128 0x2
 3681 01bc 17       		.uleb128 0x17
 3682 01bd 00       		.byte	0
 3683 01be 00       		.byte	0
 3684 01bf 22       		.uleb128 0x22
 3685 01c0 2E       		.uleb128 0x2e
 3686 01c1 01       		.byte	0x1
 3687 01c2 3F       		.uleb128 0x3f
 3688 01c3 19       		.uleb128 0x19
 3689 01c4 03       		.uleb128 0x3
 3690 01c5 0E       		.uleb128 0xe
 3691 01c6 3A       		.uleb128 0x3a
 3692 01c7 0B       		.uleb128 0xb
 3693 01c8 3B       		.uleb128 0x3b
ARM GAS  /tmp/ccYjUgc7.s 			page 66


 3694 01c9 05       		.uleb128 0x5
 3695 01ca 27       		.uleb128 0x27
 3696 01cb 19       		.uleb128 0x19
 3697 01cc 49       		.uleb128 0x49
 3698 01cd 13       		.uleb128 0x13
 3699 01ce 11       		.uleb128 0x11
 3700 01cf 01       		.uleb128 0x1
 3701 01d0 12       		.uleb128 0x12
 3702 01d1 06       		.uleb128 0x6
 3703 01d2 40       		.uleb128 0x40
 3704 01d3 18       		.uleb128 0x18
 3705 01d4 9742     		.uleb128 0x2117
 3706 01d6 19       		.uleb128 0x19
 3707 01d7 01       		.uleb128 0x1
 3708 01d8 13       		.uleb128 0x13
 3709 01d9 00       		.byte	0
 3710 01da 00       		.byte	0
 3711 01db 23       		.uleb128 0x23
 3712 01dc 05       		.uleb128 0x5
 3713 01dd 00       		.byte	0
 3714 01de 03       		.uleb128 0x3
 3715 01df 0E       		.uleb128 0xe
 3716 01e0 3A       		.uleb128 0x3a
 3717 01e1 0B       		.uleb128 0xb
 3718 01e2 3B       		.uleb128 0x3b
 3719 01e3 05       		.uleb128 0x5
 3720 01e4 49       		.uleb128 0x49
 3721 01e5 13       		.uleb128 0x13
 3722 01e6 02       		.uleb128 0x2
 3723 01e7 17       		.uleb128 0x17
 3724 01e8 00       		.byte	0
 3725 01e9 00       		.byte	0
 3726 01ea 24       		.uleb128 0x24
 3727 01eb 34       		.uleb128 0x34
 3728 01ec 00       		.byte	0
 3729 01ed 03       		.uleb128 0x3
 3730 01ee 0E       		.uleb128 0xe
 3731 01ef 49       		.uleb128 0x49
 3732 01f0 13       		.uleb128 0x13
 3733 01f1 34       		.uleb128 0x34
 3734 01f2 19       		.uleb128 0x19
 3735 01f3 00       		.byte	0
 3736 01f4 00       		.byte	0
 3737 01f5 25       		.uleb128 0x25
 3738 01f6 898201   		.uleb128 0x4109
 3739 01f9 00       		.byte	0
 3740 01fa 11       		.uleb128 0x11
 3741 01fb 01       		.uleb128 0x1
 3742 01fc 31       		.uleb128 0x31
 3743 01fd 13       		.uleb128 0x13
 3744 01fe 00       		.byte	0
 3745 01ff 00       		.byte	0
 3746 0200 26       		.uleb128 0x26
 3747 0201 34       		.uleb128 0x34
 3748 0202 00       		.byte	0
 3749 0203 03       		.uleb128 0x3
 3750 0204 0E       		.uleb128 0xe
ARM GAS  /tmp/ccYjUgc7.s 			page 67


 3751 0205 3A       		.uleb128 0x3a
 3752 0206 0B       		.uleb128 0xb
 3753 0207 3B       		.uleb128 0x3b
 3754 0208 0B       		.uleb128 0xb
 3755 0209 49       		.uleb128 0x49
 3756 020a 13       		.uleb128 0x13
 3757 020b 02       		.uleb128 0x2
 3758 020c 18       		.uleb128 0x18
 3759 020d 00       		.byte	0
 3760 020e 00       		.byte	0
 3761 020f 27       		.uleb128 0x27
 3762 0210 34       		.uleb128 0x34
 3763 0211 00       		.byte	0
 3764 0212 03       		.uleb128 0x3
 3765 0213 0E       		.uleb128 0xe
 3766 0214 3A       		.uleb128 0x3a
 3767 0215 0B       		.uleb128 0xb
 3768 0216 3B       		.uleb128 0x3b
 3769 0217 05       		.uleb128 0x5
 3770 0218 49       		.uleb128 0x49
 3771 0219 13       		.uleb128 0x13
 3772 021a 3F       		.uleb128 0x3f
 3773 021b 19       		.uleb128 0x19
 3774 021c 3C       		.uleb128 0x3c
 3775 021d 19       		.uleb128 0x19
 3776 021e 00       		.byte	0
 3777 021f 00       		.byte	0
 3778 0220 28       		.uleb128 0x28
 3779 0221 34       		.uleb128 0x34
 3780 0222 00       		.byte	0
 3781 0223 03       		.uleb128 0x3
 3782 0224 08       		.uleb128 0x8
 3783 0225 3A       		.uleb128 0x3a
 3784 0226 0B       		.uleb128 0xb
 3785 0227 3B       		.uleb128 0x3b
 3786 0228 05       		.uleb128 0x5
 3787 0229 49       		.uleb128 0x49
 3788 022a 13       		.uleb128 0x13
 3789 022b 3F       		.uleb128 0x3f
 3790 022c 19       		.uleb128 0x19
 3791 022d 3C       		.uleb128 0x3c
 3792 022e 19       		.uleb128 0x19
 3793 022f 00       		.byte	0
 3794 0230 00       		.byte	0
 3795 0231 29       		.uleb128 0x29
 3796 0232 34       		.uleb128 0x34
 3797 0233 00       		.byte	0
 3798 0234 03       		.uleb128 0x3
 3799 0235 0E       		.uleb128 0xe
 3800 0236 3A       		.uleb128 0x3a
 3801 0237 0B       		.uleb128 0xb
 3802 0238 3B       		.uleb128 0x3b
 3803 0239 0B       		.uleb128 0xb
 3804 023a 49       		.uleb128 0x49
 3805 023b 13       		.uleb128 0x13
 3806 023c 3F       		.uleb128 0x3f
 3807 023d 19       		.uleb128 0x19
ARM GAS  /tmp/ccYjUgc7.s 			page 68


 3808 023e 02       		.uleb128 0x2
 3809 023f 18       		.uleb128 0x18
 3810 0240 00       		.byte	0
 3811 0241 00       		.byte	0
 3812 0242 2A       		.uleb128 0x2a
 3813 0243 2E       		.uleb128 0x2e
 3814 0244 00       		.byte	0
 3815 0245 3F       		.uleb128 0x3f
 3816 0246 19       		.uleb128 0x19
 3817 0247 03       		.uleb128 0x3
 3818 0248 0E       		.uleb128 0xe
 3819 0249 3A       		.uleb128 0x3a
 3820 024a 0B       		.uleb128 0xb
 3821 024b 3B       		.uleb128 0x3b
 3822 024c 05       		.uleb128 0x5
 3823 024d 27       		.uleb128 0x27
 3824 024e 19       		.uleb128 0x19
 3825 024f 3C       		.uleb128 0x3c
 3826 0250 19       		.uleb128 0x19
 3827 0251 00       		.byte	0
 3828 0252 00       		.byte	0
 3829 0253 2B       		.uleb128 0x2b
 3830 0254 2E       		.uleb128 0x2e
 3831 0255 01       		.byte	0x1
 3832 0256 3F       		.uleb128 0x3f
 3833 0257 19       		.uleb128 0x19
 3834 0258 03       		.uleb128 0x3
 3835 0259 0E       		.uleb128 0xe
 3836 025a 3A       		.uleb128 0x3a
 3837 025b 0B       		.uleb128 0xb
 3838 025c 3B       		.uleb128 0x3b
 3839 025d 0B       		.uleb128 0xb
 3840 025e 27       		.uleb128 0x27
 3841 025f 19       		.uleb128 0x19
 3842 0260 3C       		.uleb128 0x3c
 3843 0261 19       		.uleb128 0x19
 3844 0262 01       		.uleb128 0x1
 3845 0263 13       		.uleb128 0x13
 3846 0264 00       		.byte	0
 3847 0265 00       		.byte	0
 3848 0266 2C       		.uleb128 0x2c
 3849 0267 2E       		.uleb128 0x2e
 3850 0268 01       		.byte	0x1
 3851 0269 3F       		.uleb128 0x3f
 3852 026a 19       		.uleb128 0x19
 3853 026b 03       		.uleb128 0x3
 3854 026c 0E       		.uleb128 0xe
 3855 026d 3A       		.uleb128 0x3a
 3856 026e 0B       		.uleb128 0xb
 3857 026f 3B       		.uleb128 0x3b
 3858 0270 0B       		.uleb128 0xb
 3859 0271 27       		.uleb128 0x27
 3860 0272 19       		.uleb128 0x19
 3861 0273 3C       		.uleb128 0x3c
 3862 0274 19       		.uleb128 0x19
 3863 0275 00       		.byte	0
 3864 0276 00       		.byte	0
ARM GAS  /tmp/ccYjUgc7.s 			page 69


 3865 0277 00       		.byte	0
 3866              		.section	.debug_loc,"",%progbits
 3867              	.Ldebug_loc0:
 3868              	.LLST0:
 3869 0000 0C000000 		.4byte	.LVL0
 3870 0004 15000000 		.4byte	.LVL1-1
 3871 0008 0100     		.2byte	0x1
 3872 000a 51       		.byte	0x51
 3873 000b 00000000 		.4byte	0
 3874 000f 00000000 		.4byte	0
 3875              	.LLST1:
 3876 0013 0E000000 		.4byte	.LVL3
 3877 0017 19000000 		.4byte	.LVL4-1
 3878 001b 0100     		.2byte	0x1
 3879 001d 51       		.byte	0x51
 3880 001e 00000000 		.4byte	0
 3881 0022 00000000 		.4byte	0
 3882              	.LLST2:
 3883 0026 0E000000 		.4byte	.LVL6
 3884 002a 19000000 		.4byte	.LVL7-1
 3885 002e 0100     		.2byte	0x1
 3886 0030 51       		.byte	0x51
 3887 0031 00000000 		.4byte	0
 3888 0035 00000000 		.4byte	0
 3889              	.LLST3:
 3890 0039 0E000000 		.4byte	.LVL9
 3891 003d 19000000 		.4byte	.LVL10-1
 3892 0041 0100     		.2byte	0x1
 3893 0043 51       		.byte	0x51
 3894 0044 00000000 		.4byte	0
 3895 0048 00000000 		.4byte	0
 3896              	.LLST4:
 3897 004c 0E000000 		.4byte	.LVL12
 3898 0050 15000000 		.4byte	.LVL13-1
 3899 0054 0100     		.2byte	0x1
 3900 0056 51       		.byte	0x51
 3901 0057 00000000 		.4byte	0
 3902 005b 00000000 		.4byte	0
 3903              	.LLST5:
 3904 005f 0E000000 		.4byte	.LVL15
 3905 0063 19000000 		.4byte	.LVL16-1
 3906 0067 0100     		.2byte	0x1
 3907 0069 51       		.byte	0x51
 3908 006a 00000000 		.4byte	0
 3909 006e 00000000 		.4byte	0
 3910              	.LLST6:
 3911 0072 0E000000 		.4byte	.LVL18
 3912 0076 19000000 		.4byte	.LVL19-1
 3913 007a 0100     		.2byte	0x1
 3914 007c 51       		.byte	0x51
 3915 007d 00000000 		.4byte	0
 3916 0081 00000000 		.4byte	0
 3917              	.LLST7:
 3918 0085 0E000000 		.4byte	.LVL21
 3919 0089 19000000 		.4byte	.LVL22-1
 3920 008d 0100     		.2byte	0x1
 3921 008f 51       		.byte	0x51
ARM GAS  /tmp/ccYjUgc7.s 			page 70


 3922 0090 00000000 		.4byte	0
 3923 0094 00000000 		.4byte	0
 3924              	.LLST8:
 3925 0098 0E000000 		.4byte	.LVL24
 3926 009c 15000000 		.4byte	.LVL25-1
 3927 00a0 0100     		.2byte	0x1
 3928 00a2 51       		.byte	0x51
 3929 00a3 00000000 		.4byte	0
 3930 00a7 00000000 		.4byte	0
 3931              	.LLST9:
 3932 00ab 0E000000 		.4byte	.LVL27
 3933 00af 19000000 		.4byte	.LVL28-1
 3934 00b3 0100     		.2byte	0x1
 3935 00b5 51       		.byte	0x51
 3936 00b6 00000000 		.4byte	0
 3937 00ba 00000000 		.4byte	0
 3938              	.LLST10:
 3939 00be 0E000000 		.4byte	.LVL30
 3940 00c2 19000000 		.4byte	.LVL31-1
 3941 00c6 0100     		.2byte	0x1
 3942 00c8 51       		.byte	0x51
 3943 00c9 00000000 		.4byte	0
 3944 00cd 00000000 		.4byte	0
 3945              	.LLST11:
 3946 00d1 0E000000 		.4byte	.LVL33
 3947 00d5 19000000 		.4byte	.LVL34-1
 3948 00d9 0100     		.2byte	0x1
 3949 00db 51       		.byte	0x51
 3950 00dc 00000000 		.4byte	0
 3951 00e0 00000000 		.4byte	0
 3952              	.LLST12:
 3953 00e4 0E000000 		.4byte	.LVL36
 3954 00e8 15000000 		.4byte	.LVL37-1
 3955 00ec 0100     		.2byte	0x1
 3956 00ee 51       		.byte	0x51
 3957 00ef 00000000 		.4byte	0
 3958 00f3 00000000 		.4byte	0
 3959              	.LLST13:
 3960 00f7 0E000000 		.4byte	.LVL39
 3961 00fb 19000000 		.4byte	.LVL40-1
 3962 00ff 0100     		.2byte	0x1
 3963 0101 51       		.byte	0x51
 3964 0102 00000000 		.4byte	0
 3965 0106 00000000 		.4byte	0
 3966              	.LLST14:
 3967 010a 0E000000 		.4byte	.LVL42
 3968 010e 19000000 		.4byte	.LVL43-1
 3969 0112 0100     		.2byte	0x1
 3970 0114 51       		.byte	0x51
 3971 0115 00000000 		.4byte	0
 3972 0119 00000000 		.4byte	0
 3973              	.LLST15:
 3974 011d 0E000000 		.4byte	.LVL45
 3975 0121 19000000 		.4byte	.LVL46-1
 3976 0125 0100     		.2byte	0x1
 3977 0127 51       		.byte	0x51
 3978 0128 00000000 		.4byte	0
ARM GAS  /tmp/ccYjUgc7.s 			page 71


 3979 012c 00000000 		.4byte	0
 3980              	.LLST16:
 3981 0130 0C000000 		.4byte	.LVL48
 3982 0134 10000000 		.4byte	.LVL49
 3983 0138 0200     		.2byte	0x2
 3984 013a 30       		.byte	0x30
 3985 013b 9F       		.byte	0x9f
 3986 013c 00000000 		.4byte	0
 3987 0140 00000000 		.4byte	0
 3988              	.LLST17:
 3989 0144 00000000 		.4byte	.LVL50
 3990 0148 66000000 		.4byte	.LVL52
 3991 014c 0100     		.2byte	0x1
 3992 014e 50       		.byte	0x50
 3993 014f 66000000 		.4byte	.LVL52
 3994 0153 70000000 		.4byte	.LVL54
 3995 0157 0400     		.2byte	0x4
 3996 0159 F3       		.byte	0xf3
 3997 015a 01       		.uleb128 0x1
 3998 015b 50       		.byte	0x50
 3999 015c 9F       		.byte	0x9f
 4000 015d 70000000 		.4byte	.LVL54
 4001 0161 7E000000 		.4byte	.LVL56
 4002 0165 0100     		.2byte	0x1
 4003 0167 50       		.byte	0x50
 4004 0168 7E000000 		.4byte	.LVL56
 4005 016c 82000000 		.4byte	.LVL57
 4006 0170 0400     		.2byte	0x4
 4007 0172 F3       		.byte	0xf3
 4008 0173 01       		.uleb128 0x1
 4009 0174 50       		.byte	0x50
 4010 0175 9F       		.byte	0x9f
 4011 0176 82000000 		.4byte	.LVL57
 4012 017a 84000000 		.4byte	.LVL58
 4013 017e 0100     		.2byte	0x1
 4014 0180 50       		.byte	0x50
 4015 0181 84000000 		.4byte	.LVL58
 4016 0185 94000000 		.4byte	.LFE273
 4017 0189 0400     		.2byte	0x4
 4018 018b F3       		.byte	0xf3
 4019 018c 01       		.uleb128 0x1
 4020 018d 50       		.byte	0x50
 4021 018e 9F       		.byte	0x9f
 4022 018f 00000000 		.4byte	0
 4023 0193 00000000 		.4byte	0
 4024              	.LLST18:
 4025 0197 00000000 		.4byte	.LVL50
 4026 019b 69000000 		.4byte	.LVL53-1
 4027 019f 0100     		.2byte	0x1
 4028 01a1 51       		.byte	0x51
 4029 01a2 69000000 		.4byte	.LVL53-1
 4030 01a6 70000000 		.4byte	.LVL54
 4031 01aa 0400     		.2byte	0x4
 4032 01ac F3       		.byte	0xf3
 4033 01ad 01       		.uleb128 0x1
 4034 01ae 51       		.byte	0x51
 4035 01af 9F       		.byte	0x9f
ARM GAS  /tmp/ccYjUgc7.s 			page 72


 4036 01b0 70000000 		.4byte	.LVL54
 4037 01b4 94000000 		.4byte	.LFE273
 4038 01b8 0100     		.2byte	0x1
 4039 01ba 51       		.byte	0x51
 4040 01bb 00000000 		.4byte	0
 4041 01bf 00000000 		.4byte	0
 4042              	.LLST19:
 4043 01c3 00000000 		.4byte	.LVL50
 4044 01c7 69000000 		.4byte	.LVL53-1
 4045 01cb 0100     		.2byte	0x1
 4046 01cd 52       		.byte	0x52
 4047 01ce 69000000 		.4byte	.LVL53-1
 4048 01d2 70000000 		.4byte	.LVL54
 4049 01d6 0400     		.2byte	0x4
 4050 01d8 F3       		.byte	0xf3
 4051 01d9 01       		.uleb128 0x1
 4052 01da 52       		.byte	0x52
 4053 01db 9F       		.byte	0x9f
 4054 01dc 70000000 		.4byte	.LVL54
 4055 01e0 94000000 		.4byte	.LFE273
 4056 01e4 0100     		.2byte	0x1
 4057 01e6 52       		.byte	0x52
 4058 01e7 00000000 		.4byte	0
 4059 01eb 00000000 		.4byte	0
 4060              	.LLST20:
 4061 01ef 00000000 		.4byte	.LVL50
 4062 01f3 32000000 		.4byte	.LVL51
 4063 01f7 0100     		.2byte	0x1
 4064 01f9 53       		.byte	0x53
 4065 01fa 32000000 		.4byte	.LVL51
 4066 01fe 69000000 		.4byte	.LVL53-1
 4067 0202 0200     		.2byte	0x2
 4068 0204 78       		.byte	0x78
 4069 0205 04       		.sleb128 4
 4070 0206 69000000 		.4byte	.LVL53-1
 4071 020a 70000000 		.4byte	.LVL54
 4072 020e 0400     		.2byte	0x4
 4073 0210 F3       		.byte	0xf3
 4074 0211 01       		.uleb128 0x1
 4075 0212 53       		.byte	0x53
 4076 0213 9F       		.byte	0x9f
 4077 0214 70000000 		.4byte	.LVL54
 4078 0218 7C000000 		.4byte	.LVL55
 4079 021c 0200     		.2byte	0x2
 4080 021e 78       		.byte	0x78
 4081 021f 04       		.sleb128 4
 4082 0220 7C000000 		.4byte	.LVL55
 4083 0224 82000000 		.4byte	.LVL57
 4084 0228 0100     		.2byte	0x1
 4085 022a 53       		.byte	0x53
 4086 022b 82000000 		.4byte	.LVL57
 4087 022f 88000000 		.4byte	.LVL59
 4088 0233 0200     		.2byte	0x2
 4089 0235 78       		.byte	0x78
 4090 0236 04       		.sleb128 4
 4091 0237 88000000 		.4byte	.LVL59
 4092 023b 94000000 		.4byte	.LFE273
ARM GAS  /tmp/ccYjUgc7.s 			page 73


 4093 023f 0400     		.2byte	0x4
 4094 0241 F3       		.byte	0xf3
 4095 0242 01       		.uleb128 0x1
 4096 0243 53       		.byte	0x53
 4097 0244 9F       		.byte	0x9f
 4098 0245 00000000 		.4byte	0
 4099 0249 00000000 		.4byte	0
 4100              	.LLST21:
 4101 024d 00000000 		.4byte	.LVL60
 4102 0251 06000000 		.4byte	.LVL61
 4103 0255 0100     		.2byte	0x1
 4104 0257 50       		.byte	0x50
 4105 0258 06000000 		.4byte	.LVL61
 4106 025c 3E000000 		.4byte	.LVL63
 4107 0260 0100     		.2byte	0x1
 4108 0262 54       		.byte	0x54
 4109 0263 3E000000 		.4byte	.LVL63
 4110 0267 48000000 		.4byte	.LFE274
 4111 026b 0400     		.2byte	0x4
 4112 026d F3       		.byte	0xf3
 4113 026e 01       		.uleb128 0x1
 4114 026f 50       		.byte	0x50
 4115 0270 9F       		.byte	0x9f
 4116 0271 00000000 		.4byte	0
 4117 0275 00000000 		.4byte	0
 4118              		.section	.debug_aranges,"",%progbits
 4119 0000 AC000000 		.4byte	0xac
 4120 0004 0200     		.2byte	0x2
 4121 0006 00000000 		.4byte	.Ldebug_info0
 4122 000a 04       		.byte	0x4
 4123 000b 00       		.byte	0
 4124 000c 0000     		.2byte	0
 4125 000e 0000     		.2byte	0
 4126 0010 00000000 		.4byte	.LFB256
 4127 0014 28000000 		.4byte	.LFE256-.LFB256
 4128 0018 00000000 		.4byte	.LFB257
 4129 001c 2C000000 		.4byte	.LFE257-.LFB257
 4130 0020 00000000 		.4byte	.LFB258
 4131 0024 2C000000 		.4byte	.LFE258-.LFB258
 4132 0028 00000000 		.4byte	.LFB259
 4133 002c 2C000000 		.4byte	.LFE259-.LFB259
 4134 0030 00000000 		.4byte	.LFB260
 4135 0034 28000000 		.4byte	.LFE260-.LFB260
 4136 0038 00000000 		.4byte	.LFB261
 4137 003c 2C000000 		.4byte	.LFE261-.LFB261
 4138 0040 00000000 		.4byte	.LFB262
 4139 0044 2C000000 		.4byte	.LFE262-.LFB262
 4140 0048 00000000 		.4byte	.LFB263
 4141 004c 2C000000 		.4byte	.LFE263-.LFB263
 4142 0050 00000000 		.4byte	.LFB264
 4143 0054 28000000 		.4byte	.LFE264-.LFB264
 4144 0058 00000000 		.4byte	.LFB265
 4145 005c 2C000000 		.4byte	.LFE265-.LFB265
 4146 0060 00000000 		.4byte	.LFB266
 4147 0064 2C000000 		.4byte	.LFE266-.LFB266
 4148 0068 00000000 		.4byte	.LFB267
 4149 006c 2C000000 		.4byte	.LFE267-.LFB267
ARM GAS  /tmp/ccYjUgc7.s 			page 74


 4150 0070 00000000 		.4byte	.LFB268
 4151 0074 28000000 		.4byte	.LFE268-.LFB268
 4152 0078 00000000 		.4byte	.LFB269
 4153 007c 2C000000 		.4byte	.LFE269-.LFB269
 4154 0080 00000000 		.4byte	.LFB270
 4155 0084 2C000000 		.4byte	.LFE270-.LFB270
 4156 0088 00000000 		.4byte	.LFB271
 4157 008c 2C000000 		.4byte	.LFE271-.LFB271
 4158 0090 00000000 		.4byte	.LFB272
 4159 0094 48000000 		.4byte	.LFE272-.LFB272
 4160 0098 00000000 		.4byte	.LFB273
 4161 009c 94000000 		.4byte	.LFE273-.LFB273
 4162 00a0 00000000 		.4byte	.LFB274
 4163 00a4 48000000 		.4byte	.LFE274-.LFB274
 4164 00a8 00000000 		.4byte	0
 4165 00ac 00000000 		.4byte	0
 4166              		.section	.debug_ranges,"",%progbits
 4167              	.Ldebug_ranges0:
 4168 0000 00000000 		.4byte	.LFB256
 4169 0004 28000000 		.4byte	.LFE256
 4170 0008 00000000 		.4byte	.LFB257
 4171 000c 2C000000 		.4byte	.LFE257
 4172 0010 00000000 		.4byte	.LFB258
 4173 0014 2C000000 		.4byte	.LFE258
 4174 0018 00000000 		.4byte	.LFB259
 4175 001c 2C000000 		.4byte	.LFE259
 4176 0020 00000000 		.4byte	.LFB260
 4177 0024 28000000 		.4byte	.LFE260
 4178 0028 00000000 		.4byte	.LFB261
 4179 002c 2C000000 		.4byte	.LFE261
 4180 0030 00000000 		.4byte	.LFB262
 4181 0034 2C000000 		.4byte	.LFE262
 4182 0038 00000000 		.4byte	.LFB263
 4183 003c 2C000000 		.4byte	.LFE263
 4184 0040 00000000 		.4byte	.LFB264
 4185 0044 28000000 		.4byte	.LFE264
 4186 0048 00000000 		.4byte	.LFB265
 4187 004c 2C000000 		.4byte	.LFE265
 4188 0050 00000000 		.4byte	.LFB266
 4189 0054 2C000000 		.4byte	.LFE266
 4190 0058 00000000 		.4byte	.LFB267
 4191 005c 2C000000 		.4byte	.LFE267
 4192 0060 00000000 		.4byte	.LFB268
 4193 0064 28000000 		.4byte	.LFE268
 4194 0068 00000000 		.4byte	.LFB269
 4195 006c 2C000000 		.4byte	.LFE269
 4196 0070 00000000 		.4byte	.LFB270
 4197 0074 2C000000 		.4byte	.LFE270
 4198 0078 00000000 		.4byte	.LFB271
 4199 007c 2C000000 		.4byte	.LFE271
 4200 0080 00000000 		.4byte	.LFB272
 4201 0084 48000000 		.4byte	.LFE272
 4202 0088 00000000 		.4byte	.LFB273
 4203 008c 94000000 		.4byte	.LFE273
 4204 0090 00000000 		.4byte	.LFB274
 4205 0094 48000000 		.4byte	.LFE274
 4206 0098 00000000 		.4byte	0
ARM GAS  /tmp/ccYjUgc7.s 			page 75


 4207 009c 00000000 		.4byte	0
 4208              		.section	.debug_line,"",%progbits
 4209              	.Ldebug_line0:
 4210 0000 91040000 		.section	.debug_str,"MS",%progbits,1
 4210      02004302 
 4210      00000201 
 4210      FB0E0D00 
 4210      01010101 
 4211              	.LASF168:
 4212 0000 44434D49 		.ascii	"DCMI_IRQn\000"
 4212      5F495251 
 4212      6E00
 4213              	.LASF51:
 4214 000a 63685F74 		.ascii	"ch_threads_list\000"
 4214      68726561 
 4214      64735F6C 
 4214      69737400 
 4215              	.LASF52:
 4216 001a 74687265 		.ascii	"threads_queue_t\000"
 4216      6164735F 
 4216      71756575 
 4216      655F7400 
 4217              	.LASF194:
 4218 002a 41504231 		.ascii	"APB1ENR\000"
 4218      454E5200 
 4219              	.LASF220:
 4220 0032 77746D74 		.ascii	"wtmtxp\000"
 4220      787000
 4221              	.LASF214:
 4222 0039 746D5F63 		.ascii	"tm_calibration_t\000"
 4222      616C6962 
 4222      72617469 
 4222      6F6E5F74 
 4222      00
 4223              	.LASF40:
 4224 004a 705F7469 		.ascii	"p_time\000"
 4224      6D6500
 4225              	.LASF229:
 4226 0051 63686172 		.ascii	"char\000"
 4226      00
 4227              	.LASF209:
 4228 0056 72656761 		.ascii	"regarm_t\000"
 4228      726D5F74 
 4228      00
 4229              	.LASF31:
 4230 005f 705F7072 		.ascii	"p_prio\000"
 4230      696F00
 4231              	.LASF202:
 4232 0066 41504232 		.ascii	"APB2LPENR\000"
 4232      4C50454E 
 4232      5200
 4233              	.LASF158:
 4234 0070 444D4132 		.ascii	"DMA2_Stream5_IRQn\000"
 4234      5F537472 
 4234      65616D35 
 4234      5F495251 
 4234      6E00
ARM GAS  /tmp/ccYjUgc7.s 			page 76


 4235              	.LASF139:
 4236 0082 5344494F 		.ascii	"SDIO_IRQn\000"
 4236      5F495251 
 4236      6E00
 4237              	.LASF188:
 4238 008c 41504232 		.ascii	"APB2RSTR\000"
 4238      52535452 
 4238      00
 4239              	.LASF112:
 4240 0095 43414E31 		.ascii	"CAN1_SCE_IRQn\000"
 4240      5F534345 
 4240      5F495251 
 4240      6E00
 4241              	.LASF124:
 4242 00a3 49324332 		.ascii	"I2C2_ER_IRQn\000"
 4242      5F45525F 
 4242      4952516E 
 4242      00
 4243              	.LASF245:
 4244 00b0 666C6167 		.ascii	"flags\000"
 4244      7300
 4245              	.LASF27:
 4246 00b6 73797374 		.ascii	"systime_t\000"
 4246      696D655F 
 4246      7400
 4247              	.LASF146:
 4248 00c0 444D4132 		.ascii	"DMA2_Stream0_IRQn\000"
 4248      5F537472 
 4248      65616D30 
 4248      5F495251 
 4248      6E00
 4249              	.LASF227:
 4250 00d2 6D5F6F77 		.ascii	"m_owner\000"
 4250      6E657200 
 4251              	.LASF223:
 4252 00da 735F7175 		.ascii	"s_queue\000"
 4252      65756500 
 4253              	.LASF72:
 4254 00e2 76745F73 		.ascii	"vt_systime\000"
 4254      79737469 
 4254      6D6500
 4255              	.LASF152:
 4256 00ed 4554485F 		.ascii	"ETH_WKUP_IRQn\000"
 4256      574B5550 
 4256      5F495251 
 4256      6E00
 4257              	.LASF42:
 4258 00fb 705F6D73 		.ascii	"p_msgqueue\000"
 4258      67717565 
 4258      756500
 4259              	.LASF0:
 4260 0106 756E7369 		.ascii	"unsigned int\000"
 4260      676E6564 
 4260      20696E74 
 4260      00
 4261              	.LASF106:
 4262 0113 444D4131 		.ascii	"DMA1_Stream5_IRQn\000"
ARM GAS  /tmp/ccYjUgc7.s 			page 77


 4262      5F537472 
 4262      65616D35 
 4262      5F495251 
 4262      6E00
 4263              	.LASF49:
 4264 0125 74687265 		.ascii	"threads_list_t\000"
 4264      6164735F 
 4264      6C697374 
 4264      5F7400
 4265              	.LASF77:
 4266 0134 63685F73 		.ascii	"ch_system\000"
 4266      79737465 
 4266      6D00
 4267              	.LASF89:
 4268 013e 53797354 		.ascii	"SysTick_IRQn\000"
 4268      69636B5F 
 4268      4952516E 
 4268      00
 4269              	.LASF41:
 4270 014b 705F7761 		.ascii	"p_waiting\000"
 4270      6974696E 
 4270      6700
 4271              	.LASF179:
 4272 0155 48494643 		.ascii	"HIFCR\000"
 4272      5200
 4273              	.LASF204:
 4274 015b 42444352 		.ascii	"BDCR\000"
 4274      00
 4275              	.LASF7:
 4276 0160 5F5F696E 		.ascii	"__int32_t\000"
 4276      7433325F 
 4276      7400
 4277              	.LASF101:
 4278 016a 444D4131 		.ascii	"DMA1_Stream0_IRQn\000"
 4278      5F537472 
 4278      65616D30 
 4278      5F495251 
 4278      6E00
 4279              	.LASF94:
 4280 017c 464C4153 		.ascii	"FLASH_IRQn\000"
 4280      485F4952 
 4280      516E00
 4281              	.LASF169:
 4282 0187 48415348 		.ascii	"HASH_RNG_IRQn\000"
 4282      5F524E47 
 4282      5F495251 
 4282      6E00
 4283              	.LASF96:
 4284 0195 45585449 		.ascii	"EXTI0_IRQn\000"
 4284      305F4952 
 4284      516E00
 4285              	.LASF208:
 4286 01a0 5243435F 		.ascii	"RCC_TypeDef\000"
 4286      54797065 
 4286      44656600 
 4287              	.LASF217:
 4288 01ac 77746F62 		.ascii	"wtobjp\000"
ARM GAS  /tmp/ccYjUgc7.s 			page 78


 4288      6A7000
 4289              	.LASF79:
 4290 01b3 76746C69 		.ascii	"vtlist\000"
 4290      737400
 4291              	.LASF165:
 4292 01ba 4F54475F 		.ascii	"OTG_HS_EP1_IN_IRQn\000"
 4292      48535F45 
 4292      50315F49 
 4292      4E5F4952 
 4292      516E00
 4293              	.LASF5:
 4294 01cd 73686F72 		.ascii	"short int\000"
 4294      7420696E 
 4294      7400
 4295              	.LASF130:
 4296 01d7 45585449 		.ascii	"EXTI15_10_IRQn\000"
 4296      31355F31 
 4296      305F4952 
 4296      516E00
 4297              	.LASF55:
 4298 01e6 63685F72 		.ascii	"ch_ready_list\000"
 4298      65616479 
 4298      5F6C6973 
 4298      7400
 4299              	.LASF81:
 4300 01f4 69646C65 		.ascii	"idle_thread_wa\000"
 4300      5F746872 
 4300      6561645F 
 4300      776100
 4301              	.LASF133:
 4302 0203 54494D38 		.ascii	"TIM8_BRK_TIM12_IRQn\000"
 4302      5F42524B 
 4302      5F54494D 
 4302      31325F49 
 4302      52516E00 
 4303              	.LASF172:
 4304 0217 4E445452 		.ascii	"NDTR\000"
 4304      00
 4305              	.LASF221:
 4306 021c 65776D61 		.ascii	"ewmask\000"
 4306      736B00
 4307              	.LASF120:
 4308 0223 54494D34 		.ascii	"TIM4_IRQn\000"
 4308      5F495251 
 4308      6E00
 4309              	.LASF277:
 4310 022d 6E766963 		.ascii	"nvicDisableVector\000"
 4310      44697361 
 4310      626C6556 
 4310      6563746F 
 4310      7200
 4311              	.LASF198:
 4312 023f 41484232 		.ascii	"AHB2LPENR\000"
 4312      4C50454E 
 4312      5200
 4313              	.LASF88:
 4314 0249 50656E64 		.ascii	"PendSV_IRQn\000"
ARM GAS  /tmp/ccYjUgc7.s 			page 79


 4314      53565F49 
 4314      52516E00 
 4315              	.LASF132:
 4316 0255 4F54475F 		.ascii	"OTG_FS_WKUP_IRQn\000"
 4316      46535F57 
 4316      4B55505F 
 4316      4952516E 
 4316      00
 4317              	.LASF142:
 4318 0266 55415254 		.ascii	"UART4_IRQn\000"
 4318      345F4952 
 4318      516E00
 4319              	.LASF62:
 4320 0271 76746675 		.ascii	"vtfunc_t\000"
 4320      6E635F74 
 4320      00
 4321              	.LASF74:
 4322 027a 63685F73 		.ascii	"ch_system_debug\000"
 4322      79737465 
 4322      6D5F6465 
 4322      62756700 
 4323              	.LASF140:
 4324 028a 54494D35 		.ascii	"TIM5_IRQn\000"
 4324      5F495251 
 4324      6E00
 4325              	.LASF224:
 4326 0294 735F636E 		.ascii	"s_cnt\000"
 4326      7400
 4327              	.LASF95:
 4328 029a 5243435F 		.ascii	"RCC_IRQn\000"
 4328      4952516E 
 4328      00
 4329              	.LASF83:
 4330 02a3 4D656D6F 		.ascii	"MemoryManagement_IRQn\000"
 4330      72794D61 
 4330      6E616765 
 4330      6D656E74 
 4330      5F495251 
 4331              	.LASF1:
 4332 02b9 7369676E 		.ascii	"signed char\000"
 4332      65642063 
 4332      68617200 
 4333              	.LASF16:
 4334 02c5 75696E74 		.ascii	"uint32_t\000"
 4334      33325F74 
 4334      00
 4335              	.LASF92:
 4336 02ce 54414D50 		.ascii	"TAMP_STAMP_IRQn\000"
 4336      5F535441 
 4336      4D505F49 
 4336      52516E00 
 4337              	.LASF25:
 4338 02de 6576656E 		.ascii	"eventmask_t\000"
 4338      746D6173 
 4338      6B5F7400 
 4339              	.LASF57:
 4340 02ea 725F7072 		.ascii	"r_prio\000"
ARM GAS  /tmp/ccYjUgc7.s 			page 80


 4340      696F00
 4341              	.LASF234:
 4342 02f1 69666372 		.ascii	"ifcr\000"
 4342      00
 4343              	.LASF69:
 4344 02f6 76745F70 		.ascii	"vt_par\000"
 4344      617200
 4345              	.LASF231:
 4346 02fd 666C6F61 		.ascii	"float\000"
 4346      7400
 4347              	.LASF157:
 4348 0303 4F54475F 		.ascii	"OTG_FS_IRQn\000"
 4348      46535F49 
 4348      52516E00 
 4349              	.LASF260:
 4350 030f 646D6149 		.ascii	"dmaInit\000"
 4350      6E697400 
 4351              	.LASF222:
 4352 0317 63685F73 		.ascii	"ch_semaphore\000"
 4352      656D6170 
 4352      686F7265 
 4352      00
 4353              	.LASF190:
 4354 0324 41484231 		.ascii	"AHB1ENR\000"
 4354      454E5200 
 4355              	.LASF23:
 4356 032c 74707269 		.ascii	"tprio_t\000"
 4356      6F5F7400 
 4357              	.LASF206:
 4358 0334 53534347 		.ascii	"SSCGR\000"
 4358      5200
 4359              	.LASF64:
 4360 033a 63685F76 		.ascii	"ch_virtual_timer\000"
 4360      69727475 
 4360      616C5F74 
 4360      696D6572 
 4360      00
 4361              	.LASF148:
 4362 034b 444D4132 		.ascii	"DMA2_Stream2_IRQn\000"
 4362      5F537472 
 4362      65616D32 
 4362      5F495251 
 4362      6E00
 4363              	.LASF125:
 4364 035d 53504931 		.ascii	"SPI1_IRQn\000"
 4364      5F495251 
 4364      6E00
 4365              	.LASF114:
 4366 0367 54494D31 		.ascii	"TIM1_BRK_TIM9_IRQn\000"
 4366      5F42524B 
 4366      5F54494D 
 4366      395F4952 
 4366      516E00
 4367              	.LASF13:
 4368 037a 6C6F6E67 		.ascii	"long long unsigned int\000"
 4368      206C6F6E 
 4368      6720756E 
ARM GAS  /tmp/ccYjUgc7.s 			page 81


 4368      7369676E 
 4368      65642069 
 4369              	.LASF137:
 4370 0391 444D4131 		.ascii	"DMA1_Stream7_IRQn\000"
 4370      5F537472 
 4370      65616D37 
 4370      5F495251 
 4370      6E00
 4371              	.LASF178:
 4372 03a3 4C494643 		.ascii	"LIFCR\000"
 4372      5200
 4373              	.LASF237:
 4374 03a9 76656374 		.ascii	"vector\000"
 4374      6F7200
 4375              	.LASF26:
 4376 03b0 636E745F 		.ascii	"cnt_t\000"
 4376      7400
 4377              	.LASF156:
 4378 03b6 43414E32 		.ascii	"CAN2_SCE_IRQn\000"
 4378      5F534345 
 4378      5F495251 
 4378      6E00
 4379              	.LASF111:
 4380 03c4 43414E31 		.ascii	"CAN1_RX1_IRQn\000"
 4380      5F525831 
 4380      5F495251 
 4380      6E00
 4381              	.LASF185:
 4382 03d2 41484233 		.ascii	"AHB3RSTR\000"
 4382      52535452 
 4382      00
 4383              	.LASF33:
 4384 03db 705F6E65 		.ascii	"p_newer\000"
 4384      77657200 
 4385              	.LASF71:
 4386 03e3 63685F76 		.ascii	"ch_virtual_timers_list\000"
 4386      69727475 
 4386      616C5F74 
 4386      696D6572 
 4386      735F6C69 
 4387              	.LASF28:
 4388 03fa 74687265 		.ascii	"thread_t\000"
 4388      61645F74 
 4388      00
 4389              	.LASF271:
 4390 0403 474E5520 		.ascii	"GNU C 4.8.4 20141219 (release) -mcpu=cortex-m4 -mfl"
 4390      4320342E 
 4390      382E3420 
 4390      32303134 
 4390      31323139 
 4391 0436 6F61742D 		.ascii	"oat-abi=hard -mfpu=fpv4-sp-d16 -mno-thumb-interwork"
 4391      6162693D 
 4391      68617264 
 4391      202D6D66 
 4391      70753D66 
 4392 0469 202D6D74 		.ascii	" -mthumb -ggdb -O2 -std=gnu99 -fomit-frame-pointer "
 4392      68756D62 
ARM GAS  /tmp/ccYjUgc7.s 			page 82


 4392      202D6767 
 4392      6462202D 
 4392      4F32202D 
 4393 049c 2D66616C 		.ascii	"-falign-functions=16 -ffunction-sections -fdata-sec"
 4393      69676E2D 
 4393      66756E63 
 4393      74696F6E 
 4393      733D3136 
 4394 04cf 74696F6E 		.ascii	"tions -fno-common -fsingle-precision-constant\000"
 4394      73202D66 
 4394      6E6F2D63 
 4394      6F6D6D6F 
 4394      6E202D66 
 4395              	.LASF160:
 4396 04fd 444D4132 		.ascii	"DMA2_Stream7_IRQn\000"
 4396      5F537472 
 4396      65616D37 
 4396      5F495251 
 4396      6E00
 4397              	.LASF2:
 4398 050f 73697A65 		.ascii	"size_t\000"
 4398      5F7400
 4399              	.LASF215:
 4400 0516 7264796D 		.ascii	"rdymsg\000"
 4400      736700
 4401              	.LASF128:
 4402 051d 55534152 		.ascii	"USART2_IRQn\000"
 4402      54325F49 
 4402      52516E00 
 4403              	.LASF213:
 4404 0529 6F666673 		.ascii	"offset\000"
 4404      657400
 4405              	.LASF263:
 4406 0530 66756E63 		.ascii	"func\000"
 4406      00
 4407              	.LASF232:
 4408 0535 5F426F6F 		.ascii	"_Bool\000"
 4408      6C00
 4409              	.LASF163:
 4410 053b 49324333 		.ascii	"I2C3_ER_IRQn\000"
 4410      5F45525F 
 4410      4952516E 
 4410      00
 4411              	.LASF93:
 4412 0548 5254435F 		.ascii	"RTC_WKUP_IRQn\000"
 4412      574B5550 
 4412      5F495251 
 4412      6E00
 4413              	.LASF167:
 4414 0556 4F54475F 		.ascii	"OTG_HS_IRQn\000"
 4414      48535F49 
 4414      52516E00 
 4415              	.LASF225:
 4416 0562 63685F6D 		.ascii	"ch_mutex\000"
 4416      75746578 
 4416      00
 4417              	.LASF12:
ARM GAS  /tmp/ccYjUgc7.s 			page 83


 4418 056b 5F5F7569 		.ascii	"__uint64_t\000"
 4418      6E743634 
 4418      5F7400
 4419              	.LASF173:
 4420 0576 4D304152 		.ascii	"M0AR\000"
 4420      00
 4421              	.LASF191:
 4422 057b 41484232 		.ascii	"AHB2ENR\000"
 4422      454E5200 
 4423              	.LASF192:
 4424 0583 41484233 		.ascii	"AHB3ENR\000"
 4424      454E5200 
 4425              	.LASF261:
 4426 058b 646D6173 		.ascii	"dmastp\000"
 4426      747000
 4427              	.LASF98:
 4428 0592 45585449 		.ascii	"EXTI2_IRQn\000"
 4428      325F4952 
 4428      516E00
 4429              	.LASF239:
 4430 059d 73746D33 		.ascii	"stm32_dmaisr_t\000"
 4430      325F646D 
 4430      61697372 
 4430      5F7400
 4431              	.LASF35:
 4432 05ac 705F6E61 		.ascii	"p_name\000"
 4432      6D6500
 4433              	.LASF243:
 4434 05b3 56656374 		.ascii	"Vector6C\000"
 4434      6F723643 
 4434      00
 4435              	.LASF187:
 4436 05bc 41504231 		.ascii	"APB1RSTR\000"
 4436      52535452 
 4436      00
 4437              	.LASF123:
 4438 05c5 49324332 		.ascii	"I2C2_EV_IRQn\000"
 4438      5F45565F 
 4438      4952516E 
 4438      00
 4439              	.LASF141:
 4440 05d2 53504933 		.ascii	"SPI3_IRQn\000"
 4440      5F495251 
 4440      6E00
 4441              	.LASF67:
 4442 05dc 76745F64 		.ascii	"vt_delta\000"
 4442      656C7461 
 4442      00
 4443              	.LASF254:
 4444 05e5 56656374 		.ascii	"Vector128\000"
 4444      6F723132 
 4444      3800
 4445              	.LASF59:
 4446 05ef 725F6E65 		.ascii	"r_newer\000"
 4446      77657200 
 4447              	.LASF235:
 4448 05f7 69736869 		.ascii	"ishift\000"
ARM GAS  /tmp/ccYjUgc7.s 			page 84


 4448      667400
 4449              	.LASF119:
 4450 05fe 54494D33 		.ascii	"TIM3_IRQn\000"
 4450      5F495251 
 4450      6E00
 4451              	.LASF20:
 4452 0608 74737461 		.ascii	"tstate_t\000"
 4452      74655F74 
 4452      00
 4453              	.LASF105:
 4454 0611 444D4131 		.ascii	"DMA1_Stream4_IRQn\000"
 4454      5F537472 
 4454      65616D34 
 4454      5F495251 
 4454      6E00
 4455              	.LASF244:
 4456 0623 56656374 		.ascii	"Vector70\000"
 4456      6F723730 
 4456      00
 4457              	.LASF238:
 4458 062c 73746D33 		.ascii	"stm32_dma_stream_t\000"
 4458      325F646D 
 4458      615F7374 
 4458      7265616D 
 4458      5F7400
 4459              	.LASF11:
 4460 063f 6C6F6E67 		.ascii	"long long int\000"
 4460      206C6F6E 
 4460      6720696E 
 4460      7400
 4461              	.LASF251:
 4462 064d 56656374 		.ascii	"VectorFC\000"
 4462      6F724643 
 4462      00
 4463              	.LASF246:
 4464 0656 56656374 		.ascii	"Vector74\000"
 4464      6F723734 
 4464      00
 4465              	.LASF34:
 4466 065f 705F6F6C 		.ascii	"p_older\000"
 4466      64657200 
 4467              	.LASF36:
 4468 0667 705F7374 		.ascii	"p_state\000"
 4468      61746500 
 4469              	.LASF247:
 4470 066f 56656374 		.ascii	"Vector78\000"
 4470      6F723738 
 4470      00
 4471              	.LASF14:
 4472 0678 75696E74 		.ascii	"uint8_t\000"
 4472      385F7400 
 4473              	.LASF248:
 4474 0680 56656374 		.ascii	"Vector7C\000"
 4474      6F723743 
 4474      00
 4475              	.LASF97:
 4476 0689 45585449 		.ascii	"EXTI1_IRQn\000"
ARM GAS  /tmp/ccYjUgc7.s 			page 85


 4476      315F4952 
 4476      516E00
 4477              	.LASF47:
 4478 0694 705F6D70 		.ascii	"p_mpool\000"
 4478      6F6F6C00 
 4479              	.LASF45:
 4480 069c 705F6D74 		.ascii	"p_mtxlist\000"
 4480      786C6973 
 4480      7400
 4481              	.LASF50:
 4482 06a6 63685F74 		.ascii	"ch_thread\000"
 4482      68726561 
 4482      6400
 4483              	.LASF103:
 4484 06b0 444D4131 		.ascii	"DMA1_Stream2_IRQn\000"
 4484      5F537472 
 4484      65616D32 
 4484      5F495251 
 4484      6E00
 4485              	.LASF134:
 4486 06c2 54494D38 		.ascii	"TIM8_UP_TIM13_IRQn\000"
 4486      5F55505F 
 4486      54494D31 
 4486      335F4952 
 4486      516E00
 4487              	.LASF73:
 4488 06d5 73797374 		.ascii	"system_debug_t\000"
 4488      656D5F64 
 4488      65627567 
 4488      5F7400
 4489              	.LASF53:
 4490 06e4 63685F74 		.ascii	"ch_threads_queue\000"
 4490      68726561 
 4490      64735F71 
 4490      75657565 
 4490      00
 4491              	.LASF90:
 4492 06f5 57574447 		.ascii	"WWDG_IRQn\000"
 4492      5F495251 
 4492      6E00
 4493              	.LASF56:
 4494 06ff 725F7175 		.ascii	"r_queue\000"
 4494      65756500 
 4495              	.LASF155:
 4496 0707 43414E32 		.ascii	"CAN2_RX1_IRQn\000"
 4496      5F525831 
 4496      5F495251 
 4496      6E00
 4497              	.LASF249:
 4498 0715 56656374 		.ascii	"Vector80\000"
 4498      6F723830 
 4498      00
 4499              	.LASF150:
 4500 071e 444D4132 		.ascii	"DMA2_Stream4_IRQn\000"
 4500      5F537472 
 4500      65616D34 
 4500      5F495251 
ARM GAS  /tmp/ccYjUgc7.s 			page 86


 4500      6E00
 4501              	.LASF24:
 4502 0730 6D73675F 		.ascii	"msg_t\000"
 4502      7400
 4503              	.LASF250:
 4504 0736 56656374 		.ascii	"Vector84\000"
 4504      6F723834 
 4504      00
 4505              	.LASF211:
 4506 073f 636F6E74 		.ascii	"context\000"
 4506      65787400 
 4507              	.LASF37:
 4508 0747 705F666C 		.ascii	"p_flags\000"
 4508      61677300 
 4509              	.LASF267:
 4510 074f 646D615F 		.ascii	"dma_streams_mask\000"
 4510      73747265 
 4510      616D735F 
 4510      6D61736B 
 4510      00
 4511              	.LASF63:
 4512 0760 76697274 		.ascii	"virtual_timer_t\000"
 4512      75616C5F 
 4512      74696D65 
 4512      725F7400 
 4513              	.LASF84:
 4514 0770 42757346 		.ascii	"BusFault_IRQn\000"
 4514      61756C74 
 4514      5F495251 
 4514      6E00
 4515              	.LASF180:
 4516 077e 444D415F 		.ascii	"DMA_TypeDef\000"
 4516      54797065 
 4516      44656600 
 4517              	.LASF116:
 4518 078a 54494D31 		.ascii	"TIM1_TRG_COM_TIM11_IRQn\000"
 4518      5F545247 
 4518      5F434F4D 
 4518      5F54494D 
 4518      31315F49 
 4519              	.LASF273:
 4520 07a2 2F686F6D 		.ascii	"/home/taylor/Programming/VESC/firmware\000"
 4520      652F7461 
 4520      796C6F72 
 4520      2F50726F 
 4520      6772616D 
 4521              	.LASF241:
 4522 07c9 646D615F 		.ascii	"dma_param\000"
 4522      70617261 
 4522      6D00
 4523              	.LASF100:
 4524 07d3 45585449 		.ascii	"EXTI4_IRQn\000"
 4524      345F4952 
 4524      516E00
 4525              	.LASF175:
 4526 07de 444D415F 		.ascii	"DMA_Stream_TypeDef\000"
 4526      53747265 
ARM GAS  /tmp/ccYjUgc7.s 			page 87


 4526      616D5F54 
 4526      79706544 
 4526      656600
 4527              	.LASF264:
 4528 07f1 70617261 		.ascii	"param\000"
 4528      6D00
 4529              	.LASF91:
 4530 07f7 5056445F 		.ascii	"PVD_IRQn\000"
 4530      4952516E 
 4530      00
 4531              	.LASF108:
 4532 0800 4144435F 		.ascii	"ADC_IRQn\000"
 4532      4952516E 
 4532      00
 4533              	.LASF22:
 4534 0809 74736C69 		.ascii	"tslices_t\000"
 4534      6365735F 
 4534      7400
 4535              	.LASF60:
 4536 0813 725F6F6C 		.ascii	"r_older\000"
 4536      64657200 
 4537              	.LASF177:
 4538 081b 48495352 		.ascii	"HISR\000"
 4538      00
 4539              	.LASF195:
 4540 0820 41504232 		.ascii	"APB2ENR\000"
 4540      454E5200 
 4541              	.LASF43:
 4542 0828 705F6D73 		.ascii	"p_msg\000"
 4542      6700
 4543              	.LASF19:
 4544 082e 746D6F64 		.ascii	"tmode_t\000"
 4544      655F7400 
 4545              	.LASF197:
 4546 0836 41484231 		.ascii	"AHB1LPENR\000"
 4546      4C50454E 
 4546      5200
 4547              	.LASF121:
 4548 0840 49324331 		.ascii	"I2C1_EV_IRQn\000"
 4548      5F45565F 
 4548      4952516E 
 4548      00
 4549              	.LASF80:
 4550 084d 6D61696E 		.ascii	"mainthread\000"
 4550      74687265 
 4550      616400
 4551              	.LASF109:
 4552 0858 43414E31 		.ascii	"CAN1_TX_IRQn\000"
 4552      5F54585F 
 4552      4952516E 
 4552      00
 4553              	.LASF102:
 4554 0865 444D4131 		.ascii	"DMA1_Stream1_IRQn\000"
 4554      5F537472 
 4554      65616D31 
 4554      5F495251 
 4554      6E00
ARM GAS  /tmp/ccYjUgc7.s 			page 88


 4555              	.LASF48:
 4556 0877 74687265 		.ascii	"thread_reference_t\000"
 4556      61645F72 
 4556      65666572 
 4556      656E6365 
 4556      5F7400
 4557              	.LASF110:
 4558 088a 43414E31 		.ascii	"CAN1_RX0_IRQn\000"
 4558      5F525830 
 4558      5F495251 
 4558      6E00
 4559              	.LASF184:
 4560 0898 41484232 		.ascii	"AHB2RSTR\000"
 4560      52535452 
 4560      00
 4561              	.LASF18:
 4562 08a1 7274636E 		.ascii	"rtcnt_t\000"
 4562      745F7400 
 4563              	.LASF276:
 4564 08a9 6E766963 		.ascii	"nvicEnableVector\000"
 4564      456E6162 
 4564      6C655665 
 4564      63746F72 
 4564      00
 4565              	.LASF131:
 4566 08ba 5254435F 		.ascii	"RTC_Alarm_IRQn\000"
 4566      416C6172 
 4566      6D5F4952 
 4566      516E00
 4567              	.LASF265:
 4568 08c9 646D6153 		.ascii	"dmaStreamRelease\000"
 4568      74726561 
 4568      6D52656C 
 4568      65617365 
 4568      00
 4569              	.LASF46:
 4570 08da 705F7265 		.ascii	"p_realprio\000"
 4570      616C7072 
 4570      696F00
 4571              	.LASF189:
 4572 08e5 52455345 		.ascii	"RESERVED1\000"
 4572      52564544 
 4572      3100
 4573              	.LASF193:
 4574 08ef 52455345 		.ascii	"RESERVED2\000"
 4574      52564544 
 4574      3200
 4575              	.LASF252:
 4576 08f9 56656374 		.ascii	"Vector120\000"
 4576      6F723132 
 4576      3000
 4577              	.LASF200:
 4578 0903 52455345 		.ascii	"RESERVED4\000"
 4578      52564544 
 4578      3400
 4579              	.LASF203:
 4580 090d 52455345 		.ascii	"RESERVED5\000"
ARM GAS  /tmp/ccYjUgc7.s 			page 89


 4580      52564544 
 4580      3500
 4581              	.LASF205:
 4582 0917 52455345 		.ascii	"RESERVED6\000"
 4582      52564544 
 4582      3600
 4583              	.LASF253:
 4584 0921 56656374 		.ascii	"Vector124\000"
 4584      6F723132 
 4584      3400
 4585              	.LASF61:
 4586 092b 725F6375 		.ascii	"r_current\000"
 4586      7272656E 
 4586      7400
 4587              	.LASF159:
 4588 0935 444D4132 		.ascii	"DMA2_Stream6_IRQn\000"
 4588      5F537472 
 4588      65616D36 
 4588      5F495251 
 4588      6E00
 4589              	.LASF226:
 4590 0947 6D5F7175 		.ascii	"m_queue\000"
 4590      65756500 
 4591              	.LASF162:
 4592 094f 49324333 		.ascii	"I2C3_EV_IRQn\000"
 4592      5F45565F 
 4592      4952516E 
 4592      00
 4593              	.LASF8:
 4594 095c 6C6F6E67 		.ascii	"long int\000"
 4594      20696E74 
 4594      00
 4595              	.LASF127:
 4596 0965 55534152 		.ascii	"USART1_IRQn\000"
 4596      54315F49 
 4596      52516E00 
 4597              	.LASF212:
 4598 0971 706F7274 		.ascii	"port_intctx\000"
 4598      5F696E74 
 4598      63747800 
 4599              	.LASF143:
 4600 097d 55415254 		.ascii	"UART5_IRQn\000"
 4600      355F4952 
 4600      516E00
 4601              	.LASF255:
 4602 0988 56656374 		.ascii	"Vector12C\000"
 4602      6F723132 
 4602      4300
 4603              	.LASF269:
 4604 0992 49544D5F 		.ascii	"ITM_RxBuffer\000"
 4604      52784275 
 4604      66666572 
 4604      00
 4605              	.LASF82:
 4606 099f 4E6F6E4D 		.ascii	"NonMaskableInt_IRQn\000"
 4606      61736B61 
 4606      626C6549 
ARM GAS  /tmp/ccYjUgc7.s 			page 90


 4606      6E745F49 
 4606      52516E00 
 4607              	.LASF240:
 4608 09b3 646D615F 		.ascii	"dma_func\000"
 4608      66756E63 
 4608      00
 4609              	.LASF147:
 4610 09bc 444D4132 		.ascii	"DMA2_Stream1_IRQn\000"
 4610      5F537472 
 4610      65616D31 
 4610      5F495251 
 4610      6E00
 4611              	.LASF262:
 4612 09ce 7072696F 		.ascii	"priority\000"
 4612      72697479 
 4612      00
 4613              	.LASF117:
 4614 09d7 54494D31 		.ascii	"TIM1_CC_IRQn\000"
 4614      5F43435F 
 4614      4952516E 
 4614      00
 4615              	.LASF29:
 4616 09e4 705F6E65 		.ascii	"p_next\000"
 4616      787400
 4617              	.LASF136:
 4618 09eb 54494D38 		.ascii	"TIM8_CC_IRQn\000"
 4618      5F43435F 
 4618      4952516E 
 4618      00
 4619              	.LASF107:
 4620 09f8 444D4131 		.ascii	"DMA1_Stream6_IRQn\000"
 4620      5F537472 
 4620      65616D36 
 4620      5F495251 
 4620      6E00
 4621              	.LASF17:
 4622 0a0a 75696E74 		.ascii	"uint64_t\000"
 4622      36345F74 
 4622      00
 4623              	.LASF32:
 4624 0a13 705F6374 		.ascii	"p_ctx\000"
 4624      7800
 4625              	.LASF182:
 4626 0a19 43464752 		.ascii	"CFGR\000"
 4626      00
 4627              	.LASF78:
 4628 0a1e 726C6973 		.ascii	"rlist\000"
 4628      7400
 4629              	.LASF256:
 4630 0a24 56656374 		.ascii	"Vector130\000"
 4630      6F723133 
 4630      3000
 4631              	.LASF138:
 4632 0a2e 46534D43 		.ascii	"FSMC_IRQn\000"
 4632      5F495251 
 4632      6E00
 4633              	.LASF201:
ARM GAS  /tmp/ccYjUgc7.s 			page 91


 4634 0a38 41504231 		.ascii	"APB1LPENR\000"
 4634      4C50454E 
 4634      5200
 4635              	.LASF3:
 4636 0a42 5F5F7569 		.ascii	"__uint8_t\000"
 4636      6E74385F 
 4636      7400
 4637              	.LASF144:
 4638 0a4c 54494D36 		.ascii	"TIM6_DAC_IRQn\000"
 4638      5F444143 
 4638      5F495251 
 4638      6E00
 4639              	.LASF181:
 4640 0a5a 504C4C43 		.ascii	"PLLCFGR\000"
 4640      46475200 
 4641              	.LASF242:
 4642 0a62 646D615F 		.ascii	"dma_isr_redir_t\000"
 4642      6973725F 
 4642      72656469 
 4642      725F7400 
 4643              	.LASF122:
 4644 0a72 49324331 		.ascii	"I2C1_ER_IRQn\000"
 4644      5F45525F 
 4644      4952516E 
 4644      00
 4645              	.LASF174:
 4646 0a7f 4D314152 		.ascii	"M1AR\000"
 4646      00
 4647              	.LASF161:
 4648 0a84 55534152 		.ascii	"USART6_IRQn\000"
 4648      54365F49 
 4648      52516E00 
 4649              	.LASF30:
 4650 0a90 705F7072 		.ascii	"p_prev\000"
 4650      657600
 4651              	.LASF199:
 4652 0a97 41484233 		.ascii	"AHB3LPENR\000"
 4652      4C50454E 
 4652      5200
 4653              	.LASF171:
 4654 0aa1 73697A65 		.ascii	"sizetype\000"
 4654      74797065 
 4654      00
 4655              	.LASF21:
 4656 0aaa 74726566 		.ascii	"trefs_t\000"
 4656      735F7400 
 4657              	.LASF10:
 4658 0ab2 6C6F6E67 		.ascii	"long unsigned int\000"
 4658      20756E73 
 4658      69676E65 
 4658      6420696E 
 4658      7400
 4659              	.LASF118:
 4660 0ac4 54494D32 		.ascii	"TIM2_IRQn\000"
 4660      5F495251 
 4660      6E00
 4661              	.LASF54:
ARM GAS  /tmp/ccYjUgc7.s 			page 92


 4662 0ace 72656164 		.ascii	"ready_list_t\000"
 4662      795F6C69 
 4662      73745F74 
 4662      00
 4663              	.LASF258:
 4664 0adb 56656374 		.ascii	"Vector154\000"
 4664      6F723135 
 4664      3400
 4665              	.LASF15:
 4666 0ae5 696E7433 		.ascii	"int32_t\000"
 4666      325F7400 
 4667              	.LASF219:
 4668 0aed 77747365 		.ascii	"wtsemp\000"
 4668      6D7000
 4669              	.LASF166:
 4670 0af4 4F54475F 		.ascii	"OTG_HS_WKUP_IRQn\000"
 4670      48535F57 
 4670      4B55505F 
 4670      4952516E 
 4670      00
 4671              	.LASF230:
 4672 0b05 6D757465 		.ascii	"mutex_t\000"
 4672      785F7400 
 4673              	.LASF87:
 4674 0b0d 44656275 		.ascii	"DebugMonitor_IRQn\000"
 4674      674D6F6E 
 4674      69746F72 
 4674      5F495251 
 4674      6E00
 4675              	.LASF207:
 4676 0b1f 504C4C49 		.ascii	"PLLI2SCFGR\000"
 4676      32534346 
 4676      475200
 4677              	.LASF85:
 4678 0b2a 55736167 		.ascii	"UsageFault_IRQn\000"
 4678      65466175 
 4678      6C745F49 
 4678      52516E00 
 4679              	.LASF4:
 4680 0b3a 756E7369 		.ascii	"unsigned char\000"
 4680      676E6564 
 4680      20636861 
 4680      7200
 4681              	.LASF9:
 4682 0b48 5F5F7569 		.ascii	"__uint32_t\000"
 4682      6E743332 
 4682      5F7400
 4683              	.LASF70:
 4684 0b53 76697274 		.ascii	"virtual_timers_list_t\000"
 4684      75616C5F 
 4684      74696D65 
 4684      72735F6C 
 4684      6973745F 
 4685              	.LASF113:
 4686 0b69 45585449 		.ascii	"EXTI9_5_IRQn\000"
 4686      395F355F 
 4686      4952516E 
ARM GAS  /tmp/ccYjUgc7.s 			page 93


 4686      00
 4687              	.LASF86:
 4688 0b76 53564361 		.ascii	"SVCall_IRQn\000"
 4688      6C6C5F49 
 4688      52516E00 
 4689              	.LASF275:
 4690 0b82 5F706F72 		.ascii	"_port_irq_epilogue\000"
 4690      745F6972 
 4690      715F6570 
 4690      696C6F67 
 4690      756500
 4691              	.LASF39:
 4692 0b95 705F7072 		.ascii	"p_preempt\000"
 4692      65656D70 
 4692      7400
 4693              	.LASF154:
 4694 0b9f 43414E32 		.ascii	"CAN2_RX0_IRQn\000"
 4694      5F525830 
 4694      5F495251 
 4694      6E00
 4695              	.LASF257:
 4696 0bad 56656374 		.ascii	"Vector150\000"
 4696      6F723135 
 4696      3000
 4697              	.LASF149:
 4698 0bb7 444D4132 		.ascii	"DMA2_Stream3_IRQn\000"
 4698      5F537472 
 4698      65616D33 
 4698      5F495251 
 4698      6E00
 4699              	.LASF126:
 4700 0bc9 53504932 		.ascii	"SPI2_IRQn\000"
 4700      5F495251 
 4700      6E00
 4701              	.LASF259:
 4702 0bd3 56656374 		.ascii	"Vector158\000"
 4702      6F723135 
 4702      3800
 4703              	.LASF135:
 4704 0bdd 54494D38 		.ascii	"TIM8_TRG_COM_TIM14_IRQn\000"
 4704      5F545247 
 4704      5F434F4D 
 4704      5F54494D 
 4704      31345F49 
 4705              	.LASF145:
 4706 0bf5 54494D37 		.ascii	"TIM7_IRQn\000"
 4706      5F495251 
 4706      6E00
 4707              	.LASF44:
 4708 0bff 705F6570 		.ascii	"p_epending\000"
 4708      656E6469 
 4708      6E6700
 4709              	.LASF65:
 4710 0c0a 76745F6E 		.ascii	"vt_next\000"
 4710      65787400 
 4711              	.LASF76:
 4712 0c12 63685F73 		.ascii	"ch_system_t\000"
ARM GAS  /tmp/ccYjUgc7.s 			page 94


 4712      79737465 
 4712      6D5F7400 
 4713              	.LASF218:
 4714 0c1e 77747472 		.ascii	"wttrp\000"
 4714      7000
 4715              	.LASF176:
 4716 0c24 4C495352 		.ascii	"LISR\000"
 4716      00
 4717              	.LASF38:
 4718 0c29 705F7265 		.ascii	"p_refs\000"
 4718      667300
 4719              	.LASF228:
 4720 0c30 6D5F6E65 		.ascii	"m_next\000"
 4720      787400
 4721              	.LASF104:
 4722 0c37 444D4131 		.ascii	"DMA1_Stream3_IRQn\000"
 4722      5F537472 
 4722      65616D33 
 4722      5F495251 
 4722      6E00
 4723              	.LASF268:
 4724 0c49 646D615F 		.ascii	"dma_isr_redir\000"
 4724      6973725F 
 4724      72656469 
 4724      7200
 4725              	.LASF153:
 4726 0c57 43414E32 		.ascii	"CAN2_TX_IRQn\000"
 4726      5F54585F 
 4726      4952516E 
 4726      00
 4727              	.LASF6:
 4728 0c64 73686F72 		.ascii	"short unsigned int\000"
 4728      7420756E 
 4728      7369676E 
 4728      65642069 
 4728      6E7400
 4729              	.LASF58:
 4730 0c77 725F6374 		.ascii	"r_ctx\000"
 4730      7800
 4731              	.LASF99:
 4732 0c7d 45585449 		.ascii	"EXTI3_IRQn\000"
 4732      335F4952 
 4732      516E00
 4733              	.LASF210:
 4734 0c88 73746B61 		.ascii	"stkalign_t\000"
 4734      6C69676E 
 4734      5F7400
 4735              	.LASF266:
 4736 0c93 5F5F6675 		.ascii	"__func__\000"
 4736      6E635F5F 
 4736      00
 4737              	.LASF68:
 4738 0c9c 76745F66 		.ascii	"vt_func\000"
 4738      756E6300 
 4739              	.LASF272:
 4740 0ca4 43686962 		.ascii	"ChibiOS_3.0.2/os/hal/ports/STM32/STM32F4xx/stm32_dm"
 4740      694F535F 
ARM GAS  /tmp/ccYjUgc7.s 			page 95


 4740      332E302E 
 4740      322F6F73 
 4740      2F68616C 
 4741 0cd7 612E6300 		.ascii	"a.c\000"
 4742              	.LASF66:
 4743 0cdb 76745F70 		.ascii	"vt_prev\000"
 4743      72657600 
 4744              	.LASF186:
 4745 0ce3 52455345 		.ascii	"RESERVED0\000"
 4745      52564544 
 4745      3000
 4746              	.LASF196:
 4747 0ced 52455345 		.ascii	"RESERVED3\000"
 4747      52564544 
 4747      3300
 4748              	.LASF270:
 4749 0cf7 5F73746D 		.ascii	"_stm32_dma_streams\000"
 4749      33325F64 
 4749      6D615F73 
 4749      74726561 
 4749      6D7300
 4750              	.LASF164:
 4751 0d0a 4F54475F 		.ascii	"OTG_HS_EP1_OUT_IRQn\000"
 4751      48535F45 
 4751      50315F4F 
 4751      55545F49 
 4751      52516E00 
 4752              	.LASF129:
 4753 0d1e 55534152 		.ascii	"USART3_IRQn\000"
 4753      54335F49 
 4753      52516E00 
 4754              	.LASF115:
 4755 0d2a 54494D31 		.ascii	"TIM1_UP_TIM10_IRQn\000"
 4755      5F55505F 
 4755      54494D31 
 4755      305F4952 
 4755      516E00
 4756              	.LASF75:
 4757 0d3d 70616E69 		.ascii	"panic_msg\000"
 4757      635F6D73 
 4757      6700
 4758              	.LASF170:
 4759 0d47 4650555F 		.ascii	"FPU_IRQn\000"
 4759      4952516E 
 4759      00
 4760              	.LASF274:
 4761 0d50 646D6153 		.ascii	"dmaStreamAllocate\000"
 4761      74726561 
 4761      6D416C6C 
 4761      6F636174 
 4761      6500
 4762              	.LASF151:
 4763 0d62 4554485F 		.ascii	"ETH_IRQn\000"
 4763      4952516E 
 4763      00
 4764              	.LASF216:
 4765 0d6b 65786974 		.ascii	"exitcode\000"
ARM GAS  /tmp/ccYjUgc7.s 			page 96


 4765      636F6465 
 4765      00
 4766              	.LASF236:
 4767 0d74 73656C66 		.ascii	"selfindex\000"
 4767      696E6465 
 4767      7800
 4768              	.LASF183:
 4769 0d7e 41484231 		.ascii	"AHB1RSTR\000"
 4769      52535452 
 4769      00
 4770              	.LASF233:
 4771 0d87 73747265 		.ascii	"stream\000"
 4771      616D00
 4772              		.ident	"GCC: (4.8.4-1+11-1) 4.8.4 20141219 (release)"
ARM GAS  /tmp/ccYjUgc7.s 			page 97


DEFINED SYMBOLS
                            *ABS*:0000000000000000 stm32_dma.c
     /tmp/ccYjUgc7.s:21     .text.Vector6C:0000000000000000 $t
     /tmp/ccYjUgc7.s:27     .text.Vector6C:0000000000000000 Vector6C
     /tmp/ccYjUgc7.s:64     .text.Vector6C:0000000000000020 $d
     /tmp/ccYjUgc7.s:70     .text.Vector70:0000000000000000 $t
     /tmp/ccYjUgc7.s:76     .text.Vector70:0000000000000000 Vector70
     /tmp/ccYjUgc7.s:117    .text.Vector70:0000000000000024 $d
     /tmp/ccYjUgc7.s:123    .text.Vector74:0000000000000000 $t
     /tmp/ccYjUgc7.s:129    .text.Vector74:0000000000000000 Vector74
     /tmp/ccYjUgc7.s:170    .text.Vector74:0000000000000024 $d
     /tmp/ccYjUgc7.s:176    .text.Vector78:0000000000000000 $t
     /tmp/ccYjUgc7.s:182    .text.Vector78:0000000000000000 Vector78
     /tmp/ccYjUgc7.s:223    .text.Vector78:0000000000000024 $d
     /tmp/ccYjUgc7.s:229    .text.Vector7C:0000000000000000 $t
     /tmp/ccYjUgc7.s:235    .text.Vector7C:0000000000000000 Vector7C
     /tmp/ccYjUgc7.s:273    .text.Vector7C:0000000000000020 $d
     /tmp/ccYjUgc7.s:279    .text.Vector80:0000000000000000 $t
     /tmp/ccYjUgc7.s:285    .text.Vector80:0000000000000000 Vector80
     /tmp/ccYjUgc7.s:326    .text.Vector80:0000000000000024 $d
     /tmp/ccYjUgc7.s:332    .text.Vector84:0000000000000000 $t
     /tmp/ccYjUgc7.s:338    .text.Vector84:0000000000000000 Vector84
     /tmp/ccYjUgc7.s:379    .text.Vector84:0000000000000024 $d
     /tmp/ccYjUgc7.s:385    .text.VectorFC:0000000000000000 $t
     /tmp/ccYjUgc7.s:391    .text.VectorFC:0000000000000000 VectorFC
     /tmp/ccYjUgc7.s:432    .text.VectorFC:0000000000000024 $d
     /tmp/ccYjUgc7.s:438    .text.Vector120:0000000000000000 $t
     /tmp/ccYjUgc7.s:444    .text.Vector120:0000000000000000 Vector120
     /tmp/ccYjUgc7.s:482    .text.Vector120:0000000000000020 $d
     /tmp/ccYjUgc7.s:488    .text.Vector124:0000000000000000 $t
     /tmp/ccYjUgc7.s:494    .text.Vector124:0000000000000000 Vector124
     /tmp/ccYjUgc7.s:535    .text.Vector124:0000000000000024 $d
     /tmp/ccYjUgc7.s:541    .text.Vector128:0000000000000000 $t
     /tmp/ccYjUgc7.s:547    .text.Vector128:0000000000000000 Vector128
     /tmp/ccYjUgc7.s:588    .text.Vector128:0000000000000024 $d
     /tmp/ccYjUgc7.s:594    .text.Vector12C:0000000000000000 $t
     /tmp/ccYjUgc7.s:600    .text.Vector12C:0000000000000000 Vector12C
     /tmp/ccYjUgc7.s:641    .text.Vector12C:0000000000000024 $d
     /tmp/ccYjUgc7.s:647    .text.Vector130:0000000000000000 $t
     /tmp/ccYjUgc7.s:653    .text.Vector130:0000000000000000 Vector130
     /tmp/ccYjUgc7.s:691    .text.Vector130:0000000000000020 $d
     /tmp/ccYjUgc7.s:697    .text.Vector150:0000000000000000 $t
     /tmp/ccYjUgc7.s:703    .text.Vector150:0000000000000000 Vector150
     /tmp/ccYjUgc7.s:744    .text.Vector150:0000000000000024 $d
     /tmp/ccYjUgc7.s:750    .text.Vector154:0000000000000000 $t
     /tmp/ccYjUgc7.s:756    .text.Vector154:0000000000000000 Vector154
     /tmp/ccYjUgc7.s:797    .text.Vector154:0000000000000024 $d
     /tmp/ccYjUgc7.s:803    .text.Vector158:0000000000000000 $t
     /tmp/ccYjUgc7.s:809    .text.Vector158:0000000000000000 Vector158
     /tmp/ccYjUgc7.s:850    .text.Vector158:0000000000000024 $d
     /tmp/ccYjUgc7.s:856    .text.dmaInit:0000000000000000 $t
     /tmp/ccYjUgc7.s:862    .text.dmaInit:0000000000000000 dmaInit
     /tmp/ccYjUgc7.s:920    .text.dmaInit:0000000000000034 $d
     /tmp/ccYjUgc7.s:929    .text.dmaStreamAllocate:0000000000000000 $t
     /tmp/ccYjUgc7.s:935    .text.dmaStreamAllocate:0000000000000000 dmaStreamAllocate
     /tmp/ccYjUgc7.s:1043   .text.dmaStreamAllocate:0000000000000088 $d
     /tmp/ccYjUgc7.s:1050   .text.dmaStreamRelease:0000000000000000 $t
ARM GAS  /tmp/ccYjUgc7.s 			page 98


     /tmp/ccYjUgc7.s:1056   .text.dmaStreamRelease:0000000000000000 dmaStreamRelease
     /tmp/ccYjUgc7.s:1107   .text.dmaStreamRelease:0000000000000040 $d
     /tmp/ccYjUgc7.s:1125   .rodata._stm32_dma_streams:0000000000000000 _stm32_dma_streams
     /tmp/ccYjUgc7.s:1114   .bss.dma_isr_redir:0000000000000000 $d
     /tmp/ccYjUgc7.s:1118   .bss.dma_isr_redir:0000000000000000 dma_isr_redir
     /tmp/ccYjUgc7.s:1121   .rodata._stm32_dma_streams:0000000000000000 $d
     /tmp/ccYjUgc7.s:1223   .bss.dma_streams_mask:0000000000000000 $d
     /tmp/ccYjUgc7.s:1227   .bss.dma_streams_mask:0000000000000000 dma_streams_mask
                     .debug_frame:0000000000000010 $d
     /tmp/ccYjUgc7.s:69     .text.Vector6C:0000000000000028 $t
     /tmp/ccYjUgc7.s:122    .text.Vector70:000000000000002c $t
     /tmp/ccYjUgc7.s:175    .text.Vector74:000000000000002c $t
     /tmp/ccYjUgc7.s:228    .text.Vector78:000000000000002c $t
     /tmp/ccYjUgc7.s:278    .text.Vector7C:0000000000000028 $t
     /tmp/ccYjUgc7.s:331    .text.Vector80:000000000000002c $t
     /tmp/ccYjUgc7.s:384    .text.Vector84:000000000000002c $t
     /tmp/ccYjUgc7.s:437    .text.VectorFC:000000000000002c $t
     /tmp/ccYjUgc7.s:487    .text.Vector120:0000000000000028 $t
     /tmp/ccYjUgc7.s:540    .text.Vector124:000000000000002c $t
     /tmp/ccYjUgc7.s:593    .text.Vector128:000000000000002c $t
     /tmp/ccYjUgc7.s:646    .text.Vector12C:000000000000002c $t
     /tmp/ccYjUgc7.s:696    .text.Vector130:0000000000000028 $t
     /tmp/ccYjUgc7.s:749    .text.Vector150:000000000000002c $t
     /tmp/ccYjUgc7.s:802    .text.Vector154:000000000000002c $t
     /tmp/ccYjUgc7.s:855    .text.Vector158:000000000000002c $t
     /tmp/ccYjUgc7.s:928    .text.dmaInit:0000000000000048 $t
     /tmp/ccYjUgc7.s:1049   .text.dmaStreamAllocate:0000000000000094 $t
     /tmp/ccYjUgc7.s:1113   .text.dmaStreamRelease:0000000000000048 $t

UNDEFINED SYMBOLS
_port_irq_epilogue
nvicEnableVector
nvicDisableVector
