ARM GAS  /tmp/cchgQdZS.s 			page 1


   1              		.syntax unified
   2              		.cpu cortex-m4
   3              		.eabi_attribute 27, 3
   4              		.eabi_attribute 28, 1
   5              		.fpu fpv4-sp-d16
   6              		.eabi_attribute 20, 1
   7              		.eabi_attribute 21, 1
   8              		.eabi_attribute 23, 3
   9              		.eabi_attribute 24, 1
  10              		.eabi_attribute 25, 1
  11              		.eabi_attribute 26, 1
  12              		.eabi_attribute 30, 2
  13              		.eabi_attribute 34, 1
  14              		.eabi_attribute 18, 4
  15              		.thumb
  16              		.file	"stm32f4xx_tim.c"
  17              		.text
  18              	.Ltext0:
  19              		.cfi_sections	.debug_frame
  20              		.section	.text.TIM_DeInit,"ax",%progbits
  21              		.align	2
  22              		.p2align 4,,15
  23              		.global	TIM_DeInit
  24              		.thumb
  25              		.thumb_func
  26              		.type	TIM_DeInit, %function
  27              	TIM_DeInit:
  28              	.LFB112:
  29              		.file 1 "ChibiOS_3.0.2/ext/stdperiph_stm32f4/src/stm32f4xx_tim.c"
  30              		.loc 1 205 0
  31              		.cfi_startproc
  32              		@ args = 0, pretend = 0, frame = 0
  33              		@ frame_needed = 0, uses_anonymous_args = 0
  34              	.LVL0:
  35 0000 08B5     		push	{r3, lr}
  36              		.cfi_def_cfa_offset 8
  37              		.cfi_offset 3, -8
  38              		.cfi_offset 14, -4
  39              		.loc 1 209 0
  40 0002 604B     		ldr	r3, .L31
  41 0004 9842     		cmp	r0, r3
  42 0006 35D0     		beq	.L17
  43              		.loc 1 214 0
  44 0008 B0F1804F 		cmp	r0, #1073741824
  45 000c 3CD0     		beq	.L18
  46              		.loc 1 219 0
  47 000e 5E4B     		ldr	r3, .L31+4
  48 0010 9842     		cmp	r0, r3
  49 0012 43D0     		beq	.L19
  50              		.loc 1 224 0
  51 0014 5D4B     		ldr	r3, .L31+8
  52 0016 9842     		cmp	r0, r3
  53 0018 4AD0     		beq	.L20
  54              		.loc 1 229 0
  55 001a 5D4B     		ldr	r3, .L31+12
  56 001c 9842     		cmp	r0, r3
  57 001e 51D0     		beq	.L21
ARM GAS  /tmp/cchgQdZS.s 			page 2


  58              		.loc 1 234 0
  59 0020 5C4B     		ldr	r3, .L31+16
  60 0022 9842     		cmp	r0, r3
  61 0024 58D0     		beq	.L22
  62              		.loc 1 239 0
  63 0026 5C4B     		ldr	r3, .L31+20
  64 0028 9842     		cmp	r0, r3
  65 002a 5FD0     		beq	.L23
  66              		.loc 1 244 0
  67 002c 5B4B     		ldr	r3, .L31+24
  68 002e 9842     		cmp	r0, r3
  69 0030 66D0     		beq	.L24
  70              		.loc 1 249 0
  71 0032 5B4B     		ldr	r3, .L31+28
  72 0034 9842     		cmp	r0, r3
  73 0036 6DD0     		beq	.L25
  74              		.loc 1 254 0
  75 0038 5A4B     		ldr	r3, .L31+32
  76 003a 9842     		cmp	r0, r3
  77 003c 76D0     		beq	.L26
  78              		.loc 1 259 0
  79 003e 5A4B     		ldr	r3, .L31+36
  80 0040 9842     		cmp	r0, r3
  81 0042 7FD0     		beq	.L27
  82              		.loc 1 264 0
  83 0044 594B     		ldr	r3, .L31+40
  84 0046 9842     		cmp	r0, r3
  85 0048 00F08880 		beq	.L28
  86              		.loc 1 269 0
  87 004c 584B     		ldr	r3, .L31+44
  88 004e 9842     		cmp	r0, r3
  89 0050 00F08E80 		beq	.L29
  90              		.loc 1 276 0
  91 0054 574B     		ldr	r3, .L31+48
  92 0056 9842     		cmp	r0, r3
  93 0058 00D0     		beq	.L30
  94 005a 08BD     		pop	{r3, pc}
  95              	.L30:
  96              		.loc 1 278 0
  97 005c 4FF48070 		mov	r0, #256
  98              	.LVL1:
  99 0060 0121     		movs	r1, #1
 100 0062 FFF7FEFF 		bl	RCC_APB1PeriphResetCmd
 101              	.LVL2:
 102              		.loc 1 279 0
 103 0066 4FF48070 		mov	r0, #256
 104 006a 0021     		movs	r1, #0
 105              		.loc 1 282 0
 106 006c BDE80840 		pop	{r3, lr}
 107              		.loc 1 279 0
 108 0070 FFF7FEBF 		b	RCC_APB1PeriphResetCmd
 109              	.LVL3:
 110              	.L17:
 111              		.loc 1 211 0
 112 0074 0120     		movs	r0, #1
 113              	.LVL4:
 114 0076 0146     		mov	r1, r0
ARM GAS  /tmp/cchgQdZS.s 			page 3


 115 0078 FFF7FEFF 		bl	RCC_APB2PeriphResetCmd
 116              	.LVL5:
 117              		.loc 1 212 0
 118 007c 0120     		movs	r0, #1
 119 007e 0021     		movs	r1, #0
 120              		.loc 1 282 0
 121 0080 BDE80840 		pop	{r3, lr}
 122              		.loc 1 212 0
 123 0084 FFF7FEBF 		b	RCC_APB2PeriphResetCmd
 124              	.LVL6:
 125              	.L18:
 126              		.loc 1 216 0
 127 0088 0120     		movs	r0, #1
 128              	.LVL7:
 129 008a 0146     		mov	r1, r0
 130 008c FFF7FEFF 		bl	RCC_APB1PeriphResetCmd
 131              	.LVL8:
 132              		.loc 1 217 0
 133 0090 0120     		movs	r0, #1
 134 0092 0021     		movs	r1, #0
 135              		.loc 1 282 0
 136 0094 BDE80840 		pop	{r3, lr}
 137              		.loc 1 217 0
 138 0098 FFF7FEBF 		b	RCC_APB1PeriphResetCmd
 139              	.LVL9:
 140              	.L19:
 141              		.loc 1 221 0
 142 009c 0220     		movs	r0, #2
 143              	.LVL10:
 144 009e 0121     		movs	r1, #1
 145 00a0 FFF7FEFF 		bl	RCC_APB1PeriphResetCmd
 146              	.LVL11:
 147              		.loc 1 222 0
 148 00a4 0220     		movs	r0, #2
 149 00a6 0021     		movs	r1, #0
 150              		.loc 1 282 0
 151 00a8 BDE80840 		pop	{r3, lr}
 152              		.loc 1 222 0
 153 00ac FFF7FEBF 		b	RCC_APB1PeriphResetCmd
 154              	.LVL12:
 155              	.L20:
 156              		.loc 1 226 0
 157 00b0 0420     		movs	r0, #4
 158              	.LVL13:
 159 00b2 0121     		movs	r1, #1
 160 00b4 FFF7FEFF 		bl	RCC_APB1PeriphResetCmd
 161              	.LVL14:
 162              		.loc 1 227 0
 163 00b8 0420     		movs	r0, #4
 164 00ba 0021     		movs	r1, #0
 165              		.loc 1 282 0
 166 00bc BDE80840 		pop	{r3, lr}
 167              		.loc 1 227 0
 168 00c0 FFF7FEBF 		b	RCC_APB1PeriphResetCmd
 169              	.LVL15:
 170              	.L21:
 171              		.loc 1 231 0
ARM GAS  /tmp/cchgQdZS.s 			page 4


 172 00c4 0820     		movs	r0, #8
 173              	.LVL16:
 174 00c6 0121     		movs	r1, #1
 175 00c8 FFF7FEFF 		bl	RCC_APB1PeriphResetCmd
 176              	.LVL17:
 177              		.loc 1 232 0
 178 00cc 0820     		movs	r0, #8
 179 00ce 0021     		movs	r1, #0
 180              		.loc 1 282 0
 181 00d0 BDE80840 		pop	{r3, lr}
 182              		.loc 1 232 0
 183 00d4 FFF7FEBF 		b	RCC_APB1PeriphResetCmd
 184              	.LVL18:
 185              	.L22:
 186              		.loc 1 236 0
 187 00d8 1020     		movs	r0, #16
 188              	.LVL19:
 189 00da 0121     		movs	r1, #1
 190 00dc FFF7FEFF 		bl	RCC_APB1PeriphResetCmd
 191              	.LVL20:
 192              		.loc 1 237 0
 193 00e0 1020     		movs	r0, #16
 194 00e2 0021     		movs	r1, #0
 195              		.loc 1 282 0
 196 00e4 BDE80840 		pop	{r3, lr}
 197              		.loc 1 237 0
 198 00e8 FFF7FEBF 		b	RCC_APB1PeriphResetCmd
 199              	.LVL21:
 200              	.L23:
 201              		.loc 1 241 0
 202 00ec 2020     		movs	r0, #32
 203              	.LVL22:
 204 00ee 0121     		movs	r1, #1
 205 00f0 FFF7FEFF 		bl	RCC_APB1PeriphResetCmd
 206              	.LVL23:
 207              		.loc 1 242 0
 208 00f4 2020     		movs	r0, #32
 209 00f6 0021     		movs	r1, #0
 210              		.loc 1 282 0
 211 00f8 BDE80840 		pop	{r3, lr}
 212              		.loc 1 242 0
 213 00fc FFF7FEBF 		b	RCC_APB1PeriphResetCmd
 214              	.LVL24:
 215              	.L24:
 216              		.loc 1 246 0
 217 0100 0220     		movs	r0, #2
 218              	.LVL25:
 219 0102 0121     		movs	r1, #1
 220 0104 FFF7FEFF 		bl	RCC_APB2PeriphResetCmd
 221              	.LVL26:
 222              		.loc 1 247 0
 223 0108 0220     		movs	r0, #2
 224 010a 0021     		movs	r1, #0
 225              		.loc 1 282 0
 226 010c BDE80840 		pop	{r3, lr}
 227              		.loc 1 247 0
 228 0110 FFF7FEBF 		b	RCC_APB2PeriphResetCmd
ARM GAS  /tmp/cchgQdZS.s 			page 5


 229              	.LVL27:
 230              	.L25:
 231              		.loc 1 251 0
 232 0114 4FF48030 		mov	r0, #65536
 233              	.LVL28:
 234 0118 0121     		movs	r1, #1
 235 011a FFF7FEFF 		bl	RCC_APB2PeriphResetCmd
 236              	.LVL29:
 237              		.loc 1 252 0
 238 011e 4FF48030 		mov	r0, #65536
 239 0122 0021     		movs	r1, #0
 240              		.loc 1 282 0
 241 0124 BDE80840 		pop	{r3, lr}
 242              		.loc 1 252 0
 243 0128 FFF7FEBF 		b	RCC_APB2PeriphResetCmd
 244              	.LVL30:
 245              	.L26:
 246              		.loc 1 256 0
 247 012c 4FF40030 		mov	r0, #131072
 248              	.LVL31:
 249 0130 0121     		movs	r1, #1
 250 0132 FFF7FEFF 		bl	RCC_APB2PeriphResetCmd
 251              	.LVL32:
 252              		.loc 1 257 0
 253 0136 4FF40030 		mov	r0, #131072
 254 013a 0021     		movs	r1, #0
 255              		.loc 1 282 0
 256 013c BDE80840 		pop	{r3, lr}
 257              		.loc 1 257 0
 258 0140 FFF7FEBF 		b	RCC_APB2PeriphResetCmd
 259              	.LVL33:
 260              	.L27:
 261              		.loc 1 261 0
 262 0144 4FF48020 		mov	r0, #262144
 263              	.LVL34:
 264 0148 0121     		movs	r1, #1
 265 014a FFF7FEFF 		bl	RCC_APB2PeriphResetCmd
 266              	.LVL35:
 267              		.loc 1 262 0
 268 014e 4FF48020 		mov	r0, #262144
 269 0152 0021     		movs	r1, #0
 270              		.loc 1 282 0
 271 0154 BDE80840 		pop	{r3, lr}
 272              		.loc 1 262 0
 273 0158 FFF7FEBF 		b	RCC_APB2PeriphResetCmd
 274              	.LVL36:
 275              	.L28:
 276              		.loc 1 266 0
 277 015c 4020     		movs	r0, #64
 278              	.LVL37:
 279 015e 0121     		movs	r1, #1
 280 0160 FFF7FEFF 		bl	RCC_APB1PeriphResetCmd
 281              	.LVL38:
 282              		.loc 1 267 0
 283 0164 4020     		movs	r0, #64
 284 0166 0021     		movs	r1, #0
 285              		.loc 1 282 0
ARM GAS  /tmp/cchgQdZS.s 			page 6


 286 0168 BDE80840 		pop	{r3, lr}
 287              		.loc 1 267 0
 288 016c FFF7FEBF 		b	RCC_APB1PeriphResetCmd
 289              	.LVL39:
 290              	.L29:
 291              		.loc 1 271 0
 292 0170 8020     		movs	r0, #128
 293              	.LVL40:
 294 0172 0121     		movs	r1, #1
 295 0174 FFF7FEFF 		bl	RCC_APB1PeriphResetCmd
 296              	.LVL41:
 297              		.loc 1 272 0
 298 0178 8020     		movs	r0, #128
 299 017a 0021     		movs	r1, #0
 300              		.loc 1 282 0
 301 017c BDE80840 		pop	{r3, lr}
 302              		.loc 1 272 0
 303 0180 FFF7FEBF 		b	RCC_APB1PeriphResetCmd
 304              	.LVL42:
 305              	.L32:
 306              		.align	2
 307              	.L31:
 308 0184 00000140 		.word	1073807360
 309 0188 00040040 		.word	1073742848
 310 018c 00080040 		.word	1073743872
 311 0190 000C0040 		.word	1073744896
 312 0194 00100040 		.word	1073745920
 313 0198 00140040 		.word	1073746944
 314 019c 00040140 		.word	1073808384
 315 01a0 00400140 		.word	1073823744
 316 01a4 00440140 		.word	1073824768
 317 01a8 00480140 		.word	1073825792
 318 01ac 00180040 		.word	1073747968
 319 01b0 001C0040 		.word	1073748992
 320 01b4 00200040 		.word	1073750016
 321              		.cfi_endproc
 322              	.LFE112:
 323              		.size	TIM_DeInit, .-TIM_DeInit
 324 01b8 AFF30080 		.section	.text.TIM_TimeBaseInit,"ax",%progbits
 324      AFF30080 
 325              		.align	2
 326              		.p2align 4,,15
 327              		.global	TIM_TimeBaseInit
 328              		.thumb
 329              		.thumb_func
 330              		.type	TIM_TimeBaseInit, %function
 331              	TIM_TimeBaseInit:
 332              	.LFB113:
 333              		.loc 1 293 0
 334              		.cfi_startproc
 335              		@ args = 0, pretend = 0, frame = 0
 336              		@ frame_needed = 0, uses_anonymous_args = 0
 337              		@ link register save eliminated.
 338              	.LVL43:
 339              		.loc 1 303 0
 340 0000 234A     		ldr	r2, .L45
 341              		.loc 1 301 0
ARM GAS  /tmp/cchgQdZS.s 			page 7


 342 0002 0368     		ldr	r3, [r0]
 343              		.loc 1 303 0
 344 0004 9042     		cmp	r0, r2
 345              		.loc 1 293 0
 346 0006 70B4     		push	{r4, r5, r6}
 347              		.cfi_def_cfa_offset 12
 348              		.cfi_offset 4, -12
 349              		.cfi_offset 5, -8
 350              		.cfi_offset 6, -4
 351              		.loc 1 301 0
 352 0008 9BB2     		uxth	r3, r3
 353              	.LVL44:
 354              		.loc 1 303 0
 355 000a 12D0     		beq	.L34
 356              		.loc 1 303 0 is_stmt 0 discriminator 1
 357 000c 02F58062 		add	r2, r2, #1024
 358 0010 9042     		cmp	r0, r2
 359 0012 0ED0     		beq	.L34
 360 0014 B0F1804F 		cmp	r0, #1073741824
 361 0018 0BD0     		beq	.L34
 362              		.loc 1 304 0 is_stmt 1
 363 001a A2F58032 		sub	r2, r2, #65536
 364 001e 9042     		cmp	r0, r2
 365 0020 07D0     		beq	.L34
 366              		.loc 1 304 0 is_stmt 0 discriminator 1
 367 0022 02F58062 		add	r2, r2, #1024
 368 0026 9042     		cmp	r0, r2
 369 0028 03D0     		beq	.L34
 370              		.loc 1 305 0 is_stmt 1
 371 002a 02F58062 		add	r2, r2, #1024
 372 002e 9042     		cmp	r0, r2
 373 0030 03D1     		bne	.L35
 374              	.L34:
 375              		.loc 1 309 0
 376 0032 4A88     		ldrh	r2, [r1, #2]
 377              		.loc 1 308 0
 378 0034 23F07003 		bic	r3, r3, #112
 379              	.LVL45:
 380              		.loc 1 309 0
 381 0038 1343     		orrs	r3, r3, r2
 382              	.LVL46:
 383              	.L35:
 384              		.loc 1 312 0
 385 003a 164A     		ldr	r2, .L45+4
 386 003c 9042     		cmp	r0, r2
 387 003e 1ED0     		beq	.L37
 388              		.loc 1 312 0 is_stmt 0 discriminator 1
 389 0040 02F58062 		add	r2, r2, #1024
 390 0044 9042     		cmp	r0, r2
 391 0046 1AD0     		beq	.L37
 392              		.loc 1 316 0 is_stmt 1
 393 0048 0E89     		ldrh	r6, [r1, #8]
 394              		.loc 1 322 0
 395 004a 4D68     		ldr	r5, [r1, #4]
 396              		.loc 1 325 0
 397 004c 0C88     		ldrh	r4, [r1]
 398              		.loc 1 315 0
ARM GAS  /tmp/cchgQdZS.s 			page 8


 399 004e 23F44073 		bic	r3, r3, #768
 400              	.LVL47:
 401              		.loc 1 327 0
 402 0052 02F56C42 		add	r2, r2, #60416
 403              		.loc 1 315 0
 404 0056 9BB2     		uxth	r3, r3
 405              	.LVL48:
 406              		.loc 1 319 0
 407 0058 3343     		orrs	r3, r3, r6
 408              	.LVL49:
 409              		.loc 1 327 0
 410 005a 9042     		cmp	r0, r2
 411              		.loc 1 319 0
 412 005c 0360     		str	r3, [r0]
 413              		.loc 1 322 0
 414 005e C562     		str	r5, [r0, #44]
 415              		.loc 1 325 0
 416 0060 8462     		str	r4, [r0, #40]
 417              		.loc 1 327 0
 418 0062 06D0     		beq	.L40
 419              		.loc 1 327 0 is_stmt 0 discriminator 1
 420 0064 0C4B     		ldr	r3, .L45+8
 421 0066 9842     		cmp	r0, r3
 422 0068 03D0     		beq	.L40
 423              		.loc 1 335 0 is_stmt 1
 424 006a 0123     		movs	r3, #1
 425 006c 4361     		str	r3, [r0, #20]
 426              		.loc 1 336 0
 427 006e 70BC     		pop	{r4, r5, r6}
 428 0070 7047     		bx	lr
 429              	.L40:
 430              		.loc 1 330 0
 431 0072 8B7A     		ldrb	r3, [r1, #10]	@ zero_extendqisi2
 432 0074 0363     		str	r3, [r0, #48]
 433              		.loc 1 335 0
 434 0076 0123     		movs	r3, #1
 435 0078 4361     		str	r3, [r0, #20]
 436              		.loc 1 336 0
 437 007a 70BC     		pop	{r4, r5, r6}
 438 007c 7047     		bx	lr
 439              	.LVL50:
 440              	.L37:
 441              		.loc 1 319 0
 442 007e 0360     		str	r3, [r0]
 443              		.loc 1 322 0
 444 0080 4A68     		ldr	r2, [r1, #4]
 445              		.loc 1 325 0
 446 0082 0B88     		ldrh	r3, [r1]
 447              	.LVL51:
 448              		.loc 1 322 0
 449 0084 C262     		str	r2, [r0, #44]
 450              	.LVL52:
 451              		.loc 1 325 0
 452 0086 8362     		str	r3, [r0, #40]
 453              		.loc 1 335 0
 454 0088 0123     		movs	r3, #1
 455 008a 4361     		str	r3, [r0, #20]
ARM GAS  /tmp/cchgQdZS.s 			page 9


 456              		.loc 1 336 0
 457 008c 70BC     		pop	{r4, r5, r6}
 458 008e 7047     		bx	lr
 459              	.L46:
 460              		.align	2
 461              	.L45:
 462 0090 00000140 		.word	1073807360
 463 0094 00100040 		.word	1073745920
 464 0098 00040140 		.word	1073808384
 465              		.cfi_endproc
 466              	.LFE113:
 467              		.size	TIM_TimeBaseInit, .-TIM_TimeBaseInit
 468 009c AFF30080 		.section	.text.TIM_TimeBaseStructInit,"ax",%progbits
 469              		.align	2
 470              		.p2align 4,,15
 471              		.global	TIM_TimeBaseStructInit
 472              		.thumb
 473              		.thumb_func
 474              		.type	TIM_TimeBaseStructInit, %function
 475              	TIM_TimeBaseStructInit:
 476              	.LFB114:
 477              		.loc 1 345 0
 478              		.cfi_startproc
 479              		@ args = 0, pretend = 0, frame = 0
 480              		@ frame_needed = 0, uses_anonymous_args = 0
 481              		@ link register save eliminated.
 482              	.LVL53:
 483              		.loc 1 348 0
 484 0000 0023     		movs	r3, #0
 485              		.loc 1 347 0
 486 0002 4FF0FF32 		mov	r2, #-1
 487 0006 4260     		str	r2, [r0, #4]
 488              		.loc 1 348 0
 489 0008 0380     		strh	r3, [r0]	@ movhi
 490              		.loc 1 349 0
 491 000a 0381     		strh	r3, [r0, #8]	@ movhi
 492              		.loc 1 350 0
 493 000c 4380     		strh	r3, [r0, #2]	@ movhi
 494              		.loc 1 351 0
 495 000e 8372     		strb	r3, [r0, #10]
 496 0010 7047     		bx	lr
 497              		.cfi_endproc
 498              	.LFE114:
 499              		.size	TIM_TimeBaseStructInit, .-TIM_TimeBaseStructInit
 500 0012 00BFAFF3 		.section	.text.TIM_PrescalerConfig,"ax",%progbits
 500      0080AFF3 
 500      0080AFF3 
 500      0080
 501              		.align	2
 502              		.p2align 4,,15
 503              		.global	TIM_PrescalerConfig
 504              		.thumb
 505              		.thumb_func
 506              		.type	TIM_PrescalerConfig, %function
 507              	TIM_PrescalerConfig:
 508              	.LFB115:
 509              		.loc 1 365 0
ARM GAS  /tmp/cchgQdZS.s 			page 10


 510              		.cfi_startproc
 511              		@ args = 0, pretend = 0, frame = 0
 512              		@ frame_needed = 0, uses_anonymous_args = 0
 513              		@ link register save eliminated.
 514              	.LVL54:
 515              		.loc 1 370 0
 516 0000 8162     		str	r1, [r0, #40]
 517              		.loc 1 372 0
 518 0002 4261     		str	r2, [r0, #20]
 519 0004 7047     		bx	lr
 520              		.cfi_endproc
 521              	.LFE115:
 522              		.size	TIM_PrescalerConfig, .-TIM_PrescalerConfig
 523 0006 00BFAFF3 		.section	.text.TIM_CounterModeConfig,"ax",%progbits
 523      0080AFF3 
 523      0080
 524              		.align	2
 525              		.p2align 4,,15
 526              		.global	TIM_CounterModeConfig
 527              		.thumb
 528              		.thumb_func
 529              		.type	TIM_CounterModeConfig, %function
 530              	TIM_CounterModeConfig:
 531              	.LFB116:
 532              		.loc 1 388 0
 533              		.cfi_startproc
 534              		@ args = 0, pretend = 0, frame = 0
 535              		@ frame_needed = 0, uses_anonymous_args = 0
 536              		@ link register save eliminated.
 537              	.LVL55:
 538              		.loc 1 395 0
 539 0000 0268     		ldr	r2, [r0]
 540              	.LVL56:
 541              		.loc 1 398 0
 542 0002 4FF68F73 		movw	r3, #65423
 543 0006 1340     		ands	r3, r3, r2
 544              	.LVL57:
 545              		.loc 1 404 0
 546 0008 1943     		orrs	r1, r1, r3
 547              	.LVL58:
 548 000a 0160     		str	r1, [r0]
 549 000c 7047     		bx	lr
 550              		.cfi_endproc
 551              	.LFE116:
 552              		.size	TIM_CounterModeConfig, .-TIM_CounterModeConfig
 553 000e 00BF     		.section	.text.TIM_SetCounter,"ax",%progbits
 554              		.align	2
 555              		.p2align 4,,15
 556              		.global	TIM_SetCounter
 557              		.thumb
 558              		.thumb_func
 559              		.type	TIM_SetCounter, %function
 560              	TIM_SetCounter:
 561              	.LFB117:
 562              		.loc 1 414 0
 563              		.cfi_startproc
 564              		@ args = 0, pretend = 0, frame = 0
ARM GAS  /tmp/cchgQdZS.s 			page 11


 565              		@ frame_needed = 0, uses_anonymous_args = 0
 566              		@ link register save eliminated.
 567              	.LVL59:
 568              		.loc 1 419 0
 569 0000 4162     		str	r1, [r0, #36]
 570 0002 7047     		bx	lr
 571              		.cfi_endproc
 572              	.LFE117:
 573              		.size	TIM_SetCounter, .-TIM_SetCounter
 574 0004 AFF30080 		.section	.text.TIM_SetAutoreload,"ax",%progbits
 574      AFF30080 
 574      AFF30080 
 575              		.align	2
 576              		.p2align 4,,15
 577              		.global	TIM_SetAutoreload
 578              		.thumb
 579              		.thumb_func
 580              		.type	TIM_SetAutoreload, %function
 581              	TIM_SetAutoreload:
 582              	.LFB118:
 583              		.loc 1 429 0
 584              		.cfi_startproc
 585              		@ args = 0, pretend = 0, frame = 0
 586              		@ frame_needed = 0, uses_anonymous_args = 0
 587              		@ link register save eliminated.
 588              	.LVL60:
 589              		.loc 1 434 0
 590 0000 C162     		str	r1, [r0, #44]
 591 0002 7047     		bx	lr
 592              		.cfi_endproc
 593              	.LFE118:
 594              		.size	TIM_SetAutoreload, .-TIM_SetAutoreload
 595 0004 AFF30080 		.section	.text.TIM_GetCounter,"ax",%progbits
 595      AFF30080 
 595      AFF30080 
 596              		.align	2
 597              		.p2align 4,,15
 598              		.global	TIM_GetCounter
 599              		.thumb
 600              		.thumb_func
 601              		.type	TIM_GetCounter, %function
 602              	TIM_GetCounter:
 603              	.LFB119:
 604              		.loc 1 443 0
 605              		.cfi_startproc
 606              		@ args = 0, pretend = 0, frame = 0
 607              		@ frame_needed = 0, uses_anonymous_args = 0
 608              		@ link register save eliminated.
 609              	.LVL61:
 610              		.loc 1 448 0
 611 0000 406A     		ldr	r0, [r0, #36]
 612              	.LVL62:
 613              		.loc 1 449 0
 614 0002 7047     		bx	lr
 615              		.cfi_endproc
 616              	.LFE119:
 617              		.size	TIM_GetCounter, .-TIM_GetCounter
ARM GAS  /tmp/cchgQdZS.s 			page 12


 618 0004 AFF30080 		.section	.text.TIM_GetPrescaler,"ax",%progbits
 618      AFF30080 
 618      AFF30080 
 619              		.align	2
 620              		.p2align 4,,15
 621              		.global	TIM_GetPrescaler
 622              		.thumb
 623              		.thumb_func
 624              		.type	TIM_GetPrescaler, %function
 625              	TIM_GetPrescaler:
 626              	.LFB120:
 627              		.loc 1 457 0
 628              		.cfi_startproc
 629              		@ args = 0, pretend = 0, frame = 0
 630              		@ frame_needed = 0, uses_anonymous_args = 0
 631              		@ link register save eliminated.
 632              	.LVL63:
 633              		.loc 1 462 0
 634 0000 806A     		ldr	r0, [r0, #40]
 635              	.LVL64:
 636              		.loc 1 463 0
 637 0002 80B2     		uxth	r0, r0
 638 0004 7047     		bx	lr
 639              		.cfi_endproc
 640              	.LFE120:
 641              		.size	TIM_GetPrescaler, .-TIM_GetPrescaler
 642 0006 00BFAFF3 		.section	.text.TIM_UpdateDisableConfig,"ax",%progbits
 642      0080AFF3 
 642      0080
 643              		.align	2
 644              		.p2align 4,,15
 645              		.global	TIM_UpdateDisableConfig
 646              		.thumb
 647              		.thumb_func
 648              		.type	TIM_UpdateDisableConfig, %function
 649              	TIM_UpdateDisableConfig:
 650              	.LFB121:
 651              		.loc 1 473 0
 652              		.cfi_startproc
 653              		@ args = 0, pretend = 0, frame = 0
 654              		@ frame_needed = 0, uses_anonymous_args = 0
 655              		@ link register save eliminated.
 656              	.LVL65:
 657              		.loc 1 478 0
 658 0000 29B9     		cbnz	r1, .L57
 659              		.loc 1 486 0
 660 0002 0268     		ldr	r2, [r0]
 661 0004 4FF6FD73 		movw	r3, #65533
 662 0008 1340     		ands	r3, r3, r2
 663 000a 0360     		str	r3, [r0]
 664 000c 7047     		bx	lr
 665              	.L57:
 666              		.loc 1 481 0
 667 000e 0368     		ldr	r3, [r0]
 668 0010 43F00203 		orr	r3, r3, #2
 669 0014 0360     		str	r3, [r0]
 670 0016 7047     		bx	lr
ARM GAS  /tmp/cchgQdZS.s 			page 13


 671              		.cfi_endproc
 672              	.LFE121:
 673              		.size	TIM_UpdateDisableConfig, .-TIM_UpdateDisableConfig
 674 0018 AFF30080 		.section	.text.TIM_UpdateRequestConfig,"ax",%progbits
 674      AFF30080 
 675              		.align	2
 676              		.p2align 4,,15
 677              		.global	TIM_UpdateRequestConfig
 678              		.thumb
 679              		.thumb_func
 680              		.type	TIM_UpdateRequestConfig, %function
 681              	TIM_UpdateRequestConfig:
 682              	.LFB122:
 683              		.loc 1 502 0
 684              		.cfi_startproc
 685              		@ args = 0, pretend = 0, frame = 0
 686              		@ frame_needed = 0, uses_anonymous_args = 0
 687              		@ link register save eliminated.
 688              	.LVL66:
 689              		.loc 1 507 0
 690 0000 29B9     		cbnz	r1, .L61
 691              		.loc 1 515 0
 692 0002 0268     		ldr	r2, [r0]
 693 0004 4FF6FB73 		movw	r3, #65531
 694 0008 1340     		ands	r3, r3, r2
 695 000a 0360     		str	r3, [r0]
 696 000c 7047     		bx	lr
 697              	.L61:
 698              		.loc 1 510 0
 699 000e 0368     		ldr	r3, [r0]
 700 0010 43F00403 		orr	r3, r3, #4
 701 0014 0360     		str	r3, [r0]
 702 0016 7047     		bx	lr
 703              		.cfi_endproc
 704              	.LFE122:
 705              		.size	TIM_UpdateRequestConfig, .-TIM_UpdateRequestConfig
 706 0018 AFF30080 		.section	.text.TIM_ARRPreloadConfig,"ax",%progbits
 706      AFF30080 
 707              		.align	2
 708              		.p2align 4,,15
 709              		.global	TIM_ARRPreloadConfig
 710              		.thumb
 711              		.thumb_func
 712              		.type	TIM_ARRPreloadConfig, %function
 713              	TIM_ARRPreloadConfig:
 714              	.LFB123:
 715              		.loc 1 527 0
 716              		.cfi_startproc
 717              		@ args = 0, pretend = 0, frame = 0
 718              		@ frame_needed = 0, uses_anonymous_args = 0
 719              		@ link register save eliminated.
 720              	.LVL67:
 721              		.loc 1 532 0
 722 0000 29B9     		cbnz	r1, .L65
 723              		.loc 1 540 0
 724 0002 0268     		ldr	r2, [r0]
 725 0004 4FF67F73 		movw	r3, #65407
ARM GAS  /tmp/cchgQdZS.s 			page 14


 726 0008 1340     		ands	r3, r3, r2
 727 000a 0360     		str	r3, [r0]
 728 000c 7047     		bx	lr
 729              	.L65:
 730              		.loc 1 535 0
 731 000e 0368     		ldr	r3, [r0]
 732 0010 43F08003 		orr	r3, r3, #128
 733 0014 0360     		str	r3, [r0]
 734 0016 7047     		bx	lr
 735              		.cfi_endproc
 736              	.LFE123:
 737              		.size	TIM_ARRPreloadConfig, .-TIM_ARRPreloadConfig
 738 0018 AFF30080 		.section	.text.TIM_SelectOnePulseMode,"ax",%progbits
 738      AFF30080 
 739              		.align	2
 740              		.p2align 4,,15
 741              		.global	TIM_SelectOnePulseMode
 742              		.thumb
 743              		.thumb_func
 744              		.type	TIM_SelectOnePulseMode, %function
 745              	TIM_SelectOnePulseMode:
 746              	.LFB124:
 747              		.loc 1 554 0
 748              		.cfi_startproc
 749              		@ args = 0, pretend = 0, frame = 0
 750              		@ frame_needed = 0, uses_anonymous_args = 0
 751              		@ link register save eliminated.
 752              	.LVL68:
 753              		.loc 1 560 0
 754 0000 0268     		ldr	r2, [r0]
 755 0002 4FF6F773 		movw	r3, #65527
 756 0006 1340     		ands	r3, r3, r2
 757 0008 0360     		str	r3, [r0]
 758              		.loc 1 563 0
 759 000a 0368     		ldr	r3, [r0]
 760 000c 1943     		orrs	r1, r1, r3
 761              	.LVL69:
 762 000e 0160     		str	r1, [r0]
 763 0010 7047     		bx	lr
 764              		.cfi_endproc
 765              	.LFE124:
 766              		.size	TIM_SelectOnePulseMode, .-TIM_SelectOnePulseMode
 767 0012 00BFAFF3 		.section	.text.TIM_SetClockDivision,"ax",%progbits
 767      0080AFF3 
 767      0080AFF3 
 767      0080
 768              		.align	2
 769              		.p2align 4,,15
 770              		.global	TIM_SetClockDivision
 771              		.thumb
 772              		.thumb_func
 773              		.type	TIM_SetClockDivision, %function
 774              	TIM_SetClockDivision:
 775              	.LFB125:
 776              		.loc 1 577 0
 777              		.cfi_startproc
 778              		@ args = 0, pretend = 0, frame = 0
ARM GAS  /tmp/cchgQdZS.s 			page 15


 779              		@ frame_needed = 0, uses_anonymous_args = 0
 780              		@ link register save eliminated.
 781              	.LVL70:
 782              		.loc 1 583 0
 783 0000 0268     		ldr	r2, [r0]
 784 0002 4FF6FF43 		movw	r3, #64767
 785 0006 1340     		ands	r3, r3, r2
 786 0008 0360     		str	r3, [r0]
 787              		.loc 1 586 0
 788 000a 0368     		ldr	r3, [r0]
 789 000c 1943     		orrs	r1, r1, r3
 790              	.LVL71:
 791 000e 0160     		str	r1, [r0]
 792 0010 7047     		bx	lr
 793              		.cfi_endproc
 794              	.LFE125:
 795              		.size	TIM_SetClockDivision, .-TIM_SetClockDivision
 796 0012 00BFAFF3 		.section	.text.TIM_Cmd,"ax",%progbits
 796      0080AFF3 
 796      0080AFF3 
 796      0080
 797              		.align	2
 798              		.p2align 4,,15
 799              		.global	TIM_Cmd
 800              		.thumb
 801              		.thumb_func
 802              		.type	TIM_Cmd, %function
 803              	TIM_Cmd:
 804              	.LFB126:
 805              		.loc 1 597 0
 806              		.cfi_startproc
 807              		@ args = 0, pretend = 0, frame = 0
 808              		@ frame_needed = 0, uses_anonymous_args = 0
 809              		@ link register save eliminated.
 810              	.LVL72:
 811              		.loc 1 602 0
 812 0000 29B9     		cbnz	r1, .L71
 813              		.loc 1 610 0
 814 0002 0268     		ldr	r2, [r0]
 815 0004 4FF6FE73 		movw	r3, #65534
 816 0008 1340     		ands	r3, r3, r2
 817 000a 0360     		str	r3, [r0]
 818 000c 7047     		bx	lr
 819              	.L71:
 820              		.loc 1 605 0
 821 000e 0368     		ldr	r3, [r0]
 822 0010 43F00103 		orr	r3, r3, #1
 823 0014 0360     		str	r3, [r0]
 824 0016 7047     		bx	lr
 825              		.cfi_endproc
 826              	.LFE126:
 827              		.size	TIM_Cmd, .-TIM_Cmd
 828 0018 AFF30080 		.section	.text.TIM_OC1Init,"ax",%progbits
 828      AFF30080 
 829              		.align	2
 830              		.p2align 4,,15
 831              		.global	TIM_OC1Init
ARM GAS  /tmp/cchgQdZS.s 			page 16


 832              		.thumb
 833              		.thumb_func
 834              		.type	TIM_OC1Init, %function
 835              	TIM_OC1Init:
 836              	.LFB127:
 837              		.loc 1 678 0
 838              		.cfi_startproc
 839              		@ args = 0, pretend = 0, frame = 0
 840              		@ frame_needed = 0, uses_anonymous_args = 0
 841              		@ link register save eliminated.
 842              	.LVL73:
 843              		.loc 1 688 0
 844 0000 026A     		ldr	r2, [r0, #32]
 845              		.loc 1 707 0
 846 0002 8B89     		ldrh	r3, [r1, #12]
 847              		.loc 1 678 0
 848 0004 2DE9F001 		push	{r4, r5, r6, r7, r8}
 849              		.cfi_def_cfa_offset 20
 850              		.cfi_offset 4, -20
 851              		.cfi_offset 5, -16
 852              		.cfi_offset 6, -12
 853              		.cfi_offset 7, -8
 854              		.cfi_offset 8, -4
 855              		.loc 1 688 0
 856 0008 4FF6FE74 		movw	r4, #65534
 857 000c 1440     		ands	r4, r4, r2
 858              		.loc 1 707 0
 859 000e 4F88     		ldrh	r7, [r1, #2]
 860              		.loc 1 702 0
 861 0010 0E88     		ldrh	r6, [r1]
 862              		.loc 1 688 0
 863 0012 0462     		str	r4, [r0, #32]
 864              		.loc 1 691 0
 865 0014 D0F82080 		ldr	r8, [r0, #32]
 866              	.LVL74:
 867              		.loc 1 712 0
 868 0018 194D     		ldr	r5, .L75
 869              		.loc 1 693 0
 870 001a 4468     		ldr	r4, [r0, #4]
 871              		.loc 1 696 0
 872 001c D0F818C0 		ldr	ip, [r0, #24]
 873              		.loc 1 707 0
 874 0020 1F43     		orrs	r7, r7, r3
 875              		.loc 1 705 0
 876 0022 4FF6FD72 		movw	r2, #65533
 877              		.loc 1 700 0
 878 0026 4FF68C73 		movw	r3, #65420
 879              		.loc 1 705 0
 880 002a 08EA0202 		and	r2, r8, r2
 881              		.loc 1 707 0
 882 002e BFB2     		uxth	r7, r7
 883              		.loc 1 700 0
 884 0030 0CEA0303 		and	r3, ip, r3
 885              		.loc 1 712 0
 886 0034 A842     		cmp	r0, r5
 887              		.loc 1 710 0
 888 0036 47EA0202 		orr	r2, r7, r2
ARM GAS  /tmp/cchgQdZS.s 			page 17


 889              		.loc 1 693 0
 890 003a A4B2     		uxth	r4, r4
 891              	.LVL75:
 892              		.loc 1 702 0
 893 003c 43EA0603 		orr	r3, r3, r6
 894              	.LVL76:
 895              		.loc 1 712 0
 896 0040 0BD0     		beq	.L73
 897              		.loc 1 712 0 is_stmt 0 discriminator 1
 898 0042 05F58065 		add	r5, r5, #1024
 899 0046 A842     		cmp	r0, r5
 900 0048 07D0     		beq	.L73
 901              	.LVL77:
 902              	.L74:
 903              		.loc 1 743 0 is_stmt 1
 904 004a 8968     		ldr	r1, [r1, #8]
 905              	.LVL78:
 906              		.loc 1 737 0
 907 004c 4460     		str	r4, [r0, #4]
 908              		.loc 1 740 0
 909 004e 8361     		str	r3, [r0, #24]
 910              		.loc 1 747 0
 911 0050 BDE8F001 		pop	{r4, r5, r6, r7, r8}
 912              	.LVL79:
 913              		.loc 1 743 0
 914 0054 4163     		str	r1, [r0, #52]
 915              		.loc 1 746 0
 916 0056 0262     		str	r2, [r0, #32]
 917              		.loc 1 747 0
 918 0058 7047     		bx	lr
 919              	.LVL80:
 920              	.L73:
 921              		.loc 1 722 0
 922 005a B1F80EC0 		ldrh	ip, [r1, #14]
 923              		.loc 1 732 0
 924 005e 4F8A     		ldrh	r7, [r1, #18]
 925 0060 0D8A     		ldrh	r5, [r1, #16]
 926              		.loc 1 727 0
 927 0062 8E88     		ldrh	r6, [r1, #4]
 928              		.loc 1 720 0
 929 0064 22F00802 		bic	r2, r2, #8
 930              	.LVL81:
 931              		.loc 1 722 0
 932 0068 42EA0C02 		orr	r2, r2, ip
 933              	.LVL82:
 934              		.loc 1 732 0
 935 006c 3D43     		orrs	r5, r5, r7
 936              		.loc 1 730 0
 937 006e 24F44074 		bic	r4, r4, #768
 938              	.LVL83:
 939              		.loc 1 724 0
 940 0072 22F00402 		bic	r2, r2, #4
 941              	.LVL84:
 942              		.loc 1 732 0
 943 0076 ADB2     		uxth	r5, r5
 944              		.loc 1 727 0
 945 0078 3243     		orrs	r2, r2, r6
ARM GAS  /tmp/cchgQdZS.s 			page 18


 946              	.LVL85:
 947              		.loc 1 734 0
 948 007a 2C43     		orrs	r4, r4, r5
 949              	.LVL86:
 950 007c E5E7     		b	.L74
 951              	.L76:
 952 007e 00BF     		.align	2
 953              	.L75:
 954 0080 00000140 		.word	1073807360
 955              		.cfi_endproc
 956              	.LFE127:
 957              		.size	TIM_OC1Init, .-TIM_OC1Init
 958 0084 AFF30080 		.section	.text.TIM_OC2Init,"ax",%progbits
 958      AFF30080 
 958      AFF30080 
 959              		.align	2
 960              		.p2align 4,,15
 961              		.global	TIM_OC2Init
 962              		.thumb
 963              		.thumb_func
 964              		.type	TIM_OC2Init, %function
 965              	TIM_OC2Init:
 966              	.LFB128:
 967              		.loc 1 759 0
 968              		.cfi_startproc
 969              		@ args = 0, pretend = 0, frame = 0
 970              		@ frame_needed = 0, uses_anonymous_args = 0
 971              		@ link register save eliminated.
 972              	.LVL87:
 973              		.loc 1 769 0
 974 0000 036A     		ldr	r3, [r0, #32]
 975              		.loc 1 759 0
 976 0002 2DE9F003 		push	{r4, r5, r6, r7, r8, r9}
 977              		.cfi_def_cfa_offset 24
 978              		.cfi_offset 4, -24
 979              		.cfi_offset 5, -20
 980              		.cfi_offset 6, -16
 981              		.cfi_offset 7, -12
 982              		.cfi_offset 8, -8
 983              		.cfi_offset 9, -4
 984              		.loc 1 769 0
 985 0006 4FF6EF74 		movw	r4, #65519
 986 000a 1C40     		ands	r4, r4, r3
 987              		.loc 1 789 0
 988 000c 8E89     		ldrh	r6, [r1, #12]
 989              		.loc 1 792 0
 990 000e B1F80290 		ldrh	r9, [r1, #2]
 991              		.loc 1 784 0
 992 0012 0F88     		ldrh	r7, [r1]
 993              		.loc 1 769 0
 994 0014 0462     		str	r4, [r0, #32]
 995              		.loc 1 772 0
 996 0016 D0F820C0 		ldr	ip, [r0, #32]
 997              	.LVL88:
 998              		.loc 1 774 0
 999 001a 4468     		ldr	r4, [r0, #4]
 1000              		.loc 1 777 0
ARM GAS  /tmp/cchgQdZS.s 			page 19


 1001 001c D0F81880 		ldr	r8, [r0, #24]
 1002              		.loc 1 794 0
 1003 0020 1B4D     		ldr	r5, .L80
 1004              		.loc 1 789 0
 1005 0022 3601     		lsls	r6, r6, #4
 1006              		.loc 1 781 0
 1007 0024 48F6FF42 		movw	r2, #36095
 1008              		.loc 1 787 0
 1009 0028 4FF6DF73 		movw	r3, #65503
 1010              		.loc 1 789 0
 1011 002c 46EA0916 		orr	r6, r6, r9, lsl #4
 1012              		.loc 1 781 0
 1013 0030 08EA0202 		and	r2, r8, r2
 1014              		.loc 1 787 0
 1015 0034 0CEA0303 		and	r3, ip, r3
 1016              		.loc 1 789 0
 1017 0038 B6B2     		uxth	r6, r6
 1018              		.loc 1 784 0
 1019 003a 42EA0722 		orr	r2, r2, r7, lsl #8
 1020              		.loc 1 794 0
 1021 003e A842     		cmp	r0, r5
 1022              		.loc 1 792 0
 1023 0040 46EA0303 		orr	r3, r6, r3
 1024              		.loc 1 774 0
 1025 0044 A4B2     		uxth	r4, r4
 1026              	.LVL89:
 1027              		.loc 1 784 0
 1028 0046 92B2     		uxth	r2, r2
 1029              	.LVL90:
 1030              		.loc 1 794 0
 1031 0048 0BD0     		beq	.L78
 1032              		.loc 1 794 0 is_stmt 0 discriminator 1
 1033 004a 05F58065 		add	r5, r5, #1024
 1034 004e A842     		cmp	r0, r5
 1035 0050 07D0     		beq	.L78
 1036              	.LVL91:
 1037              	.L79:
 1038              		.loc 1 825 0 is_stmt 1
 1039 0052 8968     		ldr	r1, [r1, #8]
 1040              	.LVL92:
 1041              		.loc 1 819 0
 1042 0054 4460     		str	r4, [r0, #4]
 1043              		.loc 1 822 0
 1044 0056 8261     		str	r2, [r0, #24]
 1045              		.loc 1 829 0
 1046 0058 BDE8F003 		pop	{r4, r5, r6, r7, r8, r9}
 1047              	.LVL93:
 1048              		.loc 1 825 0
 1049 005c 8163     		str	r1, [r0, #56]
 1050              		.loc 1 828 0
 1051 005e 0362     		str	r3, [r0, #32]
 1052              		.loc 1 829 0
 1053 0060 7047     		bx	lr
 1054              	.LVL94:
 1055              	.L78:
 1056              		.loc 1 804 0
 1057 0062 CD89     		ldrh	r5, [r1, #14]
ARM GAS  /tmp/cchgQdZS.s 			page 20


 1058              		.loc 1 814 0
 1059 0064 0E8A     		ldrh	r6, [r1, #16]
 1060              		.loc 1 816 0
 1061 0066 B1F812C0 		ldrh	ip, [r1, #18]
 1062              		.loc 1 809 0
 1063 006a 8F88     		ldrh	r7, [r1, #4]
 1064              		.loc 1 802 0
 1065 006c 23F08003 		bic	r3, r3, #128
 1066              	.LVL95:
 1067              		.loc 1 804 0
 1068 0070 43EA0513 		orr	r3, r3, r5, lsl #4
 1069              	.LVL96:
 1070              		.loc 1 814 0
 1071 0074 B600     		lsls	r6, r6, #2
 1072              		.loc 1 806 0
 1073 0076 4FF6BF75 		movw	r5, #65471
 1074 007a 1D40     		ands	r5, r5, r3
 1075              	.LVL97:
 1076              		.loc 1 814 0
 1077 007c 46EA8C06 		orr	r6, r6, ip, lsl #2
 1078              		.loc 1 812 0
 1079 0080 24F44064 		bic	r4, r4, #3072
 1080              	.LVL98:
 1081              		.loc 1 809 0
 1082 0084 45EA0713 		orr	r3, r5, r7, lsl #4
 1083              		.loc 1 814 0
 1084 0088 B6B2     		uxth	r6, r6
 1085              		.loc 1 809 0
 1086 008a 9BB2     		uxth	r3, r3
 1087              	.LVL99:
 1088              		.loc 1 816 0
 1089 008c 3443     		orrs	r4, r4, r6
 1090              	.LVL100:
 1091 008e E0E7     		b	.L79
 1092              	.L81:
 1093              		.align	2
 1094              	.L80:
 1095 0090 00000140 		.word	1073807360
 1096              		.cfi_endproc
 1097              	.LFE128:
 1098              		.size	TIM_OC2Init, .-TIM_OC2Init
 1099 0094 AFF30080 		.section	.text.TIM_OC3Init,"ax",%progbits
 1099      AFF30080 
 1099      AFF30080 
 1100              		.align	2
 1101              		.p2align 4,,15
 1102              		.global	TIM_OC3Init
 1103              		.thumb
 1104              		.thumb_func
 1105              		.type	TIM_OC3Init, %function
 1106              	TIM_OC3Init:
 1107              	.LFB129:
 1108              		.loc 1 840 0
 1109              		.cfi_startproc
 1110              		@ args = 0, pretend = 0, frame = 0
 1111              		@ frame_needed = 0, uses_anonymous_args = 0
 1112              		@ link register save eliminated.
ARM GAS  /tmp/cchgQdZS.s 			page 21


 1113              	.LVL101:
 1114              		.loc 1 850 0
 1115 0000 026A     		ldr	r2, [r0, #32]
 1116              		.loc 1 872 0
 1117 0002 4B88     		ldrh	r3, [r1, #2]
 1118              		.loc 1 840 0
 1119 0004 2DE9F001 		push	{r4, r5, r6, r7, r8}
 1120              		.cfi_def_cfa_offset 20
 1121              		.cfi_offset 4, -20
 1122              		.cfi_offset 5, -16
 1123              		.cfi_offset 6, -12
 1124              		.cfi_offset 7, -8
 1125              		.cfi_offset 8, -4
 1126              		.loc 1 850 0
 1127 0008 4FF6FF64 		movw	r4, #65279
 1128 000c 1440     		ands	r4, r4, r2
 1129              		.loc 1 869 0
 1130 000e 8F89     		ldrh	r7, [r1, #12]
 1131              		.loc 1 864 0
 1132 0010 0E88     		ldrh	r6, [r1]
 1133              		.loc 1 850 0
 1134 0012 0462     		str	r4, [r0, #32]
 1135              		.loc 1 853 0
 1136 0014 D0F82080 		ldr	r8, [r0, #32]
 1137              	.LVL102:
 1138              		.loc 1 874 0
 1139 0018 1C4D     		ldr	r5, .L85
 1140              		.loc 1 855 0
 1141 001a 4468     		ldr	r4, [r0, #4]
 1142              		.loc 1 858 0
 1143 001c D0F81CC0 		ldr	ip, [r0, #28]
 1144              		.loc 1 869 0
 1145 0020 3F02     		lsls	r7, r7, #8
 1146 0022 47EA0327 		orr	r7, r7, r3, lsl #8
 1147              		.loc 1 867 0
 1148 0026 4FF6FF52 		movw	r2, #65023
 1149              		.loc 1 862 0
 1150 002a 4FF68C73 		movw	r3, #65420
 1151              		.loc 1 867 0
 1152 002e 08EA0202 		and	r2, r8, r2
 1153              		.loc 1 869 0
 1154 0032 BFB2     		uxth	r7, r7
 1155              		.loc 1 862 0
 1156 0034 0CEA0303 		and	r3, ip, r3
 1157              		.loc 1 874 0
 1158 0038 A842     		cmp	r0, r5
 1159              		.loc 1 872 0
 1160 003a 47EA0202 		orr	r2, r7, r2
 1161              		.loc 1 855 0
 1162 003e A4B2     		uxth	r4, r4
 1163              	.LVL103:
 1164              		.loc 1 864 0
 1165 0040 43EA0603 		orr	r3, r3, r6
 1166              	.LVL104:
 1167              		.loc 1 874 0
 1168 0044 0BD0     		beq	.L83
 1169              		.loc 1 874 0 is_stmt 0 discriminator 1
ARM GAS  /tmp/cchgQdZS.s 			page 22


 1170 0046 05F58065 		add	r5, r5, #1024
 1171 004a A842     		cmp	r0, r5
 1172 004c 07D0     		beq	.L83
 1173              	.LVL105:
 1174              	.L84:
 1175              		.loc 1 905 0 is_stmt 1
 1176 004e 8968     		ldr	r1, [r1, #8]
 1177              	.LVL106:
 1178              		.loc 1 899 0
 1179 0050 4460     		str	r4, [r0, #4]
 1180              		.loc 1 902 0
 1181 0052 C361     		str	r3, [r0, #28]
 1182              		.loc 1 909 0
 1183 0054 BDE8F001 		pop	{r4, r5, r6, r7, r8}
 1184              	.LVL107:
 1185              		.loc 1 905 0
 1186 0058 C163     		str	r1, [r0, #60]
 1187              		.loc 1 908 0
 1188 005a 0262     		str	r2, [r0, #32]
 1189              		.loc 1 909 0
 1190 005c 7047     		bx	lr
 1191              	.LVL108:
 1192              	.L83:
 1193              		.loc 1 884 0
 1194 005e CD89     		ldrh	r5, [r1, #14]
 1195              		.loc 1 894 0
 1196 0060 0E8A     		ldrh	r6, [r1, #16]
 1197              		.loc 1 896 0
 1198 0062 B1F812C0 		ldrh	ip, [r1, #18]
 1199              		.loc 1 889 0
 1200 0066 8F88     		ldrh	r7, [r1, #4]
 1201              		.loc 1 882 0
 1202 0068 22F40062 		bic	r2, r2, #2048
 1203              	.LVL109:
 1204              		.loc 1 884 0
 1205 006c 42EA0522 		orr	r2, r2, r5, lsl #8
 1206              	.LVL110:
 1207              		.loc 1 894 0
 1208 0070 3601     		lsls	r6, r6, #4
 1209              		.loc 1 886 0
 1210 0072 4FF6FF35 		movw	r5, #64511
 1211 0076 1540     		ands	r5, r5, r2
 1212              	.LVL111:
 1213              		.loc 1 894 0
 1214 0078 46EA0C16 		orr	r6, r6, ip, lsl #4
 1215              		.loc 1 892 0
 1216 007c 24F44054 		bic	r4, r4, #12288
 1217              	.LVL112:
 1218              		.loc 1 889 0
 1219 0080 45EA0722 		orr	r2, r5, r7, lsl #8
 1220              		.loc 1 894 0
 1221 0084 B6B2     		uxth	r6, r6
 1222              		.loc 1 889 0
 1223 0086 92B2     		uxth	r2, r2
 1224              	.LVL113:
 1225              		.loc 1 896 0
 1226 0088 3443     		orrs	r4, r4, r6
ARM GAS  /tmp/cchgQdZS.s 			page 23


 1227              	.LVL114:
 1228 008a E0E7     		b	.L84
 1229              	.L86:
 1230              		.align	2
 1231              	.L85:
 1232 008c 00000140 		.word	1073807360
 1233              		.cfi_endproc
 1234              	.LFE129:
 1235              		.size	TIM_OC3Init, .-TIM_OC3Init
 1236              		.section	.text.TIM_OC4Init,"ax",%progbits
 1237              		.align	2
 1238              		.p2align 4,,15
 1239              		.global	TIM_OC4Init
 1240              		.thumb
 1241              		.thumb_func
 1242              		.type	TIM_OC4Init, %function
 1243              	TIM_OC4Init:
 1244              	.LFB130:
 1245              		.loc 1 920 0
 1246              		.cfi_startproc
 1247              		@ args = 0, pretend = 0, frame = 0
 1248              		@ frame_needed = 0, uses_anonymous_args = 0
 1249              		@ link register save eliminated.
 1250              	.LVL115:
 1251              		.loc 1 930 0
 1252 0000 036A     		ldr	r3, [r0, #32]
 1253              		.loc 1 920 0
 1254 0002 2DE9F003 		push	{r4, r5, r6, r7, r8, r9}
 1255              		.cfi_def_cfa_offset 24
 1256              		.cfi_offset 4, -24
 1257              		.cfi_offset 5, -20
 1258              		.cfi_offset 6, -16
 1259              		.cfi_offset 7, -12
 1260              		.cfi_offset 8, -8
 1261              		.cfi_offset 9, -4
 1262              		.loc 1 930 0
 1263 0006 4EF6FF74 		movw	r4, #61439
 1264 000a 1C40     		ands	r4, r4, r3
 1265              		.loc 1 950 0
 1266 000c 8E89     		ldrh	r6, [r1, #12]
 1267              		.loc 1 953 0
 1268 000e B1F80290 		ldrh	r9, [r1, #2]
 1269              		.loc 1 945 0
 1270 0012 0F88     		ldrh	r7, [r1]
 1271              		.loc 1 930 0
 1272 0014 0462     		str	r4, [r0, #32]
 1273              		.loc 1 933 0
 1274 0016 D0F820C0 		ldr	ip, [r0, #32]
 1275              	.LVL116:
 1276              		.loc 1 935 0
 1277 001a 4468     		ldr	r4, [r0, #4]
 1278              		.loc 1 938 0
 1279 001c D0F81C80 		ldr	r8, [r0, #28]
 1280              		.loc 1 955 0
 1281 0020 134D     		ldr	r5, .L90
 1282              		.loc 1 950 0
 1283 0022 3603     		lsls	r6, r6, #12
ARM GAS  /tmp/cchgQdZS.s 			page 24


 1284              		.loc 1 942 0
 1285 0024 48F6FF42 		movw	r2, #36095
 1286              		.loc 1 948 0
 1287 0028 4DF6FF73 		movw	r3, #57343
 1288              		.loc 1 950 0
 1289 002c 46EA0936 		orr	r6, r6, r9, lsl #12
 1290              		.loc 1 942 0
 1291 0030 08EA0202 		and	r2, r8, r2
 1292              		.loc 1 948 0
 1293 0034 0CEA0303 		and	r3, ip, r3
 1294              		.loc 1 950 0
 1295 0038 B6B2     		uxth	r6, r6
 1296              		.loc 1 945 0
 1297 003a 42EA0722 		orr	r2, r2, r7, lsl #8
 1298              		.loc 1 955 0
 1299 003e A842     		cmp	r0, r5
 1300              		.loc 1 953 0
 1301 0040 46EA0303 		orr	r3, r6, r3
 1302              		.loc 1 935 0
 1303 0044 A4B2     		uxth	r4, r4
 1304              	.LVL117:
 1305              		.loc 1 945 0
 1306 0046 92B2     		uxth	r2, r2
 1307              	.LVL118:
 1308              		.loc 1 955 0
 1309 0048 0BD0     		beq	.L88
 1310              		.loc 1 955 0 is_stmt 0 discriminator 1
 1311 004a 05F58065 		add	r5, r5, #1024
 1312 004e A842     		cmp	r0, r5
 1313 0050 07D0     		beq	.L88
 1314              	.LVL119:
 1315              	.L89:
 1316              		.loc 1 970 0 is_stmt 1
 1317 0052 8968     		ldr	r1, [r1, #8]
 1318              	.LVL120:
 1319              		.loc 1 964 0
 1320 0054 4460     		str	r4, [r0, #4]
 1321              		.loc 1 967 0
 1322 0056 C261     		str	r2, [r0, #28]
 1323              		.loc 1 974 0
 1324 0058 BDE8F003 		pop	{r4, r5, r6, r7, r8, r9}
 1325              	.LVL121:
 1326              		.loc 1 970 0
 1327 005c 0164     		str	r1, [r0, #64]
 1328              		.loc 1 973 0
 1329 005e 0362     		str	r3, [r0, #32]
 1330              		.loc 1 974 0
 1331 0060 7047     		bx	lr
 1332              	.LVL122:
 1333              	.L88:
 1334              		.loc 1 961 0
 1335 0062 0D8A     		ldrh	r5, [r1, #16]
 1336              		.loc 1 959 0
 1337 0064 24F48044 		bic	r4, r4, #16384
 1338              	.LVL123:
 1339              		.loc 1 961 0
 1340 0068 44EA8514 		orr	r4, r4, r5, lsl #6
ARM GAS  /tmp/cchgQdZS.s 			page 25


 1341              	.LVL124:
 1342 006c A4B2     		uxth	r4, r4
 1343              	.LVL125:
 1344 006e F0E7     		b	.L89
 1345              	.L91:
 1346              		.align	2
 1347              	.L90:
 1348 0070 00000140 		.word	1073807360
 1349              		.cfi_endproc
 1350              	.LFE130:
 1351              		.size	TIM_OC4Init, .-TIM_OC4Init
 1352 0074 AFF30080 		.section	.text.TIM_OCStructInit,"ax",%progbits
 1352      AFF30080 
 1352      AFF30080 
 1353              		.align	2
 1354              		.p2align 4,,15
 1355              		.global	TIM_OCStructInit
 1356              		.thumb
 1357              		.thumb_func
 1358              		.type	TIM_OCStructInit, %function
 1359              	TIM_OCStructInit:
 1360              	.LFB131:
 1361              		.loc 1 983 0
 1362              		.cfi_startproc
 1363              		@ args = 0, pretend = 0, frame = 0
 1364              		@ frame_needed = 0, uses_anonymous_args = 0
 1365              		@ link register save eliminated.
 1366              	.LVL126:
 1367              		.loc 1 985 0
 1368 0000 0023     		movs	r3, #0
 1369 0002 0380     		strh	r3, [r0]	@ movhi
 1370              		.loc 1 986 0
 1371 0004 4380     		strh	r3, [r0, #2]	@ movhi
 1372              		.loc 1 987 0
 1373 0006 8380     		strh	r3, [r0, #4]	@ movhi
 1374              		.loc 1 988 0
 1375 0008 8360     		str	r3, [r0, #8]
 1376              		.loc 1 989 0
 1377 000a 8381     		strh	r3, [r0, #12]	@ movhi
 1378              		.loc 1 990 0
 1379 000c C381     		strh	r3, [r0, #14]	@ movhi
 1380              		.loc 1 991 0
 1381 000e 0382     		strh	r3, [r0, #16]	@ movhi
 1382              		.loc 1 992 0
 1383 0010 4382     		strh	r3, [r0, #18]	@ movhi
 1384 0012 7047     		bx	lr
 1385              		.cfi_endproc
 1386              	.LFE131:
 1387              		.size	TIM_OCStructInit, .-TIM_OCStructInit
 1388 0014 AFF30080 		.section	.text.TIM_SelectOCxM,"ax",%progbits
 1388      AFF30080 
 1388      AFF30080 
 1389              		.align	2
 1390              		.p2align 4,,15
 1391              		.global	TIM_SelectOCxM
 1392              		.thumb
 1393              		.thumb_func
ARM GAS  /tmp/cchgQdZS.s 			page 26


 1394              		.type	TIM_SelectOCxM, %function
 1395              	TIM_SelectOCxM:
 1396              	.LFB132:
 1397              		.loc 1 1019 0
 1398              		.cfi_startproc
 1399              		@ args = 0, pretend = 0, frame = 0
 1400              		@ frame_needed = 0, uses_anonymous_args = 0
 1401              		@ link register save eliminated.
 1402              	.LVL127:
 1403 0000 10B4     		push	{r4}
 1404              		.cfi_def_cfa_offset 4
 1405              		.cfi_offset 4, -4
 1406              		.loc 1 1031 0
 1407 0002 0124     		movs	r4, #1
 1408 0004 8C40     		lsls	r4, r4, r1
 1409              		.loc 1 1034 0
 1410 0006 036A     		ldr	r3, [r0, #32]
 1411 0008 E443     		mvns	r4, r4
 1412 000a A4B2     		uxth	r4, r4
 1413 000c 1C40     		ands	r4, r4, r3
 1414              		.loc 1 1036 0
 1415 000e 21F00803 		bic	r3, r1, #8
 1416              		.loc 1 1034 0
 1417 0012 0462     		str	r4, [r0, #32]
 1418              		.loc 1 1029 0
 1419 0014 1830     		adds	r0, r0, #24
 1420              	.LVL128:
 1421              		.loc 1 1036 0
 1422 0016 7BB1     		cbz	r3, .L96
 1423              	.LVL129:
 1424              		.loc 1 1048 0
 1425 0018 0439     		subs	r1, r1, #4
 1426              	.LVL130:
 1427 001a C1F34E01 		ubfx	r1, r1, #1, #15
 1428              	.LVL131:
 1429              		.loc 1 1051 0
 1430 001e 48F6FF73 		movw	r3, #36863
 1431 0022 0C58     		ldr	r4, [r1, r0]
 1432 0024 2340     		ands	r3, r3, r4
 1433 0026 0B50     		str	r3, [r1, r0]
 1434              		.loc 1 1054 0
 1435 0028 1202     		lsls	r2, r2, #8
 1436              	.LVL132:
 1437 002a 0B58     		ldr	r3, [r1, r0]
 1438              		.loc 1 1056 0
 1439 002c 5DF8044B 		ldr	r4, [sp], #4
 1440              		.loc 1 1054 0
 1441 0030 92B2     		uxth	r2, r2
 1442 0032 1A43     		orrs	r2, r2, r3
 1443 0034 0A50     		str	r2, [r1, r0]
 1444              		.loc 1 1056 0
 1445 0036 7047     		bx	lr
 1446              	.LVL133:
 1447              	.L96:
 1448              		.loc 1 1038 0
 1449 0038 4908     		lsrs	r1, r1, #1
 1450              	.LVL134:
ARM GAS  /tmp/cchgQdZS.s 			page 27


 1451              		.loc 1 1041 0
 1452 003a 4FF68F73 		movw	r3, #65423
 1453 003e 4458     		ldr	r4, [r0, r1]
 1454 0040 2340     		ands	r3, r3, r4
 1455 0042 4350     		str	r3, [r0, r1]
 1456              		.loc 1 1044 0
 1457 0044 4358     		ldr	r3, [r0, r1]
 1458              		.loc 1 1056 0
 1459 0046 5DF8044B 		ldr	r4, [sp], #4
 1460              		.loc 1 1044 0
 1461 004a 1A43     		orrs	r2, r2, r3
 1462              	.LVL135:
 1463 004c 4250     		str	r2, [r0, r1]
 1464              		.loc 1 1056 0
 1465 004e 7047     		bx	lr
 1466              		.cfi_endproc
 1467              	.LFE132:
 1468              		.size	TIM_SelectOCxM, .-TIM_SelectOCxM
 1469              		.section	.text.TIM_SetCompare1,"ax",%progbits
 1470              		.align	2
 1471              		.p2align 4,,15
 1472              		.global	TIM_SetCompare1
 1473              		.thumb
 1474              		.thumb_func
 1475              		.type	TIM_SetCompare1, %function
 1476              	TIM_SetCompare1:
 1477              	.LFB133:
 1478              		.loc 1 1065 0
 1479              		.cfi_startproc
 1480              		@ args = 0, pretend = 0, frame = 0
 1481              		@ frame_needed = 0, uses_anonymous_args = 0
 1482              		@ link register save eliminated.
 1483              	.LVL136:
 1484              		.loc 1 1070 0
 1485 0000 4163     		str	r1, [r0, #52]
 1486 0002 7047     		bx	lr
 1487              		.cfi_endproc
 1488              	.LFE133:
 1489              		.size	TIM_SetCompare1, .-TIM_SetCompare1
 1490 0004 AFF30080 		.section	.text.TIM_SetCompare2,"ax",%progbits
 1490      AFF30080 
 1490      AFF30080 
 1491              		.align	2
 1492              		.p2align 4,,15
 1493              		.global	TIM_SetCompare2
 1494              		.thumb
 1495              		.thumb_func
 1496              		.type	TIM_SetCompare2, %function
 1497              	TIM_SetCompare2:
 1498              	.LFB134:
 1499              		.loc 1 1081 0
 1500              		.cfi_startproc
 1501              		@ args = 0, pretend = 0, frame = 0
 1502              		@ frame_needed = 0, uses_anonymous_args = 0
 1503              		@ link register save eliminated.
 1504              	.LVL137:
 1505              		.loc 1 1086 0
ARM GAS  /tmp/cchgQdZS.s 			page 28


 1506 0000 8163     		str	r1, [r0, #56]
 1507 0002 7047     		bx	lr
 1508              		.cfi_endproc
 1509              	.LFE134:
 1510              		.size	TIM_SetCompare2, .-TIM_SetCompare2
 1511 0004 AFF30080 		.section	.text.TIM_SetCompare3,"ax",%progbits
 1511      AFF30080 
 1511      AFF30080 
 1512              		.align	2
 1513              		.p2align 4,,15
 1514              		.global	TIM_SetCompare3
 1515              		.thumb
 1516              		.thumb_func
 1517              		.type	TIM_SetCompare3, %function
 1518              	TIM_SetCompare3:
 1519              	.LFB135:
 1520              		.loc 1 1096 0
 1521              		.cfi_startproc
 1522              		@ args = 0, pretend = 0, frame = 0
 1523              		@ frame_needed = 0, uses_anonymous_args = 0
 1524              		@ link register save eliminated.
 1525              	.LVL138:
 1526              		.loc 1 1101 0
 1527 0000 C163     		str	r1, [r0, #60]
 1528 0002 7047     		bx	lr
 1529              		.cfi_endproc
 1530              	.LFE135:
 1531              		.size	TIM_SetCompare3, .-TIM_SetCompare3
 1532 0004 AFF30080 		.section	.text.TIM_SetCompare4,"ax",%progbits
 1532      AFF30080 
 1532      AFF30080 
 1533              		.align	2
 1534              		.p2align 4,,15
 1535              		.global	TIM_SetCompare4
 1536              		.thumb
 1537              		.thumb_func
 1538              		.type	TIM_SetCompare4, %function
 1539              	TIM_SetCompare4:
 1540              	.LFB136:
 1541              		.loc 1 1111 0
 1542              		.cfi_startproc
 1543              		@ args = 0, pretend = 0, frame = 0
 1544              		@ frame_needed = 0, uses_anonymous_args = 0
 1545              		@ link register save eliminated.
 1546              	.LVL139:
 1547              		.loc 1 1116 0
 1548 0000 0164     		str	r1, [r0, #64]
 1549 0002 7047     		bx	lr
 1550              		.cfi_endproc
 1551              	.LFE136:
 1552              		.size	TIM_SetCompare4, .-TIM_SetCompare4
 1553 0004 AFF30080 		.section	.text.TIM_ForcedOC1Config,"ax",%progbits
 1553      AFF30080 
 1553      AFF30080 
 1554              		.align	2
 1555              		.p2align 4,,15
 1556              		.global	TIM_ForcedOC1Config
ARM GAS  /tmp/cchgQdZS.s 			page 29


 1557              		.thumb
 1558              		.thumb_func
 1559              		.type	TIM_ForcedOC1Config, %function
 1560              	TIM_ForcedOC1Config:
 1561              	.LFB137:
 1562              		.loc 1 1129 0
 1563              		.cfi_startproc
 1564              		@ args = 0, pretend = 0, frame = 0
 1565              		@ frame_needed = 0, uses_anonymous_args = 0
 1566              		@ link register save eliminated.
 1567              	.LVL140:
 1568              		.loc 1 1135 0
 1569 0000 8269     		ldr	r2, [r0, #24]
 1570              	.LVL141:
 1571              		.loc 1 1138 0
 1572 0002 4FF68F73 		movw	r3, #65423
 1573 0006 1340     		ands	r3, r3, r2
 1574              	.LVL142:
 1575              		.loc 1 1144 0
 1576 0008 1943     		orrs	r1, r1, r3
 1577              	.LVL143:
 1578 000a 8161     		str	r1, [r0, #24]
 1579 000c 7047     		bx	lr
 1580              		.cfi_endproc
 1581              	.LFE137:
 1582              		.size	TIM_ForcedOC1Config, .-TIM_ForcedOC1Config
 1583 000e 00BF     		.section	.text.TIM_ForcedOC2Config,"ax",%progbits
 1584              		.align	2
 1585              		.p2align 4,,15
 1586              		.global	TIM_ForcedOC2Config
 1587              		.thumb
 1588              		.thumb_func
 1589              		.type	TIM_ForcedOC2Config, %function
 1590              	TIM_ForcedOC2Config:
 1591              	.LFB138:
 1592              		.loc 1 1158 0
 1593              		.cfi_startproc
 1594              		@ args = 0, pretend = 0, frame = 0
 1595              		@ frame_needed = 0, uses_anonymous_args = 0
 1596              		@ link register save eliminated.
 1597              	.LVL144:
 1598              		.loc 1 1164 0
 1599 0000 8269     		ldr	r2, [r0, #24]
 1600              	.LVL145:
 1601              		.loc 1 1167 0
 1602 0002 48F6FF73 		movw	r3, #36863
 1603 0006 1340     		ands	r3, r3, r2
 1604              	.LVL146:
 1605              		.loc 1 1170 0
 1606 0008 43EA0121 		orr	r1, r3, r1, lsl #8
 1607              	.LVL147:
 1608              		.loc 1 1173 0
 1609 000c 8BB2     		uxth	r3, r1
 1610              	.LVL148:
 1611 000e 8361     		str	r3, [r0, #24]
 1612 0010 7047     		bx	lr
 1613              		.cfi_endproc
ARM GAS  /tmp/cchgQdZS.s 			page 30


 1614              	.LFE138:
 1615              		.size	TIM_ForcedOC2Config, .-TIM_ForcedOC2Config
 1616 0012 00BFAFF3 		.section	.text.TIM_ForcedOC3Config,"ax",%progbits
 1616      0080AFF3 
 1616      0080AFF3 
 1616      0080
 1617              		.align	2
 1618              		.p2align 4,,15
 1619              		.global	TIM_ForcedOC3Config
 1620              		.thumb
 1621              		.thumb_func
 1622              		.type	TIM_ForcedOC3Config, %function
 1623              	TIM_ForcedOC3Config:
 1624              	.LFB139:
 1625              		.loc 1 1186 0
 1626              		.cfi_startproc
 1627              		@ args = 0, pretend = 0, frame = 0
 1628              		@ frame_needed = 0, uses_anonymous_args = 0
 1629              		@ link register save eliminated.
 1630              	.LVL149:
 1631              		.loc 1 1193 0
 1632 0000 C269     		ldr	r2, [r0, #28]
 1633              	.LVL150:
 1634              		.loc 1 1196 0
 1635 0002 4FF68F73 		movw	r3, #65423
 1636 0006 1340     		ands	r3, r3, r2
 1637              	.LVL151:
 1638              		.loc 1 1202 0
 1639 0008 1943     		orrs	r1, r1, r3
 1640              	.LVL152:
 1641 000a C161     		str	r1, [r0, #28]
 1642 000c 7047     		bx	lr
 1643              		.cfi_endproc
 1644              	.LFE139:
 1645              		.size	TIM_ForcedOC3Config, .-TIM_ForcedOC3Config
 1646 000e 00BF     		.section	.text.TIM_ForcedOC4Config,"ax",%progbits
 1647              		.align	2
 1648              		.p2align 4,,15
 1649              		.global	TIM_ForcedOC4Config
 1650              		.thumb
 1651              		.thumb_func
 1652              		.type	TIM_ForcedOC4Config, %function
 1653              	TIM_ForcedOC4Config:
 1654              	.LFB140:
 1655              		.loc 1 1215 0
 1656              		.cfi_startproc
 1657              		@ args = 0, pretend = 0, frame = 0
 1658              		@ frame_needed = 0, uses_anonymous_args = 0
 1659              		@ link register save eliminated.
 1660              	.LVL153:
 1661              		.loc 1 1221 0
 1662 0000 C269     		ldr	r2, [r0, #28]
 1663              	.LVL154:
 1664              		.loc 1 1224 0
 1665 0002 48F6FF73 		movw	r3, #36863
 1666 0006 1340     		ands	r3, r3, r2
 1667              	.LVL155:
ARM GAS  /tmp/cchgQdZS.s 			page 31


 1668              		.loc 1 1227 0
 1669 0008 43EA0121 		orr	r1, r3, r1, lsl #8
 1670              	.LVL156:
 1671              		.loc 1 1230 0
 1672 000c 8BB2     		uxth	r3, r1
 1673              	.LVL157:
 1674 000e C361     		str	r3, [r0, #28]
 1675 0010 7047     		bx	lr
 1676              		.cfi_endproc
 1677              	.LFE140:
 1678              		.size	TIM_ForcedOC4Config, .-TIM_ForcedOC4Config
 1679 0012 00BFAFF3 		.section	.text.TIM_OC1PreloadConfig,"ax",%progbits
 1679      0080AFF3 
 1679      0080AFF3 
 1679      0080
 1680              		.align	2
 1681              		.p2align 4,,15
 1682              		.global	TIM_OC1PreloadConfig
 1683              		.thumb
 1684              		.thumb_func
 1685              		.type	TIM_OC1PreloadConfig, %function
 1686              	TIM_OC1PreloadConfig:
 1687              	.LFB141:
 1688              		.loc 1 1243 0
 1689              		.cfi_startproc
 1690              		@ args = 0, pretend = 0, frame = 0
 1691              		@ frame_needed = 0, uses_anonymous_args = 0
 1692              		@ link register save eliminated.
 1693              	.LVL158:
 1694              		.loc 1 1250 0
 1695 0000 8269     		ldr	r2, [r0, #24]
 1696              	.LVL159:
 1697              		.loc 1 1253 0
 1698 0002 4FF6F773 		movw	r3, #65527
 1699 0006 1340     		ands	r3, r3, r2
 1700              	.LVL160:
 1701              		.loc 1 1259 0
 1702 0008 1943     		orrs	r1, r1, r3
 1703              	.LVL161:
 1704 000a 8161     		str	r1, [r0, #24]
 1705 000c 7047     		bx	lr
 1706              		.cfi_endproc
 1707              	.LFE141:
 1708              		.size	TIM_OC1PreloadConfig, .-TIM_OC1PreloadConfig
 1709 000e 00BF     		.section	.text.TIM_OC2PreloadConfig,"ax",%progbits
 1710              		.align	2
 1711              		.p2align 4,,15
 1712              		.global	TIM_OC2PreloadConfig
 1713              		.thumb
 1714              		.thumb_func
 1715              		.type	TIM_OC2PreloadConfig, %function
 1716              	TIM_OC2PreloadConfig:
 1717              	.LFB142:
 1718              		.loc 1 1273 0
 1719              		.cfi_startproc
 1720              		@ args = 0, pretend = 0, frame = 0
 1721              		@ frame_needed = 0, uses_anonymous_args = 0
ARM GAS  /tmp/cchgQdZS.s 			page 32


 1722              		@ link register save eliminated.
 1723              	.LVL162:
 1724              		.loc 1 1280 0
 1725 0000 8269     		ldr	r2, [r0, #24]
 1726              	.LVL163:
 1727              		.loc 1 1283 0
 1728 0002 4FF2FF73 		movw	r3, #63487
 1729 0006 1340     		ands	r3, r3, r2
 1730              	.LVL164:
 1731              		.loc 1 1286 0
 1732 0008 43EA0121 		orr	r1, r3, r1, lsl #8
 1733              	.LVL165:
 1734              		.loc 1 1289 0
 1735 000c 8BB2     		uxth	r3, r1
 1736              	.LVL166:
 1737 000e 8361     		str	r3, [r0, #24]
 1738 0010 7047     		bx	lr
 1739              		.cfi_endproc
 1740              	.LFE142:
 1741              		.size	TIM_OC2PreloadConfig, .-TIM_OC2PreloadConfig
 1742 0012 00BFAFF3 		.section	.text.TIM_OC3PreloadConfig,"ax",%progbits
 1742      0080AFF3 
 1742      0080AFF3 
 1742      0080
 1743              		.align	2
 1744              		.p2align 4,,15
 1745              		.global	TIM_OC3PreloadConfig
 1746              		.thumb
 1747              		.thumb_func
 1748              		.type	TIM_OC3PreloadConfig, %function
 1749              	TIM_OC3PreloadConfig:
 1750              	.LFB143:
 1751              		.loc 1 1302 0
 1752              		.cfi_startproc
 1753              		@ args = 0, pretend = 0, frame = 0
 1754              		@ frame_needed = 0, uses_anonymous_args = 0
 1755              		@ link register save eliminated.
 1756              	.LVL167:
 1757              		.loc 1 1309 0
 1758 0000 C269     		ldr	r2, [r0, #28]
 1759              	.LVL168:
 1760              		.loc 1 1312 0
 1761 0002 4FF6F773 		movw	r3, #65527
 1762 0006 1340     		ands	r3, r3, r2
 1763              	.LVL169:
 1764              		.loc 1 1318 0
 1765 0008 1943     		orrs	r1, r1, r3
 1766              	.LVL170:
 1767 000a C161     		str	r1, [r0, #28]
 1768 000c 7047     		bx	lr
 1769              		.cfi_endproc
 1770              	.LFE143:
 1771              		.size	TIM_OC3PreloadConfig, .-TIM_OC3PreloadConfig
 1772 000e 00BF     		.section	.text.TIM_OC4PreloadConfig,"ax",%progbits
 1773              		.align	2
 1774              		.p2align 4,,15
 1775              		.global	TIM_OC4PreloadConfig
ARM GAS  /tmp/cchgQdZS.s 			page 33


 1776              		.thumb
 1777              		.thumb_func
 1778              		.type	TIM_OC4PreloadConfig, %function
 1779              	TIM_OC4PreloadConfig:
 1780              	.LFB144:
 1781              		.loc 1 1331 0
 1782              		.cfi_startproc
 1783              		@ args = 0, pretend = 0, frame = 0
 1784              		@ frame_needed = 0, uses_anonymous_args = 0
 1785              		@ link register save eliminated.
 1786              	.LVL171:
 1787              		.loc 1 1338 0
 1788 0000 C269     		ldr	r2, [r0, #28]
 1789              	.LVL172:
 1790              		.loc 1 1341 0
 1791 0002 4FF2FF73 		movw	r3, #63487
 1792 0006 1340     		ands	r3, r3, r2
 1793              	.LVL173:
 1794              		.loc 1 1344 0
 1795 0008 43EA0121 		orr	r1, r3, r1, lsl #8
 1796              	.LVL174:
 1797              		.loc 1 1347 0
 1798 000c 8BB2     		uxth	r3, r1
 1799              	.LVL175:
 1800 000e C361     		str	r3, [r0, #28]
 1801 0010 7047     		bx	lr
 1802              		.cfi_endproc
 1803              	.LFE144:
 1804              		.size	TIM_OC4PreloadConfig, .-TIM_OC4PreloadConfig
 1805 0012 00BFAFF3 		.section	.text.TIM_OC1FastConfig,"ax",%progbits
 1805      0080AFF3 
 1805      0080AFF3 
 1805      0080
 1806              		.align	2
 1807              		.p2align 4,,15
 1808              		.global	TIM_OC1FastConfig
 1809              		.thumb
 1810              		.thumb_func
 1811              		.type	TIM_OC1FastConfig, %function
 1812              	TIM_OC1FastConfig:
 1813              	.LFB145:
 1814              		.loc 1 1360 0
 1815              		.cfi_startproc
 1816              		@ args = 0, pretend = 0, frame = 0
 1817              		@ frame_needed = 0, uses_anonymous_args = 0
 1818              		@ link register save eliminated.
 1819              	.LVL176:
 1820              		.loc 1 1368 0
 1821 0000 8269     		ldr	r2, [r0, #24]
 1822              	.LVL177:
 1823              		.loc 1 1371 0
 1824 0002 4FF6FB73 		movw	r3, #65531
 1825 0006 1340     		ands	r3, r3, r2
 1826              	.LVL178:
 1827              		.loc 1 1377 0
 1828 0008 1943     		orrs	r1, r1, r3
 1829              	.LVL179:
ARM GAS  /tmp/cchgQdZS.s 			page 34


 1830 000a 8161     		str	r1, [r0, #24]
 1831 000c 7047     		bx	lr
 1832              		.cfi_endproc
 1833              	.LFE145:
 1834              		.size	TIM_OC1FastConfig, .-TIM_OC1FastConfig
 1835 000e 00BF     		.section	.text.TIM_OC2FastConfig,"ax",%progbits
 1836              		.align	2
 1837              		.p2align 4,,15
 1838              		.global	TIM_OC2FastConfig
 1839              		.thumb
 1840              		.thumb_func
 1841              		.type	TIM_OC2FastConfig, %function
 1842              	TIM_OC2FastConfig:
 1843              	.LFB146:
 1844              		.loc 1 1391 0
 1845              		.cfi_startproc
 1846              		@ args = 0, pretend = 0, frame = 0
 1847              		@ frame_needed = 0, uses_anonymous_args = 0
 1848              		@ link register save eliminated.
 1849              	.LVL180:
 1850              		.loc 1 1399 0
 1851 0000 8269     		ldr	r2, [r0, #24]
 1852              	.LVL181:
 1853              		.loc 1 1402 0
 1854 0002 4FF6FF33 		movw	r3, #64511
 1855 0006 1340     		ands	r3, r3, r2
 1856              	.LVL182:
 1857              		.loc 1 1405 0
 1858 0008 43EA0121 		orr	r1, r3, r1, lsl #8
 1859              	.LVL183:
 1860              		.loc 1 1408 0
 1861 000c 8BB2     		uxth	r3, r1
 1862              	.LVL184:
 1863 000e 8361     		str	r3, [r0, #24]
 1864 0010 7047     		bx	lr
 1865              		.cfi_endproc
 1866              	.LFE146:
 1867              		.size	TIM_OC2FastConfig, .-TIM_OC2FastConfig
 1868 0012 00BFAFF3 		.section	.text.TIM_OC3FastConfig,"ax",%progbits
 1868      0080AFF3 
 1868      0080AFF3 
 1868      0080
 1869              		.align	2
 1870              		.p2align 4,,15
 1871              		.global	TIM_OC3FastConfig
 1872              		.thumb
 1873              		.thumb_func
 1874              		.type	TIM_OC3FastConfig, %function
 1875              	TIM_OC3FastConfig:
 1876              	.LFB147:
 1877              		.loc 1 1421 0
 1878              		.cfi_startproc
 1879              		@ args = 0, pretend = 0, frame = 0
 1880              		@ frame_needed = 0, uses_anonymous_args = 0
 1881              		@ link register save eliminated.
 1882              	.LVL185:
 1883              		.loc 1 1429 0
ARM GAS  /tmp/cchgQdZS.s 			page 35


 1884 0000 C269     		ldr	r2, [r0, #28]
 1885              	.LVL186:
 1886              		.loc 1 1432 0
 1887 0002 4FF6FB73 		movw	r3, #65531
 1888 0006 1340     		ands	r3, r3, r2
 1889              	.LVL187:
 1890              		.loc 1 1438 0
 1891 0008 1943     		orrs	r1, r1, r3
 1892              	.LVL188:
 1893 000a C161     		str	r1, [r0, #28]
 1894 000c 7047     		bx	lr
 1895              		.cfi_endproc
 1896              	.LFE147:
 1897              		.size	TIM_OC3FastConfig, .-TIM_OC3FastConfig
 1898 000e 00BF     		.section	.text.TIM_OC4FastConfig,"ax",%progbits
 1899              		.align	2
 1900              		.p2align 4,,15
 1901              		.global	TIM_OC4FastConfig
 1902              		.thumb
 1903              		.thumb_func
 1904              		.type	TIM_OC4FastConfig, %function
 1905              	TIM_OC4FastConfig:
 1906              	.LFB148:
 1907              		.loc 1 1451 0
 1908              		.cfi_startproc
 1909              		@ args = 0, pretend = 0, frame = 0
 1910              		@ frame_needed = 0, uses_anonymous_args = 0
 1911              		@ link register save eliminated.
 1912              	.LVL189:
 1913              		.loc 1 1459 0
 1914 0000 C269     		ldr	r2, [r0, #28]
 1915              	.LVL190:
 1916              		.loc 1 1462 0
 1917 0002 4FF6FF33 		movw	r3, #64511
 1918 0006 1340     		ands	r3, r3, r2
 1919              	.LVL191:
 1920              		.loc 1 1465 0
 1921 0008 43EA0121 		orr	r1, r3, r1, lsl #8
 1922              	.LVL192:
 1923              		.loc 1 1468 0
 1924 000c 8BB2     		uxth	r3, r1
 1925              	.LVL193:
 1926 000e C361     		str	r3, [r0, #28]
 1927 0010 7047     		bx	lr
 1928              		.cfi_endproc
 1929              	.LFE148:
 1930              		.size	TIM_OC4FastConfig, .-TIM_OC4FastConfig
 1931 0012 00BFAFF3 		.section	.text.TIM_ClearOC1Ref,"ax",%progbits
 1931      0080AFF3 
 1931      0080AFF3 
 1931      0080
 1932              		.align	2
 1933              		.p2align 4,,15
 1934              		.global	TIM_ClearOC1Ref
 1935              		.thumb
 1936              		.thumb_func
 1937              		.type	TIM_ClearOC1Ref, %function
ARM GAS  /tmp/cchgQdZS.s 			page 36


 1938              	TIM_ClearOC1Ref:
 1939              	.LFB149:
 1940              		.loc 1 1481 0
 1941              		.cfi_startproc
 1942              		@ args = 0, pretend = 0, frame = 0
 1943              		@ frame_needed = 0, uses_anonymous_args = 0
 1944              		@ link register save eliminated.
 1945              	.LVL194:
 1946              		.loc 1 1488 0
 1947 0000 8269     		ldr	r2, [r0, #24]
 1948              	.LVL195:
 1949              		.loc 1 1491 0
 1950 0002 4FF67F73 		movw	r3, #65407
 1951 0006 1340     		ands	r3, r3, r2
 1952              	.LVL196:
 1953              		.loc 1 1497 0
 1954 0008 1943     		orrs	r1, r1, r3
 1955              	.LVL197:
 1956 000a 8161     		str	r1, [r0, #24]
 1957 000c 7047     		bx	lr
 1958              		.cfi_endproc
 1959              	.LFE149:
 1960              		.size	TIM_ClearOC1Ref, .-TIM_ClearOC1Ref
 1961 000e 00BF     		.section	.text.TIM_ClearOC2Ref,"ax",%progbits
 1962              		.align	2
 1963              		.p2align 4,,15
 1964              		.global	TIM_ClearOC2Ref
 1965              		.thumb
 1966              		.thumb_func
 1967              		.type	TIM_ClearOC2Ref, %function
 1968              	TIM_ClearOC2Ref:
 1969              	.LFB150:
 1970              		.loc 1 1511 0
 1971              		.cfi_startproc
 1972              		@ args = 0, pretend = 0, frame = 0
 1973              		@ frame_needed = 0, uses_anonymous_args = 0
 1974              		@ link register save eliminated.
 1975              	.LVL198:
 1976              		.loc 1 1518 0
 1977 0000 8369     		ldr	r3, [r0, #24]
 1978              	.LVL199:
 1979              		.loc 1 1521 0
 1980 0002 C3F30E03 		ubfx	r3, r3, #0, #15
 1981              	.LVL200:
 1982              		.loc 1 1524 0
 1983 0006 43EA0121 		orr	r1, r3, r1, lsl #8
 1984              	.LVL201:
 1985              		.loc 1 1527 0
 1986 000a 8BB2     		uxth	r3, r1
 1987              	.LVL202:
 1988 000c 8361     		str	r3, [r0, #24]
 1989 000e 7047     		bx	lr
 1990              		.cfi_endproc
 1991              	.LFE150:
 1992              		.size	TIM_ClearOC2Ref, .-TIM_ClearOC2Ref
 1993              		.section	.text.TIM_ClearOC3Ref,"ax",%progbits
 1994              		.align	2
ARM GAS  /tmp/cchgQdZS.s 			page 37


 1995              		.p2align 4,,15
 1996              		.global	TIM_ClearOC3Ref
 1997              		.thumb
 1998              		.thumb_func
 1999              		.type	TIM_ClearOC3Ref, %function
 2000              	TIM_ClearOC3Ref:
 2001              	.LFB151:
 2002              		.loc 1 1540 0
 2003              		.cfi_startproc
 2004              		@ args = 0, pretend = 0, frame = 0
 2005              		@ frame_needed = 0, uses_anonymous_args = 0
 2006              		@ link register save eliminated.
 2007              	.LVL203:
 2008              		.loc 1 1547 0
 2009 0000 C269     		ldr	r2, [r0, #28]
 2010              	.LVL204:
 2011              		.loc 1 1550 0
 2012 0002 4FF67F73 		movw	r3, #65407
 2013 0006 1340     		ands	r3, r3, r2
 2014              	.LVL205:
 2015              		.loc 1 1556 0
 2016 0008 1943     		orrs	r1, r1, r3
 2017              	.LVL206:
 2018 000a C161     		str	r1, [r0, #28]
 2019 000c 7047     		bx	lr
 2020              		.cfi_endproc
 2021              	.LFE151:
 2022              		.size	TIM_ClearOC3Ref, .-TIM_ClearOC3Ref
 2023 000e 00BF     		.section	.text.TIM_ClearOC4Ref,"ax",%progbits
 2024              		.align	2
 2025              		.p2align 4,,15
 2026              		.global	TIM_ClearOC4Ref
 2027              		.thumb
 2028              		.thumb_func
 2029              		.type	TIM_ClearOC4Ref, %function
 2030              	TIM_ClearOC4Ref:
 2031              	.LFB152:
 2032              		.loc 1 1569 0
 2033              		.cfi_startproc
 2034              		@ args = 0, pretend = 0, frame = 0
 2035              		@ frame_needed = 0, uses_anonymous_args = 0
 2036              		@ link register save eliminated.
 2037              	.LVL207:
 2038              		.loc 1 1576 0
 2039 0000 C369     		ldr	r3, [r0, #28]
 2040              	.LVL208:
 2041              		.loc 1 1579 0
 2042 0002 C3F30E03 		ubfx	r3, r3, #0, #15
 2043              	.LVL209:
 2044              		.loc 1 1582 0
 2045 0006 43EA0121 		orr	r1, r3, r1, lsl #8
 2046              	.LVL210:
 2047              		.loc 1 1585 0
 2048 000a 8BB2     		uxth	r3, r1
 2049              	.LVL211:
 2050 000c C361     		str	r3, [r0, #28]
 2051 000e 7047     		bx	lr
ARM GAS  /tmp/cchgQdZS.s 			page 38


 2052              		.cfi_endproc
 2053              	.LFE152:
 2054              		.size	TIM_ClearOC4Ref, .-TIM_ClearOC4Ref
 2055              		.section	.text.TIM_OC1PolarityConfig,"ax",%progbits
 2056              		.align	2
 2057              		.p2align 4,,15
 2058              		.global	TIM_OC1PolarityConfig
 2059              		.thumb
 2060              		.thumb_func
 2061              		.type	TIM_OC1PolarityConfig, %function
 2062              	TIM_OC1PolarityConfig:
 2063              	.LFB153:
 2064              		.loc 1 1598 0
 2065              		.cfi_startproc
 2066              		@ args = 0, pretend = 0, frame = 0
 2067              		@ frame_needed = 0, uses_anonymous_args = 0
 2068              		@ link register save eliminated.
 2069              	.LVL212:
 2070              		.loc 1 1605 0
 2071 0000 026A     		ldr	r2, [r0, #32]
 2072              	.LVL213:
 2073              		.loc 1 1608 0
 2074 0002 4FF6FD73 		movw	r3, #65533
 2075 0006 1340     		ands	r3, r3, r2
 2076              	.LVL214:
 2077              		.loc 1 1612 0
 2078 0008 1943     		orrs	r1, r1, r3
 2079              	.LVL215:
 2080 000a 0162     		str	r1, [r0, #32]
 2081 000c 7047     		bx	lr
 2082              		.cfi_endproc
 2083              	.LFE153:
 2084              		.size	TIM_OC1PolarityConfig, .-TIM_OC1PolarityConfig
 2085 000e 00BF     		.section	.text.TIM_OC1NPolarityConfig,"ax",%progbits
 2086              		.align	2
 2087              		.p2align 4,,15
 2088              		.global	TIM_OC1NPolarityConfig
 2089              		.thumb
 2090              		.thumb_func
 2091              		.type	TIM_OC1NPolarityConfig, %function
 2092              	TIM_OC1NPolarityConfig:
 2093              	.LFB154:
 2094              		.loc 1 1625 0
 2095              		.cfi_startproc
 2096              		@ args = 0, pretend = 0, frame = 0
 2097              		@ frame_needed = 0, uses_anonymous_args = 0
 2098              		@ link register save eliminated.
 2099              	.LVL216:
 2100              		.loc 1 1631 0
 2101 0000 026A     		ldr	r2, [r0, #32]
 2102              	.LVL217:
 2103              		.loc 1 1634 0
 2104 0002 4FF6F773 		movw	r3, #65527
 2105 0006 1340     		ands	r3, r3, r2
 2106              	.LVL218:
 2107              		.loc 1 1638 0
 2108 0008 1943     		orrs	r1, r1, r3
ARM GAS  /tmp/cchgQdZS.s 			page 39


 2109              	.LVL219:
 2110 000a 0162     		str	r1, [r0, #32]
 2111 000c 7047     		bx	lr
 2112              		.cfi_endproc
 2113              	.LFE154:
 2114              		.size	TIM_OC1NPolarityConfig, .-TIM_OC1NPolarityConfig
 2115 000e 00BF     		.section	.text.TIM_OC2PolarityConfig,"ax",%progbits
 2116              		.align	2
 2117              		.p2align 4,,15
 2118              		.global	TIM_OC2PolarityConfig
 2119              		.thumb
 2120              		.thumb_func
 2121              		.type	TIM_OC2PolarityConfig, %function
 2122              	TIM_OC2PolarityConfig:
 2123              	.LFB155:
 2124              		.loc 1 1652 0
 2125              		.cfi_startproc
 2126              		@ args = 0, pretend = 0, frame = 0
 2127              		@ frame_needed = 0, uses_anonymous_args = 0
 2128              		@ link register save eliminated.
 2129              	.LVL220:
 2130              		.loc 1 1659 0
 2131 0000 026A     		ldr	r2, [r0, #32]
 2132              	.LVL221:
 2133              		.loc 1 1662 0
 2134 0002 4FF6DF73 		movw	r3, #65503
 2135 0006 1340     		ands	r3, r3, r2
 2136              	.LVL222:
 2137              		.loc 1 1663 0
 2138 0008 43EA0111 		orr	r1, r3, r1, lsl #4
 2139              	.LVL223:
 2140              		.loc 1 1666 0
 2141 000c 8BB2     		uxth	r3, r1
 2142              	.LVL224:
 2143 000e 0362     		str	r3, [r0, #32]
 2144 0010 7047     		bx	lr
 2145              		.cfi_endproc
 2146              	.LFE155:
 2147              		.size	TIM_OC2PolarityConfig, .-TIM_OC2PolarityConfig
 2148 0012 00BFAFF3 		.section	.text.TIM_OC2NPolarityConfig,"ax",%progbits
 2148      0080AFF3 
 2148      0080AFF3 
 2148      0080
 2149              		.align	2
 2150              		.p2align 4,,15
 2151              		.global	TIM_OC2NPolarityConfig
 2152              		.thumb
 2153              		.thumb_func
 2154              		.type	TIM_OC2NPolarityConfig, %function
 2155              	TIM_OC2NPolarityConfig:
 2156              	.LFB156:
 2157              		.loc 1 1679 0
 2158              		.cfi_startproc
 2159              		@ args = 0, pretend = 0, frame = 0
 2160              		@ frame_needed = 0, uses_anonymous_args = 0
 2161              		@ link register save eliminated.
 2162              	.LVL225:
ARM GAS  /tmp/cchgQdZS.s 			page 40


 2163              		.loc 1 1686 0
 2164 0000 026A     		ldr	r2, [r0, #32]
 2165              	.LVL226:
 2166              		.loc 1 1689 0
 2167 0002 4FF67F73 		movw	r3, #65407
 2168 0006 1340     		ands	r3, r3, r2
 2169              	.LVL227:
 2170              		.loc 1 1690 0
 2171 0008 43EA0111 		orr	r1, r3, r1, lsl #4
 2172              	.LVL228:
 2173              		.loc 1 1693 0
 2174 000c 8BB2     		uxth	r3, r1
 2175              	.LVL229:
 2176 000e 0362     		str	r3, [r0, #32]
 2177 0010 7047     		bx	lr
 2178              		.cfi_endproc
 2179              	.LFE156:
 2180              		.size	TIM_OC2NPolarityConfig, .-TIM_OC2NPolarityConfig
 2181 0012 00BFAFF3 		.section	.text.TIM_OC3PolarityConfig,"ax",%progbits
 2181      0080AFF3 
 2181      0080AFF3 
 2181      0080
 2182              		.align	2
 2183              		.p2align 4,,15
 2184              		.global	TIM_OC3PolarityConfig
 2185              		.thumb
 2186              		.thumb_func
 2187              		.type	TIM_OC3PolarityConfig, %function
 2188              	TIM_OC3PolarityConfig:
 2189              	.LFB157:
 2190              		.loc 1 1706 0
 2191              		.cfi_startproc
 2192              		@ args = 0, pretend = 0, frame = 0
 2193              		@ frame_needed = 0, uses_anonymous_args = 0
 2194              		@ link register save eliminated.
 2195              	.LVL230:
 2196              		.loc 1 1713 0
 2197 0000 026A     		ldr	r2, [r0, #32]
 2198              	.LVL231:
 2199              		.loc 1 1716 0
 2200 0002 4FF6FF53 		movw	r3, #65023
 2201 0006 1340     		ands	r3, r3, r2
 2202              	.LVL232:
 2203              		.loc 1 1717 0
 2204 0008 43EA0121 		orr	r1, r3, r1, lsl #8
 2205              	.LVL233:
 2206              		.loc 1 1720 0
 2207 000c 8BB2     		uxth	r3, r1
 2208              	.LVL234:
 2209 000e 0362     		str	r3, [r0, #32]
 2210 0010 7047     		bx	lr
 2211              		.cfi_endproc
 2212              	.LFE157:
 2213              		.size	TIM_OC3PolarityConfig, .-TIM_OC3PolarityConfig
 2214 0012 00BFAFF3 		.section	.text.TIM_OC3NPolarityConfig,"ax",%progbits
 2214      0080AFF3 
 2214      0080AFF3 
ARM GAS  /tmp/cchgQdZS.s 			page 41


 2214      0080
 2215              		.align	2
 2216              		.p2align 4,,15
 2217              		.global	TIM_OC3NPolarityConfig
 2218              		.thumb
 2219              		.thumb_func
 2220              		.type	TIM_OC3NPolarityConfig, %function
 2221              	TIM_OC3NPolarityConfig:
 2222              	.LFB158:
 2223              		.loc 1 1733 0
 2224              		.cfi_startproc
 2225              		@ args = 0, pretend = 0, frame = 0
 2226              		@ frame_needed = 0, uses_anonymous_args = 0
 2227              		@ link register save eliminated.
 2228              	.LVL235:
 2229              		.loc 1 1740 0
 2230 0000 026A     		ldr	r2, [r0, #32]
 2231              	.LVL236:
 2232              		.loc 1 1743 0
 2233 0002 4FF2FF73 		movw	r3, #63487
 2234 0006 1340     		ands	r3, r3, r2
 2235              	.LVL237:
 2236              		.loc 1 1744 0
 2237 0008 43EA0121 		orr	r1, r3, r1, lsl #8
 2238              	.LVL238:
 2239              		.loc 1 1747 0
 2240 000c 8BB2     		uxth	r3, r1
 2241              	.LVL239:
 2242 000e 0362     		str	r3, [r0, #32]
 2243 0010 7047     		bx	lr
 2244              		.cfi_endproc
 2245              	.LFE158:
 2246              		.size	TIM_OC3NPolarityConfig, .-TIM_OC3NPolarityConfig
 2247 0012 00BFAFF3 		.section	.text.TIM_OC4PolarityConfig,"ax",%progbits
 2247      0080AFF3 
 2247      0080AFF3 
 2247      0080
 2248              		.align	2
 2249              		.p2align 4,,15
 2250              		.global	TIM_OC4PolarityConfig
 2251              		.thumb
 2252              		.thumb_func
 2253              		.type	TIM_OC4PolarityConfig, %function
 2254              	TIM_OC4PolarityConfig:
 2255              	.LFB159:
 2256              		.loc 1 1760 0
 2257              		.cfi_startproc
 2258              		@ args = 0, pretend = 0, frame = 0
 2259              		@ frame_needed = 0, uses_anonymous_args = 0
 2260              		@ link register save eliminated.
 2261              	.LVL240:
 2262              		.loc 1 1767 0
 2263 0000 026A     		ldr	r2, [r0, #32]
 2264              	.LVL241:
 2265              		.loc 1 1770 0
 2266 0002 4DF6FF73 		movw	r3, #57343
 2267 0006 1340     		ands	r3, r3, r2
ARM GAS  /tmp/cchgQdZS.s 			page 42


 2268              	.LVL242:
 2269              		.loc 1 1771 0
 2270 0008 43EA0131 		orr	r1, r3, r1, lsl #12
 2271              	.LVL243:
 2272              		.loc 1 1774 0
 2273 000c 8BB2     		uxth	r3, r1
 2274              	.LVL244:
 2275 000e 0362     		str	r3, [r0, #32]
 2276 0010 7047     		bx	lr
 2277              		.cfi_endproc
 2278              	.LFE159:
 2279              		.size	TIM_OC4PolarityConfig, .-TIM_OC4PolarityConfig
 2280 0012 00BFAFF3 		.section	.text.TIM_CCxCmd,"ax",%progbits
 2280      0080AFF3 
 2280      0080AFF3 
 2280      0080
 2281              		.align	2
 2282              		.p2align 4,,15
 2283              		.global	TIM_CCxCmd
 2284              		.thumb
 2285              		.thumb_func
 2286              		.type	TIM_CCxCmd, %function
 2287              	TIM_CCxCmd:
 2288              	.LFB160:
 2289              		.loc 1 1791 0
 2290              		.cfi_startproc
 2291              		@ args = 0, pretend = 0, frame = 0
 2292              		@ frame_needed = 0, uses_anonymous_args = 0
 2293              		@ link register save eliminated.
 2294              	.LVL245:
 2295              		.loc 1 1799 0
 2296 0000 0123     		movs	r3, #1
 2297 0002 8B40     		lsls	r3, r3, r1
 2298              		.loc 1 1791 0
 2299 0004 10B4     		push	{r4}
 2300              		.cfi_def_cfa_offset 4
 2301              		.cfi_offset 4, -4
 2302              		.loc 1 1802 0
 2303 0006 DB43     		mvns	r3, r3
 2304 0008 046A     		ldr	r4, [r0, #32]
 2305 000a 9BB2     		uxth	r3, r3
 2306 000c 2340     		ands	r3, r3, r4
 2307 000e 0362     		str	r3, [r0, #32]
 2308              		.loc 1 1805 0
 2309 0010 036A     		ldr	r3, [r0, #32]
 2310              		.loc 1 1806 0
 2311 0012 5DF8044B 		ldr	r4, [sp], #4
 2312              		.loc 1 1805 0
 2313 0016 8A40     		lsls	r2, r2, r1
 2314              	.LVL246:
 2315 0018 91B2     		uxth	r1, r2
 2316              	.LVL247:
 2317 001a 1943     		orrs	r1, r1, r3
 2318 001c 0162     		str	r1, [r0, #32]
 2319              		.loc 1 1806 0
 2320 001e 7047     		bx	lr
 2321              		.cfi_endproc
ARM GAS  /tmp/cchgQdZS.s 			page 43


 2322              	.LFE160:
 2323              		.size	TIM_CCxCmd, .-TIM_CCxCmd
 2324              		.section	.text.TIM_CCxNCmd,"ax",%progbits
 2325              		.align	2
 2326              		.p2align 4,,15
 2327              		.global	TIM_CCxNCmd
 2328              		.thumb
 2329              		.thumb_func
 2330              		.type	TIM_CCxNCmd, %function
 2331              	TIM_CCxNCmd:
 2332              	.LFB161:
 2333              		.loc 1 1821 0
 2334              		.cfi_startproc
 2335              		@ args = 0, pretend = 0, frame = 0
 2336              		@ frame_needed = 0, uses_anonymous_args = 0
 2337              		@ link register save eliminated.
 2338              	.LVL248:
 2339              		.loc 1 1829 0
 2340 0000 0423     		movs	r3, #4
 2341 0002 8B40     		lsls	r3, r3, r1
 2342              		.loc 1 1821 0
 2343 0004 10B4     		push	{r4}
 2344              		.cfi_def_cfa_offset 4
 2345              		.cfi_offset 4, -4
 2346              		.loc 1 1832 0
 2347 0006 DB43     		mvns	r3, r3
 2348 0008 046A     		ldr	r4, [r0, #32]
 2349 000a 9BB2     		uxth	r3, r3
 2350 000c 2340     		ands	r3, r3, r4
 2351 000e 0362     		str	r3, [r0, #32]
 2352              		.loc 1 1835 0
 2353 0010 036A     		ldr	r3, [r0, #32]
 2354              		.loc 1 1836 0
 2355 0012 5DF8044B 		ldr	r4, [sp], #4
 2356              		.loc 1 1835 0
 2357 0016 8A40     		lsls	r2, r2, r1
 2358              	.LVL249:
 2359 0018 91B2     		uxth	r1, r2
 2360              	.LVL250:
 2361 001a 1943     		orrs	r1, r1, r3
 2362 001c 0162     		str	r1, [r0, #32]
 2363              		.loc 1 1836 0
 2364 001e 7047     		bx	lr
 2365              		.cfi_endproc
 2366              	.LFE161:
 2367              		.size	TIM_CCxNCmd, .-TIM_CCxNCmd
 2368              		.section	.text.TIM_ICInit,"ax",%progbits
 2369              		.align	2
 2370              		.p2align 4,,15
 2371              		.global	TIM_ICInit
 2372              		.thumb
 2373              		.thumb_func
 2374              		.type	TIM_ICInit, %function
 2375              	TIM_ICInit:
 2376              	.LFB162:
 2377              		.loc 1 1905 0
 2378              		.cfi_startproc
ARM GAS  /tmp/cchgQdZS.s 			page 44


 2379              		@ args = 0, pretend = 0, frame = 0
 2380              		@ frame_needed = 0, uses_anonymous_args = 0
 2381              		@ link register save eliminated.
 2382              	.LVL251:
 2383              		.loc 1 1913 0
 2384 0000 0B88     		ldrh	r3, [r1]
 2385              		.loc 1 1905 0
 2386 0002 F0B4     		push	{r4, r5, r6, r7}
 2387              		.cfi_def_cfa_offset 16
 2388              		.cfi_offset 4, -16
 2389              		.cfi_offset 5, -12
 2390              		.cfi_offset 6, -8
 2391              		.cfi_offset 7, -4
 2392              		.loc 1 1913 0
 2393 0004 002B     		cmp	r3, #0
 2394 0006 2ED0     		beq	.L131
 2395              		.loc 1 1922 0
 2396 0008 042B     		cmp	r3, #4
 2397 000a 51D0     		beq	.L132
 2398              		.loc 1 1932 0
 2399 000c 082B     		cmp	r3, #8
 2400 000e 78D0     		beq	.L133
 2401              	.LBB46:
 2402              	.LBB47:
 2403              		.loc 1 3338 0
 2404 0010 026A     		ldr	r2, [r0, #32]
 2405              	.LBE47:
 2406              	.LBE46:
 2407              		.loc 1 1946 0
 2408 0012 0B89     		ldrh	r3, [r1, #8]
 2409              	.LVL252:
 2410 0014 4E88     		ldrh	r6, [r1, #2]
 2411              	.LVL253:
 2412 0016 B1F804C0 		ldrh	ip, [r1, #4]
 2413              	.LVL254:
 2414              		.loc 1 1950 0
 2415 001a CC88     		ldrh	r4, [r1, #6]
 2416              	.LBB49:
 2417              	.LBB48:
 2418              		.loc 1 3338 0
 2419 001c 4EF6FF71 		movw	r1, #61439
 2420              	.LVL255:
 2421 0020 1140     		ands	r1, r1, r2
 2422 0022 0162     		str	r1, [r0, #32]
 2423              		.loc 1 3339 0
 2424 0024 C569     		ldr	r5, [r0, #28]
 2425              	.LVL256:
 2426              		.loc 1 3340 0
 2427 0026 076A     		ldr	r7, [r0, #32]
 2428              	.LVL257:
 2429              		.loc 1 3349 0
 2430 0028 45F6FF72 		movw	r2, #24575
 2431              		.loc 1 3345 0
 2432 002c 4FEA0C21 		lsl	r1, ip, #8
 2433              		.loc 1 3349 0
 2434 0030 3A40     		ands	r2, r2, r7
 2435              		.loc 1 3345 0
ARM GAS  /tmp/cchgQdZS.s 			page 45


 2436 0032 41EA0331 		orr	r1, r1, r3, lsl #12
 2437              		.loc 1 3350 0
 2438 0036 42EA0632 		orr	r2, r2, r6, lsl #12
 2439              		.loc 1 3344 0
 2440 003a 40F6FF43 		movw	r3, #3327
 2441              	.LVL258:
 2442              		.loc 1 3345 0
 2443 003e 89B2     		uxth	r1, r1
 2444              		.loc 1 3344 0
 2445 0040 2B40     		ands	r3, r3, r5
 2446              	.LVL259:
 2447              		.loc 1 3350 0
 2448 0042 42F48052 		orr	r2, r2, #4096
 2449              		.loc 1 3353 0
 2450 0046 0B43     		orrs	r3, r3, r1
 2451              	.LVL260:
 2452              		.loc 1 3354 0
 2453 0048 92B2     		uxth	r2, r2
 2454              		.loc 1 3353 0
 2455 004a C361     		str	r3, [r0, #28]
 2456              		.loc 1 3354 0
 2457 004c 0262     		str	r2, [r0, #32]
 2458              	.LBE48:
 2459              	.LBE49:
 2460              	.LBB50:
 2461              	.LBB51:
 2462              		.loc 1 2179 0
 2463 004e C269     		ldr	r2, [r0, #28]
 2464 0050 4FF2FF33 		movw	r3, #62463
 2465 0054 1340     		ands	r3, r3, r2
 2466 0056 C361     		str	r3, [r0, #28]
 2467              		.loc 1 2182 0
 2468 0058 C269     		ldr	r2, [r0, #28]
 2469 005a 2302     		lsls	r3, r4, #8
 2470 005c 9BB2     		uxth	r3, r3
 2471 005e 1343     		orrs	r3, r3, r2
 2472 0060 C361     		str	r3, [r0, #28]
 2473              	.LVL261:
 2474              	.L126:
 2475              	.LBE51:
 2476              	.LBE50:
 2477              		.loc 1 1952 0
 2478 0062 F0BC     		pop	{r4, r5, r6, r7}
 2479 0064 7047     		bx	lr
 2480              	.LVL262:
 2481              	.L131:
 2482              	.LBB52:
 2483              	.LBB53:
 2484              		.loc 1 3214 0
 2485 0066 036A     		ldr	r3, [r0, #32]
 2486              	.LBE53:
 2487              	.LBE52:
 2488              		.loc 1 1916 0
 2489 0068 4F88     		ldrh	r7, [r1, #2]
 2490              		.loc 1 1920 0
 2491 006a CC88     		ldrh	r4, [r1, #6]
 2492              		.loc 1 1916 0
ARM GAS  /tmp/cchgQdZS.s 			page 46


 2493 006c 8E88     		ldrh	r6, [r1, #4]
 2494 006e B1F808C0 		ldrh	ip, [r1, #8]
 2495              	.LVL263:
 2496              	.LBB55:
 2497              	.LBB54:
 2498              		.loc 1 3214 0
 2499 0072 4FF6FE71 		movw	r1, #65534
 2500              	.LVL264:
 2501 0076 1940     		ands	r1, r1, r3
 2502 0078 0162     		str	r1, [r0, #32]
 2503              		.loc 1 3215 0
 2504 007a 8369     		ldr	r3, [r0, #24]
 2505              	.LVL265:
 2506              		.loc 1 3216 0
 2507 007c 056A     		ldr	r5, [r0, #32]
 2508              	.LVL266:
 2509              		.loc 1 3219 0
 2510 007e 4FF60C72 		movw	r2, #65292
 2511              		.loc 1 3220 0
 2512 0082 46EA0C16 		orr	r6, r6, ip, lsl #4
 2513              	.LVL267:
 2514              		.loc 1 3219 0
 2515 0086 1A40     		ands	r2, r2, r3
 2516              	.LVL268:
 2517              		.loc 1 3223 0
 2518 0088 4FF6F573 		movw	r3, #65525
 2519              		.loc 1 3224 0
 2520 008c 47F00101 		orr	r1, r7, #1
 2521              		.loc 1 3220 0
 2522 0090 3243     		orrs	r2, r2, r6
 2523              	.LVL269:
 2524              		.loc 1 3223 0
 2525 0092 2B40     		ands	r3, r3, r5
 2526              	.LVL270:
 2527              		.loc 1 3227 0
 2528 0094 92B2     		uxth	r2, r2
 2529              		.loc 1 3228 0
 2530 0096 0B43     		orrs	r3, r3, r1
 2531              	.LVL271:
 2532              		.loc 1 3227 0
 2533 0098 8261     		str	r2, [r0, #24]
 2534              		.loc 1 3228 0
 2535 009a 0362     		str	r3, [r0, #32]
 2536              	.LBE54:
 2537              	.LBE55:
 2538              	.LBB56:
 2539              	.LBB57:
 2540              		.loc 1 2106 0
 2541 009c 8269     		ldr	r2, [r0, #24]
 2542 009e 4FF6F373 		movw	r3, #65523
 2543 00a2 1340     		ands	r3, r3, r2
 2544 00a4 8361     		str	r3, [r0, #24]
 2545              		.loc 1 2109 0
 2546 00a6 8369     		ldr	r3, [r0, #24]
 2547 00a8 2343     		orrs	r3, r3, r4
 2548 00aa 8361     		str	r3, [r0, #24]
 2549              	.LBE57:
ARM GAS  /tmp/cchgQdZS.s 			page 47


 2550              	.LBE56:
 2551              		.loc 1 1952 0
 2552 00ac F0BC     		pop	{r4, r5, r6, r7}
 2553              	.LVL272:
 2554 00ae 7047     		bx	lr
 2555              	.LVL273:
 2556              	.L132:
 2557              	.LBB58:
 2558              	.LBB59:
 2559              		.loc 1 3255 0
 2560 00b0 026A     		ldr	r2, [r0, #32]
 2561              	.LBE59:
 2562              	.LBE58:
 2563              		.loc 1 1926 0
 2564 00b2 4E88     		ldrh	r6, [r1, #2]
 2565 00b4 8F88     		ldrh	r7, [r1, #4]
 2566 00b6 0C89     		ldrh	r4, [r1, #8]
 2567              	.LVL274:
 2568              		.loc 1 1930 0
 2569 00b8 C988     		ldrh	r1, [r1, #6]
 2570              	.LVL275:
 2571              	.LBB61:
 2572              	.LBB60:
 2573              		.loc 1 3255 0
 2574 00ba 4FF6EF73 		movw	r3, #65519
 2575 00be 1340     		ands	r3, r3, r2
 2576 00c0 0362     		str	r3, [r0, #32]
 2577              		.loc 1 3256 0
 2578 00c2 8569     		ldr	r5, [r0, #24]
 2579              	.LVL276:
 2580              		.loc 1 3257 0
 2581 00c4 036A     		ldr	r3, [r0, #32]
 2582              	.LVL277:
 2583              		.loc 1 3266 0
 2584 00c6 4FF65F72 		movw	r2, #65375
 2585 00ca 1A40     		ands	r2, r2, r3
 2586              		.loc 1 3262 0
 2587 00cc 2403     		lsls	r4, r4, #12
 2588              	.LVL278:
 2589 00ce 44EA0724 		orr	r4, r4, r7, lsl #8
 2590              		.loc 1 3267 0
 2591 00d2 42EA0612 		orr	r2, r2, r6, lsl #4
 2592              		.loc 1 3261 0
 2593 00d6 40F6FF43 		movw	r3, #3327
 2594              	.LVL279:
 2595              		.loc 1 3262 0
 2596 00da A4B2     		uxth	r4, r4
 2597              		.loc 1 3261 0
 2598 00dc 2B40     		ands	r3, r3, r5
 2599              	.LVL280:
 2600              		.loc 1 3267 0
 2601 00de 42F01002 		orr	r2, r2, #16
 2602              		.loc 1 3270 0
 2603 00e2 2343     		orrs	r3, r3, r4
 2604              	.LVL281:
 2605              		.loc 1 3271 0
 2606 00e4 92B2     		uxth	r2, r2
ARM GAS  /tmp/cchgQdZS.s 			page 48


 2607              		.loc 1 3270 0
 2608 00e6 8361     		str	r3, [r0, #24]
 2609              		.loc 1 3271 0
 2610 00e8 0262     		str	r2, [r0, #32]
 2611              	.LBE60:
 2612              	.LBE61:
 2613              	.LBB62:
 2614              	.LBB63:
 2615              		.loc 1 2131 0
 2616 00ea 8269     		ldr	r2, [r0, #24]
 2617 00ec 4FF2FF33 		movw	r3, #62463
 2618 00f0 1340     		ands	r3, r3, r2
 2619 00f2 8361     		str	r3, [r0, #24]
 2620              		.loc 1 2134 0
 2621 00f4 8269     		ldr	r2, [r0, #24]
 2622 00f6 0B02     		lsls	r3, r1, #8
 2623 00f8 9BB2     		uxth	r3, r3
 2624 00fa 1343     		orrs	r3, r3, r2
 2625 00fc 8361     		str	r3, [r0, #24]
 2626              	.LBE63:
 2627              	.LBE62:
 2628              		.loc 1 1952 0
 2629 00fe F0BC     		pop	{r4, r5, r6, r7}
 2630              	.LVL282:
 2631 0100 7047     		bx	lr
 2632              	.LVL283:
 2633              	.L133:
 2634              	.LBB64:
 2635              	.LBB65:
 2636              		.loc 1 3297 0
 2637 0102 036A     		ldr	r3, [r0, #32]
 2638              	.LBE65:
 2639              	.LBE64:
 2640              		.loc 1 1936 0
 2641 0104 4D88     		ldrh	r5, [r1, #2]
 2642 0106 8F88     		ldrh	r7, [r1, #4]
 2643 0108 B1F808C0 		ldrh	ip, [r1, #8]
 2644              	.LVL284:
 2645              		.loc 1 1940 0
 2646 010c CC88     		ldrh	r4, [r1, #6]
 2647              	.LBB67:
 2648              	.LBB66:
 2649              		.loc 1 3297 0
 2650 010e 4FF6FF61 		movw	r1, #65279
 2651              	.LVL285:
 2652 0112 1940     		ands	r1, r1, r3
 2653 0114 0162     		str	r1, [r0, #32]
 2654              		.loc 1 3298 0
 2655 0116 C669     		ldr	r6, [r0, #28]
 2656              	.LVL286:
 2657              		.loc 1 3299 0
 2658 0118 016A     		ldr	r1, [r0, #32]
 2659              	.LVL287:
 2660              		.loc 1 3307 0
 2661 011a 4FF2FF52 		movw	r2, #62975
 2662 011e 0A40     		ands	r2, r2, r1
 2663              		.loc 1 3303 0
ARM GAS  /tmp/cchgQdZS.s 			page 49


 2664 0120 4FF60C73 		movw	r3, #65292
 2665              		.loc 1 3304 0
 2666 0124 47EA0C11 		orr	r1, r7, ip, lsl #4
 2667              	.LVL288:
 2668              		.loc 1 3303 0
 2669 0128 3340     		ands	r3, r3, r6
 2670              	.LVL289:
 2671              		.loc 1 3308 0
 2672 012a 42EA0522 		orr	r2, r2, r5, lsl #8
 2673              	.LVL290:
 2674              		.loc 1 3304 0
 2675 012e 0B43     		orrs	r3, r3, r1
 2676              	.LVL291:
 2677              		.loc 1 3308 0
 2678 0130 42F48072 		orr	r2, r2, #256
 2679              		.loc 1 3311 0
 2680 0134 9BB2     		uxth	r3, r3
 2681              		.loc 1 3312 0
 2682 0136 92B2     		uxth	r2, r2
 2683              		.loc 1 3311 0
 2684 0138 C361     		str	r3, [r0, #28]
 2685              		.loc 1 3312 0
 2686 013a 0262     		str	r2, [r0, #32]
 2687              	.LBE66:
 2688              	.LBE67:
 2689              	.LBB68:
 2690              	.LBB69:
 2691              		.loc 1 2155 0
 2692 013c C269     		ldr	r2, [r0, #28]
 2693 013e 4FF6F373 		movw	r3, #65523
 2694 0142 1340     		ands	r3, r3, r2
 2695 0144 C361     		str	r3, [r0, #28]
 2696              		.loc 1 2158 0
 2697 0146 C369     		ldr	r3, [r0, #28]
 2698 0148 2343     		orrs	r3, r3, r4
 2699 014a C361     		str	r3, [r0, #28]
 2700 014c 89E7     		b	.L126
 2701              	.LBE69:
 2702              	.LBE68:
 2703              		.cfi_endproc
 2704              	.LFE162:
 2705              		.size	TIM_ICInit, .-TIM_ICInit
 2706 014e 00BF     		.section	.text.TIM_ICStructInit,"ax",%progbits
 2707              		.align	2
 2708              		.p2align 4,,15
 2709              		.global	TIM_ICStructInit
 2710              		.thumb
 2711              		.thumb_func
 2712              		.type	TIM_ICStructInit, %function
 2713              	TIM_ICStructInit:
 2714              	.LFB163:
 2715              		.loc 1 1961 0
 2716              		.cfi_startproc
 2717              		@ args = 0, pretend = 0, frame = 0
 2718              		@ frame_needed = 0, uses_anonymous_args = 0
 2719              		@ link register save eliminated.
 2720              	.LVL292:
ARM GAS  /tmp/cchgQdZS.s 			page 50


 2721              		.loc 1 1963 0
 2722 0000 0023     		movs	r3, #0
 2723              		.loc 1 1965 0
 2724 0002 0122     		movs	r2, #1
 2725 0004 8280     		strh	r2, [r0, #4]	@ movhi
 2726              		.loc 1 1963 0
 2727 0006 0380     		strh	r3, [r0]	@ movhi
 2728              		.loc 1 1964 0
 2729 0008 4380     		strh	r3, [r0, #2]	@ movhi
 2730              		.loc 1 1966 0
 2731 000a C380     		strh	r3, [r0, #6]	@ movhi
 2732              		.loc 1 1967 0
 2733 000c 0381     		strh	r3, [r0, #8]	@ movhi
 2734 000e 7047     		bx	lr
 2735              		.cfi_endproc
 2736              	.LFE163:
 2737              		.size	TIM_ICStructInit, .-TIM_ICStructInit
 2738              		.section	.text.TIM_PWMIConfig,"ax",%progbits
 2739              		.align	2
 2740              		.p2align 4,,15
 2741              		.global	TIM_PWMIConfig
 2742              		.thumb
 2743              		.thumb_func
 2744              		.type	TIM_PWMIConfig, %function
 2745              	TIM_PWMIConfig:
 2746              	.LFB164:
 2747              		.loc 1 1980 0
 2748              		.cfi_startproc
 2749              		@ args = 0, pretend = 0, frame = 0
 2750              		@ frame_needed = 0, uses_anonymous_args = 0
 2751              		@ link register save eliminated.
 2752              	.LVL293:
 2753              		.loc 1 1988 0
 2754 0000 4B88     		ldrh	r3, [r1, #2]
 2755              		.loc 1 1997 0
 2756 0002 8A88     		ldrh	r2, [r1, #4]
 2757              		.loc 1 1980 0
 2758 0004 2DE9F003 		push	{r4, r5, r6, r7, r8, r9}
 2759              		.cfi_def_cfa_offset 24
 2760              		.cfi_offset 4, -24
 2761              		.cfi_offset 5, -20
 2762              		.cfi_offset 6, -16
 2763              		.cfi_offset 7, -12
 2764              		.cfi_offset 8, -8
 2765              		.cfi_offset 9, -4
 2766              		.loc 1 1988 0
 2767 0008 002B     		cmp	r3, #0
 2768              		.loc 1 2005 0
 2769 000a 0C88     		ldrh	r4, [r1]
 2770              		.loc 1 1990 0
 2771 000c 14BF     		ite	ne
 2772 000e 0025     		movne	r5, #0
 2773 0010 0225     		moveq	r5, #2
 2774              	.LVL294:
 2775              		.loc 1 1997 0
 2776 0012 012A     		cmp	r2, #1
 2777              		.loc 1 1999 0
ARM GAS  /tmp/cchgQdZS.s 			page 51


 2778 0014 14BF     		ite	ne
 2779 0016 0126     		movne	r6, #1
 2780 0018 0226     		moveq	r6, #2
 2781              	.LVL295:
 2782              		.loc 1 2005 0
 2783 001a 002C     		cmp	r4, #0
 2784 001c 4BD0     		beq	.L142
 2785              	.LBB70:
 2786              	.LBB71:
 2787              		.loc 1 3255 0
 2788 001e 046A     		ldr	r4, [r0, #32]
 2789              	.LBE71:
 2790              	.LBE70:
 2791              		.loc 1 2020 0
 2792 0020 B1F808C0 		ldrh	ip, [r1, #8]
 2793              	.LVL296:
 2794              		.loc 1 2023 0
 2795 0024 CF88     		ldrh	r7, [r1, #6]
 2796              	.LBB73:
 2797              	.LBB72:
 2798              		.loc 1 3255 0
 2799 0026 4FF6EF71 		movw	r1, #65519
 2800              	.LVL297:
 2801 002a 2140     		ands	r1, r1, r4
 2802 002c 0162     		str	r1, [r0, #32]
 2803              		.loc 1 3256 0
 2804 002e D0F81880 		ldr	r8, [r0, #24]
 2805              	.LVL298:
 2806              		.loc 1 3257 0
 2807 0032 016A     		ldr	r1, [r0, #32]
 2808              	.LVL299:
 2809              		.loc 1 3266 0
 2810 0034 4FF65F74 		movw	r4, #65375
 2811              		.loc 1 3262 0
 2812 0038 4FEA0C39 		lsl	r9, ip, #12
 2813              		.loc 1 3266 0
 2814 003c 0C40     		ands	r4, r4, r1
 2815              		.loc 1 3262 0
 2816 003e 49EA0222 		orr	r2, r9, r2, lsl #8
 2817              	.LVL300:
 2818              		.loc 1 3267 0
 2819 0042 44EA0313 		orr	r3, r4, r3, lsl #4
 2820              	.LVL301:
 2821              		.loc 1 3261 0
 2822 0046 40F6FF41 		movw	r1, #3327
 2823              	.LVL302:
 2824 004a 08EA0101 		and	r1, r8, r1
 2825              	.LVL303:
 2826              		.loc 1 3262 0
 2827 004e 92B2     		uxth	r2, r2
 2828              	.LVL304:
 2829              		.loc 1 3267 0
 2830 0050 43F01003 		orr	r3, r3, #16
 2831              		.loc 1 3270 0
 2832 0054 1143     		orrs	r1, r1, r2
 2833              	.LVL305:
 2834              		.loc 1 3271 0
ARM GAS  /tmp/cchgQdZS.s 			page 52


 2835 0056 9BB2     		uxth	r3, r3
 2836              		.loc 1 3270 0
 2837 0058 8161     		str	r1, [r0, #24]
 2838              		.loc 1 3271 0
 2839 005a 0362     		str	r3, [r0, #32]
 2840              	.LBE72:
 2841              	.LBE73:
 2842              	.LBB74:
 2843              	.LBB75:
 2844              		.loc 1 2131 0
 2845 005c 8269     		ldr	r2, [r0, #24]
 2846              	.LVL306:
 2847 005e 4FF2FF33 		movw	r3, #62463
 2848 0062 1340     		ands	r3, r3, r2
 2849 0064 8361     		str	r3, [r0, #24]
 2850              		.loc 1 2134 0
 2851 0066 8269     		ldr	r2, [r0, #24]
 2852 0068 3B02     		lsls	r3, r7, #8
 2853 006a 9BB2     		uxth	r3, r3
 2854 006c 1343     		orrs	r3, r3, r2
 2855 006e 8361     		str	r3, [r0, #24]
 2856              	.LVL307:
 2857              	.LBE75:
 2858              	.LBE74:
 2859              	.LBB76:
 2860              	.LBB77:
 2861              		.loc 1 3214 0
 2862 0070 026A     		ldr	r2, [r0, #32]
 2863 0072 4FF6FE73 		movw	r3, #65534
 2864 0076 1340     		ands	r3, r3, r2
 2865 0078 0362     		str	r3, [r0, #32]
 2866              		.loc 1 3215 0
 2867 007a 8269     		ldr	r2, [r0, #24]
 2868              		.loc 1 3216 0
 2869 007c 036A     		ldr	r3, [r0, #32]
 2870              		.loc 1 3215 0
 2871 007e 92B2     		uxth	r2, r2
 2872              	.LVL308:
 2873              		.loc 1 3219 0
 2874 0080 22F0F302 		bic	r2, r2, #243
 2875              	.LVL309:
 2876              		.loc 1 3216 0
 2877 0084 9BB2     		uxth	r3, r3
 2878              	.LVL310:
 2879              		.loc 1 3220 0
 2880 0086 42EA0C1C 		orr	ip, r2, ip, lsl #4
 2881              	.LVL311:
 2882              		.loc 1 3223 0
 2883 008a 23F00A03 		bic	r3, r3, #10
 2884              	.LVL312:
 2885              		.loc 1 3224 0
 2886 008e 43F00103 		orr	r3, r3, #1
 2887              		.loc 1 3220 0
 2888 0092 1FFA8CFC 		uxth	ip, ip
 2889              	.LVL313:
 2890              		.loc 1 3228 0
 2891 0096 1D43     		orrs	r5, r5, r3
ARM GAS  /tmp/cchgQdZS.s 			page 53


 2892              	.LVL314:
 2893              		.loc 1 3227 0
 2894 0098 4CEA0606 		orr	r6, ip, r6
 2895              	.LVL315:
 2896 009c 8661     		str	r6, [r0, #24]
 2897              		.loc 1 3228 0
 2898 009e 0562     		str	r5, [r0, #32]
 2899              	.LVL316:
 2900              	.LBE77:
 2901              	.LBE76:
 2902              	.LBB78:
 2903              	.LBB79:
 2904              		.loc 1 2106 0
 2905 00a0 8269     		ldr	r2, [r0, #24]
 2906 00a2 4FF6F373 		movw	r3, #65523
 2907              	.LVL317:
 2908 00a6 1340     		ands	r3, r3, r2
 2909 00a8 8361     		str	r3, [r0, #24]
 2910              		.loc 1 2109 0
 2911 00aa 8369     		ldr	r3, [r0, #24]
 2912 00ac 1F43     		orrs	r7, r7, r3
 2913              	.LVL318:
 2914 00ae 8761     		str	r7, [r0, #24]
 2915              	.LBE79:
 2916              	.LBE78:
 2917              		.loc 1 2029 0
 2918 00b0 BDE8F003 		pop	{r4, r5, r6, r7, r8, r9}
 2919              	.LVL319:
 2920 00b4 7047     		bx	lr
 2921              	.LVL320:
 2922              	.L142:
 2923              	.LBB80:
 2924              	.LBB81:
 2925              		.loc 1 3214 0
 2926 00b6 046A     		ldr	r4, [r0, #32]
 2927              	.LBE81:
 2928              	.LBE80:
 2929              		.loc 1 2008 0
 2930 00b8 B1F808C0 		ldrh	ip, [r1, #8]
 2931              	.LVL321:
 2932              		.loc 1 2011 0
 2933 00bc CF88     		ldrh	r7, [r1, #6]
 2934              	.LBB83:
 2935              	.LBB82:
 2936              		.loc 1 3214 0
 2937 00be 4FF6FE71 		movw	r1, #65534
 2938              	.LVL322:
 2939 00c2 2140     		ands	r1, r1, r4
 2940 00c4 0162     		str	r1, [r0, #32]
 2941              		.loc 1 3215 0
 2942 00c6 D0F81890 		ldr	r9, [r0, #24]
 2943              	.LVL323:
 2944              		.loc 1 3216 0
 2945 00ca D0F82080 		ldr	r8, [r0, #32]
 2946              	.LVL324:
 2947              		.loc 1 3219 0
 2948 00ce 4FF60C74 		movw	r4, #65292
ARM GAS  /tmp/cchgQdZS.s 			page 54


 2949              		.loc 1 3220 0
 2950 00d2 42EA0C12 		orr	r2, r2, ip, lsl #4
 2951              	.LVL325:
 2952              		.loc 1 3219 0
 2953 00d6 09EA0404 		and	r4, r9, r4
 2954              	.LVL326:
 2955              		.loc 1 3223 0
 2956 00da 4FF6F571 		movw	r1, #65525
 2957              		.loc 1 3224 0
 2958 00de 43F00103 		orr	r3, r3, #1
 2959              	.LVL327:
 2960              		.loc 1 3223 0
 2961 00e2 08EA0101 		and	r1, r8, r1
 2962              	.LVL328:
 2963              		.loc 1 3220 0
 2964 00e6 1443     		orrs	r4, r4, r2
 2965              	.LVL329:
 2966              		.loc 1 3228 0
 2967 00e8 1943     		orrs	r1, r1, r3
 2968              	.LVL330:
 2969              		.loc 1 3227 0
 2970 00ea A4B2     		uxth	r4, r4
 2971 00ec 8461     		str	r4, [r0, #24]
 2972              		.loc 1 3228 0
 2973 00ee 0162     		str	r1, [r0, #32]
 2974              	.LBE82:
 2975              	.LBE83:
 2976              	.LBB84:
 2977              	.LBB85:
 2978              		.loc 1 2106 0
 2979 00f0 8369     		ldr	r3, [r0, #24]
 2980 00f2 4FF6F372 		movw	r2, #65523
 2981 00f6 1A40     		ands	r2, r2, r3
 2982 00f8 8261     		str	r2, [r0, #24]
 2983              		.loc 1 2109 0
 2984 00fa 8369     		ldr	r3, [r0, #24]
 2985 00fc 3B43     		orrs	r3, r3, r7
 2986 00fe 8361     		str	r3, [r0, #24]
 2987              	.LVL331:
 2988              	.LBE85:
 2989              	.LBE84:
 2990              	.LBB86:
 2991              	.LBB87:
 2992              		.loc 1 3255 0
 2993 0100 036A     		ldr	r3, [r0, #32]
 2994 0102 4FF6EF72 		movw	r2, #65519
 2995 0106 1A40     		ands	r2, r2, r3
 2996 0108 0262     		str	r2, [r0, #32]
 2997              		.loc 1 3256 0
 2998 010a 8169     		ldr	r1, [r0, #24]
 2999              	.LVL332:
 3000              		.loc 1 3257 0
 3001 010c 026A     		ldr	r2, [r0, #32]
 3002              		.loc 1 3261 0
 3003 010e 40F6FF43 		movw	r3, #3327
 3004 0112 0B40     		ands	r3, r3, r1
 3005              		.loc 1 3257 0
ARM GAS  /tmp/cchgQdZS.s 			page 55


 3006 0114 92B2     		uxth	r2, r2
 3007              	.LVL333:
 3008              		.loc 1 3262 0
 3009 0116 43EA0C33 		orr	r3, r3, ip, lsl #12
 3010              	.LVL334:
 3011              		.loc 1 3266 0
 3012 011a 22F0A002 		bic	r2, r2, #160
 3013              	.LVL335:
 3014              		.loc 1 3262 0
 3015 011e 9BB2     		uxth	r3, r3
 3016              	.LVL336:
 3017              		.loc 1 3267 0
 3018 0120 42F01002 		orr	r2, r2, #16
 3019              	.LVL337:
 3020              		.loc 1 3270 0
 3021 0124 43EA0626 		orr	r6, r3, r6, lsl #8
 3022              	.LVL338:
 3023              		.loc 1 3271 0
 3024 0128 42EA0515 		orr	r5, r2, r5, lsl #4
 3025              	.LVL339:
 3026              		.loc 1 3270 0
 3027 012c 8661     		str	r6, [r0, #24]
 3028              		.loc 1 3271 0
 3029 012e 0562     		str	r5, [r0, #32]
 3030              	.LVL340:
 3031              	.LBE87:
 3032              	.LBE86:
 3033              	.LBB88:
 3034              	.LBB89:
 3035              		.loc 1 2131 0
 3036 0130 8269     		ldr	r2, [r0, #24]
 3037              	.LVL341:
 3038 0132 4FF2FF33 		movw	r3, #62463
 3039              	.LVL342:
 3040 0136 1340     		ands	r3, r3, r2
 3041 0138 8361     		str	r3, [r0, #24]
 3042              		.loc 1 2134 0
 3043 013a 8369     		ldr	r3, [r0, #24]
 3044 013c 3F02     		lsls	r7, r7, #8
 3045              	.LVL343:
 3046 013e BFB2     		uxth	r7, r7
 3047 0140 1F43     		orrs	r7, r7, r3
 3048 0142 8761     		str	r7, [r0, #24]
 3049              	.LBE89:
 3050              	.LBE88:
 3051              		.loc 1 2029 0
 3052 0144 BDE8F003 		pop	{r4, r5, r6, r7, r8, r9}
 3053              	.LVL344:
 3054 0148 7047     		bx	lr
 3055              		.cfi_endproc
 3056              	.LFE164:
 3057              		.size	TIM_PWMIConfig, .-TIM_PWMIConfig
 3058 014a 00BFAFF3 		.section	.text.TIM_GetCapture1,"ax",%progbits
 3058      0080
 3059              		.align	2
 3060              		.p2align 4,,15
 3061              		.global	TIM_GetCapture1
ARM GAS  /tmp/cchgQdZS.s 			page 56


 3062              		.thumb
 3063              		.thumb_func
 3064              		.type	TIM_GetCapture1, %function
 3065              	TIM_GetCapture1:
 3066              	.LFB165:
 3067              		.loc 1 2037 0
 3068              		.cfi_startproc
 3069              		@ args = 0, pretend = 0, frame = 0
 3070              		@ frame_needed = 0, uses_anonymous_args = 0
 3071              		@ link register save eliminated.
 3072              	.LVL345:
 3073              		.loc 1 2042 0
 3074 0000 406B     		ldr	r0, [r0, #52]
 3075              	.LVL346:
 3076              		.loc 1 2043 0
 3077 0002 7047     		bx	lr
 3078              		.cfi_endproc
 3079              	.LFE165:
 3080              		.size	TIM_GetCapture1, .-TIM_GetCapture1
 3081 0004 AFF30080 		.section	.text.TIM_GetCapture2,"ax",%progbits
 3081      AFF30080 
 3081      AFF30080 
 3082              		.align	2
 3083              		.p2align 4,,15
 3084              		.global	TIM_GetCapture2
 3085              		.thumb
 3086              		.thumb_func
 3087              		.type	TIM_GetCapture2, %function
 3088              	TIM_GetCapture2:
 3089              	.LFB166:
 3090              		.loc 1 2052 0
 3091              		.cfi_startproc
 3092              		@ args = 0, pretend = 0, frame = 0
 3093              		@ frame_needed = 0, uses_anonymous_args = 0
 3094              		@ link register save eliminated.
 3095              	.LVL347:
 3096              		.loc 1 2057 0
 3097 0000 806B     		ldr	r0, [r0, #56]
 3098              	.LVL348:
 3099              		.loc 1 2058 0
 3100 0002 7047     		bx	lr
 3101              		.cfi_endproc
 3102              	.LFE166:
 3103              		.size	TIM_GetCapture2, .-TIM_GetCapture2
 3104 0004 AFF30080 		.section	.text.TIM_GetCapture3,"ax",%progbits
 3104      AFF30080 
 3104      AFF30080 
 3105              		.align	2
 3106              		.p2align 4,,15
 3107              		.global	TIM_GetCapture3
 3108              		.thumb
 3109              		.thumb_func
 3110              		.type	TIM_GetCapture3, %function
 3111              	TIM_GetCapture3:
 3112              	.LFB167:
 3113              		.loc 1 2066 0
 3114              		.cfi_startproc
ARM GAS  /tmp/cchgQdZS.s 			page 57


 3115              		@ args = 0, pretend = 0, frame = 0
 3116              		@ frame_needed = 0, uses_anonymous_args = 0
 3117              		@ link register save eliminated.
 3118              	.LVL349:
 3119              		.loc 1 2071 0
 3120 0000 C06B     		ldr	r0, [r0, #60]
 3121              	.LVL350:
 3122              		.loc 1 2072 0
 3123 0002 7047     		bx	lr
 3124              		.cfi_endproc
 3125              	.LFE167:
 3126              		.size	TIM_GetCapture3, .-TIM_GetCapture3
 3127 0004 AFF30080 		.section	.text.TIM_GetCapture4,"ax",%progbits
 3127      AFF30080 
 3127      AFF30080 
 3128              		.align	2
 3129              		.p2align 4,,15
 3130              		.global	TIM_GetCapture4
 3131              		.thumb
 3132              		.thumb_func
 3133              		.type	TIM_GetCapture4, %function
 3134              	TIM_GetCapture4:
 3135              	.LFB168:
 3136              		.loc 1 2080 0
 3137              		.cfi_startproc
 3138              		@ args = 0, pretend = 0, frame = 0
 3139              		@ frame_needed = 0, uses_anonymous_args = 0
 3140              		@ link register save eliminated.
 3141              	.LVL351:
 3142              		.loc 1 2085 0
 3143 0000 006C     		ldr	r0, [r0, #64]
 3144              	.LVL352:
 3145              		.loc 1 2086 0
 3146 0002 7047     		bx	lr
 3147              		.cfi_endproc
 3148              	.LFE168:
 3149              		.size	TIM_GetCapture4, .-TIM_GetCapture4
 3150 0004 AFF30080 		.section	.text.TIM_SetIC1Prescaler,"ax",%progbits
 3150      AFF30080 
 3150      AFF30080 
 3151              		.align	2
 3152              		.p2align 4,,15
 3153              		.global	TIM_SetIC1Prescaler
 3154              		.thumb
 3155              		.thumb_func
 3156              		.type	TIM_SetIC1Prescaler, %function
 3157              	TIM_SetIC1Prescaler:
 3158              	.LFB169:
 3159              		.loc 1 2100 0
 3160              		.cfi_startproc
 3161              		@ args = 0, pretend = 0, frame = 0
 3162              		@ frame_needed = 0, uses_anonymous_args = 0
 3163              		@ link register save eliminated.
 3164              	.LVL353:
 3165              		.loc 1 2106 0
 3166 0000 8269     		ldr	r2, [r0, #24]
 3167 0002 4FF6F373 		movw	r3, #65523
ARM GAS  /tmp/cchgQdZS.s 			page 58


 3168 0006 1340     		ands	r3, r3, r2
 3169 0008 8361     		str	r3, [r0, #24]
 3170              		.loc 1 2109 0
 3171 000a 8369     		ldr	r3, [r0, #24]
 3172 000c 1943     		orrs	r1, r1, r3
 3173              	.LVL354:
 3174 000e 8161     		str	r1, [r0, #24]
 3175 0010 7047     		bx	lr
 3176              		.cfi_endproc
 3177              	.LFE169:
 3178              		.size	TIM_SetIC1Prescaler, .-TIM_SetIC1Prescaler
 3179 0012 00BFAFF3 		.section	.text.TIM_SetIC2Prescaler,"ax",%progbits
 3179      0080AFF3 
 3179      0080AFF3 
 3179      0080
 3180              		.align	2
 3181              		.p2align 4,,15
 3182              		.global	TIM_SetIC2Prescaler
 3183              		.thumb
 3184              		.thumb_func
 3185              		.type	TIM_SetIC2Prescaler, %function
 3186              	TIM_SetIC2Prescaler:
 3187              	.LFB170:
 3188              		.loc 1 2125 0
 3189              		.cfi_startproc
 3190              		@ args = 0, pretend = 0, frame = 0
 3191              		@ frame_needed = 0, uses_anonymous_args = 0
 3192              		@ link register save eliminated.
 3193              	.LVL355:
 3194              		.loc 1 2131 0
 3195 0000 8269     		ldr	r2, [r0, #24]
 3196 0002 4FF2FF33 		movw	r3, #62463
 3197 0006 1340     		ands	r3, r3, r2
 3198 0008 8361     		str	r3, [r0, #24]
 3199              		.loc 1 2134 0
 3200 000a 8269     		ldr	r2, [r0, #24]
 3201 000c 0902     		lsls	r1, r1, #8
 3202              	.LVL356:
 3203 000e 8BB2     		uxth	r3, r1
 3204 0010 1343     		orrs	r3, r3, r2
 3205 0012 8361     		str	r3, [r0, #24]
 3206 0014 7047     		bx	lr
 3207              		.cfi_endproc
 3208              	.LFE170:
 3209              		.size	TIM_SetIC2Prescaler, .-TIM_SetIC2Prescaler
 3210 0016 00BFAFF3 		.section	.text.TIM_SetIC3Prescaler,"ax",%progbits
 3210      0080AFF3 
 3210      0080
 3211              		.align	2
 3212              		.p2align 4,,15
 3213              		.global	TIM_SetIC3Prescaler
 3214              		.thumb
 3215              		.thumb_func
 3216              		.type	TIM_SetIC3Prescaler, %function
 3217              	TIM_SetIC3Prescaler:
 3218              	.LFB171:
 3219              		.loc 1 2149 0
ARM GAS  /tmp/cchgQdZS.s 			page 59


 3220              		.cfi_startproc
 3221              		@ args = 0, pretend = 0, frame = 0
 3222              		@ frame_needed = 0, uses_anonymous_args = 0
 3223              		@ link register save eliminated.
 3224              	.LVL357:
 3225              		.loc 1 2155 0
 3226 0000 C269     		ldr	r2, [r0, #28]
 3227 0002 4FF6F373 		movw	r3, #65523
 3228 0006 1340     		ands	r3, r3, r2
 3229 0008 C361     		str	r3, [r0, #28]
 3230              		.loc 1 2158 0
 3231 000a C369     		ldr	r3, [r0, #28]
 3232 000c 1943     		orrs	r1, r1, r3
 3233              	.LVL358:
 3234 000e C161     		str	r1, [r0, #28]
 3235 0010 7047     		bx	lr
 3236              		.cfi_endproc
 3237              	.LFE171:
 3238              		.size	TIM_SetIC3Prescaler, .-TIM_SetIC3Prescaler
 3239 0012 00BFAFF3 		.section	.text.TIM_SetIC4Prescaler,"ax",%progbits
 3239      0080AFF3 
 3239      0080AFF3 
 3239      0080
 3240              		.align	2
 3241              		.p2align 4,,15
 3242              		.global	TIM_SetIC4Prescaler
 3243              		.thumb
 3244              		.thumb_func
 3245              		.type	TIM_SetIC4Prescaler, %function
 3246              	TIM_SetIC4Prescaler:
 3247              	.LFB172:
 3248              		.loc 1 2173 0
 3249              		.cfi_startproc
 3250              		@ args = 0, pretend = 0, frame = 0
 3251              		@ frame_needed = 0, uses_anonymous_args = 0
 3252              		@ link register save eliminated.
 3253              	.LVL359:
 3254              		.loc 1 2179 0
 3255 0000 C269     		ldr	r2, [r0, #28]
 3256 0002 4FF2FF33 		movw	r3, #62463
 3257 0006 1340     		ands	r3, r3, r2
 3258 0008 C361     		str	r3, [r0, #28]
 3259              		.loc 1 2182 0
 3260 000a C269     		ldr	r2, [r0, #28]
 3261 000c 0902     		lsls	r1, r1, #8
 3262              	.LVL360:
 3263 000e 8BB2     		uxth	r3, r1
 3264 0010 1343     		orrs	r3, r3, r2
 3265 0012 C361     		str	r3, [r0, #28]
 3266 0014 7047     		bx	lr
 3267              		.cfi_endproc
 3268              	.LFE172:
 3269              		.size	TIM_SetIC4Prescaler, .-TIM_SetIC4Prescaler
 3270 0016 00BFAFF3 		.section	.text.TIM_BDTRConfig,"ax",%progbits
 3270      0080AFF3 
 3270      0080
 3271              		.align	2
ARM GAS  /tmp/cchgQdZS.s 			page 60


 3272              		.p2align 4,,15
 3273              		.global	TIM_BDTRConfig
 3274              		.thumb
 3275              		.thumb_func
 3276              		.type	TIM_BDTRConfig, %function
 3277              	TIM_BDTRConfig:
 3278              	.LFB173:
 3279              		.loc 1 2226 0
 3280              		.cfi_startproc
 3281              		@ args = 0, pretend = 0, frame = 0
 3282              		@ frame_needed = 0, uses_anonymous_args = 0
 3283              		@ link register save eliminated.
 3284              	.LVL361:
 3285              		.loc 1 2240 0
 3286 0000 B1F802C0 		ldrh	ip, [r1, #2]
 3287 0004 0B88     		ldrh	r3, [r1]
 3288 0006 8A89     		ldrh	r2, [r1, #12]
 3289              		.loc 1 2226 0
 3290 0008 F0B4     		push	{r4, r5, r6, r7}
 3291              		.cfi_def_cfa_offset 16
 3292              		.cfi_offset 4, -16
 3293              		.cfi_offset 5, -12
 3294              		.cfi_offset 6, -8
 3295              		.cfi_offset 7, -4
 3296              		.loc 1 2240 0
 3297 000a 8F88     		ldrh	r7, [r1, #4]
 3298 000c CE88     		ldrh	r6, [r1, #6]
 3299 000e 0D89     		ldrh	r5, [r1, #8]
 3300 0010 4C89     		ldrh	r4, [r1, #10]
 3301 0012 4CEA0303 		orr	r3, ip, r3
 3302 0016 3B43     		orrs	r3, r3, r7
 3303 0018 3343     		orrs	r3, r3, r6
 3304 001a 2B43     		orrs	r3, r3, r5
 3305 001c 2343     		orrs	r3, r3, r4
 3306 001e 1343     		orrs	r3, r3, r2
 3307 0020 9BB2     		uxth	r3, r3
 3308              		.loc 1 2238 0
 3309 0022 4364     		str	r3, [r0, #68]
 3310              		.loc 1 2242 0
 3311 0024 F0BC     		pop	{r4, r5, r6, r7}
 3312 0026 7047     		bx	lr
 3313              		.cfi_endproc
 3314              	.LFE173:
 3315              		.size	TIM_BDTRConfig, .-TIM_BDTRConfig
 3316 0028 AFF30080 		.section	.text.TIM_BDTRStructInit,"ax",%progbits
 3316      AFF30080 
 3317              		.align	2
 3318              		.p2align 4,,15
 3319              		.global	TIM_BDTRStructInit
 3320              		.thumb
 3321              		.thumb_func
 3322              		.type	TIM_BDTRStructInit, %function
 3323              	TIM_BDTRStructInit:
 3324              	.LFB174:
 3325              		.loc 1 2251 0
 3326              		.cfi_startproc
 3327              		@ args = 0, pretend = 0, frame = 0
ARM GAS  /tmp/cchgQdZS.s 			page 61


 3328              		@ frame_needed = 0, uses_anonymous_args = 0
 3329              		@ link register save eliminated.
 3330              	.LVL362:
 3331              		.loc 1 2253 0
 3332 0000 0023     		movs	r3, #0
 3333 0002 0380     		strh	r3, [r0]	@ movhi
 3334              		.loc 1 2254 0
 3335 0004 4380     		strh	r3, [r0, #2]	@ movhi
 3336              		.loc 1 2255 0
 3337 0006 8380     		strh	r3, [r0, #4]	@ movhi
 3338              		.loc 1 2256 0
 3339 0008 C380     		strh	r3, [r0, #6]	@ movhi
 3340              		.loc 1 2257 0
 3341 000a 0381     		strh	r3, [r0, #8]	@ movhi
 3342              		.loc 1 2258 0
 3343 000c 4381     		strh	r3, [r0, #10]	@ movhi
 3344              		.loc 1 2259 0
 3345 000e 8381     		strh	r3, [r0, #12]	@ movhi
 3346 0010 7047     		bx	lr
 3347              		.cfi_endproc
 3348              	.LFE174:
 3349              		.size	TIM_BDTRStructInit, .-TIM_BDTRStructInit
 3350 0012 00BFAFF3 		.section	.text.TIM_CtrlPWMOutputs,"ax",%progbits
 3350      0080AFF3 
 3350      0080AFF3 
 3350      0080
 3351              		.align	2
 3352              		.p2align 4,,15
 3353              		.global	TIM_CtrlPWMOutputs
 3354              		.thumb
 3355              		.thumb_func
 3356              		.type	TIM_CtrlPWMOutputs, %function
 3357              	TIM_CtrlPWMOutputs:
 3358              	.LFB175:
 3359              		.loc 1 2270 0
 3360              		.cfi_startproc
 3361              		@ args = 0, pretend = 0, frame = 0
 3362              		@ frame_needed = 0, uses_anonymous_args = 0
 3363              		@ link register save eliminated.
 3364              	.LVL363:
 3365              		.loc 1 2278 0
 3366 0000 436C     		ldr	r3, [r0, #68]
 3367              		.loc 1 2275 0
 3368 0002 19B9     		cbnz	r1, .L156
 3369              		.loc 1 2283 0
 3370 0004 C3F30E03 		ubfx	r3, r3, #0, #15
 3371 0008 4364     		str	r3, [r0, #68]
 3372 000a 7047     		bx	lr
 3373              	.L156:
 3374              		.loc 1 2278 0
 3375 000c 43F40043 		orr	r3, r3, #32768
 3376 0010 4364     		str	r3, [r0, #68]
 3377 0012 7047     		bx	lr
 3378              		.cfi_endproc
 3379              	.LFE175:
 3380              		.size	TIM_CtrlPWMOutputs, .-TIM_CtrlPWMOutputs
 3381 0014 AFF30080 		.section	.text.TIM_SelectCOM,"ax",%progbits
ARM GAS  /tmp/cchgQdZS.s 			page 62


 3381      AFF30080 
 3381      AFF30080 
 3382              		.align	2
 3383              		.p2align 4,,15
 3384              		.global	TIM_SelectCOM
 3385              		.thumb
 3386              		.thumb_func
 3387              		.type	TIM_SelectCOM, %function
 3388              	TIM_SelectCOM:
 3389              	.LFB176:
 3390              		.loc 1 2295 0
 3391              		.cfi_startproc
 3392              		@ args = 0, pretend = 0, frame = 0
 3393              		@ frame_needed = 0, uses_anonymous_args = 0
 3394              		@ link register save eliminated.
 3395              	.LVL364:
 3396              		.loc 1 2300 0
 3397 0000 29B9     		cbnz	r1, .L160
 3398              		.loc 1 2308 0
 3399 0002 4268     		ldr	r2, [r0, #4]
 3400 0004 4FF6FB73 		movw	r3, #65531
 3401 0008 1340     		ands	r3, r3, r2
 3402 000a 4360     		str	r3, [r0, #4]
 3403 000c 7047     		bx	lr
 3404              	.L160:
 3405              		.loc 1 2303 0
 3406 000e 4368     		ldr	r3, [r0, #4]
 3407 0010 43F00403 		orr	r3, r3, #4
 3408 0014 4360     		str	r3, [r0, #4]
 3409 0016 7047     		bx	lr
 3410              		.cfi_endproc
 3411              	.LFE176:
 3412              		.size	TIM_SelectCOM, .-TIM_SelectCOM
 3413 0018 AFF30080 		.section	.text.TIM_CCPreloadControl,"ax",%progbits
 3413      AFF30080 
 3414              		.align	2
 3415              		.p2align 4,,15
 3416              		.global	TIM_CCPreloadControl
 3417              		.thumb
 3418              		.thumb_func
 3419              		.type	TIM_CCPreloadControl, %function
 3420              	TIM_CCPreloadControl:
 3421              	.LFB177:
 3422              		.loc 1 2320 0
 3423              		.cfi_startproc
 3424              		@ args = 0, pretend = 0, frame = 0
 3425              		@ frame_needed = 0, uses_anonymous_args = 0
 3426              		@ link register save eliminated.
 3427              	.LVL365:
 3428              		.loc 1 2324 0
 3429 0000 29B9     		cbnz	r1, .L164
 3430              		.loc 1 2332 0
 3431 0002 4268     		ldr	r2, [r0, #4]
 3432 0004 4FF6FE73 		movw	r3, #65534
 3433 0008 1340     		ands	r3, r3, r2
 3434 000a 4360     		str	r3, [r0, #4]
 3435 000c 7047     		bx	lr
ARM GAS  /tmp/cchgQdZS.s 			page 63


 3436              	.L164:
 3437              		.loc 1 2327 0
 3438 000e 4368     		ldr	r3, [r0, #4]
 3439 0010 43F00103 		orr	r3, r3, #1
 3440 0014 4360     		str	r3, [r0, #4]
 3441 0016 7047     		bx	lr
 3442              		.cfi_endproc
 3443              	.LFE177:
 3444              		.size	TIM_CCPreloadControl, .-TIM_CCPreloadControl
 3445 0018 AFF30080 		.section	.text.TIM_ITConfig,"ax",%progbits
 3445      AFF30080 
 3446              		.align	2
 3447              		.p2align 4,,15
 3448              		.global	TIM_ITConfig
 3449              		.thumb
 3450              		.thumb_func
 3451              		.type	TIM_ITConfig, %function
 3452              	TIM_ITConfig:
 3453              	.LFB178:
 3454              		.loc 1 2377 0
 3455              		.cfi_startproc
 3456              		@ args = 0, pretend = 0, frame = 0
 3457              		@ frame_needed = 0, uses_anonymous_args = 0
 3458              		@ link register save eliminated.
 3459              	.LVL366:
 3460              		.loc 1 2383 0
 3461 0000 2AB9     		cbnz	r2, .L168
 3462              		.loc 1 2391 0
 3463 0002 C368     		ldr	r3, [r0, #12]
 3464 0004 C943     		mvns	r1, r1
 3465              	.LVL367:
 3466 0006 89B2     		uxth	r1, r1
 3467 0008 1940     		ands	r1, r1, r3
 3468 000a C160     		str	r1, [r0, #12]
 3469 000c 7047     		bx	lr
 3470              	.LVL368:
 3471              	.L168:
 3472              		.loc 1 2386 0
 3473 000e C368     		ldr	r3, [r0, #12]
 3474 0010 1943     		orrs	r1, r1, r3
 3475              	.LVL369:
 3476 0012 C160     		str	r1, [r0, #12]
 3477 0014 7047     		bx	lr
 3478              		.cfi_endproc
 3479              	.LFE178:
 3480              		.size	TIM_ITConfig, .-TIM_ITConfig
 3481 0016 00BFAFF3 		.section	.text.TIM_GenerateEvent,"ax",%progbits
 3481      0080AFF3 
 3481      0080
 3482              		.align	2
 3483              		.p2align 4,,15
 3484              		.global	TIM_GenerateEvent
 3485              		.thumb
 3486              		.thumb_func
 3487              		.type	TIM_GenerateEvent, %function
 3488              	TIM_GenerateEvent:
 3489              	.LFB179:
ARM GAS  /tmp/cchgQdZS.s 			page 64


 3490              		.loc 1 2415 0
 3491              		.cfi_startproc
 3492              		@ args = 0, pretend = 0, frame = 0
 3493              		@ frame_needed = 0, uses_anonymous_args = 0
 3494              		@ link register save eliminated.
 3495              	.LVL370:
 3496              		.loc 1 2421 0
 3497 0000 4161     		str	r1, [r0, #20]
 3498 0002 7047     		bx	lr
 3499              		.cfi_endproc
 3500              	.LFE179:
 3501              		.size	TIM_GenerateEvent, .-TIM_GenerateEvent
 3502 0004 AFF30080 		.section	.text.TIM_GetFlagStatus,"ax",%progbits
 3502      AFF30080 
 3502      AFF30080 
 3503              		.align	2
 3504              		.p2align 4,,15
 3505              		.global	TIM_GetFlagStatus
 3506              		.thumb
 3507              		.thumb_func
 3508              		.type	TIM_GetFlagStatus, %function
 3509              	TIM_GetFlagStatus:
 3510              	.LFB180:
 3511              		.loc 1 2448 0
 3512              		.cfi_startproc
 3513              		@ args = 0, pretend = 0, frame = 0
 3514              		@ frame_needed = 0, uses_anonymous_args = 0
 3515              		@ link register save eliminated.
 3516              	.LVL371:
 3517              		.loc 1 2455 0
 3518 0000 0369     		ldr	r3, [r0, #16]
 3519              	.LVL372:
 3520 0002 1942     		tst	r1, r3
 3521              		.loc 1 2464 0
 3522 0004 0CBF     		ite	eq
 3523 0006 0020     		moveq	r0, #0
 3524 0008 0120     		movne	r0, #1
 3525              	.LVL373:
 3526 000a 7047     		bx	lr
 3527              		.cfi_endproc
 3528              	.LFE180:
 3529              		.size	TIM_GetFlagStatus, .-TIM_GetFlagStatus
 3530 000c AFF30080 		.section	.text.TIM_ClearFlag,"ax",%progbits
 3531              		.align	2
 3532              		.p2align 4,,15
 3533              		.global	TIM_ClearFlag
 3534              		.thumb
 3535              		.thumb_func
 3536              		.type	TIM_ClearFlag, %function
 3537              	TIM_ClearFlag:
 3538              	.LFB181:
 3539              		.loc 1 2490 0
 3540              		.cfi_startproc
 3541              		@ args = 0, pretend = 0, frame = 0
 3542              		@ frame_needed = 0, uses_anonymous_args = 0
 3543              		@ link register save eliminated.
 3544              	.LVL374:
ARM GAS  /tmp/cchgQdZS.s 			page 65


 3545              		.loc 1 2495 0
 3546 0000 C943     		mvns	r1, r1
 3547              	.LVL375:
 3548 0002 89B2     		uxth	r1, r1
 3549 0004 0161     		str	r1, [r0, #16]
 3550 0006 7047     		bx	lr
 3551              		.cfi_endproc
 3552              	.LFE181:
 3553              		.size	TIM_ClearFlag, .-TIM_ClearFlag
 3554 0008 AFF30080 		.section	.text.TIM_GetITStatus,"ax",%progbits
 3554      AFF30080 
 3555              		.align	2
 3556              		.p2align 4,,15
 3557              		.global	TIM_GetITStatus
 3558              		.thumb
 3559              		.thumb_func
 3560              		.type	TIM_GetITStatus, %function
 3561              	TIM_GetITStatus:
 3562              	.LFB182:
 3563              		.loc 1 2518 0
 3564              		.cfi_startproc
 3565              		@ args = 0, pretend = 0, frame = 0
 3566              		@ frame_needed = 0, uses_anonymous_args = 0
 3567              		@ link register save eliminated.
 3568              	.LVL376:
 3569              		.loc 1 2525 0
 3570 0000 0369     		ldr	r3, [r0, #16]
 3571              	.LVL377:
 3572              		.loc 1 2527 0
 3573 0002 C268     		ldr	r2, [r0, #12]
 3574              	.LVL378:
 3575              		.loc 1 2528 0
 3576 0004 11EA0300 		ands	r0, r1, r3
 3577              	.LVL379:
 3578 0008 03D0     		beq	.L173
 3579              		.loc 1 2528 0 is_stmt 0 discriminator 1
 3580 000a 1142     		tst	r1, r2
 3581              		.loc 1 2530 0 is_stmt 1 discriminator 1
 3582 000c 0CBF     		ite	eq
 3583 000e 0020     		moveq	r0, #0
 3584 0010 0120     		movne	r0, #1
 3585              	.L173:
 3586              	.LVL380:
 3587              		.loc 1 2537 0
 3588 0012 7047     		bx	lr
 3589              		.cfi_endproc
 3590              	.LFE182:
 3591              		.size	TIM_GetITStatus, .-TIM_GetITStatus
 3592 0014 AFF30080 		.section	.text.TIM_ClearITPendingBit,"ax",%progbits
 3592      AFF30080 
 3592      AFF30080 
 3593              		.align	2
 3594              		.p2align 4,,15
 3595              		.global	TIM_ClearITPendingBit
 3596              		.thumb
 3597              		.thumb_func
 3598              		.type	TIM_ClearITPendingBit, %function
ARM GAS  /tmp/cchgQdZS.s 			page 66


 3599              	TIM_ClearITPendingBit:
 3600              	.LFB183:
 3601              		.loc 1 2559 0
 3602              		.cfi_startproc
 3603              		@ args = 0, pretend = 0, frame = 0
 3604              		@ frame_needed = 0, uses_anonymous_args = 0
 3605              		@ link register save eliminated.
 3606              	.LVL381:
 3607              		.loc 1 2564 0
 3608 0000 C943     		mvns	r1, r1
 3609              	.LVL382:
 3610 0002 89B2     		uxth	r1, r1
 3611 0004 0161     		str	r1, [r0, #16]
 3612 0006 7047     		bx	lr
 3613              		.cfi_endproc
 3614              	.LFE183:
 3615              		.size	TIM_ClearITPendingBit, .-TIM_ClearITPendingBit
 3616 0008 AFF30080 		.section	.text.TIM_DMAConfig,"ax",%progbits
 3616      AFF30080 
 3617              		.align	2
 3618              		.p2align 4,,15
 3619              		.global	TIM_DMAConfig
 3620              		.thumb
 3621              		.thumb_func
 3622              		.type	TIM_DMAConfig, %function
 3623              	TIM_DMAConfig:
 3624              	.LFB184:
 3625              		.loc 1 2596 0
 3626              		.cfi_startproc
 3627              		@ args = 0, pretend = 0, frame = 0
 3628              		@ frame_needed = 0, uses_anonymous_args = 0
 3629              		@ link register save eliminated.
 3630              	.LVL383:
 3631              		.loc 1 2603 0
 3632 0000 0A43     		orrs	r2, r2, r1
 3633              	.LVL384:
 3634 0002 8264     		str	r2, [r0, #72]
 3635 0004 7047     		bx	lr
 3636              		.cfi_endproc
 3637              	.LFE184:
 3638              		.size	TIM_DMAConfig, .-TIM_DMAConfig
 3639 0006 00BFAFF3 		.section	.text.TIM_DMACmd,"ax",%progbits
 3639      0080AFF3 
 3639      0080
 3640              		.align	2
 3641              		.p2align 4,,15
 3642              		.global	TIM_DMACmd
 3643              		.thumb
 3644              		.thumb_func
 3645              		.type	TIM_DMACmd, %function
 3646              	TIM_DMACmd:
 3647              	.LFB185:
 3648              		.loc 1 2623 0
 3649              		.cfi_startproc
 3650              		@ args = 0, pretend = 0, frame = 0
 3651              		@ frame_needed = 0, uses_anonymous_args = 0
 3652              		@ link register save eliminated.
ARM GAS  /tmp/cchgQdZS.s 			page 67


 3653              	.LVL385:
 3654              		.loc 1 2629 0
 3655 0000 2AB9     		cbnz	r2, .L180
 3656              		.loc 1 2637 0
 3657 0002 C368     		ldr	r3, [r0, #12]
 3658 0004 C943     		mvns	r1, r1
 3659              	.LVL386:
 3660 0006 89B2     		uxth	r1, r1
 3661 0008 1940     		ands	r1, r1, r3
 3662 000a C160     		str	r1, [r0, #12]
 3663 000c 7047     		bx	lr
 3664              	.LVL387:
 3665              	.L180:
 3666              		.loc 1 2632 0
 3667 000e C368     		ldr	r3, [r0, #12]
 3668 0010 1943     		orrs	r1, r1, r3
 3669              	.LVL388:
 3670 0012 C160     		str	r1, [r0, #12]
 3671 0014 7047     		bx	lr
 3672              		.cfi_endproc
 3673              	.LFE185:
 3674              		.size	TIM_DMACmd, .-TIM_DMACmd
 3675 0016 00BFAFF3 		.section	.text.TIM_SelectCCDMA,"ax",%progbits
 3675      0080AFF3 
 3675      0080
 3676              		.align	2
 3677              		.p2align 4,,15
 3678              		.global	TIM_SelectCCDMA
 3679              		.thumb
 3680              		.thumb_func
 3681              		.type	TIM_SelectCCDMA, %function
 3682              	TIM_SelectCCDMA:
 3683              	.LFB186:
 3684              		.loc 1 2649 0
 3685              		.cfi_startproc
 3686              		@ args = 0, pretend = 0, frame = 0
 3687              		@ frame_needed = 0, uses_anonymous_args = 0
 3688              		@ link register save eliminated.
 3689              	.LVL389:
 3690              		.loc 1 2654 0
 3691 0000 29B9     		cbnz	r1, .L184
 3692              		.loc 1 2662 0
 3693 0002 4268     		ldr	r2, [r0, #4]
 3694 0004 4FF6F773 		movw	r3, #65527
 3695 0008 1340     		ands	r3, r3, r2
 3696 000a 4360     		str	r3, [r0, #4]
 3697 000c 7047     		bx	lr
 3698              	.L184:
 3699              		.loc 1 2657 0
 3700 000e 4368     		ldr	r3, [r0, #4]
 3701 0010 43F00803 		orr	r3, r3, #8
 3702 0014 4360     		str	r3, [r0, #4]
 3703 0016 7047     		bx	lr
 3704              		.cfi_endproc
 3705              	.LFE186:
 3706              		.size	TIM_SelectCCDMA, .-TIM_SelectCCDMA
 3707 0018 AFF30080 		.section	.text.TIM_InternalClockConfig,"ax",%progbits
ARM GAS  /tmp/cchgQdZS.s 			page 68


 3707      AFF30080 
 3708              		.align	2
 3709              		.p2align 4,,15
 3710              		.global	TIM_InternalClockConfig
 3711              		.thumb
 3712              		.thumb_func
 3713              		.type	TIM_InternalClockConfig, %function
 3714              	TIM_InternalClockConfig:
 3715              	.LFB187:
 3716              		.loc 1 2688 0
 3717              		.cfi_startproc
 3718              		@ args = 0, pretend = 0, frame = 0
 3719              		@ frame_needed = 0, uses_anonymous_args = 0
 3720              		@ link register save eliminated.
 3721              	.LVL390:
 3722              		.loc 1 2693 0
 3723 0000 8268     		ldr	r2, [r0, #8]
 3724 0002 4FF6F873 		movw	r3, #65528
 3725 0006 1340     		ands	r3, r3, r2
 3726 0008 8360     		str	r3, [r0, #8]
 3727 000a 7047     		bx	lr
 3728              		.cfi_endproc
 3729              	.LFE187:
 3730              		.size	TIM_InternalClockConfig, .-TIM_InternalClockConfig
 3731 000c AFF30080 		.section	.text.TIM_ITRxExternalClockConfig,"ax",%progbits
 3732              		.align	2
 3733              		.p2align 4,,15
 3734              		.global	TIM_ITRxExternalClockConfig
 3735              		.thumb
 3736              		.thumb_func
 3737              		.type	TIM_ITRxExternalClockConfig, %function
 3738              	TIM_ITRxExternalClockConfig:
 3739              	.LFB188:
 3740              		.loc 1 2709 0
 3741              		.cfi_startproc
 3742              		@ args = 0, pretend = 0, frame = 0
 3743              		@ frame_needed = 0, uses_anonymous_args = 0
 3744              		@ link register save eliminated.
 3745              	.LVL391:
 3746              	.LBB90:
 3747              	.LBB91:
 3748              		.loc 1 2905 0
 3749 0000 8268     		ldr	r2, [r0, #8]
 3750              	.LVL392:
 3751              		.loc 1 2908 0
 3752 0002 4FF68F73 		movw	r3, #65423
 3753 0006 1340     		ands	r3, r3, r2
 3754              	.LVL393:
 3755              		.loc 1 2914 0
 3756 0008 1943     		orrs	r1, r1, r3
 3757              	.LVL394:
 3758 000a 8160     		str	r1, [r0, #8]
 3759              	.LBE91:
 3760              	.LBE90:
 3761              		.loc 1 2718 0
 3762 000c 8368     		ldr	r3, [r0, #8]
 3763              	.LVL395:
ARM GAS  /tmp/cchgQdZS.s 			page 69


 3764 000e 43F00703 		orr	r3, r3, #7
 3765 0012 8360     		str	r3, [r0, #8]
 3766 0014 7047     		bx	lr
 3767              		.cfi_endproc
 3768              	.LFE188:
 3769              		.size	TIM_ITRxExternalClockConfig, .-TIM_ITRxExternalClockConfig
 3770 0016 00BFAFF3 		.section	.text.TIM_TIxExternalClockConfig,"ax",%progbits
 3770      0080AFF3 
 3770      0080
 3771              		.align	2
 3772              		.p2align 4,,15
 3773              		.global	TIM_TIxExternalClockConfig
 3774              		.thumb
 3775              		.thumb_func
 3776              		.type	TIM_TIxExternalClockConfig, %function
 3777              	TIM_TIxExternalClockConfig:
 3778              	.LFB189:
 3779              		.loc 1 2740 0
 3780              		.cfi_startproc
 3781              		@ args = 0, pretend = 0, frame = 0
 3782              		@ frame_needed = 0, uses_anonymous_args = 0
 3783              		@ link register save eliminated.
 3784              	.LVL396:
 3785              		.loc 1 2747 0
 3786 0000 6029     		cmp	r1, #96
 3787              		.loc 1 2740 0
 3788 0002 70B4     		push	{r4, r5, r6}
 3789              		.cfi_def_cfa_offset 12
 3790              		.cfi_offset 4, -12
 3791              		.cfi_offset 5, -8
 3792              		.cfi_offset 6, -4
 3793              	.LBB92:
 3794              	.LBB93:
 3795              		.loc 1 3255 0
 3796 0004 056A     		ldr	r5, [r0, #32]
 3797              	.LBE93:
 3798              	.LBE92:
 3799              		.loc 1 2747 0
 3800 0006 21D0     		beq	.L190
 3801              	.LVL397:
 3802              	.LBB95:
 3803              	.LBB96:
 3804              		.loc 1 3214 0
 3805 0008 4FF6FE74 		movw	r4, #65534
 3806 000c 2C40     		ands	r4, r4, r5
 3807 000e 0462     		str	r4, [r0, #32]
 3808              		.loc 1 3215 0
 3809 0010 8569     		ldr	r5, [r0, #24]
 3810              		.loc 1 3216 0
 3811 0012 046A     		ldr	r4, [r0, #32]
 3812              		.loc 1 3215 0
 3813 0014 ADB2     		uxth	r5, r5
 3814              	.LVL398:
 3815              		.loc 1 3219 0
 3816 0016 25F0F305 		bic	r5, r5, #243
 3817              	.LVL399:
 3818              		.loc 1 3216 0
ARM GAS  /tmp/cchgQdZS.s 			page 70


 3819 001a A4B2     		uxth	r4, r4
 3820              	.LVL400:
 3821              		.loc 1 3220 0
 3822 001c 45F00105 		orr	r5, r5, #1
 3823              	.LVL401:
 3824              		.loc 1 3223 0
 3825 0020 24F00A04 		bic	r4, r4, #10
 3826              	.LVL402:
 3827              		.loc 1 3220 0
 3828 0024 45EA0313 		orr	r3, r5, r3, lsl #4
 3829              	.LVL403:
 3830              		.loc 1 3224 0
 3831 0028 44F00104 		orr	r4, r4, #1
 3832              	.LVL404:
 3833              		.loc 1 3227 0
 3834 002c 9BB2     		uxth	r3, r3
 3835              		.loc 1 3228 0
 3836 002e 2243     		orrs	r2, r2, r4
 3837              	.LVL405:
 3838              		.loc 1 3227 0
 3839 0030 8361     		str	r3, [r0, #24]
 3840              		.loc 1 3228 0
 3841 0032 0262     		str	r2, [r0, #32]
 3842              	.LVL406:
 3843              	.L189:
 3844              	.LBE96:
 3845              	.LBE95:
 3846              	.LBB97:
 3847              	.LBB98:
 3848              		.loc 1 2905 0
 3849 0034 8268     		ldr	r2, [r0, #8]
 3850              	.LVL407:
 3851              		.loc 1 2908 0
 3852 0036 4FF68F73 		movw	r3, #65423
 3853 003a 1340     		ands	r3, r3, r2
 3854              	.LVL408:
 3855              		.loc 1 2914 0
 3856 003c 0B43     		orrs	r3, r3, r1
 3857              	.LVL409:
 3858 003e 8360     		str	r3, [r0, #8]
 3859              	.LBE98:
 3860              	.LBE97:
 3861              		.loc 1 2758 0
 3862 0040 8368     		ldr	r3, [r0, #8]
 3863 0042 43F00703 		orr	r3, r3, #7
 3864 0046 8360     		str	r3, [r0, #8]
 3865              		.loc 1 2759 0
 3866 0048 70BC     		pop	{r4, r5, r6}
 3867 004a 7047     		bx	lr
 3868              	.LVL410:
 3869              	.L190:
 3870              	.LBB99:
 3871              	.LBB94:
 3872              		.loc 1 3255 0
 3873 004c 4FF6EF74 		movw	r4, #65519
 3874 0050 2C40     		ands	r4, r4, r5
 3875 0052 0462     		str	r4, [r0, #32]
ARM GAS  /tmp/cchgQdZS.s 			page 71


 3876              		.loc 1 3256 0
 3877 0054 8669     		ldr	r6, [r0, #24]
 3878              	.LVL411:
 3879              		.loc 1 3257 0
 3880 0056 056A     		ldr	r5, [r0, #32]
 3881              		.loc 1 3261 0
 3882 0058 40F6FF44 		movw	r4, #3327
 3883              		.loc 1 3257 0
 3884 005c ADB2     		uxth	r5, r5
 3885              	.LVL412:
 3886              		.loc 1 3261 0
 3887 005e 3440     		ands	r4, r4, r6
 3888              	.LVL413:
 3889              		.loc 1 3266 0
 3890 0060 25F0A005 		bic	r5, r5, #160
 3891              	.LVL414:
 3892              		.loc 1 3262 0
 3893 0064 44F48074 		orr	r4, r4, #256
 3894              	.LVL415:
 3895              		.loc 1 3267 0
 3896 0068 45F01005 		orr	r5, r5, #16
 3897              	.LVL416:
 3898              		.loc 1 3263 0
 3899 006c 44EA0333 		orr	r3, r4, r3, lsl #12
 3900              	.LVL417:
 3901              		.loc 1 3267 0
 3902 0070 45EA0212 		orr	r2, r5, r2, lsl #4
 3903              	.LVL418:
 3904              		.loc 1 3270 0
 3905 0074 9BB2     		uxth	r3, r3
 3906              		.loc 1 3271 0
 3907 0076 92B2     		uxth	r2, r2
 3908              		.loc 1 3270 0
 3909 0078 8361     		str	r3, [r0, #24]
 3910              		.loc 1 3271 0
 3911 007a 0262     		str	r2, [r0, #32]
 3912 007c DAE7     		b	.L189
 3913              	.LBE94:
 3914              	.LBE99:
 3915              		.cfi_endproc
 3916              	.LFE189:
 3917              		.size	TIM_TIxExternalClockConfig, .-TIM_TIxExternalClockConfig
 3918 007e 00BF     		.section	.text.TIM_ETRClockMode1Config,"ax",%progbits
 3919              		.align	2
 3920              		.p2align 4,,15
 3921              		.global	TIM_ETRClockMode1Config
 3922              		.thumb
 3923              		.thumb_func
 3924              		.type	TIM_ETRClockMode1Config, %function
 3925              	TIM_ETRClockMode1Config:
 3926              	.LFB190:
 3927              		.loc 1 2780 0
 3928              		.cfi_startproc
 3929              		@ args = 0, pretend = 0, frame = 0
 3930              		@ frame_needed = 0, uses_anonymous_args = 0
 3931              		@ link register save eliminated.
 3932              	.LVL419:
ARM GAS  /tmp/cchgQdZS.s 			page 72


 3933 0000 10B4     		push	{r4}
 3934              		.cfi_def_cfa_offset 4
 3935              		.cfi_offset 4, -4
 3936              	.LBB100:
 3937              	.LBB101:
 3938              		.loc 1 3027 0
 3939 0002 8468     		ldr	r4, [r0, #8]
 3940              	.LVL420:
 3941              		.loc 1 3033 0
 3942 0004 42EA0323 		orr	r3, r2, r3, lsl #8
 3943              	.LVL421:
 3944              		.loc 1 3030 0
 3945 0008 E4B2     		uxtb	r4, r4
 3946              	.LVL422:
 3947              		.loc 1 3033 0
 3948 000a 2343     		orrs	r3, r3, r4
 3949 000c 9BB2     		uxth	r3, r3
 3950              	.LVL423:
 3951              		.loc 1 3036 0
 3952 000e 1943     		orrs	r1, r1, r3
 3953              	.LVL424:
 3954 0010 8160     		str	r1, [r0, #8]
 3955              	.LBE101:
 3956              	.LBE100:
 3957              		.loc 1 2792 0
 3958 0012 8368     		ldr	r3, [r0, #8]
 3959              	.LVL425:
 3960              		.loc 1 2806 0
 3961 0014 5DF8044B 		ldr	r4, [sp], #4
 3962              		.loc 1 2801 0
 3963 0018 23F07703 		bic	r3, r3, #119
 3964              	.LVL426:
 3965 001c 9BB2     		uxth	r3, r3
 3966              	.LVL427:
 3967              		.loc 1 2805 0
 3968 001e 43F07703 		orr	r3, r3, #119
 3969              	.LVL428:
 3970 0022 8360     		str	r3, [r0, #8]
 3971              		.loc 1 2806 0
 3972 0024 7047     		bx	lr
 3973              		.cfi_endproc
 3974              	.LFE190:
 3975              		.size	TIM_ETRClockMode1Config, .-TIM_ETRClockMode1Config
 3976 0026 00BFAFF3 		.section	.text.TIM_ETRClockMode2Config,"ax",%progbits
 3976      0080AFF3 
 3976      0080
 3977              		.align	2
 3978              		.p2align 4,,15
 3979              		.global	TIM_ETRClockMode2Config
 3980              		.thumb
 3981              		.thumb_func
 3982              		.type	TIM_ETRClockMode2Config, %function
 3983              	TIM_ETRClockMode2Config:
 3984              	.LFB191:
 3985              		.loc 1 2827 0
 3986              		.cfi_startproc
 3987              		@ args = 0, pretend = 0, frame = 0
ARM GAS  /tmp/cchgQdZS.s 			page 73


 3988              		@ frame_needed = 0, uses_anonymous_args = 0
 3989              		@ link register save eliminated.
 3990              	.LVL429:
 3991 0000 10B4     		push	{r4}
 3992              		.cfi_def_cfa_offset 4
 3993              		.cfi_offset 4, -4
 3994              	.LBB102:
 3995              	.LBB103:
 3996              		.loc 1 3027 0
 3997 0002 8468     		ldr	r4, [r0, #8]
 3998              	.LVL430:
 3999              		.loc 1 3033 0
 4000 0004 42EA0323 		orr	r3, r2, r3, lsl #8
 4001              	.LVL431:
 4002              		.loc 1 3030 0
 4003 0008 E4B2     		uxtb	r4, r4
 4004              	.LVL432:
 4005              		.loc 1 3033 0
 4006 000a 2343     		orrs	r3, r3, r4
 4007 000c 9BB2     		uxth	r3, r3
 4008              	.LVL433:
 4009              		.loc 1 3036 0
 4010 000e 1943     		orrs	r1, r1, r3
 4011              	.LVL434:
 4012 0010 8160     		str	r1, [r0, #8]
 4013              	.LBE103:
 4014              	.LBE102:
 4015              		.loc 1 2838 0
 4016 0012 8368     		ldr	r3, [r0, #8]
 4017              	.LVL435:
 4018              		.loc 1 2839 0
 4019 0014 5DF8044B 		ldr	r4, [sp], #4
 4020              		.loc 1 2838 0
 4021 0018 43F48043 		orr	r3, r3, #16384
 4022 001c 8360     		str	r3, [r0, #8]
 4023              		.loc 1 2839 0
 4024 001e 7047     		bx	lr
 4025              		.cfi_endproc
 4026              	.LFE191:
 4027              		.size	TIM_ETRClockMode2Config, .-TIM_ETRClockMode2Config
 4028              		.section	.text.TIM_SelectInputTrigger,"ax",%progbits
 4029              		.align	2
 4030              		.p2align 4,,15
 4031              		.global	TIM_SelectInputTrigger
 4032              		.thumb
 4033              		.thumb_func
 4034              		.type	TIM_SelectInputTrigger, %function
 4035              	TIM_SelectInputTrigger:
 4036              	.LFB192:
 4037              		.loc 1 2897 0
 4038              		.cfi_startproc
 4039              		@ args = 0, pretend = 0, frame = 0
 4040              		@ frame_needed = 0, uses_anonymous_args = 0
 4041              		@ link register save eliminated.
 4042              	.LVL436:
 4043              		.loc 1 2905 0
 4044 0000 8268     		ldr	r2, [r0, #8]
ARM GAS  /tmp/cchgQdZS.s 			page 74


 4045              	.LVL437:
 4046              		.loc 1 2908 0
 4047 0002 4FF68F73 		movw	r3, #65423
 4048 0006 1340     		ands	r3, r3, r2
 4049              	.LVL438:
 4050              		.loc 1 2914 0
 4051 0008 1943     		orrs	r1, r1, r3
 4052              	.LVL439:
 4053 000a 8160     		str	r1, [r0, #8]
 4054 000c 7047     		bx	lr
 4055              		.cfi_endproc
 4056              	.LFE192:
 4057              		.size	TIM_SelectInputTrigger, .-TIM_SelectInputTrigger
 4058 000e 00BF     		.section	.text.TIM_SelectOutputTrigger,"ax",%progbits
 4059              		.align	2
 4060              		.p2align 4,,15
 4061              		.global	TIM_SelectOutputTrigger
 4062              		.thumb
 4063              		.thumb_func
 4064              		.type	TIM_SelectOutputTrigger, %function
 4065              	TIM_SelectOutputTrigger:
 4066              	.LFB193:
 4067              		.loc 1 2940 0
 4068              		.cfi_startproc
 4069              		@ args = 0, pretend = 0, frame = 0
 4070              		@ frame_needed = 0, uses_anonymous_args = 0
 4071              		@ link register save eliminated.
 4072              	.LVL440:
 4073              		.loc 1 2946 0
 4074 0000 4268     		ldr	r2, [r0, #4]
 4075 0002 4FF68F73 		movw	r3, #65423
 4076 0006 1340     		ands	r3, r3, r2
 4077 0008 4360     		str	r3, [r0, #4]
 4078              		.loc 1 2948 0
 4079 000a 4368     		ldr	r3, [r0, #4]
 4080 000c 1943     		orrs	r1, r1, r3
 4081              	.LVL441:
 4082 000e 4160     		str	r1, [r0, #4]
 4083 0010 7047     		bx	lr
 4084              		.cfi_endproc
 4085              	.LFE193:
 4086              		.size	TIM_SelectOutputTrigger, .-TIM_SelectOutputTrigger
 4087 0012 00BFAFF3 		.section	.text.TIM_SelectSlaveMode,"ax",%progbits
 4087      0080AFF3 
 4087      0080AFF3 
 4087      0080
 4088              		.align	2
 4089              		.p2align 4,,15
 4090              		.global	TIM_SelectSlaveMode
 4091              		.thumb
 4092              		.thumb_func
 4093              		.type	TIM_SelectSlaveMode, %function
 4094              	TIM_SelectSlaveMode:
 4095              	.LFB194:
 4096              		.loc 1 2964 0
 4097              		.cfi_startproc
 4098              		@ args = 0, pretend = 0, frame = 0
ARM GAS  /tmp/cchgQdZS.s 			page 75


 4099              		@ frame_needed = 0, uses_anonymous_args = 0
 4100              		@ link register save eliminated.
 4101              	.LVL442:
 4102              		.loc 1 2970 0
 4103 0000 8268     		ldr	r2, [r0, #8]
 4104 0002 4FF6F873 		movw	r3, #65528
 4105 0006 1340     		ands	r3, r3, r2
 4106 0008 8360     		str	r3, [r0, #8]
 4107              		.loc 1 2973 0
 4108 000a 8368     		ldr	r3, [r0, #8]
 4109 000c 1943     		orrs	r1, r1, r3
 4110              	.LVL443:
 4111 000e 8160     		str	r1, [r0, #8]
 4112 0010 7047     		bx	lr
 4113              		.cfi_endproc
 4114              	.LFE194:
 4115              		.size	TIM_SelectSlaveMode, .-TIM_SelectSlaveMode
 4116 0012 00BFAFF3 		.section	.text.TIM_SelectMasterSlaveMode,"ax",%progbits
 4116      0080AFF3 
 4116      0080AFF3 
 4116      0080
 4117              		.align	2
 4118              		.p2align 4,,15
 4119              		.global	TIM_SelectMasterSlaveMode
 4120              		.thumb
 4121              		.thumb_func
 4122              		.type	TIM_SelectMasterSlaveMode, %function
 4123              	TIM_SelectMasterSlaveMode:
 4124              	.LFB195:
 4125              		.loc 1 2987 0
 4126              		.cfi_startproc
 4127              		@ args = 0, pretend = 0, frame = 0
 4128              		@ frame_needed = 0, uses_anonymous_args = 0
 4129              		@ link register save eliminated.
 4130              	.LVL444:
 4131              		.loc 1 2993 0
 4132 0000 8268     		ldr	r2, [r0, #8]
 4133 0002 4FF67F73 		movw	r3, #65407
 4134 0006 1340     		ands	r3, r3, r2
 4135 0008 8360     		str	r3, [r0, #8]
 4136              		.loc 1 2996 0
 4137 000a 8368     		ldr	r3, [r0, #8]
 4138 000c 1943     		orrs	r1, r1, r3
 4139              	.LVL445:
 4140 000e 8160     		str	r1, [r0, #8]
 4141 0010 7047     		bx	lr
 4142              		.cfi_endproc
 4143              	.LFE195:
 4144              		.size	TIM_SelectMasterSlaveMode, .-TIM_SelectMasterSlaveMode
 4145 0012 00BFAFF3 		.section	.text.TIM_ETRConfig,"ax",%progbits
 4145      0080AFF3 
 4145      0080AFF3 
 4145      0080
 4146              		.align	2
 4147              		.p2align 4,,15
 4148              		.global	TIM_ETRConfig
 4149              		.thumb
ARM GAS  /tmp/cchgQdZS.s 			page 76


 4150              		.thumb_func
 4151              		.type	TIM_ETRConfig, %function
 4152              	TIM_ETRConfig:
 4153              	.LFB196:
 4154              		.loc 1 3018 0
 4155              		.cfi_startproc
 4156              		@ args = 0, pretend = 0, frame = 0
 4157              		@ frame_needed = 0, uses_anonymous_args = 0
 4158              		@ link register save eliminated.
 4159              	.LVL446:
 4160 0000 10B4     		push	{r4}
 4161              		.cfi_def_cfa_offset 4
 4162              		.cfi_offset 4, -4
 4163              		.loc 1 3027 0
 4164 0002 8468     		ldr	r4, [r0, #8]
 4165              	.LVL447:
 4166              		.loc 1 3030 0
 4167 0004 E4B2     		uxtb	r4, r4
 4168              	.LVL448:
 4169              		.loc 1 3033 0
 4170 0006 2143     		orrs	r1, r1, r4
 4171              	.LVL449:
 4172 0008 0A43     		orrs	r2, r2, r1
 4173              	.LVL450:
 4174 000a 42EA0323 		orr	r3, r2, r3, lsl #8
 4175              	.LVL451:
 4176              		.loc 1 3036 0
 4177 000e 9CB2     		uxth	r4, r3
 4178 0010 8460     		str	r4, [r0, #8]
 4179              		.loc 1 3037 0
 4180 0012 5DF8044B 		ldr	r4, [sp], #4
 4181 0016 7047     		bx	lr
 4182              		.cfi_endproc
 4183              	.LFE196:
 4184              		.size	TIM_ETRConfig, .-TIM_ETRConfig
 4185 0018 AFF30080 		.section	.text.TIM_EncoderInterfaceConfig,"ax",%progbits
 4185      AFF30080 
 4186              		.align	2
 4187              		.p2align 4,,15
 4188              		.global	TIM_EncoderInterfaceConfig
 4189              		.thumb
 4190              		.thumb_func
 4191              		.type	TIM_EncoderInterfaceConfig, %function
 4192              	TIM_EncoderInterfaceConfig:
 4193              	.LFB197:
 4194              		.loc 1 3076 0
 4195              		.cfi_startproc
 4196              		@ args = 0, pretend = 0, frame = 0
 4197              		@ frame_needed = 0, uses_anonymous_args = 0
 4198              		@ link register save eliminated.
 4199              	.LVL452:
 4200 0000 F0B4     		push	{r4, r5, r6, r7}
 4201              		.cfi_def_cfa_offset 16
 4202              		.cfi_offset 4, -16
 4203              		.cfi_offset 5, -12
 4204              		.cfi_offset 6, -8
 4205              		.cfi_offset 7, -4
ARM GAS  /tmp/cchgQdZS.s 			page 77


 4206              		.loc 1 3088 0
 4207 0002 8668     		ldr	r6, [r0, #8]
 4208              	.LVL453:
 4209              		.loc 1 3091 0
 4210 0004 8769     		ldr	r7, [r0, #24]
 4211              	.LVL454:
 4212              		.loc 1 3094 0
 4213 0006 046A     		ldr	r4, [r0, #32]
 4214 0008 1FFA84FC 		uxth	ip, r4
 4215              	.LVL455:
 4216              		.loc 1 3101 0
 4217 000c 4FF6FC45 		movw	r5, #64764
 4218              		.loc 1 3105 0
 4219 0010 2CF0220C 		bic	ip, ip, #34
 4220              		.loc 1 3101 0
 4221 0014 3D40     		ands	r5, r5, r7
 4222              		.loc 1 3097 0
 4223 0016 4FF6F874 		movw	r4, #65528
 4224              	.LVL456:
 4225              		.loc 1 3106 0
 4226 001a 42EA0C02 		orr	r2, r2, ip
 4227              	.LVL457:
 4228              		.loc 1 3097 0
 4229 001e 3440     		ands	r4, r4, r6
 4230              	.LVL458:
 4231              		.loc 1 3106 0
 4232 0020 42EA0313 		orr	r3, r2, r3, lsl #4
 4233              	.LVL459:
 4234              		.loc 1 3112 0
 4235 0024 45F48075 		orr	r5, r5, #256
 4236              	.LVL460:
 4237              		.loc 1 3109 0
 4238 0028 2143     		orrs	r1, r1, r4
 4239              	.LVL461:
 4240              		.loc 1 3112 0
 4241 002a 45F00105 		orr	r5, r5, #1
 4242              		.loc 1 3115 0
 4243 002e 9BB2     		uxth	r3, r3
 4244              		.loc 1 3109 0
 4245 0030 8160     		str	r1, [r0, #8]
 4246              		.loc 1 3112 0
 4247 0032 8561     		str	r5, [r0, #24]
 4248              		.loc 1 3115 0
 4249 0034 0362     		str	r3, [r0, #32]
 4250              		.loc 1 3116 0
 4251 0036 F0BC     		pop	{r4, r5, r6, r7}
 4252              	.LVL462:
 4253 0038 7047     		bx	lr
 4254              		.cfi_endproc
 4255              	.LFE197:
 4256              		.size	TIM_EncoderInterfaceConfig, .-TIM_EncoderInterfaceConfig
 4257 003a 00BFAFF3 		.section	.text.TIM_SelectHallSensor,"ax",%progbits
 4257      0080
 4258              		.align	2
 4259              		.p2align 4,,15
 4260              		.global	TIM_SelectHallSensor
 4261              		.thumb
ARM GAS  /tmp/cchgQdZS.s 			page 78


 4262              		.thumb_func
 4263              		.type	TIM_SelectHallSensor, %function
 4264              	TIM_SelectHallSensor:
 4265              	.LFB198:
 4266              		.loc 1 3127 0
 4267              		.cfi_startproc
 4268              		@ args = 0, pretend = 0, frame = 0
 4269              		@ frame_needed = 0, uses_anonymous_args = 0
 4270              		@ link register save eliminated.
 4271              	.LVL463:
 4272              		.loc 1 3132 0
 4273 0000 29B9     		cbnz	r1, .L202
 4274              		.loc 1 3140 0
 4275 0002 4268     		ldr	r2, [r0, #4]
 4276 0004 4FF67F73 		movw	r3, #65407
 4277 0008 1340     		ands	r3, r3, r2
 4278 000a 4360     		str	r3, [r0, #4]
 4279 000c 7047     		bx	lr
 4280              	.L202:
 4281              		.loc 1 3135 0
 4282 000e 4368     		ldr	r3, [r0, #4]
 4283 0010 43F08003 		orr	r3, r3, #128
 4284 0014 4360     		str	r3, [r0, #4]
 4285 0016 7047     		bx	lr
 4286              		.cfi_endproc
 4287              	.LFE198:
 4288              		.size	TIM_SelectHallSensor, .-TIM_SelectHallSensor
 4289 0018 AFF30080 		.section	.text.TIM_RemapConfig,"ax",%progbits
 4289      AFF30080 
 4290              		.align	2
 4291              		.p2align 4,,15
 4292              		.global	TIM_RemapConfig
 4293              		.thumb
 4294              		.thumb_func
 4295              		.type	TIM_RemapConfig, %function
 4296              	TIM_RemapConfig:
 4297              	.LFB199:
 4298              		.loc 1 3178 0
 4299              		.cfi_startproc
 4300              		@ args = 0, pretend = 0, frame = 0
 4301              		@ frame_needed = 0, uses_anonymous_args = 0
 4302              		@ link register save eliminated.
 4303              	.LVL464:
 4304              		.loc 1 3184 0
 4305 0000 0165     		str	r1, [r0, #80]
 4306 0002 7047     		bx	lr
 4307              		.cfi_endproc
 4308              	.LFE199:
 4309              		.size	TIM_RemapConfig, .-TIM_RemapConfig
 4310 0004 AFF30080 		.text
 4310      AFF30080 
 4310      AFF30080 
 4311              	.Letext0:
 4312              		.file 2 "/usr/include/newlib/machine/_default_types.h"
 4313              		.file 3 "/usr/include/newlib/stdint.h"
 4314              		.file 4 "ChibiOS_3.0.2/os/ext/CMSIS/ST/stm32f407xx.h"
 4315              		.file 5 "ChibiOS_3.0.2/os/ext/CMSIS/ST/stm32f4xx.h"
ARM GAS  /tmp/cchgQdZS.s 			page 79


 4316              		.file 6 "ChibiOS_3.0.2/ext/stdperiph_stm32f4/inc/stm32f4xx_tim.h"
 4317              		.file 7 "ChibiOS_3.0.2/ext/stdperiph_stm32f4/inc/stm32f4xx_rcc.h"
 4318              		.file 8 "ChibiOS_3.0.2/os/ext/CMSIS/include/core_cm4.h"
 4319              		.section	.debug_info,"",%progbits
 4320              	.Ldebug_info0:
 4321 0000 12240000 		.4byte	0x2412
 4322 0004 0400     		.2byte	0x4
 4323 0006 00000000 		.4byte	.Ldebug_abbrev0
 4324 000a 04       		.byte	0x4
 4325 000b 01       		.uleb128 0x1
 4326 000c 33030000 		.4byte	.LASF214
 4327 0010 01       		.byte	0x1
 4328 0011 090A0000 		.4byte	.LASF215
 4329 0015 07050000 		.4byte	.LASF216
 4330 0019 A8000000 		.4byte	.Ldebug_ranges0+0xa8
 4331 001d 00000000 		.4byte	0
 4332 0021 00000000 		.4byte	.Ldebug_line0
 4333 0025 02       		.uleb128 0x2
 4334 0026 01       		.byte	0x1
 4335 0027 06       		.byte	0x6
 4336 0028 88020000 		.4byte	.LASF0
 4337 002c 03       		.uleb128 0x3
 4338 002d D0000000 		.4byte	.LASF3
 4339 0031 02       		.byte	0x2
 4340 0032 1D       		.byte	0x1d
 4341 0033 37000000 		.4byte	0x37
 4342 0037 02       		.uleb128 0x2
 4343 0038 01       		.byte	0x1
 4344 0039 08       		.byte	0x8
 4345 003a 61090000 		.4byte	.LASF1
 4346 003e 02       		.uleb128 0x2
 4347 003f 02       		.byte	0x2
 4348 0040 05       		.byte	0x5
 4349 0041 9F090000 		.4byte	.LASF2
 4350 0045 03       		.uleb128 0x3
 4351 0046 BD040000 		.4byte	.LASF4
 4352 004a 02       		.byte	0x2
 4353 004b 2B       		.byte	0x2b
 4354 004c 50000000 		.4byte	0x50
 4355 0050 02       		.uleb128 0x2
 4356 0051 02       		.byte	0x2
 4357 0052 07       		.byte	0x7
 4358 0053 E40B0000 		.4byte	.LASF5
 4359 0057 03       		.uleb128 0x3
 4360 0058 5B0B0000 		.4byte	.LASF6
 4361 005c 02       		.byte	0x2
 4362 005d 3F       		.byte	0x3f
 4363 005e 62000000 		.4byte	0x62
 4364 0062 02       		.uleb128 0x2
 4365 0063 04       		.byte	0x4
 4366 0064 05       		.byte	0x5
 4367 0065 E5020000 		.4byte	.LASF7
 4368 0069 03       		.uleb128 0x3
 4369 006a D4040000 		.4byte	.LASF8
 4370 006e 02       		.byte	0x2
 4371 006f 41       		.byte	0x41
 4372 0070 74000000 		.4byte	0x74
ARM GAS  /tmp/cchgQdZS.s 			page 80


 4373 0074 02       		.uleb128 0x2
 4374 0075 04       		.byte	0x4
 4375 0076 07       		.byte	0x7
 4376 0077 BB0A0000 		.4byte	.LASF9
 4377 007b 02       		.uleb128 0x2
 4378 007c 08       		.byte	0x8
 4379 007d 05       		.byte	0x5
 4380 007e 14030000 		.4byte	.LASF10
 4381 0082 02       		.uleb128 0x2
 4382 0083 08       		.byte	0x8
 4383 0084 07       		.byte	0x7
 4384 0085 AD020000 		.4byte	.LASF11
 4385 0089 04       		.uleb128 0x4
 4386 008a 04       		.byte	0x4
 4387 008b 05       		.byte	0x5
 4388 008c 696E7400 		.ascii	"int\000"
 4389 0090 02       		.uleb128 0x2
 4390 0091 04       		.byte	0x4
 4391 0092 07       		.byte	0x7
 4392 0093 89050000 		.4byte	.LASF12
 4393 0097 03       		.uleb128 0x3
 4394 0098 B80C0000 		.4byte	.LASF13
 4395 009c 03       		.byte	0x3
 4396 009d 2A       		.byte	0x2a
 4397 009e 2C000000 		.4byte	0x2c
 4398 00a2 03       		.uleb128 0x3
 4399 00a3 22030000 		.4byte	.LASF14
 4400 00a7 03       		.byte	0x3
 4401 00a8 36       		.byte	0x36
 4402 00a9 45000000 		.4byte	0x45
 4403 00ad 03       		.uleb128 0x3
 4404 00ae 59090000 		.4byte	.LASF15
 4405 00b2 03       		.byte	0x3
 4406 00b3 41       		.byte	0x41
 4407 00b4 57000000 		.4byte	0x57
 4408 00b8 03       		.uleb128 0x3
 4409 00b9 5E0C0000 		.4byte	.LASF16
 4410 00bd 03       		.byte	0x3
 4411 00be 42       		.byte	0x42
 4412 00bf 69000000 		.4byte	0x69
 4413 00c3 02       		.uleb128 0x2
 4414 00c4 04       		.byte	0x4
 4415 00c5 07       		.byte	0x7
 4416 00c6 9A070000 		.4byte	.LASF17
 4417 00ca 05       		.uleb128 0x5
 4418 00cb B8000000 		.4byte	0xb8
 4419 00cf 06       		.uleb128 0x6
 4420 00d0 54       		.byte	0x54
 4421 00d1 04       		.byte	0x4
 4422 00d2 EC02     		.2byte	0x2ec
 4423 00d4 E8010000 		.4byte	0x1e8
 4424 00d8 07       		.uleb128 0x7
 4425 00d9 43523100 		.ascii	"CR1\000"
 4426 00dd 04       		.byte	0x4
 4427 00de EE02     		.2byte	0x2ee
 4428 00e0 CA000000 		.4byte	0xca
 4429 00e4 00       		.byte	0
ARM GAS  /tmp/cchgQdZS.s 			page 81


 4430 00e5 07       		.uleb128 0x7
 4431 00e6 43523200 		.ascii	"CR2\000"
 4432 00ea 04       		.byte	0x4
 4433 00eb EF02     		.2byte	0x2ef
 4434 00ed CA000000 		.4byte	0xca
 4435 00f1 04       		.byte	0x4
 4436 00f2 08       		.uleb128 0x8
 4437 00f3 82060000 		.4byte	.LASF18
 4438 00f7 04       		.byte	0x4
 4439 00f8 F002     		.2byte	0x2f0
 4440 00fa CA000000 		.4byte	0xca
 4441 00fe 08       		.byte	0x8
 4442 00ff 08       		.uleb128 0x8
 4443 0100 4A000000 		.4byte	.LASF19
 4444 0104 04       		.byte	0x4
 4445 0105 F102     		.2byte	0x2f1
 4446 0107 CA000000 		.4byte	0xca
 4447 010b 0C       		.byte	0xc
 4448 010c 07       		.uleb128 0x7
 4449 010d 535200   		.ascii	"SR\000"
 4450 0110 04       		.byte	0x4
 4451 0111 F202     		.2byte	0x2f2
 4452 0113 CA000000 		.4byte	0xca
 4453 0117 10       		.byte	0x10
 4454 0118 07       		.uleb128 0x7
 4455 0119 45475200 		.ascii	"EGR\000"
 4456 011d 04       		.byte	0x4
 4457 011e F302     		.2byte	0x2f3
 4458 0120 CA000000 		.4byte	0xca
 4459 0124 14       		.byte	0x14
 4460 0125 08       		.uleb128 0x8
 4461 0126 66020000 		.4byte	.LASF20
 4462 012a 04       		.byte	0x4
 4463 012b F402     		.2byte	0x2f4
 4464 012d CA000000 		.4byte	0xca
 4465 0131 18       		.byte	0x18
 4466 0132 08       		.uleb128 0x8
 4467 0133 6C020000 		.4byte	.LASF21
 4468 0137 04       		.byte	0x4
 4469 0138 F502     		.2byte	0x2f5
 4470 013a CA000000 		.4byte	0xca
 4471 013e 1C       		.byte	0x1c
 4472 013f 08       		.uleb128 0x8
 4473 0140 0F030000 		.4byte	.LASF22
 4474 0144 04       		.byte	0x4
 4475 0145 F602     		.2byte	0x2f6
 4476 0147 CA000000 		.4byte	0xca
 4477 014b 20       		.byte	0x20
 4478 014c 07       		.uleb128 0x7
 4479 014d 434E5400 		.ascii	"CNT\000"
 4480 0151 04       		.byte	0x4
 4481 0152 F702     		.2byte	0x2f7
 4482 0154 CA000000 		.4byte	0xca
 4483 0158 24       		.byte	0x24
 4484 0159 07       		.uleb128 0x7
 4485 015a 50534300 		.ascii	"PSC\000"
 4486 015e 04       		.byte	0x4
ARM GAS  /tmp/cchgQdZS.s 			page 82


 4487 015f F802     		.2byte	0x2f8
 4488 0161 CA000000 		.4byte	0xca
 4489 0165 28       		.byte	0x28
 4490 0166 07       		.uleb128 0x7
 4491 0167 41525200 		.ascii	"ARR\000"
 4492 016b 04       		.byte	0x4
 4493 016c F902     		.2byte	0x2f9
 4494 016e CA000000 		.4byte	0xca
 4495 0172 2C       		.byte	0x2c
 4496 0173 07       		.uleb128 0x7
 4497 0174 52435200 		.ascii	"RCR\000"
 4498 0178 04       		.byte	0x4
 4499 0179 FA02     		.2byte	0x2fa
 4500 017b CA000000 		.4byte	0xca
 4501 017f 30       		.byte	0x30
 4502 0180 08       		.uleb128 0x8
 4503 0181 670C0000 		.4byte	.LASF23
 4504 0185 04       		.byte	0x4
 4505 0186 FB02     		.2byte	0x2fb
 4506 0188 CA000000 		.4byte	0xca
 4507 018c 34       		.byte	0x34
 4508 018d 08       		.uleb128 0x8
 4509 018e 86010000 		.4byte	.LASF24
 4510 0192 04       		.byte	0x4
 4511 0193 FC02     		.2byte	0x2fc
 4512 0195 CA000000 		.4byte	0xca
 4513 0199 38       		.byte	0x38
 4514 019a 08       		.uleb128 0x8
 4515 019b 840C0000 		.4byte	.LASF25
 4516 019f 04       		.byte	0x4
 4517 01a0 FD02     		.2byte	0x2fd
 4518 01a2 CA000000 		.4byte	0xca
 4519 01a6 3C       		.byte	0x3c
 4520 01a7 08       		.uleb128 0x8
 4521 01a8 890C0000 		.4byte	.LASF26
 4522 01ac 04       		.byte	0x4
 4523 01ad FE02     		.2byte	0x2fe
 4524 01af CA000000 		.4byte	0xca
 4525 01b3 40       		.byte	0x40
 4526 01b4 08       		.uleb128 0x8
 4527 01b5 A9090000 		.4byte	.LASF27
 4528 01b9 04       		.byte	0x4
 4529 01ba FF02     		.2byte	0x2ff
 4530 01bc CA000000 		.4byte	0xca
 4531 01c0 44       		.byte	0x44
 4532 01c1 07       		.uleb128 0x7
 4533 01c2 44435200 		.ascii	"DCR\000"
 4534 01c6 04       		.byte	0x4
 4535 01c7 0003     		.2byte	0x300
 4536 01c9 CA000000 		.4byte	0xca
 4537 01cd 48       		.byte	0x48
 4538 01ce 08       		.uleb128 0x8
 4539 01cf FD0A0000 		.4byte	.LASF28
 4540 01d3 04       		.byte	0x4
 4541 01d4 0103     		.2byte	0x301
 4542 01d6 CA000000 		.4byte	0xca
 4543 01da 4C       		.byte	0x4c
ARM GAS  /tmp/cchgQdZS.s 			page 83


 4544 01db 07       		.uleb128 0x7
 4545 01dc 4F5200   		.ascii	"OR\000"
 4546 01df 04       		.byte	0x4
 4547 01e0 0203     		.2byte	0x302
 4548 01e2 CA000000 		.4byte	0xca
 4549 01e6 50       		.byte	0x50
 4550 01e7 00       		.byte	0
 4551 01e8 09       		.uleb128 0x9
 4552 01e9 C8040000 		.4byte	.LASF29
 4553 01ed 04       		.byte	0x4
 4554 01ee 0303     		.2byte	0x303
 4555 01f0 CF000000 		.4byte	0xcf
 4556 01f4 0A       		.uleb128 0xa
 4557 01f5 01       		.byte	0x1
 4558 01f6 05       		.byte	0x5
 4559 01f7 A2       		.byte	0xa2
 4560 01f8 09020000 		.4byte	0x209
 4561 01fc 0B       		.uleb128 0xb
 4562 01fd 4B070000 		.4byte	.LASF30
 4563 0201 00       		.sleb128 0
 4564 0202 0C       		.uleb128 0xc
 4565 0203 53455400 		.ascii	"SET\000"
 4566 0207 01       		.sleb128 1
 4567 0208 00       		.byte	0
 4568 0209 03       		.uleb128 0x3
 4569 020a C5000000 		.4byte	.LASF31
 4570 020e 05       		.byte	0x5
 4571 020f A5       		.byte	0xa5
 4572 0210 F4010000 		.4byte	0x1f4
 4573 0214 03       		.uleb128 0x3
 4574 0215 1C090000 		.4byte	.LASF32
 4575 0219 05       		.byte	0x5
 4576 021a A5       		.byte	0xa5
 4577 021b F4010000 		.4byte	0x1f4
 4578 021f 0A       		.uleb128 0xa
 4579 0220 01       		.byte	0x1
 4580 0221 05       		.byte	0x5
 4581 0222 A8       		.byte	0xa8
 4582 0223 34020000 		.4byte	0x234
 4583 0227 0B       		.uleb128 0xb
 4584 0228 60010000 		.4byte	.LASF33
 4585 022c 00       		.sleb128 0
 4586 022d 0B       		.uleb128 0xb
 4587 022e FF020000 		.4byte	.LASF34
 4588 0232 01       		.sleb128 1
 4589 0233 00       		.byte	0
 4590 0234 03       		.uleb128 0x3
 4591 0235 67080000 		.4byte	.LASF35
 4592 0239 05       		.byte	0x5
 4593 023a AB       		.byte	0xab
 4594 023b 1F020000 		.4byte	0x21f
 4595 023f 0D       		.uleb128 0xd
 4596 0240 0C       		.byte	0xc
 4597 0241 06       		.byte	0x6
 4598 0242 37       		.byte	0x37
 4599 0243 84020000 		.4byte	0x284
 4600 0247 0E       		.uleb128 0xe
ARM GAS  /tmp/cchgQdZS.s 			page 84


 4601 0248 30090000 		.4byte	.LASF36
 4602 024c 06       		.byte	0x6
 4603 024d 39       		.byte	0x39
 4604 024e A2000000 		.4byte	0xa2
 4605 0252 00       		.byte	0
 4606 0253 0E       		.uleb128 0xe
 4607 0254 86000000 		.4byte	.LASF37
 4608 0258 06       		.byte	0x6
 4609 0259 3C       		.byte	0x3c
 4610 025a A2000000 		.4byte	0xa2
 4611 025e 02       		.byte	0x2
 4612 025f 0E       		.uleb128 0xe
 4613 0260 220B0000 		.4byte	.LASF38
 4614 0264 06       		.byte	0x6
 4615 0265 3F       		.byte	0x3f
 4616 0266 B8000000 		.4byte	0xb8
 4617 026a 04       		.byte	0x4
 4618 026b 0E       		.uleb128 0xe
 4619 026c B0050000 		.4byte	.LASF39
 4620 0270 06       		.byte	0x6
 4621 0271 43       		.byte	0x43
 4622 0272 A2000000 		.4byte	0xa2
 4623 0276 08       		.byte	0x8
 4624 0277 0E       		.uleb128 0xe
 4625 0278 F20C0000 		.4byte	.LASF40
 4626 027c 06       		.byte	0x6
 4627 027d 46       		.byte	0x46
 4628 027e 97000000 		.4byte	0x97
 4629 0282 0A       		.byte	0xa
 4630 0283 00       		.byte	0
 4631 0284 03       		.uleb128 0x3
 4632 0285 2D0B0000 		.4byte	.LASF41
 4633 0289 06       		.byte	0x6
 4634 028a 4E       		.byte	0x4e
 4635 028b 3F020000 		.4byte	0x23f
 4636 028f 0D       		.uleb128 0xd
 4637 0290 14       		.byte	0x14
 4638 0291 06       		.byte	0x6
 4639 0292 54       		.byte	0x54
 4640 0293 F8020000 		.4byte	0x2f8
 4641 0297 0E       		.uleb128 0xe
 4642 0298 050C0000 		.4byte	.LASF42
 4643 029c 06       		.byte	0x6
 4644 029d 56       		.byte	0x56
 4645 029e A2000000 		.4byte	0xa2
 4646 02a2 00       		.byte	0
 4647 02a3 0E       		.uleb128 0xe
 4648 02a4 ED080000 		.4byte	.LASF43
 4649 02a8 06       		.byte	0x6
 4650 02a9 59       		.byte	0x59
 4651 02aa A2000000 		.4byte	0xa2
 4652 02ae 02       		.byte	0x2
 4653 02af 0E       		.uleb128 0xe
 4654 02b0 EE020000 		.4byte	.LASF44
 4655 02b4 06       		.byte	0x6
 4656 02b5 5C       		.byte	0x5c
 4657 02b6 A2000000 		.4byte	0xa2
ARM GAS  /tmp/cchgQdZS.s 			page 85


 4658 02ba 04       		.byte	0x4
 4659 02bb 0E       		.uleb128 0xe
 4660 02bc 2D010000 		.4byte	.LASF45
 4661 02c0 06       		.byte	0x6
 4662 02c1 60       		.byte	0x60
 4663 02c2 B8000000 		.4byte	0xb8
 4664 02c6 08       		.byte	0x8
 4665 02c7 0E       		.uleb128 0xe
 4666 02c8 A1050000 		.4byte	.LASF46
 4667 02cc 06       		.byte	0x6
 4668 02cd 63       		.byte	0x63
 4669 02ce A2000000 		.4byte	0xa2
 4670 02d2 0C       		.byte	0xc
 4671 02d3 0E       		.uleb128 0xe
 4672 02d4 CD0A0000 		.4byte	.LASF47
 4673 02d8 06       		.byte	0x6
 4674 02d9 66       		.byte	0x66
 4675 02da A2000000 		.4byte	0xa2
 4676 02de 0E       		.byte	0xe
 4677 02df 0E       		.uleb128 0xe
 4678 02e0 6B0D0000 		.4byte	.LASF48
 4679 02e4 06       		.byte	0x6
 4680 02e5 6A       		.byte	0x6a
 4681 02e6 A2000000 		.4byte	0xa2
 4682 02ea 10       		.byte	0x10
 4683 02eb 0E       		.uleb128 0xe
 4684 02ec 2D080000 		.4byte	.LASF49
 4685 02f0 06       		.byte	0x6
 4686 02f1 6E       		.byte	0x6e
 4687 02f2 A2000000 		.4byte	0xa2
 4688 02f6 12       		.byte	0x12
 4689 02f7 00       		.byte	0
 4690 02f8 03       		.uleb128 0x3
 4691 02f9 8E0C0000 		.4byte	.LASF50
 4692 02fd 06       		.byte	0x6
 4693 02fe 71       		.byte	0x71
 4694 02ff 8F020000 		.4byte	0x28f
 4695 0303 0D       		.uleb128 0xd
 4696 0304 0A       		.byte	0xa
 4697 0305 06       		.byte	0x6
 4698 0306 77       		.byte	0x77
 4699 0307 48030000 		.4byte	0x348
 4700 030b 0E       		.uleb128 0xe
 4701 030c 5A020000 		.4byte	.LASF51
 4702 0310 06       		.byte	0x6
 4703 0311 7A       		.byte	0x7a
 4704 0312 A2000000 		.4byte	0xa2
 4705 0316 00       		.byte	0
 4706 0317 0E       		.uleb128 0xe
 4707 0318 0D090000 		.4byte	.LASF52
 4708 031c 06       		.byte	0x6
 4709 031d 7D       		.byte	0x7d
 4710 031e A2000000 		.4byte	0xa2
 4711 0322 02       		.byte	0x2
 4712 0323 0E       		.uleb128 0xe
 4713 0324 E8010000 		.4byte	.LASF53
 4714 0328 06       		.byte	0x6
ARM GAS  /tmp/cchgQdZS.s 			page 86


 4715 0329 80       		.byte	0x80
 4716 032a A2000000 		.4byte	0xa2
 4717 032e 04       		.byte	0x4
 4718 032f 0E       		.uleb128 0xe
 4719 0330 08080000 		.4byte	.LASF54
 4720 0334 06       		.byte	0x6
 4721 0335 83       		.byte	0x83
 4722 0336 A2000000 		.4byte	0xa2
 4723 033a 06       		.byte	0x6
 4724 033b 0E       		.uleb128 0xe
 4725 033c 8B010000 		.4byte	.LASF55
 4726 0340 06       		.byte	0x6
 4727 0341 86       		.byte	0x86
 4728 0342 A2000000 		.4byte	0xa2
 4729 0346 08       		.byte	0x8
 4730 0347 00       		.byte	0
 4731 0348 03       		.uleb128 0x3
 4732 0349 650B0000 		.4byte	.LASF56
 4733 034d 06       		.byte	0x6
 4734 034e 88       		.byte	0x88
 4735 034f 03030000 		.4byte	0x303
 4736 0353 0D       		.uleb128 0xd
 4737 0354 0E       		.byte	0xe
 4738 0355 06       		.byte	0x6
 4739 0356 8F       		.byte	0x8f
 4740 0357 B0030000 		.4byte	0x3b0
 4741 035b 0E       		.uleb128 0xe
 4742 035c 87060000 		.4byte	.LASF57
 4743 0360 06       		.byte	0x6
 4744 0361 92       		.byte	0x92
 4745 0362 A2000000 		.4byte	0xa2
 4746 0366 00       		.byte	0
 4747 0367 0E       		.uleb128 0xe
 4748 0368 410A0000 		.4byte	.LASF58
 4749 036c 06       		.byte	0x6
 4750 036d 95       		.byte	0x95
 4751 036e A2000000 		.4byte	0xa2
 4752 0372 02       		.byte	0x2
 4753 0373 0E       		.uleb128 0xe
 4754 0374 6F090000 		.4byte	.LASF59
 4755 0378 06       		.byte	0x6
 4756 0379 98       		.byte	0x98
 4757 037a A2000000 		.4byte	0xa2
 4758 037e 04       		.byte	0x4
 4759 037f 0E       		.uleb128 0xe
 4760 0380 D1070000 		.4byte	.LASF60
 4761 0384 06       		.byte	0x6
 4762 0385 9B       		.byte	0x9b
 4763 0386 A2000000 		.4byte	0xa2
 4764 038a 06       		.byte	0x6
 4765 038b 0E       		.uleb128 0xe
 4766 038c B7070000 		.4byte	.LASF61
 4767 0390 06       		.byte	0x6
 4768 0391 9F       		.byte	0x9f
 4769 0392 A2000000 		.4byte	0xa2
 4770 0396 08       		.byte	0x8
 4771 0397 0E       		.uleb128 0xe
ARM GAS  /tmp/cchgQdZS.s 			page 87


 4772 0398 200C0000 		.4byte	.LASF62
 4773 039c 06       		.byte	0x6
 4774 039d A2       		.byte	0xa2
 4775 039e A2000000 		.4byte	0xa2
 4776 03a2 0A       		.byte	0xa
 4777 03a3 0E       		.uleb128 0xe
 4778 03a4 C0060000 		.4byte	.LASF63
 4779 03a8 06       		.byte	0x6
 4780 03a9 A5       		.byte	0xa5
 4781 03aa A2000000 		.4byte	0xa2
 4782 03ae 0C       		.byte	0xc
 4783 03af 00       		.byte	0
 4784 03b0 03       		.uleb128 0x3
 4785 03b1 5D060000 		.4byte	.LASF64
 4786 03b5 06       		.byte	0x6
 4787 03b6 A7       		.byte	0xa7
 4788 03b7 53030000 		.4byte	0x353
 4789 03bb 0F       		.uleb128 0xf
 4790 03bc 25090000 		.4byte	.LASF69
 4791 03c0 01       		.byte	0x1
 4792 03c1 880C     		.2byte	0xc88
 4793 03c3 01       		.byte	0x1
 4794 03c4 11040000 		.4byte	0x411
 4795 03c8 10       		.uleb128 0x10
 4796 03c9 95060000 		.4byte	.LASF65
 4797 03cd 01       		.byte	0x1
 4798 03ce 880C     		.2byte	0xc88
 4799 03d0 11040000 		.4byte	0x411
 4800 03d4 10       		.uleb128 0x10
 4801 03d5 0D090000 		.4byte	.LASF52
 4802 03d9 01       		.byte	0x1
 4803 03da 880C     		.2byte	0xc88
 4804 03dc A2000000 		.4byte	0xa2
 4805 03e0 10       		.uleb128 0x10
 4806 03e1 E8010000 		.4byte	.LASF53
 4807 03e5 01       		.byte	0x1
 4808 03e6 880C     		.2byte	0xc88
 4809 03e8 A2000000 		.4byte	0xa2
 4810 03ec 10       		.uleb128 0x10
 4811 03ed 8B010000 		.4byte	.LASF55
 4812 03f1 01       		.byte	0x1
 4813 03f2 890C     		.2byte	0xc89
 4814 03f4 A2000000 		.4byte	0xa2
 4815 03f8 11       		.uleb128 0x11
 4816 03f9 4E010000 		.4byte	.LASF66
 4817 03fd 01       		.byte	0x1
 4818 03fe 8B0C     		.2byte	0xc8b
 4819 0400 A2000000 		.4byte	0xa2
 4820 0404 11       		.uleb128 0x11
 4821 0405 6A050000 		.4byte	.LASF67
 4822 0409 01       		.byte	0x1
 4823 040a 8B0C     		.2byte	0xc8b
 4824 040c A2000000 		.4byte	0xa2
 4825 0410 00       		.byte	0
 4826 0411 12       		.uleb128 0x12
 4827 0412 04       		.byte	0x4
 4828 0413 E8010000 		.4byte	0x1e8
ARM GAS  /tmp/cchgQdZS.s 			page 88


 4829 0417 13       		.uleb128 0x13
 4830 0418 EC060000 		.4byte	.LASF71
 4831 041c 01       		.byte	0x1
 4832 041d 3308     		.2byte	0x833
 4833 041f 01       		.byte	0x1
 4834 0420 3D040000 		.4byte	0x43d
 4835 0424 10       		.uleb128 0x10
 4836 0425 95060000 		.4byte	.LASF65
 4837 0429 01       		.byte	0x1
 4838 042a 3308     		.2byte	0x833
 4839 042c 11040000 		.4byte	0x411
 4840 0430 10       		.uleb128 0x10
 4841 0431 870D0000 		.4byte	.LASF68
 4842 0435 01       		.byte	0x1
 4843 0436 3308     		.2byte	0x833
 4844 0438 A2000000 		.4byte	0xa2
 4845 043c 00       		.byte	0
 4846 043d 0F       		.uleb128 0xf
 4847 043e 8C0A0000 		.4byte	.LASF70
 4848 0442 01       		.byte	0x1
 4849 0443 B10C     		.2byte	0xcb1
 4850 0445 01       		.byte	0x1
 4851 0446 9F040000 		.4byte	0x49f
 4852 044a 10       		.uleb128 0x10
 4853 044b 95060000 		.4byte	.LASF65
 4854 044f 01       		.byte	0x1
 4855 0450 B10C     		.2byte	0xcb1
 4856 0452 11040000 		.4byte	0x411
 4857 0456 10       		.uleb128 0x10
 4858 0457 0D090000 		.4byte	.LASF52
 4859 045b 01       		.byte	0x1
 4860 045c B10C     		.2byte	0xcb1
 4861 045e A2000000 		.4byte	0xa2
 4862 0462 10       		.uleb128 0x10
 4863 0463 E8010000 		.4byte	.LASF53
 4864 0467 01       		.byte	0x1
 4865 0468 B10C     		.2byte	0xcb1
 4866 046a A2000000 		.4byte	0xa2
 4867 046e 10       		.uleb128 0x10
 4868 046f 8B010000 		.4byte	.LASF55
 4869 0473 01       		.byte	0x1
 4870 0474 B20C     		.2byte	0xcb2
 4871 0476 A2000000 		.4byte	0xa2
 4872 047a 11       		.uleb128 0x11
 4873 047b 4E010000 		.4byte	.LASF66
 4874 047f 01       		.byte	0x1
 4875 0480 B40C     		.2byte	0xcb4
 4876 0482 A2000000 		.4byte	0xa2
 4877 0486 11       		.uleb128 0x11
 4878 0487 6A050000 		.4byte	.LASF67
 4879 048b 01       		.byte	0x1
 4880 048c B40C     		.2byte	0xcb4
 4881 048e A2000000 		.4byte	0xa2
 4882 0492 14       		.uleb128 0x14
 4883 0493 746D7000 		.ascii	"tmp\000"
 4884 0497 01       		.byte	0x1
 4885 0498 B40C     		.2byte	0xcb4
ARM GAS  /tmp/cchgQdZS.s 			page 89


 4886 049a A2000000 		.4byte	0xa2
 4887 049e 00       		.byte	0
 4888 049f 13       		.uleb128 0x13
 4889 04a0 AE090000 		.4byte	.LASF72
 4890 04a4 01       		.byte	0x1
 4891 04a5 4C08     		.2byte	0x84c
 4892 04a7 01       		.byte	0x1
 4893 04a8 C5040000 		.4byte	0x4c5
 4894 04ac 10       		.uleb128 0x10
 4895 04ad 95060000 		.4byte	.LASF65
 4896 04b1 01       		.byte	0x1
 4897 04b2 4C08     		.2byte	0x84c
 4898 04b4 11040000 		.4byte	0x411
 4899 04b8 10       		.uleb128 0x10
 4900 04b9 870D0000 		.4byte	.LASF68
 4901 04bd 01       		.byte	0x1
 4902 04be 4C08     		.2byte	0x84c
 4903 04c0 A2000000 		.4byte	0xa2
 4904 04c4 00       		.byte	0
 4905 04c5 0F       		.uleb128 0xf
 4906 04c6 0F070000 		.4byte	.LASF73
 4907 04ca 01       		.byte	0x1
 4908 04cb DB0C     		.2byte	0xcdb
 4909 04cd 01       		.byte	0x1
 4910 04ce 27050000 		.4byte	0x527
 4911 04d2 10       		.uleb128 0x10
 4912 04d3 95060000 		.4byte	.LASF65
 4913 04d7 01       		.byte	0x1
 4914 04d8 DB0C     		.2byte	0xcdb
 4915 04da 11040000 		.4byte	0x411
 4916 04de 10       		.uleb128 0x10
 4917 04df 0D090000 		.4byte	.LASF52
 4918 04e3 01       		.byte	0x1
 4919 04e4 DB0C     		.2byte	0xcdb
 4920 04e6 A2000000 		.4byte	0xa2
 4921 04ea 10       		.uleb128 0x10
 4922 04eb E8010000 		.4byte	.LASF53
 4923 04ef 01       		.byte	0x1
 4924 04f0 DB0C     		.2byte	0xcdb
 4925 04f2 A2000000 		.4byte	0xa2
 4926 04f6 10       		.uleb128 0x10
 4927 04f7 8B010000 		.4byte	.LASF55
 4928 04fb 01       		.byte	0x1
 4929 04fc DC0C     		.2byte	0xcdc
 4930 04fe A2000000 		.4byte	0xa2
 4931 0502 11       		.uleb128 0x11
 4932 0503 57010000 		.4byte	.LASF74
 4933 0507 01       		.byte	0x1
 4934 0508 DE0C     		.2byte	0xcde
 4935 050a A2000000 		.4byte	0xa2
 4936 050e 11       		.uleb128 0x11
 4937 050f 6A050000 		.4byte	.LASF67
 4938 0513 01       		.byte	0x1
 4939 0514 DE0C     		.2byte	0xcde
 4940 0516 A2000000 		.4byte	0xa2
 4941 051a 14       		.uleb128 0x14
 4942 051b 746D7000 		.ascii	"tmp\000"
ARM GAS  /tmp/cchgQdZS.s 			page 90


 4943 051f 01       		.byte	0x1
 4944 0520 DE0C     		.2byte	0xcde
 4945 0522 A2000000 		.4byte	0xa2
 4946 0526 00       		.byte	0
 4947 0527 13       		.uleb128 0x13
 4948 0528 020B0000 		.4byte	.LASF75
 4949 052c 01       		.byte	0x1
 4950 052d 6408     		.2byte	0x864
 4951 052f 01       		.byte	0x1
 4952 0530 4D050000 		.4byte	0x54d
 4953 0534 10       		.uleb128 0x10
 4954 0535 95060000 		.4byte	.LASF65
 4955 0539 01       		.byte	0x1
 4956 053a 6408     		.2byte	0x864
 4957 053c 11040000 		.4byte	0x411
 4958 0540 10       		.uleb128 0x10
 4959 0541 870D0000 		.4byte	.LASF68
 4960 0545 01       		.byte	0x1
 4961 0546 6408     		.2byte	0x864
 4962 0548 A2000000 		.4byte	0xa2
 4963 054c 00       		.byte	0
 4964 054d 0F       		.uleb128 0xf
 4965 054e 96050000 		.4byte	.LASF76
 4966 0552 01       		.byte	0x1
 4967 0553 040D     		.2byte	0xd04
 4968 0555 01       		.byte	0x1
 4969 0556 AF050000 		.4byte	0x5af
 4970 055a 10       		.uleb128 0x10
 4971 055b 95060000 		.4byte	.LASF65
 4972 055f 01       		.byte	0x1
 4973 0560 040D     		.2byte	0xd04
 4974 0562 11040000 		.4byte	0x411
 4975 0566 10       		.uleb128 0x10
 4976 0567 0D090000 		.4byte	.LASF52
 4977 056b 01       		.byte	0x1
 4978 056c 040D     		.2byte	0xd04
 4979 056e A2000000 		.4byte	0xa2
 4980 0572 10       		.uleb128 0x10
 4981 0573 E8010000 		.4byte	.LASF53
 4982 0577 01       		.byte	0x1
 4983 0578 040D     		.2byte	0xd04
 4984 057a A2000000 		.4byte	0xa2
 4985 057e 10       		.uleb128 0x10
 4986 057f 8B010000 		.4byte	.LASF55
 4987 0583 01       		.byte	0x1
 4988 0584 050D     		.2byte	0xd05
 4989 0586 A2000000 		.4byte	0xa2
 4990 058a 11       		.uleb128 0x11
 4991 058b 57010000 		.4byte	.LASF74
 4992 058f 01       		.byte	0x1
 4993 0590 070D     		.2byte	0xd07
 4994 0592 A2000000 		.4byte	0xa2
 4995 0596 11       		.uleb128 0x11
 4996 0597 6A050000 		.4byte	.LASF67
 4997 059b 01       		.byte	0x1
 4998 059c 070D     		.2byte	0xd07
 4999 059e A2000000 		.4byte	0xa2
ARM GAS  /tmp/cchgQdZS.s 			page 91


 5000 05a2 14       		.uleb128 0x14
 5001 05a3 746D7000 		.ascii	"tmp\000"
 5002 05a7 01       		.byte	0x1
 5003 05a8 070D     		.2byte	0xd07
 5004 05aa A2000000 		.4byte	0xa2
 5005 05ae 00       		.byte	0
 5006 05af 13       		.uleb128 0x13
 5007 05b0 D10D0000 		.4byte	.LASF77
 5008 05b4 01       		.byte	0x1
 5009 05b5 7C08     		.2byte	0x87c
 5010 05b7 01       		.byte	0x1
 5011 05b8 D5050000 		.4byte	0x5d5
 5012 05bc 10       		.uleb128 0x10
 5013 05bd 95060000 		.4byte	.LASF65
 5014 05c1 01       		.byte	0x1
 5015 05c2 7C08     		.2byte	0x87c
 5016 05c4 11040000 		.4byte	0x411
 5017 05c8 10       		.uleb128 0x10
 5018 05c9 870D0000 		.4byte	.LASF68
 5019 05cd 01       		.byte	0x1
 5020 05ce 7C08     		.2byte	0x87c
 5021 05d0 A2000000 		.4byte	0xa2
 5022 05d4 00       		.byte	0
 5023 05d5 13       		.uleb128 0x13
 5024 05d6 6F010000 		.4byte	.LASF78
 5025 05da 01       		.byte	0x1
 5026 05db 500B     		.2byte	0xb50
 5027 05dd 01       		.byte	0x1
 5028 05de 07060000 		.4byte	0x607
 5029 05e2 10       		.uleb128 0x10
 5030 05e3 95060000 		.4byte	.LASF65
 5031 05e7 01       		.byte	0x1
 5032 05e8 500B     		.2byte	0xb50
 5033 05ea 11040000 		.4byte	0x411
 5034 05ee 10       		.uleb128 0x10
 5035 05ef 60000000 		.4byte	.LASF79
 5036 05f3 01       		.byte	0x1
 5037 05f4 500B     		.2byte	0xb50
 5038 05f6 A2000000 		.4byte	0xa2
 5039 05fa 11       		.uleb128 0x11
 5040 05fb 51070000 		.4byte	.LASF80
 5041 05ff 01       		.byte	0x1
 5042 0600 520B     		.2byte	0xb52
 5043 0602 A2000000 		.4byte	0xa2
 5044 0606 00       		.byte	0
 5045 0607 13       		.uleb128 0x13
 5046 0608 910D0000 		.4byte	.LASF81
 5047 060c 01       		.byte	0x1
 5048 060d C80B     		.2byte	0xbc8
 5049 060f 01       		.byte	0x1
 5050 0610 51060000 		.4byte	0x651
 5051 0614 10       		.uleb128 0x10
 5052 0615 95060000 		.4byte	.LASF65
 5053 0619 01       		.byte	0x1
 5054 061a C80B     		.2byte	0xbc8
 5055 061c 11040000 		.4byte	0x411
 5056 0620 10       		.uleb128 0x10
ARM GAS  /tmp/cchgQdZS.s 			page 92


 5057 0621 A3070000 		.4byte	.LASF82
 5058 0625 01       		.byte	0x1
 5059 0626 C80B     		.2byte	0xbc8
 5060 0628 A2000000 		.4byte	0xa2
 5061 062c 10       		.uleb128 0x10
 5062 062d 59070000 		.4byte	.LASF83
 5063 0631 01       		.byte	0x1
 5064 0632 C90B     		.2byte	0xbc9
 5065 0634 A2000000 		.4byte	0xa2
 5066 0638 10       		.uleb128 0x10
 5067 0639 510D0000 		.4byte	.LASF84
 5068 063d 01       		.byte	0x1
 5069 063e C90B     		.2byte	0xbc9
 5070 0640 A2000000 		.4byte	0xa2
 5071 0644 11       		.uleb128 0x11
 5072 0645 51070000 		.4byte	.LASF80
 5073 0649 01       		.byte	0x1
 5074 064a CB0B     		.2byte	0xbcb
 5075 064c A2000000 		.4byte	0xa2
 5076 0650 00       		.byte	0
 5077 0651 15       		.uleb128 0x15
 5078 0652 9F0D0000 		.4byte	.LASF85
 5079 0656 01       		.byte	0x1
 5080 0657 CC       		.byte	0xcc
 5081 0658 00000000 		.4byte	.LFB112
 5082 065c B8010000 		.4byte	.LFE112-.LFB112
 5083 0660 01       		.uleb128 0x1
 5084 0661 9C       		.byte	0x9c
 5085 0662 28090000 		.4byte	0x928
 5086 0666 16       		.uleb128 0x16
 5087 0667 95060000 		.4byte	.LASF65
 5088 066b 01       		.byte	0x1
 5089 066c CC       		.byte	0xcc
 5090 066d 11040000 		.4byte	0x411
 5091 0671 00000000 		.4byte	.LLST0
 5092 0675 17       		.uleb128 0x17
 5093 0676 66000000 		.4byte	.LVL2
 5094 067a EB230000 		.4byte	0x23eb
 5095 067e 8F060000 		.4byte	0x68f
 5096 0682 18       		.uleb128 0x18
 5097 0683 01       		.uleb128 0x1
 5098 0684 51       		.byte	0x51
 5099 0685 01       		.uleb128 0x1
 5100 0686 31       		.byte	0x31
 5101 0687 18       		.uleb128 0x18
 5102 0688 01       		.uleb128 0x1
 5103 0689 50       		.byte	0x50
 5104 068a 03       		.uleb128 0x3
 5105 068b 0A       		.byte	0xa
 5106 068c 0001     		.2byte	0x100
 5107 068e 00       		.byte	0
 5108 068f 19       		.uleb128 0x19
 5109 0690 74000000 		.4byte	.LVL3
 5110 0694 EB230000 		.4byte	0x23eb
 5111 0698 A9060000 		.4byte	0x6a9
 5112 069c 18       		.uleb128 0x18
 5113 069d 01       		.uleb128 0x1
ARM GAS  /tmp/cchgQdZS.s 			page 93


 5114 069e 51       		.byte	0x51
 5115 069f 01       		.uleb128 0x1
 5116 06a0 30       		.byte	0x30
 5117 06a1 18       		.uleb128 0x18
 5118 06a2 01       		.uleb128 0x1
 5119 06a3 50       		.byte	0x50
 5120 06a4 03       		.uleb128 0x3
 5121 06a5 0A       		.byte	0xa
 5122 06a6 0001     		.2byte	0x100
 5123 06a8 00       		.byte	0
 5124 06a9 17       		.uleb128 0x17
 5125 06aa 7C000000 		.4byte	.LVL5
 5126 06ae 02240000 		.4byte	0x2402
 5127 06b2 C1060000 		.4byte	0x6c1
 5128 06b6 18       		.uleb128 0x18
 5129 06b7 01       		.uleb128 0x1
 5130 06b8 51       		.byte	0x51
 5131 06b9 01       		.uleb128 0x1
 5132 06ba 31       		.byte	0x31
 5133 06bb 18       		.uleb128 0x18
 5134 06bc 01       		.uleb128 0x1
 5135 06bd 50       		.byte	0x50
 5136 06be 01       		.uleb128 0x1
 5137 06bf 31       		.byte	0x31
 5138 06c0 00       		.byte	0
 5139 06c1 19       		.uleb128 0x19
 5140 06c2 88000000 		.4byte	.LVL6
 5141 06c6 02240000 		.4byte	0x2402
 5142 06ca D9060000 		.4byte	0x6d9
 5143 06ce 18       		.uleb128 0x18
 5144 06cf 01       		.uleb128 0x1
 5145 06d0 51       		.byte	0x51
 5146 06d1 01       		.uleb128 0x1
 5147 06d2 30       		.byte	0x30
 5148 06d3 18       		.uleb128 0x18
 5149 06d4 01       		.uleb128 0x1
 5150 06d5 50       		.byte	0x50
 5151 06d6 01       		.uleb128 0x1
 5152 06d7 31       		.byte	0x31
 5153 06d8 00       		.byte	0
 5154 06d9 17       		.uleb128 0x17
 5155 06da 90000000 		.4byte	.LVL8
 5156 06de EB230000 		.4byte	0x23eb
 5157 06e2 F1060000 		.4byte	0x6f1
 5158 06e6 18       		.uleb128 0x18
 5159 06e7 01       		.uleb128 0x1
 5160 06e8 51       		.byte	0x51
 5161 06e9 01       		.uleb128 0x1
 5162 06ea 31       		.byte	0x31
 5163 06eb 18       		.uleb128 0x18
 5164 06ec 01       		.uleb128 0x1
 5165 06ed 50       		.byte	0x50
 5166 06ee 01       		.uleb128 0x1
 5167 06ef 31       		.byte	0x31
 5168 06f0 00       		.byte	0
 5169 06f1 19       		.uleb128 0x19
 5170 06f2 9C000000 		.4byte	.LVL9
ARM GAS  /tmp/cchgQdZS.s 			page 94


 5171 06f6 EB230000 		.4byte	0x23eb
 5172 06fa 09070000 		.4byte	0x709
 5173 06fe 18       		.uleb128 0x18
 5174 06ff 01       		.uleb128 0x1
 5175 0700 51       		.byte	0x51
 5176 0701 01       		.uleb128 0x1
 5177 0702 30       		.byte	0x30
 5178 0703 18       		.uleb128 0x18
 5179 0704 01       		.uleb128 0x1
 5180 0705 50       		.byte	0x50
 5181 0706 01       		.uleb128 0x1
 5182 0707 31       		.byte	0x31
 5183 0708 00       		.byte	0
 5184 0709 17       		.uleb128 0x17
 5185 070a A4000000 		.4byte	.LVL11
 5186 070e EB230000 		.4byte	0x23eb
 5187 0712 21070000 		.4byte	0x721
 5188 0716 18       		.uleb128 0x18
 5189 0717 01       		.uleb128 0x1
 5190 0718 51       		.byte	0x51
 5191 0719 01       		.uleb128 0x1
 5192 071a 31       		.byte	0x31
 5193 071b 18       		.uleb128 0x18
 5194 071c 01       		.uleb128 0x1
 5195 071d 50       		.byte	0x50
 5196 071e 01       		.uleb128 0x1
 5197 071f 32       		.byte	0x32
 5198 0720 00       		.byte	0
 5199 0721 19       		.uleb128 0x19
 5200 0722 B0000000 		.4byte	.LVL12
 5201 0726 EB230000 		.4byte	0x23eb
 5202 072a 39070000 		.4byte	0x739
 5203 072e 18       		.uleb128 0x18
 5204 072f 01       		.uleb128 0x1
 5205 0730 51       		.byte	0x51
 5206 0731 01       		.uleb128 0x1
 5207 0732 30       		.byte	0x30
 5208 0733 18       		.uleb128 0x18
 5209 0734 01       		.uleb128 0x1
 5210 0735 50       		.byte	0x50
 5211 0736 01       		.uleb128 0x1
 5212 0737 32       		.byte	0x32
 5213 0738 00       		.byte	0
 5214 0739 17       		.uleb128 0x17
 5215 073a B8000000 		.4byte	.LVL14
 5216 073e EB230000 		.4byte	0x23eb
 5217 0742 51070000 		.4byte	0x751
 5218 0746 18       		.uleb128 0x18
 5219 0747 01       		.uleb128 0x1
 5220 0748 51       		.byte	0x51
 5221 0749 01       		.uleb128 0x1
 5222 074a 31       		.byte	0x31
 5223 074b 18       		.uleb128 0x18
 5224 074c 01       		.uleb128 0x1
 5225 074d 50       		.byte	0x50
 5226 074e 01       		.uleb128 0x1
 5227 074f 34       		.byte	0x34
ARM GAS  /tmp/cchgQdZS.s 			page 95


 5228 0750 00       		.byte	0
 5229 0751 19       		.uleb128 0x19
 5230 0752 C4000000 		.4byte	.LVL15
 5231 0756 EB230000 		.4byte	0x23eb
 5232 075a 69070000 		.4byte	0x769
 5233 075e 18       		.uleb128 0x18
 5234 075f 01       		.uleb128 0x1
 5235 0760 51       		.byte	0x51
 5236 0761 01       		.uleb128 0x1
 5237 0762 30       		.byte	0x30
 5238 0763 18       		.uleb128 0x18
 5239 0764 01       		.uleb128 0x1
 5240 0765 50       		.byte	0x50
 5241 0766 01       		.uleb128 0x1
 5242 0767 34       		.byte	0x34
 5243 0768 00       		.byte	0
 5244 0769 17       		.uleb128 0x17
 5245 076a CC000000 		.4byte	.LVL17
 5246 076e EB230000 		.4byte	0x23eb
 5247 0772 81070000 		.4byte	0x781
 5248 0776 18       		.uleb128 0x18
 5249 0777 01       		.uleb128 0x1
 5250 0778 51       		.byte	0x51
 5251 0779 01       		.uleb128 0x1
 5252 077a 31       		.byte	0x31
 5253 077b 18       		.uleb128 0x18
 5254 077c 01       		.uleb128 0x1
 5255 077d 50       		.byte	0x50
 5256 077e 01       		.uleb128 0x1
 5257 077f 38       		.byte	0x38
 5258 0780 00       		.byte	0
 5259 0781 19       		.uleb128 0x19
 5260 0782 D8000000 		.4byte	.LVL18
 5261 0786 EB230000 		.4byte	0x23eb
 5262 078a 99070000 		.4byte	0x799
 5263 078e 18       		.uleb128 0x18
 5264 078f 01       		.uleb128 0x1
 5265 0790 51       		.byte	0x51
 5266 0791 01       		.uleb128 0x1
 5267 0792 30       		.byte	0x30
 5268 0793 18       		.uleb128 0x18
 5269 0794 01       		.uleb128 0x1
 5270 0795 50       		.byte	0x50
 5271 0796 01       		.uleb128 0x1
 5272 0797 38       		.byte	0x38
 5273 0798 00       		.byte	0
 5274 0799 17       		.uleb128 0x17
 5275 079a E0000000 		.4byte	.LVL20
 5276 079e EB230000 		.4byte	0x23eb
 5277 07a2 B1070000 		.4byte	0x7b1
 5278 07a6 18       		.uleb128 0x18
 5279 07a7 01       		.uleb128 0x1
 5280 07a8 51       		.byte	0x51
 5281 07a9 01       		.uleb128 0x1
 5282 07aa 31       		.byte	0x31
 5283 07ab 18       		.uleb128 0x18
 5284 07ac 01       		.uleb128 0x1
ARM GAS  /tmp/cchgQdZS.s 			page 96


 5285 07ad 50       		.byte	0x50
 5286 07ae 01       		.uleb128 0x1
 5287 07af 40       		.byte	0x40
 5288 07b0 00       		.byte	0
 5289 07b1 19       		.uleb128 0x19
 5290 07b2 EC000000 		.4byte	.LVL21
 5291 07b6 EB230000 		.4byte	0x23eb
 5292 07ba C9070000 		.4byte	0x7c9
 5293 07be 18       		.uleb128 0x18
 5294 07bf 01       		.uleb128 0x1
 5295 07c0 51       		.byte	0x51
 5296 07c1 01       		.uleb128 0x1
 5297 07c2 30       		.byte	0x30
 5298 07c3 18       		.uleb128 0x18
 5299 07c4 01       		.uleb128 0x1
 5300 07c5 50       		.byte	0x50
 5301 07c6 01       		.uleb128 0x1
 5302 07c7 40       		.byte	0x40
 5303 07c8 00       		.byte	0
 5304 07c9 17       		.uleb128 0x17
 5305 07ca F4000000 		.4byte	.LVL23
 5306 07ce EB230000 		.4byte	0x23eb
 5307 07d2 E2070000 		.4byte	0x7e2
 5308 07d6 18       		.uleb128 0x18
 5309 07d7 01       		.uleb128 0x1
 5310 07d8 51       		.byte	0x51
 5311 07d9 01       		.uleb128 0x1
 5312 07da 31       		.byte	0x31
 5313 07db 18       		.uleb128 0x18
 5314 07dc 01       		.uleb128 0x1
 5315 07dd 50       		.byte	0x50
 5316 07de 02       		.uleb128 0x2
 5317 07df 08       		.byte	0x8
 5318 07e0 20       		.byte	0x20
 5319 07e1 00       		.byte	0
 5320 07e2 19       		.uleb128 0x19
 5321 07e3 00010000 		.4byte	.LVL24
 5322 07e7 EB230000 		.4byte	0x23eb
 5323 07eb FB070000 		.4byte	0x7fb
 5324 07ef 18       		.uleb128 0x18
 5325 07f0 01       		.uleb128 0x1
 5326 07f1 51       		.byte	0x51
 5327 07f2 01       		.uleb128 0x1
 5328 07f3 30       		.byte	0x30
 5329 07f4 18       		.uleb128 0x18
 5330 07f5 01       		.uleb128 0x1
 5331 07f6 50       		.byte	0x50
 5332 07f7 02       		.uleb128 0x2
 5333 07f8 08       		.byte	0x8
 5334 07f9 20       		.byte	0x20
 5335 07fa 00       		.byte	0
 5336 07fb 17       		.uleb128 0x17
 5337 07fc 08010000 		.4byte	.LVL26
 5338 0800 02240000 		.4byte	0x2402
 5339 0804 13080000 		.4byte	0x813
 5340 0808 18       		.uleb128 0x18
 5341 0809 01       		.uleb128 0x1
ARM GAS  /tmp/cchgQdZS.s 			page 97


 5342 080a 51       		.byte	0x51
 5343 080b 01       		.uleb128 0x1
 5344 080c 31       		.byte	0x31
 5345 080d 18       		.uleb128 0x18
 5346 080e 01       		.uleb128 0x1
 5347 080f 50       		.byte	0x50
 5348 0810 01       		.uleb128 0x1
 5349 0811 32       		.byte	0x32
 5350 0812 00       		.byte	0
 5351 0813 19       		.uleb128 0x19
 5352 0814 14010000 		.4byte	.LVL27
 5353 0818 02240000 		.4byte	0x2402
 5354 081c 2B080000 		.4byte	0x82b
 5355 0820 18       		.uleb128 0x18
 5356 0821 01       		.uleb128 0x1
 5357 0822 51       		.byte	0x51
 5358 0823 01       		.uleb128 0x1
 5359 0824 30       		.byte	0x30
 5360 0825 18       		.uleb128 0x18
 5361 0826 01       		.uleb128 0x1
 5362 0827 50       		.byte	0x50
 5363 0828 01       		.uleb128 0x1
 5364 0829 32       		.byte	0x32
 5365 082a 00       		.byte	0
 5366 082b 17       		.uleb128 0x17
 5367 082c 1E010000 		.4byte	.LVL29
 5368 0830 02240000 		.4byte	0x2402
 5369 0834 45080000 		.4byte	0x845
 5370 0838 18       		.uleb128 0x18
 5371 0839 01       		.uleb128 0x1
 5372 083a 51       		.byte	0x51
 5373 083b 01       		.uleb128 0x1
 5374 083c 31       		.byte	0x31
 5375 083d 18       		.uleb128 0x18
 5376 083e 01       		.uleb128 0x1
 5377 083f 50       		.byte	0x50
 5378 0840 03       		.uleb128 0x3
 5379 0841 40       		.byte	0x40
 5380 0842 3C       		.byte	0x3c
 5381 0843 24       		.byte	0x24
 5382 0844 00       		.byte	0
 5383 0845 19       		.uleb128 0x19
 5384 0846 2C010000 		.4byte	.LVL30
 5385 084a 02240000 		.4byte	0x2402
 5386 084e 5F080000 		.4byte	0x85f
 5387 0852 18       		.uleb128 0x18
 5388 0853 01       		.uleb128 0x1
 5389 0854 51       		.byte	0x51
 5390 0855 01       		.uleb128 0x1
 5391 0856 30       		.byte	0x30
 5392 0857 18       		.uleb128 0x18
 5393 0858 01       		.uleb128 0x1
 5394 0859 50       		.byte	0x50
 5395 085a 03       		.uleb128 0x3
 5396 085b 40       		.byte	0x40
 5397 085c 3C       		.byte	0x3c
 5398 085d 24       		.byte	0x24
ARM GAS  /tmp/cchgQdZS.s 			page 98


 5399 085e 00       		.byte	0
 5400 085f 17       		.uleb128 0x17
 5401 0860 36010000 		.4byte	.LVL32
 5402 0864 02240000 		.4byte	0x2402
 5403 0868 79080000 		.4byte	0x879
 5404 086c 18       		.uleb128 0x18
 5405 086d 01       		.uleb128 0x1
 5406 086e 51       		.byte	0x51
 5407 086f 01       		.uleb128 0x1
 5408 0870 31       		.byte	0x31
 5409 0871 18       		.uleb128 0x18
 5410 0872 01       		.uleb128 0x1
 5411 0873 50       		.byte	0x50
 5412 0874 03       		.uleb128 0x3
 5413 0875 40       		.byte	0x40
 5414 0876 3D       		.byte	0x3d
 5415 0877 24       		.byte	0x24
 5416 0878 00       		.byte	0
 5417 0879 19       		.uleb128 0x19
 5418 087a 44010000 		.4byte	.LVL33
 5419 087e 02240000 		.4byte	0x2402
 5420 0882 93080000 		.4byte	0x893
 5421 0886 18       		.uleb128 0x18
 5422 0887 01       		.uleb128 0x1
 5423 0888 51       		.byte	0x51
 5424 0889 01       		.uleb128 0x1
 5425 088a 30       		.byte	0x30
 5426 088b 18       		.uleb128 0x18
 5427 088c 01       		.uleb128 0x1
 5428 088d 50       		.byte	0x50
 5429 088e 03       		.uleb128 0x3
 5430 088f 40       		.byte	0x40
 5431 0890 3D       		.byte	0x3d
 5432 0891 24       		.byte	0x24
 5433 0892 00       		.byte	0
 5434 0893 17       		.uleb128 0x17
 5435 0894 4E010000 		.4byte	.LVL35
 5436 0898 02240000 		.4byte	0x2402
 5437 089c AD080000 		.4byte	0x8ad
 5438 08a0 18       		.uleb128 0x18
 5439 08a1 01       		.uleb128 0x1
 5440 08a2 51       		.byte	0x51
 5441 08a3 01       		.uleb128 0x1
 5442 08a4 31       		.byte	0x31
 5443 08a5 18       		.uleb128 0x18
 5444 08a6 01       		.uleb128 0x1
 5445 08a7 50       		.byte	0x50
 5446 08a8 03       		.uleb128 0x3
 5447 08a9 40       		.byte	0x40
 5448 08aa 3E       		.byte	0x3e
 5449 08ab 24       		.byte	0x24
 5450 08ac 00       		.byte	0
 5451 08ad 19       		.uleb128 0x19
 5452 08ae 5C010000 		.4byte	.LVL36
 5453 08b2 02240000 		.4byte	0x2402
 5454 08b6 C7080000 		.4byte	0x8c7
 5455 08ba 18       		.uleb128 0x18
ARM GAS  /tmp/cchgQdZS.s 			page 99


 5456 08bb 01       		.uleb128 0x1
 5457 08bc 51       		.byte	0x51
 5458 08bd 01       		.uleb128 0x1
 5459 08be 30       		.byte	0x30
 5460 08bf 18       		.uleb128 0x18
 5461 08c0 01       		.uleb128 0x1
 5462 08c1 50       		.byte	0x50
 5463 08c2 03       		.uleb128 0x3
 5464 08c3 40       		.byte	0x40
 5465 08c4 3E       		.byte	0x3e
 5466 08c5 24       		.byte	0x24
 5467 08c6 00       		.byte	0
 5468 08c7 17       		.uleb128 0x17
 5469 08c8 64010000 		.4byte	.LVL38
 5470 08cc EB230000 		.4byte	0x23eb
 5471 08d0 E0080000 		.4byte	0x8e0
 5472 08d4 18       		.uleb128 0x18
 5473 08d5 01       		.uleb128 0x1
 5474 08d6 51       		.byte	0x51
 5475 08d7 01       		.uleb128 0x1
 5476 08d8 31       		.byte	0x31
 5477 08d9 18       		.uleb128 0x18
 5478 08da 01       		.uleb128 0x1
 5479 08db 50       		.byte	0x50
 5480 08dc 02       		.uleb128 0x2
 5481 08dd 08       		.byte	0x8
 5482 08de 40       		.byte	0x40
 5483 08df 00       		.byte	0
 5484 08e0 19       		.uleb128 0x19
 5485 08e1 70010000 		.4byte	.LVL39
 5486 08e5 EB230000 		.4byte	0x23eb
 5487 08e9 F9080000 		.4byte	0x8f9
 5488 08ed 18       		.uleb128 0x18
 5489 08ee 01       		.uleb128 0x1
 5490 08ef 51       		.byte	0x51
 5491 08f0 01       		.uleb128 0x1
 5492 08f1 30       		.byte	0x30
 5493 08f2 18       		.uleb128 0x18
 5494 08f3 01       		.uleb128 0x1
 5495 08f4 50       		.byte	0x50
 5496 08f5 02       		.uleb128 0x2
 5497 08f6 08       		.byte	0x8
 5498 08f7 40       		.byte	0x40
 5499 08f8 00       		.byte	0
 5500 08f9 17       		.uleb128 0x17
 5501 08fa 78010000 		.4byte	.LVL41
 5502 08fe EB230000 		.4byte	0x23eb
 5503 0902 12090000 		.4byte	0x912
 5504 0906 18       		.uleb128 0x18
 5505 0907 01       		.uleb128 0x1
 5506 0908 51       		.byte	0x51
 5507 0909 01       		.uleb128 0x1
 5508 090a 31       		.byte	0x31
 5509 090b 18       		.uleb128 0x18
 5510 090c 01       		.uleb128 0x1
 5511 090d 50       		.byte	0x50
 5512 090e 02       		.uleb128 0x2
ARM GAS  /tmp/cchgQdZS.s 			page 100


 5513 090f 08       		.byte	0x8
 5514 0910 80       		.byte	0x80
 5515 0911 00       		.byte	0
 5516 0912 1A       		.uleb128 0x1a
 5517 0913 84010000 		.4byte	.LVL42
 5518 0917 EB230000 		.4byte	0x23eb
 5519 091b 18       		.uleb128 0x18
 5520 091c 01       		.uleb128 0x1
 5521 091d 51       		.byte	0x51
 5522 091e 01       		.uleb128 0x1
 5523 091f 30       		.byte	0x30
 5524 0920 18       		.uleb128 0x18
 5525 0921 01       		.uleb128 0x1
 5526 0922 50       		.byte	0x50
 5527 0923 02       		.uleb128 0x2
 5528 0924 08       		.byte	0x8
 5529 0925 80       		.byte	0x80
 5530 0926 00       		.byte	0
 5531 0927 00       		.byte	0
 5532 0928 1B       		.uleb128 0x1b
 5533 0929 4F0A0000 		.4byte	.LASF86
 5534 092d 01       		.byte	0x1
 5535 092e 2401     		.2byte	0x124
 5536 0930 00000000 		.4byte	.LFB113
 5537 0934 9C000000 		.4byte	.LFE113-.LFB113
 5538 0938 01       		.uleb128 0x1
 5539 0939 9C       		.byte	0x9c
 5540 093a 6B090000 		.4byte	0x96b
 5541 093e 1C       		.uleb128 0x1c
 5542 093f 95060000 		.4byte	.LASF65
 5543 0943 01       		.byte	0x1
 5544 0944 2401     		.2byte	0x124
 5545 0946 11040000 		.4byte	0x411
 5546 094a 01       		.uleb128 0x1
 5547 094b 50       		.byte	0x50
 5548 094c 1C       		.uleb128 0x1c
 5549 094d 91080000 		.4byte	.LASF87
 5550 0951 01       		.byte	0x1
 5551 0952 2401     		.2byte	0x124
 5552 0954 6B090000 		.4byte	0x96b
 5553 0958 01       		.uleb128 0x1
 5554 0959 51       		.byte	0x51
 5555 095a 1D       		.uleb128 0x1d
 5556 095b 7F070000 		.4byte	.LASF93
 5557 095f 01       		.byte	0x1
 5558 0960 2601     		.2byte	0x126
 5559 0962 A2000000 		.4byte	0xa2
 5560 0966 66010000 		.4byte	.LLST1
 5561 096a 00       		.byte	0
 5562 096b 12       		.uleb128 0x12
 5563 096c 04       		.byte	0x4
 5564 096d 84020000 		.4byte	0x284
 5565 0971 1B       		.uleb128 0x1b
 5566 0972 E2050000 		.4byte	.LASF88
 5567 0976 01       		.byte	0x1
 5568 0977 5801     		.2byte	0x158
 5569 0979 00000000 		.4byte	.LFB114
ARM GAS  /tmp/cchgQdZS.s 			page 101


 5570 097d 12000000 		.4byte	.LFE114-.LFB114
 5571 0981 01       		.uleb128 0x1
 5572 0982 9C       		.byte	0x9c
 5573 0983 96090000 		.4byte	0x996
 5574 0987 1C       		.uleb128 0x1c
 5575 0988 91080000 		.4byte	.LASF87
 5576 098c 01       		.byte	0x1
 5577 098d 5801     		.2byte	0x158
 5578 098f 6B090000 		.4byte	0x96b
 5579 0993 01       		.uleb128 0x1
 5580 0994 50       		.byte	0x50
 5581 0995 00       		.byte	0
 5582 0996 1B       		.uleb128 0x1b
 5583 0997 C2090000 		.4byte	.LASF89
 5584 099b 01       		.byte	0x1
 5585 099c 6C01     		.2byte	0x16c
 5586 099e 00000000 		.4byte	.LFB115
 5587 09a2 06000000 		.4byte	.LFE115-.LFB115
 5588 09a6 01       		.uleb128 0x1
 5589 09a7 9C       		.byte	0x9c
 5590 09a8 D7090000 		.4byte	0x9d7
 5591 09ac 1C       		.uleb128 0x1c
 5592 09ad 95060000 		.4byte	.LASF65
 5593 09b1 01       		.byte	0x1
 5594 09b2 6C01     		.2byte	0x16c
 5595 09b4 11040000 		.4byte	0x411
 5596 09b8 01       		.uleb128 0x1
 5597 09b9 50       		.byte	0x50
 5598 09ba 1C       		.uleb128 0x1c
 5599 09bb C50B0000 		.4byte	.LASF90
 5600 09bf 01       		.byte	0x1
 5601 09c0 6C01     		.2byte	0x16c
 5602 09c2 A2000000 		.4byte	0xa2
 5603 09c6 01       		.uleb128 0x1
 5604 09c7 51       		.byte	0x51
 5605 09c8 1C       		.uleb128 0x1c
 5606 09c9 39070000 		.4byte	.LASF91
 5607 09cd 01       		.byte	0x1
 5608 09ce 6C01     		.2byte	0x16c
 5609 09d0 A2000000 		.4byte	0xa2
 5610 09d4 01       		.uleb128 0x1
 5611 09d5 52       		.byte	0x52
 5612 09d6 00       		.byte	0
 5613 09d7 1B       		.uleb128 0x1b
 5614 09d8 72020000 		.4byte	.LASF92
 5615 09dc 01       		.byte	0x1
 5616 09dd 8301     		.2byte	0x183
 5617 09df 00000000 		.4byte	.LFB116
 5618 09e3 0E000000 		.4byte	.LFE116-.LFB116
 5619 09e7 01       		.uleb128 0x1
 5620 09e8 9C       		.byte	0x9c
 5621 09e9 1C0A0000 		.4byte	0xa1c
 5622 09ed 1C       		.uleb128 0x1c
 5623 09ee 95060000 		.4byte	.LASF65
 5624 09f2 01       		.byte	0x1
 5625 09f3 8301     		.2byte	0x183
 5626 09f5 11040000 		.4byte	0x411
ARM GAS  /tmp/cchgQdZS.s 			page 102


 5627 09f9 01       		.uleb128 0x1
 5628 09fa 50       		.byte	0x50
 5629 09fb 1E       		.uleb128 0x1e
 5630 09fc 86000000 		.4byte	.LASF37
 5631 0a00 01       		.byte	0x1
 5632 0a01 8301     		.2byte	0x183
 5633 0a03 A2000000 		.4byte	0xa2
 5634 0a07 B0010000 		.4byte	.LLST2
 5635 0a0b 1D       		.uleb128 0x1d
 5636 0a0c 7F070000 		.4byte	.LASF93
 5637 0a10 01       		.byte	0x1
 5638 0a11 8501     		.2byte	0x185
 5639 0a13 A2000000 		.4byte	0xa2
 5640 0a17 D1010000 		.4byte	.LLST3
 5641 0a1b 00       		.byte	0
 5642 0a1c 1B       		.uleb128 0x1b
 5643 0a1d A00C0000 		.4byte	.LASF94
 5644 0a21 01       		.byte	0x1
 5645 0a22 9D01     		.2byte	0x19d
 5646 0a24 00000000 		.4byte	.LFB117
 5647 0a28 04000000 		.4byte	.LFE117-.LFB117
 5648 0a2c 01       		.uleb128 0x1
 5649 0a2d 9C       		.byte	0x9c
 5650 0a2e 4F0A0000 		.4byte	0xa4f
 5651 0a32 1C       		.uleb128 0x1c
 5652 0a33 95060000 		.4byte	.LASF65
 5653 0a37 01       		.byte	0x1
 5654 0a38 9D01     		.2byte	0x19d
 5655 0a3a 11040000 		.4byte	0x411
 5656 0a3e 01       		.uleb128 0x1
 5657 0a3f 50       		.byte	0x50
 5658 0a40 1C       		.uleb128 0x1c
 5659 0a41 DC080000 		.4byte	.LASF95
 5660 0a45 01       		.byte	0x1
 5661 0a46 9D01     		.2byte	0x19d
 5662 0a48 B8000000 		.4byte	0xb8
 5663 0a4c 01       		.uleb128 0x1
 5664 0a4d 51       		.byte	0x51
 5665 0a4e 00       		.byte	0
 5666 0a4f 1B       		.uleb128 0x1b
 5667 0a50 2D040000 		.4byte	.LASF96
 5668 0a54 01       		.byte	0x1
 5669 0a55 AC01     		.2byte	0x1ac
 5670 0a57 00000000 		.4byte	.LFB118
 5671 0a5b 04000000 		.4byte	.LFE118-.LFB118
 5672 0a5f 01       		.uleb128 0x1
 5673 0a60 9C       		.byte	0x9c
 5674 0a61 820A0000 		.4byte	0xa82
 5675 0a65 1C       		.uleb128 0x1c
 5676 0a66 95060000 		.4byte	.LASF65
 5677 0a6a 01       		.byte	0x1
 5678 0a6b AC01     		.2byte	0x1ac
 5679 0a6d 11040000 		.4byte	0x411
 5680 0a71 01       		.uleb128 0x1
 5681 0a72 50       		.byte	0x50
 5682 0a73 1C       		.uleb128 0x1c
 5683 0a74 96000000 		.4byte	.LASF97
ARM GAS  /tmp/cchgQdZS.s 			page 103


 5684 0a78 01       		.byte	0x1
 5685 0a79 AC01     		.2byte	0x1ac
 5686 0a7b B8000000 		.4byte	0xb8
 5687 0a7f 01       		.uleb128 0x1
 5688 0a80 51       		.byte	0x51
 5689 0a81 00       		.byte	0
 5690 0a82 1F       		.uleb128 0x1f
 5691 0a83 D3050000 		.4byte	.LASF98
 5692 0a87 01       		.byte	0x1
 5693 0a88 BA01     		.2byte	0x1ba
 5694 0a8a B8000000 		.4byte	0xb8
 5695 0a8e 00000000 		.4byte	.LFB119
 5696 0a92 04000000 		.4byte	.LFE119-.LFB119
 5697 0a96 01       		.uleb128 0x1
 5698 0a97 9C       		.byte	0x9c
 5699 0a98 AD0A0000 		.4byte	0xaad
 5700 0a9c 1E       		.uleb128 0x1e
 5701 0a9d 95060000 		.4byte	.LASF65
 5702 0aa1 01       		.byte	0x1
 5703 0aa2 BA01     		.2byte	0x1ba
 5704 0aa4 11040000 		.4byte	0x411
 5705 0aa8 11020000 		.4byte	.LLST4
 5706 0aac 00       		.byte	0
 5707 0aad 1F       		.uleb128 0x1f
 5708 0aae C2050000 		.4byte	.LASF99
 5709 0ab2 01       		.byte	0x1
 5710 0ab3 C801     		.2byte	0x1c8
 5711 0ab5 A2000000 		.4byte	0xa2
 5712 0ab9 00000000 		.4byte	.LFB120
 5713 0abd 06000000 		.4byte	.LFE120-.LFB120
 5714 0ac1 01       		.uleb128 0x1
 5715 0ac2 9C       		.byte	0x9c
 5716 0ac3 D80A0000 		.4byte	0xad8
 5717 0ac7 1E       		.uleb128 0x1e
 5718 0ac8 95060000 		.4byte	.LASF65
 5719 0acc 01       		.byte	0x1
 5720 0acd C801     		.2byte	0x1c8
 5721 0acf 11040000 		.4byte	0x411
 5722 0ad3 32020000 		.4byte	.LLST5
 5723 0ad7 00       		.byte	0
 5724 0ad8 1B       		.uleb128 0x1b
 5725 0ad9 0C010000 		.4byte	.LASF100
 5726 0add 01       		.byte	0x1
 5727 0ade D801     		.2byte	0x1d8
 5728 0ae0 00000000 		.4byte	.LFB121
 5729 0ae4 18000000 		.4byte	.LFE121-.LFB121
 5730 0ae8 01       		.uleb128 0x1
 5731 0ae9 9C       		.byte	0x9c
 5732 0aea 0B0B0000 		.4byte	0xb0b
 5733 0aee 1C       		.uleb128 0x1c
 5734 0aef 95060000 		.4byte	.LASF65
 5735 0af3 01       		.byte	0x1
 5736 0af4 D801     		.2byte	0x1d8
 5737 0af6 11040000 		.4byte	0x411
 5738 0afa 01       		.uleb128 0x1
 5739 0afb 50       		.byte	0x50
 5740 0afc 1C       		.uleb128 0x1c
ARM GAS  /tmp/cchgQdZS.s 			page 104


 5741 0afd 0B000000 		.4byte	.LASF101
 5742 0b01 01       		.byte	0x1
 5743 0b02 D801     		.2byte	0x1d8
 5744 0b04 34020000 		.4byte	0x234
 5745 0b08 01       		.uleb128 0x1
 5746 0b09 51       		.byte	0x51
 5747 0b0a 00       		.byte	0
 5748 0b0b 1B       		.uleb128 0x1b
 5749 0b0c AD0B0000 		.4byte	.LASF102
 5750 0b10 01       		.byte	0x1
 5751 0b11 F501     		.2byte	0x1f5
 5752 0b13 00000000 		.4byte	.LFB122
 5753 0b17 18000000 		.4byte	.LFE122-.LFB122
 5754 0b1b 01       		.uleb128 0x1
 5755 0b1c 9C       		.byte	0x9c
 5756 0b1d 3E0B0000 		.4byte	0xb3e
 5757 0b21 1C       		.uleb128 0x1c
 5758 0b22 95060000 		.4byte	.LASF65
 5759 0b26 01       		.byte	0x1
 5760 0b27 F501     		.2byte	0x1f5
 5761 0b29 11040000 		.4byte	0x411
 5762 0b2d 01       		.uleb128 0x1
 5763 0b2e 50       		.byte	0x50
 5764 0b2f 1C       		.uleb128 0x1c
 5765 0b30 93040000 		.4byte	.LASF103
 5766 0b34 01       		.byte	0x1
 5767 0b35 F501     		.2byte	0x1f5
 5768 0b37 A2000000 		.4byte	0xa2
 5769 0b3b 01       		.uleb128 0x1
 5770 0b3c 51       		.byte	0x51
 5771 0b3d 00       		.byte	0
 5772 0b3e 1B       		.uleb128 0x1b
 5773 0b3f C6010000 		.4byte	.LASF104
 5774 0b43 01       		.byte	0x1
 5775 0b44 0E02     		.2byte	0x20e
 5776 0b46 00000000 		.4byte	.LFB123
 5777 0b4a 18000000 		.4byte	.LFE123-.LFB123
 5778 0b4e 01       		.uleb128 0x1
 5779 0b4f 9C       		.byte	0x9c
 5780 0b50 710B0000 		.4byte	0xb71
 5781 0b54 1C       		.uleb128 0x1c
 5782 0b55 95060000 		.4byte	.LASF65
 5783 0b59 01       		.byte	0x1
 5784 0b5a 0E02     		.2byte	0x20e
 5785 0b5c 11040000 		.4byte	0x411
 5786 0b60 01       		.uleb128 0x1
 5787 0b61 50       		.byte	0x50
 5788 0b62 1C       		.uleb128 0x1c
 5789 0b63 0B000000 		.4byte	.LASF101
 5790 0b67 01       		.byte	0x1
 5791 0b68 0E02     		.2byte	0x20e
 5792 0b6a 34020000 		.4byte	0x234
 5793 0b6e 01       		.uleb128 0x1
 5794 0b6f 51       		.byte	0x51
 5795 0b70 00       		.byte	0
 5796 0b71 1B       		.uleb128 0x1b
 5797 0b72 28000000 		.4byte	.LASF105
ARM GAS  /tmp/cchgQdZS.s 			page 105


 5798 0b76 01       		.byte	0x1
 5799 0b77 2902     		.2byte	0x229
 5800 0b79 00000000 		.4byte	.LFB124
 5801 0b7d 12000000 		.4byte	.LFE124-.LFB124
 5802 0b81 01       		.uleb128 0x1
 5803 0b82 9C       		.byte	0x9c
 5804 0b83 A60B0000 		.4byte	0xba6
 5805 0b87 1C       		.uleb128 0x1c
 5806 0b88 95060000 		.4byte	.LASF65
 5807 0b8c 01       		.byte	0x1
 5808 0b8d 2902     		.2byte	0x229
 5809 0b8f 11040000 		.4byte	0x411
 5810 0b93 01       		.uleb128 0x1
 5811 0b94 50       		.byte	0x50
 5812 0b95 1E       		.uleb128 0x1e
 5813 0b96 00000000 		.4byte	.LASF106
 5814 0b9a 01       		.byte	0x1
 5815 0b9b 2902     		.2byte	0x229
 5816 0b9d A2000000 		.4byte	0xa2
 5817 0ba1 53020000 		.4byte	.LLST6
 5818 0ba5 00       		.byte	0
 5819 0ba6 1B       		.uleb128 0x1b
 5820 0ba7 BF080000 		.4byte	.LASF107
 5821 0bab 01       		.byte	0x1
 5822 0bac 4002     		.2byte	0x240
 5823 0bae 00000000 		.4byte	.LFB125
 5824 0bb2 12000000 		.4byte	.LFE125-.LFB125
 5825 0bb6 01       		.uleb128 0x1
 5826 0bb7 9C       		.byte	0x9c
 5827 0bb8 DB0B0000 		.4byte	0xbdb
 5828 0bbc 1C       		.uleb128 0x1c
 5829 0bbd 95060000 		.4byte	.LASF65
 5830 0bc1 01       		.byte	0x1
 5831 0bc2 4002     		.2byte	0x240
 5832 0bc4 11040000 		.4byte	0x411
 5833 0bc8 01       		.uleb128 0x1
 5834 0bc9 50       		.byte	0x50
 5835 0bca 1E       		.uleb128 0x1e
 5836 0bcb 2B030000 		.4byte	.LASF108
 5837 0bcf 01       		.byte	0x1
 5838 0bd0 4002     		.2byte	0x240
 5839 0bd2 A2000000 		.4byte	0xa2
 5840 0bd6 74020000 		.4byte	.LLST7
 5841 0bda 00       		.byte	0
 5842 0bdb 1B       		.uleb128 0x1b
 5843 0bdc F50A0000 		.4byte	.LASF109
 5844 0be0 01       		.byte	0x1
 5845 0be1 5402     		.2byte	0x254
 5846 0be3 00000000 		.4byte	.LFB126
 5847 0be7 18000000 		.4byte	.LFE126-.LFB126
 5848 0beb 01       		.uleb128 0x1
 5849 0bec 9C       		.byte	0x9c
 5850 0bed 0E0C0000 		.4byte	0xc0e
 5851 0bf1 1C       		.uleb128 0x1c
 5852 0bf2 95060000 		.4byte	.LASF65
 5853 0bf6 01       		.byte	0x1
 5854 0bf7 5402     		.2byte	0x254
ARM GAS  /tmp/cchgQdZS.s 			page 106


 5855 0bf9 11040000 		.4byte	0x411
 5856 0bfd 01       		.uleb128 0x1
 5857 0bfe 50       		.byte	0x50
 5858 0bff 1C       		.uleb128 0x1c
 5859 0c00 0B000000 		.4byte	.LASF101
 5860 0c04 01       		.byte	0x1
 5861 0c05 5402     		.2byte	0x254
 5862 0c07 34020000 		.4byte	0x234
 5863 0c0b 01       		.uleb128 0x1
 5864 0c0c 51       		.byte	0x51
 5865 0c0d 00       		.byte	0
 5866 0c0e 1B       		.uleb128 0x1b
 5867 0c0f E60C0000 		.4byte	.LASF110
 5868 0c13 01       		.byte	0x1
 5869 0c14 A502     		.2byte	0x2a5
 5870 0c16 00000000 		.4byte	.LFB127
 5871 0c1a 84000000 		.4byte	.LFE127-.LFB127
 5872 0c1e 01       		.uleb128 0x1
 5873 0c1f 9C       		.byte	0x9c
 5874 0c20 730C0000 		.4byte	0xc73
 5875 0c24 1C       		.uleb128 0x1c
 5876 0c25 95060000 		.4byte	.LASF65
 5877 0c29 01       		.byte	0x1
 5878 0c2a A502     		.2byte	0x2a5
 5879 0c2c 11040000 		.4byte	0x411
 5880 0c30 01       		.uleb128 0x1
 5881 0c31 50       		.byte	0x50
 5882 0c32 1E       		.uleb128 0x1e
 5883 0c33 71060000 		.4byte	.LASF111
 5884 0c37 01       		.byte	0x1
 5885 0c38 A502     		.2byte	0x2a5
 5886 0c3a 730C0000 		.4byte	0xc73
 5887 0c3e 95020000 		.4byte	.LLST8
 5888 0c42 1D       		.uleb128 0x1d
 5889 0c43 06030000 		.4byte	.LASF112
 5890 0c47 01       		.byte	0x1
 5891 0c48 A702     		.2byte	0x2a7
 5892 0c4a A2000000 		.4byte	0xa2
 5893 0c4e C1020000 		.4byte	.LLST9
 5894 0c52 1D       		.uleb128 0x1d
 5895 0c53 6A050000 		.4byte	.LASF67
 5896 0c57 01       		.byte	0x1
 5897 0c58 A702     		.2byte	0x2a7
 5898 0c5a A2000000 		.4byte	0xa2
 5899 0c5e E0020000 		.4byte	.LLST10
 5900 0c62 1D       		.uleb128 0x1d
 5901 0c63 68010000 		.4byte	.LASF113
 5902 0c67 01       		.byte	0x1
 5903 0c68 A702     		.2byte	0x2a7
 5904 0c6a A2000000 		.4byte	0xa2
 5905 0c6e 0A030000 		.4byte	.LLST11
 5906 0c72 00       		.byte	0
 5907 0c73 12       		.uleb128 0x12
 5908 0c74 04       		.byte	0x4
 5909 0c75 F8020000 		.4byte	0x2f8
 5910 0c79 1B       		.uleb128 0x1b
 5911 0c7a 160B0000 		.4byte	.LASF114
ARM GAS  /tmp/cchgQdZS.s 			page 107


 5912 0c7e 01       		.byte	0x1
 5913 0c7f F602     		.2byte	0x2f6
 5914 0c81 00000000 		.4byte	.LFB128
 5915 0c85 94000000 		.4byte	.LFE128-.LFB128
 5916 0c89 01       		.uleb128 0x1
 5917 0c8a 9C       		.byte	0x9c
 5918 0c8b DE0C0000 		.4byte	0xcde
 5919 0c8f 1C       		.uleb128 0x1c
 5920 0c90 95060000 		.4byte	.LASF65
 5921 0c94 01       		.byte	0x1
 5922 0c95 F602     		.2byte	0x2f6
 5923 0c97 11040000 		.4byte	0x411
 5924 0c9b 01       		.uleb128 0x1
 5925 0c9c 50       		.byte	0x50
 5926 0c9d 1E       		.uleb128 0x1e
 5927 0c9e 71060000 		.4byte	.LASF111
 5928 0ca2 01       		.byte	0x1
 5929 0ca3 F602     		.2byte	0x2f6
 5930 0ca5 730C0000 		.4byte	0xc73
 5931 0ca9 51030000 		.4byte	.LLST12
 5932 0cad 1D       		.uleb128 0x1d
 5933 0cae 06030000 		.4byte	.LASF112
 5934 0cb2 01       		.byte	0x1
 5935 0cb3 F802     		.2byte	0x2f8
 5936 0cb5 A2000000 		.4byte	0xa2
 5937 0cb9 7D030000 		.4byte	.LLST13
 5938 0cbd 1D       		.uleb128 0x1d
 5939 0cbe 6A050000 		.4byte	.LASF67
 5940 0cc2 01       		.byte	0x1
 5941 0cc3 F802     		.2byte	0x2f8
 5942 0cc5 A2000000 		.4byte	0xa2
 5943 0cc9 AD030000 		.4byte	.LLST14
 5944 0ccd 1D       		.uleb128 0x1d
 5945 0cce 68010000 		.4byte	.LASF113
 5946 0cd2 01       		.byte	0x1
 5947 0cd3 F802     		.2byte	0x2f8
 5948 0cd5 A2000000 		.4byte	0xa2
 5949 0cd9 ED030000 		.4byte	.LLST15
 5950 0cdd 00       		.byte	0
 5951 0cde 1B       		.uleb128 0x1b
 5952 0cdf D2020000 		.4byte	.LASF115
 5953 0ce3 01       		.byte	0x1
 5954 0ce4 4703     		.2byte	0x347
 5955 0ce6 00000000 		.4byte	.LFB129
 5956 0cea 90000000 		.4byte	.LFE129-.LFB129
 5957 0cee 01       		.uleb128 0x1
 5958 0cef 9C       		.byte	0x9c
 5959 0cf0 430D0000 		.4byte	0xd43
 5960 0cf4 1C       		.uleb128 0x1c
 5961 0cf5 95060000 		.4byte	.LASF65
 5962 0cf9 01       		.byte	0x1
 5963 0cfa 4703     		.2byte	0x347
 5964 0cfc 11040000 		.4byte	0x411
 5965 0d00 01       		.uleb128 0x1
 5966 0d01 50       		.byte	0x50
 5967 0d02 1E       		.uleb128 0x1e
 5968 0d03 71060000 		.4byte	.LASF111
ARM GAS  /tmp/cchgQdZS.s 			page 108


 5969 0d07 01       		.byte	0x1
 5970 0d08 4703     		.2byte	0x347
 5971 0d0a 730C0000 		.4byte	0xc73
 5972 0d0e 36040000 		.4byte	.LLST16
 5973 0d12 1D       		.uleb128 0x1d
 5974 0d13 06030000 		.4byte	.LASF112
 5975 0d17 01       		.byte	0x1
 5976 0d18 4903     		.2byte	0x349
 5977 0d1a A2000000 		.4byte	0xa2
 5978 0d1e 62040000 		.4byte	.LLST17
 5979 0d22 1D       		.uleb128 0x1d
 5980 0d23 6A050000 		.4byte	.LASF67
 5981 0d27 01       		.byte	0x1
 5982 0d28 4903     		.2byte	0x349
 5983 0d2a A2000000 		.4byte	0xa2
 5984 0d2e 81040000 		.4byte	.LLST18
 5985 0d32 1D       		.uleb128 0x1d
 5986 0d33 68010000 		.4byte	.LASF113
 5987 0d37 01       		.byte	0x1
 5988 0d38 4903     		.2byte	0x349
 5989 0d3a A2000000 		.4byte	0xa2
 5990 0d3e C1040000 		.4byte	.LLST19
 5991 0d42 00       		.byte	0
 5992 0d43 1B       		.uleb128 0x1b
 5993 0d44 770B0000 		.4byte	.LASF116
 5994 0d48 01       		.byte	0x1
 5995 0d49 9703     		.2byte	0x397
 5996 0d4b 00000000 		.4byte	.LFB130
 5997 0d4f 74000000 		.4byte	.LFE130-.LFB130
 5998 0d53 01       		.uleb128 0x1
 5999 0d54 9C       		.byte	0x9c
 6000 0d55 A80D0000 		.4byte	0xda8
 6001 0d59 1C       		.uleb128 0x1c
 6002 0d5a 95060000 		.4byte	.LASF65
 6003 0d5e 01       		.byte	0x1
 6004 0d5f 9703     		.2byte	0x397
 6005 0d61 11040000 		.4byte	0x411
 6006 0d65 01       		.uleb128 0x1
 6007 0d66 50       		.byte	0x50
 6008 0d67 1E       		.uleb128 0x1e
 6009 0d68 71060000 		.4byte	.LASF111
 6010 0d6c 01       		.byte	0x1
 6011 0d6d 9703     		.2byte	0x397
 6012 0d6f 730C0000 		.4byte	0xc73
 6013 0d73 0A050000 		.4byte	.LLST20
 6014 0d77 1D       		.uleb128 0x1d
 6015 0d78 06030000 		.4byte	.LASF112
 6016 0d7c 01       		.byte	0x1
 6017 0d7d 9903     		.2byte	0x399
 6018 0d7f A2000000 		.4byte	0xa2
 6019 0d83 36050000 		.4byte	.LLST21
 6020 0d87 1D       		.uleb128 0x1d
 6021 0d88 6A050000 		.4byte	.LASF67
 6022 0d8c 01       		.byte	0x1
 6023 0d8d 9903     		.2byte	0x399
 6024 0d8f A2000000 		.4byte	0xa2
 6025 0d93 66050000 		.4byte	.LLST22
ARM GAS  /tmp/cchgQdZS.s 			page 109


 6026 0d97 1D       		.uleb128 0x1d
 6027 0d98 68010000 		.4byte	.LASF113
 6028 0d9c 01       		.byte	0x1
 6029 0d9d 9903     		.2byte	0x399
 6030 0d9f A2000000 		.4byte	0xa2
 6031 0da3 90050000 		.4byte	.LLST23
 6032 0da7 00       		.byte	0
 6033 0da8 1B       		.uleb128 0x1b
 6034 0da9 28070000 		.4byte	.LASF117
 6035 0dad 01       		.byte	0x1
 6036 0dae D603     		.2byte	0x3d6
 6037 0db0 00000000 		.4byte	.LFB131
 6038 0db4 14000000 		.4byte	.LFE131-.LFB131
 6039 0db8 01       		.uleb128 0x1
 6040 0db9 9C       		.byte	0x9c
 6041 0dba CD0D0000 		.4byte	0xdcd
 6042 0dbe 1C       		.uleb128 0x1c
 6043 0dbf 71060000 		.4byte	.LASF111
 6044 0dc3 01       		.byte	0x1
 6045 0dc4 D603     		.2byte	0x3d6
 6046 0dc6 730C0000 		.4byte	0xc73
 6047 0dca 01       		.uleb128 0x1
 6048 0dcb 50       		.byte	0x50
 6049 0dcc 00       		.byte	0
 6050 0dcd 1B       		.uleb128 0x1b
 6051 0dce 9E0B0000 		.4byte	.LASF118
 6052 0dd2 01       		.byte	0x1
 6053 0dd3 FA03     		.2byte	0x3fa
 6054 0dd5 00000000 		.4byte	.LFB132
 6055 0dd9 50000000 		.4byte	.LFE132-.LFB132
 6056 0ddd 01       		.uleb128 0x1
 6057 0dde 9C       		.byte	0x9c
 6058 0ddf 340E0000 		.4byte	0xe34
 6059 0de3 1E       		.uleb128 0x1e
 6060 0de4 95060000 		.4byte	.LASF65
 6061 0de8 01       		.byte	0x1
 6062 0de9 FA03     		.2byte	0x3fa
 6063 0deb 11040000 		.4byte	0x411
 6064 0def C5050000 		.4byte	.LLST24
 6065 0df3 1E       		.uleb128 0x1e
 6066 0df4 5A020000 		.4byte	.LASF51
 6067 0df8 01       		.byte	0x1
 6068 0df9 FA03     		.2byte	0x3fa
 6069 0dfb A2000000 		.4byte	0xa2
 6070 0dff E5050000 		.4byte	.LLST25
 6071 0e03 1E       		.uleb128 0x1e
 6072 0e04 050C0000 		.4byte	.LASF42
 6073 0e08 01       		.byte	0x1
 6074 0e09 FA03     		.2byte	0x3fa
 6075 0e0b A2000000 		.4byte	0xa2
 6076 0e0f 1F060000 		.4byte	.LLST26
 6077 0e13 20       		.uleb128 0x20
 6078 0e14 746D7000 		.ascii	"tmp\000"
 6079 0e18 01       		.byte	0x1
 6080 0e19 FC03     		.2byte	0x3fc
 6081 0e1b B8000000 		.4byte	0xb8
 6082 0e1f 59060000 		.4byte	.LLST27
ARM GAS  /tmp/cchgQdZS.s 			page 110


 6083 0e23 1D       		.uleb128 0x1d
 6084 0e24 F8010000 		.4byte	.LASF119
 6085 0e28 01       		.byte	0x1
 6086 0e29 FD03     		.2byte	0x3fd
 6087 0e2b A2000000 		.4byte	0xa2
 6088 0e2f AE060000 		.4byte	.LLST28
 6089 0e33 00       		.byte	0
 6090 0e34 1B       		.uleb128 0x1b
 6091 0e35 EC000000 		.4byte	.LASF120
 6092 0e39 01       		.byte	0x1
 6093 0e3a 2804     		.2byte	0x428
 6094 0e3c 00000000 		.4byte	.LFB133
 6095 0e40 04000000 		.4byte	.LFE133-.LFB133
 6096 0e44 01       		.uleb128 0x1
 6097 0e45 9C       		.byte	0x9c
 6098 0e46 670E0000 		.4byte	0xe67
 6099 0e4a 1C       		.uleb128 0x1c
 6100 0e4b 95060000 		.4byte	.LASF65
 6101 0e4f 01       		.byte	0x1
 6102 0e50 2804     		.2byte	0x428
 6103 0e52 11040000 		.4byte	0x411
 6104 0e56 01       		.uleb128 0x1
 6105 0e57 50       		.byte	0x50
 6106 0e58 1C       		.uleb128 0x1c
 6107 0e59 E3000000 		.4byte	.LASF121
 6108 0e5d 01       		.byte	0x1
 6109 0e5e 2804     		.2byte	0x428
 6110 0e60 B8000000 		.4byte	0xb8
 6111 0e64 01       		.uleb128 0x1
 6112 0e65 51       		.byte	0x51
 6113 0e66 00       		.byte	0
 6114 0e67 1B       		.uleb128 0x1b
 6115 0e68 3C050000 		.4byte	.LASF122
 6116 0e6c 01       		.byte	0x1
 6117 0e6d 3804     		.2byte	0x438
 6118 0e6f 00000000 		.4byte	.LFB134
 6119 0e73 04000000 		.4byte	.LFE134-.LFB134
 6120 0e77 01       		.uleb128 0x1
 6121 0e78 9C       		.byte	0x9c
 6122 0e79 9A0E0000 		.4byte	0xe9a
 6123 0e7d 1C       		.uleb128 0x1c
 6124 0e7e 95060000 		.4byte	.LASF65
 6125 0e82 01       		.byte	0x1
 6126 0e83 3804     		.2byte	0x438
 6127 0e85 11040000 		.4byte	0x411
 6128 0e89 01       		.uleb128 0x1
 6129 0e8a 50       		.byte	0x50
 6130 0e8b 1C       		.uleb128 0x1c
 6131 0e8c E4080000 		.4byte	.LASF123
 6132 0e90 01       		.byte	0x1
 6133 0e91 3804     		.2byte	0x438
 6134 0e93 B8000000 		.4byte	0xb8
 6135 0e97 01       		.uleb128 0x1
 6136 0e98 51       		.byte	0x51
 6137 0e99 00       		.byte	0
 6138 0e9a 1B       		.uleb128 0x1b
 6139 0e9b 4C050000 		.4byte	.LASF124
ARM GAS  /tmp/cchgQdZS.s 			page 111


 6140 0e9f 01       		.byte	0x1
 6141 0ea0 4704     		.2byte	0x447
 6142 0ea2 00000000 		.4byte	.LFB135
 6143 0ea6 04000000 		.4byte	.LFE135-.LFB135
 6144 0eaa 01       		.uleb128 0x1
 6145 0eab 9C       		.byte	0x9c
 6146 0eac CD0E0000 		.4byte	0xecd
 6147 0eb0 1C       		.uleb128 0x1c
 6148 0eb1 95060000 		.4byte	.LASF65
 6149 0eb5 01       		.byte	0x1
 6150 0eb6 4704     		.2byte	0x447
 6151 0eb8 11040000 		.4byte	0x411
 6152 0ebc 01       		.uleb128 0x1
 6153 0ebd 50       		.byte	0x50
 6154 0ebe 1C       		.uleb128 0x1c
 6155 0ebf 24010000 		.4byte	.LASF125
 6156 0ec3 01       		.byte	0x1
 6157 0ec4 4704     		.2byte	0x447
 6158 0ec6 B8000000 		.4byte	0xb8
 6159 0eca 01       		.uleb128 0x1
 6160 0ecb 51       		.byte	0x51
 6161 0ecc 00       		.byte	0
 6162 0ecd 1B       		.uleb128 0x1b
 6163 0ece 8E0B0000 		.4byte	.LASF126
 6164 0ed2 01       		.byte	0x1
 6165 0ed3 5604     		.2byte	0x456
 6166 0ed5 00000000 		.4byte	.LFB136
 6167 0ed9 04000000 		.4byte	.LFE136-.LFB136
 6168 0edd 01       		.uleb128 0x1
 6169 0ede 9C       		.byte	0x9c
 6170 0edf 000F0000 		.4byte	0xf00
 6171 0ee3 1C       		.uleb128 0x1c
 6172 0ee4 95060000 		.4byte	.LASF65
 6173 0ee8 01       		.byte	0x1
 6174 0ee9 5604     		.2byte	0x456
 6175 0eeb 11040000 		.4byte	0x411
 6176 0eef 01       		.uleb128 0x1
 6177 0ef0 50       		.byte	0x50
 6178 0ef1 1C       		.uleb128 0x1c
 6179 0ef2 24080000 		.4byte	.LASF127
 6180 0ef6 01       		.byte	0x1
 6181 0ef7 5604     		.2byte	0x456
 6182 0ef9 B8000000 		.4byte	0xb8
 6183 0efd 01       		.uleb128 0x1
 6184 0efe 51       		.byte	0x51
 6185 0eff 00       		.byte	0
 6186 0f00 1B       		.uleb128 0x1b
 6187 0f01 86070000 		.4byte	.LASF128
 6188 0f05 01       		.byte	0x1
 6189 0f06 6804     		.2byte	0x468
 6190 0f08 00000000 		.4byte	.LFB137
 6191 0f0c 0E000000 		.4byte	.LFE137-.LFB137
 6192 0f10 01       		.uleb128 0x1
 6193 0f11 9C       		.byte	0x9c
 6194 0f12 450F0000 		.4byte	0xf45
 6195 0f16 1C       		.uleb128 0x1c
 6196 0f17 95060000 		.4byte	.LASF65
ARM GAS  /tmp/cchgQdZS.s 			page 112


 6197 0f1b 01       		.byte	0x1
 6198 0f1c 6804     		.2byte	0x468
 6199 0f1e 11040000 		.4byte	0x411
 6200 0f22 01       		.uleb128 0x1
 6201 0f23 50       		.byte	0x50
 6202 0f24 1E       		.uleb128 0x1e
 6203 0f25 4F000000 		.4byte	.LASF129
 6204 0f29 01       		.byte	0x1
 6205 0f2a 6804     		.2byte	0x468
 6206 0f2c A2000000 		.4byte	0xa2
 6207 0f30 C2060000 		.4byte	.LLST29
 6208 0f34 1D       		.uleb128 0x1d
 6209 0f35 4E010000 		.4byte	.LASF66
 6210 0f39 01       		.byte	0x1
 6211 0f3a 6A04     		.2byte	0x46a
 6212 0f3c A2000000 		.4byte	0xa2
 6213 0f40 E3060000 		.4byte	.LLST30
 6214 0f44 00       		.byte	0
 6215 0f45 1B       		.uleb128 0x1b
 6216 0f46 14000000 		.4byte	.LASF130
 6217 0f4a 01       		.byte	0x1
 6218 0f4b 8504     		.2byte	0x485
 6219 0f4d 00000000 		.4byte	.LFB138
 6220 0f51 12000000 		.4byte	.LFE138-.LFB138
 6221 0f55 01       		.uleb128 0x1
 6222 0f56 9C       		.byte	0x9c
 6223 0f57 8A0F0000 		.4byte	0xf8a
 6224 0f5b 1C       		.uleb128 0x1c
 6225 0f5c 95060000 		.4byte	.LASF65
 6226 0f60 01       		.byte	0x1
 6227 0f61 8504     		.2byte	0x485
 6228 0f63 11040000 		.4byte	0x411
 6229 0f67 01       		.uleb128 0x1
 6230 0f68 50       		.byte	0x50
 6231 0f69 1E       		.uleb128 0x1e
 6232 0f6a 4F000000 		.4byte	.LASF129
 6233 0f6e 01       		.byte	0x1
 6234 0f6f 8504     		.2byte	0x485
 6235 0f71 A2000000 		.4byte	0xa2
 6236 0f75 23070000 		.4byte	.LLST31
 6237 0f79 1D       		.uleb128 0x1d
 6238 0f7a 4E010000 		.4byte	.LASF66
 6239 0f7e 01       		.byte	0x1
 6240 0f7f 8704     		.2byte	0x487
 6241 0f81 A2000000 		.4byte	0xa2
 6242 0f85 44070000 		.4byte	.LLST32
 6243 0f89 00       		.byte	0
 6244 0f8a 1B       		.uleb128 0x1b
 6245 0f8b F4070000 		.4byte	.LASF131
 6246 0f8f 01       		.byte	0x1
 6247 0f90 A104     		.2byte	0x4a1
 6248 0f92 00000000 		.4byte	.LFB139
 6249 0f96 0E000000 		.4byte	.LFE139-.LFB139
 6250 0f9a 01       		.uleb128 0x1
 6251 0f9b 9C       		.byte	0x9c
 6252 0f9c CF0F0000 		.4byte	0xfcf
 6253 0fa0 1C       		.uleb128 0x1c
ARM GAS  /tmp/cchgQdZS.s 			page 113


 6254 0fa1 95060000 		.4byte	.LASF65
 6255 0fa5 01       		.byte	0x1
 6256 0fa6 A104     		.2byte	0x4a1
 6257 0fa8 11040000 		.4byte	0x411
 6258 0fac 01       		.uleb128 0x1
 6259 0fad 50       		.byte	0x50
 6260 0fae 1E       		.uleb128 0x1e
 6261 0faf 4F000000 		.4byte	.LASF129
 6262 0fb3 01       		.byte	0x1
 6263 0fb4 A104     		.2byte	0x4a1
 6264 0fb6 A2000000 		.4byte	0xa2
 6265 0fba 9F070000 		.4byte	.LLST33
 6266 0fbe 1D       		.uleb128 0x1d
 6267 0fbf 57010000 		.4byte	.LASF74
 6268 0fc3 01       		.byte	0x1
 6269 0fc4 A304     		.2byte	0x4a3
 6270 0fc6 A2000000 		.4byte	0xa2
 6271 0fca C0070000 		.4byte	.LLST34
 6272 0fce 00       		.byte	0
 6273 0fcf 1B       		.uleb128 0x1b
 6274 0fd0 A1000000 		.4byte	.LASF132
 6275 0fd4 01       		.byte	0x1
 6276 0fd5 BE04     		.2byte	0x4be
 6277 0fd7 00000000 		.4byte	.LFB140
 6278 0fdb 12000000 		.4byte	.LFE140-.LFB140
 6279 0fdf 01       		.uleb128 0x1
 6280 0fe0 9C       		.byte	0x9c
 6281 0fe1 14100000 		.4byte	0x1014
 6282 0fe5 1C       		.uleb128 0x1c
 6283 0fe6 95060000 		.4byte	.LASF65
 6284 0fea 01       		.byte	0x1
 6285 0feb BE04     		.2byte	0x4be
 6286 0fed 11040000 		.4byte	0x411
 6287 0ff1 01       		.uleb128 0x1
 6288 0ff2 50       		.byte	0x50
 6289 0ff3 1E       		.uleb128 0x1e
 6290 0ff4 4F000000 		.4byte	.LASF129
 6291 0ff8 01       		.byte	0x1
 6292 0ff9 BE04     		.2byte	0x4be
 6293 0ffb A2000000 		.4byte	0xa2
 6294 0fff 00080000 		.4byte	.LLST35
 6295 1003 1D       		.uleb128 0x1d
 6296 1004 57010000 		.4byte	.LASF74
 6297 1008 01       		.byte	0x1
 6298 1009 C004     		.2byte	0x4c0
 6299 100b A2000000 		.4byte	0xa2
 6300 100f 21080000 		.4byte	.LLST36
 6301 1013 00       		.byte	0
 6302 1014 1B       		.uleb128 0x1b
 6303 1015 DF040000 		.4byte	.LASF133
 6304 1019 01       		.byte	0x1
 6305 101a DA04     		.2byte	0x4da
 6306 101c 00000000 		.4byte	.LFB141
 6307 1020 0E000000 		.4byte	.LFE141-.LFB141
 6308 1024 01       		.uleb128 0x1
 6309 1025 9C       		.byte	0x9c
 6310 1026 59100000 		.4byte	0x1059
ARM GAS  /tmp/cchgQdZS.s 			page 114


 6311 102a 1C       		.uleb128 0x1c
 6312 102b 95060000 		.4byte	.LASF65
 6313 102f 01       		.byte	0x1
 6314 1030 DA04     		.2byte	0x4da
 6315 1032 11040000 		.4byte	0x411
 6316 1036 01       		.uleb128 0x1
 6317 1037 50       		.byte	0x50
 6318 1038 1E       		.uleb128 0x1e
 6319 1039 C4020000 		.4byte	.LASF134
 6320 103d 01       		.byte	0x1
 6321 103e DA04     		.2byte	0x4da
 6322 1040 A2000000 		.4byte	0xa2
 6323 1044 7C080000 		.4byte	.LLST37
 6324 1048 1D       		.uleb128 0x1d
 6325 1049 4E010000 		.4byte	.LASF66
 6326 104d 01       		.byte	0x1
 6327 104e DC04     		.2byte	0x4dc
 6328 1050 A2000000 		.4byte	0xa2
 6329 1054 9D080000 		.4byte	.LLST38
 6330 1058 00       		.byte	0
 6331 1059 1B       		.uleb128 0x1b
 6332 105a 18020000 		.4byte	.LASF135
 6333 105e 01       		.byte	0x1
 6334 105f F804     		.2byte	0x4f8
 6335 1061 00000000 		.4byte	.LFB142
 6336 1065 12000000 		.4byte	.LFE142-.LFB142
 6337 1069 01       		.uleb128 0x1
 6338 106a 9C       		.byte	0x9c
 6339 106b 9E100000 		.4byte	0x109e
 6340 106f 1C       		.uleb128 0x1c
 6341 1070 95060000 		.4byte	.LASF65
 6342 1074 01       		.byte	0x1
 6343 1075 F804     		.2byte	0x4f8
 6344 1077 11040000 		.4byte	0x411
 6345 107b 01       		.uleb128 0x1
 6346 107c 50       		.byte	0x50
 6347 107d 1E       		.uleb128 0x1e
 6348 107e C4020000 		.4byte	.LASF134
 6349 1082 01       		.byte	0x1
 6350 1083 F804     		.2byte	0x4f8
 6351 1085 A2000000 		.4byte	0xa2
 6352 1089 DD080000 		.4byte	.LLST39
 6353 108d 1D       		.uleb128 0x1d
 6354 108e 4E010000 		.4byte	.LASF66
 6355 1092 01       		.byte	0x1
 6356 1093 FA04     		.2byte	0x4fa
 6357 1095 A2000000 		.4byte	0xa2
 6358 1099 FE080000 		.4byte	.LLST40
 6359 109d 00       		.byte	0
 6360 109e 1B       		.uleb128 0x1b
 6361 109f BC0D0000 		.4byte	.LASF136
 6362 10a3 01       		.byte	0x1
 6363 10a4 1505     		.2byte	0x515
 6364 10a6 00000000 		.4byte	.LFB143
 6365 10aa 0E000000 		.4byte	.LFE143-.LFB143
 6366 10ae 01       		.uleb128 0x1
 6367 10af 9C       		.byte	0x9c
ARM GAS  /tmp/cchgQdZS.s 			page 115


 6368 10b0 E3100000 		.4byte	0x10e3
 6369 10b4 1C       		.uleb128 0x1c
 6370 10b5 95060000 		.4byte	.LASF65
 6371 10b9 01       		.byte	0x1
 6372 10ba 1505     		.2byte	0x515
 6373 10bc 11040000 		.4byte	0x411
 6374 10c0 01       		.uleb128 0x1
 6375 10c1 50       		.byte	0x50
 6376 10c2 1E       		.uleb128 0x1e
 6377 10c3 C4020000 		.4byte	.LASF134
 6378 10c7 01       		.byte	0x1
 6379 10c8 1505     		.2byte	0x515
 6380 10ca A2000000 		.4byte	0xa2
 6381 10ce 59090000 		.4byte	.LLST41
 6382 10d2 1D       		.uleb128 0x1d
 6383 10d3 57010000 		.4byte	.LASF74
 6384 10d7 01       		.byte	0x1
 6385 10d8 1705     		.2byte	0x517
 6386 10da A2000000 		.4byte	0xa2
 6387 10de 7A090000 		.4byte	.LLST42
 6388 10e2 00       		.byte	0
 6389 10e3 1B       		.uleb128 0x1b
 6390 10e4 CF0B0000 		.4byte	.LASF137
 6391 10e8 01       		.byte	0x1
 6392 10e9 3205     		.2byte	0x532
 6393 10eb 00000000 		.4byte	.LFB144
 6394 10ef 12000000 		.4byte	.LFE144-.LFB144
 6395 10f3 01       		.uleb128 0x1
 6396 10f4 9C       		.byte	0x9c
 6397 10f5 28110000 		.4byte	0x1128
 6398 10f9 1C       		.uleb128 0x1c
 6399 10fa 95060000 		.4byte	.LASF65
 6400 10fe 01       		.byte	0x1
 6401 10ff 3205     		.2byte	0x532
 6402 1101 11040000 		.4byte	0x411
 6403 1105 01       		.uleb128 0x1
 6404 1106 50       		.byte	0x50
 6405 1107 1E       		.uleb128 0x1e
 6406 1108 C4020000 		.4byte	.LASF134
 6407 110c 01       		.byte	0x1
 6408 110d 3205     		.2byte	0x532
 6409 110f A2000000 		.4byte	0xa2
 6410 1113 BA090000 		.4byte	.LLST43
 6411 1117 1D       		.uleb128 0x1d
 6412 1118 57010000 		.4byte	.LASF74
 6413 111c 01       		.byte	0x1
 6414 111d 3405     		.2byte	0x534
 6415 111f A2000000 		.4byte	0xa2
 6416 1123 DB090000 		.4byte	.LLST44
 6417 1127 00       		.byte	0
 6418 1128 1B       		.uleb128 0x1b
 6419 1129 E50D0000 		.4byte	.LASF138
 6420 112d 01       		.byte	0x1
 6421 112e 4F05     		.2byte	0x54f
 6422 1130 00000000 		.4byte	.LFB145
 6423 1134 0E000000 		.4byte	.LFE145-.LFB145
 6424 1138 01       		.uleb128 0x1
ARM GAS  /tmp/cchgQdZS.s 			page 116


 6425 1139 9C       		.byte	0x9c
 6426 113a 6D110000 		.4byte	0x116d
 6427 113e 1C       		.uleb128 0x1c
 6428 113f 95060000 		.4byte	.LASF65
 6429 1143 01       		.byte	0x1
 6430 1144 4F05     		.2byte	0x54f
 6431 1146 11040000 		.4byte	0x411
 6432 114a 01       		.uleb128 0x1
 6433 114b 50       		.byte	0x50
 6434 114c 1E       		.uleb128 0x1e
 6435 114d 4F020000 		.4byte	.LASF139
 6436 1151 01       		.byte	0x1
 6437 1152 4F05     		.2byte	0x54f
 6438 1154 A2000000 		.4byte	0xa2
 6439 1158 360A0000 		.4byte	.LLST45
 6440 115c 1D       		.uleb128 0x1d
 6441 115d 4E010000 		.4byte	.LASF66
 6442 1161 01       		.byte	0x1
 6443 1162 5105     		.2byte	0x551
 6444 1164 A2000000 		.4byte	0xa2
 6445 1168 570A0000 		.4byte	.LLST46
 6446 116c 00       		.byte	0
 6447 116d 1B       		.uleb128 0x1b
 6448 116e 970A0000 		.4byte	.LASF140
 6449 1172 01       		.byte	0x1
 6450 1173 6E05     		.2byte	0x56e
 6451 1175 00000000 		.4byte	.LFB146
 6452 1179 12000000 		.4byte	.LFE146-.LFB146
 6453 117d 01       		.uleb128 0x1
 6454 117e 9C       		.byte	0x9c
 6455 117f B2110000 		.4byte	0x11b2
 6456 1183 1C       		.uleb128 0x1c
 6457 1184 95060000 		.4byte	.LASF65
 6458 1188 01       		.byte	0x1
 6459 1189 6E05     		.2byte	0x56e
 6460 118b 11040000 		.4byte	0x411
 6461 118f 01       		.uleb128 0x1
 6462 1190 50       		.byte	0x50
 6463 1191 1E       		.uleb128 0x1e
 6464 1192 4F020000 		.4byte	.LASF139
 6465 1196 01       		.byte	0x1
 6466 1197 6E05     		.2byte	0x56e
 6467 1199 A2000000 		.4byte	0xa2
 6468 119d 970A0000 		.4byte	.LLST47
 6469 11a1 1D       		.uleb128 0x1d
 6470 11a2 4E010000 		.4byte	.LASF66
 6471 11a6 01       		.byte	0x1
 6472 11a7 7005     		.2byte	0x570
 6473 11a9 A2000000 		.4byte	0xa2
 6474 11ad B80A0000 		.4byte	.LLST48
 6475 11b1 00       		.byte	0
 6476 11b2 1B       		.uleb128 0x1b
 6477 11b3 AA0D0000 		.4byte	.LASF141
 6478 11b7 01       		.byte	0x1
 6479 11b8 8C05     		.2byte	0x58c
 6480 11ba 00000000 		.4byte	.LFB147
 6481 11be 0E000000 		.4byte	.LFE147-.LFB147
ARM GAS  /tmp/cchgQdZS.s 			page 117


 6482 11c2 01       		.uleb128 0x1
 6483 11c3 9C       		.byte	0x9c
 6484 11c4 F7110000 		.4byte	0x11f7
 6485 11c8 1C       		.uleb128 0x1c
 6486 11c9 95060000 		.4byte	.LASF65
 6487 11cd 01       		.byte	0x1
 6488 11ce 8C05     		.2byte	0x58c
 6489 11d0 11040000 		.4byte	0x411
 6490 11d4 01       		.uleb128 0x1
 6491 11d5 50       		.byte	0x50
 6492 11d6 1E       		.uleb128 0x1e
 6493 11d7 4F020000 		.4byte	.LASF139
 6494 11db 01       		.byte	0x1
 6495 11dc 8C05     		.2byte	0x58c
 6496 11de A2000000 		.4byte	0xa2
 6497 11e2 130B0000 		.4byte	.LLST49
 6498 11e6 1D       		.uleb128 0x1d
 6499 11e7 57010000 		.4byte	.LASF74
 6500 11eb 01       		.byte	0x1
 6501 11ec 8E05     		.2byte	0x58e
 6502 11ee A2000000 		.4byte	0xa2
 6503 11f2 340B0000 		.4byte	.LLST50
 6504 11f6 00       		.byte	0
 6505 11f7 1B       		.uleb128 0x1b
 6506 11f8 A90A0000 		.4byte	.LASF142
 6507 11fc 01       		.byte	0x1
 6508 11fd AA05     		.2byte	0x5aa
 6509 11ff 00000000 		.4byte	.LFB148
 6510 1203 12000000 		.4byte	.LFE148-.LFB148
 6511 1207 01       		.uleb128 0x1
 6512 1208 9C       		.byte	0x9c
 6513 1209 3C120000 		.4byte	0x123c
 6514 120d 1C       		.uleb128 0x1c
 6515 120e 95060000 		.4byte	.LASF65
 6516 1212 01       		.byte	0x1
 6517 1213 AA05     		.2byte	0x5aa
 6518 1215 11040000 		.4byte	0x411
 6519 1219 01       		.uleb128 0x1
 6520 121a 50       		.byte	0x50
 6521 121b 1E       		.uleb128 0x1e
 6522 121c 4F020000 		.4byte	.LASF139
 6523 1220 01       		.byte	0x1
 6524 1221 AA05     		.2byte	0x5aa
 6525 1223 A2000000 		.4byte	0xa2
 6526 1227 740B0000 		.4byte	.LLST51
 6527 122b 1D       		.uleb128 0x1d
 6528 122c 57010000 		.4byte	.LASF74
 6529 1230 01       		.byte	0x1
 6530 1231 AC05     		.2byte	0x5ac
 6531 1233 A2000000 		.4byte	0xa2
 6532 1237 950B0000 		.4byte	.LLST52
 6533 123b 00       		.byte	0
 6534 123c 1B       		.uleb128 0x1b
 6535 123d B5000000 		.4byte	.LASF143
 6536 1241 01       		.byte	0x1
 6537 1242 C805     		.2byte	0x5c8
 6538 1244 00000000 		.4byte	.LFB149
ARM GAS  /tmp/cchgQdZS.s 			page 118


 6539 1248 0E000000 		.4byte	.LFE149-.LFB149
 6540 124c 01       		.uleb128 0x1
 6541 124d 9C       		.byte	0x9c
 6542 124e 81120000 		.4byte	0x1281
 6543 1252 1C       		.uleb128 0x1c
 6544 1253 95060000 		.4byte	.LASF65
 6545 1257 01       		.byte	0x1
 6546 1258 C805     		.2byte	0x5c8
 6547 125a 11040000 		.4byte	0x411
 6548 125e 01       		.uleb128 0x1
 6549 125f 50       		.byte	0x50
 6550 1260 1E       		.uleb128 0x1e
 6551 1261 7B0D0000 		.4byte	.LASF144
 6552 1265 01       		.byte	0x1
 6553 1266 C805     		.2byte	0x5c8
 6554 1268 A2000000 		.4byte	0xa2
 6555 126c F00B0000 		.4byte	.LLST53
 6556 1270 1D       		.uleb128 0x1d
 6557 1271 4E010000 		.4byte	.LASF66
 6558 1275 01       		.byte	0x1
 6559 1276 CA05     		.2byte	0x5ca
 6560 1278 A2000000 		.4byte	0xa2
 6561 127c 110C0000 		.4byte	.LLST54
 6562 1280 00       		.byte	0
 6563 1281 1B       		.uleb128 0x1b
 6564 1282 410D0000 		.4byte	.LASF145
 6565 1286 01       		.byte	0x1
 6566 1287 E605     		.2byte	0x5e6
 6567 1289 00000000 		.4byte	.LFB150
 6568 128d 10000000 		.4byte	.LFE150-.LFB150
 6569 1291 01       		.uleb128 0x1
 6570 1292 9C       		.byte	0x9c
 6571 1293 C6120000 		.4byte	0x12c6
 6572 1297 1C       		.uleb128 0x1c
 6573 1298 95060000 		.4byte	.LASF65
 6574 129c 01       		.byte	0x1
 6575 129d E605     		.2byte	0x5e6
 6576 129f 11040000 		.4byte	0x411
 6577 12a3 01       		.uleb128 0x1
 6578 12a4 50       		.byte	0x50
 6579 12a5 1E       		.uleb128 0x1e
 6580 12a6 7B0D0000 		.4byte	.LASF144
 6581 12aa 01       		.byte	0x1
 6582 12ab E605     		.2byte	0x5e6
 6583 12ad A2000000 		.4byte	0xa2
 6584 12b1 510C0000 		.4byte	.LLST55
 6585 12b5 1D       		.uleb128 0x1d
 6586 12b6 4E010000 		.4byte	.LASF66
 6587 12ba 01       		.byte	0x1
 6588 12bb E805     		.2byte	0x5e8
 6589 12bd A2000000 		.4byte	0xa2
 6590 12c1 720C0000 		.4byte	.LLST56
 6591 12c5 00       		.byte	0
 6592 12c6 1B       		.uleb128 0x1b
 6593 12c7 C1070000 		.4byte	.LASF146
 6594 12cb 01       		.byte	0x1
 6595 12cc 0306     		.2byte	0x603
ARM GAS  /tmp/cchgQdZS.s 			page 119


 6596 12ce 00000000 		.4byte	.LFB151
 6597 12d2 0E000000 		.4byte	.LFE151-.LFB151
 6598 12d6 01       		.uleb128 0x1
 6599 12d7 9C       		.byte	0x9c
 6600 12d8 0B130000 		.4byte	0x130b
 6601 12dc 1C       		.uleb128 0x1c
 6602 12dd 95060000 		.4byte	.LASF65
 6603 12e1 01       		.byte	0x1
 6604 12e2 0306     		.2byte	0x603
 6605 12e4 11040000 		.4byte	0x411
 6606 12e8 01       		.uleb128 0x1
 6607 12e9 50       		.byte	0x50
 6608 12ea 1E       		.uleb128 0x1e
 6609 12eb 7B0D0000 		.4byte	.LASF144
 6610 12ef 01       		.byte	0x1
 6611 12f0 0306     		.2byte	0x603
 6612 12f2 A2000000 		.4byte	0xa2
 6613 12f6 B60C0000 		.4byte	.LLST57
 6614 12fa 1D       		.uleb128 0x1d
 6615 12fb 57010000 		.4byte	.LASF74
 6616 12ff 01       		.byte	0x1
 6617 1300 0506     		.2byte	0x605
 6618 1302 A2000000 		.4byte	0xa2
 6619 1306 D70C0000 		.4byte	.LLST58
 6620 130a 00       		.byte	0
 6621 130b 1B       		.uleb128 0x1b
 6622 130c 100C0000 		.4byte	.LASF147
 6623 1310 01       		.byte	0x1
 6624 1311 2006     		.2byte	0x620
 6625 1313 00000000 		.4byte	.LFB152
 6626 1317 10000000 		.4byte	.LFE152-.LFB152
 6627 131b 01       		.uleb128 0x1
 6628 131c 9C       		.byte	0x9c
 6629 131d 50130000 		.4byte	0x1350
 6630 1321 1C       		.uleb128 0x1c
 6631 1322 95060000 		.4byte	.LASF65
 6632 1326 01       		.byte	0x1
 6633 1327 2006     		.2byte	0x620
 6634 1329 11040000 		.4byte	0x411
 6635 132d 01       		.uleb128 0x1
 6636 132e 50       		.byte	0x50
 6637 132f 1E       		.uleb128 0x1e
 6638 1330 7B0D0000 		.4byte	.LASF144
 6639 1334 01       		.byte	0x1
 6640 1335 2006     		.2byte	0x620
 6641 1337 A2000000 		.4byte	0xa2
 6642 133b 170D0000 		.4byte	.LLST59
 6643 133f 1D       		.uleb128 0x1d
 6644 1340 57010000 		.4byte	.LASF74
 6645 1344 01       		.byte	0x1
 6646 1345 2206     		.2byte	0x622
 6647 1347 A2000000 		.4byte	0xa2
 6648 134b 380D0000 		.4byte	.LLST60
 6649 134f 00       		.byte	0
 6650 1350 1B       		.uleb128 0x1b
 6651 1351 DE070000 		.4byte	.LASF148
 6652 1355 01       		.byte	0x1
ARM GAS  /tmp/cchgQdZS.s 			page 120


 6653 1356 3D06     		.2byte	0x63d
 6654 1358 00000000 		.4byte	.LFB153
 6655 135c 0E000000 		.4byte	.LFE153-.LFB153
 6656 1360 01       		.uleb128 0x1
 6657 1361 9C       		.byte	0x9c
 6658 1362 95130000 		.4byte	0x1395
 6659 1366 1C       		.uleb128 0x1c
 6660 1367 95060000 		.4byte	.LASF65
 6661 136b 01       		.byte	0x1
 6662 136c 3D06     		.2byte	0x63d
 6663 136e 11040000 		.4byte	0x411
 6664 1372 01       		.uleb128 0x1
 6665 1373 50       		.byte	0x50
 6666 1374 1E       		.uleb128 0x1e
 6667 1375 A1050000 		.4byte	.LASF46
 6668 1379 01       		.byte	0x1
 6669 137a 3D06     		.2byte	0x63d
 6670 137c A2000000 		.4byte	0xa2
 6671 1380 7C0D0000 		.4byte	.LLST61
 6672 1384 1D       		.uleb128 0x1d
 6673 1385 6A050000 		.4byte	.LASF67
 6674 1389 01       		.byte	0x1
 6675 138a 3F06     		.2byte	0x63f
 6676 138c A2000000 		.4byte	0xa2
 6677 1390 9D0D0000 		.4byte	.LLST62
 6678 1394 00       		.byte	0
 6679 1395 1B       		.uleb128 0x1b
 6680 1396 320C0000 		.4byte	.LASF149
 6681 139a 01       		.byte	0x1
 6682 139b 5806     		.2byte	0x658
 6683 139d 00000000 		.4byte	.LFB154
 6684 13a1 0E000000 		.4byte	.LFE154-.LFB154
 6685 13a5 01       		.uleb128 0x1
 6686 13a6 9C       		.byte	0x9c
 6687 13a7 DA130000 		.4byte	0x13da
 6688 13ab 1C       		.uleb128 0x1c
 6689 13ac 95060000 		.4byte	.LASF65
 6690 13b0 01       		.byte	0x1
 6691 13b1 5806     		.2byte	0x658
 6692 13b3 11040000 		.4byte	0x411
 6693 13b7 01       		.uleb128 0x1
 6694 13b8 50       		.byte	0x50
 6695 13b9 1E       		.uleb128 0x1e
 6696 13ba CD0A0000 		.4byte	.LASF47
 6697 13be 01       		.byte	0x1
 6698 13bf 5806     		.2byte	0x658
 6699 13c1 A2000000 		.4byte	0xa2
 6700 13c5 DD0D0000 		.4byte	.LLST63
 6701 13c9 1D       		.uleb128 0x1d
 6702 13ca 6A050000 		.4byte	.LASF67
 6703 13ce 01       		.byte	0x1
 6704 13cf 5A06     		.2byte	0x65a
 6705 13d1 A2000000 		.4byte	0xa2
 6706 13d5 FE0D0000 		.4byte	.LLST64
 6707 13d9 00       		.byte	0
 6708 13da 1B       		.uleb128 0x1b
 6709 13db B0010000 		.4byte	.LASF150
ARM GAS  /tmp/cchgQdZS.s 			page 121


 6710 13df 01       		.byte	0x1
 6711 13e0 7306     		.2byte	0x673
 6712 13e2 00000000 		.4byte	.LFB155
 6713 13e6 12000000 		.4byte	.LFE155-.LFB155
 6714 13ea 01       		.uleb128 0x1
 6715 13eb 9C       		.byte	0x9c
 6716 13ec 1F140000 		.4byte	0x141f
 6717 13f0 1C       		.uleb128 0x1c
 6718 13f1 95060000 		.4byte	.LASF65
 6719 13f5 01       		.byte	0x1
 6720 13f6 7306     		.2byte	0x673
 6721 13f8 11040000 		.4byte	0x411
 6722 13fc 01       		.uleb128 0x1
 6723 13fd 50       		.byte	0x50
 6724 13fe 1E       		.uleb128 0x1e
 6725 13ff A1050000 		.4byte	.LASF46
 6726 1403 01       		.byte	0x1
 6727 1404 7306     		.2byte	0x673
 6728 1406 A2000000 		.4byte	0xa2
 6729 140a 3E0E0000 		.4byte	.LLST65
 6730 140e 1D       		.uleb128 0x1d
 6731 140f 6A050000 		.4byte	.LASF67
 6732 1413 01       		.byte	0x1
 6733 1414 7506     		.2byte	0x675
 6734 1416 A2000000 		.4byte	0xa2
 6735 141a 5F0E0000 		.4byte	.LLST66
 6736 141e 00       		.byte	0
 6737 141f 1B       		.uleb128 0x1b
 6738 1420 72050000 		.4byte	.LASF151
 6739 1424 01       		.byte	0x1
 6740 1425 8E06     		.2byte	0x68e
 6741 1427 00000000 		.4byte	.LFB156
 6742 142b 12000000 		.4byte	.LFE156-.LFB156
 6743 142f 01       		.uleb128 0x1
 6744 1430 9C       		.byte	0x9c
 6745 1431 64140000 		.4byte	0x1464
 6746 1435 1C       		.uleb128 0x1c
 6747 1436 95060000 		.4byte	.LASF65
 6748 143a 01       		.byte	0x1
 6749 143b 8E06     		.2byte	0x68e
 6750 143d 11040000 		.4byte	0x411
 6751 1441 01       		.uleb128 0x1
 6752 1442 50       		.byte	0x50
 6753 1443 1E       		.uleb128 0x1e
 6754 1444 CD0A0000 		.4byte	.LASF47
 6755 1448 01       		.byte	0x1
 6756 1449 8E06     		.2byte	0x68e
 6757 144b A2000000 		.4byte	0xa2
 6758 144f BA0E0000 		.4byte	.LLST67
 6759 1453 1D       		.uleb128 0x1d
 6760 1454 6A050000 		.4byte	.LASF67
 6761 1458 01       		.byte	0x1
 6762 1459 9006     		.2byte	0x690
 6763 145b A2000000 		.4byte	0xa2
 6764 145f DB0E0000 		.4byte	.LLST68
 6765 1463 00       		.byte	0
 6766 1464 1B       		.uleb128 0x1b
ARM GAS  /tmp/cchgQdZS.s 			page 122


 6767 1465 C00C0000 		.4byte	.LASF152
 6768 1469 01       		.byte	0x1
 6769 146a A906     		.2byte	0x6a9
 6770 146c 00000000 		.4byte	.LFB157
 6771 1470 12000000 		.4byte	.LFE157-.LFB157
 6772 1474 01       		.uleb128 0x1
 6773 1475 9C       		.byte	0x9c
 6774 1476 A9140000 		.4byte	0x14a9
 6775 147a 1C       		.uleb128 0x1c
 6776 147b 95060000 		.4byte	.LASF65
 6777 147f 01       		.byte	0x1
 6778 1480 A906     		.2byte	0x6a9
 6779 1482 11040000 		.4byte	0x411
 6780 1486 01       		.uleb128 0x1
 6781 1487 50       		.byte	0x50
 6782 1488 1E       		.uleb128 0x1e
 6783 1489 A1050000 		.4byte	.LASF46
 6784 148d 01       		.byte	0x1
 6785 148e A906     		.2byte	0x6a9
 6786 1490 A2000000 		.4byte	0xa2
 6787 1494 360F0000 		.4byte	.LLST69
 6788 1498 1D       		.uleb128 0x1d
 6789 1499 6A050000 		.4byte	.LASF67
 6790 149d 01       		.byte	0x1
 6791 149e AB06     		.2byte	0x6ab
 6792 14a0 A2000000 		.4byte	0xa2
 6793 14a4 570F0000 		.4byte	.LLST70
 6794 14a8 00       		.byte	0
 6795 14a9 1B       		.uleb128 0x1b
 6796 14aa F2090000 		.4byte	.LASF153
 6797 14ae 01       		.byte	0x1
 6798 14af C406     		.2byte	0x6c4
 6799 14b1 00000000 		.4byte	.LFB158
 6800 14b5 12000000 		.4byte	.LFE158-.LFB158
 6801 14b9 01       		.uleb128 0x1
 6802 14ba 9C       		.byte	0x9c
 6803 14bb EE140000 		.4byte	0x14ee
 6804 14bf 1C       		.uleb128 0x1c
 6805 14c0 95060000 		.4byte	.LASF65
 6806 14c4 01       		.byte	0x1
 6807 14c5 C406     		.2byte	0x6c4
 6808 14c7 11040000 		.4byte	0x411
 6809 14cb 01       		.uleb128 0x1
 6810 14cc 50       		.byte	0x50
 6811 14cd 1E       		.uleb128 0x1e
 6812 14ce CD0A0000 		.4byte	.LASF47
 6813 14d2 01       		.byte	0x1
 6814 14d3 C406     		.2byte	0x6c4
 6815 14d5 A2000000 		.4byte	0xa2
 6816 14d9 B20F0000 		.4byte	.LLST71
 6817 14dd 1D       		.uleb128 0x1d
 6818 14de 6A050000 		.4byte	.LASF67
 6819 14e2 01       		.byte	0x1
 6820 14e3 C606     		.2byte	0x6c6
 6821 14e5 A2000000 		.4byte	0xa2
 6822 14e9 D30F0000 		.4byte	.LLST72
 6823 14ed 00       		.byte	0
ARM GAS  /tmp/cchgQdZS.s 			page 123


 6824 14ee 1B       		.uleb128 0x1b
 6825 14ef AA060000 		.4byte	.LASF154
 6826 14f3 01       		.byte	0x1
 6827 14f4 DF06     		.2byte	0x6df
 6828 14f6 00000000 		.4byte	.LFB159
 6829 14fa 12000000 		.4byte	.LFE159-.LFB159
 6830 14fe 01       		.uleb128 0x1
 6831 14ff 9C       		.byte	0x9c
 6832 1500 33150000 		.4byte	0x1533
 6833 1504 1C       		.uleb128 0x1c
 6834 1505 95060000 		.4byte	.LASF65
 6835 1509 01       		.byte	0x1
 6836 150a DF06     		.2byte	0x6df
 6837 150c 11040000 		.4byte	0x411
 6838 1510 01       		.uleb128 0x1
 6839 1511 50       		.byte	0x50
 6840 1512 1E       		.uleb128 0x1e
 6841 1513 A1050000 		.4byte	.LASF46
 6842 1517 01       		.byte	0x1
 6843 1518 DF06     		.2byte	0x6df
 6844 151a A2000000 		.4byte	0xa2
 6845 151e 2E100000 		.4byte	.LLST73
 6846 1522 1D       		.uleb128 0x1d
 6847 1523 6A050000 		.4byte	.LASF67
 6848 1527 01       		.byte	0x1
 6849 1528 E106     		.2byte	0x6e1
 6850 152a A2000000 		.4byte	0xa2
 6851 152e 4F100000 		.4byte	.LLST74
 6852 1532 00       		.byte	0
 6853 1533 1B       		.uleb128 0x1b
 6854 1534 A2020000 		.4byte	.LASF155
 6855 1538 01       		.byte	0x1
 6856 1539 FE06     		.2byte	0x6fe
 6857 153b 00000000 		.4byte	.LFB160
 6858 153f 20000000 		.4byte	.LFE160-.LFB160
 6859 1543 01       		.uleb128 0x1
 6860 1544 9C       		.byte	0x9c
 6861 1545 84150000 		.4byte	0x1584
 6862 1549 1C       		.uleb128 0x1c
 6863 154a 95060000 		.4byte	.LASF65
 6864 154e 01       		.byte	0x1
 6865 154f FE06     		.2byte	0x6fe
 6866 1551 11040000 		.4byte	0x411
 6867 1555 01       		.uleb128 0x1
 6868 1556 50       		.byte	0x50
 6869 1557 1E       		.uleb128 0x1e
 6870 1558 5A020000 		.4byte	.LASF51
 6871 155c 01       		.byte	0x1
 6872 155d FE06     		.2byte	0x6fe
 6873 155f A2000000 		.4byte	0xa2
 6874 1563 AA100000 		.4byte	.LLST75
 6875 1567 1E       		.uleb128 0x1e
 6876 1568 D4080000 		.4byte	.LASF156
 6877 156c 01       		.byte	0x1
 6878 156d FE06     		.2byte	0x6fe
 6879 156f A2000000 		.4byte	0xa2
 6880 1573 CB100000 		.4byte	.LLST76
ARM GAS  /tmp/cchgQdZS.s 			page 124


 6881 1577 14       		.uleb128 0x14
 6882 1578 746D7000 		.ascii	"tmp\000"
 6883 157c 01       		.byte	0x1
 6884 157d 0007     		.2byte	0x700
 6885 157f A2000000 		.4byte	0xa2
 6886 1583 00       		.byte	0
 6887 1584 1B       		.uleb128 0x1b
 6888 1585 18080000 		.4byte	.LASF157
 6889 1589 01       		.byte	0x1
 6890 158a 1C07     		.2byte	0x71c
 6891 158c 00000000 		.4byte	.LFB161
 6892 1590 20000000 		.4byte	.LFE161-.LFB161
 6893 1594 01       		.uleb128 0x1
 6894 1595 9C       		.byte	0x9c
 6895 1596 D5150000 		.4byte	0x15d5
 6896 159a 1C       		.uleb128 0x1c
 6897 159b 95060000 		.4byte	.LASF65
 6898 159f 01       		.byte	0x1
 6899 15a0 1C07     		.2byte	0x71c
 6900 15a2 11040000 		.4byte	0x411
 6901 15a6 01       		.uleb128 0x1
 6902 15a7 50       		.byte	0x50
 6903 15a8 1E       		.uleb128 0x1e
 6904 15a9 5A020000 		.4byte	.LASF51
 6905 15ad 01       		.byte	0x1
 6906 15ae 1C07     		.2byte	0x71c
 6907 15b0 A2000000 		.4byte	0xa2
 6908 15b4 EC100000 		.4byte	.LLST77
 6909 15b8 1E       		.uleb128 0x1e
 6910 15b9 A4040000 		.4byte	.LASF158
 6911 15bd 01       		.byte	0x1
 6912 15be 1C07     		.2byte	0x71c
 6913 15c0 A2000000 		.4byte	0xa2
 6914 15c4 0D110000 		.4byte	.LLST78
 6915 15c8 14       		.uleb128 0x14
 6916 15c9 746D7000 		.ascii	"tmp\000"
 6917 15cd 01       		.byte	0x1
 6918 15ce 1E07     		.2byte	0x71e
 6919 15d0 A2000000 		.4byte	0xa2
 6920 15d4 00       		.byte	0
 6921 15d5 1B       		.uleb128 0x1b
 6922 15d6 830B0000 		.4byte	.LASF159
 6923 15da 01       		.byte	0x1
 6924 15db 7007     		.2byte	0x770
 6925 15dd 00000000 		.4byte	.LFB162
 6926 15e1 4E010000 		.4byte	.LFE162-.LFB162
 6927 15e5 01       		.uleb128 0x1
 6928 15e6 9C       		.byte	0x9c
 6929 15e7 FB170000 		.4byte	0x17fb
 6930 15eb 1C       		.uleb128 0x1c
 6931 15ec 95060000 		.4byte	.LASF65
 6932 15f0 01       		.byte	0x1
 6933 15f1 7007     		.2byte	0x770
 6934 15f3 11040000 		.4byte	0x411
 6935 15f7 01       		.uleb128 0x1
 6936 15f8 50       		.byte	0x50
 6937 15f9 1E       		.uleb128 0x1e
ARM GAS  /tmp/cchgQdZS.s 			page 125


 6938 15fa 1D0D0000 		.4byte	.LASF160
 6939 15fe 01       		.byte	0x1
 6940 15ff 7007     		.2byte	0x770
 6941 1601 FB170000 		.4byte	0x17fb
 6942 1605 2E110000 		.4byte	.LLST79
 6943 1609 21       		.uleb128 0x21
 6944 160a 4D050000 		.4byte	0x54d
 6945 160e 10000000 		.4byte	.LBB46
 6946 1612 00000000 		.4byte	.Ldebug_ranges0+0
 6947 1616 01       		.byte	0x1
 6948 1617 9A07     		.2byte	0x79a
 6949 1619 63160000 		.4byte	0x1663
 6950 161d 22       		.uleb128 0x22
 6951 161e 7E050000 		.4byte	0x57e
 6952 1622 9A110000 		.4byte	.LLST80
 6953 1626 22       		.uleb128 0x22
 6954 1627 72050000 		.4byte	0x572
 6955 162b C8110000 		.4byte	.LLST81
 6956 162f 22       		.uleb128 0x22
 6957 1630 66050000 		.4byte	0x566
 6958 1634 E7110000 		.4byte	.LLST82
 6959 1638 22       		.uleb128 0x22
 6960 1639 5A050000 		.4byte	0x55a
 6961 163d 06120000 		.4byte	.LLST83
 6962 1641 23       		.uleb128 0x23
 6963 1642 00000000 		.4byte	.Ldebug_ranges0+0
 6964 1646 24       		.uleb128 0x24
 6965 1647 8A050000 		.4byte	0x58a
 6966 164b 19120000 		.4byte	.LLST84
 6967 164f 24       		.uleb128 0x24
 6968 1650 96050000 		.4byte	0x596
 6969 1654 5C120000 		.4byte	.LLST85
 6970 1658 24       		.uleb128 0x24
 6971 1659 A2050000 		.4byte	0x5a2
 6972 165d 7B120000 		.4byte	.LLST86
 6973 1661 00       		.byte	0
 6974 1662 00       		.byte	0
 6975 1663 25       		.uleb128 0x25
 6976 1664 AF050000 		.4byte	0x5af
 6977 1668 4E000000 		.4byte	.LBB50
 6978 166c 14000000 		.4byte	.LBE50-.LBB50
 6979 1670 01       		.byte	0x1
 6980 1671 9E07     		.2byte	0x79e
 6981 1673 8A160000 		.4byte	0x168a
 6982 1677 22       		.uleb128 0x22
 6983 1678 C8050000 		.4byte	0x5c8
 6984 167c 9E120000 		.4byte	.LLST87
 6985 1680 22       		.uleb128 0x22
 6986 1681 BC050000 		.4byte	0x5bc
 6987 1685 B1120000 		.4byte	.LLST88
 6988 1689 00       		.byte	0
 6989 168a 21       		.uleb128 0x21
 6990 168b BB030000 		.4byte	0x3bb
 6991 168f 66000000 		.4byte	.LBB52
 6992 1693 18000000 		.4byte	.Ldebug_ranges0+0x18
 6993 1697 01       		.byte	0x1
 6994 1698 7C07     		.2byte	0x77c
ARM GAS  /tmp/cchgQdZS.s 			page 126


 6995 169a DB160000 		.4byte	0x16db
 6996 169e 22       		.uleb128 0x22
 6997 169f EC030000 		.4byte	0x3ec
 6998 16a3 C4120000 		.4byte	.LLST89
 6999 16a7 22       		.uleb128 0x22
 7000 16a8 E0030000 		.4byte	0x3e0
 7001 16ac E3120000 		.4byte	.LLST90
 7002 16b0 22       		.uleb128 0x22
 7003 16b1 D4030000 		.4byte	0x3d4
 7004 16b5 11130000 		.4byte	.LLST91
 7005 16b9 22       		.uleb128 0x22
 7006 16ba C8030000 		.4byte	0x3c8
 7007 16be 3F130000 		.4byte	.LLST92
 7008 16c2 23       		.uleb128 0x23
 7009 16c3 18000000 		.4byte	.Ldebug_ranges0+0x18
 7010 16c7 24       		.uleb128 0x24
 7011 16c8 F8030000 		.4byte	0x3f8
 7012 16cc 52130000 		.4byte	.LLST93
 7013 16d0 24       		.uleb128 0x24
 7014 16d1 04040000 		.4byte	0x404
 7015 16d5 8B130000 		.4byte	.LLST94
 7016 16d9 00       		.byte	0
 7017 16da 00       		.byte	0
 7018 16db 25       		.uleb128 0x25
 7019 16dc 17040000 		.4byte	0x417
 7020 16e0 9C000000 		.4byte	.LBB56
 7021 16e4 10000000 		.4byte	.LBE56-.LBB56
 7022 16e8 01       		.byte	0x1
 7023 16e9 8007     		.2byte	0x780
 7024 16eb 02170000 		.4byte	0x1702
 7025 16ef 22       		.uleb128 0x22
 7026 16f0 30040000 		.4byte	0x430
 7027 16f4 D2130000 		.4byte	.LLST95
 7028 16f8 22       		.uleb128 0x22
 7029 16f9 24040000 		.4byte	0x424
 7030 16fd F4130000 		.4byte	.LLST96
 7031 1701 00       		.byte	0
 7032 1702 21       		.uleb128 0x21
 7033 1703 3D040000 		.4byte	0x43d
 7034 1707 B0000000 		.4byte	.LBB58
 7035 170b 30000000 		.4byte	.Ldebug_ranges0+0x30
 7036 170f 01       		.byte	0x1
 7037 1710 8607     		.2byte	0x786
 7038 1712 5C170000 		.4byte	0x175c
 7039 1716 22       		.uleb128 0x22
 7040 1717 6E040000 		.4byte	0x46e
 7041 171b 07140000 		.4byte	.LLST97
 7042 171f 22       		.uleb128 0x22
 7043 1720 62040000 		.4byte	0x462
 7044 1724 35140000 		.4byte	.LLST98
 7045 1728 22       		.uleb128 0x22
 7046 1729 56040000 		.4byte	0x456
 7047 172d 63140000 		.4byte	.LLST99
 7048 1731 22       		.uleb128 0x22
 7049 1732 4A040000 		.4byte	0x44a
 7050 1736 91140000 		.4byte	.LLST100
 7051 173a 23       		.uleb128 0x23
ARM GAS  /tmp/cchgQdZS.s 			page 127


 7052 173b 30000000 		.4byte	.Ldebug_ranges0+0x30
 7053 173f 24       		.uleb128 0x24
 7054 1740 7A040000 		.4byte	0x47a
 7055 1744 A4140000 		.4byte	.LLST101
 7056 1748 24       		.uleb128 0x24
 7057 1749 86040000 		.4byte	0x486
 7058 174d E7140000 		.4byte	.LLST102
 7059 1751 24       		.uleb128 0x24
 7060 1752 92040000 		.4byte	0x492
 7061 1756 06150000 		.4byte	.LLST103
 7062 175a 00       		.byte	0
 7063 175b 00       		.byte	0
 7064 175c 25       		.uleb128 0x25
 7065 175d 9F040000 		.4byte	0x49f
 7066 1761 EA000000 		.4byte	.LBB62
 7067 1765 14000000 		.4byte	.LBE62-.LBB62
 7068 1769 01       		.byte	0x1
 7069 176a 8A07     		.2byte	0x78a
 7070 176c 83170000 		.4byte	0x1783
 7071 1770 22       		.uleb128 0x22
 7072 1771 B8040000 		.4byte	0x4b8
 7073 1775 3D150000 		.4byte	.LLST104
 7074 1779 22       		.uleb128 0x22
 7075 177a AC040000 		.4byte	0x4ac
 7076 177e 50150000 		.4byte	.LLST105
 7077 1782 00       		.byte	0
 7078 1783 21       		.uleb128 0x21
 7079 1784 C5040000 		.4byte	0x4c5
 7080 1788 02010000 		.4byte	.LBB64
 7081 178c 48000000 		.4byte	.Ldebug_ranges0+0x48
 7082 1790 01       		.byte	0x1
 7083 1791 9007     		.2byte	0x790
 7084 1793 DB170000 		.4byte	0x17db
 7085 1797 22       		.uleb128 0x22
 7086 1798 F6040000 		.4byte	0x4f6
 7087 179c 63150000 		.4byte	.LLST106
 7088 17a0 22       		.uleb128 0x22
 7089 17a1 EA040000 		.4byte	0x4ea
 7090 17a5 82150000 		.4byte	.LLST107
 7091 17a9 22       		.uleb128 0x22
 7092 17aa DE040000 		.4byte	0x4de
 7093 17ae A1150000 		.4byte	.LLST108
 7094 17b2 26       		.uleb128 0x26
 7095 17b3 D2040000 		.4byte	0x4d2
 7096 17b7 01       		.uleb128 0x1
 7097 17b8 50       		.byte	0x50
 7098 17b9 23       		.uleb128 0x23
 7099 17ba 48000000 		.4byte	.Ldebug_ranges0+0x48
 7100 17be 24       		.uleb128 0x24
 7101 17bf 02050000 		.4byte	0x502
 7102 17c3 C0150000 		.4byte	.LLST109
 7103 17c7 24       		.uleb128 0x24
 7104 17c8 0E050000 		.4byte	0x50e
 7105 17cc 0D160000 		.4byte	.LLST110
 7106 17d0 24       		.uleb128 0x24
 7107 17d1 1A050000 		.4byte	0x51a
 7108 17d5 42160000 		.4byte	.LLST111
ARM GAS  /tmp/cchgQdZS.s 			page 128


 7109 17d9 00       		.byte	0
 7110 17da 00       		.byte	0
 7111 17db 27       		.uleb128 0x27
 7112 17dc 27050000 		.4byte	0x527
 7113 17e0 3C010000 		.4byte	.LBB68
 7114 17e4 12000000 		.4byte	.LBE68-.LBB68
 7115 17e8 01       		.byte	0x1
 7116 17e9 9407     		.2byte	0x794
 7117 17eb 26       		.uleb128 0x26
 7118 17ec 40050000 		.4byte	0x540
 7119 17f0 01       		.uleb128 0x1
 7120 17f1 54       		.byte	0x54
 7121 17f2 26       		.uleb128 0x26
 7122 17f3 34050000 		.4byte	0x534
 7123 17f7 01       		.uleb128 0x1
 7124 17f8 50       		.byte	0x50
 7125 17f9 00       		.byte	0
 7126 17fa 00       		.byte	0
 7127 17fb 12       		.uleb128 0x12
 7128 17fc 04       		.byte	0x4
 7129 17fd 48030000 		.4byte	0x348
 7130 1801 1B       		.uleb128 0x1b
 7131 1802 3F040000 		.4byte	.LASF161
 7132 1806 01       		.byte	0x1
 7133 1807 A807     		.2byte	0x7a8
 7134 1809 00000000 		.4byte	.LFB163
 7135 180d 10000000 		.4byte	.LFE163-.LFB163
 7136 1811 01       		.uleb128 0x1
 7137 1812 9C       		.byte	0x9c
 7138 1813 26180000 		.4byte	0x1826
 7139 1817 1C       		.uleb128 0x1c
 7140 1818 1D0D0000 		.4byte	.LASF160
 7141 181c 01       		.byte	0x1
 7142 181d A807     		.2byte	0x7a8
 7143 181f FB170000 		.4byte	0x17fb
 7144 1823 01       		.uleb128 0x1
 7145 1824 50       		.byte	0x50
 7146 1825 00       		.byte	0
 7147 1826 1B       		.uleb128 0x1b
 7148 1827 00070000 		.4byte	.LASF162
 7149 182b 01       		.byte	0x1
 7150 182c BB07     		.2byte	0x7bb
 7151 182e 00000000 		.4byte	.LFB164
 7152 1832 4A010000 		.4byte	.LFE164-.LFB164
 7153 1836 01       		.uleb128 0x1
 7154 1837 9C       		.byte	0x9c
 7155 1838 671A0000 		.4byte	0x1a67
 7156 183c 1C       		.uleb128 0x1c
 7157 183d 95060000 		.4byte	.LASF65
 7158 1841 01       		.byte	0x1
 7159 1842 BB07     		.2byte	0x7bb
 7160 1844 11040000 		.4byte	0x411
 7161 1848 01       		.uleb128 0x1
 7162 1849 50       		.byte	0x50
 7163 184a 1E       		.uleb128 0x1e
 7164 184b 1D0D0000 		.4byte	.LASF160
 7165 184f 01       		.byte	0x1
ARM GAS  /tmp/cchgQdZS.s 			page 129


 7166 1850 BB07     		.2byte	0x7bb
 7167 1852 FB170000 		.4byte	0x17fb
 7168 1856 65160000 		.4byte	.LLST112
 7169 185a 1D       		.uleb128 0x1d
 7170 185b 80040000 		.4byte	.LASF163
 7171 185f 01       		.byte	0x1
 7172 1860 BD07     		.2byte	0x7bd
 7173 1862 A2000000 		.4byte	0xa2
 7174 1866 9F160000 		.4byte	.LLST113
 7175 186a 1D       		.uleb128 0x1d
 7176 186b 53080000 		.4byte	.LASF164
 7177 186f 01       		.byte	0x1
 7178 1870 BE07     		.2byte	0x7be
 7179 1872 A2000000 		.4byte	0xa2
 7180 1876 07170000 		.4byte	.LLST114
 7181 187a 21       		.uleb128 0x21
 7182 187b 3D040000 		.4byte	0x43d
 7183 187f 1E000000 		.4byte	.LBB70
 7184 1883 60000000 		.4byte	.Ldebug_ranges0+0x60
 7185 1887 01       		.byte	0x1
 7186 1888 E407     		.2byte	0x7e4
 7187 188a D4180000 		.4byte	0x18d4
 7188 188e 22       		.uleb128 0x22
 7189 188f 6E040000 		.4byte	0x46e
 7190 1893 6F170000 		.4byte	.LLST115
 7191 1897 22       		.uleb128 0x22
 7192 1898 62040000 		.4byte	0x462
 7193 189c 9D170000 		.4byte	.LLST116
 7194 18a0 22       		.uleb128 0x22
 7195 18a1 56040000 		.4byte	0x456
 7196 18a5 CB170000 		.4byte	.LLST117
 7197 18a9 22       		.uleb128 0x22
 7198 18aa 4A040000 		.4byte	0x44a
 7199 18ae F9170000 		.4byte	.LLST118
 7200 18b2 23       		.uleb128 0x23
 7201 18b3 60000000 		.4byte	.Ldebug_ranges0+0x60
 7202 18b7 24       		.uleb128 0x24
 7203 18b8 7A040000 		.4byte	0x47a
 7204 18bc 0C180000 		.4byte	.LLST119
 7205 18c0 24       		.uleb128 0x24
 7206 18c1 86040000 		.4byte	0x486
 7207 18c5 83180000 		.4byte	.LLST120
 7208 18c9 24       		.uleb128 0x24
 7209 18ca 92040000 		.4byte	0x492
 7210 18ce BB180000 		.4byte	.LLST121
 7211 18d2 00       		.byte	0
 7212 18d3 00       		.byte	0
 7213 18d4 25       		.uleb128 0x25
 7214 18d5 9F040000 		.4byte	0x49f
 7215 18d9 5C000000 		.4byte	.LBB74
 7216 18dd 14000000 		.4byte	.LBE74-.LBB74
 7217 18e1 01       		.byte	0x1
 7218 18e2 E707     		.2byte	0x7e7
 7219 18e4 FB180000 		.4byte	0x18fb
 7220 18e8 22       		.uleb128 0x22
 7221 18e9 B8040000 		.4byte	0x4b8
 7222 18ed F2180000 		.4byte	.LLST122
ARM GAS  /tmp/cchgQdZS.s 			page 130


 7223 18f1 22       		.uleb128 0x22
 7224 18f2 AC040000 		.4byte	0x4ac
 7225 18f6 14190000 		.4byte	.LLST123
 7226 18fa 00       		.byte	0
 7227 18fb 25       		.uleb128 0x25
 7228 18fc BB030000 		.4byte	0x3bb
 7229 1900 70000000 		.4byte	.LBB76
 7230 1904 30000000 		.4byte	.LBE76-.LBB76
 7231 1908 01       		.byte	0x1
 7232 1909 E907     		.2byte	0x7e9
 7233 190b 50190000 		.4byte	0x1950
 7234 190f 22       		.uleb128 0x22
 7235 1910 EC030000 		.4byte	0x3ec
 7236 1914 27190000 		.4byte	.LLST124
 7237 1918 22       		.uleb128 0x22
 7238 1919 E0030000 		.4byte	0x3e0
 7239 191d 49190000 		.4byte	.LLST125
 7240 1921 22       		.uleb128 0x22
 7241 1922 D4030000 		.4byte	0x3d4
 7242 1926 7B190000 		.4byte	.LLST126
 7243 192a 22       		.uleb128 0x22
 7244 192b C8030000 		.4byte	0x3c8
 7245 192f AD190000 		.4byte	.LLST127
 7246 1933 28       		.uleb128 0x28
 7247 1934 70000000 		.4byte	.LBB77
 7248 1938 30000000 		.4byte	.LBE77-.LBB77
 7249 193c 24       		.uleb128 0x24
 7250 193d F8030000 		.4byte	0x3f8
 7251 1941 C0190000 		.4byte	.LLST128
 7252 1945 24       		.uleb128 0x24
 7253 1946 04040000 		.4byte	0x404
 7254 194a 111A0000 		.4byte	.LLST129
 7255 194e 00       		.byte	0
 7256 194f 00       		.byte	0
 7257 1950 25       		.uleb128 0x25
 7258 1951 17040000 		.4byte	0x417
 7259 1955 A0000000 		.4byte	.LBB78
 7260 1959 10000000 		.4byte	.LBE78-.LBB78
 7261 195d 01       		.byte	0x1
 7262 195e EB07     		.2byte	0x7eb
 7263 1960 77190000 		.4byte	0x1977
 7264 1964 22       		.uleb128 0x22
 7265 1965 30040000 		.4byte	0x430
 7266 1969 621A0000 		.4byte	.LLST130
 7267 196d 22       		.uleb128 0x22
 7268 196e 24040000 		.4byte	0x424
 7269 1972 841A0000 		.4byte	.LLST131
 7270 1976 00       		.byte	0
 7271 1977 21       		.uleb128 0x21
 7272 1978 BB030000 		.4byte	0x3bb
 7273 197c B6000000 		.4byte	.LBB80
 7274 1980 78000000 		.4byte	.Ldebug_ranges0+0x78
 7275 1984 01       		.byte	0x1
 7276 1985 D807     		.2byte	0x7d8
 7277 1987 C6190000 		.4byte	0x19c6
 7278 198b 22       		.uleb128 0x22
 7279 198c EC030000 		.4byte	0x3ec
ARM GAS  /tmp/cchgQdZS.s 			page 131


 7280 1990 971A0000 		.4byte	.LLST132
 7281 1994 22       		.uleb128 0x22
 7282 1995 E0030000 		.4byte	0x3e0
 7283 1999 B61A0000 		.4byte	.LLST133
 7284 199d 22       		.uleb128 0x22
 7285 199e D4030000 		.4byte	0x3d4
 7286 19a2 D81A0000 		.4byte	.LLST134
 7287 19a6 26       		.uleb128 0x26
 7288 19a7 C8030000 		.4byte	0x3c8
 7289 19ab 01       		.uleb128 0x1
 7290 19ac 50       		.byte	0x50
 7291 19ad 23       		.uleb128 0x23
 7292 19ae 78000000 		.4byte	.Ldebug_ranges0+0x78
 7293 19b2 24       		.uleb128 0x24
 7294 19b3 F8030000 		.4byte	0x3f8
 7295 19b7 FA1A0000 		.4byte	.LLST135
 7296 19bb 24       		.uleb128 0x24
 7297 19bc 04040000 		.4byte	0x404
 7298 19c0 511B0000 		.4byte	.LLST136
 7299 19c4 00       		.byte	0
 7300 19c5 00       		.byte	0
 7301 19c6 25       		.uleb128 0x25
 7302 19c7 17040000 		.4byte	0x417
 7303 19cb F0000000 		.4byte	.LBB84
 7304 19cf 10000000 		.4byte	.LBE84-.LBB84
 7305 19d3 01       		.byte	0x1
 7306 19d4 DB07     		.2byte	0x7db
 7307 19d6 EB190000 		.4byte	0x19eb
 7308 19da 22       		.uleb128 0x22
 7309 19db 30040000 		.4byte	0x430
 7310 19df A21B0000 		.4byte	.LLST137
 7311 19e3 26       		.uleb128 0x26
 7312 19e4 24040000 		.4byte	0x424
 7313 19e8 01       		.uleb128 0x1
 7314 19e9 50       		.byte	0x50
 7315 19ea 00       		.byte	0
 7316 19eb 25       		.uleb128 0x25
 7317 19ec 3D040000 		.4byte	0x43d
 7318 19f0 00010000 		.4byte	.LBB86
 7319 19f4 30000000 		.4byte	.LBE86-.LBB86
 7320 19f8 01       		.byte	0x1
 7321 19f9 DD07     		.2byte	0x7dd
 7322 19fb 451A0000 		.4byte	0x1a45
 7323 19ff 26       		.uleb128 0x26
 7324 1a00 6E040000 		.4byte	0x46e
 7325 1a04 01       		.uleb128 0x1
 7326 1a05 5C       		.byte	0x5c
 7327 1a06 22       		.uleb128 0x22
 7328 1a07 62040000 		.4byte	0x462
 7329 1a0b C41B0000 		.4byte	.LLST138
 7330 1a0f 22       		.uleb128 0x22
 7331 1a10 56040000 		.4byte	0x456
 7332 1a14 F61B0000 		.4byte	.LLST139
 7333 1a18 26       		.uleb128 0x26
 7334 1a19 4A040000 		.4byte	0x44a
 7335 1a1d 01       		.uleb128 0x1
 7336 1a1e 50       		.byte	0x50
ARM GAS  /tmp/cchgQdZS.s 			page 132


 7337 1a1f 28       		.uleb128 0x28
 7338 1a20 00010000 		.4byte	.LBB87
 7339 1a24 30000000 		.4byte	.LBE87-.LBB87
 7340 1a28 24       		.uleb128 0x24
 7341 1a29 7A040000 		.4byte	0x47a
 7342 1a2d 281C0000 		.4byte	.LLST140
 7343 1a31 24       		.uleb128 0x24
 7344 1a32 86040000 		.4byte	0x486
 7345 1a36 C61C0000 		.4byte	.LLST141
 7346 1a3a 24       		.uleb128 0x24
 7347 1a3b 92040000 		.4byte	0x492
 7348 1a3f 1B1D0000 		.4byte	.LLST142
 7349 1a43 00       		.byte	0
 7350 1a44 00       		.byte	0
 7351 1a45 27       		.uleb128 0x27
 7352 1a46 9F040000 		.4byte	0x49f
 7353 1a4a 30010000 		.4byte	.LBB88
 7354 1a4e 14000000 		.4byte	.LBE88-.LBB88
 7355 1a52 01       		.byte	0x1
 7356 1a53 DF07     		.2byte	0x7df
 7357 1a55 22       		.uleb128 0x22
 7358 1a56 B8040000 		.4byte	0x4b8
 7359 1a5a 5F1D0000 		.4byte	.LLST143
 7360 1a5e 26       		.uleb128 0x26
 7361 1a5f AC040000 		.4byte	0x4ac
 7362 1a63 01       		.uleb128 0x1
 7363 1a64 50       		.byte	0x50
 7364 1a65 00       		.byte	0
 7365 1a66 00       		.byte	0
 7366 1a67 1F       		.uleb128 0x1f
 7367 1a68 F9050000 		.4byte	.LASF165
 7368 1a6c 01       		.byte	0x1
 7369 1a6d F407     		.2byte	0x7f4
 7370 1a6f B8000000 		.4byte	0xb8
 7371 1a73 00000000 		.4byte	.LFB165
 7372 1a77 04000000 		.4byte	.LFE165-.LFB165
 7373 1a7b 01       		.uleb128 0x1
 7374 1a7c 9C       		.byte	0x9c
 7375 1a7d 921A0000 		.4byte	0x1a92
 7376 1a81 1E       		.uleb128 0x1e
 7377 1a82 95060000 		.4byte	.LASF65
 7378 1a86 01       		.byte	0x1
 7379 1a87 F407     		.2byte	0x7f4
 7380 1a89 11040000 		.4byte	0x411
 7381 1a8d 811D0000 		.4byte	.LLST144
 7382 1a91 00       		.byte	0
 7383 1a92 1F       		.uleb128 0x1f
 7384 1a93 50040000 		.4byte	.LASF166
 7385 1a97 01       		.byte	0x1
 7386 1a98 0308     		.2byte	0x803
 7387 1a9a B8000000 		.4byte	0xb8
 7388 1a9e 00000000 		.4byte	.LFB166
 7389 1aa2 04000000 		.4byte	.LFE166-.LFB166
 7390 1aa6 01       		.uleb128 0x1
 7391 1aa7 9C       		.byte	0x9c
 7392 1aa8 BD1A0000 		.4byte	0x1abd
 7393 1aac 1E       		.uleb128 0x1e
ARM GAS  /tmp/cchgQdZS.s 			page 133


 7394 1aad 95060000 		.4byte	.LASF65
 7395 1ab1 01       		.byte	0x1
 7396 1ab2 0308     		.2byte	0x803
 7397 1ab4 11040000 		.4byte	0x411
 7398 1ab8 A21D0000 		.4byte	.LLST145
 7399 1abc 00       		.byte	0
 7400 1abd 1F       		.uleb128 0x1f
 7401 1abe 60040000 		.4byte	.LASF167
 7402 1ac2 01       		.byte	0x1
 7403 1ac3 1108     		.2byte	0x811
 7404 1ac5 B8000000 		.4byte	0xb8
 7405 1ac9 00000000 		.4byte	.LFB167
 7406 1acd 04000000 		.4byte	.LFE167-.LFB167
 7407 1ad1 01       		.uleb128 0x1
 7408 1ad2 9C       		.byte	0x9c
 7409 1ad3 E81A0000 		.4byte	0x1ae8
 7410 1ad7 1E       		.uleb128 0x1e
 7411 1ad8 95060000 		.4byte	.LASF65
 7412 1adc 01       		.byte	0x1
 7413 1add 1108     		.2byte	0x811
 7414 1adf 11040000 		.4byte	0x411
 7415 1ae3 C31D0000 		.4byte	.LLST146
 7416 1ae7 00       		.byte	0
 7417 1ae8 1F       		.uleb128 0x1f
 7418 1ae9 70040000 		.4byte	.LASF168
 7419 1aed 01       		.byte	0x1
 7420 1aee 1F08     		.2byte	0x81f
 7421 1af0 B8000000 		.4byte	0xb8
 7422 1af4 00000000 		.4byte	.LFB168
 7423 1af8 04000000 		.4byte	.LFE168-.LFB168
 7424 1afc 01       		.uleb128 0x1
 7425 1afd 9C       		.byte	0x9c
 7426 1afe 131B0000 		.4byte	0x1b13
 7427 1b02 1E       		.uleb128 0x1e
 7428 1b03 95060000 		.4byte	.LASF65
 7429 1b07 01       		.byte	0x1
 7430 1b08 1F08     		.2byte	0x81f
 7431 1b0a 11040000 		.4byte	0x411
 7432 1b0e E41D0000 		.4byte	.LLST147
 7433 1b12 00       		.byte	0
 7434 1b13 29       		.uleb128 0x29
 7435 1b14 17040000 		.4byte	0x417
 7436 1b18 00000000 		.4byte	.LFB169
 7437 1b1c 12000000 		.4byte	.LFE169-.LFB169
 7438 1b20 01       		.uleb128 0x1
 7439 1b21 9C       		.byte	0x9c
 7440 1b22 371B0000 		.4byte	0x1b37
 7441 1b26 26       		.uleb128 0x26
 7442 1b27 24040000 		.4byte	0x424
 7443 1b2b 01       		.uleb128 0x1
 7444 1b2c 50       		.byte	0x50
 7445 1b2d 22       		.uleb128 0x22
 7446 1b2e 30040000 		.4byte	0x430
 7447 1b32 051E0000 		.4byte	.LLST148
 7448 1b36 00       		.byte	0
 7449 1b37 29       		.uleb128 0x29
 7450 1b38 9F040000 		.4byte	0x49f
ARM GAS  /tmp/cchgQdZS.s 			page 134


 7451 1b3c 00000000 		.4byte	.LFB170
 7452 1b40 16000000 		.4byte	.LFE170-.LFB170
 7453 1b44 01       		.uleb128 0x1
 7454 1b45 9C       		.byte	0x9c
 7455 1b46 5B1B0000 		.4byte	0x1b5b
 7456 1b4a 26       		.uleb128 0x26
 7457 1b4b AC040000 		.4byte	0x4ac
 7458 1b4f 01       		.uleb128 0x1
 7459 1b50 50       		.byte	0x50
 7460 1b51 22       		.uleb128 0x22
 7461 1b52 B8040000 		.4byte	0x4b8
 7462 1b56 261E0000 		.4byte	.LLST149
 7463 1b5a 00       		.byte	0
 7464 1b5b 29       		.uleb128 0x29
 7465 1b5c 27050000 		.4byte	0x527
 7466 1b60 00000000 		.4byte	.LFB171
 7467 1b64 12000000 		.4byte	.LFE171-.LFB171
 7468 1b68 01       		.uleb128 0x1
 7469 1b69 9C       		.byte	0x9c
 7470 1b6a 7F1B0000 		.4byte	0x1b7f
 7471 1b6e 26       		.uleb128 0x26
 7472 1b6f 34050000 		.4byte	0x534
 7473 1b73 01       		.uleb128 0x1
 7474 1b74 50       		.byte	0x50
 7475 1b75 22       		.uleb128 0x22
 7476 1b76 40050000 		.4byte	0x540
 7477 1b7a 471E0000 		.4byte	.LLST150
 7478 1b7e 00       		.byte	0
 7479 1b7f 29       		.uleb128 0x29
 7480 1b80 AF050000 		.4byte	0x5af
 7481 1b84 00000000 		.4byte	.LFB172
 7482 1b88 16000000 		.4byte	.LFE172-.LFB172
 7483 1b8c 01       		.uleb128 0x1
 7484 1b8d 9C       		.byte	0x9c
 7485 1b8e A31B0000 		.4byte	0x1ba3
 7486 1b92 26       		.uleb128 0x26
 7487 1b93 BC050000 		.4byte	0x5bc
 7488 1b97 01       		.uleb128 0x1
 7489 1b98 50       		.byte	0x50
 7490 1b99 22       		.uleb128 0x22
 7491 1b9a C8050000 		.4byte	0x5c8
 7492 1b9e 681E0000 		.4byte	.LLST151
 7493 1ba2 00       		.byte	0
 7494 1ba3 1B       		.uleb128 0x1b
 7495 1ba4 90090000 		.4byte	.LASF169
 7496 1ba8 01       		.byte	0x1
 7497 1ba9 B108     		.2byte	0x8b1
 7498 1bab 00000000 		.4byte	.LFB173
 7499 1baf 28000000 		.4byte	.LFE173-.LFB173
 7500 1bb3 01       		.uleb128 0x1
 7501 1bb4 9C       		.byte	0x9c
 7502 1bb5 D61B0000 		.4byte	0x1bd6
 7503 1bb9 1C       		.uleb128 0x1c
 7504 1bba 95060000 		.4byte	.LASF65
 7505 1bbe 01       		.byte	0x1
 7506 1bbf B108     		.2byte	0x8b1
 7507 1bc1 11040000 		.4byte	0x411
ARM GAS  /tmp/cchgQdZS.s 			page 135


 7508 1bc5 01       		.uleb128 0x1
 7509 1bc6 50       		.byte	0x50
 7510 1bc7 1C       		.uleb128 0x1c
 7511 1bc8 790A0000 		.4byte	.LASF170
 7512 1bcc 01       		.byte	0x1
 7513 1bcd B108     		.2byte	0x8b1
 7514 1bcf D61B0000 		.4byte	0x1bd6
 7515 1bd3 01       		.uleb128 0x1
 7516 1bd4 51       		.byte	0x51
 7517 1bd5 00       		.byte	0
 7518 1bd6 12       		.uleb128 0x12
 7519 1bd7 04       		.byte	0x4
 7520 1bd8 B0030000 		.4byte	0x3b0
 7521 1bdc 1B       		.uleb128 0x1b
 7522 1bdd 6C070000 		.4byte	.LASF171
 7523 1be1 01       		.byte	0x1
 7524 1be2 CA08     		.2byte	0x8ca
 7525 1be4 00000000 		.4byte	.LFB174
 7526 1be8 12000000 		.4byte	.LFE174-.LFB174
 7527 1bec 01       		.uleb128 0x1
 7528 1bed 9C       		.byte	0x9c
 7529 1bee 011C0000 		.4byte	0x1c01
 7530 1bf2 1C       		.uleb128 0x1c
 7531 1bf3 790A0000 		.4byte	.LASF170
 7532 1bf7 01       		.byte	0x1
 7533 1bf8 CA08     		.2byte	0x8ca
 7534 1bfa D61B0000 		.4byte	0x1bd6
 7535 1bfe 01       		.uleb128 0x1
 7536 1bff 50       		.byte	0x50
 7537 1c00 00       		.byte	0
 7538 1c01 1B       		.uleb128 0x1b
 7539 1c02 7D090000 		.4byte	.LASF172
 7540 1c06 01       		.byte	0x1
 7541 1c07 DD08     		.2byte	0x8dd
 7542 1c09 00000000 		.4byte	.LFB175
 7543 1c0d 14000000 		.4byte	.LFE175-.LFB175
 7544 1c11 01       		.uleb128 0x1
 7545 1c12 9C       		.byte	0x9c
 7546 1c13 341C0000 		.4byte	0x1c34
 7547 1c17 1C       		.uleb128 0x1c
 7548 1c18 95060000 		.4byte	.LASF65
 7549 1c1c 01       		.byte	0x1
 7550 1c1d DD08     		.2byte	0x8dd
 7551 1c1f 11040000 		.4byte	0x411
 7552 1c23 01       		.uleb128 0x1
 7553 1c24 50       		.byte	0x50
 7554 1c25 1C       		.uleb128 0x1c
 7555 1c26 0B000000 		.4byte	.LASF101
 7556 1c2a 01       		.byte	0x1
 7557 1c2b DD08     		.2byte	0x8dd
 7558 1c2d 34020000 		.4byte	0x234
 7559 1c31 01       		.uleb128 0x1
 7560 1c32 51       		.byte	0x51
 7561 1c33 00       		.byte	0
 7562 1c34 1B       		.uleb128 0x1b
 7563 1c35 5C050000 		.4byte	.LASF173
 7564 1c39 01       		.byte	0x1
ARM GAS  /tmp/cchgQdZS.s 			page 136


 7565 1c3a F608     		.2byte	0x8f6
 7566 1c3c 00000000 		.4byte	.LFB176
 7567 1c40 18000000 		.4byte	.LFE176-.LFB176
 7568 1c44 01       		.uleb128 0x1
 7569 1c45 9C       		.byte	0x9c
 7570 1c46 671C0000 		.4byte	0x1c67
 7571 1c4a 1C       		.uleb128 0x1c
 7572 1c4b 95060000 		.4byte	.LASF65
 7573 1c4f 01       		.byte	0x1
 7574 1c50 F608     		.2byte	0x8f6
 7575 1c52 11040000 		.4byte	0x411
 7576 1c56 01       		.uleb128 0x1
 7577 1c57 50       		.byte	0x50
 7578 1c58 1C       		.uleb128 0x1c
 7579 1c59 0B000000 		.4byte	.LASF101
 7580 1c5d 01       		.byte	0x1
 7581 1c5e F608     		.2byte	0x8f6
 7582 1c60 34020000 		.4byte	0x234
 7583 1c64 01       		.uleb128 0x1
 7584 1c65 51       		.byte	0x51
 7585 1c66 00       		.byte	0
 7586 1c67 1B       		.uleb128 0x1b
 7587 1c68 490C0000 		.4byte	.LASF174
 7588 1c6c 01       		.byte	0x1
 7589 1c6d 0F09     		.2byte	0x90f
 7590 1c6f 00000000 		.4byte	.LFB177
 7591 1c73 18000000 		.4byte	.LFE177-.LFB177
 7592 1c77 01       		.uleb128 0x1
 7593 1c78 9C       		.byte	0x9c
 7594 1c79 9A1C0000 		.4byte	0x1c9a
 7595 1c7d 1C       		.uleb128 0x1c
 7596 1c7e 95060000 		.4byte	.LASF65
 7597 1c82 01       		.byte	0x1
 7598 1c83 0F09     		.2byte	0x90f
 7599 1c85 11040000 		.4byte	0x411
 7600 1c89 01       		.uleb128 0x1
 7601 1c8a 50       		.byte	0x50
 7602 1c8b 1C       		.uleb128 0x1c
 7603 1c8c 0B000000 		.4byte	.LASF101
 7604 1c90 01       		.byte	0x1
 7605 1c91 0F09     		.2byte	0x90f
 7606 1c93 34020000 		.4byte	0x234
 7607 1c97 01       		.uleb128 0x1
 7608 1c98 51       		.byte	0x51
 7609 1c99 00       		.byte	0
 7610 1c9a 1B       		.uleb128 0x1b
 7611 1c9b 5E0D0000 		.4byte	.LASF175
 7612 1c9f 01       		.byte	0x1
 7613 1ca0 4809     		.2byte	0x948
 7614 1ca2 00000000 		.4byte	.LFB178
 7615 1ca6 16000000 		.4byte	.LFE178-.LFB178
 7616 1caa 01       		.uleb128 0x1
 7617 1cab 9C       		.byte	0x9c
 7618 1cac DD1C0000 		.4byte	0x1cdd
 7619 1cb0 1C       		.uleb128 0x1c
 7620 1cb1 95060000 		.4byte	.LASF65
 7621 1cb5 01       		.byte	0x1
ARM GAS  /tmp/cchgQdZS.s 			page 137


 7622 1cb6 4809     		.2byte	0x948
 7623 1cb8 11040000 		.4byte	0x411
 7624 1cbc 01       		.uleb128 0x1
 7625 1cbd 50       		.byte	0x50
 7626 1cbe 1E       		.uleb128 0x1e
 7627 1cbf DE020000 		.4byte	.LASF176
 7628 1cc3 01       		.byte	0x1
 7629 1cc4 4809     		.2byte	0x948
 7630 1cc6 A2000000 		.4byte	0xa2
 7631 1cca 891E0000 		.4byte	.LLST152
 7632 1cce 1C       		.uleb128 0x1c
 7633 1ccf 0B000000 		.4byte	.LASF101
 7634 1cd3 01       		.byte	0x1
 7635 1cd4 4809     		.2byte	0x948
 7636 1cd6 34020000 		.4byte	0x234
 7637 1cda 01       		.uleb128 0x1
 7638 1cdb 52       		.byte	0x52
 7639 1cdc 00       		.byte	0
 7640 1cdd 1B       		.uleb128 0x1b
 7641 1cde 2D020000 		.4byte	.LASF177
 7642 1ce2 01       		.byte	0x1
 7643 1ce3 6E09     		.2byte	0x96e
 7644 1ce5 00000000 		.4byte	.LFB179
 7645 1ce9 04000000 		.4byte	.LFE179-.LFB179
 7646 1ced 01       		.uleb128 0x1
 7647 1cee 9C       		.byte	0x9c
 7648 1cef 101D0000 		.4byte	0x1d10
 7649 1cf3 1C       		.uleb128 0x1c
 7650 1cf4 95060000 		.4byte	.LASF65
 7651 1cf8 01       		.byte	0x1
 7652 1cf9 6E09     		.2byte	0x96e
 7653 1cfb 11040000 		.4byte	0x411
 7654 1cff 01       		.uleb128 0x1
 7655 1d00 50       		.byte	0x50
 7656 1d01 1C       		.uleb128 0x1c
 7657 1d02 FD080000 		.4byte	.LASF178
 7658 1d06 01       		.byte	0x1
 7659 1d07 6E09     		.2byte	0x96e
 7660 1d09 A2000000 		.4byte	0xa2
 7661 1d0d 01       		.uleb128 0x1
 7662 1d0e 51       		.byte	0x51
 7663 1d0f 00       		.byte	0
 7664 1d10 1F       		.uleb128 0x1f
 7665 1d11 4B060000 		.4byte	.LASF179
 7666 1d15 01       		.byte	0x1
 7667 1d16 8F09     		.2byte	0x98f
 7668 1d18 09020000 		.4byte	0x209
 7669 1d1c 00000000 		.4byte	.LFB180
 7670 1d20 0C000000 		.4byte	.LFE180-.LFB180
 7671 1d24 01       		.uleb128 0x1
 7672 1d25 9C       		.byte	0x9c
 7673 1d26 591D0000 		.4byte	0x1d59
 7674 1d2a 1E       		.uleb128 0x1e
 7675 1d2b 95060000 		.4byte	.LASF65
 7676 1d2f 01       		.byte	0x1
 7677 1d30 8F09     		.2byte	0x98f
 7678 1d32 11040000 		.4byte	0x411
ARM GAS  /tmp/cchgQdZS.s 			page 138


 7679 1d36 C31E0000 		.4byte	.LLST153
 7680 1d3a 1C       		.uleb128 0x1c
 7681 1d3b DA000000 		.4byte	.LASF180
 7682 1d3f 01       		.byte	0x1
 7683 1d40 8F09     		.2byte	0x98f
 7684 1d42 A2000000 		.4byte	0xa2
 7685 1d46 01       		.uleb128 0x1
 7686 1d47 51       		.byte	0x51
 7687 1d48 1D       		.uleb128 0x1d
 7688 1d49 2E0D0000 		.4byte	.LASF181
 7689 1d4d 01       		.byte	0x1
 7690 1d4e 9109     		.2byte	0x991
 7691 1d50 14020000 		.4byte	0x214
 7692 1d54 E41E0000 		.4byte	.LLST154
 7693 1d58 00       		.byte	0
 7694 1d59 1B       		.uleb128 0x1b
 7695 1d5a 2E050000 		.4byte	.LASF182
 7696 1d5e 01       		.byte	0x1
 7697 1d5f B909     		.2byte	0x9b9
 7698 1d61 00000000 		.4byte	.LFB181
 7699 1d65 08000000 		.4byte	.LFE181-.LFB181
 7700 1d69 01       		.uleb128 0x1
 7701 1d6a 9C       		.byte	0x9c
 7702 1d6b 8E1D0000 		.4byte	0x1d8e
 7703 1d6f 1C       		.uleb128 0x1c
 7704 1d70 95060000 		.4byte	.LASF65
 7705 1d74 01       		.byte	0x1
 7706 1d75 B909     		.2byte	0x9b9
 7707 1d77 11040000 		.4byte	0x411
 7708 1d7b 01       		.uleb128 0x1
 7709 1d7c 50       		.byte	0x50
 7710 1d7d 1E       		.uleb128 0x1e
 7711 1d7e DA000000 		.4byte	.LASF180
 7712 1d82 01       		.byte	0x1
 7713 1d83 B909     		.2byte	0x9b9
 7714 1d85 A2000000 		.4byte	0xa2
 7715 1d89 0E1F0000 		.4byte	.LLST155
 7716 1d8d 00       		.byte	0
 7717 1d8e 1F       		.uleb128 0x1f
 7718 1d8f 81080000 		.4byte	.LASF183
 7719 1d93 01       		.byte	0x1
 7720 1d94 D509     		.2byte	0x9d5
 7721 1d96 14020000 		.4byte	0x214
 7722 1d9a 00000000 		.4byte	.LFB182
 7723 1d9e 14000000 		.4byte	.LFE182-.LFB182
 7724 1da2 01       		.uleb128 0x1
 7725 1da3 9C       		.byte	0x9c
 7726 1da4 F71D0000 		.4byte	0x1df7
 7727 1da8 1E       		.uleb128 0x1e
 7728 1da9 95060000 		.4byte	.LASF65
 7729 1dad 01       		.byte	0x1
 7730 1dae D509     		.2byte	0x9d5
 7731 1db0 11040000 		.4byte	0x411
 7732 1db4 2F1F0000 		.4byte	.LLST156
 7733 1db8 1C       		.uleb128 0x1c
 7734 1db9 DE020000 		.4byte	.LASF176
 7735 1dbd 01       		.byte	0x1
ARM GAS  /tmp/cchgQdZS.s 			page 139


 7736 1dbe D509     		.2byte	0x9d5
 7737 1dc0 A2000000 		.4byte	0xa2
 7738 1dc4 01       		.uleb128 0x1
 7739 1dc5 51       		.byte	0x51
 7740 1dc6 1D       		.uleb128 0x1d
 7741 1dc7 2E0D0000 		.4byte	.LASF181
 7742 1dcb 01       		.byte	0x1
 7743 1dcc D709     		.2byte	0x9d7
 7744 1dce 14020000 		.4byte	0x214
 7745 1dd2 501F0000 		.4byte	.LLST157
 7746 1dd6 1D       		.uleb128 0x1d
 7747 1dd7 3E080000 		.4byte	.LASF184
 7748 1ddb 01       		.byte	0x1
 7749 1ddc D809     		.2byte	0x9d8
 7750 1dde A2000000 		.4byte	0xa2
 7751 1de2 6F1F0000 		.4byte	.LLST158
 7752 1de6 1D       		.uleb128 0x1d
 7753 1de7 AF0C0000 		.4byte	.LASF185
 7754 1deb 01       		.byte	0x1
 7755 1dec D809     		.2byte	0x9d8
 7756 1dee A2000000 		.4byte	0xa2
 7757 1df2 931F0000 		.4byte	.LLST159
 7758 1df6 00       		.byte	0
 7759 1df7 1B       		.uleb128 0x1b
 7760 1df8 450B0000 		.4byte	.LASF186
 7761 1dfc 01       		.byte	0x1
 7762 1dfd FE09     		.2byte	0x9fe
 7763 1dff 00000000 		.4byte	.LFB183
 7764 1e03 08000000 		.4byte	.LFE183-.LFB183
 7765 1e07 01       		.uleb128 0x1
 7766 1e08 9C       		.byte	0x9c
 7767 1e09 2C1E0000 		.4byte	0x1e2c
 7768 1e0d 1C       		.uleb128 0x1c
 7769 1e0e 95060000 		.4byte	.LASF65
 7770 1e12 01       		.byte	0x1
 7771 1e13 FE09     		.2byte	0x9fe
 7772 1e15 11040000 		.4byte	0x411
 7773 1e19 01       		.uleb128 0x1
 7774 1e1a 50       		.byte	0x50
 7775 1e1b 1E       		.uleb128 0x1e
 7776 1e1c DE020000 		.4byte	.LASF176
 7777 1e20 01       		.byte	0x1
 7778 1e21 FE09     		.2byte	0x9fe
 7779 1e23 A2000000 		.4byte	0xa2
 7780 1e27 B71F0000 		.4byte	.LLST160
 7781 1e2b 00       		.byte	0
 7782 1e2c 1B       		.uleb128 0x1b
 7783 1e2d 94020000 		.4byte	.LASF187
 7784 1e31 01       		.byte	0x1
 7785 1e32 230A     		.2byte	0xa23
 7786 1e34 00000000 		.4byte	.LFB184
 7787 1e38 06000000 		.4byte	.LFE184-.LFB184
 7788 1e3c 01       		.uleb128 0x1
 7789 1e3d 9C       		.byte	0x9c
 7790 1e3e 6F1E0000 		.4byte	0x1e6f
 7791 1e42 1C       		.uleb128 0x1c
 7792 1e43 95060000 		.4byte	.LASF65
ARM GAS  /tmp/cchgQdZS.s 			page 140


 7793 1e47 01       		.byte	0x1
 7794 1e48 230A     		.2byte	0xa23
 7795 1e4a 11040000 		.4byte	0x411
 7796 1e4e 01       		.uleb128 0x1
 7797 1e4f 50       		.byte	0x50
 7798 1e50 1C       		.uleb128 0x1c
 7799 1e51 47080000 		.4byte	.LASF188
 7800 1e55 01       		.byte	0x1
 7801 1e56 230A     		.2byte	0xa23
 7802 1e58 A2000000 		.4byte	0xa2
 7803 1e5c 01       		.uleb128 0x1
 7804 1e5d 51       		.byte	0x51
 7805 1e5e 1E       		.uleb128 0x1e
 7806 1e5f F4040000 		.4byte	.LASF189
 7807 1e63 01       		.byte	0x1
 7808 1e64 230A     		.2byte	0xa23
 7809 1e66 A2000000 		.4byte	0xa2
 7810 1e6a D81F0000 		.4byte	.LLST161
 7811 1e6e 00       		.byte	0
 7812 1e6f 1B       		.uleb128 0x1b
 7813 1e70 3F000000 		.4byte	.LASF190
 7814 1e74 01       		.byte	0x1
 7815 1e75 3E0A     		.2byte	0xa3e
 7816 1e77 00000000 		.4byte	.LFB185
 7817 1e7b 16000000 		.4byte	.LFE185-.LFB185
 7818 1e7f 01       		.uleb128 0x1
 7819 1e80 9C       		.byte	0x9c
 7820 1e81 B21E0000 		.4byte	0x1eb2
 7821 1e85 1C       		.uleb128 0x1c
 7822 1e86 95060000 		.4byte	.LASF65
 7823 1e8a 01       		.byte	0x1
 7824 1e8b 3E0A     		.2byte	0xa3e
 7825 1e8d 11040000 		.4byte	0x411
 7826 1e91 01       		.uleb128 0x1
 7827 1e92 50       		.byte	0x50
 7828 1e93 1E       		.uleb128 0x1e
 7829 1e94 1A070000 		.4byte	.LASF191
 7830 1e98 01       		.byte	0x1
 7831 1e99 3E0A     		.2byte	0xa3e
 7832 1e9b A2000000 		.4byte	0xa2
 7833 1e9f F91F0000 		.4byte	.LLST162
 7834 1ea3 1C       		.uleb128 0x1c
 7835 1ea4 0B000000 		.4byte	.LASF101
 7836 1ea8 01       		.byte	0x1
 7837 1ea9 3E0A     		.2byte	0xa3e
 7838 1eab 34020000 		.4byte	0x234
 7839 1eaf 01       		.uleb128 0x1
 7840 1eb0 52       		.byte	0x52
 7841 1eb1 00       		.byte	0
 7842 1eb2 1B       		.uleb128 0x1b
 7843 1eb3 AD040000 		.4byte	.LASF192
 7844 1eb7 01       		.byte	0x1
 7845 1eb8 580A     		.2byte	0xa58
 7846 1eba 00000000 		.4byte	.LFB186
 7847 1ebe 18000000 		.4byte	.LFE186-.LFB186
 7848 1ec2 01       		.uleb128 0x1
 7849 1ec3 9C       		.byte	0x9c
ARM GAS  /tmp/cchgQdZS.s 			page 141


 7850 1ec4 E51E0000 		.4byte	0x1ee5
 7851 1ec8 1C       		.uleb128 0x1c
 7852 1ec9 95060000 		.4byte	.LASF65
 7853 1ecd 01       		.byte	0x1
 7854 1ece 580A     		.2byte	0xa58
 7855 1ed0 11040000 		.4byte	0x411
 7856 1ed4 01       		.uleb128 0x1
 7857 1ed5 50       		.byte	0x50
 7858 1ed6 1C       		.uleb128 0x1c
 7859 1ed7 0B000000 		.4byte	.LASF101
 7860 1edb 01       		.byte	0x1
 7861 1edc 580A     		.2byte	0xa58
 7862 1ede 34020000 		.4byte	0x234
 7863 1ee2 01       		.uleb128 0x1
 7864 1ee3 51       		.byte	0x51
 7865 1ee4 00       		.byte	0
 7866 1ee5 1B       		.uleb128 0x1b
 7867 1ee6 98010000 		.4byte	.LASF193
 7868 1eea 01       		.byte	0x1
 7869 1eeb 7F0A     		.2byte	0xa7f
 7870 1eed 00000000 		.4byte	.LFB187
 7871 1ef1 0C000000 		.4byte	.LFE187-.LFB187
 7872 1ef5 01       		.uleb128 0x1
 7873 1ef6 9C       		.byte	0x9c
 7874 1ef7 0A1F0000 		.4byte	0x1f0a
 7875 1efb 1C       		.uleb128 0x1c
 7876 1efc 95060000 		.4byte	.LASF65
 7877 1f00 01       		.byte	0x1
 7878 1f01 7F0A     		.2byte	0xa7f
 7879 1f03 11040000 		.4byte	0x411
 7880 1f07 01       		.uleb128 0x1
 7881 1f08 50       		.byte	0x50
 7882 1f09 00       		.byte	0
 7883 1f0a 1B       		.uleb128 0x1b
 7884 1f0b D6090000 		.4byte	.LASF194
 7885 1f0f 01       		.byte	0x1
 7886 1f10 940A     		.2byte	0xa94
 7887 1f12 00000000 		.4byte	.LFB188
 7888 1f16 16000000 		.4byte	.LFE188-.LFB188
 7889 1f1a 01       		.uleb128 0x1
 7890 1f1b 9C       		.byte	0x9c
 7891 1f1c 731F0000 		.4byte	0x1f73
 7892 1f20 1C       		.uleb128 0x1c
 7893 1f21 95060000 		.4byte	.LASF65
 7894 1f25 01       		.byte	0x1
 7895 1f26 940A     		.2byte	0xa94
 7896 1f28 11040000 		.4byte	0x411
 7897 1f2c 01       		.uleb128 0x1
 7898 1f2d 50       		.byte	0x50
 7899 1f2e 1E       		.uleb128 0x1e
 7900 1f2f 60000000 		.4byte	.LASF79
 7901 1f33 01       		.byte	0x1
 7902 1f34 940A     		.2byte	0xa94
 7903 1f36 A2000000 		.4byte	0xa2
 7904 1f3a 33200000 		.4byte	.LLST163
 7905 1f3e 27       		.uleb128 0x27
 7906 1f3f D5050000 		.4byte	0x5d5
ARM GAS  /tmp/cchgQdZS.s 			page 142


 7907 1f43 00000000 		.4byte	.LBB90
 7908 1f47 0C000000 		.4byte	.LBE90-.LBB90
 7909 1f4b 01       		.byte	0x1
 7910 1f4c 9B0A     		.2byte	0xa9b
 7911 1f4e 22       		.uleb128 0x22
 7912 1f4f EE050000 		.4byte	0x5ee
 7913 1f53 33200000 		.4byte	.LLST163
 7914 1f57 26       		.uleb128 0x26
 7915 1f58 E2050000 		.4byte	0x5e2
 7916 1f5c 01       		.uleb128 0x1
 7917 1f5d 50       		.byte	0x50
 7918 1f5e 28       		.uleb128 0x28
 7919 1f5f 00000000 		.4byte	.LBB91
 7920 1f63 0C000000 		.4byte	.LBE91-.LBB91
 7921 1f67 24       		.uleb128 0x24
 7922 1f68 FA050000 		.4byte	0x5fa
 7923 1f6c 54200000 		.4byte	.LLST165
 7924 1f70 00       		.byte	0
 7925 1f71 00       		.byte	0
 7926 1f72 00       		.byte	0
 7927 1f73 1B       		.uleb128 0x1b
 7928 1f74 3E090000 		.4byte	.LASF195
 7929 1f78 01       		.byte	0x1
 7930 1f79 B20A     		.2byte	0xab2
 7931 1f7b 00000000 		.4byte	.LFB189
 7932 1f7f 7E000000 		.4byte	.LFE189-.LFB189
 7933 1f83 01       		.uleb128 0x1
 7934 1f84 9C       		.byte	0x9c
 7935 1f85 A6200000 		.4byte	0x20a6
 7936 1f89 1C       		.uleb128 0x1c
 7937 1f8a 95060000 		.4byte	.LASF65
 7938 1f8e 01       		.byte	0x1
 7939 1f8f B20A     		.2byte	0xab2
 7940 1f91 11040000 		.4byte	0x411
 7941 1f95 01       		.uleb128 0x1
 7942 1f96 50       		.byte	0x50
 7943 1f97 1C       		.uleb128 0x1c
 7944 1f98 600A0000 		.4byte	.LASF196
 7945 1f9c 01       		.byte	0x1
 7946 1f9d B20A     		.2byte	0xab2
 7947 1f9f A2000000 		.4byte	0xa2
 7948 1fa3 01       		.uleb128 0x1
 7949 1fa4 51       		.byte	0x51
 7950 1fa5 1E       		.uleb128 0x1e
 7951 1fa6 0D090000 		.4byte	.LASF52
 7952 1faa 01       		.byte	0x1
 7953 1fab B30A     		.2byte	0xab3
 7954 1fad A2000000 		.4byte	0xa2
 7955 1fb1 A9200000 		.4byte	.LLST166
 7956 1fb5 1E       		.uleb128 0x1e
 7957 1fb6 380D0000 		.4byte	.LASF197
 7958 1fba 01       		.byte	0x1
 7959 1fbb B30A     		.2byte	0xab3
 7960 1fbd A2000000 		.4byte	0xa2
 7961 1fc1 E3200000 		.4byte	.LLST167
 7962 1fc5 21       		.uleb128 0x21
 7963 1fc6 3D040000 		.4byte	0x43d
ARM GAS  /tmp/cchgQdZS.s 			page 143


 7964 1fca 04000000 		.4byte	.LBB92
 7965 1fce 90000000 		.4byte	.Ldebug_ranges0+0x90
 7966 1fd2 01       		.byte	0x1
 7967 1fd3 BD0A     		.2byte	0xabd
 7968 1fd5 1A200000 		.4byte	0x201a
 7969 1fd9 22       		.uleb128 0x22
 7970 1fda 6E040000 		.4byte	0x46e
 7971 1fde 1D210000 		.4byte	.LLST168
 7972 1fe2 2A       		.uleb128 0x2a
 7973 1fe3 62040000 		.4byte	0x462
 7974 1fe7 01       		.byte	0x1
 7975 1fe8 22       		.uleb128 0x22
 7976 1fe9 56040000 		.4byte	0x456
 7977 1fed 30210000 		.4byte	.LLST169
 7978 1ff1 26       		.uleb128 0x26
 7979 1ff2 4A040000 		.4byte	0x44a
 7980 1ff6 01       		.uleb128 0x1
 7981 1ff7 50       		.byte	0x50
 7982 1ff8 23       		.uleb128 0x23
 7983 1ff9 90000000 		.4byte	.Ldebug_ranges0+0x90
 7984 1ffd 24       		.uleb128 0x24
 7985 1ffe 7A040000 		.4byte	0x47a
 7986 2002 43210000 		.4byte	.LLST170
 7987 2006 24       		.uleb128 0x24
 7988 2007 86040000 		.4byte	0x486
 7989 200b 74210000 		.4byte	.LLST171
 7990 200f 24       		.uleb128 0x24
 7991 2010 92040000 		.4byte	0x492
 7992 2014 A5210000 		.4byte	.LLST172
 7993 2018 00       		.byte	0
 7994 2019 00       		.byte	0
 7995 201a 25       		.uleb128 0x25
 7996 201b BB030000 		.4byte	0x3bb
 7997 201f 08000000 		.4byte	.LBB95
 7998 2023 2C000000 		.4byte	.LBE95-.LBB95
 7999 2027 01       		.byte	0x1
 8000 2028 C10A     		.2byte	0xac1
 8001 202a 6F200000 		.4byte	0x206f
 8002 202e 22       		.uleb128 0x22
 8003 202f EC030000 		.4byte	0x3ec
 8004 2033 C8210000 		.4byte	.LLST173
 8005 2037 22       		.uleb128 0x22
 8006 2038 E0030000 		.4byte	0x3e0
 8007 203c DB210000 		.4byte	.LLST174
 8008 2040 22       		.uleb128 0x22
 8009 2041 D4030000 		.4byte	0x3d4
 8010 2045 EF210000 		.4byte	.LLST175
 8011 2049 22       		.uleb128 0x22
 8012 204a C8030000 		.4byte	0x3c8
 8013 204e 02220000 		.4byte	.LLST176
 8014 2052 28       		.uleb128 0x28
 8015 2053 08000000 		.4byte	.LBB96
 8016 2057 2C000000 		.4byte	.LBE96-.LBB96
 8017 205b 24       		.uleb128 0x24
 8018 205c F8030000 		.4byte	0x3f8
 8019 2060 15220000 		.4byte	.LLST177
 8020 2064 24       		.uleb128 0x24
ARM GAS  /tmp/cchgQdZS.s 			page 144


 8021 2065 04040000 		.4byte	0x404
 8022 2069 46220000 		.4byte	.LLST178
 8023 206d 00       		.byte	0
 8024 206e 00       		.byte	0
 8025 206f 27       		.uleb128 0x27
 8026 2070 D5050000 		.4byte	0x5d5
 8027 2074 34000000 		.4byte	.LBB97
 8028 2078 0C000000 		.4byte	.LBE97-.LBB97
 8029 207c 01       		.byte	0x1
 8030 207d C40A     		.2byte	0xac4
 8031 207f 22       		.uleb128 0x22
 8032 2080 EE050000 		.4byte	0x5ee
 8033 2084 85220000 		.4byte	.LLST179
 8034 2088 22       		.uleb128 0x22
 8035 2089 E2050000 		.4byte	0x5e2
 8036 208d 98220000 		.4byte	.LLST180
 8037 2091 28       		.uleb128 0x28
 8038 2092 34000000 		.4byte	.LBB98
 8039 2096 0C000000 		.4byte	.LBE98-.LBB98
 8040 209a 24       		.uleb128 0x24
 8041 209b FA050000 		.4byte	0x5fa
 8042 209f AB220000 		.4byte	.LLST181
 8043 20a3 00       		.byte	0
 8044 20a4 00       		.byte	0
 8045 20a5 00       		.byte	0
 8046 20a6 1B       		.uleb128 0x1b
 8047 20a7 6C0C0000 		.4byte	.LASF198
 8048 20ab 01       		.byte	0x1
 8049 20ac DA0A     		.2byte	0xada
 8050 20ae 00000000 		.4byte	.LFB190
 8051 20b2 26000000 		.4byte	.LFE190-.LFB190
 8052 20b6 01       		.uleb128 0x1
 8053 20b7 9C       		.byte	0x9c
 8054 20b8 4D210000 		.4byte	0x214d
 8055 20bc 1C       		.uleb128 0x1c
 8056 20bd 95060000 		.4byte	.LASF65
 8057 20c1 01       		.byte	0x1
 8058 20c2 DA0A     		.2byte	0xada
 8059 20c4 11040000 		.4byte	0x411
 8060 20c8 01       		.uleb128 0x1
 8061 20c9 50       		.byte	0x50
 8062 20ca 1E       		.uleb128 0x1e
 8063 20cb A3070000 		.4byte	.LASF82
 8064 20cf 01       		.byte	0x1
 8065 20d0 DA0A     		.2byte	0xada
 8066 20d2 A2000000 		.4byte	0xa2
 8067 20d6 EE220000 		.4byte	.LLST182
 8068 20da 1C       		.uleb128 0x1c
 8069 20db 59070000 		.4byte	.LASF83
 8070 20df 01       		.byte	0x1
 8071 20e0 DB0A     		.2byte	0xadb
 8072 20e2 A2000000 		.4byte	0xa2
 8073 20e6 01       		.uleb128 0x1
 8074 20e7 52       		.byte	0x52
 8075 20e8 1E       		.uleb128 0x1e
 8076 20e9 510D0000 		.4byte	.LASF84
 8077 20ed 01       		.byte	0x1
ARM GAS  /tmp/cchgQdZS.s 			page 145


 8078 20ee DB0A     		.2byte	0xadb
 8079 20f0 A2000000 		.4byte	0xa2
 8080 20f4 0F230000 		.4byte	.LLST183
 8081 20f8 1D       		.uleb128 0x1d
 8082 20f9 51070000 		.4byte	.LASF80
 8083 20fd 01       		.byte	0x1
 8084 20fe DD0A     		.2byte	0xadd
 8085 2100 A2000000 		.4byte	0xa2
 8086 2104 30230000 		.4byte	.LLST184
 8087 2108 27       		.uleb128 0x27
 8088 2109 07060000 		.4byte	0x607
 8089 210d 02000000 		.4byte	.LBB100
 8090 2111 10000000 		.4byte	.LBE100-.LBB100
 8091 2115 01       		.byte	0x1
 8092 2116 E50A     		.2byte	0xae5
 8093 2118 22       		.uleb128 0x22
 8094 2119 38060000 		.4byte	0x638
 8095 211d 0F230000 		.4byte	.LLST183
 8096 2121 26       		.uleb128 0x26
 8097 2122 2C060000 		.4byte	0x62c
 8098 2126 01       		.uleb128 0x1
 8099 2127 52       		.byte	0x52
 8100 2128 22       		.uleb128 0x22
 8101 2129 20060000 		.4byte	0x620
 8102 212d EE220000 		.4byte	.LLST182
 8103 2131 26       		.uleb128 0x26
 8104 2132 14060000 		.4byte	0x614
 8105 2136 01       		.uleb128 0x1
 8106 2137 50       		.byte	0x50
 8107 2138 28       		.uleb128 0x28
 8108 2139 02000000 		.4byte	.LBB101
 8109 213d 10000000 		.4byte	.LBE101-.LBB101
 8110 2141 24       		.uleb128 0x24
 8111 2142 44060000 		.4byte	0x644
 8112 2146 63230000 		.4byte	.LLST187
 8113 214a 00       		.byte	0
 8114 214b 00       		.byte	0
 8115 214c 00       		.byte	0
 8116 214d 1B       		.uleb128 0x1b
 8117 214e DD0A0000 		.4byte	.LASF199
 8118 2152 01       		.byte	0x1
 8119 2153 090B     		.2byte	0xb09
 8120 2155 00000000 		.4byte	.LFB191
 8121 2159 20000000 		.4byte	.LFE191-.LFB191
 8122 215d 01       		.uleb128 0x1
 8123 215e 9C       		.byte	0x9c
 8124 215f E4210000 		.4byte	0x21e4
 8125 2163 1C       		.uleb128 0x1c
 8126 2164 95060000 		.4byte	.LASF65
 8127 2168 01       		.byte	0x1
 8128 2169 090B     		.2byte	0xb09
 8129 216b 11040000 		.4byte	0x411
 8130 216f 01       		.uleb128 0x1
 8131 2170 50       		.byte	0x50
 8132 2171 1E       		.uleb128 0x1e
 8133 2172 A3070000 		.4byte	.LASF82
 8134 2176 01       		.byte	0x1
ARM GAS  /tmp/cchgQdZS.s 			page 146


 8135 2177 090B     		.2byte	0xb09
 8136 2179 A2000000 		.4byte	0xa2
 8137 217d A8230000 		.4byte	.LLST188
 8138 2181 1C       		.uleb128 0x1c
 8139 2182 59070000 		.4byte	.LASF83
 8140 2186 01       		.byte	0x1
 8141 2187 0A0B     		.2byte	0xb0a
 8142 2189 A2000000 		.4byte	0xa2
 8143 218d 01       		.uleb128 0x1
 8144 218e 52       		.byte	0x52
 8145 218f 1E       		.uleb128 0x1e
 8146 2190 510D0000 		.4byte	.LASF84
 8147 2194 01       		.byte	0x1
 8148 2195 0A0B     		.2byte	0xb0a
 8149 2197 A2000000 		.4byte	0xa2
 8150 219b C9230000 		.4byte	.LLST189
 8151 219f 27       		.uleb128 0x27
 8152 21a0 07060000 		.4byte	0x607
 8153 21a4 02000000 		.4byte	.LBB102
 8154 21a8 10000000 		.4byte	.LBE102-.LBB102
 8155 21ac 01       		.byte	0x1
 8156 21ad 130B     		.2byte	0xb13
 8157 21af 22       		.uleb128 0x22
 8158 21b0 38060000 		.4byte	0x638
 8159 21b4 C9230000 		.4byte	.LLST189
 8160 21b8 26       		.uleb128 0x26
 8161 21b9 2C060000 		.4byte	0x62c
 8162 21bd 01       		.uleb128 0x1
 8163 21be 52       		.byte	0x52
 8164 21bf 22       		.uleb128 0x22
 8165 21c0 20060000 		.4byte	0x620
 8166 21c4 A8230000 		.4byte	.LLST188
 8167 21c8 26       		.uleb128 0x26
 8168 21c9 14060000 		.4byte	0x614
 8169 21cd 01       		.uleb128 0x1
 8170 21ce 50       		.byte	0x50
 8171 21cf 28       		.uleb128 0x28
 8172 21d0 02000000 		.4byte	.LBB103
 8173 21d4 10000000 		.4byte	.LBE103-.LBB103
 8174 21d8 24       		.uleb128 0x24
 8175 21d9 44060000 		.4byte	0x644
 8176 21dd EA230000 		.4byte	.LLST192
 8177 21e1 00       		.byte	0
 8178 21e2 00       		.byte	0
 8179 21e3 00       		.byte	0
 8180 21e4 29       		.uleb128 0x29
 8181 21e5 D5050000 		.4byte	0x5d5
 8182 21e9 00000000 		.4byte	.LFB192
 8183 21ed 0E000000 		.4byte	.LFE192-.LFB192
 8184 21f1 01       		.uleb128 0x1
 8185 21f2 9C       		.byte	0x9c
 8186 21f3 11220000 		.4byte	0x2211
 8187 21f7 26       		.uleb128 0x26
 8188 21f8 E2050000 		.4byte	0x5e2
 8189 21fc 01       		.uleb128 0x1
 8190 21fd 50       		.byte	0x50
 8191 21fe 22       		.uleb128 0x22
ARM GAS  /tmp/cchgQdZS.s 			page 147


 8192 21ff EE050000 		.4byte	0x5ee
 8193 2203 2F240000 		.4byte	.LLST193
 8194 2207 24       		.uleb128 0x24
 8195 2208 FA050000 		.4byte	0x5fa
 8196 220c 50240000 		.4byte	.LLST194
 8197 2210 00       		.byte	0
 8198 2211 1B       		.uleb128 0x1b
 8199 2212 D4060000 		.4byte	.LASF200
 8200 2216 01       		.byte	0x1
 8201 2217 7B0B     		.2byte	0xb7b
 8202 2219 00000000 		.4byte	.LFB193
 8203 221d 12000000 		.4byte	.LFE193-.LFB193
 8204 2221 01       		.uleb128 0x1
 8205 2222 9C       		.byte	0x9c
 8206 2223 46220000 		.4byte	0x2246
 8207 2227 1C       		.uleb128 0x1c
 8208 2228 95060000 		.4byte	.LASF65
 8209 222c 01       		.byte	0x1
 8210 222d 7B0B     		.2byte	0xb7b
 8211 222f 11040000 		.4byte	0x411
 8212 2233 01       		.uleb128 0x1
 8213 2234 50       		.byte	0x50
 8214 2235 1E       		.uleb128 0x1e
 8215 2236 77000000 		.4byte	.LASF201
 8216 223a 01       		.byte	0x1
 8217 223b 7B0B     		.2byte	0xb7b
 8218 223d A2000000 		.4byte	0xa2
 8219 2241 90240000 		.4byte	.LLST195
 8220 2245 00       		.byte	0
 8221 2246 1B       		.uleb128 0x1b
 8222 2247 1D060000 		.4byte	.LASF202
 8223 224b 01       		.byte	0x1
 8224 224c 930B     		.2byte	0xb93
 8225 224e 00000000 		.4byte	.LFB194
 8226 2252 12000000 		.4byte	.LFE194-.LFB194
 8227 2256 01       		.uleb128 0x1
 8228 2257 9C       		.byte	0x9c
 8229 2258 7B220000 		.4byte	0x227b
 8230 225c 1C       		.uleb128 0x1c
 8231 225d 95060000 		.4byte	.LASF65
 8232 2261 01       		.byte	0x1
 8233 2262 930B     		.2byte	0xb93
 8234 2264 11040000 		.4byte	0x411
 8235 2268 01       		.uleb128 0x1
 8236 2269 50       		.byte	0x50
 8237 226a 1E       		.uleb128 0x1e
 8238 226b F70B0000 		.4byte	.LASF203
 8239 226f 01       		.byte	0x1
 8240 2270 930B     		.2byte	0xb93
 8241 2272 A2000000 		.4byte	0xa2
 8242 2276 B1240000 		.4byte	.LLST196
 8243 227a 00       		.byte	0
 8244 227b 1B       		.uleb128 0x1b
 8245 227c 31060000 		.4byte	.LASF204
 8246 2280 01       		.byte	0x1
 8247 2281 AA0B     		.2byte	0xbaa
 8248 2283 00000000 		.4byte	.LFB195
ARM GAS  /tmp/cchgQdZS.s 			page 148


 8249 2287 12000000 		.4byte	.LFE195-.LFB195
 8250 228b 01       		.uleb128 0x1
 8251 228c 9C       		.byte	0x9c
 8252 228d B0220000 		.4byte	0x22b0
 8253 2291 1C       		.uleb128 0x1c
 8254 2292 95060000 		.4byte	.LASF65
 8255 2296 01       		.byte	0x1
 8256 2297 AA0B     		.2byte	0xbaa
 8257 2299 11040000 		.4byte	0x411
 8258 229d 01       		.uleb128 0x1
 8259 229e 50       		.byte	0x50
 8260 229f 1E       		.uleb128 0x1e
 8261 22a0 09060000 		.4byte	.LASF205
 8262 22a4 01       		.byte	0x1
 8263 22a5 AA0B     		.2byte	0xbaa
 8264 22a7 A2000000 		.4byte	0xa2
 8265 22ab D2240000 		.4byte	.LLST197
 8266 22af 00       		.byte	0
 8267 22b0 29       		.uleb128 0x29
 8268 22b1 07060000 		.4byte	0x607
 8269 22b5 00000000 		.4byte	.LFB196
 8270 22b9 18000000 		.4byte	.LFE196-.LFB196
 8271 22bd 01       		.uleb128 0x1
 8272 22be 9C       		.byte	0x9c
 8273 22bf EF220000 		.4byte	0x22ef
 8274 22c3 26       		.uleb128 0x26
 8275 22c4 14060000 		.4byte	0x614
 8276 22c8 01       		.uleb128 0x1
 8277 22c9 50       		.byte	0x50
 8278 22ca 22       		.uleb128 0x22
 8279 22cb 20060000 		.4byte	0x620
 8280 22cf F3240000 		.4byte	.LLST198
 8281 22d3 22       		.uleb128 0x22
 8282 22d4 2C060000 		.4byte	0x62c
 8283 22d8 14250000 		.4byte	.LLST199
 8284 22dc 22       		.uleb128 0x22
 8285 22dd 38060000 		.4byte	0x638
 8286 22e1 35250000 		.4byte	.LLST200
 8287 22e5 24       		.uleb128 0x24
 8288 22e6 44060000 		.4byte	0x644
 8289 22ea 56250000 		.4byte	.LLST201
 8290 22ee 00       		.byte	0
 8291 22ef 1B       		.uleb128 0x1b
 8292 22f0 FD010000 		.4byte	.LASF206
 8293 22f4 01       		.byte	0x1
 8294 22f5 020C     		.2byte	0xc02
 8295 22f7 00000000 		.4byte	.LFB197
 8296 22fb 3A000000 		.4byte	.LFE197-.LFB197
 8297 22ff 01       		.uleb128 0x1
 8298 2300 9C       		.byte	0x9c
 8299 2301 74230000 		.4byte	0x2374
 8300 2305 1C       		.uleb128 0x1c
 8301 2306 95060000 		.4byte	.LASF65
 8302 230a 01       		.byte	0x1
 8303 230b 020C     		.2byte	0xc02
 8304 230d 11040000 		.4byte	0x411
 8305 2311 01       		.uleb128 0x1
ARM GAS  /tmp/cchgQdZS.s 			page 149


 8306 2312 50       		.byte	0x50
 8307 2313 1E       		.uleb128 0x1e
 8308 2314 9A060000 		.4byte	.LASF207
 8309 2318 01       		.byte	0x1
 8310 2319 020C     		.2byte	0xc02
 8311 231b A2000000 		.4byte	0xa2
 8312 231f 9F250000 		.4byte	.LLST202
 8313 2323 1E       		.uleb128 0x1e
 8314 2324 3F020000 		.4byte	.LASF208
 8315 2328 01       		.byte	0x1
 8316 2329 030C     		.2byte	0xc03
 8317 232b A2000000 		.4byte	0xa2
 8318 232f C0250000 		.4byte	.LLST203
 8319 2333 1E       		.uleb128 0x1e
 8320 2334 FC000000 		.4byte	.LASF209
 8321 2338 01       		.byte	0x1
 8322 2339 030C     		.2byte	0xc03
 8323 233b A2000000 		.4byte	0xa2
 8324 233f E1250000 		.4byte	.LLST204
 8325 2343 1D       		.uleb128 0x1d
 8326 2344 51070000 		.4byte	.LASF80
 8327 2348 01       		.byte	0x1
 8328 2349 050C     		.2byte	0xc05
 8329 234b A2000000 		.4byte	0xa2
 8330 234f 02260000 		.4byte	.LLST205
 8331 2353 1D       		.uleb128 0x1d
 8332 2354 4E010000 		.4byte	.LASF66
 8333 2358 01       		.byte	0x1
 8334 2359 060C     		.2byte	0xc06
 8335 235b A2000000 		.4byte	0xa2
 8336 235f 42260000 		.4byte	.LLST206
 8337 2363 1D       		.uleb128 0x1d
 8338 2364 6A050000 		.4byte	.LASF67
 8339 2368 01       		.byte	0x1
 8340 2369 070C     		.2byte	0xc07
 8341 236b A2000000 		.4byte	0xa2
 8342 236f 87260000 		.4byte	.LLST207
 8343 2373 00       		.byte	0
 8344 2374 1B       		.uleb128 0x1b
 8345 2375 080D0000 		.4byte	.LASF210
 8346 2379 01       		.byte	0x1
 8347 237a 360C     		.2byte	0xc36
 8348 237c 00000000 		.4byte	.LFB198
 8349 2380 18000000 		.4byte	.LFE198-.LFB198
 8350 2384 01       		.uleb128 0x1
 8351 2385 9C       		.byte	0x9c
 8352 2386 A7230000 		.4byte	0x23a7
 8353 238a 1C       		.uleb128 0x1c
 8354 238b 95060000 		.4byte	.LASF65
 8355 238f 01       		.byte	0x1
 8356 2390 360C     		.2byte	0xc36
 8357 2392 11040000 		.4byte	0x411
 8358 2396 01       		.uleb128 0x1
 8359 2397 50       		.byte	0x50
 8360 2398 1C       		.uleb128 0x1c
 8361 2399 0B000000 		.4byte	.LASF101
 8362 239d 01       		.byte	0x1
ARM GAS  /tmp/cchgQdZS.s 			page 150


 8363 239e 360C     		.2byte	0xc36
 8364 23a0 34020000 		.4byte	0x234
 8365 23a4 01       		.uleb128 0x1
 8366 23a5 51       		.byte	0x51
 8367 23a6 00       		.byte	0
 8368 23a7 1B       		.uleb128 0x1b
 8369 23a8 D60C0000 		.4byte	.LASF211
 8370 23ac 01       		.byte	0x1
 8371 23ad 690C     		.2byte	0xc69
 8372 23af 00000000 		.4byte	.LFB199
 8373 23b3 04000000 		.4byte	.LFE199-.LFB199
 8374 23b7 01       		.uleb128 0x1
 8375 23b8 9C       		.byte	0x9c
 8376 23b9 DA230000 		.4byte	0x23da
 8377 23bd 1C       		.uleb128 0x1c
 8378 23be 95060000 		.4byte	.LASF65
 8379 23c2 01       		.byte	0x1
 8380 23c3 690C     		.2byte	0xc69
 8381 23c5 11040000 		.4byte	0x411
 8382 23c9 01       		.uleb128 0x1
 8383 23ca 50       		.byte	0x50
 8384 23cb 1C       		.uleb128 0x1c
 8385 23cc 77080000 		.4byte	.LASF212
 8386 23d0 01       		.byte	0x1
 8387 23d1 690C     		.2byte	0xc69
 8388 23d3 A2000000 		.4byte	0xa2
 8389 23d7 01       		.uleb128 0x1
 8390 23d8 51       		.byte	0x51
 8391 23d9 00       		.byte	0
 8392 23da 2B       		.uleb128 0x2b
 8393 23db DB010000 		.4byte	.LASF217
 8394 23df 08       		.byte	0x8
 8395 23e0 A706     		.2byte	0x6a7
 8396 23e2 E6230000 		.4byte	0x23e6
 8397 23e6 05       		.uleb128 0x5
 8398 23e7 AD000000 		.4byte	0xad
 8399 23eb 2C       		.uleb128 0x2c
 8400 23ec 37010000 		.4byte	.LASF213
 8401 23f0 07       		.byte	0x7
 8402 23f1 6103     		.2byte	0x361
 8403 23f3 02240000 		.4byte	0x2402
 8404 23f7 2D       		.uleb128 0x2d
 8405 23f8 B8000000 		.4byte	0xb8
 8406 23fc 2D       		.uleb128 0x2d
 8407 23fd 34020000 		.4byte	0x234
 8408 2401 00       		.byte	0
 8409 2402 2E       		.uleb128 0x2e
 8410 2403 A8080000 		.4byte	.LASF218
 8411 2407 07       		.byte	0x7
 8412 2408 6203     		.2byte	0x362
 8413 240a 2D       		.uleb128 0x2d
 8414 240b B8000000 		.4byte	0xb8
 8415 240f 2D       		.uleb128 0x2d
 8416 2410 34020000 		.4byte	0x234
 8417 2414 00       		.byte	0
 8418 2415 00       		.byte	0
 8419              		.section	.debug_abbrev,"",%progbits
ARM GAS  /tmp/cchgQdZS.s 			page 151


 8420              	.Ldebug_abbrev0:
 8421 0000 01       		.uleb128 0x1
 8422 0001 11       		.uleb128 0x11
 8423 0002 01       		.byte	0x1
 8424 0003 25       		.uleb128 0x25
 8425 0004 0E       		.uleb128 0xe
 8426 0005 13       		.uleb128 0x13
 8427 0006 0B       		.uleb128 0xb
 8428 0007 03       		.uleb128 0x3
 8429 0008 0E       		.uleb128 0xe
 8430 0009 1B       		.uleb128 0x1b
 8431 000a 0E       		.uleb128 0xe
 8432 000b 55       		.uleb128 0x55
 8433 000c 17       		.uleb128 0x17
 8434 000d 11       		.uleb128 0x11
 8435 000e 01       		.uleb128 0x1
 8436 000f 10       		.uleb128 0x10
 8437 0010 17       		.uleb128 0x17
 8438 0011 00       		.byte	0
 8439 0012 00       		.byte	0
 8440 0013 02       		.uleb128 0x2
 8441 0014 24       		.uleb128 0x24
 8442 0015 00       		.byte	0
 8443 0016 0B       		.uleb128 0xb
 8444 0017 0B       		.uleb128 0xb
 8445 0018 3E       		.uleb128 0x3e
 8446 0019 0B       		.uleb128 0xb
 8447 001a 03       		.uleb128 0x3
 8448 001b 0E       		.uleb128 0xe
 8449 001c 00       		.byte	0
 8450 001d 00       		.byte	0
 8451 001e 03       		.uleb128 0x3
 8452 001f 16       		.uleb128 0x16
 8453 0020 00       		.byte	0
 8454 0021 03       		.uleb128 0x3
 8455 0022 0E       		.uleb128 0xe
 8456 0023 3A       		.uleb128 0x3a
 8457 0024 0B       		.uleb128 0xb
 8458 0025 3B       		.uleb128 0x3b
 8459 0026 0B       		.uleb128 0xb
 8460 0027 49       		.uleb128 0x49
 8461 0028 13       		.uleb128 0x13
 8462 0029 00       		.byte	0
 8463 002a 00       		.byte	0
 8464 002b 04       		.uleb128 0x4
 8465 002c 24       		.uleb128 0x24
 8466 002d 00       		.byte	0
 8467 002e 0B       		.uleb128 0xb
 8468 002f 0B       		.uleb128 0xb
 8469 0030 3E       		.uleb128 0x3e
 8470 0031 0B       		.uleb128 0xb
 8471 0032 03       		.uleb128 0x3
 8472 0033 08       		.uleb128 0x8
 8473 0034 00       		.byte	0
 8474 0035 00       		.byte	0
 8475 0036 05       		.uleb128 0x5
 8476 0037 35       		.uleb128 0x35
ARM GAS  /tmp/cchgQdZS.s 			page 152


 8477 0038 00       		.byte	0
 8478 0039 49       		.uleb128 0x49
 8479 003a 13       		.uleb128 0x13
 8480 003b 00       		.byte	0
 8481 003c 00       		.byte	0
 8482 003d 06       		.uleb128 0x6
 8483 003e 13       		.uleb128 0x13
 8484 003f 01       		.byte	0x1
 8485 0040 0B       		.uleb128 0xb
 8486 0041 0B       		.uleb128 0xb
 8487 0042 3A       		.uleb128 0x3a
 8488 0043 0B       		.uleb128 0xb
 8489 0044 3B       		.uleb128 0x3b
 8490 0045 05       		.uleb128 0x5
 8491 0046 01       		.uleb128 0x1
 8492 0047 13       		.uleb128 0x13
 8493 0048 00       		.byte	0
 8494 0049 00       		.byte	0
 8495 004a 07       		.uleb128 0x7
 8496 004b 0D       		.uleb128 0xd
 8497 004c 00       		.byte	0
 8498 004d 03       		.uleb128 0x3
 8499 004e 08       		.uleb128 0x8
 8500 004f 3A       		.uleb128 0x3a
 8501 0050 0B       		.uleb128 0xb
 8502 0051 3B       		.uleb128 0x3b
 8503 0052 05       		.uleb128 0x5
 8504 0053 49       		.uleb128 0x49
 8505 0054 13       		.uleb128 0x13
 8506 0055 38       		.uleb128 0x38
 8507 0056 0B       		.uleb128 0xb
 8508 0057 00       		.byte	0
 8509 0058 00       		.byte	0
 8510 0059 08       		.uleb128 0x8
 8511 005a 0D       		.uleb128 0xd
 8512 005b 00       		.byte	0
 8513 005c 03       		.uleb128 0x3
 8514 005d 0E       		.uleb128 0xe
 8515 005e 3A       		.uleb128 0x3a
 8516 005f 0B       		.uleb128 0xb
 8517 0060 3B       		.uleb128 0x3b
 8518 0061 05       		.uleb128 0x5
 8519 0062 49       		.uleb128 0x49
 8520 0063 13       		.uleb128 0x13
 8521 0064 38       		.uleb128 0x38
 8522 0065 0B       		.uleb128 0xb
 8523 0066 00       		.byte	0
 8524 0067 00       		.byte	0
 8525 0068 09       		.uleb128 0x9
 8526 0069 16       		.uleb128 0x16
 8527 006a 00       		.byte	0
 8528 006b 03       		.uleb128 0x3
 8529 006c 0E       		.uleb128 0xe
 8530 006d 3A       		.uleb128 0x3a
 8531 006e 0B       		.uleb128 0xb
 8532 006f 3B       		.uleb128 0x3b
 8533 0070 05       		.uleb128 0x5
ARM GAS  /tmp/cchgQdZS.s 			page 153


 8534 0071 49       		.uleb128 0x49
 8535 0072 13       		.uleb128 0x13
 8536 0073 00       		.byte	0
 8537 0074 00       		.byte	0
 8538 0075 0A       		.uleb128 0xa
 8539 0076 04       		.uleb128 0x4
 8540 0077 01       		.byte	0x1
 8541 0078 0B       		.uleb128 0xb
 8542 0079 0B       		.uleb128 0xb
 8543 007a 3A       		.uleb128 0x3a
 8544 007b 0B       		.uleb128 0xb
 8545 007c 3B       		.uleb128 0x3b
 8546 007d 0B       		.uleb128 0xb
 8547 007e 01       		.uleb128 0x1
 8548 007f 13       		.uleb128 0x13
 8549 0080 00       		.byte	0
 8550 0081 00       		.byte	0
 8551 0082 0B       		.uleb128 0xb
 8552 0083 28       		.uleb128 0x28
 8553 0084 00       		.byte	0
 8554 0085 03       		.uleb128 0x3
 8555 0086 0E       		.uleb128 0xe
 8556 0087 1C       		.uleb128 0x1c
 8557 0088 0D       		.uleb128 0xd
 8558 0089 00       		.byte	0
 8559 008a 00       		.byte	0
 8560 008b 0C       		.uleb128 0xc
 8561 008c 28       		.uleb128 0x28
 8562 008d 00       		.byte	0
 8563 008e 03       		.uleb128 0x3
 8564 008f 08       		.uleb128 0x8
 8565 0090 1C       		.uleb128 0x1c
 8566 0091 0D       		.uleb128 0xd
 8567 0092 00       		.byte	0
 8568 0093 00       		.byte	0
 8569 0094 0D       		.uleb128 0xd
 8570 0095 13       		.uleb128 0x13
 8571 0096 01       		.byte	0x1
 8572 0097 0B       		.uleb128 0xb
 8573 0098 0B       		.uleb128 0xb
 8574 0099 3A       		.uleb128 0x3a
 8575 009a 0B       		.uleb128 0xb
 8576 009b 3B       		.uleb128 0x3b
 8577 009c 0B       		.uleb128 0xb
 8578 009d 01       		.uleb128 0x1
 8579 009e 13       		.uleb128 0x13
 8580 009f 00       		.byte	0
 8581 00a0 00       		.byte	0
 8582 00a1 0E       		.uleb128 0xe
 8583 00a2 0D       		.uleb128 0xd
 8584 00a3 00       		.byte	0
 8585 00a4 03       		.uleb128 0x3
 8586 00a5 0E       		.uleb128 0xe
 8587 00a6 3A       		.uleb128 0x3a
 8588 00a7 0B       		.uleb128 0xb
 8589 00a8 3B       		.uleb128 0x3b
 8590 00a9 0B       		.uleb128 0xb
ARM GAS  /tmp/cchgQdZS.s 			page 154


 8591 00aa 49       		.uleb128 0x49
 8592 00ab 13       		.uleb128 0x13
 8593 00ac 38       		.uleb128 0x38
 8594 00ad 0B       		.uleb128 0xb
 8595 00ae 00       		.byte	0
 8596 00af 00       		.byte	0
 8597 00b0 0F       		.uleb128 0xf
 8598 00b1 2E       		.uleb128 0x2e
 8599 00b2 01       		.byte	0x1
 8600 00b3 03       		.uleb128 0x3
 8601 00b4 0E       		.uleb128 0xe
 8602 00b5 3A       		.uleb128 0x3a
 8603 00b6 0B       		.uleb128 0xb
 8604 00b7 3B       		.uleb128 0x3b
 8605 00b8 05       		.uleb128 0x5
 8606 00b9 27       		.uleb128 0x27
 8607 00ba 19       		.uleb128 0x19
 8608 00bb 20       		.uleb128 0x20
 8609 00bc 0B       		.uleb128 0xb
 8610 00bd 01       		.uleb128 0x1
 8611 00be 13       		.uleb128 0x13
 8612 00bf 00       		.byte	0
 8613 00c0 00       		.byte	0
 8614 00c1 10       		.uleb128 0x10
 8615 00c2 05       		.uleb128 0x5
 8616 00c3 00       		.byte	0
 8617 00c4 03       		.uleb128 0x3
 8618 00c5 0E       		.uleb128 0xe
 8619 00c6 3A       		.uleb128 0x3a
 8620 00c7 0B       		.uleb128 0xb
 8621 00c8 3B       		.uleb128 0x3b
 8622 00c9 05       		.uleb128 0x5
 8623 00ca 49       		.uleb128 0x49
 8624 00cb 13       		.uleb128 0x13
 8625 00cc 00       		.byte	0
 8626 00cd 00       		.byte	0
 8627 00ce 11       		.uleb128 0x11
 8628 00cf 34       		.uleb128 0x34
 8629 00d0 00       		.byte	0
 8630 00d1 03       		.uleb128 0x3
 8631 00d2 0E       		.uleb128 0xe
 8632 00d3 3A       		.uleb128 0x3a
 8633 00d4 0B       		.uleb128 0xb
 8634 00d5 3B       		.uleb128 0x3b
 8635 00d6 05       		.uleb128 0x5
 8636 00d7 49       		.uleb128 0x49
 8637 00d8 13       		.uleb128 0x13
 8638 00d9 00       		.byte	0
 8639 00da 00       		.byte	0
 8640 00db 12       		.uleb128 0x12
 8641 00dc 0F       		.uleb128 0xf
 8642 00dd 00       		.byte	0
 8643 00de 0B       		.uleb128 0xb
 8644 00df 0B       		.uleb128 0xb
 8645 00e0 49       		.uleb128 0x49
 8646 00e1 13       		.uleb128 0x13
 8647 00e2 00       		.byte	0
ARM GAS  /tmp/cchgQdZS.s 			page 155


 8648 00e3 00       		.byte	0
 8649 00e4 13       		.uleb128 0x13
 8650 00e5 2E       		.uleb128 0x2e
 8651 00e6 01       		.byte	0x1
 8652 00e7 3F       		.uleb128 0x3f
 8653 00e8 19       		.uleb128 0x19
 8654 00e9 03       		.uleb128 0x3
 8655 00ea 0E       		.uleb128 0xe
 8656 00eb 3A       		.uleb128 0x3a
 8657 00ec 0B       		.uleb128 0xb
 8658 00ed 3B       		.uleb128 0x3b
 8659 00ee 05       		.uleb128 0x5
 8660 00ef 27       		.uleb128 0x27
 8661 00f0 19       		.uleb128 0x19
 8662 00f1 20       		.uleb128 0x20
 8663 00f2 0B       		.uleb128 0xb
 8664 00f3 01       		.uleb128 0x1
 8665 00f4 13       		.uleb128 0x13
 8666 00f5 00       		.byte	0
 8667 00f6 00       		.byte	0
 8668 00f7 14       		.uleb128 0x14
 8669 00f8 34       		.uleb128 0x34
 8670 00f9 00       		.byte	0
 8671 00fa 03       		.uleb128 0x3
 8672 00fb 08       		.uleb128 0x8
 8673 00fc 3A       		.uleb128 0x3a
 8674 00fd 0B       		.uleb128 0xb
 8675 00fe 3B       		.uleb128 0x3b
 8676 00ff 05       		.uleb128 0x5
 8677 0100 49       		.uleb128 0x49
 8678 0101 13       		.uleb128 0x13
 8679 0102 00       		.byte	0
 8680 0103 00       		.byte	0
 8681 0104 15       		.uleb128 0x15
 8682 0105 2E       		.uleb128 0x2e
 8683 0106 01       		.byte	0x1
 8684 0107 3F       		.uleb128 0x3f
 8685 0108 19       		.uleb128 0x19
 8686 0109 03       		.uleb128 0x3
 8687 010a 0E       		.uleb128 0xe
 8688 010b 3A       		.uleb128 0x3a
 8689 010c 0B       		.uleb128 0xb
 8690 010d 3B       		.uleb128 0x3b
 8691 010e 0B       		.uleb128 0xb
 8692 010f 27       		.uleb128 0x27
 8693 0110 19       		.uleb128 0x19
 8694 0111 11       		.uleb128 0x11
 8695 0112 01       		.uleb128 0x1
 8696 0113 12       		.uleb128 0x12
 8697 0114 06       		.uleb128 0x6
 8698 0115 40       		.uleb128 0x40
 8699 0116 18       		.uleb128 0x18
 8700 0117 9742     		.uleb128 0x2117
 8701 0119 19       		.uleb128 0x19
 8702 011a 01       		.uleb128 0x1
 8703 011b 13       		.uleb128 0x13
 8704 011c 00       		.byte	0
ARM GAS  /tmp/cchgQdZS.s 			page 156


 8705 011d 00       		.byte	0
 8706 011e 16       		.uleb128 0x16
 8707 011f 05       		.uleb128 0x5
 8708 0120 00       		.byte	0
 8709 0121 03       		.uleb128 0x3
 8710 0122 0E       		.uleb128 0xe
 8711 0123 3A       		.uleb128 0x3a
 8712 0124 0B       		.uleb128 0xb
 8713 0125 3B       		.uleb128 0x3b
 8714 0126 0B       		.uleb128 0xb
 8715 0127 49       		.uleb128 0x49
 8716 0128 13       		.uleb128 0x13
 8717 0129 02       		.uleb128 0x2
 8718 012a 17       		.uleb128 0x17
 8719 012b 00       		.byte	0
 8720 012c 00       		.byte	0
 8721 012d 17       		.uleb128 0x17
 8722 012e 898201   		.uleb128 0x4109
 8723 0131 01       		.byte	0x1
 8724 0132 11       		.uleb128 0x11
 8725 0133 01       		.uleb128 0x1
 8726 0134 31       		.uleb128 0x31
 8727 0135 13       		.uleb128 0x13
 8728 0136 01       		.uleb128 0x1
 8729 0137 13       		.uleb128 0x13
 8730 0138 00       		.byte	0
 8731 0139 00       		.byte	0
 8732 013a 18       		.uleb128 0x18
 8733 013b 8A8201   		.uleb128 0x410a
 8734 013e 00       		.byte	0
 8735 013f 02       		.uleb128 0x2
 8736 0140 18       		.uleb128 0x18
 8737 0141 9142     		.uleb128 0x2111
 8738 0143 18       		.uleb128 0x18
 8739 0144 00       		.byte	0
 8740 0145 00       		.byte	0
 8741 0146 19       		.uleb128 0x19
 8742 0147 898201   		.uleb128 0x4109
 8743 014a 01       		.byte	0x1
 8744 014b 11       		.uleb128 0x11
 8745 014c 01       		.uleb128 0x1
 8746 014d 9542     		.uleb128 0x2115
 8747 014f 19       		.uleb128 0x19
 8748 0150 31       		.uleb128 0x31
 8749 0151 13       		.uleb128 0x13
 8750 0152 01       		.uleb128 0x1
 8751 0153 13       		.uleb128 0x13
 8752 0154 00       		.byte	0
 8753 0155 00       		.byte	0
 8754 0156 1A       		.uleb128 0x1a
 8755 0157 898201   		.uleb128 0x4109
 8756 015a 01       		.byte	0x1
 8757 015b 11       		.uleb128 0x11
 8758 015c 01       		.uleb128 0x1
 8759 015d 9542     		.uleb128 0x2115
 8760 015f 19       		.uleb128 0x19
 8761 0160 31       		.uleb128 0x31
ARM GAS  /tmp/cchgQdZS.s 			page 157


 8762 0161 13       		.uleb128 0x13
 8763 0162 00       		.byte	0
 8764 0163 00       		.byte	0
 8765 0164 1B       		.uleb128 0x1b
 8766 0165 2E       		.uleb128 0x2e
 8767 0166 01       		.byte	0x1
 8768 0167 3F       		.uleb128 0x3f
 8769 0168 19       		.uleb128 0x19
 8770 0169 03       		.uleb128 0x3
 8771 016a 0E       		.uleb128 0xe
 8772 016b 3A       		.uleb128 0x3a
 8773 016c 0B       		.uleb128 0xb
 8774 016d 3B       		.uleb128 0x3b
 8775 016e 05       		.uleb128 0x5
 8776 016f 27       		.uleb128 0x27
 8777 0170 19       		.uleb128 0x19
 8778 0171 11       		.uleb128 0x11
 8779 0172 01       		.uleb128 0x1
 8780 0173 12       		.uleb128 0x12
 8781 0174 06       		.uleb128 0x6
 8782 0175 40       		.uleb128 0x40
 8783 0176 18       		.uleb128 0x18
 8784 0177 9742     		.uleb128 0x2117
 8785 0179 19       		.uleb128 0x19
 8786 017a 01       		.uleb128 0x1
 8787 017b 13       		.uleb128 0x13
 8788 017c 00       		.byte	0
 8789 017d 00       		.byte	0
 8790 017e 1C       		.uleb128 0x1c
 8791 017f 05       		.uleb128 0x5
 8792 0180 00       		.byte	0
 8793 0181 03       		.uleb128 0x3
 8794 0182 0E       		.uleb128 0xe
 8795 0183 3A       		.uleb128 0x3a
 8796 0184 0B       		.uleb128 0xb
 8797 0185 3B       		.uleb128 0x3b
 8798 0186 05       		.uleb128 0x5
 8799 0187 49       		.uleb128 0x49
 8800 0188 13       		.uleb128 0x13
 8801 0189 02       		.uleb128 0x2
 8802 018a 18       		.uleb128 0x18
 8803 018b 00       		.byte	0
 8804 018c 00       		.byte	0
 8805 018d 1D       		.uleb128 0x1d
 8806 018e 34       		.uleb128 0x34
 8807 018f 00       		.byte	0
 8808 0190 03       		.uleb128 0x3
 8809 0191 0E       		.uleb128 0xe
 8810 0192 3A       		.uleb128 0x3a
 8811 0193 0B       		.uleb128 0xb
 8812 0194 3B       		.uleb128 0x3b
 8813 0195 05       		.uleb128 0x5
 8814 0196 49       		.uleb128 0x49
 8815 0197 13       		.uleb128 0x13
 8816 0198 02       		.uleb128 0x2
 8817 0199 17       		.uleb128 0x17
 8818 019a 00       		.byte	0
ARM GAS  /tmp/cchgQdZS.s 			page 158


 8819 019b 00       		.byte	0
 8820 019c 1E       		.uleb128 0x1e
 8821 019d 05       		.uleb128 0x5
 8822 019e 00       		.byte	0
 8823 019f 03       		.uleb128 0x3
 8824 01a0 0E       		.uleb128 0xe
 8825 01a1 3A       		.uleb128 0x3a
 8826 01a2 0B       		.uleb128 0xb
 8827 01a3 3B       		.uleb128 0x3b
 8828 01a4 05       		.uleb128 0x5
 8829 01a5 49       		.uleb128 0x49
 8830 01a6 13       		.uleb128 0x13
 8831 01a7 02       		.uleb128 0x2
 8832 01a8 17       		.uleb128 0x17
 8833 01a9 00       		.byte	0
 8834 01aa 00       		.byte	0
 8835 01ab 1F       		.uleb128 0x1f
 8836 01ac 2E       		.uleb128 0x2e
 8837 01ad 01       		.byte	0x1
 8838 01ae 3F       		.uleb128 0x3f
 8839 01af 19       		.uleb128 0x19
 8840 01b0 03       		.uleb128 0x3
 8841 01b1 0E       		.uleb128 0xe
 8842 01b2 3A       		.uleb128 0x3a
 8843 01b3 0B       		.uleb128 0xb
 8844 01b4 3B       		.uleb128 0x3b
 8845 01b5 05       		.uleb128 0x5
 8846 01b6 27       		.uleb128 0x27
 8847 01b7 19       		.uleb128 0x19
 8848 01b8 49       		.uleb128 0x49
 8849 01b9 13       		.uleb128 0x13
 8850 01ba 11       		.uleb128 0x11
 8851 01bb 01       		.uleb128 0x1
 8852 01bc 12       		.uleb128 0x12
 8853 01bd 06       		.uleb128 0x6
 8854 01be 40       		.uleb128 0x40
 8855 01bf 18       		.uleb128 0x18
 8856 01c0 9742     		.uleb128 0x2117
 8857 01c2 19       		.uleb128 0x19
 8858 01c3 01       		.uleb128 0x1
 8859 01c4 13       		.uleb128 0x13
 8860 01c5 00       		.byte	0
 8861 01c6 00       		.byte	0
 8862 01c7 20       		.uleb128 0x20
 8863 01c8 34       		.uleb128 0x34
 8864 01c9 00       		.byte	0
 8865 01ca 03       		.uleb128 0x3
 8866 01cb 08       		.uleb128 0x8
 8867 01cc 3A       		.uleb128 0x3a
 8868 01cd 0B       		.uleb128 0xb
 8869 01ce 3B       		.uleb128 0x3b
 8870 01cf 05       		.uleb128 0x5
 8871 01d0 49       		.uleb128 0x49
 8872 01d1 13       		.uleb128 0x13
 8873 01d2 02       		.uleb128 0x2
 8874 01d3 17       		.uleb128 0x17
 8875 01d4 00       		.byte	0
ARM GAS  /tmp/cchgQdZS.s 			page 159


 8876 01d5 00       		.byte	0
 8877 01d6 21       		.uleb128 0x21
 8878 01d7 1D       		.uleb128 0x1d
 8879 01d8 01       		.byte	0x1
 8880 01d9 31       		.uleb128 0x31
 8881 01da 13       		.uleb128 0x13
 8882 01db 52       		.uleb128 0x52
 8883 01dc 01       		.uleb128 0x1
 8884 01dd 55       		.uleb128 0x55
 8885 01de 17       		.uleb128 0x17
 8886 01df 58       		.uleb128 0x58
 8887 01e0 0B       		.uleb128 0xb
 8888 01e1 59       		.uleb128 0x59
 8889 01e2 05       		.uleb128 0x5
 8890 01e3 01       		.uleb128 0x1
 8891 01e4 13       		.uleb128 0x13
 8892 01e5 00       		.byte	0
 8893 01e6 00       		.byte	0
 8894 01e7 22       		.uleb128 0x22
 8895 01e8 05       		.uleb128 0x5
 8896 01e9 00       		.byte	0
 8897 01ea 31       		.uleb128 0x31
 8898 01eb 13       		.uleb128 0x13
 8899 01ec 02       		.uleb128 0x2
 8900 01ed 17       		.uleb128 0x17
 8901 01ee 00       		.byte	0
 8902 01ef 00       		.byte	0
 8903 01f0 23       		.uleb128 0x23
 8904 01f1 0B       		.uleb128 0xb
 8905 01f2 01       		.byte	0x1
 8906 01f3 55       		.uleb128 0x55
 8907 01f4 17       		.uleb128 0x17
 8908 01f5 00       		.byte	0
 8909 01f6 00       		.byte	0
 8910 01f7 24       		.uleb128 0x24
 8911 01f8 34       		.uleb128 0x34
 8912 01f9 00       		.byte	0
 8913 01fa 31       		.uleb128 0x31
 8914 01fb 13       		.uleb128 0x13
 8915 01fc 02       		.uleb128 0x2
 8916 01fd 17       		.uleb128 0x17
 8917 01fe 00       		.byte	0
 8918 01ff 00       		.byte	0
 8919 0200 25       		.uleb128 0x25
 8920 0201 1D       		.uleb128 0x1d
 8921 0202 01       		.byte	0x1
 8922 0203 31       		.uleb128 0x31
 8923 0204 13       		.uleb128 0x13
 8924 0205 11       		.uleb128 0x11
 8925 0206 01       		.uleb128 0x1
 8926 0207 12       		.uleb128 0x12
 8927 0208 06       		.uleb128 0x6
 8928 0209 58       		.uleb128 0x58
 8929 020a 0B       		.uleb128 0xb
 8930 020b 59       		.uleb128 0x59
 8931 020c 05       		.uleb128 0x5
 8932 020d 01       		.uleb128 0x1
ARM GAS  /tmp/cchgQdZS.s 			page 160


 8933 020e 13       		.uleb128 0x13
 8934 020f 00       		.byte	0
 8935 0210 00       		.byte	0
 8936 0211 26       		.uleb128 0x26
 8937 0212 05       		.uleb128 0x5
 8938 0213 00       		.byte	0
 8939 0214 31       		.uleb128 0x31
 8940 0215 13       		.uleb128 0x13
 8941 0216 02       		.uleb128 0x2
 8942 0217 18       		.uleb128 0x18
 8943 0218 00       		.byte	0
 8944 0219 00       		.byte	0
 8945 021a 27       		.uleb128 0x27
 8946 021b 1D       		.uleb128 0x1d
 8947 021c 01       		.byte	0x1
 8948 021d 31       		.uleb128 0x31
 8949 021e 13       		.uleb128 0x13
 8950 021f 11       		.uleb128 0x11
 8951 0220 01       		.uleb128 0x1
 8952 0221 12       		.uleb128 0x12
 8953 0222 06       		.uleb128 0x6
 8954 0223 58       		.uleb128 0x58
 8955 0224 0B       		.uleb128 0xb
 8956 0225 59       		.uleb128 0x59
 8957 0226 05       		.uleb128 0x5
 8958 0227 00       		.byte	0
 8959 0228 00       		.byte	0
 8960 0229 28       		.uleb128 0x28
 8961 022a 0B       		.uleb128 0xb
 8962 022b 01       		.byte	0x1
 8963 022c 11       		.uleb128 0x11
 8964 022d 01       		.uleb128 0x1
 8965 022e 12       		.uleb128 0x12
 8966 022f 06       		.uleb128 0x6
 8967 0230 00       		.byte	0
 8968 0231 00       		.byte	0
 8969 0232 29       		.uleb128 0x29
 8970 0233 2E       		.uleb128 0x2e
 8971 0234 01       		.byte	0x1
 8972 0235 31       		.uleb128 0x31
 8973 0236 13       		.uleb128 0x13
 8974 0237 11       		.uleb128 0x11
 8975 0238 01       		.uleb128 0x1
 8976 0239 12       		.uleb128 0x12
 8977 023a 06       		.uleb128 0x6
 8978 023b 40       		.uleb128 0x40
 8979 023c 18       		.uleb128 0x18
 8980 023d 9742     		.uleb128 0x2117
 8981 023f 19       		.uleb128 0x19
 8982 0240 01       		.uleb128 0x1
 8983 0241 13       		.uleb128 0x13
 8984 0242 00       		.byte	0
 8985 0243 00       		.byte	0
 8986 0244 2A       		.uleb128 0x2a
 8987 0245 05       		.uleb128 0x5
 8988 0246 00       		.byte	0
 8989 0247 31       		.uleb128 0x31
ARM GAS  /tmp/cchgQdZS.s 			page 161


 8990 0248 13       		.uleb128 0x13
 8991 0249 1C       		.uleb128 0x1c
 8992 024a 0B       		.uleb128 0xb
 8993 024b 00       		.byte	0
 8994 024c 00       		.byte	0
 8995 024d 2B       		.uleb128 0x2b
 8996 024e 34       		.uleb128 0x34
 8997 024f 00       		.byte	0
 8998 0250 03       		.uleb128 0x3
 8999 0251 0E       		.uleb128 0xe
 9000 0252 3A       		.uleb128 0x3a
 9001 0253 0B       		.uleb128 0xb
 9002 0254 3B       		.uleb128 0x3b
 9003 0255 05       		.uleb128 0x5
 9004 0256 49       		.uleb128 0x49
 9005 0257 13       		.uleb128 0x13
 9006 0258 3F       		.uleb128 0x3f
 9007 0259 19       		.uleb128 0x19
 9008 025a 3C       		.uleb128 0x3c
 9009 025b 19       		.uleb128 0x19
 9010 025c 00       		.byte	0
 9011 025d 00       		.byte	0
 9012 025e 2C       		.uleb128 0x2c
 9013 025f 2E       		.uleb128 0x2e
 9014 0260 01       		.byte	0x1
 9015 0261 3F       		.uleb128 0x3f
 9016 0262 19       		.uleb128 0x19
 9017 0263 03       		.uleb128 0x3
 9018 0264 0E       		.uleb128 0xe
 9019 0265 3A       		.uleb128 0x3a
 9020 0266 0B       		.uleb128 0xb
 9021 0267 3B       		.uleb128 0x3b
 9022 0268 05       		.uleb128 0x5
 9023 0269 27       		.uleb128 0x27
 9024 026a 19       		.uleb128 0x19
 9025 026b 3C       		.uleb128 0x3c
 9026 026c 19       		.uleb128 0x19
 9027 026d 01       		.uleb128 0x1
 9028 026e 13       		.uleb128 0x13
 9029 026f 00       		.byte	0
 9030 0270 00       		.byte	0
 9031 0271 2D       		.uleb128 0x2d
 9032 0272 05       		.uleb128 0x5
 9033 0273 00       		.byte	0
 9034 0274 49       		.uleb128 0x49
 9035 0275 13       		.uleb128 0x13
 9036 0276 00       		.byte	0
 9037 0277 00       		.byte	0
 9038 0278 2E       		.uleb128 0x2e
 9039 0279 2E       		.uleb128 0x2e
 9040 027a 01       		.byte	0x1
 9041 027b 3F       		.uleb128 0x3f
 9042 027c 19       		.uleb128 0x19
 9043 027d 03       		.uleb128 0x3
 9044 027e 0E       		.uleb128 0xe
 9045 027f 3A       		.uleb128 0x3a
 9046 0280 0B       		.uleb128 0xb
ARM GAS  /tmp/cchgQdZS.s 			page 162


 9047 0281 3B       		.uleb128 0x3b
 9048 0282 05       		.uleb128 0x5
 9049 0283 27       		.uleb128 0x27
 9050 0284 19       		.uleb128 0x19
 9051 0285 3C       		.uleb128 0x3c
 9052 0286 19       		.uleb128 0x19
 9053 0287 00       		.byte	0
 9054 0288 00       		.byte	0
 9055 0289 00       		.byte	0
 9056              		.section	.debug_loc,"",%progbits
 9057              	.Ldebug_loc0:
 9058              	.LLST0:
 9059 0000 00000000 		.4byte	.LVL0
 9060 0004 60000000 		.4byte	.LVL1
 9061 0008 0100     		.2byte	0x1
 9062 000a 50       		.byte	0x50
 9063 000b 60000000 		.4byte	.LVL1
 9064 000f 74000000 		.4byte	.LVL3
 9065 0013 0400     		.2byte	0x4
 9066 0015 F3       		.byte	0xf3
 9067 0016 01       		.uleb128 0x1
 9068 0017 50       		.byte	0x50
 9069 0018 9F       		.byte	0x9f
 9070 0019 74000000 		.4byte	.LVL3
 9071 001d 76000000 		.4byte	.LVL4
 9072 0021 0100     		.2byte	0x1
 9073 0023 50       		.byte	0x50
 9074 0024 76000000 		.4byte	.LVL4
 9075 0028 88000000 		.4byte	.LVL6
 9076 002c 0400     		.2byte	0x4
 9077 002e F3       		.byte	0xf3
 9078 002f 01       		.uleb128 0x1
 9079 0030 50       		.byte	0x50
 9080 0031 9F       		.byte	0x9f
 9081 0032 88000000 		.4byte	.LVL6
 9082 0036 8A000000 		.4byte	.LVL7
 9083 003a 0100     		.2byte	0x1
 9084 003c 50       		.byte	0x50
 9085 003d 8A000000 		.4byte	.LVL7
 9086 0041 9C000000 		.4byte	.LVL9
 9087 0045 0400     		.2byte	0x4
 9088 0047 F3       		.byte	0xf3
 9089 0048 01       		.uleb128 0x1
 9090 0049 50       		.byte	0x50
 9091 004a 9F       		.byte	0x9f
 9092 004b 9C000000 		.4byte	.LVL9
 9093 004f 9E000000 		.4byte	.LVL10
 9094 0053 0100     		.2byte	0x1
 9095 0055 50       		.byte	0x50
 9096 0056 9E000000 		.4byte	.LVL10
 9097 005a B0000000 		.4byte	.LVL12
 9098 005e 0400     		.2byte	0x4
 9099 0060 F3       		.byte	0xf3
 9100 0061 01       		.uleb128 0x1
 9101 0062 50       		.byte	0x50
 9102 0063 9F       		.byte	0x9f
 9103 0064 B0000000 		.4byte	.LVL12
ARM GAS  /tmp/cchgQdZS.s 			page 163


 9104 0068 B2000000 		.4byte	.LVL13
 9105 006c 0100     		.2byte	0x1
 9106 006e 50       		.byte	0x50
 9107 006f B2000000 		.4byte	.LVL13
 9108 0073 C4000000 		.4byte	.LVL15
 9109 0077 0400     		.2byte	0x4
 9110 0079 F3       		.byte	0xf3
 9111 007a 01       		.uleb128 0x1
 9112 007b 50       		.byte	0x50
 9113 007c 9F       		.byte	0x9f
 9114 007d C4000000 		.4byte	.LVL15
 9115 0081 C6000000 		.4byte	.LVL16
 9116 0085 0100     		.2byte	0x1
 9117 0087 50       		.byte	0x50
 9118 0088 C6000000 		.4byte	.LVL16
 9119 008c D8000000 		.4byte	.LVL18
 9120 0090 0400     		.2byte	0x4
 9121 0092 F3       		.byte	0xf3
 9122 0093 01       		.uleb128 0x1
 9123 0094 50       		.byte	0x50
 9124 0095 9F       		.byte	0x9f
 9125 0096 D8000000 		.4byte	.LVL18
 9126 009a DA000000 		.4byte	.LVL19
 9127 009e 0100     		.2byte	0x1
 9128 00a0 50       		.byte	0x50
 9129 00a1 DA000000 		.4byte	.LVL19
 9130 00a5 EC000000 		.4byte	.LVL21
 9131 00a9 0400     		.2byte	0x4
 9132 00ab F3       		.byte	0xf3
 9133 00ac 01       		.uleb128 0x1
 9134 00ad 50       		.byte	0x50
 9135 00ae 9F       		.byte	0x9f
 9136 00af EC000000 		.4byte	.LVL21
 9137 00b3 EE000000 		.4byte	.LVL22
 9138 00b7 0100     		.2byte	0x1
 9139 00b9 50       		.byte	0x50
 9140 00ba EE000000 		.4byte	.LVL22
 9141 00be 00010000 		.4byte	.LVL24
 9142 00c2 0400     		.2byte	0x4
 9143 00c4 F3       		.byte	0xf3
 9144 00c5 01       		.uleb128 0x1
 9145 00c6 50       		.byte	0x50
 9146 00c7 9F       		.byte	0x9f
 9147 00c8 00010000 		.4byte	.LVL24
 9148 00cc 02010000 		.4byte	.LVL25
 9149 00d0 0100     		.2byte	0x1
 9150 00d2 50       		.byte	0x50
 9151 00d3 02010000 		.4byte	.LVL25
 9152 00d7 14010000 		.4byte	.LVL27
 9153 00db 0400     		.2byte	0x4
 9154 00dd F3       		.byte	0xf3
 9155 00de 01       		.uleb128 0x1
 9156 00df 50       		.byte	0x50
 9157 00e0 9F       		.byte	0x9f
 9158 00e1 14010000 		.4byte	.LVL27
 9159 00e5 18010000 		.4byte	.LVL28
 9160 00e9 0100     		.2byte	0x1
ARM GAS  /tmp/cchgQdZS.s 			page 164


 9161 00eb 50       		.byte	0x50
 9162 00ec 18010000 		.4byte	.LVL28
 9163 00f0 2C010000 		.4byte	.LVL30
 9164 00f4 0400     		.2byte	0x4
 9165 00f6 F3       		.byte	0xf3
 9166 00f7 01       		.uleb128 0x1
 9167 00f8 50       		.byte	0x50
 9168 00f9 9F       		.byte	0x9f
 9169 00fa 2C010000 		.4byte	.LVL30
 9170 00fe 30010000 		.4byte	.LVL31
 9171 0102 0100     		.2byte	0x1
 9172 0104 50       		.byte	0x50
 9173 0105 30010000 		.4byte	.LVL31
 9174 0109 44010000 		.4byte	.LVL33
 9175 010d 0400     		.2byte	0x4
 9176 010f F3       		.byte	0xf3
 9177 0110 01       		.uleb128 0x1
 9178 0111 50       		.byte	0x50
 9179 0112 9F       		.byte	0x9f
 9180 0113 44010000 		.4byte	.LVL33
 9181 0117 48010000 		.4byte	.LVL34
 9182 011b 0100     		.2byte	0x1
 9183 011d 50       		.byte	0x50
 9184 011e 48010000 		.4byte	.LVL34
 9185 0122 5C010000 		.4byte	.LVL36
 9186 0126 0400     		.2byte	0x4
 9187 0128 F3       		.byte	0xf3
 9188 0129 01       		.uleb128 0x1
 9189 012a 50       		.byte	0x50
 9190 012b 9F       		.byte	0x9f
 9191 012c 5C010000 		.4byte	.LVL36
 9192 0130 5E010000 		.4byte	.LVL37
 9193 0134 0100     		.2byte	0x1
 9194 0136 50       		.byte	0x50
 9195 0137 5E010000 		.4byte	.LVL37
 9196 013b 70010000 		.4byte	.LVL39
 9197 013f 0400     		.2byte	0x4
 9198 0141 F3       		.byte	0xf3
 9199 0142 01       		.uleb128 0x1
 9200 0143 50       		.byte	0x50
 9201 0144 9F       		.byte	0x9f
 9202 0145 70010000 		.4byte	.LVL39
 9203 0149 72010000 		.4byte	.LVL40
 9204 014d 0100     		.2byte	0x1
 9205 014f 50       		.byte	0x50
 9206 0150 72010000 		.4byte	.LVL40
 9207 0154 B8010000 		.4byte	.LFE112
 9208 0158 0400     		.2byte	0x4
 9209 015a F3       		.byte	0xf3
 9210 015b 01       		.uleb128 0x1
 9211 015c 50       		.byte	0x50
 9212 015d 9F       		.byte	0x9f
 9213 015e 00000000 		.4byte	0
 9214 0162 00000000 		.4byte	0
 9215              	.LLST1:
 9216 0166 00000000 		.4byte	.LVL43
 9217 016a 0A000000 		.4byte	.LVL44
ARM GAS  /tmp/cchgQdZS.s 			page 165


 9218 016e 0200     		.2byte	0x2
 9219 0170 30       		.byte	0x30
 9220 0171 9F       		.byte	0x9f
 9221 0172 0A000000 		.4byte	.LVL44
 9222 0176 52000000 		.4byte	.LVL47
 9223 017a 0100     		.2byte	0x1
 9224 017c 53       		.byte	0x53
 9225 017d 58000000 		.4byte	.LVL48
 9226 0181 5A000000 		.4byte	.LVL49
 9227 0185 0800     		.2byte	0x8
 9228 0187 71       		.byte	0x71
 9229 0188 08       		.sleb128 8
 9230 0189 94       		.byte	0x94
 9231 018a 02       		.byte	0x2
 9232 018b 73       		.byte	0x73
 9233 018c 00       		.sleb128 0
 9234 018d 21       		.byte	0x21
 9235 018e 9F       		.byte	0x9f
 9236 018f 7E000000 		.4byte	.LVL50
 9237 0193 84000000 		.4byte	.LVL51
 9238 0197 0100     		.2byte	0x1
 9239 0199 53       		.byte	0x53
 9240 019a 84000000 		.4byte	.LVL51
 9241 019e 86000000 		.4byte	.LVL52
 9242 01a2 0400     		.2byte	0x4
 9243 01a4 70       		.byte	0x70
 9244 01a5 00       		.sleb128 0
 9245 01a6 06       		.byte	0x6
 9246 01a7 9F       		.byte	0x9f
 9247 01a8 00000000 		.4byte	0
 9248 01ac 00000000 		.4byte	0
 9249              	.LLST2:
 9250 01b0 00000000 		.4byte	.LVL55
 9251 01b4 0A000000 		.4byte	.LVL58
 9252 01b8 0100     		.2byte	0x1
 9253 01ba 51       		.byte	0x51
 9254 01bb 0A000000 		.4byte	.LVL58
 9255 01bf 0E000000 		.4byte	.LFE116
 9256 01c3 0400     		.2byte	0x4
 9257 01c5 F3       		.byte	0xf3
 9258 01c6 01       		.uleb128 0x1
 9259 01c7 51       		.byte	0x51
 9260 01c8 9F       		.byte	0x9f
 9261 01c9 00000000 		.4byte	0
 9262 01cd 00000000 		.4byte	0
 9263              	.LLST3:
 9264 01d1 00000000 		.4byte	.LVL55
 9265 01d5 02000000 		.4byte	.LVL56
 9266 01d9 0200     		.2byte	0x2
 9267 01db 30       		.byte	0x30
 9268 01dc 9F       		.byte	0x9f
 9269 01dd 02000000 		.4byte	.LVL56
 9270 01e1 08000000 		.4byte	.LVL57
 9271 01e5 0100     		.2byte	0x1
 9272 01e7 52       		.byte	0x52
 9273 01e8 08000000 		.4byte	.LVL57
 9274 01ec 0A000000 		.4byte	.LVL58
ARM GAS  /tmp/cchgQdZS.s 			page 166


 9275 01f0 0600     		.2byte	0x6
 9276 01f2 71       		.byte	0x71
 9277 01f3 00       		.sleb128 0
 9278 01f4 73       		.byte	0x73
 9279 01f5 00       		.sleb128 0
 9280 01f6 21       		.byte	0x21
 9281 01f7 9F       		.byte	0x9f
 9282 01f8 0A000000 		.4byte	.LVL58
 9283 01fc 0E000000 		.4byte	.LFE116
 9284 0200 0700     		.2byte	0x7
 9285 0202 F3       		.byte	0xf3
 9286 0203 01       		.uleb128 0x1
 9287 0204 51       		.byte	0x51
 9288 0205 73       		.byte	0x73
 9289 0206 00       		.sleb128 0
 9290 0207 21       		.byte	0x21
 9291 0208 9F       		.byte	0x9f
 9292 0209 00000000 		.4byte	0
 9293 020d 00000000 		.4byte	0
 9294              	.LLST4:
 9295 0211 00000000 		.4byte	.LVL61
 9296 0215 02000000 		.4byte	.LVL62
 9297 0219 0100     		.2byte	0x1
 9298 021b 50       		.byte	0x50
 9299 021c 02000000 		.4byte	.LVL62
 9300 0220 04000000 		.4byte	.LFE119
 9301 0224 0400     		.2byte	0x4
 9302 0226 F3       		.byte	0xf3
 9303 0227 01       		.uleb128 0x1
 9304 0228 50       		.byte	0x50
 9305 0229 9F       		.byte	0x9f
 9306 022a 00000000 		.4byte	0
 9307 022e 00000000 		.4byte	0
 9308              	.LLST5:
 9309 0232 00000000 		.4byte	.LVL63
 9310 0236 02000000 		.4byte	.LVL64
 9311 023a 0100     		.2byte	0x1
 9312 023c 50       		.byte	0x50
 9313 023d 02000000 		.4byte	.LVL64
 9314 0241 06000000 		.4byte	.LFE120
 9315 0245 0400     		.2byte	0x4
 9316 0247 F3       		.byte	0xf3
 9317 0248 01       		.uleb128 0x1
 9318 0249 50       		.byte	0x50
 9319 024a 9F       		.byte	0x9f
 9320 024b 00000000 		.4byte	0
 9321 024f 00000000 		.4byte	0
 9322              	.LLST6:
 9323 0253 00000000 		.4byte	.LVL68
 9324 0257 0E000000 		.4byte	.LVL69
 9325 025b 0100     		.2byte	0x1
 9326 025d 51       		.byte	0x51
 9327 025e 0E000000 		.4byte	.LVL69
 9328 0262 12000000 		.4byte	.LFE124
 9329 0266 0400     		.2byte	0x4
 9330 0268 F3       		.byte	0xf3
 9331 0269 01       		.uleb128 0x1
ARM GAS  /tmp/cchgQdZS.s 			page 167


 9332 026a 51       		.byte	0x51
 9333 026b 9F       		.byte	0x9f
 9334 026c 00000000 		.4byte	0
 9335 0270 00000000 		.4byte	0
 9336              	.LLST7:
 9337 0274 00000000 		.4byte	.LVL70
 9338 0278 0E000000 		.4byte	.LVL71
 9339 027c 0100     		.2byte	0x1
 9340 027e 51       		.byte	0x51
 9341 027f 0E000000 		.4byte	.LVL71
 9342 0283 12000000 		.4byte	.LFE125
 9343 0287 0400     		.2byte	0x4
 9344 0289 F3       		.byte	0xf3
 9345 028a 01       		.uleb128 0x1
 9346 028b 51       		.byte	0x51
 9347 028c 9F       		.byte	0x9f
 9348 028d 00000000 		.4byte	0
 9349 0291 00000000 		.4byte	0
 9350              	.LLST8:
 9351 0295 00000000 		.4byte	.LVL73
 9352 0299 4C000000 		.4byte	.LVL78
 9353 029d 0100     		.2byte	0x1
 9354 029f 51       		.byte	0x51
 9355 02a0 4C000000 		.4byte	.LVL78
 9356 02a4 5A000000 		.4byte	.LVL80
 9357 02a8 0400     		.2byte	0x4
 9358 02aa F3       		.byte	0xf3
 9359 02ab 01       		.uleb128 0x1
 9360 02ac 51       		.byte	0x51
 9361 02ad 9F       		.byte	0x9f
 9362 02ae 5A000000 		.4byte	.LVL80
 9363 02b2 84000000 		.4byte	.LFE127
 9364 02b6 0100     		.2byte	0x1
 9365 02b8 51       		.byte	0x51
 9366 02b9 00000000 		.4byte	0
 9367 02bd 00000000 		.4byte	0
 9368              	.LLST9:
 9369 02c1 00000000 		.4byte	.LVL73
 9370 02c5 3C000000 		.4byte	.LVL75
 9371 02c9 0200     		.2byte	0x2
 9372 02cb 30       		.byte	0x30
 9373 02cc 9F       		.byte	0x9f
 9374 02cd 3C000000 		.4byte	.LVL75
 9375 02d1 84000000 		.4byte	.LFE127
 9376 02d5 0100     		.2byte	0x1
 9377 02d7 53       		.byte	0x53
 9378 02d8 00000000 		.4byte	0
 9379 02dc 00000000 		.4byte	0
 9380              	.LLST10:
 9381 02e0 00000000 		.4byte	.LVL73
 9382 02e4 18000000 		.4byte	.LVL74
 9383 02e8 0200     		.2byte	0x2
 9384 02ea 30       		.byte	0x30
 9385 02eb 9F       		.byte	0x9f
 9386 02ec 18000000 		.4byte	.LVL74
 9387 02f0 40000000 		.4byte	.LVL76
 9388 02f4 0100     		.2byte	0x1
ARM GAS  /tmp/cchgQdZS.s 			page 168


 9389 02f6 58       		.byte	0x58
 9390 02f7 40000000 		.4byte	.LVL76
 9391 02fb 84000000 		.4byte	.LFE127
 9392 02ff 0100     		.2byte	0x1
 9393 0301 52       		.byte	0x52
 9394 0302 00000000 		.4byte	0
 9395 0306 00000000 		.4byte	0
 9396              	.LLST11:
 9397 030a 00000000 		.4byte	.LVL73
 9398 030e 3C000000 		.4byte	.LVL75
 9399 0312 0200     		.2byte	0x2
 9400 0314 30       		.byte	0x30
 9401 0315 9F       		.byte	0x9f
 9402 0316 3C000000 		.4byte	.LVL75
 9403 031a 54000000 		.4byte	.LVL79
 9404 031e 0100     		.2byte	0x1
 9405 0320 54       		.byte	0x54
 9406 0321 5A000000 		.4byte	.LVL80
 9407 0325 72000000 		.4byte	.LVL83
 9408 0329 0100     		.2byte	0x1
 9409 032b 54       		.byte	0x54
 9410 032c 7A000000 		.4byte	.LVL85
 9411 0330 7C000000 		.4byte	.LVL86
 9412 0334 0800     		.2byte	0x8
 9413 0336 71       		.byte	0x71
 9414 0337 10       		.sleb128 16
 9415 0338 94       		.byte	0x94
 9416 0339 02       		.byte	0x2
 9417 033a 74       		.byte	0x74
 9418 033b 00       		.sleb128 0
 9419 033c 21       		.byte	0x21
 9420 033d 9F       		.byte	0x9f
 9421 033e 7C000000 		.4byte	.LVL86
 9422 0342 84000000 		.4byte	.LFE127
 9423 0346 0100     		.2byte	0x1
 9424 0348 54       		.byte	0x54
 9425 0349 00000000 		.4byte	0
 9426 034d 00000000 		.4byte	0
 9427              	.LLST12:
 9428 0351 00000000 		.4byte	.LVL87
 9429 0355 54000000 		.4byte	.LVL92
 9430 0359 0100     		.2byte	0x1
 9431 035b 51       		.byte	0x51
 9432 035c 54000000 		.4byte	.LVL92
 9433 0360 62000000 		.4byte	.LVL94
 9434 0364 0400     		.2byte	0x4
 9435 0366 F3       		.byte	0xf3
 9436 0367 01       		.uleb128 0x1
 9437 0368 51       		.byte	0x51
 9438 0369 9F       		.byte	0x9f
 9439 036a 62000000 		.4byte	.LVL94
 9440 036e 94000000 		.4byte	.LFE128
 9441 0372 0100     		.2byte	0x1
 9442 0374 51       		.byte	0x51
 9443 0375 00000000 		.4byte	0
 9444 0379 00000000 		.4byte	0
 9445              	.LLST13:
ARM GAS  /tmp/cchgQdZS.s 			page 169


 9446 037d 00000000 		.4byte	.LVL87
 9447 0381 46000000 		.4byte	.LVL89
 9448 0385 0200     		.2byte	0x2
 9449 0387 30       		.byte	0x30
 9450 0388 9F       		.byte	0x9f
 9451 0389 46000000 		.4byte	.LVL89
 9452 038d 48000000 		.4byte	.LVL90
 9453 0391 0700     		.2byte	0x7
 9454 0393 78       		.byte	0x78
 9455 0394 00       		.sleb128 0
 9456 0395 0A       		.byte	0xa
 9457 0396 FF8C     		.2byte	0x8cff
 9458 0398 1A       		.byte	0x1a
 9459 0399 9F       		.byte	0x9f
 9460 039a 48000000 		.4byte	.LVL90
 9461 039e 94000000 		.4byte	.LFE128
 9462 03a2 0100     		.2byte	0x1
 9463 03a4 52       		.byte	0x52
 9464 03a5 00000000 		.4byte	0
 9465 03a9 00000000 		.4byte	0
 9466              	.LLST14:
 9467 03ad 00000000 		.4byte	.LVL87
 9468 03b1 1A000000 		.4byte	.LVL88
 9469 03b5 0200     		.2byte	0x2
 9470 03b7 30       		.byte	0x30
 9471 03b8 9F       		.byte	0x9f
 9472 03b9 1A000000 		.4byte	.LVL88
 9473 03bd 48000000 		.4byte	.LVL90
 9474 03c1 0100     		.2byte	0x1
 9475 03c3 5C       		.byte	0x5c
 9476 03c4 48000000 		.4byte	.LVL90
 9477 03c8 7C000000 		.4byte	.LVL97
 9478 03cc 0100     		.2byte	0x1
 9479 03ce 53       		.byte	0x53
 9480 03cf 7C000000 		.4byte	.LVL97
 9481 03d3 8C000000 		.4byte	.LVL99
 9482 03d7 0100     		.2byte	0x1
 9483 03d9 55       		.byte	0x55
 9484 03da 8C000000 		.4byte	.LVL99
 9485 03de 94000000 		.4byte	.LFE128
 9486 03e2 0100     		.2byte	0x1
 9487 03e4 53       		.byte	0x53
 9488 03e5 00000000 		.4byte	0
 9489 03e9 00000000 		.4byte	0
 9490              	.LLST15:
 9491 03ed 00000000 		.4byte	.LVL87
 9492 03f1 46000000 		.4byte	.LVL89
 9493 03f5 0200     		.2byte	0x2
 9494 03f7 30       		.byte	0x30
 9495 03f8 9F       		.byte	0x9f
 9496 03f9 46000000 		.4byte	.LVL89
 9497 03fd 5C000000 		.4byte	.LVL93
 9498 0401 0100     		.2byte	0x1
 9499 0403 54       		.byte	0x54
 9500 0404 62000000 		.4byte	.LVL94
 9501 0408 84000000 		.4byte	.LVL98
 9502 040c 0100     		.2byte	0x1
ARM GAS  /tmp/cchgQdZS.s 			page 170


 9503 040e 54       		.byte	0x54
 9504 040f 8C000000 		.4byte	.LVL99
 9505 0413 8E000000 		.4byte	.LVL100
 9506 0417 0A00     		.2byte	0xa
 9507 0419 71       		.byte	0x71
 9508 041a 10       		.sleb128 16
 9509 041b 94       		.byte	0x94
 9510 041c 02       		.byte	0x2
 9511 041d 32       		.byte	0x32
 9512 041e 24       		.byte	0x24
 9513 041f 74       		.byte	0x74
 9514 0420 00       		.sleb128 0
 9515 0421 21       		.byte	0x21
 9516 0422 9F       		.byte	0x9f
 9517 0423 8E000000 		.4byte	.LVL100
 9518 0427 94000000 		.4byte	.LFE128
 9519 042b 0100     		.2byte	0x1
 9520 042d 54       		.byte	0x54
 9521 042e 00000000 		.4byte	0
 9522 0432 00000000 		.4byte	0
 9523              	.LLST16:
 9524 0436 00000000 		.4byte	.LVL101
 9525 043a 50000000 		.4byte	.LVL106
 9526 043e 0100     		.2byte	0x1
 9527 0440 51       		.byte	0x51
 9528 0441 50000000 		.4byte	.LVL106
 9529 0445 5E000000 		.4byte	.LVL108
 9530 0449 0400     		.2byte	0x4
 9531 044b F3       		.byte	0xf3
 9532 044c 01       		.uleb128 0x1
 9533 044d 51       		.byte	0x51
 9534 044e 9F       		.byte	0x9f
 9535 044f 5E000000 		.4byte	.LVL108
 9536 0453 90000000 		.4byte	.LFE129
 9537 0457 0100     		.2byte	0x1
 9538 0459 51       		.byte	0x51
 9539 045a 00000000 		.4byte	0
 9540 045e 00000000 		.4byte	0
 9541              	.LLST17:
 9542 0462 00000000 		.4byte	.LVL101
 9543 0466 40000000 		.4byte	.LVL103
 9544 046a 0200     		.2byte	0x2
 9545 046c 30       		.byte	0x30
 9546 046d 9F       		.byte	0x9f
 9547 046e 40000000 		.4byte	.LVL103
 9548 0472 90000000 		.4byte	.LFE129
 9549 0476 0100     		.2byte	0x1
 9550 0478 53       		.byte	0x53
 9551 0479 00000000 		.4byte	0
 9552 047d 00000000 		.4byte	0
 9553              	.LLST18:
 9554 0481 00000000 		.4byte	.LVL101
 9555 0485 18000000 		.4byte	.LVL102
 9556 0489 0200     		.2byte	0x2
 9557 048b 30       		.byte	0x30
 9558 048c 9F       		.byte	0x9f
 9559 048d 18000000 		.4byte	.LVL102
ARM GAS  /tmp/cchgQdZS.s 			page 171


 9560 0491 44000000 		.4byte	.LVL104
 9561 0495 0100     		.2byte	0x1
 9562 0497 58       		.byte	0x58
 9563 0498 44000000 		.4byte	.LVL104
 9564 049c 78000000 		.4byte	.LVL111
 9565 04a0 0100     		.2byte	0x1
 9566 04a2 52       		.byte	0x52
 9567 04a3 78000000 		.4byte	.LVL111
 9568 04a7 88000000 		.4byte	.LVL113
 9569 04ab 0100     		.2byte	0x1
 9570 04ad 55       		.byte	0x55
 9571 04ae 88000000 		.4byte	.LVL113
 9572 04b2 90000000 		.4byte	.LFE129
 9573 04b6 0100     		.2byte	0x1
 9574 04b8 52       		.byte	0x52
 9575 04b9 00000000 		.4byte	0
 9576 04bd 00000000 		.4byte	0
 9577              	.LLST19:
 9578 04c1 00000000 		.4byte	.LVL101
 9579 04c5 40000000 		.4byte	.LVL103
 9580 04c9 0200     		.2byte	0x2
 9581 04cb 30       		.byte	0x30
 9582 04cc 9F       		.byte	0x9f
 9583 04cd 40000000 		.4byte	.LVL103
 9584 04d1 58000000 		.4byte	.LVL107
 9585 04d5 0100     		.2byte	0x1
 9586 04d7 54       		.byte	0x54
 9587 04d8 5E000000 		.4byte	.LVL108
 9588 04dc 80000000 		.4byte	.LVL112
 9589 04e0 0100     		.2byte	0x1
 9590 04e2 54       		.byte	0x54
 9591 04e3 88000000 		.4byte	.LVL113
 9592 04e7 8A000000 		.4byte	.LVL114
 9593 04eb 0A00     		.2byte	0xa
 9594 04ed 71       		.byte	0x71
 9595 04ee 10       		.sleb128 16
 9596 04ef 94       		.byte	0x94
 9597 04f0 02       		.byte	0x2
 9598 04f1 34       		.byte	0x34
 9599 04f2 24       		.byte	0x24
 9600 04f3 74       		.byte	0x74
 9601 04f4 00       		.sleb128 0
 9602 04f5 21       		.byte	0x21
 9603 04f6 9F       		.byte	0x9f
 9604 04f7 8A000000 		.4byte	.LVL114
 9605 04fb 90000000 		.4byte	.LFE129
 9606 04ff 0100     		.2byte	0x1
 9607 0501 54       		.byte	0x54
 9608 0502 00000000 		.4byte	0
 9609 0506 00000000 		.4byte	0
 9610              	.LLST20:
 9611 050a 00000000 		.4byte	.LVL115
 9612 050e 54000000 		.4byte	.LVL120
 9613 0512 0100     		.2byte	0x1
 9614 0514 51       		.byte	0x51
 9615 0515 54000000 		.4byte	.LVL120
 9616 0519 62000000 		.4byte	.LVL122
ARM GAS  /tmp/cchgQdZS.s 			page 172


 9617 051d 0400     		.2byte	0x4
 9618 051f F3       		.byte	0xf3
 9619 0520 01       		.uleb128 0x1
 9620 0521 51       		.byte	0x51
 9621 0522 9F       		.byte	0x9f
 9622 0523 62000000 		.4byte	.LVL122
 9623 0527 74000000 		.4byte	.LFE130
 9624 052b 0100     		.2byte	0x1
 9625 052d 51       		.byte	0x51
 9626 052e 00000000 		.4byte	0
 9627 0532 00000000 		.4byte	0
 9628              	.LLST21:
 9629 0536 00000000 		.4byte	.LVL115
 9630 053a 46000000 		.4byte	.LVL117
 9631 053e 0200     		.2byte	0x2
 9632 0540 30       		.byte	0x30
 9633 0541 9F       		.byte	0x9f
 9634 0542 46000000 		.4byte	.LVL117
 9635 0546 48000000 		.4byte	.LVL118
 9636 054a 0700     		.2byte	0x7
 9637 054c 78       		.byte	0x78
 9638 054d 00       		.sleb128 0
 9639 054e 0A       		.byte	0xa
 9640 054f FF8C     		.2byte	0x8cff
 9641 0551 1A       		.byte	0x1a
 9642 0552 9F       		.byte	0x9f
 9643 0553 48000000 		.4byte	.LVL118
 9644 0557 74000000 		.4byte	.LFE130
 9645 055b 0100     		.2byte	0x1
 9646 055d 52       		.byte	0x52
 9647 055e 00000000 		.4byte	0
 9648 0562 00000000 		.4byte	0
 9649              	.LLST22:
 9650 0566 00000000 		.4byte	.LVL115
 9651 056a 1A000000 		.4byte	.LVL116
 9652 056e 0200     		.2byte	0x2
 9653 0570 30       		.byte	0x30
 9654 0571 9F       		.byte	0x9f
 9655 0572 1A000000 		.4byte	.LVL116
 9656 0576 48000000 		.4byte	.LVL118
 9657 057a 0100     		.2byte	0x1
 9658 057c 5C       		.byte	0x5c
 9659 057d 48000000 		.4byte	.LVL118
 9660 0581 74000000 		.4byte	.LFE130
 9661 0585 0100     		.2byte	0x1
 9662 0587 53       		.byte	0x53
 9663 0588 00000000 		.4byte	0
 9664 058c 00000000 		.4byte	0
 9665              	.LLST23:
 9666 0590 00000000 		.4byte	.LVL115
 9667 0594 46000000 		.4byte	.LVL117
 9668 0598 0200     		.2byte	0x2
 9669 059a 30       		.byte	0x30
 9670 059b 9F       		.byte	0x9f
 9671 059c 46000000 		.4byte	.LVL117
 9672 05a0 5C000000 		.4byte	.LVL121
 9673 05a4 0100     		.2byte	0x1
ARM GAS  /tmp/cchgQdZS.s 			page 173


 9674 05a6 54       		.byte	0x54
 9675 05a7 62000000 		.4byte	.LVL122
 9676 05ab 6C000000 		.4byte	.LVL124
 9677 05af 0100     		.2byte	0x1
 9678 05b1 54       		.byte	0x54
 9679 05b2 6E000000 		.4byte	.LVL125
 9680 05b6 74000000 		.4byte	.LFE130
 9681 05ba 0100     		.2byte	0x1
 9682 05bc 54       		.byte	0x54
 9683 05bd 00000000 		.4byte	0
 9684 05c1 00000000 		.4byte	0
 9685              	.LLST24:
 9686 05c5 00000000 		.4byte	.LVL127
 9687 05c9 16000000 		.4byte	.LVL128
 9688 05cd 0100     		.2byte	0x1
 9689 05cf 50       		.byte	0x50
 9690 05d0 16000000 		.4byte	.LVL128
 9691 05d4 50000000 		.4byte	.LFE132
 9692 05d8 0300     		.2byte	0x3
 9693 05da 70       		.byte	0x70
 9694 05db 68       		.sleb128 -24
 9695 05dc 9F       		.byte	0x9f
 9696 05dd 00000000 		.4byte	0
 9697 05e1 00000000 		.4byte	0
 9698              	.LLST25:
 9699 05e5 00000000 		.4byte	.LVL127
 9700 05e9 1A000000 		.4byte	.LVL130
 9701 05ed 0100     		.2byte	0x1
 9702 05ef 51       		.byte	0x51
 9703 05f0 1A000000 		.4byte	.LVL130
 9704 05f4 38000000 		.4byte	.LVL133
 9705 05f8 0400     		.2byte	0x4
 9706 05fa F3       		.byte	0xf3
 9707 05fb 01       		.uleb128 0x1
 9708 05fc 51       		.byte	0x51
 9709 05fd 9F       		.byte	0x9f
 9710 05fe 38000000 		.4byte	.LVL133
 9711 0602 3A000000 		.4byte	.LVL134
 9712 0606 0100     		.2byte	0x1
 9713 0608 51       		.byte	0x51
 9714 0609 3A000000 		.4byte	.LVL134
 9715 060d 50000000 		.4byte	.LFE132
 9716 0611 0400     		.2byte	0x4
 9717 0613 F3       		.byte	0xf3
 9718 0614 01       		.uleb128 0x1
 9719 0615 51       		.byte	0x51
 9720 0616 9F       		.byte	0x9f
 9721 0617 00000000 		.4byte	0
 9722 061b 00000000 		.4byte	0
 9723              	.LLST26:
 9724 061f 00000000 		.4byte	.LVL127
 9725 0623 2A000000 		.4byte	.LVL132
 9726 0627 0100     		.2byte	0x1
 9727 0629 52       		.byte	0x52
 9728 062a 2A000000 		.4byte	.LVL132
 9729 062e 38000000 		.4byte	.LVL133
 9730 0632 0400     		.2byte	0x4
ARM GAS  /tmp/cchgQdZS.s 			page 174


 9731 0634 F3       		.byte	0xf3
 9732 0635 01       		.uleb128 0x1
 9733 0636 52       		.byte	0x52
 9734 0637 9F       		.byte	0x9f
 9735 0638 38000000 		.4byte	.LVL133
 9736 063c 4C000000 		.4byte	.LVL135
 9737 0640 0100     		.2byte	0x1
 9738 0642 52       		.byte	0x52
 9739 0643 4C000000 		.4byte	.LVL135
 9740 0647 50000000 		.4byte	.LFE132
 9741 064b 0400     		.2byte	0x4
 9742 064d F3       		.byte	0xf3
 9743 064e 01       		.uleb128 0x1
 9744 064f 52       		.byte	0x52
 9745 0650 9F       		.byte	0x9f
 9746 0651 00000000 		.4byte	0
 9747 0655 00000000 		.4byte	0
 9748              	.LLST27:
 9749 0659 00000000 		.4byte	.LVL127
 9750 065d 18000000 		.4byte	.LVL129
 9751 0661 0100     		.2byte	0x1
 9752 0663 50       		.byte	0x50
 9753 0664 18000000 		.4byte	.LVL129
 9754 0668 1A000000 		.4byte	.LVL130
 9755 066c 0C00     		.2byte	0xc
 9756 066e 71       		.byte	0x71
 9757 066f 7C       		.sleb128 -4
 9758 0670 31       		.byte	0x31
 9759 0671 25       		.byte	0x25
 9760 0672 0A       		.byte	0xa
 9761 0673 FFFF     		.2byte	0xffff
 9762 0675 1A       		.byte	0x1a
 9763 0676 70       		.byte	0x70
 9764 0677 00       		.sleb128 0
 9765 0678 22       		.byte	0x22
 9766 0679 9F       		.byte	0x9f
 9767 067a 1A000000 		.4byte	.LVL130
 9768 067e 1E000000 		.4byte	.LVL131
 9769 0682 0C00     		.2byte	0xc
 9770 0684 71       		.byte	0x71
 9771 0685 00       		.sleb128 0
 9772 0686 31       		.byte	0x31
 9773 0687 25       		.byte	0x25
 9774 0688 0A       		.byte	0xa
 9775 0689 FFFF     		.2byte	0xffff
 9776 068b 1A       		.byte	0x1a
 9777 068c 70       		.byte	0x70
 9778 068d 00       		.sleb128 0
 9779 068e 22       		.byte	0x22
 9780 068f 9F       		.byte	0x9f
 9781 0690 38000000 		.4byte	.LVL133
 9782 0694 3A000000 		.4byte	.LVL134
 9783 0698 0C00     		.2byte	0xc
 9784 069a 71       		.byte	0x71
 9785 069b 00       		.sleb128 0
 9786 069c 31       		.byte	0x31
 9787 069d 25       		.byte	0x25
ARM GAS  /tmp/cchgQdZS.s 			page 175


 9788 069e 0A       		.byte	0xa
 9789 069f FFFF     		.2byte	0xffff
 9790 06a1 1A       		.byte	0x1a
 9791 06a2 70       		.byte	0x70
 9792 06a3 00       		.sleb128 0
 9793 06a4 22       		.byte	0x22
 9794 06a5 9F       		.byte	0x9f
 9795 06a6 00000000 		.4byte	0
 9796 06aa 00000000 		.4byte	0
 9797              	.LLST28:
 9798 06ae 00000000 		.4byte	.LVL127
 9799 06b2 16000000 		.4byte	.LVL128
 9800 06b6 0200     		.2byte	0x2
 9801 06b8 30       		.byte	0x30
 9802 06b9 9F       		.byte	0x9f
 9803 06ba 00000000 		.4byte	0
 9804 06be 00000000 		.4byte	0
 9805              	.LLST29:
 9806 06c2 00000000 		.4byte	.LVL140
 9807 06c6 0A000000 		.4byte	.LVL143
 9808 06ca 0100     		.2byte	0x1
 9809 06cc 51       		.byte	0x51
 9810 06cd 0A000000 		.4byte	.LVL143
 9811 06d1 0E000000 		.4byte	.LFE137
 9812 06d5 0400     		.2byte	0x4
 9813 06d7 F3       		.byte	0xf3
 9814 06d8 01       		.uleb128 0x1
 9815 06d9 51       		.byte	0x51
 9816 06da 9F       		.byte	0x9f
 9817 06db 00000000 		.4byte	0
 9818 06df 00000000 		.4byte	0
 9819              	.LLST30:
 9820 06e3 00000000 		.4byte	.LVL140
 9821 06e7 02000000 		.4byte	.LVL141
 9822 06eb 0200     		.2byte	0x2
 9823 06ed 30       		.byte	0x30
 9824 06ee 9F       		.byte	0x9f
 9825 06ef 02000000 		.4byte	.LVL141
 9826 06f3 08000000 		.4byte	.LVL142
 9827 06f7 0100     		.2byte	0x1
 9828 06f9 52       		.byte	0x52
 9829 06fa 08000000 		.4byte	.LVL142
 9830 06fe 0A000000 		.4byte	.LVL143
 9831 0702 0600     		.2byte	0x6
 9832 0704 71       		.byte	0x71
 9833 0705 00       		.sleb128 0
 9834 0706 73       		.byte	0x73
 9835 0707 00       		.sleb128 0
 9836 0708 21       		.byte	0x21
 9837 0709 9F       		.byte	0x9f
 9838 070a 0A000000 		.4byte	.LVL143
 9839 070e 0E000000 		.4byte	.LFE137
 9840 0712 0700     		.2byte	0x7
 9841 0714 F3       		.byte	0xf3
 9842 0715 01       		.uleb128 0x1
 9843 0716 51       		.byte	0x51
 9844 0717 73       		.byte	0x73
ARM GAS  /tmp/cchgQdZS.s 			page 176


 9845 0718 00       		.sleb128 0
 9846 0719 21       		.byte	0x21
 9847 071a 9F       		.byte	0x9f
 9848 071b 00000000 		.4byte	0
 9849 071f 00000000 		.4byte	0
 9850              	.LLST31:
 9851 0723 00000000 		.4byte	.LVL144
 9852 0727 0C000000 		.4byte	.LVL147
 9853 072b 0100     		.2byte	0x1
 9854 072d 51       		.byte	0x51
 9855 072e 0C000000 		.4byte	.LVL147
 9856 0732 12000000 		.4byte	.LFE138
 9857 0736 0400     		.2byte	0x4
 9858 0738 F3       		.byte	0xf3
 9859 0739 01       		.uleb128 0x1
 9860 073a 51       		.byte	0x51
 9861 073b 9F       		.byte	0x9f
 9862 073c 00000000 		.4byte	0
 9863 0740 00000000 		.4byte	0
 9864              	.LLST32:
 9865 0744 00000000 		.4byte	.LVL144
 9866 0748 02000000 		.4byte	.LVL145
 9867 074c 0200     		.2byte	0x2
 9868 074e 30       		.byte	0x30
 9869 074f 9F       		.byte	0x9f
 9870 0750 02000000 		.4byte	.LVL145
 9871 0754 08000000 		.4byte	.LVL146
 9872 0758 0100     		.2byte	0x1
 9873 075a 52       		.byte	0x52
 9874 075b 08000000 		.4byte	.LVL146
 9875 075f 0C000000 		.4byte	.LVL147
 9876 0763 0800     		.2byte	0x8
 9877 0765 71       		.byte	0x71
 9878 0766 00       		.sleb128 0
 9879 0767 38       		.byte	0x38
 9880 0768 24       		.byte	0x24
 9881 0769 73       		.byte	0x73
 9882 076a 00       		.sleb128 0
 9883 076b 21       		.byte	0x21
 9884 076c 9F       		.byte	0x9f
 9885 076d 0C000000 		.4byte	.LVL147
 9886 0771 0E000000 		.4byte	.LVL148
 9887 0775 0900     		.2byte	0x9
 9888 0777 F3       		.byte	0xf3
 9889 0778 01       		.uleb128 0x1
 9890 0779 51       		.byte	0x51
 9891 077a 38       		.byte	0x38
 9892 077b 24       		.byte	0x24
 9893 077c 73       		.byte	0x73
 9894 077d 00       		.sleb128 0
 9895 077e 21       		.byte	0x21
 9896 077f 9F       		.byte	0x9f
 9897 0780 0E000000 		.4byte	.LVL148
 9898 0784 12000000 		.4byte	.LFE138
 9899 0788 0D00     		.2byte	0xd
 9900 078a F3       		.byte	0xf3
 9901 078b 01       		.uleb128 0x1
ARM GAS  /tmp/cchgQdZS.s 			page 177


 9902 078c 51       		.byte	0x51
 9903 078d 38       		.byte	0x38
 9904 078e 24       		.byte	0x24
 9905 078f 72       		.byte	0x72
 9906 0790 00       		.sleb128 0
 9907 0791 0A       		.byte	0xa
 9908 0792 FF8F     		.2byte	0x8fff
 9909 0794 1A       		.byte	0x1a
 9910 0795 21       		.byte	0x21
 9911 0796 9F       		.byte	0x9f
 9912 0797 00000000 		.4byte	0
 9913 079b 00000000 		.4byte	0
 9914              	.LLST33:
 9915 079f 00000000 		.4byte	.LVL149
 9916 07a3 0A000000 		.4byte	.LVL152
 9917 07a7 0100     		.2byte	0x1
 9918 07a9 51       		.byte	0x51
 9919 07aa 0A000000 		.4byte	.LVL152
 9920 07ae 0E000000 		.4byte	.LFE139
 9921 07b2 0400     		.2byte	0x4
 9922 07b4 F3       		.byte	0xf3
 9923 07b5 01       		.uleb128 0x1
 9924 07b6 51       		.byte	0x51
 9925 07b7 9F       		.byte	0x9f
 9926 07b8 00000000 		.4byte	0
 9927 07bc 00000000 		.4byte	0
 9928              	.LLST34:
 9929 07c0 00000000 		.4byte	.LVL149
 9930 07c4 02000000 		.4byte	.LVL150
 9931 07c8 0200     		.2byte	0x2
 9932 07ca 30       		.byte	0x30
 9933 07cb 9F       		.byte	0x9f
 9934 07cc 02000000 		.4byte	.LVL150
 9935 07d0 08000000 		.4byte	.LVL151
 9936 07d4 0100     		.2byte	0x1
 9937 07d6 52       		.byte	0x52
 9938 07d7 08000000 		.4byte	.LVL151
 9939 07db 0A000000 		.4byte	.LVL152
 9940 07df 0600     		.2byte	0x6
 9941 07e1 71       		.byte	0x71
 9942 07e2 00       		.sleb128 0
 9943 07e3 73       		.byte	0x73
 9944 07e4 00       		.sleb128 0
 9945 07e5 21       		.byte	0x21
 9946 07e6 9F       		.byte	0x9f
 9947 07e7 0A000000 		.4byte	.LVL152
 9948 07eb 0E000000 		.4byte	.LFE139
 9949 07ef 0700     		.2byte	0x7
 9950 07f1 F3       		.byte	0xf3
 9951 07f2 01       		.uleb128 0x1
 9952 07f3 51       		.byte	0x51
 9953 07f4 73       		.byte	0x73
 9954 07f5 00       		.sleb128 0
 9955 07f6 21       		.byte	0x21
 9956 07f7 9F       		.byte	0x9f
 9957 07f8 00000000 		.4byte	0
 9958 07fc 00000000 		.4byte	0
ARM GAS  /tmp/cchgQdZS.s 			page 178


 9959              	.LLST35:
 9960 0800 00000000 		.4byte	.LVL153
 9961 0804 0C000000 		.4byte	.LVL156
 9962 0808 0100     		.2byte	0x1
 9963 080a 51       		.byte	0x51
 9964 080b 0C000000 		.4byte	.LVL156
 9965 080f 12000000 		.4byte	.LFE140
 9966 0813 0400     		.2byte	0x4
 9967 0815 F3       		.byte	0xf3
 9968 0816 01       		.uleb128 0x1
 9969 0817 51       		.byte	0x51
 9970 0818 9F       		.byte	0x9f
 9971 0819 00000000 		.4byte	0
 9972 081d 00000000 		.4byte	0
 9973              	.LLST36:
 9974 0821 00000000 		.4byte	.LVL153
 9975 0825 02000000 		.4byte	.LVL154
 9976 0829 0200     		.2byte	0x2
 9977 082b 30       		.byte	0x30
 9978 082c 9F       		.byte	0x9f
 9979 082d 02000000 		.4byte	.LVL154
 9980 0831 08000000 		.4byte	.LVL155
 9981 0835 0100     		.2byte	0x1
 9982 0837 52       		.byte	0x52
 9983 0838 08000000 		.4byte	.LVL155
 9984 083c 0C000000 		.4byte	.LVL156
 9985 0840 0800     		.2byte	0x8
 9986 0842 71       		.byte	0x71
 9987 0843 00       		.sleb128 0
 9988 0844 38       		.byte	0x38
 9989 0845 24       		.byte	0x24
 9990 0846 73       		.byte	0x73
 9991 0847 00       		.sleb128 0
 9992 0848 21       		.byte	0x21
 9993 0849 9F       		.byte	0x9f
 9994 084a 0C000000 		.4byte	.LVL156
 9995 084e 0E000000 		.4byte	.LVL157
 9996 0852 0900     		.2byte	0x9
 9997 0854 F3       		.byte	0xf3
 9998 0855 01       		.uleb128 0x1
 9999 0856 51       		.byte	0x51
 10000 0857 38       		.byte	0x38
 10001 0858 24       		.byte	0x24
 10002 0859 73       		.byte	0x73
 10003 085a 00       		.sleb128 0
 10004 085b 21       		.byte	0x21
 10005 085c 9F       		.byte	0x9f
 10006 085d 0E000000 		.4byte	.LVL157
 10007 0861 12000000 		.4byte	.LFE140
 10008 0865 0D00     		.2byte	0xd
 10009 0867 F3       		.byte	0xf3
 10010 0868 01       		.uleb128 0x1
 10011 0869 51       		.byte	0x51
 10012 086a 38       		.byte	0x38
 10013 086b 24       		.byte	0x24
 10014 086c 72       		.byte	0x72
 10015 086d 00       		.sleb128 0
ARM GAS  /tmp/cchgQdZS.s 			page 179


 10016 086e 0A       		.byte	0xa
 10017 086f FF8F     		.2byte	0x8fff
 10018 0871 1A       		.byte	0x1a
 10019 0872 21       		.byte	0x21
 10020 0873 9F       		.byte	0x9f
 10021 0874 00000000 		.4byte	0
 10022 0878 00000000 		.4byte	0
 10023              	.LLST37:
 10024 087c 00000000 		.4byte	.LVL158
 10025 0880 0A000000 		.4byte	.LVL161
 10026 0884 0100     		.2byte	0x1
 10027 0886 51       		.byte	0x51
 10028 0887 0A000000 		.4byte	.LVL161
 10029 088b 0E000000 		.4byte	.LFE141
 10030 088f 0400     		.2byte	0x4
 10031 0891 F3       		.byte	0xf3
 10032 0892 01       		.uleb128 0x1
 10033 0893 51       		.byte	0x51
 10034 0894 9F       		.byte	0x9f
 10035 0895 00000000 		.4byte	0
 10036 0899 00000000 		.4byte	0
 10037              	.LLST38:
 10038 089d 00000000 		.4byte	.LVL158
 10039 08a1 02000000 		.4byte	.LVL159
 10040 08a5 0200     		.2byte	0x2
 10041 08a7 30       		.byte	0x30
 10042 08a8 9F       		.byte	0x9f
 10043 08a9 02000000 		.4byte	.LVL159
 10044 08ad 08000000 		.4byte	.LVL160
 10045 08b1 0100     		.2byte	0x1
 10046 08b3 52       		.byte	0x52
 10047 08b4 08000000 		.4byte	.LVL160
 10048 08b8 0A000000 		.4byte	.LVL161
 10049 08bc 0600     		.2byte	0x6
 10050 08be 71       		.byte	0x71
 10051 08bf 00       		.sleb128 0
 10052 08c0 73       		.byte	0x73
 10053 08c1 00       		.sleb128 0
 10054 08c2 21       		.byte	0x21
 10055 08c3 9F       		.byte	0x9f
 10056 08c4 0A000000 		.4byte	.LVL161
 10057 08c8 0E000000 		.4byte	.LFE141
 10058 08cc 0700     		.2byte	0x7
 10059 08ce F3       		.byte	0xf3
 10060 08cf 01       		.uleb128 0x1
 10061 08d0 51       		.byte	0x51
 10062 08d1 73       		.byte	0x73
 10063 08d2 00       		.sleb128 0
 10064 08d3 21       		.byte	0x21
 10065 08d4 9F       		.byte	0x9f
 10066 08d5 00000000 		.4byte	0
 10067 08d9 00000000 		.4byte	0
 10068              	.LLST39:
 10069 08dd 00000000 		.4byte	.LVL162
 10070 08e1 0C000000 		.4byte	.LVL165
 10071 08e5 0100     		.2byte	0x1
 10072 08e7 51       		.byte	0x51
ARM GAS  /tmp/cchgQdZS.s 			page 180


 10073 08e8 0C000000 		.4byte	.LVL165
 10074 08ec 12000000 		.4byte	.LFE142
 10075 08f0 0400     		.2byte	0x4
 10076 08f2 F3       		.byte	0xf3
 10077 08f3 01       		.uleb128 0x1
 10078 08f4 51       		.byte	0x51
 10079 08f5 9F       		.byte	0x9f
 10080 08f6 00000000 		.4byte	0
 10081 08fa 00000000 		.4byte	0
 10082              	.LLST40:
 10083 08fe 00000000 		.4byte	.LVL162
 10084 0902 02000000 		.4byte	.LVL163
 10085 0906 0200     		.2byte	0x2
 10086 0908 30       		.byte	0x30
 10087 0909 9F       		.byte	0x9f
 10088 090a 02000000 		.4byte	.LVL163
 10089 090e 08000000 		.4byte	.LVL164
 10090 0912 0100     		.2byte	0x1
 10091 0914 52       		.byte	0x52
 10092 0915 08000000 		.4byte	.LVL164
 10093 0919 0C000000 		.4byte	.LVL165
 10094 091d 0800     		.2byte	0x8
 10095 091f 71       		.byte	0x71
 10096 0920 00       		.sleb128 0
 10097 0921 38       		.byte	0x38
 10098 0922 24       		.byte	0x24
 10099 0923 73       		.byte	0x73
 10100 0924 00       		.sleb128 0
 10101 0925 21       		.byte	0x21
 10102 0926 9F       		.byte	0x9f
 10103 0927 0C000000 		.4byte	.LVL165
 10104 092b 0E000000 		.4byte	.LVL166
 10105 092f 0900     		.2byte	0x9
 10106 0931 F3       		.byte	0xf3
 10107 0932 01       		.uleb128 0x1
 10108 0933 51       		.byte	0x51
 10109 0934 38       		.byte	0x38
 10110 0935 24       		.byte	0x24
 10111 0936 73       		.byte	0x73
 10112 0937 00       		.sleb128 0
 10113 0938 21       		.byte	0x21
 10114 0939 9F       		.byte	0x9f
 10115 093a 0E000000 		.4byte	.LVL166
 10116 093e 12000000 		.4byte	.LFE142
 10117 0942 0D00     		.2byte	0xd
 10118 0944 F3       		.byte	0xf3
 10119 0945 01       		.uleb128 0x1
 10120 0946 51       		.byte	0x51
 10121 0947 38       		.byte	0x38
 10122 0948 24       		.byte	0x24
 10123 0949 72       		.byte	0x72
 10124 094a 00       		.sleb128 0
 10125 094b 0A       		.byte	0xa
 10126 094c FFF7     		.2byte	0xf7ff
 10127 094e 1A       		.byte	0x1a
 10128 094f 21       		.byte	0x21
 10129 0950 9F       		.byte	0x9f
ARM GAS  /tmp/cchgQdZS.s 			page 181


 10130 0951 00000000 		.4byte	0
 10131 0955 00000000 		.4byte	0
 10132              	.LLST41:
 10133 0959 00000000 		.4byte	.LVL167
 10134 095d 0A000000 		.4byte	.LVL170
 10135 0961 0100     		.2byte	0x1
 10136 0963 51       		.byte	0x51
 10137 0964 0A000000 		.4byte	.LVL170
 10138 0968 0E000000 		.4byte	.LFE143
 10139 096c 0400     		.2byte	0x4
 10140 096e F3       		.byte	0xf3
 10141 096f 01       		.uleb128 0x1
 10142 0970 51       		.byte	0x51
 10143 0971 9F       		.byte	0x9f
 10144 0972 00000000 		.4byte	0
 10145 0976 00000000 		.4byte	0
 10146              	.LLST42:
 10147 097a 00000000 		.4byte	.LVL167
 10148 097e 02000000 		.4byte	.LVL168
 10149 0982 0200     		.2byte	0x2
 10150 0984 30       		.byte	0x30
 10151 0985 9F       		.byte	0x9f
 10152 0986 02000000 		.4byte	.LVL168
 10153 098a 08000000 		.4byte	.LVL169
 10154 098e 0100     		.2byte	0x1
 10155 0990 52       		.byte	0x52
 10156 0991 08000000 		.4byte	.LVL169
 10157 0995 0A000000 		.4byte	.LVL170
 10158 0999 0600     		.2byte	0x6
 10159 099b 71       		.byte	0x71
 10160 099c 00       		.sleb128 0
 10161 099d 73       		.byte	0x73
 10162 099e 00       		.sleb128 0
 10163 099f 21       		.byte	0x21
 10164 09a0 9F       		.byte	0x9f
 10165 09a1 0A000000 		.4byte	.LVL170
 10166 09a5 0E000000 		.4byte	.LFE143
 10167 09a9 0700     		.2byte	0x7
 10168 09ab F3       		.byte	0xf3
 10169 09ac 01       		.uleb128 0x1
 10170 09ad 51       		.byte	0x51
 10171 09ae 73       		.byte	0x73
 10172 09af 00       		.sleb128 0
 10173 09b0 21       		.byte	0x21
 10174 09b1 9F       		.byte	0x9f
 10175 09b2 00000000 		.4byte	0
 10176 09b6 00000000 		.4byte	0
 10177              	.LLST43:
 10178 09ba 00000000 		.4byte	.LVL171
 10179 09be 0C000000 		.4byte	.LVL174
 10180 09c2 0100     		.2byte	0x1
 10181 09c4 51       		.byte	0x51
 10182 09c5 0C000000 		.4byte	.LVL174
 10183 09c9 12000000 		.4byte	.LFE144
 10184 09cd 0400     		.2byte	0x4
 10185 09cf F3       		.byte	0xf3
 10186 09d0 01       		.uleb128 0x1
ARM GAS  /tmp/cchgQdZS.s 			page 182


 10187 09d1 51       		.byte	0x51
 10188 09d2 9F       		.byte	0x9f
 10189 09d3 00000000 		.4byte	0
 10190 09d7 00000000 		.4byte	0
 10191              	.LLST44:
 10192 09db 00000000 		.4byte	.LVL171
 10193 09df 02000000 		.4byte	.LVL172
 10194 09e3 0200     		.2byte	0x2
 10195 09e5 30       		.byte	0x30
 10196 09e6 9F       		.byte	0x9f
 10197 09e7 02000000 		.4byte	.LVL172
 10198 09eb 08000000 		.4byte	.LVL173
 10199 09ef 0100     		.2byte	0x1
 10200 09f1 52       		.byte	0x52
 10201 09f2 08000000 		.4byte	.LVL173
 10202 09f6 0C000000 		.4byte	.LVL174
 10203 09fa 0800     		.2byte	0x8
 10204 09fc 71       		.byte	0x71
 10205 09fd 00       		.sleb128 0
 10206 09fe 38       		.byte	0x38
 10207 09ff 24       		.byte	0x24
 10208 0a00 73       		.byte	0x73
 10209 0a01 00       		.sleb128 0
 10210 0a02 21       		.byte	0x21
 10211 0a03 9F       		.byte	0x9f
 10212 0a04 0C000000 		.4byte	.LVL174
 10213 0a08 0E000000 		.4byte	.LVL175
 10214 0a0c 0900     		.2byte	0x9
 10215 0a0e F3       		.byte	0xf3
 10216 0a0f 01       		.uleb128 0x1
 10217 0a10 51       		.byte	0x51
 10218 0a11 38       		.byte	0x38
 10219 0a12 24       		.byte	0x24
 10220 0a13 73       		.byte	0x73
 10221 0a14 00       		.sleb128 0
 10222 0a15 21       		.byte	0x21
 10223 0a16 9F       		.byte	0x9f
 10224 0a17 0E000000 		.4byte	.LVL175
 10225 0a1b 12000000 		.4byte	.LFE144
 10226 0a1f 0D00     		.2byte	0xd
 10227 0a21 F3       		.byte	0xf3
 10228 0a22 01       		.uleb128 0x1
 10229 0a23 51       		.byte	0x51
 10230 0a24 38       		.byte	0x38
 10231 0a25 24       		.byte	0x24
 10232 0a26 72       		.byte	0x72
 10233 0a27 00       		.sleb128 0
 10234 0a28 0A       		.byte	0xa
 10235 0a29 FFF7     		.2byte	0xf7ff
 10236 0a2b 1A       		.byte	0x1a
 10237 0a2c 21       		.byte	0x21
 10238 0a2d 9F       		.byte	0x9f
 10239 0a2e 00000000 		.4byte	0
 10240 0a32 00000000 		.4byte	0
 10241              	.LLST45:
 10242 0a36 00000000 		.4byte	.LVL176
 10243 0a3a 0A000000 		.4byte	.LVL179
ARM GAS  /tmp/cchgQdZS.s 			page 183


 10244 0a3e 0100     		.2byte	0x1
 10245 0a40 51       		.byte	0x51
 10246 0a41 0A000000 		.4byte	.LVL179
 10247 0a45 0E000000 		.4byte	.LFE145
 10248 0a49 0400     		.2byte	0x4
 10249 0a4b F3       		.byte	0xf3
 10250 0a4c 01       		.uleb128 0x1
 10251 0a4d 51       		.byte	0x51
 10252 0a4e 9F       		.byte	0x9f
 10253 0a4f 00000000 		.4byte	0
 10254 0a53 00000000 		.4byte	0
 10255              	.LLST46:
 10256 0a57 00000000 		.4byte	.LVL176
 10257 0a5b 02000000 		.4byte	.LVL177
 10258 0a5f 0200     		.2byte	0x2
 10259 0a61 30       		.byte	0x30
 10260 0a62 9F       		.byte	0x9f
 10261 0a63 02000000 		.4byte	.LVL177
 10262 0a67 08000000 		.4byte	.LVL178
 10263 0a6b 0100     		.2byte	0x1
 10264 0a6d 52       		.byte	0x52
 10265 0a6e 08000000 		.4byte	.LVL178
 10266 0a72 0A000000 		.4byte	.LVL179
 10267 0a76 0600     		.2byte	0x6
 10268 0a78 71       		.byte	0x71
 10269 0a79 00       		.sleb128 0
 10270 0a7a 73       		.byte	0x73
 10271 0a7b 00       		.sleb128 0
 10272 0a7c 21       		.byte	0x21
 10273 0a7d 9F       		.byte	0x9f
 10274 0a7e 0A000000 		.4byte	.LVL179
 10275 0a82 0E000000 		.4byte	.LFE145
 10276 0a86 0700     		.2byte	0x7
 10277 0a88 F3       		.byte	0xf3
 10278 0a89 01       		.uleb128 0x1
 10279 0a8a 51       		.byte	0x51
 10280 0a8b 73       		.byte	0x73
 10281 0a8c 00       		.sleb128 0
 10282 0a8d 21       		.byte	0x21
 10283 0a8e 9F       		.byte	0x9f
 10284 0a8f 00000000 		.4byte	0
 10285 0a93 00000000 		.4byte	0
 10286              	.LLST47:
 10287 0a97 00000000 		.4byte	.LVL180
 10288 0a9b 0C000000 		.4byte	.LVL183
 10289 0a9f 0100     		.2byte	0x1
 10290 0aa1 51       		.byte	0x51
 10291 0aa2 0C000000 		.4byte	.LVL183
 10292 0aa6 12000000 		.4byte	.LFE146
 10293 0aaa 0400     		.2byte	0x4
 10294 0aac F3       		.byte	0xf3
 10295 0aad 01       		.uleb128 0x1
 10296 0aae 51       		.byte	0x51
 10297 0aaf 9F       		.byte	0x9f
 10298 0ab0 00000000 		.4byte	0
 10299 0ab4 00000000 		.4byte	0
 10300              	.LLST48:
ARM GAS  /tmp/cchgQdZS.s 			page 184


 10301 0ab8 00000000 		.4byte	.LVL180
 10302 0abc 02000000 		.4byte	.LVL181
 10303 0ac0 0200     		.2byte	0x2
 10304 0ac2 30       		.byte	0x30
 10305 0ac3 9F       		.byte	0x9f
 10306 0ac4 02000000 		.4byte	.LVL181
 10307 0ac8 08000000 		.4byte	.LVL182
 10308 0acc 0100     		.2byte	0x1
 10309 0ace 52       		.byte	0x52
 10310 0acf 08000000 		.4byte	.LVL182
 10311 0ad3 0C000000 		.4byte	.LVL183
 10312 0ad7 0800     		.2byte	0x8
 10313 0ad9 71       		.byte	0x71
 10314 0ada 00       		.sleb128 0
 10315 0adb 38       		.byte	0x38
 10316 0adc 24       		.byte	0x24
 10317 0add 73       		.byte	0x73
 10318 0ade 00       		.sleb128 0
 10319 0adf 21       		.byte	0x21
 10320 0ae0 9F       		.byte	0x9f
 10321 0ae1 0C000000 		.4byte	.LVL183
 10322 0ae5 0E000000 		.4byte	.LVL184
 10323 0ae9 0900     		.2byte	0x9
 10324 0aeb F3       		.byte	0xf3
 10325 0aec 01       		.uleb128 0x1
 10326 0aed 51       		.byte	0x51
 10327 0aee 38       		.byte	0x38
 10328 0aef 24       		.byte	0x24
 10329 0af0 73       		.byte	0x73
 10330 0af1 00       		.sleb128 0
 10331 0af2 21       		.byte	0x21
 10332 0af3 9F       		.byte	0x9f
 10333 0af4 0E000000 		.4byte	.LVL184
 10334 0af8 12000000 		.4byte	.LFE146
 10335 0afc 0D00     		.2byte	0xd
 10336 0afe F3       		.byte	0xf3
 10337 0aff 01       		.uleb128 0x1
 10338 0b00 51       		.byte	0x51
 10339 0b01 38       		.byte	0x38
 10340 0b02 24       		.byte	0x24
 10341 0b03 72       		.byte	0x72
 10342 0b04 00       		.sleb128 0
 10343 0b05 0A       		.byte	0xa
 10344 0b06 FFFB     		.2byte	0xfbff
 10345 0b08 1A       		.byte	0x1a
 10346 0b09 21       		.byte	0x21
 10347 0b0a 9F       		.byte	0x9f
 10348 0b0b 00000000 		.4byte	0
 10349 0b0f 00000000 		.4byte	0
 10350              	.LLST49:
 10351 0b13 00000000 		.4byte	.LVL185
 10352 0b17 0A000000 		.4byte	.LVL188
 10353 0b1b 0100     		.2byte	0x1
 10354 0b1d 51       		.byte	0x51
 10355 0b1e 0A000000 		.4byte	.LVL188
 10356 0b22 0E000000 		.4byte	.LFE147
 10357 0b26 0400     		.2byte	0x4
ARM GAS  /tmp/cchgQdZS.s 			page 185


 10358 0b28 F3       		.byte	0xf3
 10359 0b29 01       		.uleb128 0x1
 10360 0b2a 51       		.byte	0x51
 10361 0b2b 9F       		.byte	0x9f
 10362 0b2c 00000000 		.4byte	0
 10363 0b30 00000000 		.4byte	0
 10364              	.LLST50:
 10365 0b34 00000000 		.4byte	.LVL185
 10366 0b38 02000000 		.4byte	.LVL186
 10367 0b3c 0200     		.2byte	0x2
 10368 0b3e 30       		.byte	0x30
 10369 0b3f 9F       		.byte	0x9f
 10370 0b40 02000000 		.4byte	.LVL186
 10371 0b44 08000000 		.4byte	.LVL187
 10372 0b48 0100     		.2byte	0x1
 10373 0b4a 52       		.byte	0x52
 10374 0b4b 08000000 		.4byte	.LVL187
 10375 0b4f 0A000000 		.4byte	.LVL188
 10376 0b53 0600     		.2byte	0x6
 10377 0b55 71       		.byte	0x71
 10378 0b56 00       		.sleb128 0
 10379 0b57 73       		.byte	0x73
 10380 0b58 00       		.sleb128 0
 10381 0b59 21       		.byte	0x21
 10382 0b5a 9F       		.byte	0x9f
 10383 0b5b 0A000000 		.4byte	.LVL188
 10384 0b5f 0E000000 		.4byte	.LFE147
 10385 0b63 0700     		.2byte	0x7
 10386 0b65 F3       		.byte	0xf3
 10387 0b66 01       		.uleb128 0x1
 10388 0b67 51       		.byte	0x51
 10389 0b68 73       		.byte	0x73
 10390 0b69 00       		.sleb128 0
 10391 0b6a 21       		.byte	0x21
 10392 0b6b 9F       		.byte	0x9f
 10393 0b6c 00000000 		.4byte	0
 10394 0b70 00000000 		.4byte	0
 10395              	.LLST51:
 10396 0b74 00000000 		.4byte	.LVL189
 10397 0b78 0C000000 		.4byte	.LVL192
 10398 0b7c 0100     		.2byte	0x1
 10399 0b7e 51       		.byte	0x51
 10400 0b7f 0C000000 		.4byte	.LVL192
 10401 0b83 12000000 		.4byte	.LFE148
 10402 0b87 0400     		.2byte	0x4
 10403 0b89 F3       		.byte	0xf3
 10404 0b8a 01       		.uleb128 0x1
 10405 0b8b 51       		.byte	0x51
 10406 0b8c 9F       		.byte	0x9f
 10407 0b8d 00000000 		.4byte	0
 10408 0b91 00000000 		.4byte	0
 10409              	.LLST52:
 10410 0b95 00000000 		.4byte	.LVL189
 10411 0b99 02000000 		.4byte	.LVL190
 10412 0b9d 0200     		.2byte	0x2
 10413 0b9f 30       		.byte	0x30
 10414 0ba0 9F       		.byte	0x9f
ARM GAS  /tmp/cchgQdZS.s 			page 186


 10415 0ba1 02000000 		.4byte	.LVL190
 10416 0ba5 08000000 		.4byte	.LVL191
 10417 0ba9 0100     		.2byte	0x1
 10418 0bab 52       		.byte	0x52
 10419 0bac 08000000 		.4byte	.LVL191
 10420 0bb0 0C000000 		.4byte	.LVL192
 10421 0bb4 0800     		.2byte	0x8
 10422 0bb6 71       		.byte	0x71
 10423 0bb7 00       		.sleb128 0
 10424 0bb8 38       		.byte	0x38
 10425 0bb9 24       		.byte	0x24
 10426 0bba 73       		.byte	0x73
 10427 0bbb 00       		.sleb128 0
 10428 0bbc 21       		.byte	0x21
 10429 0bbd 9F       		.byte	0x9f
 10430 0bbe 0C000000 		.4byte	.LVL192
 10431 0bc2 0E000000 		.4byte	.LVL193
 10432 0bc6 0900     		.2byte	0x9
 10433 0bc8 F3       		.byte	0xf3
 10434 0bc9 01       		.uleb128 0x1
 10435 0bca 51       		.byte	0x51
 10436 0bcb 38       		.byte	0x38
 10437 0bcc 24       		.byte	0x24
 10438 0bcd 73       		.byte	0x73
 10439 0bce 00       		.sleb128 0
 10440 0bcf 21       		.byte	0x21
 10441 0bd0 9F       		.byte	0x9f
 10442 0bd1 0E000000 		.4byte	.LVL193
 10443 0bd5 12000000 		.4byte	.LFE148
 10444 0bd9 0D00     		.2byte	0xd
 10445 0bdb F3       		.byte	0xf3
 10446 0bdc 01       		.uleb128 0x1
 10447 0bdd 51       		.byte	0x51
 10448 0bde 38       		.byte	0x38
 10449 0bdf 24       		.byte	0x24
 10450 0be0 72       		.byte	0x72
 10451 0be1 00       		.sleb128 0
 10452 0be2 0A       		.byte	0xa
 10453 0be3 FFFB     		.2byte	0xfbff
 10454 0be5 1A       		.byte	0x1a
 10455 0be6 21       		.byte	0x21
 10456 0be7 9F       		.byte	0x9f
 10457 0be8 00000000 		.4byte	0
 10458 0bec 00000000 		.4byte	0
 10459              	.LLST53:
 10460 0bf0 00000000 		.4byte	.LVL194
 10461 0bf4 0A000000 		.4byte	.LVL197
 10462 0bf8 0100     		.2byte	0x1
 10463 0bfa 51       		.byte	0x51
 10464 0bfb 0A000000 		.4byte	.LVL197
 10465 0bff 0E000000 		.4byte	.LFE149
 10466 0c03 0400     		.2byte	0x4
 10467 0c05 F3       		.byte	0xf3
 10468 0c06 01       		.uleb128 0x1
 10469 0c07 51       		.byte	0x51
 10470 0c08 9F       		.byte	0x9f
 10471 0c09 00000000 		.4byte	0
ARM GAS  /tmp/cchgQdZS.s 			page 187


 10472 0c0d 00000000 		.4byte	0
 10473              	.LLST54:
 10474 0c11 00000000 		.4byte	.LVL194
 10475 0c15 02000000 		.4byte	.LVL195
 10476 0c19 0200     		.2byte	0x2
 10477 0c1b 30       		.byte	0x30
 10478 0c1c 9F       		.byte	0x9f
 10479 0c1d 02000000 		.4byte	.LVL195
 10480 0c21 08000000 		.4byte	.LVL196
 10481 0c25 0100     		.2byte	0x1
 10482 0c27 52       		.byte	0x52
 10483 0c28 08000000 		.4byte	.LVL196
 10484 0c2c 0A000000 		.4byte	.LVL197
 10485 0c30 0600     		.2byte	0x6
 10486 0c32 71       		.byte	0x71
 10487 0c33 00       		.sleb128 0
 10488 0c34 73       		.byte	0x73
 10489 0c35 00       		.sleb128 0
 10490 0c36 21       		.byte	0x21
 10491 0c37 9F       		.byte	0x9f
 10492 0c38 0A000000 		.4byte	.LVL197
 10493 0c3c 0E000000 		.4byte	.LFE149
 10494 0c40 0700     		.2byte	0x7
 10495 0c42 F3       		.byte	0xf3
 10496 0c43 01       		.uleb128 0x1
 10497 0c44 51       		.byte	0x51
 10498 0c45 73       		.byte	0x73
 10499 0c46 00       		.sleb128 0
 10500 0c47 21       		.byte	0x21
 10501 0c48 9F       		.byte	0x9f
 10502 0c49 00000000 		.4byte	0
 10503 0c4d 00000000 		.4byte	0
 10504              	.LLST55:
 10505 0c51 00000000 		.4byte	.LVL198
 10506 0c55 0A000000 		.4byte	.LVL201
 10507 0c59 0100     		.2byte	0x1
 10508 0c5b 51       		.byte	0x51
 10509 0c5c 0A000000 		.4byte	.LVL201
 10510 0c60 10000000 		.4byte	.LFE150
 10511 0c64 0400     		.2byte	0x4
 10512 0c66 F3       		.byte	0xf3
 10513 0c67 01       		.uleb128 0x1
 10514 0c68 51       		.byte	0x51
 10515 0c69 9F       		.byte	0x9f
 10516 0c6a 00000000 		.4byte	0
 10517 0c6e 00000000 		.4byte	0
 10518              	.LLST56:
 10519 0c72 00000000 		.4byte	.LVL198
 10520 0c76 02000000 		.4byte	.LVL199
 10521 0c7a 0200     		.2byte	0x2
 10522 0c7c 30       		.byte	0x30
 10523 0c7d 9F       		.byte	0x9f
 10524 0c7e 02000000 		.4byte	.LVL199
 10525 0c82 06000000 		.4byte	.LVL200
 10526 0c86 0100     		.2byte	0x1
 10527 0c88 53       		.byte	0x53
 10528 0c89 06000000 		.4byte	.LVL200
ARM GAS  /tmp/cchgQdZS.s 			page 188


 10529 0c8d 0A000000 		.4byte	.LVL201
 10530 0c91 0800     		.2byte	0x8
 10531 0c93 71       		.byte	0x71
 10532 0c94 00       		.sleb128 0
 10533 0c95 38       		.byte	0x38
 10534 0c96 24       		.byte	0x24
 10535 0c97 73       		.byte	0x73
 10536 0c98 00       		.sleb128 0
 10537 0c99 21       		.byte	0x21
 10538 0c9a 9F       		.byte	0x9f
 10539 0c9b 0A000000 		.4byte	.LVL201
 10540 0c9f 0C000000 		.4byte	.LVL202
 10541 0ca3 0900     		.2byte	0x9
 10542 0ca5 F3       		.byte	0xf3
 10543 0ca6 01       		.uleb128 0x1
 10544 0ca7 51       		.byte	0x51
 10545 0ca8 38       		.byte	0x38
 10546 0ca9 24       		.byte	0x24
 10547 0caa 73       		.byte	0x73
 10548 0cab 00       		.sleb128 0
 10549 0cac 21       		.byte	0x21
 10550 0cad 9F       		.byte	0x9f
 10551 0cae 00000000 		.4byte	0
 10552 0cb2 00000000 		.4byte	0
 10553              	.LLST57:
 10554 0cb6 00000000 		.4byte	.LVL203
 10555 0cba 0A000000 		.4byte	.LVL206
 10556 0cbe 0100     		.2byte	0x1
 10557 0cc0 51       		.byte	0x51
 10558 0cc1 0A000000 		.4byte	.LVL206
 10559 0cc5 0E000000 		.4byte	.LFE151
 10560 0cc9 0400     		.2byte	0x4
 10561 0ccb F3       		.byte	0xf3
 10562 0ccc 01       		.uleb128 0x1
 10563 0ccd 51       		.byte	0x51
 10564 0cce 9F       		.byte	0x9f
 10565 0ccf 00000000 		.4byte	0
 10566 0cd3 00000000 		.4byte	0
 10567              	.LLST58:
 10568 0cd7 00000000 		.4byte	.LVL203
 10569 0cdb 02000000 		.4byte	.LVL204
 10570 0cdf 0200     		.2byte	0x2
 10571 0ce1 30       		.byte	0x30
 10572 0ce2 9F       		.byte	0x9f
 10573 0ce3 02000000 		.4byte	.LVL204
 10574 0ce7 08000000 		.4byte	.LVL205
 10575 0ceb 0100     		.2byte	0x1
 10576 0ced 52       		.byte	0x52
 10577 0cee 08000000 		.4byte	.LVL205
 10578 0cf2 0A000000 		.4byte	.LVL206
 10579 0cf6 0600     		.2byte	0x6
 10580 0cf8 71       		.byte	0x71
 10581 0cf9 00       		.sleb128 0
 10582 0cfa 73       		.byte	0x73
 10583 0cfb 00       		.sleb128 0
 10584 0cfc 21       		.byte	0x21
 10585 0cfd 9F       		.byte	0x9f
ARM GAS  /tmp/cchgQdZS.s 			page 189


 10586 0cfe 0A000000 		.4byte	.LVL206
 10587 0d02 0E000000 		.4byte	.LFE151
 10588 0d06 0700     		.2byte	0x7
 10589 0d08 F3       		.byte	0xf3
 10590 0d09 01       		.uleb128 0x1
 10591 0d0a 51       		.byte	0x51
 10592 0d0b 73       		.byte	0x73
 10593 0d0c 00       		.sleb128 0
 10594 0d0d 21       		.byte	0x21
 10595 0d0e 9F       		.byte	0x9f
 10596 0d0f 00000000 		.4byte	0
 10597 0d13 00000000 		.4byte	0
 10598              	.LLST59:
 10599 0d17 00000000 		.4byte	.LVL207
 10600 0d1b 0A000000 		.4byte	.LVL210
 10601 0d1f 0100     		.2byte	0x1
 10602 0d21 51       		.byte	0x51
 10603 0d22 0A000000 		.4byte	.LVL210
 10604 0d26 10000000 		.4byte	.LFE152
 10605 0d2a 0400     		.2byte	0x4
 10606 0d2c F3       		.byte	0xf3
 10607 0d2d 01       		.uleb128 0x1
 10608 0d2e 51       		.byte	0x51
 10609 0d2f 9F       		.byte	0x9f
 10610 0d30 00000000 		.4byte	0
 10611 0d34 00000000 		.4byte	0
 10612              	.LLST60:
 10613 0d38 00000000 		.4byte	.LVL207
 10614 0d3c 02000000 		.4byte	.LVL208
 10615 0d40 0200     		.2byte	0x2
 10616 0d42 30       		.byte	0x30
 10617 0d43 9F       		.byte	0x9f
 10618 0d44 02000000 		.4byte	.LVL208
 10619 0d48 06000000 		.4byte	.LVL209
 10620 0d4c 0100     		.2byte	0x1
 10621 0d4e 53       		.byte	0x53
 10622 0d4f 06000000 		.4byte	.LVL209
 10623 0d53 0A000000 		.4byte	.LVL210
 10624 0d57 0800     		.2byte	0x8
 10625 0d59 71       		.byte	0x71
 10626 0d5a 00       		.sleb128 0
 10627 0d5b 38       		.byte	0x38
 10628 0d5c 24       		.byte	0x24
 10629 0d5d 73       		.byte	0x73
 10630 0d5e 00       		.sleb128 0
 10631 0d5f 21       		.byte	0x21
 10632 0d60 9F       		.byte	0x9f
 10633 0d61 0A000000 		.4byte	.LVL210
 10634 0d65 0C000000 		.4byte	.LVL211
 10635 0d69 0900     		.2byte	0x9
 10636 0d6b F3       		.byte	0xf3
 10637 0d6c 01       		.uleb128 0x1
 10638 0d6d 51       		.byte	0x51
 10639 0d6e 38       		.byte	0x38
 10640 0d6f 24       		.byte	0x24
 10641 0d70 73       		.byte	0x73
 10642 0d71 00       		.sleb128 0
ARM GAS  /tmp/cchgQdZS.s 			page 190


 10643 0d72 21       		.byte	0x21
 10644 0d73 9F       		.byte	0x9f
 10645 0d74 00000000 		.4byte	0
 10646 0d78 00000000 		.4byte	0
 10647              	.LLST61:
 10648 0d7c 00000000 		.4byte	.LVL212
 10649 0d80 0A000000 		.4byte	.LVL215
 10650 0d84 0100     		.2byte	0x1
 10651 0d86 51       		.byte	0x51
 10652 0d87 0A000000 		.4byte	.LVL215
 10653 0d8b 0E000000 		.4byte	.LFE153
 10654 0d8f 0400     		.2byte	0x4
 10655 0d91 F3       		.byte	0xf3
 10656 0d92 01       		.uleb128 0x1
 10657 0d93 51       		.byte	0x51
 10658 0d94 9F       		.byte	0x9f
 10659 0d95 00000000 		.4byte	0
 10660 0d99 00000000 		.4byte	0
 10661              	.LLST62:
 10662 0d9d 00000000 		.4byte	.LVL212
 10663 0da1 02000000 		.4byte	.LVL213
 10664 0da5 0200     		.2byte	0x2
 10665 0da7 30       		.byte	0x30
 10666 0da8 9F       		.byte	0x9f
 10667 0da9 02000000 		.4byte	.LVL213
 10668 0dad 08000000 		.4byte	.LVL214
 10669 0db1 0100     		.2byte	0x1
 10670 0db3 52       		.byte	0x52
 10671 0db4 08000000 		.4byte	.LVL214
 10672 0db8 0A000000 		.4byte	.LVL215
 10673 0dbc 0600     		.2byte	0x6
 10674 0dbe 71       		.byte	0x71
 10675 0dbf 00       		.sleb128 0
 10676 0dc0 73       		.byte	0x73
 10677 0dc1 00       		.sleb128 0
 10678 0dc2 21       		.byte	0x21
 10679 0dc3 9F       		.byte	0x9f
 10680 0dc4 0A000000 		.4byte	.LVL215
 10681 0dc8 0E000000 		.4byte	.LFE153
 10682 0dcc 0700     		.2byte	0x7
 10683 0dce F3       		.byte	0xf3
 10684 0dcf 01       		.uleb128 0x1
 10685 0dd0 51       		.byte	0x51
 10686 0dd1 73       		.byte	0x73
 10687 0dd2 00       		.sleb128 0
 10688 0dd3 21       		.byte	0x21
 10689 0dd4 9F       		.byte	0x9f
 10690 0dd5 00000000 		.4byte	0
 10691 0dd9 00000000 		.4byte	0
 10692              	.LLST63:
 10693 0ddd 00000000 		.4byte	.LVL216
 10694 0de1 0A000000 		.4byte	.LVL219
 10695 0de5 0100     		.2byte	0x1
 10696 0de7 51       		.byte	0x51
 10697 0de8 0A000000 		.4byte	.LVL219
 10698 0dec 0E000000 		.4byte	.LFE154
 10699 0df0 0400     		.2byte	0x4
ARM GAS  /tmp/cchgQdZS.s 			page 191


 10700 0df2 F3       		.byte	0xf3
 10701 0df3 01       		.uleb128 0x1
 10702 0df4 51       		.byte	0x51
 10703 0df5 9F       		.byte	0x9f
 10704 0df6 00000000 		.4byte	0
 10705 0dfa 00000000 		.4byte	0
 10706              	.LLST64:
 10707 0dfe 00000000 		.4byte	.LVL216
 10708 0e02 02000000 		.4byte	.LVL217
 10709 0e06 0200     		.2byte	0x2
 10710 0e08 30       		.byte	0x30
 10711 0e09 9F       		.byte	0x9f
 10712 0e0a 02000000 		.4byte	.LVL217
 10713 0e0e 08000000 		.4byte	.LVL218
 10714 0e12 0100     		.2byte	0x1
 10715 0e14 52       		.byte	0x52
 10716 0e15 08000000 		.4byte	.LVL218
 10717 0e19 0A000000 		.4byte	.LVL219
 10718 0e1d 0600     		.2byte	0x6
 10719 0e1f 71       		.byte	0x71
 10720 0e20 00       		.sleb128 0
 10721 0e21 73       		.byte	0x73
 10722 0e22 00       		.sleb128 0
 10723 0e23 21       		.byte	0x21
 10724 0e24 9F       		.byte	0x9f
 10725 0e25 0A000000 		.4byte	.LVL219
 10726 0e29 0E000000 		.4byte	.LFE154
 10727 0e2d 0700     		.2byte	0x7
 10728 0e2f F3       		.byte	0xf3
 10729 0e30 01       		.uleb128 0x1
 10730 0e31 51       		.byte	0x51
 10731 0e32 73       		.byte	0x73
 10732 0e33 00       		.sleb128 0
 10733 0e34 21       		.byte	0x21
 10734 0e35 9F       		.byte	0x9f
 10735 0e36 00000000 		.4byte	0
 10736 0e3a 00000000 		.4byte	0
 10737              	.LLST65:
 10738 0e3e 00000000 		.4byte	.LVL220
 10739 0e42 0C000000 		.4byte	.LVL223
 10740 0e46 0100     		.2byte	0x1
 10741 0e48 51       		.byte	0x51
 10742 0e49 0C000000 		.4byte	.LVL223
 10743 0e4d 12000000 		.4byte	.LFE155
 10744 0e51 0400     		.2byte	0x4
 10745 0e53 F3       		.byte	0xf3
 10746 0e54 01       		.uleb128 0x1
 10747 0e55 51       		.byte	0x51
 10748 0e56 9F       		.byte	0x9f
 10749 0e57 00000000 		.4byte	0
 10750 0e5b 00000000 		.4byte	0
 10751              	.LLST66:
 10752 0e5f 00000000 		.4byte	.LVL220
 10753 0e63 02000000 		.4byte	.LVL221
 10754 0e67 0200     		.2byte	0x2
 10755 0e69 30       		.byte	0x30
 10756 0e6a 9F       		.byte	0x9f
ARM GAS  /tmp/cchgQdZS.s 			page 192


 10757 0e6b 02000000 		.4byte	.LVL221
 10758 0e6f 08000000 		.4byte	.LVL222
 10759 0e73 0100     		.2byte	0x1
 10760 0e75 52       		.byte	0x52
 10761 0e76 08000000 		.4byte	.LVL222
 10762 0e7a 0C000000 		.4byte	.LVL223
 10763 0e7e 0800     		.2byte	0x8
 10764 0e80 71       		.byte	0x71
 10765 0e81 00       		.sleb128 0
 10766 0e82 34       		.byte	0x34
 10767 0e83 24       		.byte	0x24
 10768 0e84 73       		.byte	0x73
 10769 0e85 00       		.sleb128 0
 10770 0e86 21       		.byte	0x21
 10771 0e87 9F       		.byte	0x9f
 10772 0e88 0C000000 		.4byte	.LVL223
 10773 0e8c 0E000000 		.4byte	.LVL224
 10774 0e90 0900     		.2byte	0x9
 10775 0e92 F3       		.byte	0xf3
 10776 0e93 01       		.uleb128 0x1
 10777 0e94 51       		.byte	0x51
 10778 0e95 34       		.byte	0x34
 10779 0e96 24       		.byte	0x24
 10780 0e97 73       		.byte	0x73
 10781 0e98 00       		.sleb128 0
 10782 0e99 21       		.byte	0x21
 10783 0e9a 9F       		.byte	0x9f
 10784 0e9b 0E000000 		.4byte	.LVL224
 10785 0e9f 12000000 		.4byte	.LFE155
 10786 0ea3 0D00     		.2byte	0xd
 10787 0ea5 F3       		.byte	0xf3
 10788 0ea6 01       		.uleb128 0x1
 10789 0ea7 51       		.byte	0x51
 10790 0ea8 34       		.byte	0x34
 10791 0ea9 24       		.byte	0x24
 10792 0eaa 72       		.byte	0x72
 10793 0eab 00       		.sleb128 0
 10794 0eac 0A       		.byte	0xa
 10795 0ead DFFF     		.2byte	0xffdf
 10796 0eaf 1A       		.byte	0x1a
 10797 0eb0 21       		.byte	0x21
 10798 0eb1 9F       		.byte	0x9f
 10799 0eb2 00000000 		.4byte	0
 10800 0eb6 00000000 		.4byte	0
 10801              	.LLST67:
 10802 0eba 00000000 		.4byte	.LVL225
 10803 0ebe 0C000000 		.4byte	.LVL228
 10804 0ec2 0100     		.2byte	0x1
 10805 0ec4 51       		.byte	0x51
 10806 0ec5 0C000000 		.4byte	.LVL228
 10807 0ec9 12000000 		.4byte	.LFE156
 10808 0ecd 0400     		.2byte	0x4
 10809 0ecf F3       		.byte	0xf3
 10810 0ed0 01       		.uleb128 0x1
 10811 0ed1 51       		.byte	0x51
 10812 0ed2 9F       		.byte	0x9f
 10813 0ed3 00000000 		.4byte	0
ARM GAS  /tmp/cchgQdZS.s 			page 193


 10814 0ed7 00000000 		.4byte	0
 10815              	.LLST68:
 10816 0edb 00000000 		.4byte	.LVL225
 10817 0edf 02000000 		.4byte	.LVL226
 10818 0ee3 0200     		.2byte	0x2
 10819 0ee5 30       		.byte	0x30
 10820 0ee6 9F       		.byte	0x9f
 10821 0ee7 02000000 		.4byte	.LVL226
 10822 0eeb 08000000 		.4byte	.LVL227
 10823 0eef 0100     		.2byte	0x1
 10824 0ef1 52       		.byte	0x52
 10825 0ef2 08000000 		.4byte	.LVL227
 10826 0ef6 0C000000 		.4byte	.LVL228
 10827 0efa 0800     		.2byte	0x8
 10828 0efc 71       		.byte	0x71
 10829 0efd 00       		.sleb128 0
 10830 0efe 34       		.byte	0x34
 10831 0eff 24       		.byte	0x24
 10832 0f00 73       		.byte	0x73
 10833 0f01 00       		.sleb128 0
 10834 0f02 21       		.byte	0x21
 10835 0f03 9F       		.byte	0x9f
 10836 0f04 0C000000 		.4byte	.LVL228
 10837 0f08 0E000000 		.4byte	.LVL229
 10838 0f0c 0900     		.2byte	0x9
 10839 0f0e F3       		.byte	0xf3
 10840 0f0f 01       		.uleb128 0x1
 10841 0f10 51       		.byte	0x51
 10842 0f11 34       		.byte	0x34
 10843 0f12 24       		.byte	0x24
 10844 0f13 73       		.byte	0x73
 10845 0f14 00       		.sleb128 0
 10846 0f15 21       		.byte	0x21
 10847 0f16 9F       		.byte	0x9f
 10848 0f17 0E000000 		.4byte	.LVL229
 10849 0f1b 12000000 		.4byte	.LFE156
 10850 0f1f 0D00     		.2byte	0xd
 10851 0f21 F3       		.byte	0xf3
 10852 0f22 01       		.uleb128 0x1
 10853 0f23 51       		.byte	0x51
 10854 0f24 34       		.byte	0x34
 10855 0f25 24       		.byte	0x24
 10856 0f26 72       		.byte	0x72
 10857 0f27 00       		.sleb128 0
 10858 0f28 0A       		.byte	0xa
 10859 0f29 7FFF     		.2byte	0xff7f
 10860 0f2b 1A       		.byte	0x1a
 10861 0f2c 21       		.byte	0x21
 10862 0f2d 9F       		.byte	0x9f
 10863 0f2e 00000000 		.4byte	0
 10864 0f32 00000000 		.4byte	0
 10865              	.LLST69:
 10866 0f36 00000000 		.4byte	.LVL230
 10867 0f3a 0C000000 		.4byte	.LVL233
 10868 0f3e 0100     		.2byte	0x1
 10869 0f40 51       		.byte	0x51
 10870 0f41 0C000000 		.4byte	.LVL233
ARM GAS  /tmp/cchgQdZS.s 			page 194


 10871 0f45 12000000 		.4byte	.LFE157
 10872 0f49 0400     		.2byte	0x4
 10873 0f4b F3       		.byte	0xf3
 10874 0f4c 01       		.uleb128 0x1
 10875 0f4d 51       		.byte	0x51
 10876 0f4e 9F       		.byte	0x9f
 10877 0f4f 00000000 		.4byte	0
 10878 0f53 00000000 		.4byte	0
 10879              	.LLST70:
 10880 0f57 00000000 		.4byte	.LVL230
 10881 0f5b 02000000 		.4byte	.LVL231
 10882 0f5f 0200     		.2byte	0x2
 10883 0f61 30       		.byte	0x30
 10884 0f62 9F       		.byte	0x9f
 10885 0f63 02000000 		.4byte	.LVL231
 10886 0f67 08000000 		.4byte	.LVL232
 10887 0f6b 0100     		.2byte	0x1
 10888 0f6d 52       		.byte	0x52
 10889 0f6e 08000000 		.4byte	.LVL232
 10890 0f72 0C000000 		.4byte	.LVL233
 10891 0f76 0800     		.2byte	0x8
 10892 0f78 71       		.byte	0x71
 10893 0f79 00       		.sleb128 0
 10894 0f7a 38       		.byte	0x38
 10895 0f7b 24       		.byte	0x24
 10896 0f7c 73       		.byte	0x73
 10897 0f7d 00       		.sleb128 0
 10898 0f7e 21       		.byte	0x21
 10899 0f7f 9F       		.byte	0x9f
 10900 0f80 0C000000 		.4byte	.LVL233
 10901 0f84 0E000000 		.4byte	.LVL234
 10902 0f88 0900     		.2byte	0x9
 10903 0f8a F3       		.byte	0xf3
 10904 0f8b 01       		.uleb128 0x1
 10905 0f8c 51       		.byte	0x51
 10906 0f8d 38       		.byte	0x38
 10907 0f8e 24       		.byte	0x24
 10908 0f8f 73       		.byte	0x73
 10909 0f90 00       		.sleb128 0
 10910 0f91 21       		.byte	0x21
 10911 0f92 9F       		.byte	0x9f
 10912 0f93 0E000000 		.4byte	.LVL234
 10913 0f97 12000000 		.4byte	.LFE157
 10914 0f9b 0D00     		.2byte	0xd
 10915 0f9d F3       		.byte	0xf3
 10916 0f9e 01       		.uleb128 0x1
 10917 0f9f 51       		.byte	0x51
 10918 0fa0 38       		.byte	0x38
 10919 0fa1 24       		.byte	0x24
 10920 0fa2 72       		.byte	0x72
 10921 0fa3 00       		.sleb128 0
 10922 0fa4 0A       		.byte	0xa
 10923 0fa5 FFFD     		.2byte	0xfdff
 10924 0fa7 1A       		.byte	0x1a
 10925 0fa8 21       		.byte	0x21
 10926 0fa9 9F       		.byte	0x9f
 10927 0faa 00000000 		.4byte	0
ARM GAS  /tmp/cchgQdZS.s 			page 195


 10928 0fae 00000000 		.4byte	0
 10929              	.LLST71:
 10930 0fb2 00000000 		.4byte	.LVL235
 10931 0fb6 0C000000 		.4byte	.LVL238
 10932 0fba 0100     		.2byte	0x1
 10933 0fbc 51       		.byte	0x51
 10934 0fbd 0C000000 		.4byte	.LVL238
 10935 0fc1 12000000 		.4byte	.LFE158
 10936 0fc5 0400     		.2byte	0x4
 10937 0fc7 F3       		.byte	0xf3
 10938 0fc8 01       		.uleb128 0x1
 10939 0fc9 51       		.byte	0x51
 10940 0fca 9F       		.byte	0x9f
 10941 0fcb 00000000 		.4byte	0
 10942 0fcf 00000000 		.4byte	0
 10943              	.LLST72:
 10944 0fd3 00000000 		.4byte	.LVL235
 10945 0fd7 02000000 		.4byte	.LVL236
 10946 0fdb 0200     		.2byte	0x2
 10947 0fdd 30       		.byte	0x30
 10948 0fde 9F       		.byte	0x9f
 10949 0fdf 02000000 		.4byte	.LVL236
 10950 0fe3 08000000 		.4byte	.LVL237
 10951 0fe7 0100     		.2byte	0x1
 10952 0fe9 52       		.byte	0x52
 10953 0fea 08000000 		.4byte	.LVL237
 10954 0fee 0C000000 		.4byte	.LVL238
 10955 0ff2 0800     		.2byte	0x8
 10956 0ff4 71       		.byte	0x71
 10957 0ff5 00       		.sleb128 0
 10958 0ff6 38       		.byte	0x38
 10959 0ff7 24       		.byte	0x24
 10960 0ff8 73       		.byte	0x73
 10961 0ff9 00       		.sleb128 0
 10962 0ffa 21       		.byte	0x21
 10963 0ffb 9F       		.byte	0x9f
 10964 0ffc 0C000000 		.4byte	.LVL238
 10965 1000 0E000000 		.4byte	.LVL239
 10966 1004 0900     		.2byte	0x9
 10967 1006 F3       		.byte	0xf3
 10968 1007 01       		.uleb128 0x1
 10969 1008 51       		.byte	0x51
 10970 1009 38       		.byte	0x38
 10971 100a 24       		.byte	0x24
 10972 100b 73       		.byte	0x73
 10973 100c 00       		.sleb128 0
 10974 100d 21       		.byte	0x21
 10975 100e 9F       		.byte	0x9f
 10976 100f 0E000000 		.4byte	.LVL239
 10977 1013 12000000 		.4byte	.LFE158
 10978 1017 0D00     		.2byte	0xd
 10979 1019 F3       		.byte	0xf3
 10980 101a 01       		.uleb128 0x1
 10981 101b 51       		.byte	0x51
 10982 101c 38       		.byte	0x38
 10983 101d 24       		.byte	0x24
 10984 101e 72       		.byte	0x72
ARM GAS  /tmp/cchgQdZS.s 			page 196


 10985 101f 00       		.sleb128 0
 10986 1020 0A       		.byte	0xa
 10987 1021 FFF7     		.2byte	0xf7ff
 10988 1023 1A       		.byte	0x1a
 10989 1024 21       		.byte	0x21
 10990 1025 9F       		.byte	0x9f
 10991 1026 00000000 		.4byte	0
 10992 102a 00000000 		.4byte	0
 10993              	.LLST73:
 10994 102e 00000000 		.4byte	.LVL240
 10995 1032 0C000000 		.4byte	.LVL243
 10996 1036 0100     		.2byte	0x1
 10997 1038 51       		.byte	0x51
 10998 1039 0C000000 		.4byte	.LVL243
 10999 103d 12000000 		.4byte	.LFE159
 11000 1041 0400     		.2byte	0x4
 11001 1043 F3       		.byte	0xf3
 11002 1044 01       		.uleb128 0x1
 11003 1045 51       		.byte	0x51
 11004 1046 9F       		.byte	0x9f
 11005 1047 00000000 		.4byte	0
 11006 104b 00000000 		.4byte	0
 11007              	.LLST74:
 11008 104f 00000000 		.4byte	.LVL240
 11009 1053 02000000 		.4byte	.LVL241
 11010 1057 0200     		.2byte	0x2
 11011 1059 30       		.byte	0x30
 11012 105a 9F       		.byte	0x9f
 11013 105b 02000000 		.4byte	.LVL241
 11014 105f 08000000 		.4byte	.LVL242
 11015 1063 0100     		.2byte	0x1
 11016 1065 52       		.byte	0x52
 11017 1066 08000000 		.4byte	.LVL242
 11018 106a 0C000000 		.4byte	.LVL243
 11019 106e 0800     		.2byte	0x8
 11020 1070 71       		.byte	0x71
 11021 1071 00       		.sleb128 0
 11022 1072 3C       		.byte	0x3c
 11023 1073 24       		.byte	0x24
 11024 1074 73       		.byte	0x73
 11025 1075 00       		.sleb128 0
 11026 1076 21       		.byte	0x21
 11027 1077 9F       		.byte	0x9f
 11028 1078 0C000000 		.4byte	.LVL243
 11029 107c 0E000000 		.4byte	.LVL244
 11030 1080 0900     		.2byte	0x9
 11031 1082 F3       		.byte	0xf3
 11032 1083 01       		.uleb128 0x1
 11033 1084 51       		.byte	0x51
 11034 1085 3C       		.byte	0x3c
 11035 1086 24       		.byte	0x24
 11036 1087 73       		.byte	0x73
 11037 1088 00       		.sleb128 0
 11038 1089 21       		.byte	0x21
 11039 108a 9F       		.byte	0x9f
 11040 108b 0E000000 		.4byte	.LVL244
 11041 108f 12000000 		.4byte	.LFE159
ARM GAS  /tmp/cchgQdZS.s 			page 197


 11042 1093 0D00     		.2byte	0xd
 11043 1095 F3       		.byte	0xf3
 11044 1096 01       		.uleb128 0x1
 11045 1097 51       		.byte	0x51
 11046 1098 3C       		.byte	0x3c
 11047 1099 24       		.byte	0x24
 11048 109a 72       		.byte	0x72
 11049 109b 00       		.sleb128 0
 11050 109c 0A       		.byte	0xa
 11051 109d FFDF     		.2byte	0xdfff
 11052 109f 1A       		.byte	0x1a
 11053 10a0 21       		.byte	0x21
 11054 10a1 9F       		.byte	0x9f
 11055 10a2 00000000 		.4byte	0
 11056 10a6 00000000 		.4byte	0
 11057              	.LLST75:
 11058 10aa 00000000 		.4byte	.LVL245
 11059 10ae 1A000000 		.4byte	.LVL247
 11060 10b2 0100     		.2byte	0x1
 11061 10b4 51       		.byte	0x51
 11062 10b5 1A000000 		.4byte	.LVL247
 11063 10b9 20000000 		.4byte	.LFE160
 11064 10bd 0400     		.2byte	0x4
 11065 10bf F3       		.byte	0xf3
 11066 10c0 01       		.uleb128 0x1
 11067 10c1 51       		.byte	0x51
 11068 10c2 9F       		.byte	0x9f
 11069 10c3 00000000 		.4byte	0
 11070 10c7 00000000 		.4byte	0
 11071              	.LLST76:
 11072 10cb 00000000 		.4byte	.LVL245
 11073 10cf 18000000 		.4byte	.LVL246
 11074 10d3 0100     		.2byte	0x1
 11075 10d5 52       		.byte	0x52
 11076 10d6 18000000 		.4byte	.LVL246
 11077 10da 20000000 		.4byte	.LFE160
 11078 10de 0400     		.2byte	0x4
 11079 10e0 F3       		.byte	0xf3
 11080 10e1 01       		.uleb128 0x1
 11081 10e2 52       		.byte	0x52
 11082 10e3 9F       		.byte	0x9f
 11083 10e4 00000000 		.4byte	0
 11084 10e8 00000000 		.4byte	0
 11085              	.LLST77:
 11086 10ec 00000000 		.4byte	.LVL248
 11087 10f0 1A000000 		.4byte	.LVL250
 11088 10f4 0100     		.2byte	0x1
 11089 10f6 51       		.byte	0x51
 11090 10f7 1A000000 		.4byte	.LVL250
 11091 10fb 20000000 		.4byte	.LFE161
 11092 10ff 0400     		.2byte	0x4
 11093 1101 F3       		.byte	0xf3
 11094 1102 01       		.uleb128 0x1
 11095 1103 51       		.byte	0x51
 11096 1104 9F       		.byte	0x9f
 11097 1105 00000000 		.4byte	0
 11098 1109 00000000 		.4byte	0
ARM GAS  /tmp/cchgQdZS.s 			page 198


 11099              	.LLST78:
 11100 110d 00000000 		.4byte	.LVL248
 11101 1111 18000000 		.4byte	.LVL249
 11102 1115 0100     		.2byte	0x1
 11103 1117 52       		.byte	0x52
 11104 1118 18000000 		.4byte	.LVL249
 11105 111c 20000000 		.4byte	.LFE161
 11106 1120 0400     		.2byte	0x4
 11107 1122 F3       		.byte	0xf3
 11108 1123 01       		.uleb128 0x1
 11109 1124 52       		.byte	0x52
 11110 1125 9F       		.byte	0x9f
 11111 1126 00000000 		.4byte	0
 11112 112a 00000000 		.4byte	0
 11113              	.LLST79:
 11114 112e 00000000 		.4byte	.LVL251
 11115 1132 20000000 		.4byte	.LVL255
 11116 1136 0100     		.2byte	0x1
 11117 1138 51       		.byte	0x51
 11118 1139 20000000 		.4byte	.LVL255
 11119 113d 66000000 		.4byte	.LVL262
 11120 1141 0400     		.2byte	0x4
 11121 1143 F3       		.byte	0xf3
 11122 1144 01       		.uleb128 0x1
 11123 1145 51       		.byte	0x51
 11124 1146 9F       		.byte	0x9f
 11125 1147 66000000 		.4byte	.LVL262
 11126 114b 76000000 		.4byte	.LVL264
 11127 114f 0100     		.2byte	0x1
 11128 1151 51       		.byte	0x51
 11129 1152 76000000 		.4byte	.LVL264
 11130 1156 B0000000 		.4byte	.LVL273
 11131 115a 0400     		.2byte	0x4
 11132 115c F3       		.byte	0xf3
 11133 115d 01       		.uleb128 0x1
 11134 115e 51       		.byte	0x51
 11135 115f 9F       		.byte	0x9f
 11136 1160 B0000000 		.4byte	.LVL273
 11137 1164 BA000000 		.4byte	.LVL275
 11138 1168 0100     		.2byte	0x1
 11139 116a 51       		.byte	0x51
 11140 116b BA000000 		.4byte	.LVL275
 11141 116f 02010000 		.4byte	.LVL283
 11142 1173 0400     		.2byte	0x4
 11143 1175 F3       		.byte	0xf3
 11144 1176 01       		.uleb128 0x1
 11145 1177 51       		.byte	0x51
 11146 1178 9F       		.byte	0x9f
 11147 1179 02010000 		.4byte	.LVL283
 11148 117d 12010000 		.4byte	.LVL285
 11149 1181 0100     		.2byte	0x1
 11150 1183 51       		.byte	0x51
 11151 1184 12010000 		.4byte	.LVL285
 11152 1188 4E010000 		.4byte	.LFE162
 11153 118c 0400     		.2byte	0x4
 11154 118e F3       		.byte	0xf3
 11155 118f 01       		.uleb128 0x1
ARM GAS  /tmp/cchgQdZS.s 			page 199


 11156 1190 51       		.byte	0x51
 11157 1191 9F       		.byte	0x9f
 11158 1192 00000000 		.4byte	0
 11159 1196 00000000 		.4byte	0
 11160              	.LLST80:
 11161 119a 1A000000 		.4byte	.LVL254
 11162 119e 20000000 		.4byte	.LVL255
 11163 11a2 0200     		.2byte	0x2
 11164 11a4 71       		.byte	0x71
 11165 11a5 08       		.sleb128 8
 11166 11a6 20000000 		.4byte	.LVL255
 11167 11aa 3E000000 		.4byte	.LVL258
 11168 11ae 0100     		.2byte	0x1
 11169 11b0 53       		.byte	0x53
 11170 11b1 3E000000 		.4byte	.LVL258
 11171 11b5 62000000 		.4byte	.LVL261
 11172 11b9 0500     		.2byte	0x5
 11173 11bb F3       		.byte	0xf3
 11174 11bc 01       		.uleb128 0x1
 11175 11bd 51       		.byte	0x51
 11176 11be 23       		.byte	0x23
 11177 11bf 08       		.uleb128 0x8
 11178 11c0 00000000 		.4byte	0
 11179 11c4 00000000 		.4byte	0
 11180              	.LLST81:
 11181 11c8 1A000000 		.4byte	.LVL254
 11182 11cc 20000000 		.4byte	.LVL255
 11183 11d0 0200     		.2byte	0x2
 11184 11d2 71       		.byte	0x71
 11185 11d3 04       		.sleb128 4
 11186 11d4 20000000 		.4byte	.LVL255
 11187 11d8 62000000 		.4byte	.LVL261
 11188 11dc 0100     		.2byte	0x1
 11189 11de 5C       		.byte	0x5c
 11190 11df 00000000 		.4byte	0
 11191 11e3 00000000 		.4byte	0
 11192              	.LLST82:
 11193 11e7 16000000 		.4byte	.LVL253
 11194 11eb 20000000 		.4byte	.LVL255
 11195 11ef 0200     		.2byte	0x2
 11196 11f1 71       		.byte	0x71
 11197 11f2 02       		.sleb128 2
 11198 11f3 20000000 		.4byte	.LVL255
 11199 11f7 62000000 		.4byte	.LVL261
 11200 11fb 0100     		.2byte	0x1
 11201 11fd 56       		.byte	0x56
 11202 11fe 00000000 		.4byte	0
 11203 1202 00000000 		.4byte	0
 11204              	.LLST83:
 11205 1206 14000000 		.4byte	.LVL252
 11206 120a 62000000 		.4byte	.LVL261
 11207 120e 0100     		.2byte	0x1
 11208 1210 50       		.byte	0x50
 11209 1211 00000000 		.4byte	0
 11210 1215 00000000 		.4byte	0
 11211              	.LLST84:
 11212 1219 1A000000 		.4byte	.LVL254
ARM GAS  /tmp/cchgQdZS.s 			page 200


 11213 121d 26000000 		.4byte	.LVL256
 11214 1221 0200     		.2byte	0x2
 11215 1223 30       		.byte	0x30
 11216 1224 9F       		.byte	0x9f
 11217 1225 26000000 		.4byte	.LVL256
 11218 1229 42000000 		.4byte	.LVL259
 11219 122d 0100     		.2byte	0x1
 11220 122f 55       		.byte	0x55
 11221 1230 42000000 		.4byte	.LVL259
 11222 1234 48000000 		.4byte	.LVL260
 11223 1238 0600     		.2byte	0x6
 11224 123a 71       		.byte	0x71
 11225 123b 00       		.sleb128 0
 11226 123c 73       		.byte	0x73
 11227 123d 00       		.sleb128 0
 11228 123e 21       		.byte	0x21
 11229 123f 9F       		.byte	0x9f
 11230 1240 48000000 		.4byte	.LVL260
 11231 1244 62000000 		.4byte	.LVL261
 11232 1248 0A00     		.2byte	0xa
 11233 124a 75       		.byte	0x75
 11234 124b 00       		.sleb128 0
 11235 124c 0A       		.byte	0xa
 11236 124d FF0C     		.2byte	0xcff
 11237 124f 1A       		.byte	0x1a
 11238 1250 71       		.byte	0x71
 11239 1251 00       		.sleb128 0
 11240 1252 21       		.byte	0x21
 11241 1253 9F       		.byte	0x9f
 11242 1254 00000000 		.4byte	0
 11243 1258 00000000 		.4byte	0
 11244              	.LLST85:
 11245 125c 1A000000 		.4byte	.LVL254
 11246 1260 28000000 		.4byte	.LVL257
 11247 1264 0200     		.2byte	0x2
 11248 1266 30       		.byte	0x30
 11249 1267 9F       		.byte	0x9f
 11250 1268 28000000 		.4byte	.LVL257
 11251 126c 42000000 		.4byte	.LVL259
 11252 1270 0100     		.2byte	0x1
 11253 1272 57       		.byte	0x57
 11254 1273 00000000 		.4byte	0
 11255 1277 00000000 		.4byte	0
 11256              	.LLST86:
 11257 127b 1A000000 		.4byte	.LVL254
 11258 127f 28000000 		.4byte	.LVL257
 11259 1283 0200     		.2byte	0x2
 11260 1285 30       		.byte	0x30
 11261 1286 9F       		.byte	0x9f
 11262 1287 28000000 		.4byte	.LVL257
 11263 128b 62000000 		.4byte	.LVL261
 11264 128f 0500     		.2byte	0x5
 11265 1291 76       		.byte	0x76
 11266 1292 00       		.sleb128 0
 11267 1293 3C       		.byte	0x3c
 11268 1294 24       		.byte	0x24
 11269 1295 9F       		.byte	0x9f
ARM GAS  /tmp/cchgQdZS.s 			page 201


 11270 1296 00000000 		.4byte	0
 11271 129a 00000000 		.4byte	0
 11272              	.LLST87:
 11273 129e 42000000 		.4byte	.LVL259
 11274 12a2 62000000 		.4byte	.LVL261
 11275 12a6 0100     		.2byte	0x1
 11276 12a8 54       		.byte	0x54
 11277 12a9 00000000 		.4byte	0
 11278 12ad 00000000 		.4byte	0
 11279              	.LLST88:
 11280 12b1 42000000 		.4byte	.LVL259
 11281 12b5 62000000 		.4byte	.LVL261
 11282 12b9 0100     		.2byte	0x1
 11283 12bb 50       		.byte	0x50
 11284 12bc 00000000 		.4byte	0
 11285 12c0 00000000 		.4byte	0
 11286              	.LLST89:
 11287 12c4 72000000 		.4byte	.LVL263
 11288 12c8 76000000 		.4byte	.LVL264
 11289 12cc 0200     		.2byte	0x2
 11290 12ce 71       		.byte	0x71
 11291 12cf 08       		.sleb128 8
 11292 12d0 76000000 		.4byte	.LVL264
 11293 12d4 B0000000 		.4byte	.LVL273
 11294 12d8 0100     		.2byte	0x1
 11295 12da 5C       		.byte	0x5c
 11296 12db 00000000 		.4byte	0
 11297 12df 00000000 		.4byte	0
 11298              	.LLST90:
 11299 12e3 72000000 		.4byte	.LVL263
 11300 12e7 76000000 		.4byte	.LVL264
 11301 12eb 0200     		.2byte	0x2
 11302 12ed 71       		.byte	0x71
 11303 12ee 04       		.sleb128 4
 11304 12ef 76000000 		.4byte	.LVL264
 11305 12f3 86000000 		.4byte	.LVL267
 11306 12f7 0100     		.2byte	0x1
 11307 12f9 56       		.byte	0x56
 11308 12fa 86000000 		.4byte	.LVL267
 11309 12fe B0000000 		.4byte	.LVL273
 11310 1302 0500     		.2byte	0x5
 11311 1304 F3       		.byte	0xf3
 11312 1305 01       		.uleb128 0x1
 11313 1306 51       		.byte	0x51
 11314 1307 23       		.byte	0x23
 11315 1308 04       		.uleb128 0x4
 11316 1309 00000000 		.4byte	0
 11317 130d 00000000 		.4byte	0
 11318              	.LLST91:
 11319 1311 72000000 		.4byte	.LVL263
 11320 1315 76000000 		.4byte	.LVL264
 11321 1319 0200     		.2byte	0x2
 11322 131b 71       		.byte	0x71
 11323 131c 02       		.sleb128 2
 11324 131d 76000000 		.4byte	.LVL264
 11325 1321 AE000000 		.4byte	.LVL272
 11326 1325 0100     		.2byte	0x1
ARM GAS  /tmp/cchgQdZS.s 			page 202


 11327 1327 57       		.byte	0x57
 11328 1328 AE000000 		.4byte	.LVL272
 11329 132c B0000000 		.4byte	.LVL273
 11330 1330 0500     		.2byte	0x5
 11331 1332 F3       		.byte	0xf3
 11332 1333 01       		.uleb128 0x1
 11333 1334 51       		.byte	0x51
 11334 1335 23       		.byte	0x23
 11335 1336 02       		.uleb128 0x2
 11336 1337 00000000 		.4byte	0
 11337 133b 00000000 		.4byte	0
 11338              	.LLST92:
 11339 133f 72000000 		.4byte	.LVL263
 11340 1343 B0000000 		.4byte	.LVL273
 11341 1347 0100     		.2byte	0x1
 11342 1349 50       		.byte	0x50
 11343 134a 00000000 		.4byte	0
 11344 134e 00000000 		.4byte	0
 11345              	.LLST93:
 11346 1352 72000000 		.4byte	.LVL263
 11347 1356 7C000000 		.4byte	.LVL265
 11348 135a 0200     		.2byte	0x2
 11349 135c 30       		.byte	0x30
 11350 135d 9F       		.byte	0x9f
 11351 135e 7C000000 		.4byte	.LVL265
 11352 1362 88000000 		.4byte	.LVL268
 11353 1366 0100     		.2byte	0x1
 11354 1368 53       		.byte	0x53
 11355 1369 88000000 		.4byte	.LVL268
 11356 136d 92000000 		.4byte	.LVL269
 11357 1371 1000     		.2byte	0x10
 11358 1373 7C       		.byte	0x7c
 11359 1374 00       		.sleb128 0
 11360 1375 34       		.byte	0x34
 11361 1376 24       		.byte	0x24
 11362 1377 F3       		.byte	0xf3
 11363 1378 01       		.uleb128 0x1
 11364 1379 51       		.byte	0x51
 11365 137a 23       		.byte	0x23
 11366 137b 04       		.uleb128 0x4
 11367 137c 94       		.byte	0x94
 11368 137d 02       		.byte	0x2
 11369 137e 21       		.byte	0x21
 11370 137f 72       		.byte	0x72
 11371 1380 00       		.sleb128 0
 11372 1381 21       		.byte	0x21
 11373 1382 9F       		.byte	0x9f
 11374 1383 00000000 		.4byte	0
 11375 1387 00000000 		.4byte	0
 11376              	.LLST94:
 11377 138b 72000000 		.4byte	.LVL263
 11378 138f 7E000000 		.4byte	.LVL266
 11379 1393 0200     		.2byte	0x2
 11380 1395 30       		.byte	0x30
 11381 1396 9F       		.byte	0x9f
 11382 1397 7E000000 		.4byte	.LVL266
 11383 139b 94000000 		.4byte	.LVL270
ARM GAS  /tmp/cchgQdZS.s 			page 203


 11384 139f 0100     		.2byte	0x1
 11385 13a1 55       		.byte	0x55
 11386 13a2 94000000 		.4byte	.LVL270
 11387 13a6 98000000 		.4byte	.LVL271
 11388 13aa 0800     		.2byte	0x8
 11389 13ac 77       		.byte	0x77
 11390 13ad 00       		.sleb128 0
 11391 13ae 73       		.byte	0x73
 11392 13af 00       		.sleb128 0
 11393 13b0 21       		.byte	0x21
 11394 13b1 31       		.byte	0x31
 11395 13b2 21       		.byte	0x21
 11396 13b3 9F       		.byte	0x9f
 11397 13b4 98000000 		.4byte	.LVL271
 11398 13b8 AE000000 		.4byte	.LVL272
 11399 13bc 0C00     		.2byte	0xc
 11400 13be 75       		.byte	0x75
 11401 13bf 00       		.sleb128 0
 11402 13c0 0A       		.byte	0xa
 11403 13c1 F5FF     		.2byte	0xfff5
 11404 13c3 1A       		.byte	0x1a
 11405 13c4 77       		.byte	0x77
 11406 13c5 00       		.sleb128 0
 11407 13c6 21       		.byte	0x21
 11408 13c7 31       		.byte	0x31
 11409 13c8 21       		.byte	0x21
 11410 13c9 9F       		.byte	0x9f
 11411 13ca 00000000 		.4byte	0
 11412 13ce 00000000 		.4byte	0
 11413              	.LLST95:
 11414 13d2 94000000 		.4byte	.LVL270
 11415 13d6 AE000000 		.4byte	.LVL272
 11416 13da 0100     		.2byte	0x1
 11417 13dc 54       		.byte	0x54
 11418 13dd AE000000 		.4byte	.LVL272
 11419 13e1 B0000000 		.4byte	.LVL273
 11420 13e5 0500     		.2byte	0x5
 11421 13e7 F3       		.byte	0xf3
 11422 13e8 01       		.uleb128 0x1
 11423 13e9 51       		.byte	0x51
 11424 13ea 23       		.byte	0x23
 11425 13eb 06       		.uleb128 0x6
 11426 13ec 00000000 		.4byte	0
 11427 13f0 00000000 		.4byte	0
 11428              	.LLST96:
 11429 13f4 94000000 		.4byte	.LVL270
 11430 13f8 B0000000 		.4byte	.LVL273
 11431 13fc 0100     		.2byte	0x1
 11432 13fe 50       		.byte	0x50
 11433 13ff 00000000 		.4byte	0
 11434 1403 00000000 		.4byte	0
 11435              	.LLST97:
 11436 1407 B8000000 		.4byte	.LVL274
 11437 140b BA000000 		.4byte	.LVL275
 11438 140f 0200     		.2byte	0x2
 11439 1411 71       		.byte	0x71
 11440 1412 08       		.sleb128 8
ARM GAS  /tmp/cchgQdZS.s 			page 204


 11441 1413 BA000000 		.4byte	.LVL275
 11442 1417 CE000000 		.4byte	.LVL278
 11443 141b 0100     		.2byte	0x1
 11444 141d 54       		.byte	0x54
 11445 141e CE000000 		.4byte	.LVL278
 11446 1422 02010000 		.4byte	.LVL283
 11447 1426 0500     		.2byte	0x5
 11448 1428 F3       		.byte	0xf3
 11449 1429 01       		.uleb128 0x1
 11450 142a 51       		.byte	0x51
 11451 142b 23       		.byte	0x23
 11452 142c 08       		.uleb128 0x8
 11453 142d 00000000 		.4byte	0
 11454 1431 00000000 		.4byte	0
 11455              	.LLST98:
 11456 1435 B8000000 		.4byte	.LVL274
 11457 1439 BA000000 		.4byte	.LVL275
 11458 143d 0200     		.2byte	0x2
 11459 143f 71       		.byte	0x71
 11460 1440 04       		.sleb128 4
 11461 1441 BA000000 		.4byte	.LVL275
 11462 1445 00010000 		.4byte	.LVL282
 11463 1449 0100     		.2byte	0x1
 11464 144b 57       		.byte	0x57
 11465 144c 00010000 		.4byte	.LVL282
 11466 1450 02010000 		.4byte	.LVL283
 11467 1454 0500     		.2byte	0x5
 11468 1456 F3       		.byte	0xf3
 11469 1457 01       		.uleb128 0x1
 11470 1458 51       		.byte	0x51
 11471 1459 23       		.byte	0x23
 11472 145a 04       		.uleb128 0x4
 11473 145b 00000000 		.4byte	0
 11474 145f 00000000 		.4byte	0
 11475              	.LLST99:
 11476 1463 B8000000 		.4byte	.LVL274
 11477 1467 BA000000 		.4byte	.LVL275
 11478 146b 0200     		.2byte	0x2
 11479 146d 71       		.byte	0x71
 11480 146e 02       		.sleb128 2
 11481 146f BA000000 		.4byte	.LVL275
 11482 1473 00010000 		.4byte	.LVL282
 11483 1477 0100     		.2byte	0x1
 11484 1479 56       		.byte	0x56
 11485 147a 00010000 		.4byte	.LVL282
 11486 147e 02010000 		.4byte	.LVL283
 11487 1482 0500     		.2byte	0x5
 11488 1484 F3       		.byte	0xf3
 11489 1485 01       		.uleb128 0x1
 11490 1486 51       		.byte	0x51
 11491 1487 23       		.byte	0x23
 11492 1488 02       		.uleb128 0x2
 11493 1489 00000000 		.4byte	0
 11494 148d 00000000 		.4byte	0
 11495              	.LLST100:
 11496 1491 B8000000 		.4byte	.LVL274
 11497 1495 02010000 		.4byte	.LVL283
ARM GAS  /tmp/cchgQdZS.s 			page 205


 11498 1499 0100     		.2byte	0x1
 11499 149b 50       		.byte	0x50
 11500 149c 00000000 		.4byte	0
 11501 14a0 00000000 		.4byte	0
 11502              	.LLST101:
 11503 14a4 B8000000 		.4byte	.LVL274
 11504 14a8 C4000000 		.4byte	.LVL276
 11505 14ac 0200     		.2byte	0x2
 11506 14ae 30       		.byte	0x30
 11507 14af 9F       		.byte	0x9f
 11508 14b0 C4000000 		.4byte	.LVL276
 11509 14b4 DE000000 		.4byte	.LVL280
 11510 14b8 0100     		.2byte	0x1
 11511 14ba 55       		.byte	0x55
 11512 14bb DE000000 		.4byte	.LVL280
 11513 14bf E4000000 		.4byte	.LVL281
 11514 14c3 0600     		.2byte	0x6
 11515 14c5 74       		.byte	0x74
 11516 14c6 00       		.sleb128 0
 11517 14c7 73       		.byte	0x73
 11518 14c8 00       		.sleb128 0
 11519 14c9 21       		.byte	0x21
 11520 14ca 9F       		.byte	0x9f
 11521 14cb E4000000 		.4byte	.LVL281
 11522 14cf 00010000 		.4byte	.LVL282
 11523 14d3 0A00     		.2byte	0xa
 11524 14d5 75       		.byte	0x75
 11525 14d6 00       		.sleb128 0
 11526 14d7 0A       		.byte	0xa
 11527 14d8 FF0C     		.2byte	0xcff
 11528 14da 1A       		.byte	0x1a
 11529 14db 74       		.byte	0x74
 11530 14dc 00       		.sleb128 0
 11531 14dd 21       		.byte	0x21
 11532 14de 9F       		.byte	0x9f
 11533 14df 00000000 		.4byte	0
 11534 14e3 00000000 		.4byte	0
 11535              	.LLST102:
 11536 14e7 B8000000 		.4byte	.LVL274
 11537 14eb C6000000 		.4byte	.LVL277
 11538 14ef 0200     		.2byte	0x2
 11539 14f1 30       		.byte	0x30
 11540 14f2 9F       		.byte	0x9f
 11541 14f3 C6000000 		.4byte	.LVL277
 11542 14f7 DA000000 		.4byte	.LVL279
 11543 14fb 0100     		.2byte	0x1
 11544 14fd 53       		.byte	0x53
 11545 14fe 00000000 		.4byte	0
 11546 1502 00000000 		.4byte	0
 11547              	.LLST103:
 11548 1506 B8000000 		.4byte	.LVL274
 11549 150a C6000000 		.4byte	.LVL277
 11550 150e 0200     		.2byte	0x2
 11551 1510 30       		.byte	0x30
 11552 1511 9F       		.byte	0x9f
 11553 1512 C6000000 		.4byte	.LVL277
 11554 1516 00010000 		.4byte	.LVL282
ARM GAS  /tmp/cchgQdZS.s 			page 206


 11555 151a 0500     		.2byte	0x5
 11556 151c 76       		.byte	0x76
 11557 151d 00       		.sleb128 0
 11558 151e 34       		.byte	0x34
 11559 151f 24       		.byte	0x24
 11560 1520 9F       		.byte	0x9f
 11561 1521 00010000 		.4byte	.LVL282
 11562 1525 02010000 		.4byte	.LVL283
 11563 1529 0A00     		.2byte	0xa
 11564 152b F3       		.byte	0xf3
 11565 152c 01       		.uleb128 0x1
 11566 152d 51       		.byte	0x51
 11567 152e 23       		.byte	0x23
 11568 152f 02       		.uleb128 0x2
 11569 1530 94       		.byte	0x94
 11570 1531 02       		.byte	0x2
 11571 1532 34       		.byte	0x34
 11572 1533 24       		.byte	0x24
 11573 1534 9F       		.byte	0x9f
 11574 1535 00000000 		.4byte	0
 11575 1539 00000000 		.4byte	0
 11576              	.LLST104:
 11577 153d DE000000 		.4byte	.LVL280
 11578 1541 02010000 		.4byte	.LVL283
 11579 1545 0100     		.2byte	0x1
 11580 1547 51       		.byte	0x51
 11581 1548 00000000 		.4byte	0
 11582 154c 00000000 		.4byte	0
 11583              	.LLST105:
 11584 1550 DE000000 		.4byte	.LVL280
 11585 1554 02010000 		.4byte	.LVL283
 11586 1558 0100     		.2byte	0x1
 11587 155a 50       		.byte	0x50
 11588 155b 00000000 		.4byte	0
 11589 155f 00000000 		.4byte	0
 11590              	.LLST106:
 11591 1563 0C010000 		.4byte	.LVL284
 11592 1567 12010000 		.4byte	.LVL285
 11593 156b 0200     		.2byte	0x2
 11594 156d 71       		.byte	0x71
 11595 156e 08       		.sleb128 8
 11596 156f 12010000 		.4byte	.LVL285
 11597 1573 4E010000 		.4byte	.LFE162
 11598 1577 0100     		.2byte	0x1
 11599 1579 5C       		.byte	0x5c
 11600 157a 00000000 		.4byte	0
 11601 157e 00000000 		.4byte	0
 11602              	.LLST107:
 11603 1582 0C010000 		.4byte	.LVL284
 11604 1586 12010000 		.4byte	.LVL285
 11605 158a 0200     		.2byte	0x2
 11606 158c 71       		.byte	0x71
 11607 158d 04       		.sleb128 4
 11608 158e 12010000 		.4byte	.LVL285
 11609 1592 4E010000 		.4byte	.LFE162
 11610 1596 0100     		.2byte	0x1
 11611 1598 57       		.byte	0x57
ARM GAS  /tmp/cchgQdZS.s 			page 207


 11612 1599 00000000 		.4byte	0
 11613 159d 00000000 		.4byte	0
 11614              	.LLST108:
 11615 15a1 0C010000 		.4byte	.LVL284
 11616 15a5 12010000 		.4byte	.LVL285
 11617 15a9 0200     		.2byte	0x2
 11618 15ab 71       		.byte	0x71
 11619 15ac 02       		.sleb128 2
 11620 15ad 12010000 		.4byte	.LVL285
 11621 15b1 4E010000 		.4byte	.LFE162
 11622 15b5 0100     		.2byte	0x1
 11623 15b7 55       		.byte	0x55
 11624 15b8 00000000 		.4byte	0
 11625 15bc 00000000 		.4byte	0
 11626              	.LLST109:
 11627 15c0 0C010000 		.4byte	.LVL284
 11628 15c4 18010000 		.4byte	.LVL286
 11629 15c8 0200     		.2byte	0x2
 11630 15ca 30       		.byte	0x30
 11631 15cb 9F       		.byte	0x9f
 11632 15cc 18010000 		.4byte	.LVL286
 11633 15d0 2A010000 		.4byte	.LVL289
 11634 15d4 0100     		.2byte	0x1
 11635 15d6 56       		.byte	0x56
 11636 15d7 2A010000 		.4byte	.LVL289
 11637 15db 30010000 		.4byte	.LVL291
 11638 15df 0B00     		.2byte	0xb
 11639 15e1 7C       		.byte	0x7c
 11640 15e2 00       		.sleb128 0
 11641 15e3 34       		.byte	0x34
 11642 15e4 24       		.byte	0x24
 11643 15e5 77       		.byte	0x77
 11644 15e6 00       		.sleb128 0
 11645 15e7 21       		.byte	0x21
 11646 15e8 73       		.byte	0x73
 11647 15e9 00       		.sleb128 0
 11648 15ea 21       		.byte	0x21
 11649 15eb 9F       		.byte	0x9f
 11650 15ec 30010000 		.4byte	.LVL291
 11651 15f0 4E010000 		.4byte	.LFE162
 11652 15f4 0F00     		.2byte	0xf
 11653 15f6 7C       		.byte	0x7c
 11654 15f7 00       		.sleb128 0
 11655 15f8 34       		.byte	0x34
 11656 15f9 24       		.byte	0x24
 11657 15fa 76       		.byte	0x76
 11658 15fb 00       		.sleb128 0
 11659 15fc 0A       		.byte	0xa
 11660 15fd 0CFF     		.2byte	0xff0c
 11661 15ff 1A       		.byte	0x1a
 11662 1600 21       		.byte	0x21
 11663 1601 77       		.byte	0x77
 11664 1602 00       		.sleb128 0
 11665 1603 21       		.byte	0x21
 11666 1604 9F       		.byte	0x9f
 11667 1605 00000000 		.4byte	0
 11668 1609 00000000 		.4byte	0
ARM GAS  /tmp/cchgQdZS.s 			page 208


 11669              	.LLST110:
 11670 160d 0C010000 		.4byte	.LVL284
 11671 1611 1A010000 		.4byte	.LVL287
 11672 1615 0200     		.2byte	0x2
 11673 1617 30       		.byte	0x30
 11674 1618 9F       		.byte	0x9f
 11675 1619 1A010000 		.4byte	.LVL287
 11676 161d 28010000 		.4byte	.LVL288
 11677 1621 0100     		.2byte	0x1
 11678 1623 51       		.byte	0x51
 11679 1624 2A010000 		.4byte	.LVL289
 11680 1628 2E010000 		.4byte	.LVL290
 11681 162c 0C00     		.2byte	0xc
 11682 162e 75       		.byte	0x75
 11683 162f 00       		.sleb128 0
 11684 1630 38       		.byte	0x38
 11685 1631 24       		.byte	0x24
 11686 1632 72       		.byte	0x72
 11687 1633 00       		.sleb128 0
 11688 1634 21       		.byte	0x21
 11689 1635 0A       		.byte	0xa
 11690 1636 0001     		.2byte	0x100
 11691 1638 21       		.byte	0x21
 11692 1639 9F       		.byte	0x9f
 11693 163a 00000000 		.4byte	0
 11694 163e 00000000 		.4byte	0
 11695              	.LLST111:
 11696 1642 0C010000 		.4byte	.LVL284
 11697 1646 1A010000 		.4byte	.LVL287
 11698 164a 0200     		.2byte	0x2
 11699 164c 30       		.byte	0x30
 11700 164d 9F       		.byte	0x9f
 11701 164e 1A010000 		.4byte	.LVL287
 11702 1652 4E010000 		.4byte	.LFE162
 11703 1656 0500     		.2byte	0x5
 11704 1658 75       		.byte	0x75
 11705 1659 00       		.sleb128 0
 11706 165a 38       		.byte	0x38
 11707 165b 24       		.byte	0x24
 11708 165c 9F       		.byte	0x9f
 11709 165d 00000000 		.4byte	0
 11710 1661 00000000 		.4byte	0
 11711              	.LLST112:
 11712 1665 00000000 		.4byte	.LVL293
 11713 1669 2A000000 		.4byte	.LVL297
 11714 166d 0100     		.2byte	0x1
 11715 166f 51       		.byte	0x51
 11716 1670 2A000000 		.4byte	.LVL297
 11717 1674 B6000000 		.4byte	.LVL320
 11718 1678 0400     		.2byte	0x4
 11719 167a F3       		.byte	0xf3
 11720 167b 01       		.uleb128 0x1
 11721 167c 51       		.byte	0x51
 11722 167d 9F       		.byte	0x9f
 11723 167e B6000000 		.4byte	.LVL320
 11724 1682 C2000000 		.4byte	.LVL322
 11725 1686 0100     		.2byte	0x1
ARM GAS  /tmp/cchgQdZS.s 			page 209


 11726 1688 51       		.byte	0x51
 11727 1689 C2000000 		.4byte	.LVL322
 11728 168d 4A010000 		.4byte	.LFE164
 11729 1691 0400     		.2byte	0x4
 11730 1693 F3       		.byte	0xf3
 11731 1694 01       		.uleb128 0x1
 11732 1695 51       		.byte	0x51
 11733 1696 9F       		.byte	0x9f
 11734 1697 00000000 		.4byte	0
 11735 169b 00000000 		.4byte	0
 11736              	.LLST113:
 11737 169f 00000000 		.4byte	.LVL293
 11738 16a3 12000000 		.4byte	.LVL294
 11739 16a7 0200     		.2byte	0x2
 11740 16a9 30       		.byte	0x30
 11741 16aa 9F       		.byte	0x9f
 11742 16ab 12000000 		.4byte	.LVL294
 11743 16af 98000000 		.4byte	.LVL314
 11744 16b3 0100     		.2byte	0x1
 11745 16b5 55       		.byte	0x55
 11746 16b6 98000000 		.4byte	.LVL314
 11747 16ba B6000000 		.4byte	.LVL320
 11748 16be 1500     		.2byte	0x15
 11749 16c0 30       		.byte	0x30
 11750 16c1 32       		.byte	0x32
 11751 16c2 F3       		.byte	0xf3
 11752 16c3 01       		.uleb128 0x1
 11753 16c4 51       		.byte	0x51
 11754 16c5 23       		.byte	0x23
 11755 16c6 02       		.uleb128 0x2
 11756 16c7 94       		.byte	0x94
 11757 16c8 02       		.byte	0x2
 11758 16c9 0A       		.byte	0xa
 11759 16ca FFFF     		.2byte	0xffff
 11760 16cc 1A       		.byte	0x1a
 11761 16cd 30       		.byte	0x30
 11762 16ce 2E       		.byte	0x2e
 11763 16cf 28       		.byte	0x28
 11764 16d0 0100     		.2byte	0x1
 11765 16d2 16       		.byte	0x16
 11766 16d3 13       		.byte	0x13
 11767 16d4 9F       		.byte	0x9f
 11768 16d5 B6000000 		.4byte	.LVL320
 11769 16d9 2C010000 		.4byte	.LVL339
 11770 16dd 0100     		.2byte	0x1
 11771 16df 55       		.byte	0x55
 11772 16e0 2C010000 		.4byte	.LVL339
 11773 16e4 4A010000 		.4byte	.LFE164
 11774 16e8 1500     		.2byte	0x15
 11775 16ea 30       		.byte	0x30
 11776 16eb 32       		.byte	0x32
 11777 16ec F3       		.byte	0xf3
 11778 16ed 01       		.uleb128 0x1
 11779 16ee 51       		.byte	0x51
 11780 16ef 23       		.byte	0x23
 11781 16f0 02       		.uleb128 0x2
 11782 16f1 94       		.byte	0x94
ARM GAS  /tmp/cchgQdZS.s 			page 210


 11783 16f2 02       		.byte	0x2
 11784 16f3 0A       		.byte	0xa
 11785 16f4 FFFF     		.2byte	0xffff
 11786 16f6 1A       		.byte	0x1a
 11787 16f7 30       		.byte	0x30
 11788 16f8 2E       		.byte	0x2e
 11789 16f9 28       		.byte	0x28
 11790 16fa 0100     		.2byte	0x1
 11791 16fc 16       		.byte	0x16
 11792 16fd 13       		.byte	0x13
 11793 16fe 9F       		.byte	0x9f
 11794 16ff 00000000 		.4byte	0
 11795 1703 00000000 		.4byte	0
 11796              	.LLST114:
 11797 1707 00000000 		.4byte	.LVL293
 11798 170b 1A000000 		.4byte	.LVL295
 11799 170f 0200     		.2byte	0x2
 11800 1711 31       		.byte	0x31
 11801 1712 9F       		.byte	0x9f
 11802 1713 1A000000 		.4byte	.LVL295
 11803 1717 9C000000 		.4byte	.LVL315
 11804 171b 0100     		.2byte	0x1
 11805 171d 56       		.byte	0x56
 11806 171e 9C000000 		.4byte	.LVL315
 11807 1722 B6000000 		.4byte	.LVL320
 11808 1726 1500     		.2byte	0x15
 11809 1728 31       		.byte	0x31
 11810 1729 32       		.byte	0x32
 11811 172a F3       		.byte	0xf3
 11812 172b 01       		.uleb128 0x1
 11813 172c 51       		.byte	0x51
 11814 172d 23       		.byte	0x23
 11815 172e 04       		.uleb128 0x4
 11816 172f 94       		.byte	0x94
 11817 1730 02       		.byte	0x2
 11818 1731 0A       		.byte	0xa
 11819 1732 FFFF     		.2byte	0xffff
 11820 1734 1A       		.byte	0x1a
 11821 1735 31       		.byte	0x31
 11822 1736 2E       		.byte	0x2e
 11823 1737 28       		.byte	0x28
 11824 1738 0100     		.2byte	0x1
 11825 173a 16       		.byte	0x16
 11826 173b 13       		.byte	0x13
 11827 173c 9F       		.byte	0x9f
 11828 173d B6000000 		.4byte	.LVL320
 11829 1741 28010000 		.4byte	.LVL338
 11830 1745 0100     		.2byte	0x1
 11831 1747 56       		.byte	0x56
 11832 1748 28010000 		.4byte	.LVL338
 11833 174c 4A010000 		.4byte	.LFE164
 11834 1750 1500     		.2byte	0x15
 11835 1752 31       		.byte	0x31
 11836 1753 32       		.byte	0x32
 11837 1754 F3       		.byte	0xf3
 11838 1755 01       		.uleb128 0x1
 11839 1756 51       		.byte	0x51
ARM GAS  /tmp/cchgQdZS.s 			page 211


 11840 1757 23       		.byte	0x23
 11841 1758 04       		.uleb128 0x4
 11842 1759 94       		.byte	0x94
 11843 175a 02       		.byte	0x2
 11844 175b 0A       		.byte	0xa
 11845 175c FFFF     		.2byte	0xffff
 11846 175e 1A       		.byte	0x1a
 11847 175f 31       		.byte	0x31
 11848 1760 2E       		.byte	0x2e
 11849 1761 28       		.byte	0x28
 11850 1762 0100     		.2byte	0x1
 11851 1764 16       		.byte	0x16
 11852 1765 13       		.byte	0x13
 11853 1766 9F       		.byte	0x9f
 11854 1767 00000000 		.4byte	0
 11855 176b 00000000 		.4byte	0
 11856              	.LLST115:
 11857 176f 24000000 		.4byte	.LVL296
 11858 1773 2A000000 		.4byte	.LVL297
 11859 1777 0200     		.2byte	0x2
 11860 1779 71       		.byte	0x71
 11861 177a 08       		.sleb128 8
 11862 177b 2A000000 		.4byte	.LVL297
 11863 177f 8A000000 		.4byte	.LVL311
 11864 1783 0100     		.2byte	0x1
 11865 1785 5C       		.byte	0x5c
 11866 1786 8A000000 		.4byte	.LVL311
 11867 178a B6000000 		.4byte	.LVL320
 11868 178e 0500     		.2byte	0x5
 11869 1790 F3       		.byte	0xf3
 11870 1791 01       		.uleb128 0x1
 11871 1792 51       		.byte	0x51
 11872 1793 23       		.byte	0x23
 11873 1794 08       		.uleb128 0x8
 11874 1795 00000000 		.4byte	0
 11875 1799 00000000 		.4byte	0
 11876              	.LLST116:
 11877 179d 24000000 		.4byte	.LVL296
 11878 17a1 2A000000 		.4byte	.LVL297
 11879 17a5 0200     		.2byte	0x2
 11880 17a7 71       		.byte	0x71
 11881 17a8 04       		.sleb128 4
 11882 17a9 2A000000 		.4byte	.LVL297
 11883 17ad 42000000 		.4byte	.LVL300
 11884 17b1 0100     		.2byte	0x1
 11885 17b3 52       		.byte	0x52
 11886 17b4 42000000 		.4byte	.LVL300
 11887 17b8 B6000000 		.4byte	.LVL320
 11888 17bc 0500     		.2byte	0x5
 11889 17be F3       		.byte	0xf3
 11890 17bf 01       		.uleb128 0x1
 11891 17c0 51       		.byte	0x51
 11892 17c1 23       		.byte	0x23
 11893 17c2 04       		.uleb128 0x4
 11894 17c3 00000000 		.4byte	0
 11895 17c7 00000000 		.4byte	0
 11896              	.LLST117:
ARM GAS  /tmp/cchgQdZS.s 			page 212


 11897 17cb 24000000 		.4byte	.LVL296
 11898 17cf 2A000000 		.4byte	.LVL297
 11899 17d3 0200     		.2byte	0x2
 11900 17d5 71       		.byte	0x71
 11901 17d6 02       		.sleb128 2
 11902 17d7 2A000000 		.4byte	.LVL297
 11903 17db 46000000 		.4byte	.LVL301
 11904 17df 0100     		.2byte	0x1
 11905 17e1 53       		.byte	0x53
 11906 17e2 46000000 		.4byte	.LVL301
 11907 17e6 B6000000 		.4byte	.LVL320
 11908 17ea 0500     		.2byte	0x5
 11909 17ec F3       		.byte	0xf3
 11910 17ed 01       		.uleb128 0x1
 11911 17ee 51       		.byte	0x51
 11912 17ef 23       		.byte	0x23
 11913 17f0 02       		.uleb128 0x2
 11914 17f1 00000000 		.4byte	0
 11915 17f5 00000000 		.4byte	0
 11916              	.LLST118:
 11917 17f9 24000000 		.4byte	.LVL296
 11918 17fd B6000000 		.4byte	.LVL320
 11919 1801 0100     		.2byte	0x1
 11920 1803 50       		.byte	0x50
 11921 1804 00000000 		.4byte	0
 11922 1808 00000000 		.4byte	0
 11923              	.LLST119:
 11924 180c 24000000 		.4byte	.LVL296
 11925 1810 32000000 		.4byte	.LVL298
 11926 1814 0200     		.2byte	0x2
 11927 1816 30       		.byte	0x30
 11928 1817 9F       		.byte	0x9f
 11929 1818 32000000 		.4byte	.LVL298
 11930 181c 4E000000 		.4byte	.LVL303
 11931 1820 0100     		.2byte	0x1
 11932 1822 58       		.byte	0x58
 11933 1823 4E000000 		.4byte	.LVL303
 11934 1827 50000000 		.4byte	.LVL304
 11935 182b 0800     		.2byte	0x8
 11936 182d 7C       		.byte	0x7c
 11937 182e 00       		.sleb128 0
 11938 182f 3C       		.byte	0x3c
 11939 1830 24       		.byte	0x24
 11940 1831 71       		.byte	0x71
 11941 1832 00       		.sleb128 0
 11942 1833 21       		.byte	0x21
 11943 1834 9F       		.byte	0x9f
 11944 1835 50000000 		.4byte	.LVL304
 11945 1839 56000000 		.4byte	.LVL305
 11946 183d 0600     		.2byte	0x6
 11947 183f 72       		.byte	0x72
 11948 1840 00       		.sleb128 0
 11949 1841 71       		.byte	0x71
 11950 1842 00       		.sleb128 0
 11951 1843 21       		.byte	0x21
 11952 1844 9F       		.byte	0x9f
 11953 1845 56000000 		.4byte	.LVL305
ARM GAS  /tmp/cchgQdZS.s 			page 213


 11954 1849 5E000000 		.4byte	.LVL306
 11955 184d 0A00     		.2byte	0xa
 11956 184f 78       		.byte	0x78
 11957 1850 00       		.sleb128 0
 11958 1851 0A       		.byte	0xa
 11959 1852 FF0C     		.2byte	0xcff
 11960 1854 1A       		.byte	0x1a
 11961 1855 72       		.byte	0x72
 11962 1856 00       		.sleb128 0
 11963 1857 21       		.byte	0x21
 11964 1858 9F       		.byte	0x9f
 11965 1859 5E000000 		.4byte	.LVL306
 11966 185d B4000000 		.4byte	.LVL319
 11967 1861 1800     		.2byte	0x18
 11968 1863 F3       		.byte	0xf3
 11969 1864 01       		.uleb128 0x1
 11970 1865 51       		.byte	0x51
 11971 1866 23       		.byte	0x23
 11972 1867 04       		.uleb128 0x4
 11973 1868 94       		.byte	0x94
 11974 1869 02       		.byte	0x2
 11975 186a 0A       		.byte	0xa
 11976 186b FFFF     		.2byte	0xffff
 11977 186d 1A       		.byte	0x1a
 11978 186e 38       		.byte	0x38
 11979 186f 24       		.byte	0x24
 11980 1870 79       		.byte	0x79
 11981 1871 00       		.sleb128 0
 11982 1872 21       		.byte	0x21
 11983 1873 78       		.byte	0x78
 11984 1874 00       		.sleb128 0
 11985 1875 0A       		.byte	0xa
 11986 1876 FF0C     		.2byte	0xcff
 11987 1878 1A       		.byte	0x1a
 11988 1879 21       		.byte	0x21
 11989 187a 9F       		.byte	0x9f
 11990 187b 00000000 		.4byte	0
 11991 187f 00000000 		.4byte	0
 11992              	.LLST120:
 11993 1883 24000000 		.4byte	.LVL296
 11994 1887 34000000 		.4byte	.LVL299
 11995 188b 0200     		.2byte	0x2
 11996 188d 30       		.byte	0x30
 11997 188e 9F       		.byte	0x9f
 11998 188f 34000000 		.4byte	.LVL299
 11999 1893 4A000000 		.4byte	.LVL302
 12000 1897 0100     		.2byte	0x1
 12001 1899 51       		.byte	0x51
 12002 189a 50000000 		.4byte	.LVL304
 12003 189e B4000000 		.4byte	.LVL319
 12004 18a2 0F00     		.2byte	0xf
 12005 18a4 F3       		.byte	0xf3
 12006 18a5 01       		.uleb128 0x1
 12007 18a6 51       		.byte	0x51
 12008 18a7 23       		.byte	0x23
 12009 18a8 02       		.uleb128 0x2
 12010 18a9 94       		.byte	0x94
ARM GAS  /tmp/cchgQdZS.s 			page 214


 12011 18aa 02       		.byte	0x2
 12012 18ab 34       		.byte	0x34
 12013 18ac 24       		.byte	0x24
 12014 18ad 74       		.byte	0x74
 12015 18ae 00       		.sleb128 0
 12016 18af 21       		.byte	0x21
 12017 18b0 40       		.byte	0x40
 12018 18b1 21       		.byte	0x21
 12019 18b2 9F       		.byte	0x9f
 12020 18b3 00000000 		.4byte	0
 12021 18b7 00000000 		.4byte	0
 12022              	.LLST121:
 12023 18bb 24000000 		.4byte	.LVL296
 12024 18bf 34000000 		.4byte	.LVL299
 12025 18c3 0200     		.2byte	0x2
 12026 18c5 30       		.byte	0x30
 12027 18c6 9F       		.byte	0x9f
 12028 18c7 34000000 		.4byte	.LVL299
 12029 18cb 46000000 		.4byte	.LVL301
 12030 18cf 0500     		.2byte	0x5
 12031 18d1 73       		.byte	0x73
 12032 18d2 00       		.sleb128 0
 12033 18d3 34       		.byte	0x34
 12034 18d4 24       		.byte	0x24
 12035 18d5 9F       		.byte	0x9f
 12036 18d6 46000000 		.4byte	.LVL301
 12037 18da B6000000 		.4byte	.LVL320
 12038 18de 0A00     		.2byte	0xa
 12039 18e0 F3       		.byte	0xf3
 12040 18e1 01       		.uleb128 0x1
 12041 18e2 51       		.byte	0x51
 12042 18e3 23       		.byte	0x23
 12043 18e4 02       		.uleb128 0x2
 12044 18e5 94       		.byte	0x94
 12045 18e6 02       		.byte	0x2
 12046 18e7 34       		.byte	0x34
 12047 18e8 24       		.byte	0x24
 12048 18e9 9F       		.byte	0x9f
 12049 18ea 00000000 		.4byte	0
 12050 18ee 00000000 		.4byte	0
 12051              	.LLST122:
 12052 18f2 50000000 		.4byte	.LVL304
 12053 18f6 AE000000 		.4byte	.LVL318
 12054 18fa 0100     		.2byte	0x1
 12055 18fc 57       		.byte	0x57
 12056 18fd AE000000 		.4byte	.LVL318
 12057 1901 B6000000 		.4byte	.LVL320
 12058 1905 0500     		.2byte	0x5
 12059 1907 F3       		.byte	0xf3
 12060 1908 01       		.uleb128 0x1
 12061 1909 51       		.byte	0x51
 12062 190a 23       		.byte	0x23
 12063 190b 06       		.uleb128 0x6
 12064 190c 00000000 		.4byte	0
 12065 1910 00000000 		.4byte	0
 12066              	.LLST123:
 12067 1914 50000000 		.4byte	.LVL304
ARM GAS  /tmp/cchgQdZS.s 			page 215


 12068 1918 B6000000 		.4byte	.LVL320
 12069 191c 0100     		.2byte	0x1
 12070 191e 50       		.byte	0x50
 12071 191f 00000000 		.4byte	0
 12072 1923 00000000 		.4byte	0
 12073              	.LLST124:
 12074 1927 70000000 		.4byte	.LVL307
 12075 192b 8A000000 		.4byte	.LVL311
 12076 192f 0100     		.2byte	0x1
 12077 1931 5C       		.byte	0x5c
 12078 1932 8A000000 		.4byte	.LVL311
 12079 1936 B6000000 		.4byte	.LVL320
 12080 193a 0500     		.2byte	0x5
 12081 193c F3       		.byte	0xf3
 12082 193d 01       		.uleb128 0x1
 12083 193e 51       		.byte	0x51
 12084 193f 23       		.byte	0x23
 12085 1940 08       		.uleb128 0x8
 12086 1941 00000000 		.4byte	0
 12087 1945 00000000 		.4byte	0
 12088              	.LLST125:
 12089 1949 70000000 		.4byte	.LVL307
 12090 194d 9C000000 		.4byte	.LVL315
 12091 1951 0100     		.2byte	0x1
 12092 1953 56       		.byte	0x56
 12093 1954 9C000000 		.4byte	.LVL315
 12094 1958 B6000000 		.4byte	.LVL320
 12095 195c 1500     		.2byte	0x15
 12096 195e 31       		.byte	0x31
 12097 195f 32       		.byte	0x32
 12098 1960 F3       		.byte	0xf3
 12099 1961 01       		.uleb128 0x1
 12100 1962 51       		.byte	0x51
 12101 1963 23       		.byte	0x23
 12102 1964 04       		.uleb128 0x4
 12103 1965 94       		.byte	0x94
 12104 1966 02       		.byte	0x2
 12105 1967 0A       		.byte	0xa
 12106 1968 FFFF     		.2byte	0xffff
 12107 196a 1A       		.byte	0x1a
 12108 196b 31       		.byte	0x31
 12109 196c 2E       		.byte	0x2e
 12110 196d 28       		.byte	0x28
 12111 196e 0100     		.2byte	0x1
 12112 1970 16       		.byte	0x16
 12113 1971 13       		.byte	0x13
 12114 1972 9F       		.byte	0x9f
 12115 1973 00000000 		.4byte	0
 12116 1977 00000000 		.4byte	0
 12117              	.LLST126:
 12118 197b 70000000 		.4byte	.LVL307
 12119 197f 98000000 		.4byte	.LVL314
 12120 1983 0100     		.2byte	0x1
 12121 1985 55       		.byte	0x55
 12122 1986 98000000 		.4byte	.LVL314
 12123 198a B6000000 		.4byte	.LVL320
 12124 198e 1500     		.2byte	0x15
ARM GAS  /tmp/cchgQdZS.s 			page 216


 12125 1990 30       		.byte	0x30
 12126 1991 32       		.byte	0x32
 12127 1992 F3       		.byte	0xf3
 12128 1993 01       		.uleb128 0x1
 12129 1994 51       		.byte	0x51
 12130 1995 23       		.byte	0x23
 12131 1996 02       		.uleb128 0x2
 12132 1997 94       		.byte	0x94
 12133 1998 02       		.byte	0x2
 12134 1999 0A       		.byte	0xa
 12135 199a FFFF     		.2byte	0xffff
 12136 199c 1A       		.byte	0x1a
 12137 199d 30       		.byte	0x30
 12138 199e 2E       		.byte	0x2e
 12139 199f 28       		.byte	0x28
 12140 19a0 0100     		.2byte	0x1
 12141 19a2 16       		.byte	0x16
 12142 19a3 13       		.byte	0x13
 12143 19a4 9F       		.byte	0x9f
 12144 19a5 00000000 		.4byte	0
 12145 19a9 00000000 		.4byte	0
 12146              	.LLST127:
 12147 19ad 70000000 		.4byte	.LVL307
 12148 19b1 B6000000 		.4byte	.LVL320
 12149 19b5 0100     		.2byte	0x1
 12150 19b7 50       		.byte	0x50
 12151 19b8 00000000 		.4byte	0
 12152 19bc 00000000 		.4byte	0
 12153              	.LLST128:
 12154 19c0 70000000 		.4byte	.LVL307
 12155 19c4 80000000 		.4byte	.LVL308
 12156 19c8 0200     		.2byte	0x2
 12157 19ca 30       		.byte	0x30
 12158 19cb 9F       		.byte	0x9f
 12159 19cc 80000000 		.4byte	.LVL308
 12160 19d0 84000000 		.4byte	.LVL309
 12161 19d4 0100     		.2byte	0x1
 12162 19d6 52       		.byte	0x52
 12163 19d7 96000000 		.4byte	.LVL313
 12164 19db 9C000000 		.4byte	.LVL315
 12165 19df 0600     		.2byte	0x6
 12166 19e1 7C       		.byte	0x7c
 12167 19e2 00       		.sleb128 0
 12168 19e3 76       		.byte	0x76
 12169 19e4 00       		.sleb128 0
 12170 19e5 21       		.byte	0x21
 12171 19e6 9F       		.byte	0x9f
 12172 19e7 9C000000 		.4byte	.LVL315
 12173 19eb B6000000 		.4byte	.LVL320
 12174 19ef 1800     		.2byte	0x18
 12175 19f1 31       		.byte	0x31
 12176 19f2 32       		.byte	0x32
 12177 19f3 F3       		.byte	0xf3
 12178 19f4 01       		.uleb128 0x1
 12179 19f5 51       		.byte	0x51
 12180 19f6 23       		.byte	0x23
 12181 19f7 04       		.uleb128 0x4
ARM GAS  /tmp/cchgQdZS.s 			page 217


 12182 19f8 94       		.byte	0x94
 12183 19f9 02       		.byte	0x2
 12184 19fa 0A       		.byte	0xa
 12185 19fb FFFF     		.2byte	0xffff
 12186 19fd 1A       		.byte	0x1a
 12187 19fe 31       		.byte	0x31
 12188 19ff 2E       		.byte	0x2e
 12189 1a00 28       		.byte	0x28
 12190 1a01 0100     		.2byte	0x1
 12191 1a03 16       		.byte	0x16
 12192 1a04 13       		.byte	0x13
 12193 1a05 7C       		.byte	0x7c
 12194 1a06 00       		.sleb128 0
 12195 1a07 21       		.byte	0x21
 12196 1a08 9F       		.byte	0x9f
 12197 1a09 00000000 		.4byte	0
 12198 1a0d 00000000 		.4byte	0
 12199              	.LLST129:
 12200 1a11 70000000 		.4byte	.LVL307
 12201 1a15 86000000 		.4byte	.LVL310
 12202 1a19 0200     		.2byte	0x2
 12203 1a1b 30       		.byte	0x30
 12204 1a1c 9F       		.byte	0x9f
 12205 1a1d 86000000 		.4byte	.LVL310
 12206 1a21 8E000000 		.4byte	.LVL312
 12207 1a25 0100     		.2byte	0x1
 12208 1a27 53       		.byte	0x53
 12209 1a28 96000000 		.4byte	.LVL313
 12210 1a2c 98000000 		.4byte	.LVL314
 12211 1a30 0600     		.2byte	0x6
 12212 1a32 73       		.byte	0x73
 12213 1a33 00       		.sleb128 0
 12214 1a34 75       		.byte	0x75
 12215 1a35 00       		.sleb128 0
 12216 1a36 21       		.byte	0x21
 12217 1a37 9F       		.byte	0x9f
 12218 1a38 98000000 		.4byte	.LVL314
 12219 1a3c A6000000 		.4byte	.LVL317
 12220 1a40 1800     		.2byte	0x18
 12221 1a42 30       		.byte	0x30
 12222 1a43 32       		.byte	0x32
 12223 1a44 F3       		.byte	0xf3
 12224 1a45 01       		.uleb128 0x1
 12225 1a46 51       		.byte	0x51
 12226 1a47 23       		.byte	0x23
 12227 1a48 02       		.uleb128 0x2
 12228 1a49 94       		.byte	0x94
 12229 1a4a 02       		.byte	0x2
 12230 1a4b 0A       		.byte	0xa
 12231 1a4c FFFF     		.2byte	0xffff
 12232 1a4e 1A       		.byte	0x1a
 12233 1a4f 30       		.byte	0x30
 12234 1a50 2E       		.byte	0x2e
 12235 1a51 28       		.byte	0x28
 12236 1a52 0100     		.2byte	0x1
 12237 1a54 16       		.byte	0x16
 12238 1a55 13       		.byte	0x13
ARM GAS  /tmp/cchgQdZS.s 			page 218


 12239 1a56 73       		.byte	0x73
 12240 1a57 00       		.sleb128 0
 12241 1a58 21       		.byte	0x21
 12242 1a59 9F       		.byte	0x9f
 12243 1a5a 00000000 		.4byte	0
 12244 1a5e 00000000 		.4byte	0
 12245              	.LLST130:
 12246 1a62 A0000000 		.4byte	.LVL316
 12247 1a66 AE000000 		.4byte	.LVL318
 12248 1a6a 0100     		.2byte	0x1
 12249 1a6c 57       		.byte	0x57
 12250 1a6d AE000000 		.4byte	.LVL318
 12251 1a71 B6000000 		.4byte	.LVL320
 12252 1a75 0500     		.2byte	0x5
 12253 1a77 F3       		.byte	0xf3
 12254 1a78 01       		.uleb128 0x1
 12255 1a79 51       		.byte	0x51
 12256 1a7a 23       		.byte	0x23
 12257 1a7b 06       		.uleb128 0x6
 12258 1a7c 00000000 		.4byte	0
 12259 1a80 00000000 		.4byte	0
 12260              	.LLST131:
 12261 1a84 A0000000 		.4byte	.LVL316
 12262 1a88 B6000000 		.4byte	.LVL320
 12263 1a8c 0100     		.2byte	0x1
 12264 1a8e 50       		.byte	0x50
 12265 1a8f 00000000 		.4byte	0
 12266 1a93 00000000 		.4byte	0
 12267              	.LLST132:
 12268 1a97 BC000000 		.4byte	.LVL321
 12269 1a9b C2000000 		.4byte	.LVL322
 12270 1a9f 0200     		.2byte	0x2
 12271 1aa1 71       		.byte	0x71
 12272 1aa2 08       		.sleb128 8
 12273 1aa3 C2000000 		.4byte	.LVL322
 12274 1aa7 4A010000 		.4byte	.LFE164
 12275 1aab 0100     		.2byte	0x1
 12276 1aad 5C       		.byte	0x5c
 12277 1aae 00000000 		.4byte	0
 12278 1ab2 00000000 		.4byte	0
 12279              	.LLST133:
 12280 1ab6 BC000000 		.4byte	.LVL321
 12281 1aba D6000000 		.4byte	.LVL325
 12282 1abe 0100     		.2byte	0x1
 12283 1ac0 52       		.byte	0x52
 12284 1ac1 D6000000 		.4byte	.LVL325
 12285 1ac5 4A010000 		.4byte	.LFE164
 12286 1ac9 0500     		.2byte	0x5
 12287 1acb F3       		.byte	0xf3
 12288 1acc 01       		.uleb128 0x1
 12289 1acd 51       		.byte	0x51
 12290 1ace 23       		.byte	0x23
 12291 1acf 04       		.uleb128 0x4
 12292 1ad0 00000000 		.4byte	0
 12293 1ad4 00000000 		.4byte	0
 12294              	.LLST134:
 12295 1ad8 BC000000 		.4byte	.LVL321
ARM GAS  /tmp/cchgQdZS.s 			page 219


 12296 1adc E2000000 		.4byte	.LVL327
 12297 1ae0 0100     		.2byte	0x1
 12298 1ae2 53       		.byte	0x53
 12299 1ae3 E2000000 		.4byte	.LVL327
 12300 1ae7 4A010000 		.4byte	.LFE164
 12301 1aeb 0500     		.2byte	0x5
 12302 1aed F3       		.byte	0xf3
 12303 1aee 01       		.uleb128 0x1
 12304 1aef 51       		.byte	0x51
 12305 1af0 23       		.byte	0x23
 12306 1af1 02       		.uleb128 0x2
 12307 1af2 00000000 		.4byte	0
 12308 1af6 00000000 		.4byte	0
 12309              	.LLST135:
 12310 1afa BC000000 		.4byte	.LVL321
 12311 1afe CA000000 		.4byte	.LVL323
 12312 1b02 0200     		.2byte	0x2
 12313 1b04 30       		.byte	0x30
 12314 1b05 9F       		.byte	0x9f
 12315 1b06 CA000000 		.4byte	.LVL323
 12316 1b0a DA000000 		.4byte	.LVL326
 12317 1b0e 0100     		.2byte	0x1
 12318 1b10 59       		.byte	0x59
 12319 1b11 DA000000 		.4byte	.LVL326
 12320 1b15 E8000000 		.4byte	.LVL329
 12321 1b19 1000     		.2byte	0x10
 12322 1b1b 7C       		.byte	0x7c
 12323 1b1c 00       		.sleb128 0
 12324 1b1d 34       		.byte	0x34
 12325 1b1e 24       		.byte	0x24
 12326 1b1f F3       		.byte	0xf3
 12327 1b20 01       		.uleb128 0x1
 12328 1b21 51       		.byte	0x51
 12329 1b22 23       		.byte	0x23
 12330 1b23 04       		.uleb128 0x4
 12331 1b24 94       		.byte	0x94
 12332 1b25 02       		.byte	0x2
 12333 1b26 21       		.byte	0x21
 12334 1b27 74       		.byte	0x74
 12335 1b28 00       		.sleb128 0
 12336 1b29 21       		.byte	0x21
 12337 1b2a 9F       		.byte	0x9f
 12338 1b2b E8000000 		.4byte	.LVL329
 12339 1b2f 48010000 		.4byte	.LVL344
 12340 1b33 1400     		.2byte	0x14
 12341 1b35 7C       		.byte	0x7c
 12342 1b36 00       		.sleb128 0
 12343 1b37 34       		.byte	0x34
 12344 1b38 24       		.byte	0x24
 12345 1b39 79       		.byte	0x79
 12346 1b3a 00       		.sleb128 0
 12347 1b3b 0A       		.byte	0xa
 12348 1b3c 0CFF     		.2byte	0xff0c
 12349 1b3e 1A       		.byte	0x1a
 12350 1b3f 21       		.byte	0x21
 12351 1b40 F3       		.byte	0xf3
 12352 1b41 01       		.uleb128 0x1
ARM GAS  /tmp/cchgQdZS.s 			page 220


 12353 1b42 51       		.byte	0x51
 12354 1b43 23       		.byte	0x23
 12355 1b44 04       		.uleb128 0x4
 12356 1b45 94       		.byte	0x94
 12357 1b46 02       		.byte	0x2
 12358 1b47 21       		.byte	0x21
 12359 1b48 9F       		.byte	0x9f
 12360 1b49 00000000 		.4byte	0
 12361 1b4d 00000000 		.4byte	0
 12362              	.LLST136:
 12363 1b51 BC000000 		.4byte	.LVL321
 12364 1b55 CE000000 		.4byte	.LVL324
 12365 1b59 0200     		.2byte	0x2
 12366 1b5b 30       		.byte	0x30
 12367 1b5c 9F       		.byte	0x9f
 12368 1b5d CE000000 		.4byte	.LVL324
 12369 1b61 E6000000 		.4byte	.LVL328
 12370 1b65 0100     		.2byte	0x1
 12371 1b67 58       		.byte	0x58
 12372 1b68 E6000000 		.4byte	.LVL328
 12373 1b6c EA000000 		.4byte	.LVL330
 12374 1b70 0D00     		.2byte	0xd
 12375 1b72 F3       		.byte	0xf3
 12376 1b73 01       		.uleb128 0x1
 12377 1b74 51       		.byte	0x51
 12378 1b75 23       		.byte	0x23
 12379 1b76 02       		.uleb128 0x2
 12380 1b77 94       		.byte	0x94
 12381 1b78 02       		.byte	0x2
 12382 1b79 71       		.byte	0x71
 12383 1b7a 00       		.sleb128 0
 12384 1b7b 21       		.byte	0x21
 12385 1b7c 31       		.byte	0x31
 12386 1b7d 21       		.byte	0x21
 12387 1b7e 9F       		.byte	0x9f
 12388 1b7f EA000000 		.4byte	.LVL330
 12389 1b83 48010000 		.4byte	.LVL344
 12390 1b87 1100     		.2byte	0x11
 12391 1b89 78       		.byte	0x78
 12392 1b8a 00       		.sleb128 0
 12393 1b8b 0A       		.byte	0xa
 12394 1b8c F5FF     		.2byte	0xfff5
 12395 1b8e 1A       		.byte	0x1a
 12396 1b8f F3       		.byte	0xf3
 12397 1b90 01       		.uleb128 0x1
 12398 1b91 51       		.byte	0x51
 12399 1b92 23       		.byte	0x23
 12400 1b93 02       		.uleb128 0x2
 12401 1b94 94       		.byte	0x94
 12402 1b95 02       		.byte	0x2
 12403 1b96 21       		.byte	0x21
 12404 1b97 31       		.byte	0x31
 12405 1b98 21       		.byte	0x21
 12406 1b99 9F       		.byte	0x9f
 12407 1b9a 00000000 		.4byte	0
 12408 1b9e 00000000 		.4byte	0
 12409              	.LLST137:
ARM GAS  /tmp/cchgQdZS.s 			page 221


 12410 1ba2 E6000000 		.4byte	.LVL328
 12411 1ba6 3E010000 		.4byte	.LVL343
 12412 1baa 0100     		.2byte	0x1
 12413 1bac 57       		.byte	0x57
 12414 1bad 3E010000 		.4byte	.LVL343
 12415 1bb1 4A010000 		.4byte	.LFE164
 12416 1bb5 0500     		.2byte	0x5
 12417 1bb7 F3       		.byte	0xf3
 12418 1bb8 01       		.uleb128 0x1
 12419 1bb9 51       		.byte	0x51
 12420 1bba 23       		.byte	0x23
 12421 1bbb 06       		.uleb128 0x6
 12422 1bbc 00000000 		.4byte	0
 12423 1bc0 00000000 		.4byte	0
 12424              	.LLST138:
 12425 1bc4 00010000 		.4byte	.LVL331
 12426 1bc8 28010000 		.4byte	.LVL338
 12427 1bcc 0100     		.2byte	0x1
 12428 1bce 56       		.byte	0x56
 12429 1bcf 28010000 		.4byte	.LVL338
 12430 1bd3 4A010000 		.4byte	.LFE164
 12431 1bd7 1500     		.2byte	0x15
 12432 1bd9 31       		.byte	0x31
 12433 1bda 32       		.byte	0x32
 12434 1bdb F3       		.byte	0xf3
 12435 1bdc 01       		.uleb128 0x1
 12436 1bdd 51       		.byte	0x51
 12437 1bde 23       		.byte	0x23
 12438 1bdf 04       		.uleb128 0x4
 12439 1be0 94       		.byte	0x94
 12440 1be1 02       		.byte	0x2
 12441 1be2 0A       		.byte	0xa
 12442 1be3 FFFF     		.2byte	0xffff
 12443 1be5 1A       		.byte	0x1a
 12444 1be6 31       		.byte	0x31
 12445 1be7 2E       		.byte	0x2e
 12446 1be8 28       		.byte	0x28
 12447 1be9 0100     		.2byte	0x1
 12448 1beb 16       		.byte	0x16
 12449 1bec 13       		.byte	0x13
 12450 1bed 9F       		.byte	0x9f
 12451 1bee 00000000 		.4byte	0
 12452 1bf2 00000000 		.4byte	0
 12453              	.LLST139:
 12454 1bf6 00010000 		.4byte	.LVL331
 12455 1bfa 2C010000 		.4byte	.LVL339
 12456 1bfe 0100     		.2byte	0x1
 12457 1c00 55       		.byte	0x55
 12458 1c01 2C010000 		.4byte	.LVL339
 12459 1c05 4A010000 		.4byte	.LFE164
 12460 1c09 1500     		.2byte	0x15
 12461 1c0b 30       		.byte	0x30
 12462 1c0c 32       		.byte	0x32
 12463 1c0d F3       		.byte	0xf3
 12464 1c0e 01       		.uleb128 0x1
 12465 1c0f 51       		.byte	0x51
 12466 1c10 23       		.byte	0x23
ARM GAS  /tmp/cchgQdZS.s 			page 222


 12467 1c11 02       		.uleb128 0x2
 12468 1c12 94       		.byte	0x94
 12469 1c13 02       		.byte	0x2
 12470 1c14 0A       		.byte	0xa
 12471 1c15 FFFF     		.2byte	0xffff
 12472 1c17 1A       		.byte	0x1a
 12473 1c18 30       		.byte	0x30
 12474 1c19 2E       		.byte	0x2e
 12475 1c1a 28       		.byte	0x28
 12476 1c1b 0100     		.2byte	0x1
 12477 1c1d 16       		.byte	0x16
 12478 1c1e 13       		.byte	0x13
 12479 1c1f 9F       		.byte	0x9f
 12480 1c20 00000000 		.4byte	0
 12481 1c24 00000000 		.4byte	0
 12482              	.LLST140:
 12483 1c28 00010000 		.4byte	.LVL331
 12484 1c2c 0C010000 		.4byte	.LVL332
 12485 1c30 0200     		.2byte	0x2
 12486 1c32 30       		.byte	0x30
 12487 1c33 9F       		.byte	0x9f
 12488 1c34 0C010000 		.4byte	.LVL332
 12489 1c38 16010000 		.4byte	.LVL333
 12490 1c3c 0100     		.2byte	0x1
 12491 1c3e 51       		.byte	0x51
 12492 1c3f 16010000 		.4byte	.LVL333
 12493 1c43 1A010000 		.4byte	.LVL334
 12494 1c47 0100     		.2byte	0x1
 12495 1c49 53       		.byte	0x53
 12496 1c4a 1A010000 		.4byte	.LVL334
 12497 1c4e 20010000 		.4byte	.LVL336
 12498 1c52 0700     		.2byte	0x7
 12499 1c54 71       		.byte	0x71
 12500 1c55 00       		.sleb128 0
 12501 1c56 0A       		.byte	0xa
 12502 1c57 FF0C     		.2byte	0xcff
 12503 1c59 1A       		.byte	0x1a
 12504 1c5a 9F       		.byte	0x9f
 12505 1c5b 20010000 		.4byte	.LVL336
 12506 1c5f 28010000 		.4byte	.LVL338
 12507 1c63 0800     		.2byte	0x8
 12508 1c65 76       		.byte	0x76
 12509 1c66 00       		.sleb128 0
 12510 1c67 38       		.byte	0x38
 12511 1c68 24       		.byte	0x24
 12512 1c69 73       		.byte	0x73
 12513 1c6a 00       		.sleb128 0
 12514 1c6b 21       		.byte	0x21
 12515 1c6c 9F       		.byte	0x9f
 12516 1c6d 28010000 		.4byte	.LVL338
 12517 1c71 36010000 		.4byte	.LVL342
 12518 1c75 1A00     		.2byte	0x1a
 12519 1c77 31       		.byte	0x31
 12520 1c78 32       		.byte	0x32
 12521 1c79 F3       		.byte	0xf3
 12522 1c7a 01       		.uleb128 0x1
 12523 1c7b 51       		.byte	0x51
ARM GAS  /tmp/cchgQdZS.s 			page 223


 12524 1c7c 23       		.byte	0x23
 12525 1c7d 04       		.uleb128 0x4
 12526 1c7e 94       		.byte	0x94
 12527 1c7f 02       		.byte	0x2
 12528 1c80 0A       		.byte	0xa
 12529 1c81 FFFF     		.2byte	0xffff
 12530 1c83 1A       		.byte	0x1a
 12531 1c84 31       		.byte	0x31
 12532 1c85 2E       		.byte	0x2e
 12533 1c86 28       		.byte	0x28
 12534 1c87 0100     		.2byte	0x1
 12535 1c89 16       		.byte	0x16
 12536 1c8a 13       		.byte	0x13
 12537 1c8b 38       		.byte	0x38
 12538 1c8c 24       		.byte	0x24
 12539 1c8d 73       		.byte	0x73
 12540 1c8e 00       		.sleb128 0
 12541 1c8f 21       		.byte	0x21
 12542 1c90 9F       		.byte	0x9f
 12543 1c91 36010000 		.4byte	.LVL342
 12544 1c95 4A010000 		.4byte	.LFE164
 12545 1c99 2300     		.2byte	0x23
 12546 1c9b 31       		.byte	0x31
 12547 1c9c 32       		.byte	0x32
 12548 1c9d F3       		.byte	0xf3
 12549 1c9e 01       		.uleb128 0x1
 12550 1c9f 51       		.byte	0x51
 12551 1ca0 23       		.byte	0x23
 12552 1ca1 04       		.uleb128 0x4
 12553 1ca2 94       		.byte	0x94
 12554 1ca3 02       		.byte	0x2
 12555 1ca4 0A       		.byte	0xa
 12556 1ca5 FFFF     		.2byte	0xffff
 12557 1ca7 1A       		.byte	0x1a
 12558 1ca8 31       		.byte	0x31
 12559 1ca9 2E       		.byte	0x2e
 12560 1caa 28       		.byte	0x28
 12561 1cab 0100     		.2byte	0x1
 12562 1cad 16       		.byte	0x16
 12563 1cae 13       		.byte	0x13
 12564 1caf 38       		.byte	0x38
 12565 1cb0 24       		.byte	0x24
 12566 1cb1 71       		.byte	0x71
 12567 1cb2 00       		.sleb128 0
 12568 1cb3 0A       		.byte	0xa
 12569 1cb4 FF0C     		.2byte	0xcff
 12570 1cb6 1A       		.byte	0x1a
 12571 1cb7 7C       		.byte	0x7c
 12572 1cb8 00       		.sleb128 0
 12573 1cb9 3C       		.byte	0x3c
 12574 1cba 24       		.byte	0x24
 12575 1cbb 21       		.byte	0x21
 12576 1cbc 21       		.byte	0x21
 12577 1cbd 9F       		.byte	0x9f
 12578 1cbe 00000000 		.4byte	0
 12579 1cc2 00000000 		.4byte	0
 12580              	.LLST141:
ARM GAS  /tmp/cchgQdZS.s 			page 224


 12581 1cc6 00010000 		.4byte	.LVL331
 12582 1cca 16010000 		.4byte	.LVL333
 12583 1cce 0200     		.2byte	0x2
 12584 1cd0 30       		.byte	0x30
 12585 1cd1 9F       		.byte	0x9f
 12586 1cd2 16010000 		.4byte	.LVL333
 12587 1cd6 1E010000 		.4byte	.LVL335
 12588 1cda 0100     		.2byte	0x1
 12589 1cdc 52       		.byte	0x52
 12590 1cdd 24010000 		.4byte	.LVL337
 12591 1ce1 2C010000 		.4byte	.LVL339
 12592 1ce5 0800     		.2byte	0x8
 12593 1ce7 75       		.byte	0x75
 12594 1ce8 00       		.sleb128 0
 12595 1ce9 34       		.byte	0x34
 12596 1cea 24       		.byte	0x24
 12597 1ceb 72       		.byte	0x72
 12598 1cec 00       		.sleb128 0
 12599 1ced 21       		.byte	0x21
 12600 1cee 9F       		.byte	0x9f
 12601 1cef 2C010000 		.4byte	.LVL339
 12602 1cf3 32010000 		.4byte	.LVL341
 12603 1cf7 1A00     		.2byte	0x1a
 12604 1cf9 30       		.byte	0x30
 12605 1cfa 32       		.byte	0x32
 12606 1cfb F3       		.byte	0xf3
 12607 1cfc 01       		.uleb128 0x1
 12608 1cfd 51       		.byte	0x51
 12609 1cfe 23       		.byte	0x23
 12610 1cff 02       		.uleb128 0x2
 12611 1d00 94       		.byte	0x94
 12612 1d01 02       		.byte	0x2
 12613 1d02 0A       		.byte	0xa
 12614 1d03 FFFF     		.2byte	0xffff
 12615 1d05 1A       		.byte	0x1a
 12616 1d06 30       		.byte	0x30
 12617 1d07 2E       		.byte	0x2e
 12618 1d08 28       		.byte	0x28
 12619 1d09 0100     		.2byte	0x1
 12620 1d0b 16       		.byte	0x16
 12621 1d0c 13       		.byte	0x13
 12622 1d0d 34       		.byte	0x34
 12623 1d0e 24       		.byte	0x24
 12624 1d0f 72       		.byte	0x72
 12625 1d10 00       		.sleb128 0
 12626 1d11 21       		.byte	0x21
 12627 1d12 9F       		.byte	0x9f
 12628 1d13 00000000 		.4byte	0
 12629 1d17 00000000 		.4byte	0
 12630              	.LLST142:
 12631 1d1b 00010000 		.4byte	.LVL331
 12632 1d1f 16010000 		.4byte	.LVL333
 12633 1d23 0200     		.2byte	0x2
 12634 1d25 30       		.byte	0x30
 12635 1d26 9F       		.byte	0x9f
 12636 1d27 16010000 		.4byte	.LVL333
 12637 1d2b 2C010000 		.4byte	.LVL339
ARM GAS  /tmp/cchgQdZS.s 			page 225


 12638 1d2f 0500     		.2byte	0x5
 12639 1d31 75       		.byte	0x75
 12640 1d32 00       		.sleb128 0
 12641 1d33 34       		.byte	0x34
 12642 1d34 24       		.byte	0x24
 12643 1d35 9F       		.byte	0x9f
 12644 1d36 2C010000 		.4byte	.LVL339
 12645 1d3a 4A010000 		.4byte	.LFE164
 12646 1d3e 1700     		.2byte	0x17
 12647 1d40 30       		.byte	0x30
 12648 1d41 32       		.byte	0x32
 12649 1d42 F3       		.byte	0xf3
 12650 1d43 01       		.uleb128 0x1
 12651 1d44 51       		.byte	0x51
 12652 1d45 23       		.byte	0x23
 12653 1d46 02       		.uleb128 0x2
 12654 1d47 94       		.byte	0x94
 12655 1d48 02       		.byte	0x2
 12656 1d49 0A       		.byte	0xa
 12657 1d4a FFFF     		.2byte	0xffff
 12658 1d4c 1A       		.byte	0x1a
 12659 1d4d 30       		.byte	0x30
 12660 1d4e 2E       		.byte	0x2e
 12661 1d4f 28       		.byte	0x28
 12662 1d50 0100     		.2byte	0x1
 12663 1d52 16       		.byte	0x16
 12664 1d53 13       		.byte	0x13
 12665 1d54 34       		.byte	0x34
 12666 1d55 24       		.byte	0x24
 12667 1d56 9F       		.byte	0x9f
 12668 1d57 00000000 		.4byte	0
 12669 1d5b 00000000 		.4byte	0
 12670              	.LLST143:
 12671 1d5f 30010000 		.4byte	.LVL340
 12672 1d63 3E010000 		.4byte	.LVL343
 12673 1d67 0100     		.2byte	0x1
 12674 1d69 57       		.byte	0x57
 12675 1d6a 3E010000 		.4byte	.LVL343
 12676 1d6e 4A010000 		.4byte	.LFE164
 12677 1d72 0500     		.2byte	0x5
 12678 1d74 F3       		.byte	0xf3
 12679 1d75 01       		.uleb128 0x1
 12680 1d76 51       		.byte	0x51
 12681 1d77 23       		.byte	0x23
 12682 1d78 06       		.uleb128 0x6
 12683 1d79 00000000 		.4byte	0
 12684 1d7d 00000000 		.4byte	0
 12685              	.LLST144:
 12686 1d81 00000000 		.4byte	.LVL345
 12687 1d85 02000000 		.4byte	.LVL346
 12688 1d89 0100     		.2byte	0x1
 12689 1d8b 50       		.byte	0x50
 12690 1d8c 02000000 		.4byte	.LVL346
 12691 1d90 04000000 		.4byte	.LFE165
 12692 1d94 0400     		.2byte	0x4
 12693 1d96 F3       		.byte	0xf3
 12694 1d97 01       		.uleb128 0x1
ARM GAS  /tmp/cchgQdZS.s 			page 226


 12695 1d98 50       		.byte	0x50
 12696 1d99 9F       		.byte	0x9f
 12697 1d9a 00000000 		.4byte	0
 12698 1d9e 00000000 		.4byte	0
 12699              	.LLST145:
 12700 1da2 00000000 		.4byte	.LVL347
 12701 1da6 02000000 		.4byte	.LVL348
 12702 1daa 0100     		.2byte	0x1
 12703 1dac 50       		.byte	0x50
 12704 1dad 02000000 		.4byte	.LVL348
 12705 1db1 04000000 		.4byte	.LFE166
 12706 1db5 0400     		.2byte	0x4
 12707 1db7 F3       		.byte	0xf3
 12708 1db8 01       		.uleb128 0x1
 12709 1db9 50       		.byte	0x50
 12710 1dba 9F       		.byte	0x9f
 12711 1dbb 00000000 		.4byte	0
 12712 1dbf 00000000 		.4byte	0
 12713              	.LLST146:
 12714 1dc3 00000000 		.4byte	.LVL349
 12715 1dc7 02000000 		.4byte	.LVL350
 12716 1dcb 0100     		.2byte	0x1
 12717 1dcd 50       		.byte	0x50
 12718 1dce 02000000 		.4byte	.LVL350
 12719 1dd2 04000000 		.4byte	.LFE167
 12720 1dd6 0400     		.2byte	0x4
 12721 1dd8 F3       		.byte	0xf3
 12722 1dd9 01       		.uleb128 0x1
 12723 1dda 50       		.byte	0x50
 12724 1ddb 9F       		.byte	0x9f
 12725 1ddc 00000000 		.4byte	0
 12726 1de0 00000000 		.4byte	0
 12727              	.LLST147:
 12728 1de4 00000000 		.4byte	.LVL351
 12729 1de8 02000000 		.4byte	.LVL352
 12730 1dec 0100     		.2byte	0x1
 12731 1dee 50       		.byte	0x50
 12732 1def 02000000 		.4byte	.LVL352
 12733 1df3 04000000 		.4byte	.LFE168
 12734 1df7 0400     		.2byte	0x4
 12735 1df9 F3       		.byte	0xf3
 12736 1dfa 01       		.uleb128 0x1
 12737 1dfb 50       		.byte	0x50
 12738 1dfc 9F       		.byte	0x9f
 12739 1dfd 00000000 		.4byte	0
 12740 1e01 00000000 		.4byte	0
 12741              	.LLST148:
 12742 1e05 00000000 		.4byte	.LVL353
 12743 1e09 0E000000 		.4byte	.LVL354
 12744 1e0d 0100     		.2byte	0x1
 12745 1e0f 51       		.byte	0x51
 12746 1e10 0E000000 		.4byte	.LVL354
 12747 1e14 12000000 		.4byte	.LFE169
 12748 1e18 0400     		.2byte	0x4
 12749 1e1a F3       		.byte	0xf3
 12750 1e1b 01       		.uleb128 0x1
 12751 1e1c 51       		.byte	0x51
ARM GAS  /tmp/cchgQdZS.s 			page 227


 12752 1e1d 9F       		.byte	0x9f
 12753 1e1e 00000000 		.4byte	0
 12754 1e22 00000000 		.4byte	0
 12755              	.LLST149:
 12756 1e26 00000000 		.4byte	.LVL355
 12757 1e2a 0E000000 		.4byte	.LVL356
 12758 1e2e 0100     		.2byte	0x1
 12759 1e30 51       		.byte	0x51
 12760 1e31 0E000000 		.4byte	.LVL356
 12761 1e35 16000000 		.4byte	.LFE170
 12762 1e39 0400     		.2byte	0x4
 12763 1e3b F3       		.byte	0xf3
 12764 1e3c 01       		.uleb128 0x1
 12765 1e3d 51       		.byte	0x51
 12766 1e3e 9F       		.byte	0x9f
 12767 1e3f 00000000 		.4byte	0
 12768 1e43 00000000 		.4byte	0
 12769              	.LLST150:
 12770 1e47 00000000 		.4byte	.LVL357
 12771 1e4b 0E000000 		.4byte	.LVL358
 12772 1e4f 0100     		.2byte	0x1
 12773 1e51 51       		.byte	0x51
 12774 1e52 0E000000 		.4byte	.LVL358
 12775 1e56 12000000 		.4byte	.LFE171
 12776 1e5a 0400     		.2byte	0x4
 12777 1e5c F3       		.byte	0xf3
 12778 1e5d 01       		.uleb128 0x1
 12779 1e5e 51       		.byte	0x51
 12780 1e5f 9F       		.byte	0x9f
 12781 1e60 00000000 		.4byte	0
 12782 1e64 00000000 		.4byte	0
 12783              	.LLST151:
 12784 1e68 00000000 		.4byte	.LVL359
 12785 1e6c 0E000000 		.4byte	.LVL360
 12786 1e70 0100     		.2byte	0x1
 12787 1e72 51       		.byte	0x51
 12788 1e73 0E000000 		.4byte	.LVL360
 12789 1e77 16000000 		.4byte	.LFE172
 12790 1e7b 0400     		.2byte	0x4
 12791 1e7d F3       		.byte	0xf3
 12792 1e7e 01       		.uleb128 0x1
 12793 1e7f 51       		.byte	0x51
 12794 1e80 9F       		.byte	0x9f
 12795 1e81 00000000 		.4byte	0
 12796 1e85 00000000 		.4byte	0
 12797              	.LLST152:
 12798 1e89 00000000 		.4byte	.LVL366
 12799 1e8d 06000000 		.4byte	.LVL367
 12800 1e91 0100     		.2byte	0x1
 12801 1e93 51       		.byte	0x51
 12802 1e94 06000000 		.4byte	.LVL367
 12803 1e98 0E000000 		.4byte	.LVL368
 12804 1e9c 0400     		.2byte	0x4
 12805 1e9e F3       		.byte	0xf3
 12806 1e9f 01       		.uleb128 0x1
 12807 1ea0 51       		.byte	0x51
 12808 1ea1 9F       		.byte	0x9f
ARM GAS  /tmp/cchgQdZS.s 			page 228


 12809 1ea2 0E000000 		.4byte	.LVL368
 12810 1ea6 12000000 		.4byte	.LVL369
 12811 1eaa 0100     		.2byte	0x1
 12812 1eac 51       		.byte	0x51
 12813 1ead 12000000 		.4byte	.LVL369
 12814 1eb1 16000000 		.4byte	.LFE178
 12815 1eb5 0400     		.2byte	0x4
 12816 1eb7 F3       		.byte	0xf3
 12817 1eb8 01       		.uleb128 0x1
 12818 1eb9 51       		.byte	0x51
 12819 1eba 9F       		.byte	0x9f
 12820 1ebb 00000000 		.4byte	0
 12821 1ebf 00000000 		.4byte	0
 12822              	.LLST153:
 12823 1ec3 00000000 		.4byte	.LVL371
 12824 1ec7 0A000000 		.4byte	.LVL373
 12825 1ecb 0100     		.2byte	0x1
 12826 1ecd 50       		.byte	0x50
 12827 1ece 0A000000 		.4byte	.LVL373
 12828 1ed2 0C000000 		.4byte	.LFE180
 12829 1ed6 0400     		.2byte	0x4
 12830 1ed8 F3       		.byte	0xf3
 12831 1ed9 01       		.uleb128 0x1
 12832 1eda 50       		.byte	0x50
 12833 1edb 9F       		.byte	0x9f
 12834 1edc 00000000 		.4byte	0
 12835 1ee0 00000000 		.4byte	0
 12836              	.LLST154:
 12837 1ee4 00000000 		.4byte	.LVL371
 12838 1ee8 02000000 		.4byte	.LVL372
 12839 1eec 0200     		.2byte	0x2
 12840 1eee 30       		.byte	0x30
 12841 1eef 9F       		.byte	0x9f
 12842 1ef0 02000000 		.4byte	.LVL372
 12843 1ef4 0C000000 		.4byte	.LFE180
 12844 1ef8 0C00     		.2byte	0xc
 12845 1efa 71       		.byte	0x71
 12846 1efb 00       		.sleb128 0
 12847 1efc 0A       		.byte	0xa
 12848 1efd FFFF     		.2byte	0xffff
 12849 1eff 1A       		.byte	0x1a
 12850 1f00 73       		.byte	0x73
 12851 1f01 00       		.sleb128 0
 12852 1f02 1A       		.byte	0x1a
 12853 1f03 30       		.byte	0x30
 12854 1f04 2E       		.byte	0x2e
 12855 1f05 9F       		.byte	0x9f
 12856 1f06 00000000 		.4byte	0
 12857 1f0a 00000000 		.4byte	0
 12858              	.LLST155:
 12859 1f0e 00000000 		.4byte	.LVL374
 12860 1f12 02000000 		.4byte	.LVL375
 12861 1f16 0100     		.2byte	0x1
 12862 1f18 51       		.byte	0x51
 12863 1f19 02000000 		.4byte	.LVL375
 12864 1f1d 08000000 		.4byte	.LFE181
 12865 1f21 0400     		.2byte	0x4
ARM GAS  /tmp/cchgQdZS.s 			page 229


 12866 1f23 F3       		.byte	0xf3
 12867 1f24 01       		.uleb128 0x1
 12868 1f25 51       		.byte	0x51
 12869 1f26 9F       		.byte	0x9f
 12870 1f27 00000000 		.4byte	0
 12871 1f2b 00000000 		.4byte	0
 12872              	.LLST156:
 12873 1f2f 00000000 		.4byte	.LVL376
 12874 1f33 08000000 		.4byte	.LVL379
 12875 1f37 0100     		.2byte	0x1
 12876 1f39 50       		.byte	0x50
 12877 1f3a 08000000 		.4byte	.LVL379
 12878 1f3e 14000000 		.4byte	.LFE182
 12879 1f42 0400     		.2byte	0x4
 12880 1f44 F3       		.byte	0xf3
 12881 1f45 01       		.uleb128 0x1
 12882 1f46 50       		.byte	0x50
 12883 1f47 9F       		.byte	0x9f
 12884 1f48 00000000 		.4byte	0
 12885 1f4c 00000000 		.4byte	0
 12886              	.LLST157:
 12887 1f50 00000000 		.4byte	.LVL376
 12888 1f54 12000000 		.4byte	.LVL380
 12889 1f58 0200     		.2byte	0x2
 12890 1f5a 30       		.byte	0x30
 12891 1f5b 9F       		.byte	0x9f
 12892 1f5c 12000000 		.4byte	.LVL380
 12893 1f60 14000000 		.4byte	.LFE182
 12894 1f64 0100     		.2byte	0x1
 12895 1f66 50       		.byte	0x50
 12896 1f67 00000000 		.4byte	0
 12897 1f6b 00000000 		.4byte	0
 12898              	.LLST158:
 12899 1f6f 00000000 		.4byte	.LVL376
 12900 1f73 02000000 		.4byte	.LVL377
 12901 1f77 0200     		.2byte	0x2
 12902 1f79 30       		.byte	0x30
 12903 1f7a 9F       		.byte	0x9f
 12904 1f7b 02000000 		.4byte	.LVL377
 12905 1f7f 14000000 		.4byte	.LFE182
 12906 1f83 0600     		.2byte	0x6
 12907 1f85 71       		.byte	0x71
 12908 1f86 00       		.sleb128 0
 12909 1f87 73       		.byte	0x73
 12910 1f88 00       		.sleb128 0
 12911 1f89 1A       		.byte	0x1a
 12912 1f8a 9F       		.byte	0x9f
 12913 1f8b 00000000 		.4byte	0
 12914 1f8f 00000000 		.4byte	0
 12915              	.LLST159:
 12916 1f93 00000000 		.4byte	.LVL376
 12917 1f97 04000000 		.4byte	.LVL378
 12918 1f9b 0200     		.2byte	0x2
 12919 1f9d 30       		.byte	0x30
 12920 1f9e 9F       		.byte	0x9f
 12921 1f9f 04000000 		.4byte	.LVL378
 12922 1fa3 14000000 		.4byte	.LFE182
ARM GAS  /tmp/cchgQdZS.s 			page 230


 12923 1fa7 0600     		.2byte	0x6
 12924 1fa9 72       		.byte	0x72
 12925 1faa 00       		.sleb128 0
 12926 1fab 71       		.byte	0x71
 12927 1fac 00       		.sleb128 0
 12928 1fad 1A       		.byte	0x1a
 12929 1fae 9F       		.byte	0x9f
 12930 1faf 00000000 		.4byte	0
 12931 1fb3 00000000 		.4byte	0
 12932              	.LLST160:
 12933 1fb7 00000000 		.4byte	.LVL381
 12934 1fbb 02000000 		.4byte	.LVL382
 12935 1fbf 0100     		.2byte	0x1
 12936 1fc1 51       		.byte	0x51
 12937 1fc2 02000000 		.4byte	.LVL382
 12938 1fc6 08000000 		.4byte	.LFE183
 12939 1fca 0400     		.2byte	0x4
 12940 1fcc F3       		.byte	0xf3
 12941 1fcd 01       		.uleb128 0x1
 12942 1fce 51       		.byte	0x51
 12943 1fcf 9F       		.byte	0x9f
 12944 1fd0 00000000 		.4byte	0
 12945 1fd4 00000000 		.4byte	0
 12946              	.LLST161:
 12947 1fd8 00000000 		.4byte	.LVL383
 12948 1fdc 02000000 		.4byte	.LVL384
 12949 1fe0 0100     		.2byte	0x1
 12950 1fe2 52       		.byte	0x52
 12951 1fe3 02000000 		.4byte	.LVL384
 12952 1fe7 06000000 		.4byte	.LFE184
 12953 1feb 0400     		.2byte	0x4
 12954 1fed F3       		.byte	0xf3
 12955 1fee 01       		.uleb128 0x1
 12956 1fef 52       		.byte	0x52
 12957 1ff0 9F       		.byte	0x9f
 12958 1ff1 00000000 		.4byte	0
 12959 1ff5 00000000 		.4byte	0
 12960              	.LLST162:
 12961 1ff9 00000000 		.4byte	.LVL385
 12962 1ffd 06000000 		.4byte	.LVL386
 12963 2001 0100     		.2byte	0x1
 12964 2003 51       		.byte	0x51
 12965 2004 06000000 		.4byte	.LVL386
 12966 2008 0E000000 		.4byte	.LVL387
 12967 200c 0400     		.2byte	0x4
 12968 200e F3       		.byte	0xf3
 12969 200f 01       		.uleb128 0x1
 12970 2010 51       		.byte	0x51
 12971 2011 9F       		.byte	0x9f
 12972 2012 0E000000 		.4byte	.LVL387
 12973 2016 12000000 		.4byte	.LVL388
 12974 201a 0100     		.2byte	0x1
 12975 201c 51       		.byte	0x51
 12976 201d 12000000 		.4byte	.LVL388
 12977 2021 16000000 		.4byte	.LFE185
 12978 2025 0400     		.2byte	0x4
 12979 2027 F3       		.byte	0xf3
ARM GAS  /tmp/cchgQdZS.s 			page 231


 12980 2028 01       		.uleb128 0x1
 12981 2029 51       		.byte	0x51
 12982 202a 9F       		.byte	0x9f
 12983 202b 00000000 		.4byte	0
 12984 202f 00000000 		.4byte	0
 12985              	.LLST163:
 12986 2033 00000000 		.4byte	.LVL391
 12987 2037 0A000000 		.4byte	.LVL394
 12988 203b 0100     		.2byte	0x1
 12989 203d 51       		.byte	0x51
 12990 203e 0A000000 		.4byte	.LVL394
 12991 2042 16000000 		.4byte	.LFE188
 12992 2046 0400     		.2byte	0x4
 12993 2048 F3       		.byte	0xf3
 12994 2049 01       		.uleb128 0x1
 12995 204a 51       		.byte	0x51
 12996 204b 9F       		.byte	0x9f
 12997 204c 00000000 		.4byte	0
 12998 2050 00000000 		.4byte	0
 12999              	.LLST165:
 13000 2054 00000000 		.4byte	.LVL391
 13001 2058 02000000 		.4byte	.LVL392
 13002 205c 0200     		.2byte	0x2
 13003 205e 30       		.byte	0x30
 13004 205f 9F       		.byte	0x9f
 13005 2060 02000000 		.4byte	.LVL392
 13006 2064 08000000 		.4byte	.LVL393
 13007 2068 0100     		.2byte	0x1
 13008 206a 52       		.byte	0x52
 13009 206b 08000000 		.4byte	.LVL393
 13010 206f 0A000000 		.4byte	.LVL394
 13011 2073 0600     		.2byte	0x6
 13012 2075 71       		.byte	0x71
 13013 2076 00       		.sleb128 0
 13014 2077 73       		.byte	0x73
 13015 2078 00       		.sleb128 0
 13016 2079 21       		.byte	0x21
 13017 207a 9F       		.byte	0x9f
 13018 207b 0A000000 		.4byte	.LVL394
 13019 207f 0E000000 		.4byte	.LVL395
 13020 2083 0700     		.2byte	0x7
 13021 2085 F3       		.byte	0xf3
 13022 2086 01       		.uleb128 0x1
 13023 2087 51       		.byte	0x51
 13024 2088 73       		.byte	0x73
 13025 2089 00       		.sleb128 0
 13026 208a 21       		.byte	0x21
 13027 208b 9F       		.byte	0x9f
 13028 208c 0E000000 		.4byte	.LVL395
 13029 2090 16000000 		.4byte	.LFE188
 13030 2094 0B00     		.2byte	0xb
 13031 2096 72       		.byte	0x72
 13032 2097 00       		.sleb128 0
 13033 2098 0A       		.byte	0xa
 13034 2099 8FFF     		.2byte	0xff8f
 13035 209b 1A       		.byte	0x1a
 13036 209c F3       		.byte	0xf3
ARM GAS  /tmp/cchgQdZS.s 			page 232


 13037 209d 01       		.uleb128 0x1
 13038 209e 51       		.byte	0x51
 13039 209f 21       		.byte	0x21
 13040 20a0 9F       		.byte	0x9f
 13041 20a1 00000000 		.4byte	0
 13042 20a5 00000000 		.4byte	0
 13043              	.LLST166:
 13044 20a9 00000000 		.4byte	.LVL396
 13045 20ad 30000000 		.4byte	.LVL405
 13046 20b1 0100     		.2byte	0x1
 13047 20b3 52       		.byte	0x52
 13048 20b4 30000000 		.4byte	.LVL405
 13049 20b8 4C000000 		.4byte	.LVL410
 13050 20bc 0400     		.2byte	0x4
 13051 20be F3       		.byte	0xf3
 13052 20bf 01       		.uleb128 0x1
 13053 20c0 52       		.byte	0x52
 13054 20c1 9F       		.byte	0x9f
 13055 20c2 4C000000 		.4byte	.LVL410
 13056 20c6 74000000 		.4byte	.LVL418
 13057 20ca 0100     		.2byte	0x1
 13058 20cc 52       		.byte	0x52
 13059 20cd 74000000 		.4byte	.LVL418
 13060 20d1 7E000000 		.4byte	.LFE189
 13061 20d5 0400     		.2byte	0x4
 13062 20d7 F3       		.byte	0xf3
 13063 20d8 01       		.uleb128 0x1
 13064 20d9 52       		.byte	0x52
 13065 20da 9F       		.byte	0x9f
 13066 20db 00000000 		.4byte	0
 13067 20df 00000000 		.4byte	0
 13068              	.LLST167:
 13069 20e3 00000000 		.4byte	.LVL396
 13070 20e7 28000000 		.4byte	.LVL403
 13071 20eb 0100     		.2byte	0x1
 13072 20ed 53       		.byte	0x53
 13073 20ee 28000000 		.4byte	.LVL403
 13074 20f2 4C000000 		.4byte	.LVL410
 13075 20f6 0400     		.2byte	0x4
 13076 20f8 F3       		.byte	0xf3
 13077 20f9 01       		.uleb128 0x1
 13078 20fa 53       		.byte	0x53
 13079 20fb 9F       		.byte	0x9f
 13080 20fc 4C000000 		.4byte	.LVL410
 13081 2100 70000000 		.4byte	.LVL417
 13082 2104 0100     		.2byte	0x1
 13083 2106 53       		.byte	0x53
 13084 2107 70000000 		.4byte	.LVL417
 13085 210b 7E000000 		.4byte	.LFE189
 13086 210f 0400     		.2byte	0x4
 13087 2111 F3       		.byte	0xf3
 13088 2112 01       		.uleb128 0x1
 13089 2113 53       		.byte	0x53
 13090 2114 9F       		.byte	0x9f
 13091 2115 00000000 		.4byte	0
 13092 2119 00000000 		.4byte	0
 13093              	.LLST168:
ARM GAS  /tmp/cchgQdZS.s 			page 233


 13094 211d 4C000000 		.4byte	.LVL410
 13095 2121 70000000 		.4byte	.LVL417
 13096 2125 0100     		.2byte	0x1
 13097 2127 53       		.byte	0x53
 13098 2128 00000000 		.4byte	0
 13099 212c 00000000 		.4byte	0
 13100              	.LLST169:
 13101 2130 4C000000 		.4byte	.LVL410
 13102 2134 74000000 		.4byte	.LVL418
 13103 2138 0100     		.2byte	0x1
 13104 213a 52       		.byte	0x52
 13105 213b 00000000 		.4byte	0
 13106 213f 00000000 		.4byte	0
 13107              	.LLST170:
 13108 2143 4C000000 		.4byte	.LVL410
 13109 2147 56000000 		.4byte	.LVL411
 13110 214b 0200     		.2byte	0x2
 13111 214d 30       		.byte	0x30
 13112 214e 9F       		.byte	0x9f
 13113 214f 56000000 		.4byte	.LVL411
 13114 2153 60000000 		.4byte	.LVL413
 13115 2157 0100     		.2byte	0x1
 13116 2159 56       		.byte	0x56
 13117 215a 60000000 		.4byte	.LVL413
 13118 215e 70000000 		.4byte	.LVL417
 13119 2162 0800     		.2byte	0x8
 13120 2164 73       		.byte	0x73
 13121 2165 00       		.sleb128 0
 13122 2166 3C       		.byte	0x3c
 13123 2167 24       		.byte	0x24
 13124 2168 74       		.byte	0x74
 13125 2169 00       		.sleb128 0
 13126 216a 21       		.byte	0x21
 13127 216b 9F       		.byte	0x9f
 13128 216c 00000000 		.4byte	0
 13129 2170 00000000 		.4byte	0
 13130              	.LLST171:
 13131 2174 4C000000 		.4byte	.LVL410
 13132 2178 5E000000 		.4byte	.LVL412
 13133 217c 0200     		.2byte	0x2
 13134 217e 30       		.byte	0x30
 13135 217f 9F       		.byte	0x9f
 13136 2180 5E000000 		.4byte	.LVL412
 13137 2184 64000000 		.4byte	.LVL414
 13138 2188 0100     		.2byte	0x1
 13139 218a 55       		.byte	0x55
 13140 218b 6C000000 		.4byte	.LVL416
 13141 218f 74000000 		.4byte	.LVL418
 13142 2193 0800     		.2byte	0x8
 13143 2195 72       		.byte	0x72
 13144 2196 00       		.sleb128 0
 13145 2197 34       		.byte	0x34
 13146 2198 24       		.byte	0x24
 13147 2199 75       		.byte	0x75
 13148 219a 00       		.sleb128 0
 13149 219b 21       		.byte	0x21
 13150 219c 9F       		.byte	0x9f
ARM GAS  /tmp/cchgQdZS.s 			page 234


 13151 219d 00000000 		.4byte	0
 13152 21a1 00000000 		.4byte	0
 13153              	.LLST172:
 13154 21a5 4C000000 		.4byte	.LVL410
 13155 21a9 5E000000 		.4byte	.LVL412
 13156 21ad 0200     		.2byte	0x2
 13157 21af 30       		.byte	0x30
 13158 21b0 9F       		.byte	0x9f
 13159 21b1 5E000000 		.4byte	.LVL412
 13160 21b5 74000000 		.4byte	.LVL418
 13161 21b9 0500     		.2byte	0x5
 13162 21bb 72       		.byte	0x72
 13163 21bc 00       		.sleb128 0
 13164 21bd 34       		.byte	0x34
 13165 21be 24       		.byte	0x24
 13166 21bf 9F       		.byte	0x9f
 13167 21c0 00000000 		.4byte	0
 13168 21c4 00000000 		.4byte	0
 13169              	.LLST173:
 13170 21c8 08000000 		.4byte	.LVL397
 13171 21cc 28000000 		.4byte	.LVL403
 13172 21d0 0100     		.2byte	0x1
 13173 21d2 53       		.byte	0x53
 13174 21d3 00000000 		.4byte	0
 13175 21d7 00000000 		.4byte	0
 13176              	.LLST174:
 13177 21db 08000000 		.4byte	.LVL397
 13178 21df 34000000 		.4byte	.LVL406
 13179 21e3 0200     		.2byte	0x2
 13180 21e5 31       		.byte	0x31
 13181 21e6 9F       		.byte	0x9f
 13182 21e7 00000000 		.4byte	0
 13183 21eb 00000000 		.4byte	0
 13184              	.LLST175:
 13185 21ef 08000000 		.4byte	.LVL397
 13186 21f3 30000000 		.4byte	.LVL405
 13187 21f7 0100     		.2byte	0x1
 13188 21f9 52       		.byte	0x52
 13189 21fa 00000000 		.4byte	0
 13190 21fe 00000000 		.4byte	0
 13191              	.LLST176:
 13192 2202 08000000 		.4byte	.LVL397
 13193 2206 34000000 		.4byte	.LVL406
 13194 220a 0100     		.2byte	0x1
 13195 220c 50       		.byte	0x50
 13196 220d 00000000 		.4byte	0
 13197 2211 00000000 		.4byte	0
 13198              	.LLST177:
 13199 2215 08000000 		.4byte	.LVL397
 13200 2219 16000000 		.4byte	.LVL398
 13201 221d 0200     		.2byte	0x2
 13202 221f 30       		.byte	0x30
 13203 2220 9F       		.byte	0x9f
 13204 2221 16000000 		.4byte	.LVL398
 13205 2225 1A000000 		.4byte	.LVL399
 13206 2229 0100     		.2byte	0x1
 13207 222b 55       		.byte	0x55
ARM GAS  /tmp/cchgQdZS.s 			page 235


 13208 222c 20000000 		.4byte	.LVL401
 13209 2230 28000000 		.4byte	.LVL403
 13210 2234 0800     		.2byte	0x8
 13211 2236 73       		.byte	0x73
 13212 2237 00       		.sleb128 0
 13213 2238 34       		.byte	0x34
 13214 2239 24       		.byte	0x24
 13215 223a 75       		.byte	0x75
 13216 223b 00       		.sleb128 0
 13217 223c 21       		.byte	0x21
 13218 223d 9F       		.byte	0x9f
 13219 223e 00000000 		.4byte	0
 13220 2242 00000000 		.4byte	0
 13221              	.LLST178:
 13222 2246 08000000 		.4byte	.LVL397
 13223 224a 1C000000 		.4byte	.LVL400
 13224 224e 0200     		.2byte	0x2
 13225 2250 30       		.byte	0x30
 13226 2251 9F       		.byte	0x9f
 13227 2252 1C000000 		.4byte	.LVL400
 13228 2256 20000000 		.4byte	.LVL401
 13229 225a 0100     		.2byte	0x1
 13230 225c 54       		.byte	0x54
 13231 225d 20000000 		.4byte	.LVL401
 13232 2261 24000000 		.4byte	.LVL402
 13233 2265 0600     		.2byte	0x6
 13234 2267 74       		.byte	0x74
 13235 2268 00       		.sleb128 0
 13236 2269 09       		.byte	0x9
 13237 226a F5       		.byte	0xf5
 13238 226b 1A       		.byte	0x1a
 13239 226c 9F       		.byte	0x9f
 13240 226d 2C000000 		.4byte	.LVL404
 13241 2271 30000000 		.4byte	.LVL405
 13242 2275 0600     		.2byte	0x6
 13243 2277 74       		.byte	0x74
 13244 2278 00       		.sleb128 0
 13245 2279 72       		.byte	0x72
 13246 227a 00       		.sleb128 0
 13247 227b 21       		.byte	0x21
 13248 227c 9F       		.byte	0x9f
 13249 227d 00000000 		.4byte	0
 13250 2281 00000000 		.4byte	0
 13251              	.LLST179:
 13252 2285 34000000 		.4byte	.LVL406
 13253 2289 4C000000 		.4byte	.LVL410
 13254 228d 0100     		.2byte	0x1
 13255 228f 51       		.byte	0x51
 13256 2290 00000000 		.4byte	0
 13257 2294 00000000 		.4byte	0
 13258              	.LLST180:
 13259 2298 34000000 		.4byte	.LVL406
 13260 229c 4C000000 		.4byte	.LVL410
 13261 22a0 0100     		.2byte	0x1
 13262 22a2 50       		.byte	0x50
 13263 22a3 00000000 		.4byte	0
 13264 22a7 00000000 		.4byte	0
ARM GAS  /tmp/cchgQdZS.s 			page 236


 13265              	.LLST181:
 13266 22ab 34000000 		.4byte	.LVL406
 13267 22af 36000000 		.4byte	.LVL407
 13268 22b3 0200     		.2byte	0x2
 13269 22b5 30       		.byte	0x30
 13270 22b6 9F       		.byte	0x9f
 13271 22b7 36000000 		.4byte	.LVL407
 13272 22bb 3C000000 		.4byte	.LVL408
 13273 22bf 0100     		.2byte	0x1
 13274 22c1 52       		.byte	0x52
 13275 22c2 3C000000 		.4byte	.LVL408
 13276 22c6 3E000000 		.4byte	.LVL409
 13277 22ca 0600     		.2byte	0x6
 13278 22cc 71       		.byte	0x71
 13279 22cd 00       		.sleb128 0
 13280 22ce 73       		.byte	0x73
 13281 22cf 00       		.sleb128 0
 13282 22d0 21       		.byte	0x21
 13283 22d1 9F       		.byte	0x9f
 13284 22d2 3E000000 		.4byte	.LVL409
 13285 22d6 4C000000 		.4byte	.LVL410
 13286 22da 0A00     		.2byte	0xa
 13287 22dc 72       		.byte	0x72
 13288 22dd 00       		.sleb128 0
 13289 22de 0A       		.byte	0xa
 13290 22df 8FFF     		.2byte	0xff8f
 13291 22e1 1A       		.byte	0x1a
 13292 22e2 71       		.byte	0x71
 13293 22e3 00       		.sleb128 0
 13294 22e4 21       		.byte	0x21
 13295 22e5 9F       		.byte	0x9f
 13296 22e6 00000000 		.4byte	0
 13297 22ea 00000000 		.4byte	0
 13298              	.LLST182:
 13299 22ee 00000000 		.4byte	.LVL419
 13300 22f2 10000000 		.4byte	.LVL424
 13301 22f6 0100     		.2byte	0x1
 13302 22f8 51       		.byte	0x51
 13303 22f9 10000000 		.4byte	.LVL424
 13304 22fd 26000000 		.4byte	.LFE190
 13305 2301 0400     		.2byte	0x4
 13306 2303 F3       		.byte	0xf3
 13307 2304 01       		.uleb128 0x1
 13308 2305 51       		.byte	0x51
 13309 2306 9F       		.byte	0x9f
 13310 2307 00000000 		.4byte	0
 13311 230b 00000000 		.4byte	0
 13312              	.LLST183:
 13313 230f 00000000 		.4byte	.LVL419
 13314 2313 08000000 		.4byte	.LVL421
 13315 2317 0100     		.2byte	0x1
 13316 2319 53       		.byte	0x53
 13317 231a 08000000 		.4byte	.LVL421
 13318 231e 26000000 		.4byte	.LFE190
 13319 2322 0400     		.2byte	0x4
 13320 2324 F3       		.byte	0xf3
 13321 2325 01       		.uleb128 0x1
ARM GAS  /tmp/cchgQdZS.s 			page 237


 13322 2326 53       		.byte	0x53
 13323 2327 9F       		.byte	0x9f
 13324 2328 00000000 		.4byte	0
 13325 232c 00000000 		.4byte	0
 13326              	.LLST184:
 13327 2330 00000000 		.4byte	.LVL419
 13328 2334 14000000 		.4byte	.LVL425
 13329 2338 0200     		.2byte	0x2
 13330 233a 30       		.byte	0x30
 13331 233b 9F       		.byte	0x9f
 13332 233c 14000000 		.4byte	.LVL425
 13333 2340 1C000000 		.4byte	.LVL426
 13334 2344 0500     		.2byte	0x5
 13335 2346 73       		.byte	0x73
 13336 2347 00       		.sleb128 0
 13337 2348 37       		.byte	0x37
 13338 2349 21       		.byte	0x21
 13339 234a 9F       		.byte	0x9f
 13340 234b 1E000000 		.4byte	.LVL427
 13341 234f 22000000 		.4byte	.LVL428
 13342 2353 0600     		.2byte	0x6
 13343 2355 73       		.byte	0x73
 13344 2356 00       		.sleb128 0
 13345 2357 08       		.byte	0x8
 13346 2358 77       		.byte	0x77
 13347 2359 21       		.byte	0x21
 13348 235a 9F       		.byte	0x9f
 13349 235b 00000000 		.4byte	0
 13350 235f 00000000 		.4byte	0
 13351              	.LLST187:
 13352 2363 00000000 		.4byte	.LVL419
 13353 2367 04000000 		.4byte	.LVL420
 13354 236b 0200     		.2byte	0x2
 13355 236d 30       		.byte	0x30
 13356 236e 9F       		.byte	0x9f
 13357 236f 04000000 		.4byte	.LVL420
 13358 2373 0A000000 		.4byte	.LVL422
 13359 2377 0600     		.2byte	0x6
 13360 2379 74       		.byte	0x74
 13361 237a 00       		.sleb128 0
 13362 237b 08       		.byte	0x8
 13363 237c FF       		.byte	0xff
 13364 237d 1A       		.byte	0x1a
 13365 237e 9F       		.byte	0x9f
 13366 237f 0E000000 		.4byte	.LVL423
 13367 2383 10000000 		.4byte	.LVL424
 13368 2387 0600     		.2byte	0x6
 13369 2389 71       		.byte	0x71
 13370 238a 00       		.sleb128 0
 13371 238b 73       		.byte	0x73
 13372 238c 00       		.sleb128 0
 13373 238d 21       		.byte	0x21
 13374 238e 9F       		.byte	0x9f
 13375 238f 10000000 		.4byte	.LVL424
 13376 2393 14000000 		.4byte	.LVL425
 13377 2397 0700     		.2byte	0x7
 13378 2399 F3       		.byte	0xf3
ARM GAS  /tmp/cchgQdZS.s 			page 238


 13379 239a 01       		.uleb128 0x1
 13380 239b 51       		.byte	0x51
 13381 239c 73       		.byte	0x73
 13382 239d 00       		.sleb128 0
 13383 239e 21       		.byte	0x21
 13384 239f 9F       		.byte	0x9f
 13385 23a0 00000000 		.4byte	0
 13386 23a4 00000000 		.4byte	0
 13387              	.LLST188:
 13388 23a8 00000000 		.4byte	.LVL429
 13389 23ac 10000000 		.4byte	.LVL434
 13390 23b0 0100     		.2byte	0x1
 13391 23b2 51       		.byte	0x51
 13392 23b3 10000000 		.4byte	.LVL434
 13393 23b7 20000000 		.4byte	.LFE191
 13394 23bb 0400     		.2byte	0x4
 13395 23bd F3       		.byte	0xf3
 13396 23be 01       		.uleb128 0x1
 13397 23bf 51       		.byte	0x51
 13398 23c0 9F       		.byte	0x9f
 13399 23c1 00000000 		.4byte	0
 13400 23c5 00000000 		.4byte	0
 13401              	.LLST189:
 13402 23c9 00000000 		.4byte	.LVL429
 13403 23cd 08000000 		.4byte	.LVL431
 13404 23d1 0100     		.2byte	0x1
 13405 23d3 53       		.byte	0x53
 13406 23d4 08000000 		.4byte	.LVL431
 13407 23d8 20000000 		.4byte	.LFE191
 13408 23dc 0400     		.2byte	0x4
 13409 23de F3       		.byte	0xf3
 13410 23df 01       		.uleb128 0x1
 13411 23e0 53       		.byte	0x53
 13412 23e1 9F       		.byte	0x9f
 13413 23e2 00000000 		.4byte	0
 13414 23e6 00000000 		.4byte	0
 13415              	.LLST192:
 13416 23ea 00000000 		.4byte	.LVL429
 13417 23ee 04000000 		.4byte	.LVL430
 13418 23f2 0200     		.2byte	0x2
 13419 23f4 30       		.byte	0x30
 13420 23f5 9F       		.byte	0x9f
 13421 23f6 04000000 		.4byte	.LVL430
 13422 23fa 0A000000 		.4byte	.LVL432
 13423 23fe 0600     		.2byte	0x6
 13424 2400 74       		.byte	0x74
 13425 2401 00       		.sleb128 0
 13426 2402 08       		.byte	0x8
 13427 2403 FF       		.byte	0xff
 13428 2404 1A       		.byte	0x1a
 13429 2405 9F       		.byte	0x9f
 13430 2406 0E000000 		.4byte	.LVL433
 13431 240a 10000000 		.4byte	.LVL434
 13432 240e 0600     		.2byte	0x6
 13433 2410 71       		.byte	0x71
 13434 2411 00       		.sleb128 0
 13435 2412 73       		.byte	0x73
ARM GAS  /tmp/cchgQdZS.s 			page 239


 13436 2413 00       		.sleb128 0
 13437 2414 21       		.byte	0x21
 13438 2415 9F       		.byte	0x9f
 13439 2416 10000000 		.4byte	.LVL434
 13440 241a 14000000 		.4byte	.LVL435
 13441 241e 0700     		.2byte	0x7
 13442 2420 F3       		.byte	0xf3
 13443 2421 01       		.uleb128 0x1
 13444 2422 51       		.byte	0x51
 13445 2423 73       		.byte	0x73
 13446 2424 00       		.sleb128 0
 13447 2425 21       		.byte	0x21
 13448 2426 9F       		.byte	0x9f
 13449 2427 00000000 		.4byte	0
 13450 242b 00000000 		.4byte	0
 13451              	.LLST193:
 13452 242f 00000000 		.4byte	.LVL436
 13453 2433 0A000000 		.4byte	.LVL439
 13454 2437 0100     		.2byte	0x1
 13455 2439 51       		.byte	0x51
 13456 243a 0A000000 		.4byte	.LVL439
 13457 243e 0E000000 		.4byte	.LFE192
 13458 2442 0400     		.2byte	0x4
 13459 2444 F3       		.byte	0xf3
 13460 2445 01       		.uleb128 0x1
 13461 2446 51       		.byte	0x51
 13462 2447 9F       		.byte	0x9f
 13463 2448 00000000 		.4byte	0
 13464 244c 00000000 		.4byte	0
 13465              	.LLST194:
 13466 2450 00000000 		.4byte	.LVL436
 13467 2454 02000000 		.4byte	.LVL437
 13468 2458 0200     		.2byte	0x2
 13469 245a 30       		.byte	0x30
 13470 245b 9F       		.byte	0x9f
 13471 245c 02000000 		.4byte	.LVL437
 13472 2460 08000000 		.4byte	.LVL438
 13473 2464 0100     		.2byte	0x1
 13474 2466 52       		.byte	0x52
 13475 2467 08000000 		.4byte	.LVL438
 13476 246b 0A000000 		.4byte	.LVL439
 13477 246f 0600     		.2byte	0x6
 13478 2471 71       		.byte	0x71
 13479 2472 00       		.sleb128 0
 13480 2473 73       		.byte	0x73
 13481 2474 00       		.sleb128 0
 13482 2475 21       		.byte	0x21
 13483 2476 9F       		.byte	0x9f
 13484 2477 0A000000 		.4byte	.LVL439
 13485 247b 0E000000 		.4byte	.LFE192
 13486 247f 0700     		.2byte	0x7
 13487 2481 F3       		.byte	0xf3
 13488 2482 01       		.uleb128 0x1
 13489 2483 51       		.byte	0x51
 13490 2484 73       		.byte	0x73
 13491 2485 00       		.sleb128 0
 13492 2486 21       		.byte	0x21
ARM GAS  /tmp/cchgQdZS.s 			page 240


 13493 2487 9F       		.byte	0x9f
 13494 2488 00000000 		.4byte	0
 13495 248c 00000000 		.4byte	0
 13496              	.LLST195:
 13497 2490 00000000 		.4byte	.LVL440
 13498 2494 0E000000 		.4byte	.LVL441
 13499 2498 0100     		.2byte	0x1
 13500 249a 51       		.byte	0x51
 13501 249b 0E000000 		.4byte	.LVL441
 13502 249f 12000000 		.4byte	.LFE193
 13503 24a3 0400     		.2byte	0x4
 13504 24a5 F3       		.byte	0xf3
 13505 24a6 01       		.uleb128 0x1
 13506 24a7 51       		.byte	0x51
 13507 24a8 9F       		.byte	0x9f
 13508 24a9 00000000 		.4byte	0
 13509 24ad 00000000 		.4byte	0
 13510              	.LLST196:
 13511 24b1 00000000 		.4byte	.LVL442
 13512 24b5 0E000000 		.4byte	.LVL443
 13513 24b9 0100     		.2byte	0x1
 13514 24bb 51       		.byte	0x51
 13515 24bc 0E000000 		.4byte	.LVL443
 13516 24c0 12000000 		.4byte	.LFE194
 13517 24c4 0400     		.2byte	0x4
 13518 24c6 F3       		.byte	0xf3
 13519 24c7 01       		.uleb128 0x1
 13520 24c8 51       		.byte	0x51
 13521 24c9 9F       		.byte	0x9f
 13522 24ca 00000000 		.4byte	0
 13523 24ce 00000000 		.4byte	0
 13524              	.LLST197:
 13525 24d2 00000000 		.4byte	.LVL444
 13526 24d6 0E000000 		.4byte	.LVL445
 13527 24da 0100     		.2byte	0x1
 13528 24dc 51       		.byte	0x51
 13529 24dd 0E000000 		.4byte	.LVL445
 13530 24e1 12000000 		.4byte	.LFE195
 13531 24e5 0400     		.2byte	0x4
 13532 24e7 F3       		.byte	0xf3
 13533 24e8 01       		.uleb128 0x1
 13534 24e9 51       		.byte	0x51
 13535 24ea 9F       		.byte	0x9f
 13536 24eb 00000000 		.4byte	0
 13537 24ef 00000000 		.4byte	0
 13538              	.LLST198:
 13539 24f3 00000000 		.4byte	.LVL446
 13540 24f7 08000000 		.4byte	.LVL449
 13541 24fb 0100     		.2byte	0x1
 13542 24fd 51       		.byte	0x51
 13543 24fe 08000000 		.4byte	.LVL449
 13544 2502 18000000 		.4byte	.LFE196
 13545 2506 0400     		.2byte	0x4
 13546 2508 F3       		.byte	0xf3
 13547 2509 01       		.uleb128 0x1
 13548 250a 51       		.byte	0x51
 13549 250b 9F       		.byte	0x9f
ARM GAS  /tmp/cchgQdZS.s 			page 241


 13550 250c 00000000 		.4byte	0
 13551 2510 00000000 		.4byte	0
 13552              	.LLST199:
 13553 2514 00000000 		.4byte	.LVL446
 13554 2518 0A000000 		.4byte	.LVL450
 13555 251c 0100     		.2byte	0x1
 13556 251e 52       		.byte	0x52
 13557 251f 0A000000 		.4byte	.LVL450
 13558 2523 18000000 		.4byte	.LFE196
 13559 2527 0400     		.2byte	0x4
 13560 2529 F3       		.byte	0xf3
 13561 252a 01       		.uleb128 0x1
 13562 252b 52       		.byte	0x52
 13563 252c 9F       		.byte	0x9f
 13564 252d 00000000 		.4byte	0
 13565 2531 00000000 		.4byte	0
 13566              	.LLST200:
 13567 2535 00000000 		.4byte	.LVL446
 13568 2539 0E000000 		.4byte	.LVL451
 13569 253d 0100     		.2byte	0x1
 13570 253f 53       		.byte	0x53
 13571 2540 0E000000 		.4byte	.LVL451
 13572 2544 18000000 		.4byte	.LFE196
 13573 2548 0400     		.2byte	0x4
 13574 254a F3       		.byte	0xf3
 13575 254b 01       		.uleb128 0x1
 13576 254c 53       		.byte	0x53
 13577 254d 9F       		.byte	0x9f
 13578 254e 00000000 		.4byte	0
 13579 2552 00000000 		.4byte	0
 13580              	.LLST201:
 13581 2556 00000000 		.4byte	.LVL446
 13582 255a 04000000 		.4byte	.LVL447
 13583 255e 0200     		.2byte	0x2
 13584 2560 30       		.byte	0x30
 13585 2561 9F       		.byte	0x9f
 13586 2562 04000000 		.4byte	.LVL447
 13587 2566 06000000 		.4byte	.LVL448
 13588 256a 0600     		.2byte	0x6
 13589 256c 74       		.byte	0x74
 13590 256d 00       		.sleb128 0
 13591 256e 08       		.byte	0x8
 13592 256f FF       		.byte	0xff
 13593 2570 1A       		.byte	0x1a
 13594 2571 9F       		.byte	0x9f
 13595 2572 0A000000 		.4byte	.LVL450
 13596 2576 0E000000 		.4byte	.LVL451
 13597 257a 0800     		.2byte	0x8
 13598 257c 73       		.byte	0x73
 13599 257d 00       		.sleb128 0
 13600 257e 38       		.byte	0x38
 13601 257f 24       		.byte	0x24
 13602 2580 72       		.byte	0x72
 13603 2581 00       		.sleb128 0
 13604 2582 21       		.byte	0x21
 13605 2583 9F       		.byte	0x9f
 13606 2584 0E000000 		.4byte	.LVL451
ARM GAS  /tmp/cchgQdZS.s 			page 242


 13607 2588 18000000 		.4byte	.LFE196
 13608 258c 0900     		.2byte	0x9
 13609 258e F3       		.byte	0xf3
 13610 258f 01       		.uleb128 0x1
 13611 2590 53       		.byte	0x53
 13612 2591 38       		.byte	0x38
 13613 2592 24       		.byte	0x24
 13614 2593 72       		.byte	0x72
 13615 2594 00       		.sleb128 0
 13616 2595 21       		.byte	0x21
 13617 2596 9F       		.byte	0x9f
 13618 2597 00000000 		.4byte	0
 13619 259b 00000000 		.4byte	0
 13620              	.LLST202:
 13621 259f 00000000 		.4byte	.LVL452
 13622 25a3 2A000000 		.4byte	.LVL461
 13623 25a7 0100     		.2byte	0x1
 13624 25a9 51       		.byte	0x51
 13625 25aa 2A000000 		.4byte	.LVL461
 13626 25ae 3A000000 		.4byte	.LFE197
 13627 25b2 0400     		.2byte	0x4
 13628 25b4 F3       		.byte	0xf3
 13629 25b5 01       		.uleb128 0x1
 13630 25b6 51       		.byte	0x51
 13631 25b7 9F       		.byte	0x9f
 13632 25b8 00000000 		.4byte	0
 13633 25bc 00000000 		.4byte	0
 13634              	.LLST203:
 13635 25c0 00000000 		.4byte	.LVL452
 13636 25c4 1E000000 		.4byte	.LVL457
 13637 25c8 0100     		.2byte	0x1
 13638 25ca 52       		.byte	0x52
 13639 25cb 1E000000 		.4byte	.LVL457
 13640 25cf 3A000000 		.4byte	.LFE197
 13641 25d3 0400     		.2byte	0x4
 13642 25d5 F3       		.byte	0xf3
 13643 25d6 01       		.uleb128 0x1
 13644 25d7 52       		.byte	0x52
 13645 25d8 9F       		.byte	0x9f
 13646 25d9 00000000 		.4byte	0
 13647 25dd 00000000 		.4byte	0
 13648              	.LLST204:
 13649 25e1 00000000 		.4byte	.LVL452
 13650 25e5 24000000 		.4byte	.LVL459
 13651 25e9 0100     		.2byte	0x1
 13652 25eb 53       		.byte	0x53
 13653 25ec 24000000 		.4byte	.LVL459
 13654 25f0 3A000000 		.4byte	.LFE197
 13655 25f4 0400     		.2byte	0x4
 13656 25f6 F3       		.byte	0xf3
 13657 25f7 01       		.uleb128 0x1
 13658 25f8 53       		.byte	0x53
 13659 25f9 9F       		.byte	0x9f
 13660 25fa 00000000 		.4byte	0
 13661 25fe 00000000 		.4byte	0
 13662              	.LLST205:
 13663 2602 00000000 		.4byte	.LVL452
ARM GAS  /tmp/cchgQdZS.s 			page 243


 13664 2606 04000000 		.4byte	.LVL453
 13665 260a 0200     		.2byte	0x2
 13666 260c 30       		.byte	0x30
 13667 260d 9F       		.byte	0x9f
 13668 260e 04000000 		.4byte	.LVL453
 13669 2612 20000000 		.4byte	.LVL458
 13670 2616 0100     		.2byte	0x1
 13671 2618 56       		.byte	0x56
 13672 2619 20000000 		.4byte	.LVL458
 13673 261d 2A000000 		.4byte	.LVL461
 13674 2621 0600     		.2byte	0x6
 13675 2623 71       		.byte	0x71
 13676 2624 00       		.sleb128 0
 13677 2625 74       		.byte	0x74
 13678 2626 00       		.sleb128 0
 13679 2627 21       		.byte	0x21
 13680 2628 9F       		.byte	0x9f
 13681 2629 2A000000 		.4byte	.LVL461
 13682 262d 38000000 		.4byte	.LVL462
 13683 2631 0700     		.2byte	0x7
 13684 2633 F3       		.byte	0xf3
 13685 2634 01       		.uleb128 0x1
 13686 2635 51       		.byte	0x51
 13687 2636 74       		.byte	0x74
 13688 2637 00       		.sleb128 0
 13689 2638 21       		.byte	0x21
 13690 2639 9F       		.byte	0x9f
 13691 263a 00000000 		.4byte	0
 13692 263e 00000000 		.4byte	0
 13693              	.LLST206:
 13694 2642 00000000 		.4byte	.LVL452
 13695 2646 06000000 		.4byte	.LVL454
 13696 264a 0200     		.2byte	0x2
 13697 264c 30       		.byte	0x30
 13698 264d 9F       		.byte	0x9f
 13699 264e 06000000 		.4byte	.LVL454
 13700 2652 20000000 		.4byte	.LVL458
 13701 2656 0100     		.2byte	0x1
 13702 2658 57       		.byte	0x57
 13703 2659 20000000 		.4byte	.LVL458
 13704 265d 28000000 		.4byte	.LVL460
 13705 2661 0700     		.2byte	0x7
 13706 2663 75       		.byte	0x75
 13707 2664 00       		.sleb128 0
 13708 2665 0A       		.byte	0xa
 13709 2666 0101     		.2byte	0x101
 13710 2668 21       		.byte	0x21
 13711 2669 9F       		.byte	0x9f
 13712 266a 28000000 		.4byte	.LVL460
 13713 266e 38000000 		.4byte	.LVL462
 13714 2672 0B00     		.2byte	0xb
 13715 2674 77       		.byte	0x77
 13716 2675 00       		.sleb128 0
 13717 2676 0A       		.byte	0xa
 13718 2677 FCFC     		.2byte	0xfcfc
 13719 2679 1A       		.byte	0x1a
 13720 267a 0A       		.byte	0xa
ARM GAS  /tmp/cchgQdZS.s 			page 244


 13721 267b 0101     		.2byte	0x101
 13722 267d 21       		.byte	0x21
 13723 267e 9F       		.byte	0x9f
 13724 267f 00000000 		.4byte	0
 13725 2683 00000000 		.4byte	0
 13726              	.LLST207:
 13727 2687 00000000 		.4byte	.LVL452
 13728 268b 0C000000 		.4byte	.LVL455
 13729 268f 0200     		.2byte	0x2
 13730 2691 30       		.byte	0x30
 13731 2692 9F       		.byte	0x9f
 13732 2693 0C000000 		.4byte	.LVL455
 13733 2697 1A000000 		.4byte	.LVL456
 13734 269b 0100     		.2byte	0x1
 13735 269d 54       		.byte	0x54
 13736 269e 20000000 		.4byte	.LVL458
 13737 26a2 24000000 		.4byte	.LVL459
 13738 26a6 0800     		.2byte	0x8
 13739 26a8 73       		.byte	0x73
 13740 26a9 00       		.sleb128 0
 13741 26aa 34       		.byte	0x34
 13742 26ab 24       		.byte	0x24
 13743 26ac 72       		.byte	0x72
 13744 26ad 00       		.sleb128 0
 13745 26ae 21       		.byte	0x21
 13746 26af 9F       		.byte	0x9f
 13747 26b0 24000000 		.4byte	.LVL459
 13748 26b4 3A000000 		.4byte	.LFE197
 13749 26b8 0900     		.2byte	0x9
 13750 26ba F3       		.byte	0xf3
 13751 26bb 01       		.uleb128 0x1
 13752 26bc 53       		.byte	0x53
 13753 26bd 34       		.byte	0x34
 13754 26be 24       		.byte	0x24
 13755 26bf 72       		.byte	0x72
 13756 26c0 00       		.sleb128 0
 13757 26c1 21       		.byte	0x21
 13758 26c2 9F       		.byte	0x9f
 13759 26c3 00000000 		.4byte	0
 13760 26c7 00000000 		.4byte	0
 13761              		.section	.debug_aranges,"",%progbits
 13762 0000 D4020000 		.4byte	0x2d4
 13763 0004 0200     		.2byte	0x2
 13764 0006 00000000 		.4byte	.Ldebug_info0
 13765 000a 04       		.byte	0x4
 13766 000b 00       		.byte	0
 13767 000c 0000     		.2byte	0
 13768 000e 0000     		.2byte	0
 13769 0010 00000000 		.4byte	.LFB112
 13770 0014 B8010000 		.4byte	.LFE112-.LFB112
 13771 0018 00000000 		.4byte	.LFB113
 13772 001c 9C000000 		.4byte	.LFE113-.LFB113
 13773 0020 00000000 		.4byte	.LFB114
 13774 0024 12000000 		.4byte	.LFE114-.LFB114
 13775 0028 00000000 		.4byte	.LFB115
 13776 002c 06000000 		.4byte	.LFE115-.LFB115
 13777 0030 00000000 		.4byte	.LFB116
ARM GAS  /tmp/cchgQdZS.s 			page 245


 13778 0034 0E000000 		.4byte	.LFE116-.LFB116
 13779 0038 00000000 		.4byte	.LFB117
 13780 003c 04000000 		.4byte	.LFE117-.LFB117
 13781 0040 00000000 		.4byte	.LFB118
 13782 0044 04000000 		.4byte	.LFE118-.LFB118
 13783 0048 00000000 		.4byte	.LFB119
 13784 004c 04000000 		.4byte	.LFE119-.LFB119
 13785 0050 00000000 		.4byte	.LFB120
 13786 0054 06000000 		.4byte	.LFE120-.LFB120
 13787 0058 00000000 		.4byte	.LFB121
 13788 005c 18000000 		.4byte	.LFE121-.LFB121
 13789 0060 00000000 		.4byte	.LFB122
 13790 0064 18000000 		.4byte	.LFE122-.LFB122
 13791 0068 00000000 		.4byte	.LFB123
 13792 006c 18000000 		.4byte	.LFE123-.LFB123
 13793 0070 00000000 		.4byte	.LFB124
 13794 0074 12000000 		.4byte	.LFE124-.LFB124
 13795 0078 00000000 		.4byte	.LFB125
 13796 007c 12000000 		.4byte	.LFE125-.LFB125
 13797 0080 00000000 		.4byte	.LFB126
 13798 0084 18000000 		.4byte	.LFE126-.LFB126
 13799 0088 00000000 		.4byte	.LFB127
 13800 008c 84000000 		.4byte	.LFE127-.LFB127
 13801 0090 00000000 		.4byte	.LFB128
 13802 0094 94000000 		.4byte	.LFE128-.LFB128
 13803 0098 00000000 		.4byte	.LFB129
 13804 009c 90000000 		.4byte	.LFE129-.LFB129
 13805 00a0 00000000 		.4byte	.LFB130
 13806 00a4 74000000 		.4byte	.LFE130-.LFB130
 13807 00a8 00000000 		.4byte	.LFB131
 13808 00ac 14000000 		.4byte	.LFE131-.LFB131
 13809 00b0 00000000 		.4byte	.LFB132
 13810 00b4 50000000 		.4byte	.LFE132-.LFB132
 13811 00b8 00000000 		.4byte	.LFB133
 13812 00bc 04000000 		.4byte	.LFE133-.LFB133
 13813 00c0 00000000 		.4byte	.LFB134
 13814 00c4 04000000 		.4byte	.LFE134-.LFB134
 13815 00c8 00000000 		.4byte	.LFB135
 13816 00cc 04000000 		.4byte	.LFE135-.LFB135
 13817 00d0 00000000 		.4byte	.LFB136
 13818 00d4 04000000 		.4byte	.LFE136-.LFB136
 13819 00d8 00000000 		.4byte	.LFB137
 13820 00dc 0E000000 		.4byte	.LFE137-.LFB137
 13821 00e0 00000000 		.4byte	.LFB138
 13822 00e4 12000000 		.4byte	.LFE138-.LFB138
 13823 00e8 00000000 		.4byte	.LFB139
 13824 00ec 0E000000 		.4byte	.LFE139-.LFB139
 13825 00f0 00000000 		.4byte	.LFB140
 13826 00f4 12000000 		.4byte	.LFE140-.LFB140
 13827 00f8 00000000 		.4byte	.LFB141
 13828 00fc 0E000000 		.4byte	.LFE141-.LFB141
 13829 0100 00000000 		.4byte	.LFB142
 13830 0104 12000000 		.4byte	.LFE142-.LFB142
 13831 0108 00000000 		.4byte	.LFB143
 13832 010c 0E000000 		.4byte	.LFE143-.LFB143
 13833 0110 00000000 		.4byte	.LFB144
 13834 0114 12000000 		.4byte	.LFE144-.LFB144
ARM GAS  /tmp/cchgQdZS.s 			page 246


 13835 0118 00000000 		.4byte	.LFB145
 13836 011c 0E000000 		.4byte	.LFE145-.LFB145
 13837 0120 00000000 		.4byte	.LFB146
 13838 0124 12000000 		.4byte	.LFE146-.LFB146
 13839 0128 00000000 		.4byte	.LFB147
 13840 012c 0E000000 		.4byte	.LFE147-.LFB147
 13841 0130 00000000 		.4byte	.LFB148
 13842 0134 12000000 		.4byte	.LFE148-.LFB148
 13843 0138 00000000 		.4byte	.LFB149
 13844 013c 0E000000 		.4byte	.LFE149-.LFB149
 13845 0140 00000000 		.4byte	.LFB150
 13846 0144 10000000 		.4byte	.LFE150-.LFB150
 13847 0148 00000000 		.4byte	.LFB151
 13848 014c 0E000000 		.4byte	.LFE151-.LFB151
 13849 0150 00000000 		.4byte	.LFB152
 13850 0154 10000000 		.4byte	.LFE152-.LFB152
 13851 0158 00000000 		.4byte	.LFB153
 13852 015c 0E000000 		.4byte	.LFE153-.LFB153
 13853 0160 00000000 		.4byte	.LFB154
 13854 0164 0E000000 		.4byte	.LFE154-.LFB154
 13855 0168 00000000 		.4byte	.LFB155
 13856 016c 12000000 		.4byte	.LFE155-.LFB155
 13857 0170 00000000 		.4byte	.LFB156
 13858 0174 12000000 		.4byte	.LFE156-.LFB156
 13859 0178 00000000 		.4byte	.LFB157
 13860 017c 12000000 		.4byte	.LFE157-.LFB157
 13861 0180 00000000 		.4byte	.LFB158
 13862 0184 12000000 		.4byte	.LFE158-.LFB158
 13863 0188 00000000 		.4byte	.LFB159
 13864 018c 12000000 		.4byte	.LFE159-.LFB159
 13865 0190 00000000 		.4byte	.LFB160
 13866 0194 20000000 		.4byte	.LFE160-.LFB160
 13867 0198 00000000 		.4byte	.LFB161
 13868 019c 20000000 		.4byte	.LFE161-.LFB161
 13869 01a0 00000000 		.4byte	.LFB162
 13870 01a4 4E010000 		.4byte	.LFE162-.LFB162
 13871 01a8 00000000 		.4byte	.LFB163
 13872 01ac 10000000 		.4byte	.LFE163-.LFB163
 13873 01b0 00000000 		.4byte	.LFB164
 13874 01b4 4A010000 		.4byte	.LFE164-.LFB164
 13875 01b8 00000000 		.4byte	.LFB165
 13876 01bc 04000000 		.4byte	.LFE165-.LFB165
 13877 01c0 00000000 		.4byte	.LFB166
 13878 01c4 04000000 		.4byte	.LFE166-.LFB166
 13879 01c8 00000000 		.4byte	.LFB167
 13880 01cc 04000000 		.4byte	.LFE167-.LFB167
 13881 01d0 00000000 		.4byte	.LFB168
 13882 01d4 04000000 		.4byte	.LFE168-.LFB168
 13883 01d8 00000000 		.4byte	.LFB169
 13884 01dc 12000000 		.4byte	.LFE169-.LFB169
 13885 01e0 00000000 		.4byte	.LFB170
 13886 01e4 16000000 		.4byte	.LFE170-.LFB170
 13887 01e8 00000000 		.4byte	.LFB171
 13888 01ec 12000000 		.4byte	.LFE171-.LFB171
 13889 01f0 00000000 		.4byte	.LFB172
 13890 01f4 16000000 		.4byte	.LFE172-.LFB172
 13891 01f8 00000000 		.4byte	.LFB173
ARM GAS  /tmp/cchgQdZS.s 			page 247


 13892 01fc 28000000 		.4byte	.LFE173-.LFB173
 13893 0200 00000000 		.4byte	.LFB174
 13894 0204 12000000 		.4byte	.LFE174-.LFB174
 13895 0208 00000000 		.4byte	.LFB175
 13896 020c 14000000 		.4byte	.LFE175-.LFB175
 13897 0210 00000000 		.4byte	.LFB176
 13898 0214 18000000 		.4byte	.LFE176-.LFB176
 13899 0218 00000000 		.4byte	.LFB177
 13900 021c 18000000 		.4byte	.LFE177-.LFB177
 13901 0220 00000000 		.4byte	.LFB178
 13902 0224 16000000 		.4byte	.LFE178-.LFB178
 13903 0228 00000000 		.4byte	.LFB179
 13904 022c 04000000 		.4byte	.LFE179-.LFB179
 13905 0230 00000000 		.4byte	.LFB180
 13906 0234 0C000000 		.4byte	.LFE180-.LFB180
 13907 0238 00000000 		.4byte	.LFB181
 13908 023c 08000000 		.4byte	.LFE181-.LFB181
 13909 0240 00000000 		.4byte	.LFB182
 13910 0244 14000000 		.4byte	.LFE182-.LFB182
 13911 0248 00000000 		.4byte	.LFB183
 13912 024c 08000000 		.4byte	.LFE183-.LFB183
 13913 0250 00000000 		.4byte	.LFB184
 13914 0254 06000000 		.4byte	.LFE184-.LFB184
 13915 0258 00000000 		.4byte	.LFB185
 13916 025c 16000000 		.4byte	.LFE185-.LFB185
 13917 0260 00000000 		.4byte	.LFB186
 13918 0264 18000000 		.4byte	.LFE186-.LFB186
 13919 0268 00000000 		.4byte	.LFB187
 13920 026c 0C000000 		.4byte	.LFE187-.LFB187
 13921 0270 00000000 		.4byte	.LFB188
 13922 0274 16000000 		.4byte	.LFE188-.LFB188
 13923 0278 00000000 		.4byte	.LFB189
 13924 027c 7E000000 		.4byte	.LFE189-.LFB189
 13925 0280 00000000 		.4byte	.LFB190
 13926 0284 26000000 		.4byte	.LFE190-.LFB190
 13927 0288 00000000 		.4byte	.LFB191
 13928 028c 20000000 		.4byte	.LFE191-.LFB191
 13929 0290 00000000 		.4byte	.LFB192
 13930 0294 0E000000 		.4byte	.LFE192-.LFB192
 13931 0298 00000000 		.4byte	.LFB193
 13932 029c 12000000 		.4byte	.LFE193-.LFB193
 13933 02a0 00000000 		.4byte	.LFB194
 13934 02a4 12000000 		.4byte	.LFE194-.LFB194
 13935 02a8 00000000 		.4byte	.LFB195
 13936 02ac 12000000 		.4byte	.LFE195-.LFB195
 13937 02b0 00000000 		.4byte	.LFB196
 13938 02b4 18000000 		.4byte	.LFE196-.LFB196
 13939 02b8 00000000 		.4byte	.LFB197
 13940 02bc 3A000000 		.4byte	.LFE197-.LFB197
 13941 02c0 00000000 		.4byte	.LFB198
 13942 02c4 18000000 		.4byte	.LFE198-.LFB198
 13943 02c8 00000000 		.4byte	.LFB199
 13944 02cc 04000000 		.4byte	.LFE199-.LFB199
 13945 02d0 00000000 		.4byte	0
 13946 02d4 00000000 		.4byte	0
 13947              		.section	.debug_ranges,"",%progbits
 13948              	.Ldebug_ranges0:
ARM GAS  /tmp/cchgQdZS.s 			page 248


 13949 0000 10000000 		.4byte	.LBB46
 13950 0004 12000000 		.4byte	.LBE46
 13951 0008 1C000000 		.4byte	.LBB49
 13952 000c 4E000000 		.4byte	.LBE49
 13953 0010 00000000 		.4byte	0
 13954 0014 00000000 		.4byte	0
 13955 0018 66000000 		.4byte	.LBB52
 13956 001c 68000000 		.4byte	.LBE52
 13957 0020 72000000 		.4byte	.LBB55
 13958 0024 9C000000 		.4byte	.LBE55
 13959 0028 00000000 		.4byte	0
 13960 002c 00000000 		.4byte	0
 13961 0030 B0000000 		.4byte	.LBB58
 13962 0034 B2000000 		.4byte	.LBE58
 13963 0038 BA000000 		.4byte	.LBB61
 13964 003c EA000000 		.4byte	.LBE61
 13965 0040 00000000 		.4byte	0
 13966 0044 00000000 		.4byte	0
 13967 0048 02010000 		.4byte	.LBB64
 13968 004c 04010000 		.4byte	.LBE64
 13969 0050 0E010000 		.4byte	.LBB67
 13970 0054 3C010000 		.4byte	.LBE67
 13971 0058 00000000 		.4byte	0
 13972 005c 00000000 		.4byte	0
 13973 0060 1E000000 		.4byte	.LBB70
 13974 0064 20000000 		.4byte	.LBE70
 13975 0068 26000000 		.4byte	.LBB73
 13976 006c 5C000000 		.4byte	.LBE73
 13977 0070 00000000 		.4byte	0
 13978 0074 00000000 		.4byte	0
 13979 0078 B6000000 		.4byte	.LBB80
 13980 007c B8000000 		.4byte	.LBE80
 13981 0080 BE000000 		.4byte	.LBB83
 13982 0084 F0000000 		.4byte	.LBE83
 13983 0088 00000000 		.4byte	0
 13984 008c 00000000 		.4byte	0
 13985 0090 04000000 		.4byte	.LBB92
 13986 0094 06000000 		.4byte	.LBE92
 13987 0098 4C000000 		.4byte	.LBB99
 13988 009c 7E000000 		.4byte	.LBE99
 13989 00a0 00000000 		.4byte	0
 13990 00a4 00000000 		.4byte	0
 13991 00a8 00000000 		.4byte	.LFB112
 13992 00ac B8010000 		.4byte	.LFE112
 13993 00b0 00000000 		.4byte	.LFB113
 13994 00b4 9C000000 		.4byte	.LFE113
 13995 00b8 00000000 		.4byte	.LFB114
 13996 00bc 12000000 		.4byte	.LFE114
 13997 00c0 00000000 		.4byte	.LFB115
 13998 00c4 06000000 		.4byte	.LFE115
 13999 00c8 00000000 		.4byte	.LFB116
 14000 00cc 0E000000 		.4byte	.LFE116
 14001 00d0 00000000 		.4byte	.LFB117
 14002 00d4 04000000 		.4byte	.LFE117
 14003 00d8 00000000 		.4byte	.LFB118
 14004 00dc 04000000 		.4byte	.LFE118
 14005 00e0 00000000 		.4byte	.LFB119
ARM GAS  /tmp/cchgQdZS.s 			page 249


 14006 00e4 04000000 		.4byte	.LFE119
 14007 00e8 00000000 		.4byte	.LFB120
 14008 00ec 06000000 		.4byte	.LFE120
 14009 00f0 00000000 		.4byte	.LFB121
 14010 00f4 18000000 		.4byte	.LFE121
 14011 00f8 00000000 		.4byte	.LFB122
 14012 00fc 18000000 		.4byte	.LFE122
 14013 0100 00000000 		.4byte	.LFB123
 14014 0104 18000000 		.4byte	.LFE123
 14015 0108 00000000 		.4byte	.LFB124
 14016 010c 12000000 		.4byte	.LFE124
 14017 0110 00000000 		.4byte	.LFB125
 14018 0114 12000000 		.4byte	.LFE125
 14019 0118 00000000 		.4byte	.LFB126
 14020 011c 18000000 		.4byte	.LFE126
 14021 0120 00000000 		.4byte	.LFB127
 14022 0124 84000000 		.4byte	.LFE127
 14023 0128 00000000 		.4byte	.LFB128
 14024 012c 94000000 		.4byte	.LFE128
 14025 0130 00000000 		.4byte	.LFB129
 14026 0134 90000000 		.4byte	.LFE129
 14027 0138 00000000 		.4byte	.LFB130
 14028 013c 74000000 		.4byte	.LFE130
 14029 0140 00000000 		.4byte	.LFB131
 14030 0144 14000000 		.4byte	.LFE131
 14031 0148 00000000 		.4byte	.LFB132
 14032 014c 50000000 		.4byte	.LFE132
 14033 0150 00000000 		.4byte	.LFB133
 14034 0154 04000000 		.4byte	.LFE133
 14035 0158 00000000 		.4byte	.LFB134
 14036 015c 04000000 		.4byte	.LFE134
 14037 0160 00000000 		.4byte	.LFB135
 14038 0164 04000000 		.4byte	.LFE135
 14039 0168 00000000 		.4byte	.LFB136
 14040 016c 04000000 		.4byte	.LFE136
 14041 0170 00000000 		.4byte	.LFB137
 14042 0174 0E000000 		.4byte	.LFE137
 14043 0178 00000000 		.4byte	.LFB138
 14044 017c 12000000 		.4byte	.LFE138
 14045 0180 00000000 		.4byte	.LFB139
 14046 0184 0E000000 		.4byte	.LFE139
 14047 0188 00000000 		.4byte	.LFB140
 14048 018c 12000000 		.4byte	.LFE140
 14049 0190 00000000 		.4byte	.LFB141
 14050 0194 0E000000 		.4byte	.LFE141
 14051 0198 00000000 		.4byte	.LFB142
 14052 019c 12000000 		.4byte	.LFE142
 14053 01a0 00000000 		.4byte	.LFB143
 14054 01a4 0E000000 		.4byte	.LFE143
 14055 01a8 00000000 		.4byte	.LFB144
 14056 01ac 12000000 		.4byte	.LFE144
 14057 01b0 00000000 		.4byte	.LFB145
 14058 01b4 0E000000 		.4byte	.LFE145
 14059 01b8 00000000 		.4byte	.LFB146
 14060 01bc 12000000 		.4byte	.LFE146
 14061 01c0 00000000 		.4byte	.LFB147
 14062 01c4 0E000000 		.4byte	.LFE147
ARM GAS  /tmp/cchgQdZS.s 			page 250


 14063 01c8 00000000 		.4byte	.LFB148
 14064 01cc 12000000 		.4byte	.LFE148
 14065 01d0 00000000 		.4byte	.LFB149
 14066 01d4 0E000000 		.4byte	.LFE149
 14067 01d8 00000000 		.4byte	.LFB150
 14068 01dc 10000000 		.4byte	.LFE150
 14069 01e0 00000000 		.4byte	.LFB151
 14070 01e4 0E000000 		.4byte	.LFE151
 14071 01e8 00000000 		.4byte	.LFB152
 14072 01ec 10000000 		.4byte	.LFE152
 14073 01f0 00000000 		.4byte	.LFB153
 14074 01f4 0E000000 		.4byte	.LFE153
 14075 01f8 00000000 		.4byte	.LFB154
 14076 01fc 0E000000 		.4byte	.LFE154
 14077 0200 00000000 		.4byte	.LFB155
 14078 0204 12000000 		.4byte	.LFE155
 14079 0208 00000000 		.4byte	.LFB156
 14080 020c 12000000 		.4byte	.LFE156
 14081 0210 00000000 		.4byte	.LFB157
 14082 0214 12000000 		.4byte	.LFE157
 14083 0218 00000000 		.4byte	.LFB158
 14084 021c 12000000 		.4byte	.LFE158
 14085 0220 00000000 		.4byte	.LFB159
 14086 0224 12000000 		.4byte	.LFE159
 14087 0228 00000000 		.4byte	.LFB160
 14088 022c 20000000 		.4byte	.LFE160
 14089 0230 00000000 		.4byte	.LFB161
 14090 0234 20000000 		.4byte	.LFE161
 14091 0238 00000000 		.4byte	.LFB162
 14092 023c 4E010000 		.4byte	.LFE162
 14093 0240 00000000 		.4byte	.LFB163
 14094 0244 10000000 		.4byte	.LFE163
 14095 0248 00000000 		.4byte	.LFB164
 14096 024c 4A010000 		.4byte	.LFE164
 14097 0250 00000000 		.4byte	.LFB165
 14098 0254 04000000 		.4byte	.LFE165
 14099 0258 00000000 		.4byte	.LFB166
 14100 025c 04000000 		.4byte	.LFE166
 14101 0260 00000000 		.4byte	.LFB167
 14102 0264 04000000 		.4byte	.LFE167
 14103 0268 00000000 		.4byte	.LFB168
 14104 026c 04000000 		.4byte	.LFE168
 14105 0270 00000000 		.4byte	.LFB169
 14106 0274 12000000 		.4byte	.LFE169
 14107 0278 00000000 		.4byte	.LFB170
 14108 027c 16000000 		.4byte	.LFE170
 14109 0280 00000000 		.4byte	.LFB171
 14110 0284 12000000 		.4byte	.LFE171
 14111 0288 00000000 		.4byte	.LFB172
 14112 028c 16000000 		.4byte	.LFE172
 14113 0290 00000000 		.4byte	.LFB173
 14114 0294 28000000 		.4byte	.LFE173
 14115 0298 00000000 		.4byte	.LFB174
 14116 029c 12000000 		.4byte	.LFE174
 14117 02a0 00000000 		.4byte	.LFB175
 14118 02a4 14000000 		.4byte	.LFE175
 14119 02a8 00000000 		.4byte	.LFB176
ARM GAS  /tmp/cchgQdZS.s 			page 251


 14120 02ac 18000000 		.4byte	.LFE176
 14121 02b0 00000000 		.4byte	.LFB177
 14122 02b4 18000000 		.4byte	.LFE177
 14123 02b8 00000000 		.4byte	.LFB178
 14124 02bc 16000000 		.4byte	.LFE178
 14125 02c0 00000000 		.4byte	.LFB179
 14126 02c4 04000000 		.4byte	.LFE179
 14127 02c8 00000000 		.4byte	.LFB180
 14128 02cc 0C000000 		.4byte	.LFE180
 14129 02d0 00000000 		.4byte	.LFB181
 14130 02d4 08000000 		.4byte	.LFE181
 14131 02d8 00000000 		.4byte	.LFB182
 14132 02dc 14000000 		.4byte	.LFE182
 14133 02e0 00000000 		.4byte	.LFB183
 14134 02e4 08000000 		.4byte	.LFE183
 14135 02e8 00000000 		.4byte	.LFB184
 14136 02ec 06000000 		.4byte	.LFE184
 14137 02f0 00000000 		.4byte	.LFB185
 14138 02f4 16000000 		.4byte	.LFE185
 14139 02f8 00000000 		.4byte	.LFB186
 14140 02fc 18000000 		.4byte	.LFE186
 14141 0300 00000000 		.4byte	.LFB187
 14142 0304 0C000000 		.4byte	.LFE187
 14143 0308 00000000 		.4byte	.LFB188
 14144 030c 16000000 		.4byte	.LFE188
 14145 0310 00000000 		.4byte	.LFB189
 14146 0314 7E000000 		.4byte	.LFE189
 14147 0318 00000000 		.4byte	.LFB190
 14148 031c 26000000 		.4byte	.LFE190
 14149 0320 00000000 		.4byte	.LFB191
 14150 0324 20000000 		.4byte	.LFE191
 14151 0328 00000000 		.4byte	.LFB192
 14152 032c 0E000000 		.4byte	.LFE192
 14153 0330 00000000 		.4byte	.LFB193
 14154 0334 12000000 		.4byte	.LFE193
 14155 0338 00000000 		.4byte	.LFB194
 14156 033c 12000000 		.4byte	.LFE194
 14157 0340 00000000 		.4byte	.LFB195
 14158 0344 12000000 		.4byte	.LFE195
 14159 0348 00000000 		.4byte	.LFB196
 14160 034c 18000000 		.4byte	.LFE196
 14161 0350 00000000 		.4byte	.LFB197
 14162 0354 3A000000 		.4byte	.LFE197
 14163 0358 00000000 		.4byte	.LFB198
 14164 035c 18000000 		.4byte	.LFE198
 14165 0360 00000000 		.4byte	.LFB199
 14166 0364 04000000 		.4byte	.LFE199
 14167 0368 00000000 		.4byte	0
 14168 036c 00000000 		.4byte	0
 14169              		.section	.debug_line,"",%progbits
 14170              	.Ldebug_line0:
 14171 0000 D10B0000 		.section	.debug_str,"MS",%progbits,1
 14171      02005B01 
 14171      00000201 
 14171      FB0E0D00 
 14171      01010101 
 14172              	.LASF106:
ARM GAS  /tmp/cchgQdZS.s 			page 252


 14173 0000 54494D5F 		.ascii	"TIM_OPMode\000"
 14173      4F504D6F 
 14173      646500
 14174              	.LASF101:
 14175 000b 4E657753 		.ascii	"NewState\000"
 14175      74617465 
 14175      00
 14176              	.LASF130:
 14177 0014 54494D5F 		.ascii	"TIM_ForcedOC2Config\000"
 14177      466F7263 
 14177      65644F43 
 14177      32436F6E 
 14177      66696700 
 14178              	.LASF105:
 14179 0028 54494D5F 		.ascii	"TIM_SelectOnePulseMode\000"
 14179      53656C65 
 14179      63744F6E 
 14179      6550756C 
 14179      73654D6F 
 14180              	.LASF190:
 14181 003f 54494D5F 		.ascii	"TIM_DMACmd\000"
 14181      444D4143 
 14181      6D6400
 14182              	.LASF19:
 14183 004a 44494552 		.ascii	"DIER\000"
 14183      00
 14184              	.LASF129:
 14185 004f 54494D5F 		.ascii	"TIM_ForcedAction\000"
 14185      466F7263 
 14185      65644163 
 14185      74696F6E 
 14185      00
 14186              	.LASF79:
 14187 0060 54494D5F 		.ascii	"TIM_InputTriggerSource\000"
 14187      496E7075 
 14187      74547269 
 14187      67676572 
 14187      536F7572 
 14188              	.LASF201:
 14189 0077 54494D5F 		.ascii	"TIM_TRGOSource\000"
 14189      5452474F 
 14189      536F7572 
 14189      636500
 14190              	.LASF37:
 14191 0086 54494D5F 		.ascii	"TIM_CounterMode\000"
 14191      436F756E 
 14191      7465724D 
 14191      6F646500 
 14192              	.LASF97:
 14193 0096 4175746F 		.ascii	"Autoreload\000"
 14193      72656C6F 
 14193      616400
 14194              	.LASF132:
 14195 00a1 54494D5F 		.ascii	"TIM_ForcedOC4Config\000"
 14195      466F7263 
 14195      65644F43 
 14195      34436F6E 
ARM GAS  /tmp/cchgQdZS.s 			page 253


 14195      66696700 
 14196              	.LASF143:
 14197 00b5 54494D5F 		.ascii	"TIM_ClearOC1Ref\000"
 14197      436C6561 
 14197      724F4331 
 14197      52656600 
 14198              	.LASF31:
 14199 00c5 466C6167 		.ascii	"FlagStatus\000"
 14199      53746174 
 14199      757300
 14200              	.LASF3:
 14201 00d0 5F5F7569 		.ascii	"__uint8_t\000"
 14201      6E74385F 
 14201      7400
 14202              	.LASF180:
 14203 00da 54494D5F 		.ascii	"TIM_FLAG\000"
 14203      464C4147 
 14203      00
 14204              	.LASF121:
 14205 00e3 436F6D70 		.ascii	"Compare1\000"
 14205      61726531 
 14205      00
 14206              	.LASF120:
 14207 00ec 54494D5F 		.ascii	"TIM_SetCompare1\000"
 14207      53657443 
 14207      6F6D7061 
 14207      72653100 
 14208              	.LASF209:
 14209 00fc 54494D5F 		.ascii	"TIM_IC2Polarity\000"
 14209      49433250 
 14209      6F6C6172 
 14209      69747900 
 14210              	.LASF100:
 14211 010c 54494D5F 		.ascii	"TIM_UpdateDisableConfig\000"
 14211      55706461 
 14211      74654469 
 14211      7361626C 
 14211      65436F6E 
 14212              	.LASF125:
 14213 0124 436F6D70 		.ascii	"Compare3\000"
 14213      61726533 
 14213      00
 14214              	.LASF45:
 14215 012d 54494D5F 		.ascii	"TIM_Pulse\000"
 14215      50756C73 
 14215      6500
 14216              	.LASF213:
 14217 0137 5243435F 		.ascii	"RCC_APB1PeriphResetCmd\000"
 14217      41504231 
 14217      50657269 
 14217      70685265 
 14217      73657443 
 14218              	.LASF66:
 14219 014e 746D7063 		.ascii	"tmpccmr1\000"
 14219      636D7231 
 14219      00
 14220              	.LASF74:
ARM GAS  /tmp/cchgQdZS.s 			page 254


 14221 0157 746D7063 		.ascii	"tmpccmr2\000"
 14221      636D7232 
 14221      00
 14222              	.LASF33:
 14223 0160 44495341 		.ascii	"DISABLE\000"
 14223      424C4500 
 14224              	.LASF113:
 14225 0168 746D7063 		.ascii	"tmpcr2\000"
 14225      723200
 14226              	.LASF78:
 14227 016f 54494D5F 		.ascii	"TIM_SelectInputTrigger\000"
 14227      53656C65 
 14227      6374496E 
 14227      70757454 
 14227      72696767 
 14228              	.LASF24:
 14229 0186 43435232 		.ascii	"CCR2\000"
 14229      00
 14230              	.LASF55:
 14231 018b 54494D5F 		.ascii	"TIM_ICFilter\000"
 14231      49434669 
 14231      6C746572 
 14231      00
 14232              	.LASF193:
 14233 0198 54494D5F 		.ascii	"TIM_InternalClockConfig\000"
 14233      496E7465 
 14233      726E616C 
 14233      436C6F63 
 14233      6B436F6E 
 14234              	.LASF150:
 14235 01b0 54494D5F 		.ascii	"TIM_OC2PolarityConfig\000"
 14235      4F433250 
 14235      6F6C6172 
 14235      69747943 
 14235      6F6E6669 
 14236              	.LASF104:
 14237 01c6 54494D5F 		.ascii	"TIM_ARRPreloadConfig\000"
 14237      41525250 
 14237      72656C6F 
 14237      6164436F 
 14237      6E666967 
 14238              	.LASF217:
 14239 01db 49544D5F 		.ascii	"ITM_RxBuffer\000"
 14239      52784275 
 14239      66666572 
 14239      00
 14240              	.LASF53:
 14241 01e8 54494D5F 		.ascii	"TIM_ICSelection\000"
 14241      49435365 
 14241      6C656374 
 14241      696F6E00 
 14242              	.LASF119:
 14243 01f8 746D7031 		.ascii	"tmp1\000"
 14243      00
 14244              	.LASF206:
 14245 01fd 54494D5F 		.ascii	"TIM_EncoderInterfaceConfig\000"
 14245      456E636F 
ARM GAS  /tmp/cchgQdZS.s 			page 255


 14245      64657249 
 14245      6E746572 
 14245      66616365 
 14246              	.LASF135:
 14247 0218 54494D5F 		.ascii	"TIM_OC2PreloadConfig\000"
 14247      4F433250 
 14247      72656C6F 
 14247      6164436F 
 14247      6E666967 
 14248              	.LASF177:
 14249 022d 54494D5F 		.ascii	"TIM_GenerateEvent\000"
 14249      47656E65 
 14249      72617465 
 14249      4576656E 
 14249      7400
 14250              	.LASF208:
 14251 023f 54494D5F 		.ascii	"TIM_IC1Polarity\000"
 14251      49433150 
 14251      6F6C6172 
 14251      69747900 
 14252              	.LASF139:
 14253 024f 54494D5F 		.ascii	"TIM_OCFast\000"
 14253      4F434661 
 14253      737400
 14254              	.LASF51:
 14255 025a 54494D5F 		.ascii	"TIM_Channel\000"
 14255      4368616E 
 14255      6E656C00 
 14256              	.LASF20:
 14257 0266 43434D52 		.ascii	"CCMR1\000"
 14257      3100
 14258              	.LASF21:
 14259 026c 43434D52 		.ascii	"CCMR2\000"
 14259      3200
 14260              	.LASF92:
 14261 0272 54494D5F 		.ascii	"TIM_CounterModeConfig\000"
 14261      436F756E 
 14261      7465724D 
 14261      6F646543 
 14261      6F6E6669 
 14262              	.LASF0:
 14263 0288 7369676E 		.ascii	"signed char\000"
 14263      65642063 
 14263      68617200 
 14264              	.LASF187:
 14265 0294 54494D5F 		.ascii	"TIM_DMAConfig\000"
 14265      444D4143 
 14265      6F6E6669 
 14265      6700
 14266              	.LASF155:
 14267 02a2 54494D5F 		.ascii	"TIM_CCxCmd\000"
 14267      43437843 
 14267      6D6400
 14268              	.LASF11:
 14269 02ad 6C6F6E67 		.ascii	"long long unsigned int\000"
 14269      206C6F6E 
 14269      6720756E 
ARM GAS  /tmp/cchgQdZS.s 			page 256


 14269      7369676E 
 14269      65642069 
 14270              	.LASF134:
 14271 02c4 54494D5F 		.ascii	"TIM_OCPreload\000"
 14271      4F435072 
 14271      656C6F61 
 14271      6400
 14272              	.LASF115:
 14273 02d2 54494D5F 		.ascii	"TIM_OC3Init\000"
 14273      4F433349 
 14273      6E697400 
 14274              	.LASF176:
 14275 02de 54494D5F 		.ascii	"TIM_IT\000"
 14275      495400
 14276              	.LASF7:
 14277 02e5 6C6F6E67 		.ascii	"long int\000"
 14277      20696E74 
 14277      00
 14278              	.LASF44:
 14279 02ee 54494D5F 		.ascii	"TIM_OutputNState\000"
 14279      4F757470 
 14279      75744E53 
 14279      74617465 
 14279      00
 14280              	.LASF34:
 14281 02ff 454E4142 		.ascii	"ENABLE\000"
 14281      4C4500
 14282              	.LASF112:
 14283 0306 746D7063 		.ascii	"tmpccmrx\000"
 14283      636D7278 
 14283      00
 14284              	.LASF22:
 14285 030f 43434552 		.ascii	"CCER\000"
 14285      00
 14286              	.LASF10:
 14287 0314 6C6F6E67 		.ascii	"long long int\000"
 14287      206C6F6E 
 14287      6720696E 
 14287      7400
 14288              	.LASF14:
 14289 0322 75696E74 		.ascii	"uint16_t\000"
 14289      31365F74 
 14289      00
 14290              	.LASF108:
 14291 032b 54494D5F 		.ascii	"TIM_CKD\000"
 14291      434B4400 
 14292              	.LASF214:
 14293 0333 474E5520 		.ascii	"GNU C 4.8.4 20141219 (release) -mcpu=cortex-m4 -mfl"
 14293      4320342E 
 14293      382E3420 
 14293      32303134 
 14293      31323139 
 14294 0366 6F61742D 		.ascii	"oat-abi=hard -mfpu=fpv4-sp-d16 -mno-thumb-interwork"
 14294      6162693D 
 14294      68617264 
 14294      202D6D66 
 14294      70753D66 
ARM GAS  /tmp/cchgQdZS.s 			page 257


 14295 0399 202D6D74 		.ascii	" -mthumb -ggdb -O2 -std=gnu99 -fomit-frame-pointer "
 14295      68756D62 
 14295      202D6767 
 14295      6462202D 
 14295      4F32202D 
 14296 03cc 2D66616C 		.ascii	"-falign-functions=16 -ffunction-sections -fdata-sec"
 14296      69676E2D 
 14296      66756E63 
 14296      74696F6E 
 14296      733D3136 
 14297 03ff 74696F6E 		.ascii	"tions -fno-common -fsingle-precision-constant\000"
 14297      73202D66 
 14297      6E6F2D63 
 14297      6F6D6D6F 
 14297      6E202D66 
 14298              	.LASF96:
 14299 042d 54494D5F 		.ascii	"TIM_SetAutoreload\000"
 14299      53657441 
 14299      75746F72 
 14299      656C6F61 
 14299      6400
 14300              	.LASF161:
 14301 043f 54494D5F 		.ascii	"TIM_ICStructInit\000"
 14301      49435374 
 14301      72756374 
 14301      496E6974 
 14301      00
 14302              	.LASF166:
 14303 0450 54494D5F 		.ascii	"TIM_GetCapture2\000"
 14303      47657443 
 14303      61707475 
 14303      72653200 
 14304              	.LASF167:
 14305 0460 54494D5F 		.ascii	"TIM_GetCapture3\000"
 14305      47657443 
 14305      61707475 
 14305      72653300 
 14306              	.LASF168:
 14307 0470 54494D5F 		.ascii	"TIM_GetCapture4\000"
 14307      47657443 
 14307      61707475 
 14307      72653400 
 14308              	.LASF163:
 14309 0480 69636F70 		.ascii	"icoppositepolarity\000"
 14309      706F7369 
 14309      7465706F 
 14309      6C617269 
 14309      747900
 14310              	.LASF103:
 14311 0493 54494D5F 		.ascii	"TIM_UpdateSource\000"
 14311      55706461 
 14311      7465536F 
 14311      75726365 
 14311      00
 14312              	.LASF158:
 14313 04a4 54494D5F 		.ascii	"TIM_CCxN\000"
 14313      4343784E 
ARM GAS  /tmp/cchgQdZS.s 			page 258


 14313      00
 14314              	.LASF192:
 14315 04ad 54494D5F 		.ascii	"TIM_SelectCCDMA\000"
 14315      53656C65 
 14315      63744343 
 14315      444D4100 
 14316              	.LASF4:
 14317 04bd 5F5F7569 		.ascii	"__uint16_t\000"
 14317      6E743136 
 14317      5F7400
 14318              	.LASF29:
 14319 04c8 54494D5F 		.ascii	"TIM_TypeDef\000"
 14319      54797065 
 14319      44656600 
 14320              	.LASF8:
 14321 04d4 5F5F7569 		.ascii	"__uint32_t\000"
 14321      6E743332 
 14321      5F7400
 14322              	.LASF133:
 14323 04df 54494D5F 		.ascii	"TIM_OC1PreloadConfig\000"
 14323      4F433150 
 14323      72656C6F 
 14323      6164436F 
 14323      6E666967 
 14324              	.LASF189:
 14325 04f4 54494D5F 		.ascii	"TIM_DMABurstLength\000"
 14325      444D4142 
 14325      75727374 
 14325      4C656E67 
 14325      746800
 14326              	.LASF216:
 14327 0507 2F686F6D 		.ascii	"/home/taylor/Programming/VESC/firmware\000"
 14327      652F7461 
 14327      796C6F72 
 14327      2F50726F 
 14327      6772616D 
 14328              	.LASF182:
 14329 052e 54494D5F 		.ascii	"TIM_ClearFlag\000"
 14329      436C6561 
 14329      72466C61 
 14329      6700
 14330              	.LASF122:
 14331 053c 54494D5F 		.ascii	"TIM_SetCompare2\000"
 14331      53657443 
 14331      6F6D7061 
 14331      72653200 
 14332              	.LASF124:
 14333 054c 54494D5F 		.ascii	"TIM_SetCompare3\000"
 14333      53657443 
 14333      6F6D7061 
 14333      72653300 
 14334              	.LASF173:
 14335 055c 54494D5F 		.ascii	"TIM_SelectCOM\000"
 14335      53656C65 
 14335      6374434F 
 14335      4D00
 14336              	.LASF67:
ARM GAS  /tmp/cchgQdZS.s 			page 259


 14337 056a 746D7063 		.ascii	"tmpccer\000"
 14337      63657200 
 14338              	.LASF151:
 14339 0572 54494D5F 		.ascii	"TIM_OC2NPolarityConfig\000"
 14339      4F43324E 
 14339      506F6C61 
 14339      72697479 
 14339      436F6E66 
 14340              	.LASF12:
 14341 0589 756E7369 		.ascii	"unsigned int\000"
 14341      676E6564 
 14341      20696E74 
 14341      00
 14342              	.LASF76:
 14343 0596 5449345F 		.ascii	"TI4_Config\000"
 14343      436F6E66 
 14343      696700
 14344              	.LASF46:
 14345 05a1 54494D5F 		.ascii	"TIM_OCPolarity\000"
 14345      4F43506F 
 14345      6C617269 
 14345      747900
 14346              	.LASF39:
 14347 05b0 54494D5F 		.ascii	"TIM_ClockDivision\000"
 14347      436C6F63 
 14347      6B446976 
 14347      6973696F 
 14347      6E00
 14348              	.LASF99:
 14349 05c2 54494D5F 		.ascii	"TIM_GetPrescaler\000"
 14349      47657450 
 14349      72657363 
 14349      616C6572 
 14349      00
 14350              	.LASF98:
 14351 05d3 54494D5F 		.ascii	"TIM_GetCounter\000"
 14351      47657443 
 14351      6F756E74 
 14351      657200
 14352              	.LASF88:
 14353 05e2 54494D5F 		.ascii	"TIM_TimeBaseStructInit\000"
 14353      54696D65 
 14353      42617365 
 14353      53747275 
 14353      6374496E 
 14354              	.LASF165:
 14355 05f9 54494D5F 		.ascii	"TIM_GetCapture1\000"
 14355      47657443 
 14355      61707475 
 14355      72653100 
 14356              	.LASF205:
 14357 0609 54494D5F 		.ascii	"TIM_MasterSlaveMode\000"
 14357      4D617374 
 14357      6572536C 
 14357      6176654D 
 14357      6F646500 
 14358              	.LASF202:
ARM GAS  /tmp/cchgQdZS.s 			page 260


 14359 061d 54494D5F 		.ascii	"TIM_SelectSlaveMode\000"
 14359      53656C65 
 14359      6374536C 
 14359      6176654D 
 14359      6F646500 
 14360              	.LASF204:
 14361 0631 54494D5F 		.ascii	"TIM_SelectMasterSlaveMode\000"
 14361      53656C65 
 14361      63744D61 
 14361      73746572 
 14361      536C6176 
 14362              	.LASF179:
 14363 064b 54494D5F 		.ascii	"TIM_GetFlagStatus\000"
 14363      47657446 
 14363      6C616753 
 14363      74617475 
 14363      7300
 14364              	.LASF64:
 14365 065d 54494D5F 		.ascii	"TIM_BDTRInitTypeDef\000"
 14365      42445452 
 14365      496E6974 
 14365      54797065 
 14365      44656600 
 14366              	.LASF111:
 14367 0671 54494D5F 		.ascii	"TIM_OCInitStruct\000"
 14367      4F43496E 
 14367      69745374 
 14367      72756374 
 14367      00
 14368              	.LASF18:
 14369 0682 534D4352 		.ascii	"SMCR\000"
 14369      00
 14370              	.LASF57:
 14371 0687 54494D5F 		.ascii	"TIM_OSSRState\000"
 14371      4F535352 
 14371      53746174 
 14371      6500
 14372              	.LASF65:
 14373 0695 54494D78 		.ascii	"TIMx\000"
 14373      00
 14374              	.LASF207:
 14375 069a 54494D5F 		.ascii	"TIM_EncoderMode\000"
 14375      456E636F 
 14375      6465724D 
 14375      6F646500 
 14376              	.LASF154:
 14377 06aa 54494D5F 		.ascii	"TIM_OC4PolarityConfig\000"
 14377      4F433450 
 14377      6F6C6172 
 14377      69747943 
 14377      6F6E6669 
 14378              	.LASF63:
 14379 06c0 54494D5F 		.ascii	"TIM_AutomaticOutput\000"
 14379      4175746F 
 14379      6D617469 
 14379      634F7574 
 14379      70757400 
ARM GAS  /tmp/cchgQdZS.s 			page 261


 14380              	.LASF200:
 14381 06d4 54494D5F 		.ascii	"TIM_SelectOutputTrigger\000"
 14381      53656C65 
 14381      63744F75 
 14381      74707574 
 14381      54726967 
 14382              	.LASF71:
 14383 06ec 54494D5F 		.ascii	"TIM_SetIC1Prescaler\000"
 14383      53657449 
 14383      43315072 
 14383      65736361 
 14383      6C657200 
 14384              	.LASF162:
 14385 0700 54494D5F 		.ascii	"TIM_PWMIConfig\000"
 14385      50574D49 
 14385      436F6E66 
 14385      696700
 14386              	.LASF73:
 14387 070f 5449335F 		.ascii	"TI3_Config\000"
 14387      436F6E66 
 14387      696700
 14388              	.LASF191:
 14389 071a 54494D5F 		.ascii	"TIM_DMASource\000"
 14389      444D4153 
 14389      6F757263 
 14389      6500
 14390              	.LASF117:
 14391 0728 54494D5F 		.ascii	"TIM_OCStructInit\000"
 14391      4F435374 
 14391      72756374 
 14391      496E6974 
 14391      00
 14392              	.LASF91:
 14393 0739 54494D5F 		.ascii	"TIM_PSCReloadMode\000"
 14393      50534352 
 14393      656C6F61 
 14393      644D6F64 
 14393      6500
 14394              	.LASF30:
 14395 074b 52455345 		.ascii	"RESET\000"
 14395      5400
 14396              	.LASF80:
 14397 0751 746D7073 		.ascii	"tmpsmcr\000"
 14397      6D637200 
 14398              	.LASF83:
 14399 0759 54494D5F 		.ascii	"TIM_ExtTRGPolarity\000"
 14399      45787454 
 14399      5247506F 
 14399      6C617269 
 14399      747900
 14400              	.LASF171:
 14401 076c 54494D5F 		.ascii	"TIM_BDTRStructInit\000"
 14401      42445452 
 14401      53747275 
 14401      6374496E 
 14401      697400
 14402              	.LASF93:
ARM GAS  /tmp/cchgQdZS.s 			page 262


 14403 077f 746D7063 		.ascii	"tmpcr1\000"
 14403      723100
 14404              	.LASF128:
 14405 0786 54494D5F 		.ascii	"TIM_ForcedOC1Config\000"
 14405      466F7263 
 14405      65644F43 
 14405      31436F6E 
 14405      66696700 
 14406              	.LASF17:
 14407 079a 73697A65 		.ascii	"sizetype\000"
 14407      74797065 
 14407      00
 14408              	.LASF82:
 14409 07a3 54494D5F 		.ascii	"TIM_ExtTRGPrescaler\000"
 14409      45787454 
 14409      52475072 
 14409      65736361 
 14409      6C657200 
 14410              	.LASF61:
 14411 07b7 54494D5F 		.ascii	"TIM_Break\000"
 14411      42726561 
 14411      6B00
 14412              	.LASF146:
 14413 07c1 54494D5F 		.ascii	"TIM_ClearOC3Ref\000"
 14413      436C6561 
 14413      724F4333 
 14413      52656600 
 14414              	.LASF60:
 14415 07d1 54494D5F 		.ascii	"TIM_DeadTime\000"
 14415      44656164 
 14415      54696D65 
 14415      00
 14416              	.LASF148:
 14417 07de 54494D5F 		.ascii	"TIM_OC1PolarityConfig\000"
 14417      4F433150 
 14417      6F6C6172 
 14417      69747943 
 14417      6F6E6669 
 14418              	.LASF131:
 14419 07f4 54494D5F 		.ascii	"TIM_ForcedOC3Config\000"
 14419      466F7263 
 14419      65644F43 
 14419      33436F6E 
 14419      66696700 
 14420              	.LASF54:
 14421 0808 54494D5F 		.ascii	"TIM_ICPrescaler\000"
 14421      49435072 
 14421      65736361 
 14421      6C657200 
 14422              	.LASF157:
 14423 0818 54494D5F 		.ascii	"TIM_CCxNCmd\000"
 14423      4343784E 
 14423      436D6400 
 14424              	.LASF127:
 14425 0824 436F6D70 		.ascii	"Compare4\000"
 14425      61726534 
 14425      00
ARM GAS  /tmp/cchgQdZS.s 			page 263


 14426              	.LASF49:
 14427 082d 54494D5F 		.ascii	"TIM_OCNIdleState\000"
 14427      4F434E49 
 14427      646C6553 
 14427      74617465 
 14427      00
 14428              	.LASF184:
 14429 083e 69747374 		.ascii	"itstatus\000"
 14429      61747573 
 14429      00
 14430              	.LASF188:
 14431 0847 54494D5F 		.ascii	"TIM_DMABase\000"
 14431      444D4142 
 14431      61736500 
 14432              	.LASF164:
 14433 0853 69636F70 		.ascii	"icoppositeselection\000"
 14433      706F7369 
 14433      74657365 
 14433      6C656374 
 14433      696F6E00 
 14434              	.LASF35:
 14435 0867 46756E63 		.ascii	"FunctionalState\000"
 14435      74696F6E 
 14435      616C5374 
 14435      61746500 
 14436              	.LASF212:
 14437 0877 54494D5F 		.ascii	"TIM_Remap\000"
 14437      52656D61 
 14437      7000
 14438              	.LASF183:
 14439 0881 54494D5F 		.ascii	"TIM_GetITStatus\000"
 14439      47657449 
 14439      54537461 
 14439      74757300 
 14440              	.LASF87:
 14441 0891 54494D5F 		.ascii	"TIM_TimeBaseInitStruct\000"
 14441      54696D65 
 14441      42617365 
 14441      496E6974 
 14441      53747275 
 14442              	.LASF218:
 14443 08a8 5243435F 		.ascii	"RCC_APB2PeriphResetCmd\000"
 14443      41504232 
 14443      50657269 
 14443      70685265 
 14443      73657443 
 14444              	.LASF107:
 14445 08bf 54494D5F 		.ascii	"TIM_SetClockDivision\000"
 14445      53657443 
 14445      6C6F636B 
 14445      44697669 
 14445      73696F6E 
 14446              	.LASF156:
 14447 08d4 54494D5F 		.ascii	"TIM_CCx\000"
 14447      43437800 
 14448              	.LASF95:
 14449 08dc 436F756E 		.ascii	"Counter\000"
ARM GAS  /tmp/cchgQdZS.s 			page 264


 14449      74657200 
 14450              	.LASF123:
 14451 08e4 436F6D70 		.ascii	"Compare2\000"
 14451      61726532 
 14451      00
 14452              	.LASF43:
 14453 08ed 54494D5F 		.ascii	"TIM_OutputState\000"
 14453      4F757470 
 14453      75745374 
 14453      61746500 
 14454              	.LASF178:
 14455 08fd 54494D5F 		.ascii	"TIM_EventSource\000"
 14455      4576656E 
 14455      74536F75 
 14455      72636500 
 14456              	.LASF52:
 14457 090d 54494D5F 		.ascii	"TIM_ICPolarity\000"
 14457      4943506F 
 14457      6C617269 
 14457      747900
 14458              	.LASF32:
 14459 091c 49545374 		.ascii	"ITStatus\000"
 14459      61747573 
 14459      00
 14460              	.LASF69:
 14461 0925 5449315F 		.ascii	"TI1_Config\000"
 14461      436F6E66 
 14461      696700
 14462              	.LASF36:
 14463 0930 54494D5F 		.ascii	"TIM_Prescaler\000"
 14463      50726573 
 14463      63616C65 
 14463      7200
 14464              	.LASF195:
 14465 093e 54494D5F 		.ascii	"TIM_TIxExternalClockConfig\000"
 14465      54497845 
 14465      78746572 
 14465      6E616C43 
 14465      6C6F636B 
 14466              	.LASF15:
 14467 0959 696E7433 		.ascii	"int32_t\000"
 14467      325F7400 
 14468              	.LASF1:
 14469 0961 756E7369 		.ascii	"unsigned char\000"
 14469      676E6564 
 14469      20636861 
 14469      7200
 14470              	.LASF59:
 14471 096f 54494D5F 		.ascii	"TIM_LOCKLevel\000"
 14471      4C4F434B 
 14471      4C657665 
 14471      6C00
 14472              	.LASF172:
 14473 097d 54494D5F 		.ascii	"TIM_CtrlPWMOutputs\000"
 14473      4374726C 
 14473      50574D4F 
 14473      75747075 
ARM GAS  /tmp/cchgQdZS.s 			page 265


 14473      747300
 14474              	.LASF169:
 14475 0990 54494D5F 		.ascii	"TIM_BDTRConfig\000"
 14475      42445452 
 14475      436F6E66 
 14475      696700
 14476              	.LASF2:
 14477 099f 73686F72 		.ascii	"short int\000"
 14477      7420696E 
 14477      7400
 14478              	.LASF27:
 14479 09a9 42445452 		.ascii	"BDTR\000"
 14479      00
 14480              	.LASF72:
 14481 09ae 54494D5F 		.ascii	"TIM_SetIC2Prescaler\000"
 14481      53657449 
 14481      43325072 
 14481      65736361 
 14481      6C657200 
 14482              	.LASF89:
 14483 09c2 54494D5F 		.ascii	"TIM_PrescalerConfig\000"
 14483      50726573 
 14483      63616C65 
 14483      72436F6E 
 14483      66696700 
 14484              	.LASF194:
 14485 09d6 54494D5F 		.ascii	"TIM_ITRxExternalClockConfig\000"
 14485      49545278 
 14485      45787465 
 14485      726E616C 
 14485      436C6F63 
 14486              	.LASF153:
 14487 09f2 54494D5F 		.ascii	"TIM_OC3NPolarityConfig\000"
 14487      4F43334E 
 14487      506F6C61 
 14487      72697479 
 14487      436F6E66 
 14488              	.LASF215:
 14489 0a09 43686962 		.ascii	"ChibiOS_3.0.2/ext/stdperiph_stm32f4/src/stm32f4xx_t"
 14489      694F535F 
 14489      332E302E 
 14489      322F6578 
 14489      742F7374 
 14490 0a3c 696D2E63 		.ascii	"im.c\000"
 14490      00
 14491              	.LASF58:
 14492 0a41 54494D5F 		.ascii	"TIM_OSSIState\000"
 14492      4F535349 
 14492      53746174 
 14492      6500
 14493              	.LASF86:
 14494 0a4f 54494D5F 		.ascii	"TIM_TimeBaseInit\000"
 14494      54696D65 
 14494      42617365 
 14494      496E6974 
 14494      00
 14495              	.LASF196:
ARM GAS  /tmp/cchgQdZS.s 			page 266


 14496 0a60 54494D5F 		.ascii	"TIM_TIxExternalCLKSource\000"
 14496      54497845 
 14496      78746572 
 14496      6E616C43 
 14496      4C4B536F 
 14497              	.LASF170:
 14498 0a79 54494D5F 		.ascii	"TIM_BDTRInitStruct\000"
 14498      42445452 
 14498      496E6974 
 14498      53747275 
 14498      637400
 14499              	.LASF70:
 14500 0a8c 5449325F 		.ascii	"TI2_Config\000"
 14500      436F6E66 
 14500      696700
 14501              	.LASF140:
 14502 0a97 54494D5F 		.ascii	"TIM_OC2FastConfig\000"
 14502      4F433246 
 14502      61737443 
 14502      6F6E6669 
 14502      6700
 14503              	.LASF142:
 14504 0aa9 54494D5F 		.ascii	"TIM_OC4FastConfig\000"
 14504      4F433446 
 14504      61737443 
 14504      6F6E6669 
 14504      6700
 14505              	.LASF9:
 14506 0abb 6C6F6E67 		.ascii	"long unsigned int\000"
 14506      20756E73 
 14506      69676E65 
 14506      6420696E 
 14506      7400
 14507              	.LASF47:
 14508 0acd 54494D5F 		.ascii	"TIM_OCNPolarity\000"
 14508      4F434E50 
 14508      6F6C6172 
 14508      69747900 
 14509              	.LASF199:
 14510 0add 54494D5F 		.ascii	"TIM_ETRClockMode2Config\000"
 14510      45545243 
 14510      6C6F636B 
 14510      4D6F6465 
 14510      32436F6E 
 14511              	.LASF109:
 14512 0af5 54494D5F 		.ascii	"TIM_Cmd\000"
 14512      436D6400 
 14513              	.LASF28:
 14514 0afd 444D4152 		.ascii	"DMAR\000"
 14514      00
 14515              	.LASF75:
 14516 0b02 54494D5F 		.ascii	"TIM_SetIC3Prescaler\000"
 14516      53657449 
 14516      43335072 
 14516      65736361 
 14516      6C657200 
 14517              	.LASF114:
ARM GAS  /tmp/cchgQdZS.s 			page 267


 14518 0b16 54494D5F 		.ascii	"TIM_OC2Init\000"
 14518      4F433249 
 14518      6E697400 
 14519              	.LASF38:
 14520 0b22 54494D5F 		.ascii	"TIM_Period\000"
 14520      50657269 
 14520      6F6400
 14521              	.LASF41:
 14522 0b2d 54494D5F 		.ascii	"TIM_TimeBaseInitTypeDef\000"
 14522      54696D65 
 14522      42617365 
 14522      496E6974 
 14522      54797065 
 14523              	.LASF186:
 14524 0b45 54494D5F 		.ascii	"TIM_ClearITPendingBit\000"
 14524      436C6561 
 14524      72495450 
 14524      656E6469 
 14524      6E674269 
 14525              	.LASF6:
 14526 0b5b 5F5F696E 		.ascii	"__int32_t\000"
 14526      7433325F 
 14526      7400
 14527              	.LASF56:
 14528 0b65 54494D5F 		.ascii	"TIM_ICInitTypeDef\000"
 14528      4943496E 
 14528      69745479 
 14528      70654465 
 14528      6600
 14529              	.LASF116:
 14530 0b77 54494D5F 		.ascii	"TIM_OC4Init\000"
 14530      4F433449 
 14530      6E697400 
 14531              	.LASF159:
 14532 0b83 54494D5F 		.ascii	"TIM_ICInit\000"
 14532      4943496E 
 14532      697400
 14533              	.LASF126:
 14534 0b8e 54494D5F 		.ascii	"TIM_SetCompare4\000"
 14534      53657443 
 14534      6F6D7061 
 14534      72653400 
 14535              	.LASF118:
 14536 0b9e 54494D5F 		.ascii	"TIM_SelectOCxM\000"
 14536      53656C65 
 14536      63744F43 
 14536      784D00
 14537              	.LASF102:
 14538 0bad 54494D5F 		.ascii	"TIM_UpdateRequestConfig\000"
 14538      55706461 
 14538      74655265 
 14538      71756573 
 14538      74436F6E 
 14539              	.LASF90:
 14540 0bc5 50726573 		.ascii	"Prescaler\000"
 14540      63616C65 
 14540      7200
ARM GAS  /tmp/cchgQdZS.s 			page 268


 14541              	.LASF137:
 14542 0bcf 54494D5F 		.ascii	"TIM_OC4PreloadConfig\000"
 14542      4F433450 
 14542      72656C6F 
 14542      6164436F 
 14542      6E666967 
 14543              	.LASF5:
 14544 0be4 73686F72 		.ascii	"short unsigned int\000"
 14544      7420756E 
 14544      7369676E 
 14544      65642069 
 14544      6E7400
 14545              	.LASF203:
 14546 0bf7 54494D5F 		.ascii	"TIM_SlaveMode\000"
 14546      536C6176 
 14546      654D6F64 
 14546      6500
 14547              	.LASF42:
 14548 0c05 54494D5F 		.ascii	"TIM_OCMode\000"
 14548      4F434D6F 
 14548      646500
 14549              	.LASF147:
 14550 0c10 54494D5F 		.ascii	"TIM_ClearOC4Ref\000"
 14550      436C6561 
 14550      724F4334 
 14550      52656600 
 14551              	.LASF62:
 14552 0c20 54494D5F 		.ascii	"TIM_BreakPolarity\000"
 14552      42726561 
 14552      6B506F6C 
 14552      61726974 
 14552      7900
 14553              	.LASF149:
 14554 0c32 54494D5F 		.ascii	"TIM_OC1NPolarityConfig\000"
 14554      4F43314E 
 14554      506F6C61 
 14554      72697479 
 14554      436F6E66 
 14555              	.LASF174:
 14556 0c49 54494D5F 		.ascii	"TIM_CCPreloadControl\000"
 14556      43435072 
 14556      656C6F61 
 14556      64436F6E 
 14556      74726F6C 
 14557              	.LASF16:
 14558 0c5e 75696E74 		.ascii	"uint32_t\000"
 14558      33325F74 
 14558      00
 14559              	.LASF23:
 14560 0c67 43435231 		.ascii	"CCR1\000"
 14560      00
 14561              	.LASF198:
 14562 0c6c 54494D5F 		.ascii	"TIM_ETRClockMode1Config\000"
 14562      45545243 
 14562      6C6F636B 
 14562      4D6F6465 
 14562      31436F6E 
ARM GAS  /tmp/cchgQdZS.s 			page 269


 14563              	.LASF25:
 14564 0c84 43435233 		.ascii	"CCR3\000"
 14564      00
 14565              	.LASF26:
 14566 0c89 43435234 		.ascii	"CCR4\000"
 14566      00
 14567              	.LASF50:
 14568 0c8e 54494D5F 		.ascii	"TIM_OCInitTypeDef\000"
 14568      4F43496E 
 14568      69745479 
 14568      70654465 
 14568      6600
 14569              	.LASF94:
 14570 0ca0 54494D5F 		.ascii	"TIM_SetCounter\000"
 14570      53657443 
 14570      6F756E74 
 14570      657200
 14571              	.LASF185:
 14572 0caf 6974656E 		.ascii	"itenable\000"
 14572      61626C65 
 14572      00
 14573              	.LASF13:
 14574 0cb8 75696E74 		.ascii	"uint8_t\000"
 14574      385F7400 
 14575              	.LASF152:
 14576 0cc0 54494D5F 		.ascii	"TIM_OC3PolarityConfig\000"
 14576      4F433350 
 14576      6F6C6172 
 14576      69747943 
 14576      6F6E6669 
 14577              	.LASF211:
 14578 0cd6 54494D5F 		.ascii	"TIM_RemapConfig\000"
 14578      52656D61 
 14578      70436F6E 
 14578      66696700 
 14579              	.LASF110:
 14580 0ce6 54494D5F 		.ascii	"TIM_OC1Init\000"
 14580      4F433149 
 14580      6E697400 
 14581              	.LASF40:
 14582 0cf2 54494D5F 		.ascii	"TIM_RepetitionCounter\000"
 14582      52657065 
 14582      74697469 
 14582      6F6E436F 
 14582      756E7465 
 14583              	.LASF210:
 14584 0d08 54494D5F 		.ascii	"TIM_SelectHallSensor\000"
 14584      53656C65 
 14584      63744861 
 14584      6C6C5365 
 14584      6E736F72 
 14585              	.LASF160:
 14586 0d1d 54494D5F 		.ascii	"TIM_ICInitStruct\000"
 14586      4943496E 
 14586      69745374 
 14586      72756374 
 14586      00
ARM GAS  /tmp/cchgQdZS.s 			page 270


 14587              	.LASF181:
 14588 0d2e 62697473 		.ascii	"bitstatus\000"
 14588      74617475 
 14588      7300
 14589              	.LASF197:
 14590 0d38 49434669 		.ascii	"ICFilter\000"
 14590      6C746572 
 14590      00
 14591              	.LASF145:
 14592 0d41 54494D5F 		.ascii	"TIM_ClearOC2Ref\000"
 14592      436C6561 
 14592      724F4332 
 14592      52656600 
 14593              	.LASF84:
 14594 0d51 45787454 		.ascii	"ExtTRGFilter\000"
 14594      52474669 
 14594      6C746572 
 14594      00
 14595              	.LASF175:
 14596 0d5e 54494D5F 		.ascii	"TIM_ITConfig\000"
 14596      4954436F 
 14596      6E666967 
 14596      00
 14597              	.LASF48:
 14598 0d6b 54494D5F 		.ascii	"TIM_OCIdleState\000"
 14598      4F434964 
 14598      6C655374 
 14598      61746500 
 14599              	.LASF144:
 14600 0d7b 54494D5F 		.ascii	"TIM_OCClear\000"
 14600      4F43436C 
 14600      65617200 
 14601              	.LASF68:
 14602 0d87 54494D5F 		.ascii	"TIM_ICPSC\000"
 14602      49435053 
 14602      4300
 14603              	.LASF81:
 14604 0d91 54494D5F 		.ascii	"TIM_ETRConfig\000"
 14604      45545243 
 14604      6F6E6669 
 14604      6700
 14605              	.LASF85:
 14606 0d9f 54494D5F 		.ascii	"TIM_DeInit\000"
 14606      4465496E 
 14606      697400
 14607              	.LASF141:
 14608 0daa 54494D5F 		.ascii	"TIM_OC3FastConfig\000"
 14608      4F433346 
 14608      61737443 
 14608      6F6E6669 
 14608      6700
 14609              	.LASF136:
 14610 0dbc 54494D5F 		.ascii	"TIM_OC3PreloadConfig\000"
 14610      4F433350 
 14610      72656C6F 
 14610      6164436F 
 14610      6E666967 
ARM GAS  /tmp/cchgQdZS.s 			page 271


 14611              	.LASF77:
 14612 0dd1 54494D5F 		.ascii	"TIM_SetIC4Prescaler\000"
 14612      53657449 
 14612      43345072 
 14612      65736361 
 14612      6C657200 
 14613              	.LASF138:
 14614 0de5 54494D5F 		.ascii	"TIM_OC1FastConfig\000"
 14614      4F433146 
 14614      61737443 
 14614      6F6E6669 
 14614      6700
 14615              		.ident	"GCC: (4.8.4-1+11-1) 4.8.4 20141219 (release)"
ARM GAS  /tmp/cchgQdZS.s 			page 272


DEFINED SYMBOLS
                            *ABS*:0000000000000000 stm32f4xx_tim.c
     /tmp/cchgQdZS.s:21     .text.TIM_DeInit:0000000000000000 $t
     /tmp/cchgQdZS.s:27     .text.TIM_DeInit:0000000000000000 TIM_DeInit
     /tmp/cchgQdZS.s:308    .text.TIM_DeInit:0000000000000184 $d
     /tmp/cchgQdZS.s:325    .text.TIM_TimeBaseInit:0000000000000000 $t
     /tmp/cchgQdZS.s:331    .text.TIM_TimeBaseInit:0000000000000000 TIM_TimeBaseInit
     /tmp/cchgQdZS.s:462    .text.TIM_TimeBaseInit:0000000000000090 $d
     /tmp/cchgQdZS.s:469    .text.TIM_TimeBaseStructInit:0000000000000000 $t
     /tmp/cchgQdZS.s:475    .text.TIM_TimeBaseStructInit:0000000000000000 TIM_TimeBaseStructInit
     /tmp/cchgQdZS.s:501    .text.TIM_PrescalerConfig:0000000000000000 $t
     /tmp/cchgQdZS.s:507    .text.TIM_PrescalerConfig:0000000000000000 TIM_PrescalerConfig
     /tmp/cchgQdZS.s:524    .text.TIM_CounterModeConfig:0000000000000000 $t
     /tmp/cchgQdZS.s:530    .text.TIM_CounterModeConfig:0000000000000000 TIM_CounterModeConfig
     /tmp/cchgQdZS.s:554    .text.TIM_SetCounter:0000000000000000 $t
     /tmp/cchgQdZS.s:560    .text.TIM_SetCounter:0000000000000000 TIM_SetCounter
     /tmp/cchgQdZS.s:575    .text.TIM_SetAutoreload:0000000000000000 $t
     /tmp/cchgQdZS.s:581    .text.TIM_SetAutoreload:0000000000000000 TIM_SetAutoreload
     /tmp/cchgQdZS.s:596    .text.TIM_GetCounter:0000000000000000 $t
     /tmp/cchgQdZS.s:602    .text.TIM_GetCounter:0000000000000000 TIM_GetCounter
     /tmp/cchgQdZS.s:619    .text.TIM_GetPrescaler:0000000000000000 $t
     /tmp/cchgQdZS.s:625    .text.TIM_GetPrescaler:0000000000000000 TIM_GetPrescaler
     /tmp/cchgQdZS.s:643    .text.TIM_UpdateDisableConfig:0000000000000000 $t
     /tmp/cchgQdZS.s:649    .text.TIM_UpdateDisableConfig:0000000000000000 TIM_UpdateDisableConfig
     /tmp/cchgQdZS.s:675    .text.TIM_UpdateRequestConfig:0000000000000000 $t
     /tmp/cchgQdZS.s:681    .text.TIM_UpdateRequestConfig:0000000000000000 TIM_UpdateRequestConfig
     /tmp/cchgQdZS.s:707    .text.TIM_ARRPreloadConfig:0000000000000000 $t
     /tmp/cchgQdZS.s:713    .text.TIM_ARRPreloadConfig:0000000000000000 TIM_ARRPreloadConfig
     /tmp/cchgQdZS.s:739    .text.TIM_SelectOnePulseMode:0000000000000000 $t
     /tmp/cchgQdZS.s:745    .text.TIM_SelectOnePulseMode:0000000000000000 TIM_SelectOnePulseMode
     /tmp/cchgQdZS.s:768    .text.TIM_SetClockDivision:0000000000000000 $t
     /tmp/cchgQdZS.s:774    .text.TIM_SetClockDivision:0000000000000000 TIM_SetClockDivision
     /tmp/cchgQdZS.s:797    .text.TIM_Cmd:0000000000000000 $t
     /tmp/cchgQdZS.s:803    .text.TIM_Cmd:0000000000000000 TIM_Cmd
     /tmp/cchgQdZS.s:829    .text.TIM_OC1Init:0000000000000000 $t
     /tmp/cchgQdZS.s:835    .text.TIM_OC1Init:0000000000000000 TIM_OC1Init
     /tmp/cchgQdZS.s:954    .text.TIM_OC1Init:0000000000000080 $d
     /tmp/cchgQdZS.s:959    .text.TIM_OC2Init:0000000000000000 $t
     /tmp/cchgQdZS.s:965    .text.TIM_OC2Init:0000000000000000 TIM_OC2Init
     /tmp/cchgQdZS.s:1095   .text.TIM_OC2Init:0000000000000090 $d
     /tmp/cchgQdZS.s:1100   .text.TIM_OC3Init:0000000000000000 $t
     /tmp/cchgQdZS.s:1106   .text.TIM_OC3Init:0000000000000000 TIM_OC3Init
     /tmp/cchgQdZS.s:1232   .text.TIM_OC3Init:000000000000008c $d
     /tmp/cchgQdZS.s:1237   .text.TIM_OC4Init:0000000000000000 $t
     /tmp/cchgQdZS.s:1243   .text.TIM_OC4Init:0000000000000000 TIM_OC4Init
     /tmp/cchgQdZS.s:1348   .text.TIM_OC4Init:0000000000000070 $d
     /tmp/cchgQdZS.s:1353   .text.TIM_OCStructInit:0000000000000000 $t
     /tmp/cchgQdZS.s:1359   .text.TIM_OCStructInit:0000000000000000 TIM_OCStructInit
     /tmp/cchgQdZS.s:1389   .text.TIM_SelectOCxM:0000000000000000 $t
     /tmp/cchgQdZS.s:1395   .text.TIM_SelectOCxM:0000000000000000 TIM_SelectOCxM
     /tmp/cchgQdZS.s:1470   .text.TIM_SetCompare1:0000000000000000 $t
     /tmp/cchgQdZS.s:1476   .text.TIM_SetCompare1:0000000000000000 TIM_SetCompare1
     /tmp/cchgQdZS.s:1491   .text.TIM_SetCompare2:0000000000000000 $t
     /tmp/cchgQdZS.s:1497   .text.TIM_SetCompare2:0000000000000000 TIM_SetCompare2
     /tmp/cchgQdZS.s:1512   .text.TIM_SetCompare3:0000000000000000 $t
     /tmp/cchgQdZS.s:1518   .text.TIM_SetCompare3:0000000000000000 TIM_SetCompare3
     /tmp/cchgQdZS.s:1533   .text.TIM_SetCompare4:0000000000000000 $t
ARM GAS  /tmp/cchgQdZS.s 			page 273


     /tmp/cchgQdZS.s:1539   .text.TIM_SetCompare4:0000000000000000 TIM_SetCompare4
     /tmp/cchgQdZS.s:1554   .text.TIM_ForcedOC1Config:0000000000000000 $t
     /tmp/cchgQdZS.s:1560   .text.TIM_ForcedOC1Config:0000000000000000 TIM_ForcedOC1Config
     /tmp/cchgQdZS.s:1584   .text.TIM_ForcedOC2Config:0000000000000000 $t
     /tmp/cchgQdZS.s:1590   .text.TIM_ForcedOC2Config:0000000000000000 TIM_ForcedOC2Config
     /tmp/cchgQdZS.s:1617   .text.TIM_ForcedOC3Config:0000000000000000 $t
     /tmp/cchgQdZS.s:1623   .text.TIM_ForcedOC3Config:0000000000000000 TIM_ForcedOC3Config
     /tmp/cchgQdZS.s:1647   .text.TIM_ForcedOC4Config:0000000000000000 $t
     /tmp/cchgQdZS.s:1653   .text.TIM_ForcedOC4Config:0000000000000000 TIM_ForcedOC4Config
     /tmp/cchgQdZS.s:1680   .text.TIM_OC1PreloadConfig:0000000000000000 $t
     /tmp/cchgQdZS.s:1686   .text.TIM_OC1PreloadConfig:0000000000000000 TIM_OC1PreloadConfig
     /tmp/cchgQdZS.s:1710   .text.TIM_OC2PreloadConfig:0000000000000000 $t
     /tmp/cchgQdZS.s:1716   .text.TIM_OC2PreloadConfig:0000000000000000 TIM_OC2PreloadConfig
     /tmp/cchgQdZS.s:1743   .text.TIM_OC3PreloadConfig:0000000000000000 $t
     /tmp/cchgQdZS.s:1749   .text.TIM_OC3PreloadConfig:0000000000000000 TIM_OC3PreloadConfig
     /tmp/cchgQdZS.s:1773   .text.TIM_OC4PreloadConfig:0000000000000000 $t
     /tmp/cchgQdZS.s:1779   .text.TIM_OC4PreloadConfig:0000000000000000 TIM_OC4PreloadConfig
     /tmp/cchgQdZS.s:1806   .text.TIM_OC1FastConfig:0000000000000000 $t
     /tmp/cchgQdZS.s:1812   .text.TIM_OC1FastConfig:0000000000000000 TIM_OC1FastConfig
     /tmp/cchgQdZS.s:1836   .text.TIM_OC2FastConfig:0000000000000000 $t
     /tmp/cchgQdZS.s:1842   .text.TIM_OC2FastConfig:0000000000000000 TIM_OC2FastConfig
     /tmp/cchgQdZS.s:1869   .text.TIM_OC3FastConfig:0000000000000000 $t
     /tmp/cchgQdZS.s:1875   .text.TIM_OC3FastConfig:0000000000000000 TIM_OC3FastConfig
     /tmp/cchgQdZS.s:1899   .text.TIM_OC4FastConfig:0000000000000000 $t
     /tmp/cchgQdZS.s:1905   .text.TIM_OC4FastConfig:0000000000000000 TIM_OC4FastConfig
     /tmp/cchgQdZS.s:1932   .text.TIM_ClearOC1Ref:0000000000000000 $t
     /tmp/cchgQdZS.s:1938   .text.TIM_ClearOC1Ref:0000000000000000 TIM_ClearOC1Ref
     /tmp/cchgQdZS.s:1962   .text.TIM_ClearOC2Ref:0000000000000000 $t
     /tmp/cchgQdZS.s:1968   .text.TIM_ClearOC2Ref:0000000000000000 TIM_ClearOC2Ref
     /tmp/cchgQdZS.s:1994   .text.TIM_ClearOC3Ref:0000000000000000 $t
     /tmp/cchgQdZS.s:2000   .text.TIM_ClearOC3Ref:0000000000000000 TIM_ClearOC3Ref
     /tmp/cchgQdZS.s:2024   .text.TIM_ClearOC4Ref:0000000000000000 $t
     /tmp/cchgQdZS.s:2030   .text.TIM_ClearOC4Ref:0000000000000000 TIM_ClearOC4Ref
     /tmp/cchgQdZS.s:2056   .text.TIM_OC1PolarityConfig:0000000000000000 $t
     /tmp/cchgQdZS.s:2062   .text.TIM_OC1PolarityConfig:0000000000000000 TIM_OC1PolarityConfig
     /tmp/cchgQdZS.s:2086   .text.TIM_OC1NPolarityConfig:0000000000000000 $t
     /tmp/cchgQdZS.s:2092   .text.TIM_OC1NPolarityConfig:0000000000000000 TIM_OC1NPolarityConfig
     /tmp/cchgQdZS.s:2116   .text.TIM_OC2PolarityConfig:0000000000000000 $t
     /tmp/cchgQdZS.s:2122   .text.TIM_OC2PolarityConfig:0000000000000000 TIM_OC2PolarityConfig
     /tmp/cchgQdZS.s:2149   .text.TIM_OC2NPolarityConfig:0000000000000000 $t
     /tmp/cchgQdZS.s:2155   .text.TIM_OC2NPolarityConfig:0000000000000000 TIM_OC2NPolarityConfig
     /tmp/cchgQdZS.s:2182   .text.TIM_OC3PolarityConfig:0000000000000000 $t
     /tmp/cchgQdZS.s:2188   .text.TIM_OC3PolarityConfig:0000000000000000 TIM_OC3PolarityConfig
     /tmp/cchgQdZS.s:2215   .text.TIM_OC3NPolarityConfig:0000000000000000 $t
     /tmp/cchgQdZS.s:2221   .text.TIM_OC3NPolarityConfig:0000000000000000 TIM_OC3NPolarityConfig
     /tmp/cchgQdZS.s:2248   .text.TIM_OC4PolarityConfig:0000000000000000 $t
     /tmp/cchgQdZS.s:2254   .text.TIM_OC4PolarityConfig:0000000000000000 TIM_OC4PolarityConfig
     /tmp/cchgQdZS.s:2281   .text.TIM_CCxCmd:0000000000000000 $t
     /tmp/cchgQdZS.s:2287   .text.TIM_CCxCmd:0000000000000000 TIM_CCxCmd
     /tmp/cchgQdZS.s:2325   .text.TIM_CCxNCmd:0000000000000000 $t
     /tmp/cchgQdZS.s:2331   .text.TIM_CCxNCmd:0000000000000000 TIM_CCxNCmd
     /tmp/cchgQdZS.s:2369   .text.TIM_ICInit:0000000000000000 $t
     /tmp/cchgQdZS.s:2375   .text.TIM_ICInit:0000000000000000 TIM_ICInit
     /tmp/cchgQdZS.s:2707   .text.TIM_ICStructInit:0000000000000000 $t
     /tmp/cchgQdZS.s:2713   .text.TIM_ICStructInit:0000000000000000 TIM_ICStructInit
     /tmp/cchgQdZS.s:2739   .text.TIM_PWMIConfig:0000000000000000 $t
     /tmp/cchgQdZS.s:2745   .text.TIM_PWMIConfig:0000000000000000 TIM_PWMIConfig
ARM GAS  /tmp/cchgQdZS.s 			page 274


     /tmp/cchgQdZS.s:3059   .text.TIM_GetCapture1:0000000000000000 $t
     /tmp/cchgQdZS.s:3065   .text.TIM_GetCapture1:0000000000000000 TIM_GetCapture1
     /tmp/cchgQdZS.s:3082   .text.TIM_GetCapture2:0000000000000000 $t
     /tmp/cchgQdZS.s:3088   .text.TIM_GetCapture2:0000000000000000 TIM_GetCapture2
     /tmp/cchgQdZS.s:3105   .text.TIM_GetCapture3:0000000000000000 $t
     /tmp/cchgQdZS.s:3111   .text.TIM_GetCapture3:0000000000000000 TIM_GetCapture3
     /tmp/cchgQdZS.s:3128   .text.TIM_GetCapture4:0000000000000000 $t
     /tmp/cchgQdZS.s:3134   .text.TIM_GetCapture4:0000000000000000 TIM_GetCapture4
     /tmp/cchgQdZS.s:3151   .text.TIM_SetIC1Prescaler:0000000000000000 $t
     /tmp/cchgQdZS.s:3157   .text.TIM_SetIC1Prescaler:0000000000000000 TIM_SetIC1Prescaler
     /tmp/cchgQdZS.s:3180   .text.TIM_SetIC2Prescaler:0000000000000000 $t
     /tmp/cchgQdZS.s:3186   .text.TIM_SetIC2Prescaler:0000000000000000 TIM_SetIC2Prescaler
     /tmp/cchgQdZS.s:3211   .text.TIM_SetIC3Prescaler:0000000000000000 $t
     /tmp/cchgQdZS.s:3217   .text.TIM_SetIC3Prescaler:0000000000000000 TIM_SetIC3Prescaler
     /tmp/cchgQdZS.s:3240   .text.TIM_SetIC4Prescaler:0000000000000000 $t
     /tmp/cchgQdZS.s:3246   .text.TIM_SetIC4Prescaler:0000000000000000 TIM_SetIC4Prescaler
     /tmp/cchgQdZS.s:3271   .text.TIM_BDTRConfig:0000000000000000 $t
     /tmp/cchgQdZS.s:3277   .text.TIM_BDTRConfig:0000000000000000 TIM_BDTRConfig
     /tmp/cchgQdZS.s:3317   .text.TIM_BDTRStructInit:0000000000000000 $t
     /tmp/cchgQdZS.s:3323   .text.TIM_BDTRStructInit:0000000000000000 TIM_BDTRStructInit
     /tmp/cchgQdZS.s:3351   .text.TIM_CtrlPWMOutputs:0000000000000000 $t
     /tmp/cchgQdZS.s:3357   .text.TIM_CtrlPWMOutputs:0000000000000000 TIM_CtrlPWMOutputs
     /tmp/cchgQdZS.s:3382   .text.TIM_SelectCOM:0000000000000000 $t
     /tmp/cchgQdZS.s:3388   .text.TIM_SelectCOM:0000000000000000 TIM_SelectCOM
     /tmp/cchgQdZS.s:3414   .text.TIM_CCPreloadControl:0000000000000000 $t
     /tmp/cchgQdZS.s:3420   .text.TIM_CCPreloadControl:0000000000000000 TIM_CCPreloadControl
     /tmp/cchgQdZS.s:3446   .text.TIM_ITConfig:0000000000000000 $t
     /tmp/cchgQdZS.s:3452   .text.TIM_ITConfig:0000000000000000 TIM_ITConfig
     /tmp/cchgQdZS.s:3482   .text.TIM_GenerateEvent:0000000000000000 $t
     /tmp/cchgQdZS.s:3488   .text.TIM_GenerateEvent:0000000000000000 TIM_GenerateEvent
     /tmp/cchgQdZS.s:3503   .text.TIM_GetFlagStatus:0000000000000000 $t
     /tmp/cchgQdZS.s:3509   .text.TIM_GetFlagStatus:0000000000000000 TIM_GetFlagStatus
     /tmp/cchgQdZS.s:3531   .text.TIM_ClearFlag:0000000000000000 $t
     /tmp/cchgQdZS.s:3537   .text.TIM_ClearFlag:0000000000000000 TIM_ClearFlag
     /tmp/cchgQdZS.s:3555   .text.TIM_GetITStatus:0000000000000000 $t
     /tmp/cchgQdZS.s:3561   .text.TIM_GetITStatus:0000000000000000 TIM_GetITStatus
     /tmp/cchgQdZS.s:3593   .text.TIM_ClearITPendingBit:0000000000000000 $t
     /tmp/cchgQdZS.s:3599   .text.TIM_ClearITPendingBit:0000000000000000 TIM_ClearITPendingBit
     /tmp/cchgQdZS.s:3617   .text.TIM_DMAConfig:0000000000000000 $t
     /tmp/cchgQdZS.s:3623   .text.TIM_DMAConfig:0000000000000000 TIM_DMAConfig
     /tmp/cchgQdZS.s:3640   .text.TIM_DMACmd:0000000000000000 $t
     /tmp/cchgQdZS.s:3646   .text.TIM_DMACmd:0000000000000000 TIM_DMACmd
     /tmp/cchgQdZS.s:3676   .text.TIM_SelectCCDMA:0000000000000000 $t
     /tmp/cchgQdZS.s:3682   .text.TIM_SelectCCDMA:0000000000000000 TIM_SelectCCDMA
     /tmp/cchgQdZS.s:3708   .text.TIM_InternalClockConfig:0000000000000000 $t
     /tmp/cchgQdZS.s:3714   .text.TIM_InternalClockConfig:0000000000000000 TIM_InternalClockConfig
     /tmp/cchgQdZS.s:3732   .text.TIM_ITRxExternalClockConfig:0000000000000000 $t
     /tmp/cchgQdZS.s:3738   .text.TIM_ITRxExternalClockConfig:0000000000000000 TIM_ITRxExternalClockConfig
     /tmp/cchgQdZS.s:3771   .text.TIM_TIxExternalClockConfig:0000000000000000 $t
     /tmp/cchgQdZS.s:3777   .text.TIM_TIxExternalClockConfig:0000000000000000 TIM_TIxExternalClockConfig
     /tmp/cchgQdZS.s:3919   .text.TIM_ETRClockMode1Config:0000000000000000 $t
     /tmp/cchgQdZS.s:3925   .text.TIM_ETRClockMode1Config:0000000000000000 TIM_ETRClockMode1Config
     /tmp/cchgQdZS.s:3977   .text.TIM_ETRClockMode2Config:0000000000000000 $t
     /tmp/cchgQdZS.s:3983   .text.TIM_ETRClockMode2Config:0000000000000000 TIM_ETRClockMode2Config
     /tmp/cchgQdZS.s:4029   .text.TIM_SelectInputTrigger:0000000000000000 $t
     /tmp/cchgQdZS.s:4035   .text.TIM_SelectInputTrigger:0000000000000000 TIM_SelectInputTrigger
     /tmp/cchgQdZS.s:4059   .text.TIM_SelectOutputTrigger:0000000000000000 $t
ARM GAS  /tmp/cchgQdZS.s 			page 275


     /tmp/cchgQdZS.s:4065   .text.TIM_SelectOutputTrigger:0000000000000000 TIM_SelectOutputTrigger
     /tmp/cchgQdZS.s:4088   .text.TIM_SelectSlaveMode:0000000000000000 $t
     /tmp/cchgQdZS.s:4094   .text.TIM_SelectSlaveMode:0000000000000000 TIM_SelectSlaveMode
     /tmp/cchgQdZS.s:4117   .text.TIM_SelectMasterSlaveMode:0000000000000000 $t
     /tmp/cchgQdZS.s:4123   .text.TIM_SelectMasterSlaveMode:0000000000000000 TIM_SelectMasterSlaveMode
     /tmp/cchgQdZS.s:4146   .text.TIM_ETRConfig:0000000000000000 $t
     /tmp/cchgQdZS.s:4152   .text.TIM_ETRConfig:0000000000000000 TIM_ETRConfig
     /tmp/cchgQdZS.s:4186   .text.TIM_EncoderInterfaceConfig:0000000000000000 $t
     /tmp/cchgQdZS.s:4192   .text.TIM_EncoderInterfaceConfig:0000000000000000 TIM_EncoderInterfaceConfig
     /tmp/cchgQdZS.s:4258   .text.TIM_SelectHallSensor:0000000000000000 $t
     /tmp/cchgQdZS.s:4264   .text.TIM_SelectHallSensor:0000000000000000 TIM_SelectHallSensor
     /tmp/cchgQdZS.s:4290   .text.TIM_RemapConfig:0000000000000000 $t
     /tmp/cchgQdZS.s:4296   .text.TIM_RemapConfig:0000000000000000 TIM_RemapConfig
                     .debug_frame:0000000000000010 $d
     /tmp/cchgQdZS.s:324    .text.TIM_DeInit:00000000000001b8 $t
     /tmp/cchgQdZS.s:468    .text.TIM_TimeBaseInit:000000000000009c $t
     /tmp/cchgQdZS.s:958    .text.TIM_OC1Init:0000000000000084 $t
     /tmp/cchgQdZS.s:1099   .text.TIM_OC2Init:0000000000000094 $t
     /tmp/cchgQdZS.s:1352   .text.TIM_OC4Init:0000000000000074 $t

UNDEFINED SYMBOLS
RCC_APB1PeriphResetCmd
RCC_APB2PeriphResetCmd
