ARM GAS  /tmp/ccqRxWEk.s 			page 1


   1              		.syntax unified
   2              		.cpu cortex-m4
   3              		.eabi_attribute 27, 3
   4              		.eabi_attribute 28, 1
   5              		.fpu fpv4-sp-d16
   6              		.eabi_attribute 20, 1
   7              		.eabi_attribute 21, 1
   8              		.eabi_attribute 23, 3
   9              		.eabi_attribute 24, 1
  10              		.eabi_attribute 25, 1
  11              		.eabi_attribute 26, 1
  12              		.eabi_attribute 30, 2
  13              		.eabi_attribute 34, 1
  14              		.eabi_attribute 18, 4
  15              		.thumb
  16              		.file	"stm32f4xx_adc.c"
  17              		.text
  18              	.Ltext0:
  19              		.cfi_sections	.debug_frame
  20              		.section	.text.ADC_DeInit,"ax",%progbits
  21              		.align	2
  22              		.p2align 4,,15
  23              		.global	ADC_DeInit
  24              		.thumb
  25              		.thumb_func
  26              		.type	ADC_DeInit, %function
  27              	ADC_DeInit:
  28              	.LFB112:
  29              		.file 1 "ChibiOS_3.0.2/ext/stdperiph_stm32f4/src/stm32f4xx_adc.c"
  30              		.loc 1 218 0
  31              		.cfi_startproc
  32              		@ args = 0, pretend = 0, frame = 0
  33              		@ frame_needed = 0, uses_anonymous_args = 0
  34 0000 08B5     		push	{r3, lr}
  35              		.cfi_def_cfa_offset 8
  36              		.cfi_offset 3, -8
  37              		.cfi_offset 14, -4
  38              		.loc 1 220 0
  39 0002 4FF48070 		mov	r0, #256
  40 0006 0121     		movs	r1, #1
  41 0008 FFF7FEFF 		bl	RCC_APB2PeriphResetCmd
  42              	.LVL0:
  43              		.loc 1 223 0
  44 000c 4FF48070 		mov	r0, #256
  45 0010 0021     		movs	r1, #0
  46              		.loc 1 224 0
  47 0012 BDE80840 		pop	{r3, lr}
  48              		.loc 1 223 0
  49 0016 FFF7FEBF 		b	RCC_APB2PeriphResetCmd
  50              	.LVL1:
  51              		.cfi_endproc
  52              	.LFE112:
  53              		.size	ADC_DeInit, .-ADC_DeInit
  54 001a 00BFAFF3 		.section	.text.ADC_Init,"ax",%progbits
  54      0080
  55              		.align	2
  56              		.p2align 4,,15
ARM GAS  /tmp/ccqRxWEk.s 			page 2


  57              		.global	ADC_Init
  58              		.thumb
  59              		.thumb_func
  60              		.type	ADC_Init, %function
  61              	ADC_Init:
  62              	.LFB113:
  63              		.loc 1 240 0
  64              		.cfi_startproc
  65              		@ args = 0, pretend = 0, frame = 0
  66              		@ frame_needed = 0, uses_anonymous_args = 0
  67              		@ link register save eliminated.
  68              	.LVL2:
  69              		.loc 1 255 0
  70 0000 4268     		ldr	r2, [r0, #4]
  71              	.LVL3:
  72              		.loc 1 280 0
  73 0002 D1F80CC0 		ldr	ip, [r1, #12]
  74              		.loc 1 272 0
  75 0006 134B     		ldr	r3, .L3
  76              		.loc 1 240 0
  77 0008 2DE9F001 		push	{r4, r5, r6, r7, r8}
  78              		.cfi_def_cfa_offset 20
  79              		.cfi_offset 4, -20
  80              		.cfi_offset 5, -16
  81              		.cfi_offset 6, -12
  82              		.cfi_offset 7, -8
  83              		.cfi_offset 8, -4
  84              		.loc 1 258 0
  85 000c 22F04072 		bic	r2, r2, #50331648
  86              	.LVL4:
  87              		.loc 1 263 0
  88 0010 0C68     		ldr	r4, [r1]
  89 0012 91F80480 		ldrb	r8, [r1, #4]	@ zero_extendqisi2
  90              		.loc 1 280 0
  91 0016 0F69     		ldr	r7, [r1, #16]
  92              		.loc 1 281 0
  93 0018 8E68     		ldr	r6, [r1, #8]
  94              		.loc 1 283 0
  95 001a 4D79     		ldrb	r5, [r1, #5]	@ zero_extendqisi2
  96              		.loc 1 258 0
  97 001c 22F48072 		bic	r2, r2, #256
  98              		.loc 1 263 0
  99 0020 2243     		orrs	r2, r2, r4
 100 0022 42EA0822 		orr	r2, r2, r8, lsl #8
 101              	.LVL5:
 102              		.loc 1 266 0
 103 0026 4260     		str	r2, [r0, #4]
 104              		.loc 1 269 0
 105 0028 8468     		ldr	r4, [r0, #8]
 106              	.LVL6:
 107              		.loc 1 280 0
 108 002a 4CEA0702 		orr	r2, ip, r7
 109              		.loc 1 281 0
 110 002e 3243     		orrs	r2, r2, r6
 111              		.loc 1 272 0
 112 0030 2340     		ands	r3, r3, r4
 113              	.LVL7:
ARM GAS  /tmp/ccqRxWEk.s 			page 3


 114              		.loc 1 280 0
 115 0032 1343     		orrs	r3, r3, r2
 116              	.LVL8:
 117 0034 43EA4503 		orr	r3, r3, r5, lsl #1
 118              	.LVL9:
 119              		.loc 1 286 0
 120 0038 8360     		str	r3, [r0, #8]
 121              		.loc 1 296 0
 122 003a 0B7D     		ldrb	r3, [r1, #20]	@ zero_extendqisi2
 123              	.LVL10:
 124              		.loc 1 289 0
 125 003c C26A     		ldr	r2, [r0, #44]
 126              	.LVL11:
 127              		.loc 1 296 0
 128 003e 013B     		subs	r3, r3, #1
 129              		.loc 1 297 0
 130 0040 DBB2     		uxtb	r3, r3
 131              		.loc 1 292 0
 132 0042 22F47002 		bic	r2, r2, #15728640
 133              	.LVL12:
 134              		.loc 1 297 0
 135 0046 42EA0353 		orr	r3, r2, r3, lsl #20
 136              	.LVL13:
 137              		.loc 1 300 0
 138 004a C362     		str	r3, [r0, #44]
 139              	.LVL14:
 140              		.loc 1 301 0
 141 004c BDE8F001 		pop	{r4, r5, r6, r7, r8}
 142 0050 7047     		bx	lr
 143              	.L4:
 144 0052 00BF     		.align	2
 145              	.L3:
 146 0054 FDF7FFC0 		.word	-1056966659
 147              		.cfi_endproc
 148              	.LFE113:
 149              		.size	ADC_Init, .-ADC_Init
 150 0058 AFF30080 		.section	.text.ADC_StructInit,"ax",%progbits
 150      AFF30080 
 151              		.align	2
 152              		.p2align 4,,15
 153              		.global	ADC_StructInit
 154              		.thumb
 155              		.thumb_func
 156              		.type	ADC_StructInit, %function
 157              	ADC_StructInit:
 158              	.LFB114:
 159              		.loc 1 315 0
 160              		.cfi_startproc
 161              		@ args = 0, pretend = 0, frame = 0
 162              		@ frame_needed = 0, uses_anonymous_args = 0
 163              		@ link register save eliminated.
 164              	.LVL15:
 165              		.loc 1 317 0
 166 0000 0023     		movs	r3, #0
 167              		.loc 1 335 0
 168 0002 0122     		movs	r2, #1
 169 0004 0275     		strb	r2, [r0, #20]
ARM GAS  /tmp/ccqRxWEk.s 			page 4


 170              		.loc 1 317 0
 171 0006 0360     		str	r3, [r0]
 172              		.loc 1 320 0
 173 0008 0371     		strb	r3, [r0, #4]
 174              		.loc 1 323 0
 175 000a 4371     		strb	r3, [r0, #5]
 176              		.loc 1 326 0
 177 000c 8360     		str	r3, [r0, #8]
 178              		.loc 1 329 0
 179 000e C360     		str	r3, [r0, #12]
 180              		.loc 1 332 0
 181 0010 0361     		str	r3, [r0, #16]
 182 0012 7047     		bx	lr
 183              		.cfi_endproc
 184              	.LFE114:
 185              		.size	ADC_StructInit, .-ADC_StructInit
 186 0014 AFF30080 		.section	.text.ADC_CommonInit,"ax",%progbits
 186      AFF30080 
 186      AFF30080 
 187              		.align	2
 188              		.p2align 4,,15
 189              		.global	ADC_CommonInit
 190              		.thumb
 191              		.thumb_func
 192              		.type	ADC_CommonInit, %function
 193              	ADC_CommonInit:
 194              	.LFB115:
 195              		.loc 1 346 0
 196              		.cfi_startproc
 197              		@ args = 0, pretend = 0, frame = 0
 198              		@ frame_needed = 0, uses_anonymous_args = 0
 199              		@ link register save eliminated.
 200              	.LVL16:
 201 0000 70B4     		push	{r4, r5, r6}
 202              		.cfi_def_cfa_offset 12
 203              		.cfi_offset 4, -12
 204              		.cfi_offset 5, -8
 205              		.cfi_offset 6, -4
 206              		.loc 1 366 0
 207 0002 90E84200 		ldmia	r0, {r1, r6}
 208              		.loc 1 355 0
 209 0006 064A     		ldr	r2, .L7
 210              		.loc 1 367 0
 211 0008 8568     		ldr	r5, [r0, #8]
 212              		.loc 1 366 0
 213 000a C468     		ldr	r4, [r0, #12]
 214              		.loc 1 358 0
 215 000c 054B     		ldr	r3, .L7+4
 216              		.loc 1 355 0
 217 000e 5068     		ldr	r0, [r2, #4]
 218              	.LVL17:
 219              		.loc 1 366 0
 220 0010 3143     		orrs	r1, r1, r6
 221              		.loc 1 367 0
 222 0012 2943     		orrs	r1, r1, r5
 223              		.loc 1 366 0
 224 0014 2143     		orrs	r1, r1, r4
ARM GAS  /tmp/ccqRxWEk.s 			page 5


 225              		.loc 1 358 0
 226 0016 0340     		ands	r3, r3, r0
 227              	.LVL18:
 228              		.loc 1 366 0
 229 0018 0B43     		orrs	r3, r3, r1
 230              	.LVL19:
 231              		.loc 1 372 0
 232 001a 5360     		str	r3, [r2, #4]
 233              		.loc 1 373 0
 234 001c 70BC     		pop	{r4, r5, r6}
 235 001e 7047     		bx	lr
 236              	.L8:
 237              		.align	2
 238              	.L7:
 239 0020 00230140 		.word	1073816320
 240 0024 E030FCFF 		.word	-249632
 241              		.cfi_endproc
 242              	.LFE115:
 243              		.size	ADC_CommonInit, .-ADC_CommonInit
 244 0028 AFF30080 		.section	.text.ADC_CommonStructInit,"ax",%progbits
 244      AFF30080 
 245              		.align	2
 246              		.p2align 4,,15
 247              		.global	ADC_CommonStructInit
 248              		.thumb
 249              		.thumb_func
 250              		.type	ADC_CommonStructInit, %function
 251              	ADC_CommonStructInit:
 252              	.LFB116:
 253              		.loc 1 382 0
 254              		.cfi_startproc
 255              		@ args = 0, pretend = 0, frame = 0
 256              		@ frame_needed = 0, uses_anonymous_args = 0
 257              		@ link register save eliminated.
 258              	.LVL20:
 259              		.loc 1 384 0
 260 0000 0023     		movs	r3, #0
 261 0002 0360     		str	r3, [r0]
 262              		.loc 1 387 0
 263 0004 4360     		str	r3, [r0, #4]
 264              		.loc 1 390 0
 265 0006 8360     		str	r3, [r0, #8]
 266              		.loc 1 393 0
 267 0008 C360     		str	r3, [r0, #12]
 268 000a 7047     		bx	lr
 269              		.cfi_endproc
 270              	.LFE116:
 271              		.size	ADC_CommonStructInit, .-ADC_CommonStructInit
 272 000c AFF30080 		.section	.text.ADC_Cmd,"ax",%progbits
 273              		.align	2
 274              		.p2align 4,,15
 275              		.global	ADC_Cmd
 276              		.thumb
 277              		.thumb_func
 278              		.type	ADC_Cmd, %function
 279              	ADC_Cmd:
 280              	.LFB117:
ARM GAS  /tmp/ccqRxWEk.s 			page 6


 281              		.loc 1 404 0
 282              		.cfi_startproc
 283              		@ args = 0, pretend = 0, frame = 0
 284              		@ frame_needed = 0, uses_anonymous_args = 0
 285              		@ link register save eliminated.
 286              	.LVL21:
 287              		.loc 1 411 0
 288 0000 8368     		ldr	r3, [r0, #8]
 289              		.loc 1 408 0
 290 0002 19B9     		cbnz	r1, .L14
 291              		.loc 1 416 0
 292 0004 23F00103 		bic	r3, r3, #1
 293 0008 8360     		str	r3, [r0, #8]
 294 000a 7047     		bx	lr
 295              	.L14:
 296              		.loc 1 411 0
 297 000c 43F00103 		orr	r3, r3, #1
 298 0010 8360     		str	r3, [r0, #8]
 299 0012 7047     		bx	lr
 300              		.cfi_endproc
 301              	.LFE117:
 302              		.size	ADC_Cmd, .-ADC_Cmd
 303 0014 AFF30080 		.section	.text.ADC_AnalogWatchdogCmd,"ax",%progbits
 303      AFF30080 
 303      AFF30080 
 304              		.align	2
 305              		.p2align 4,,15
 306              		.global	ADC_AnalogWatchdogCmd
 307              		.thumb
 308              		.thumb_func
 309              		.type	ADC_AnalogWatchdogCmd, %function
 310              	ADC_AnalogWatchdogCmd:
 311              	.LFB118:
 312              		.loc 1 460 0
 313              		.cfi_startproc
 314              		@ args = 0, pretend = 0, frame = 0
 315              		@ frame_needed = 0, uses_anonymous_args = 0
 316              		@ link register save eliminated.
 317              	.LVL22:
 318              		.loc 1 467 0
 319 0000 4368     		ldr	r3, [r0, #4]
 320              	.LVL23:
 321              		.loc 1 470 0
 322 0002 23F44003 		bic	r3, r3, #12582912
 323              	.LVL24:
 324 0006 23F40073 		bic	r3, r3, #512
 325              	.LVL25:
 326              		.loc 1 473 0
 327 000a 1943     		orrs	r1, r1, r3
 328              	.LVL26:
 329              		.loc 1 476 0
 330 000c 4160     		str	r1, [r0, #4]
 331 000e 7047     		bx	lr
 332              		.cfi_endproc
 333              	.LFE118:
 334              		.size	ADC_AnalogWatchdogCmd, .-ADC_AnalogWatchdogCmd
 335              		.section	.text.ADC_AnalogWatchdogThresholdsConfig,"ax",%progbits
ARM GAS  /tmp/ccqRxWEk.s 			page 7


 336              		.align	2
 337              		.p2align 4,,15
 338              		.global	ADC_AnalogWatchdogThresholdsConfig
 339              		.thumb
 340              		.thumb_func
 341              		.type	ADC_AnalogWatchdogThresholdsConfig, %function
 342              	ADC_AnalogWatchdogThresholdsConfig:
 343              	.LFB119:
 344              		.loc 1 490 0
 345              		.cfi_startproc
 346              		@ args = 0, pretend = 0, frame = 0
 347              		@ frame_needed = 0, uses_anonymous_args = 0
 348              		@ link register save eliminated.
 349              	.LVL27:
 350              		.loc 1 497 0
 351 0000 4162     		str	r1, [r0, #36]
 352              		.loc 1 500 0
 353 0002 8262     		str	r2, [r0, #40]
 354 0004 7047     		bx	lr
 355              		.cfi_endproc
 356              	.LFE119:
 357              		.size	ADC_AnalogWatchdogThresholdsConfig, .-ADC_AnalogWatchdogThresholdsConfig
 358 0006 00BFAFF3 		.section	.text.ADC_AnalogWatchdogSingleChannelConfig,"ax",%progbits
 358      0080AFF3 
 358      0080
 359              		.align	2
 360              		.p2align 4,,15
 361              		.global	ADC_AnalogWatchdogSingleChannelConfig
 362              		.thumb
 363              		.thumb_func
 364              		.type	ADC_AnalogWatchdogSingleChannelConfig, %function
 365              	ADC_AnalogWatchdogSingleChannelConfig:
 366              	.LFB120:
 367              		.loc 1 530 0
 368              		.cfi_startproc
 369              		@ args = 0, pretend = 0, frame = 0
 370              		@ frame_needed = 0, uses_anonymous_args = 0
 371              		@ link register save eliminated.
 372              	.LVL28:
 373              		.loc 1 537 0
 374 0000 4368     		ldr	r3, [r0, #4]
 375              	.LVL29:
 376              		.loc 1 540 0
 377 0002 23F01F03 		bic	r3, r3, #31
 378              	.LVL30:
 379              		.loc 1 543 0
 380 0006 1943     		orrs	r1, r1, r3
 381              	.LVL31:
 382              		.loc 1 546 0
 383 0008 4160     		str	r1, [r0, #4]
 384 000a 7047     		bx	lr
 385              		.cfi_endproc
 386              	.LFE120:
 387              		.size	ADC_AnalogWatchdogSingleChannelConfig, .-ADC_AnalogWatchdogSingleChannelConfig
 388 000c AFF30080 		.section	.text.ADC_TempSensorVrefintCmd,"ax",%progbits
 389              		.align	2
 390              		.p2align 4,,15
ARM GAS  /tmp/ccqRxWEk.s 			page 8


 391              		.global	ADC_TempSensorVrefintCmd
 392              		.thumb
 393              		.thumb_func
 394              		.type	ADC_TempSensorVrefintCmd, %function
 395              	ADC_TempSensorVrefintCmd:
 396              	.LFB121:
 397              		.loc 1 594 0
 398              		.cfi_startproc
 399              		@ args = 0, pretend = 0, frame = 0
 400              		@ frame_needed = 0, uses_anonymous_args = 0
 401              		@ link register save eliminated.
 402              	.LVL32:
 403              		.loc 1 600 0
 404 0000 054B     		ldr	r3, .L22
 405 0002 5A68     		ldr	r2, [r3, #4]
 406              		.loc 1 597 0
 407 0004 18B9     		cbnz	r0, .L21
 408              		.loc 1 605 0
 409 0006 22F40002 		bic	r2, r2, #8388608
 410 000a 5A60     		str	r2, [r3, #4]
 411 000c 7047     		bx	lr
 412              	.L21:
 413              		.loc 1 600 0
 414 000e 42F40002 		orr	r2, r2, #8388608
 415 0012 5A60     		str	r2, [r3, #4]
 416 0014 7047     		bx	lr
 417              	.L23:
 418 0016 00BF     		.align	2
 419              	.L22:
 420 0018 00230140 		.word	1073816320
 421              		.cfi_endproc
 422              	.LFE121:
 423              		.size	ADC_TempSensorVrefintCmd, .-ADC_TempSensorVrefintCmd
 424 001c AFF30080 		.section	.text.ADC_VBATCmd,"ax",%progbits
 425              		.align	2
 426              		.p2align 4,,15
 427              		.global	ADC_VBATCmd
 428              		.thumb
 429              		.thumb_func
 430              		.type	ADC_VBATCmd, %function
 431              	ADC_VBATCmd:
 432              	.LFB122:
 433              		.loc 1 620 0
 434              		.cfi_startproc
 435              		@ args = 0, pretend = 0, frame = 0
 436              		@ frame_needed = 0, uses_anonymous_args = 0
 437              		@ link register save eliminated.
 438              	.LVL33:
 439              		.loc 1 626 0
 440 0000 054B     		ldr	r3, .L28
 441 0002 5A68     		ldr	r2, [r3, #4]
 442              		.loc 1 623 0
 443 0004 18B9     		cbnz	r0, .L27
 444              		.loc 1 631 0
 445 0006 22F48002 		bic	r2, r2, #4194304
 446 000a 5A60     		str	r2, [r3, #4]
 447 000c 7047     		bx	lr
ARM GAS  /tmp/ccqRxWEk.s 			page 9


 448              	.L27:
 449              		.loc 1 626 0
 450 000e 42F48002 		orr	r2, r2, #4194304
 451 0012 5A60     		str	r2, [r3, #4]
 452 0014 7047     		bx	lr
 453              	.L29:
 454 0016 00BF     		.align	2
 455              	.L28:
 456 0018 00230140 		.word	1073816320
 457              		.cfi_endproc
 458              	.LFE122:
 459              		.size	ADC_VBATCmd, .-ADC_VBATCmd
 460 001c AFF30080 		.section	.text.ADC_RegularChannelConfig,"ax",%progbits
 461              		.align	2
 462              		.p2align 4,,15
 463              		.global	ADC_RegularChannelConfig
 464              		.thumb
 465              		.thumb_func
 466              		.type	ADC_RegularChannelConfig, %function
 467              	ADC_RegularChannelConfig:
 468              	.LFB123:
 469              		.loc 1 720 0
 470              		.cfi_startproc
 471              		@ args = 0, pretend = 0, frame = 0
 472              		@ frame_needed = 0, uses_anonymous_args = 0
 473              		@ link register save eliminated.
 474              	.LVL34:
 475              		.loc 1 729 0
 476 0000 0929     		cmp	r1, #9
 477              		.loc 1 720 0
 478 0002 70B4     		push	{r4, r5, r6}
 479              		.cfi_def_cfa_offset 12
 480              		.cfi_offset 4, -12
 481              		.cfi_offset 5, -8
 482              		.cfi_offset 6, -4
 483              		.loc 1 729 0
 484 0004 1ED9     		bls	.L31
 485              		.loc 1 735 0
 486 0006 A1F10A04 		sub	r4, r1, #10
 487 000a 04EB4404 		add	r4, r4, r4, lsl #1
 488              		.loc 1 732 0
 489 000e C568     		ldr	r5, [r0, #12]
 490              	.LVL35:
 491              		.loc 1 735 0
 492 0010 0726     		movs	r6, #7
 493 0012 A640     		lsls	r6, r6, r4
 494              	.LVL36:
 495              		.loc 1 741 0
 496 0014 03FA04F4 		lsl	r4, r3, r4
 497              		.loc 1 738 0
 498 0018 25EA0603 		bic	r3, r5, r6
 499              	.LVL37:
 500              		.loc 1 744 0
 501 001c 2343     		orrs	r3, r3, r4
 502              	.LVL38:
 503              		.loc 1 770 0
 504 001e 062A     		cmp	r2, #6
ARM GAS  /tmp/ccqRxWEk.s 			page 10


 505              		.loc 1 747 0
 506 0020 C360     		str	r3, [r0, #12]
 507              		.loc 1 770 0
 508 0022 1CD9     		bls	.L36
 509              	.L33:
 510              		.loc 1 791 0
 511 0024 0C2A     		cmp	r2, #12
 512 0026 28D9     		bls	.L37
 513              		.loc 1 818 0
 514 0028 0D3A     		subs	r2, r2, #13
 515              	.LVL39:
 516              		.loc 1 815 0
 517 002a C46A     		ldr	r4, [r0, #44]
 518              	.LVL40:
 519              		.loc 1 818 0
 520 002c 02EB8202 		add	r2, r2, r2, lsl #2
 521              	.LVL41:
 522 0030 1F23     		movs	r3, #31
 523 0032 9340     		lsls	r3, r3, r2
 524              	.LVL42:
 525              		.loc 1 821 0
 526 0034 24EA0303 		bic	r3, r4, r3
 527              	.LVL43:
 528              		.loc 1 824 0
 529 0038 01FA02F2 		lsl	r2, r1, r2
 530              	.LVL44:
 531              		.loc 1 827 0
 532 003c 1A43     		orrs	r2, r2, r3
 533              	.LVL45:
 534              		.loc 1 830 0
 535 003e C262     		str	r2, [r0, #44]
 536              		.loc 1 832 0
 537 0040 70BC     		pop	{r4, r5, r6}
 538 0042 7047     		bx	lr
 539              	.LVL46:
 540              	.L31:
 541              		.loc 1 755 0
 542 0044 01EB4104 		add	r4, r1, r1, lsl #1
 543              		.loc 1 752 0
 544 0048 0569     		ldr	r5, [r0, #16]
 545              	.LVL47:
 546              		.loc 1 755 0
 547 004a 0726     		movs	r6, #7
 548 004c A640     		lsls	r6, r6, r4
 549              	.LVL48:
 550              		.loc 1 761 0
 551 004e 03FA04F4 		lsl	r4, r3, r4
 552              		.loc 1 758 0
 553 0052 25EA0603 		bic	r3, r5, r6
 554              	.LVL49:
 555              		.loc 1 764 0
 556 0056 2343     		orrs	r3, r3, r4
 557              	.LVL50:
 558              		.loc 1 770 0
 559 0058 062A     		cmp	r2, #6
 560              		.loc 1 767 0
 561 005a 0361     		str	r3, [r0, #16]
ARM GAS  /tmp/ccqRxWEk.s 			page 11


 562              		.loc 1 770 0
 563 005c E2D8     		bhi	.L33
 564              	.L36:
 565              		.loc 1 776 0
 566 005e 013A     		subs	r2, r2, #1
 567              	.LVL51:
 568              		.loc 1 773 0
 569 0060 446B     		ldr	r4, [r0, #52]
 570              	.LVL52:
 571              		.loc 1 776 0
 572 0062 02EB8202 		add	r2, r2, r2, lsl #2
 573              	.LVL53:
 574 0066 1F23     		movs	r3, #31
 575 0068 9340     		lsls	r3, r3, r2
 576              	.LVL54:
 577              		.loc 1 779 0
 578 006a 24EA0303 		bic	r3, r4, r3
 579              	.LVL55:
 580              		.loc 1 782 0
 581 006e 01FA02F2 		lsl	r2, r1, r2
 582              	.LVL56:
 583              		.loc 1 785 0
 584 0072 1A43     		orrs	r2, r2, r3
 585              	.LVL57:
 586              		.loc 1 788 0
 587 0074 4263     		str	r2, [r0, #52]
 588              		.loc 1 832 0
 589 0076 70BC     		pop	{r4, r5, r6}
 590 0078 7047     		bx	lr
 591              	.LVL58:
 592              	.L37:
 593              		.loc 1 797 0
 594 007a 073A     		subs	r2, r2, #7
 595              	.LVL59:
 596              		.loc 1 794 0
 597 007c 046B     		ldr	r4, [r0, #48]
 598              	.LVL60:
 599              		.loc 1 797 0
 600 007e 02EB8202 		add	r2, r2, r2, lsl #2
 601              	.LVL61:
 602 0082 1F23     		movs	r3, #31
 603 0084 9340     		lsls	r3, r3, r2
 604              	.LVL62:
 605              		.loc 1 800 0
 606 0086 24EA0303 		bic	r3, r4, r3
 607              	.LVL63:
 608              		.loc 1 803 0
 609 008a 01FA02F2 		lsl	r2, r1, r2
 610              	.LVL64:
 611              		.loc 1 806 0
 612 008e 1A43     		orrs	r2, r2, r3
 613              	.LVL65:
 614              		.loc 1 809 0
 615 0090 0263     		str	r2, [r0, #48]
 616              		.loc 1 832 0
 617 0092 70BC     		pop	{r4, r5, r6}
 618 0094 7047     		bx	lr
ARM GAS  /tmp/ccqRxWEk.s 			page 12


 619              		.cfi_endproc
 620              	.LFE123:
 621              		.size	ADC_RegularChannelConfig, .-ADC_RegularChannelConfig
 622 0096 00BFAFF3 		.section	.text.ADC_SoftwareStartConv,"ax",%progbits
 622      0080AFF3 
 622      0080
 623              		.align	2
 624              		.p2align 4,,15
 625              		.global	ADC_SoftwareStartConv
 626              		.thumb
 627              		.thumb_func
 628              		.type	ADC_SoftwareStartConv, %function
 629              	ADC_SoftwareStartConv:
 630              	.LFB124:
 631              		.loc 1 840 0
 632              		.cfi_startproc
 633              		@ args = 0, pretend = 0, frame = 0
 634              		@ frame_needed = 0, uses_anonymous_args = 0
 635              		@ link register save eliminated.
 636              	.LVL66:
 637              		.loc 1 845 0
 638 0000 8368     		ldr	r3, [r0, #8]
 639 0002 43F08043 		orr	r3, r3, #1073741824
 640 0006 8360     		str	r3, [r0, #8]
 641 0008 7047     		bx	lr
 642              		.cfi_endproc
 643              	.LFE124:
 644              		.size	ADC_SoftwareStartConv, .-ADC_SoftwareStartConv
 645 000a 00BFAFF3 		.section	.text.ADC_GetSoftwareStartConvStatus,"ax",%progbits
 645      0080
 646              		.align	2
 647              		.p2align 4,,15
 648              		.global	ADC_GetSoftwareStartConvStatus
 649              		.thumb
 650              		.thumb_func
 651              		.type	ADC_GetSoftwareStartConvStatus, %function
 652              	ADC_GetSoftwareStartConvStatus:
 653              	.LFB125:
 654              		.loc 1 854 0
 655              		.cfi_startproc
 656              		@ args = 0, pretend = 0, frame = 0
 657              		@ frame_needed = 0, uses_anonymous_args = 0
 658              		@ link register save eliminated.
 659              	.LVL67:
 660              		.loc 1 860 0
 661 0000 8068     		ldr	r0, [r0, #8]
 662              	.LVL68:
 663              		.loc 1 873 0
 664 0002 C0F38070 		ubfx	r0, r0, #30, #1
 665              	.LVL69:
 666 0006 7047     		bx	lr
 667              		.cfi_endproc
 668              	.LFE125:
 669              		.size	ADC_GetSoftwareStartConvStatus, .-ADC_GetSoftwareStartConvStatus
 670 0008 AFF30080 		.section	.text.ADC_EOCOnEachRegularChannelCmd,"ax",%progbits
 670      AFF30080 
 671              		.align	2
ARM GAS  /tmp/ccqRxWEk.s 			page 13


 672              		.p2align 4,,15
 673              		.global	ADC_EOCOnEachRegularChannelCmd
 674              		.thumb
 675              		.thumb_func
 676              		.type	ADC_EOCOnEachRegularChannelCmd, %function
 677              	ADC_EOCOnEachRegularChannelCmd:
 678              	.LFB126:
 679              		.loc 1 884 0
 680              		.cfi_startproc
 681              		@ args = 0, pretend = 0, frame = 0
 682              		@ frame_needed = 0, uses_anonymous_args = 0
 683              		@ link register save eliminated.
 684              	.LVL70:
 685              		.loc 1 892 0
 686 0000 8368     		ldr	r3, [r0, #8]
 687              		.loc 1 889 0
 688 0002 19B9     		cbnz	r1, .L43
 689              		.loc 1 897 0
 690 0004 23F48063 		bic	r3, r3, #1024
 691 0008 8360     		str	r3, [r0, #8]
 692 000a 7047     		bx	lr
 693              	.L43:
 694              		.loc 1 892 0
 695 000c 43F48063 		orr	r3, r3, #1024
 696 0010 8360     		str	r3, [r0, #8]
 697 0012 7047     		bx	lr
 698              		.cfi_endproc
 699              	.LFE126:
 700              		.size	ADC_EOCOnEachRegularChannelCmd, .-ADC_EOCOnEachRegularChannelCmd
 701 0014 AFF30080 		.section	.text.ADC_ContinuousModeCmd,"ax",%progbits
 701      AFF30080 
 701      AFF30080 
 702              		.align	2
 703              		.p2align 4,,15
 704              		.global	ADC_ContinuousModeCmd
 705              		.thumb
 706              		.thumb_func
 707              		.type	ADC_ContinuousModeCmd, %function
 708              	ADC_ContinuousModeCmd:
 709              	.LFB127:
 710              		.loc 1 909 0
 711              		.cfi_startproc
 712              		@ args = 0, pretend = 0, frame = 0
 713              		@ frame_needed = 0, uses_anonymous_args = 0
 714              		@ link register save eliminated.
 715              	.LVL71:
 716              		.loc 1 917 0
 717 0000 8368     		ldr	r3, [r0, #8]
 718              		.loc 1 914 0
 719 0002 19B9     		cbnz	r1, .L47
 720              		.loc 1 922 0
 721 0004 23F00203 		bic	r3, r3, #2
 722 0008 8360     		str	r3, [r0, #8]
 723 000a 7047     		bx	lr
 724              	.L47:
 725              		.loc 1 917 0
 726 000c 43F00203 		orr	r3, r3, #2
ARM GAS  /tmp/ccqRxWEk.s 			page 14


 727 0010 8360     		str	r3, [r0, #8]
 728 0012 7047     		bx	lr
 729              		.cfi_endproc
 730              	.LFE127:
 731              		.size	ADC_ContinuousModeCmd, .-ADC_ContinuousModeCmd
 732 0014 AFF30080 		.section	.text.ADC_DiscModeChannelCountConfig,"ax",%progbits
 732      AFF30080 
 732      AFF30080 
 733              		.align	2
 734              		.p2align 4,,15
 735              		.global	ADC_DiscModeChannelCountConfig
 736              		.thumb
 737              		.thumb_func
 738              		.type	ADC_DiscModeChannelCountConfig, %function
 739              	ADC_DiscModeChannelCountConfig:
 740              	.LFB128:
 741              		.loc 1 935 0
 742              		.cfi_startproc
 743              		@ args = 0, pretend = 0, frame = 0
 744              		@ frame_needed = 0, uses_anonymous_args = 0
 745              		@ link register save eliminated.
 746              	.LVL72:
 747              		.loc 1 944 0
 748 0000 4368     		ldr	r3, [r0, #4]
 749              	.LVL73:
 750              		.loc 1 950 0
 751 0002 0139     		subs	r1, r1, #1
 752              	.LVL74:
 753              		.loc 1 947 0
 754 0004 23F46043 		bic	r3, r3, #57344
 755              	.LVL75:
 756              		.loc 1 951 0
 757 0008 43EA4131 		orr	r1, r3, r1, lsl #13
 758              	.LVL76:
 759              		.loc 1 954 0
 760 000c 4160     		str	r1, [r0, #4]
 761 000e 7047     		bx	lr
 762              		.cfi_endproc
 763              	.LFE128:
 764              		.size	ADC_DiscModeChannelCountConfig, .-ADC_DiscModeChannelCountConfig
 765              		.section	.text.ADC_DiscModeCmd,"ax",%progbits
 766              		.align	2
 767              		.p2align 4,,15
 768              		.global	ADC_DiscModeCmd
 769              		.thumb
 770              		.thumb_func
 771              		.type	ADC_DiscModeCmd, %function
 772              	ADC_DiscModeCmd:
 773              	.LFB129:
 774              		.loc 1 967 0
 775              		.cfi_startproc
 776              		@ args = 0, pretend = 0, frame = 0
 777              		@ frame_needed = 0, uses_anonymous_args = 0
 778              		@ link register save eliminated.
 779              	.LVL77:
 780              		.loc 1 975 0
 781 0000 4368     		ldr	r3, [r0, #4]
ARM GAS  /tmp/ccqRxWEk.s 			page 15


 782              		.loc 1 972 0
 783 0002 19B9     		cbnz	r1, .L52
 784              		.loc 1 980 0
 785 0004 23F40063 		bic	r3, r3, #2048
 786 0008 4360     		str	r3, [r0, #4]
 787 000a 7047     		bx	lr
 788              	.L52:
 789              		.loc 1 975 0
 790 000c 43F40063 		orr	r3, r3, #2048
 791 0010 4360     		str	r3, [r0, #4]
 792 0012 7047     		bx	lr
 793              		.cfi_endproc
 794              	.LFE129:
 795              		.size	ADC_DiscModeCmd, .-ADC_DiscModeCmd
 796 0014 AFF30080 		.section	.text.ADC_GetConversionValue,"ax",%progbits
 796      AFF30080 
 796      AFF30080 
 797              		.align	2
 798              		.p2align 4,,15
 799              		.global	ADC_GetConversionValue
 800              		.thumb
 801              		.thumb_func
 802              		.type	ADC_GetConversionValue, %function
 803              	ADC_GetConversionValue:
 804              	.LFB130:
 805              		.loc 1 990 0
 806              		.cfi_startproc
 807              		@ args = 0, pretend = 0, frame = 0
 808              		@ frame_needed = 0, uses_anonymous_args = 0
 809              		@ link register save eliminated.
 810              	.LVL78:
 811              		.loc 1 995 0
 812 0000 C06C     		ldr	r0, [r0, #76]
 813              	.LVL79:
 814              		.loc 1 996 0
 815 0002 80B2     		uxth	r0, r0
 816 0004 7047     		bx	lr
 817              		.cfi_endproc
 818              	.LFE130:
 819              		.size	ADC_GetConversionValue, .-ADC_GetConversionValue
 820 0006 00BFAFF3 		.section	.text.ADC_GetMultiModeConversionValue,"ax",%progbits
 820      0080AFF3 
 820      0080
 821              		.align	2
 822              		.p2align 4,,15
 823              		.global	ADC_GetMultiModeConversionValue
 824              		.thumb
 825              		.thumb_func
 826              		.type	ADC_GetMultiModeConversionValue, %function
 827              	ADC_GetMultiModeConversionValue:
 828              	.LFB131:
 829              		.loc 1 1011 0
 830              		.cfi_startproc
 831              		@ args = 0, pretend = 0, frame = 0
 832              		@ frame_needed = 0, uses_anonymous_args = 0
 833              		@ link register save eliminated.
 834              		.loc 1 1013 0
ARM GAS  /tmp/ccqRxWEk.s 			page 16


 835 0000 014B     		ldr	r3, .L55
 836 0002 1868     		ldr	r0, [r3]
 837              		.loc 1 1014 0
 838 0004 7047     		bx	lr
 839              	.L56:
 840 0006 00BF     		.align	2
 841              	.L55:
 842 0008 08230140 		.word	1073816328
 843              		.cfi_endproc
 844              	.LFE131:
 845              		.size	ADC_GetMultiModeConversionValue, .-ADC_GetMultiModeConversionValue
 846 000c AFF30080 		.section	.text.ADC_DMACmd,"ax",%progbits
 847              		.align	2
 848              		.p2align 4,,15
 849              		.global	ADC_DMACmd
 850              		.thumb
 851              		.thumb_func
 852              		.type	ADC_DMACmd, %function
 853              	ADC_DMACmd:
 854              	.LFB132:
 855              		.loc 1 1057 0
 856              		.cfi_startproc
 857              		@ args = 0, pretend = 0, frame = 0
 858              		@ frame_needed = 0, uses_anonymous_args = 0
 859              		@ link register save eliminated.
 860              	.LVL80:
 861              		.loc 1 1064 0
 862 0000 8368     		ldr	r3, [r0, #8]
 863              		.loc 1 1061 0
 864 0002 19B9     		cbnz	r1, .L60
 865              		.loc 1 1069 0
 866 0004 23F48073 		bic	r3, r3, #256
 867 0008 8360     		str	r3, [r0, #8]
 868 000a 7047     		bx	lr
 869              	.L60:
 870              		.loc 1 1064 0
 871 000c 43F48073 		orr	r3, r3, #256
 872 0010 8360     		str	r3, [r0, #8]
 873 0012 7047     		bx	lr
 874              		.cfi_endproc
 875              	.LFE132:
 876              		.size	ADC_DMACmd, .-ADC_DMACmd
 877 0014 AFF30080 		.section	.text.ADC_DMARequestAfterLastTransferCmd,"ax",%progbits
 877      AFF30080 
 877      AFF30080 
 878              		.align	2
 879              		.p2align 4,,15
 880              		.global	ADC_DMARequestAfterLastTransferCmd
 881              		.thumb
 882              		.thumb_func
 883              		.type	ADC_DMARequestAfterLastTransferCmd, %function
 884              	ADC_DMARequestAfterLastTransferCmd:
 885              	.LFB133:
 886              		.loc 1 1081 0
 887              		.cfi_startproc
 888              		@ args = 0, pretend = 0, frame = 0
 889              		@ frame_needed = 0, uses_anonymous_args = 0
ARM GAS  /tmp/ccqRxWEk.s 			page 17


 890              		@ link register save eliminated.
 891              	.LVL81:
 892              		.loc 1 1088 0
 893 0000 8368     		ldr	r3, [r0, #8]
 894              		.loc 1 1085 0
 895 0002 19B9     		cbnz	r1, .L64
 896              		.loc 1 1093 0
 897 0004 23F40073 		bic	r3, r3, #512
 898 0008 8360     		str	r3, [r0, #8]
 899 000a 7047     		bx	lr
 900              	.L64:
 901              		.loc 1 1088 0
 902 000c 43F40073 		orr	r3, r3, #512
 903 0010 8360     		str	r3, [r0, #8]
 904 0012 7047     		bx	lr
 905              		.cfi_endproc
 906              	.LFE133:
 907              		.size	ADC_DMARequestAfterLastTransferCmd, .-ADC_DMARequestAfterLastTransferCmd
 908 0014 AFF30080 		.section	.text.ADC_MultiModeDMARequestAfterLastTransferCmd,"ax",%progbits
 908      AFF30080 
 908      AFF30080 
 909              		.align	2
 910              		.p2align 4,,15
 911              		.global	ADC_MultiModeDMARequestAfterLastTransferCmd
 912              		.thumb
 913              		.thumb_func
 914              		.type	ADC_MultiModeDMARequestAfterLastTransferCmd, %function
 915              	ADC_MultiModeDMARequestAfterLastTransferCmd:
 916              	.LFB134:
 917              		.loc 1 1108 0
 918              		.cfi_startproc
 919              		@ args = 0, pretend = 0, frame = 0
 920              		@ frame_needed = 0, uses_anonymous_args = 0
 921              		@ link register save eliminated.
 922              	.LVL82:
 923              		.loc 1 1114 0
 924 0000 054B     		ldr	r3, .L69
 925 0002 5A68     		ldr	r2, [r3, #4]
 926              		.loc 1 1111 0
 927 0004 18B9     		cbnz	r0, .L68
 928              		.loc 1 1119 0
 929 0006 22F40052 		bic	r2, r2, #8192
 930 000a 5A60     		str	r2, [r3, #4]
 931 000c 7047     		bx	lr
 932              	.L68:
 933              		.loc 1 1114 0
 934 000e 42F40052 		orr	r2, r2, #8192
 935 0012 5A60     		str	r2, [r3, #4]
 936 0014 7047     		bx	lr
 937              	.L70:
 938 0016 00BF     		.align	2
 939              	.L69:
 940 0018 00230140 		.word	1073816320
 941              		.cfi_endproc
 942              	.LFE134:
 943              		.size	ADC_MultiModeDMARequestAfterLastTransferCmd, .-ADC_MultiModeDMARequestAfterLastTransferCmd
 944 001c AFF30080 		.section	.text.ADC_InjectedChannelConfig,"ax",%progbits
ARM GAS  /tmp/ccqRxWEk.s 			page 18


 945              		.align	2
 946              		.p2align 4,,15
 947              		.global	ADC_InjectedChannelConfig
 948              		.thumb
 949              		.thumb_func
 950              		.type	ADC_InjectedChannelConfig, %function
 951              	ADC_InjectedChannelConfig:
 952              	.LFB135:
 953              		.loc 1 1195 0
 954              		.cfi_startproc
 955              		@ args = 0, pretend = 0, frame = 0
 956              		@ frame_needed = 0, uses_anonymous_args = 0
 957              		@ link register save eliminated.
 958              	.LVL83:
 959              		.loc 1 1203 0
 960 0000 0929     		cmp	r1, #9
 961              		.loc 1 1195 0
 962 0002 70B4     		push	{r4, r5, r6}
 963              		.cfi_def_cfa_offset 12
 964              		.cfi_offset 4, -12
 965              		.cfi_offset 5, -8
 966              		.cfi_offset 6, -4
 967              		.loc 1 1203 0
 968 0004 1BD8     		bhi	.L74
 969              		.loc 1 1223 0
 970 0006 01EB4104 		add	r4, r1, r1, lsl #1
 971              		.loc 1 1221 0
 972 000a 0569     		ldr	r5, [r0, #16]
 973              	.LVL84:
 974              		.loc 1 1223 0
 975 000c 0726     		movs	r6, #7
 976 000e A640     		lsls	r6, r6, r4
 977              	.LVL85:
 978              		.loc 1 1227 0
 979 0010 03FA04F4 		lsl	r4, r3, r4
 980              		.loc 1 1225 0
 981 0014 25EA0603 		bic	r3, r5, r6
 982              	.LVL86:
 983              		.loc 1 1229 0
 984 0018 2343     		orrs	r3, r3, r4
 985              	.LVL87:
 986              		.loc 1 1231 0
 987 001a 0361     		str	r3, [r0, #16]
 988              	.L73:
 989              		.loc 1 1235 0
 990 001c 836B     		ldr	r3, [r0, #56]
 991              	.LVL88:
 992              		.loc 1 1239 0
 993 001e 0232     		adds	r2, r2, #2
 994              	.LVL89:
 995              		.loc 1 1237 0
 996 0020 C3F30154 		ubfx	r4, r3, #20, #2
 997              		.loc 1 1239 0
 998 0024 121B     		subs	r2, r2, r4
 999 0026 D2B2     		uxtb	r2, r2
 1000 0028 02EB8202 		add	r2, r2, r2, lsl #2
 1001              	.LVL90:
ARM GAS  /tmp/ccqRxWEk.s 			page 19


 1002 002c 1F24     		movs	r4, #31
 1003 002e 9440     		lsls	r4, r4, r2
 1004              	.LVL91:
 1005              		.loc 1 1241 0
 1006 0030 23EA0403 		bic	r3, r3, r4
 1007              	.LVL92:
 1008              		.loc 1 1243 0
 1009 0034 9140     		lsls	r1, r1, r2
 1010              	.LVL93:
 1011              		.loc 1 1245 0
 1012 0036 0B43     		orrs	r3, r3, r1
 1013              	.LVL94:
 1014              		.loc 1 1247 0
 1015 0038 8363     		str	r3, [r0, #56]
 1016              		.loc 1 1248 0
 1017 003a 70BC     		pop	{r4, r5, r6}
 1018 003c 7047     		bx	lr
 1019              	.LVL95:
 1020              	.L74:
 1021              		.loc 1 1208 0
 1022 003e A1F10A04 		sub	r4, r1, #10
 1023 0042 04EB4404 		add	r4, r4, r4, lsl #1
 1024              		.loc 1 1206 0
 1025 0046 C568     		ldr	r5, [r0, #12]
 1026              	.LVL96:
 1027              		.loc 1 1208 0
 1028 0048 0726     		movs	r6, #7
 1029 004a A640     		lsls	r6, r6, r4
 1030              	.LVL97:
 1031              		.loc 1 1212 0
 1032 004c 03FA04F4 		lsl	r4, r3, r4
 1033              		.loc 1 1210 0
 1034 0050 25EA0603 		bic	r3, r5, r6
 1035              	.LVL98:
 1036              		.loc 1 1214 0
 1037 0054 2343     		orrs	r3, r3, r4
 1038              	.LVL99:
 1039              		.loc 1 1216 0
 1040 0056 C360     		str	r3, [r0, #12]
 1041 0058 E0E7     		b	.L73
 1042              		.cfi_endproc
 1043              	.LFE135:
 1044              		.size	ADC_InjectedChannelConfig, .-ADC_InjectedChannelConfig
 1045 005a 00BFAFF3 		.section	.text.ADC_InjectedSequencerLengthConfig,"ax",%progbits
 1045      0080
 1046              		.align	2
 1047              		.p2align 4,,15
 1048              		.global	ADC_InjectedSequencerLengthConfig
 1049              		.thumb
 1050              		.thumb_func
 1051              		.type	ADC_InjectedSequencerLengthConfig, %function
 1052              	ADC_InjectedSequencerLengthConfig:
 1053              	.LFB136:
 1054              		.loc 1 1258 0
 1055              		.cfi_startproc
 1056              		@ args = 0, pretend = 0, frame = 0
 1057              		@ frame_needed = 0, uses_anonymous_args = 0
ARM GAS  /tmp/ccqRxWEk.s 			page 20


 1058              		@ link register save eliminated.
 1059              	.LVL100:
 1060              		.loc 1 1266 0
 1061 0000 836B     		ldr	r3, [r0, #56]
 1062              	.LVL101:
 1063              		.loc 1 1272 0
 1064 0002 0139     		subs	r1, r1, #1
 1065              	.LVL102:
 1066              		.loc 1 1269 0
 1067 0004 23F44013 		bic	r3, r3, #3145728
 1068              	.LVL103:
 1069              		.loc 1 1273 0
 1070 0008 43EA0151 		orr	r1, r3, r1, lsl #20
 1071              	.LVL104:
 1072              		.loc 1 1276 0
 1073 000c 8163     		str	r1, [r0, #56]
 1074 000e 7047     		bx	lr
 1075              		.cfi_endproc
 1076              	.LFE136:
 1077              		.size	ADC_InjectedSequencerLengthConfig, .-ADC_InjectedSequencerLengthConfig
 1078              		.section	.text.ADC_SetInjectedOffset,"ax",%progbits
 1079              		.align	2
 1080              		.p2align 4,,15
 1081              		.global	ADC_SetInjectedOffset
 1082              		.thumb
 1083              		.thumb_func
 1084              		.type	ADC_SetInjectedOffset, %function
 1085              	ADC_SetInjectedOffset:
 1086              	.LFB137:
 1087              		.loc 1 1293 0
 1088              		.cfi_startproc
 1089              		@ args = 0, pretend = 0, frame = 8
 1090              		@ frame_needed = 0, uses_anonymous_args = 0
 1091              		@ link register save eliminated.
 1092              	.LVL105:
 1093 0000 82B0     		sub	sp, sp, #8
 1094              		.cfi_def_cfa_offset 8
 1095              		.loc 1 1294 0
 1096 0002 0023     		movs	r3, #0
 1097 0004 0193     		str	r3, [sp, #4]
 1098              		.loc 1 1300 0
 1099 0006 0190     		str	r0, [sp, #4]
 1100              		.loc 1 1301 0
 1101 0008 019B     		ldr	r3, [sp, #4]
 1102 000a 1944     		add	r1, r1, r3
 1103              	.LVL106:
 1104 000c 0191     		str	r1, [sp, #4]
 1105              		.loc 1 1304 0
 1106 000e 019B     		ldr	r3, [sp, #4]
 1107 0010 1A60     		str	r2, [r3]
 1108              		.loc 1 1305 0
 1109 0012 02B0     		add	sp, sp, #8
 1110              		@ sp needed
 1111 0014 7047     		bx	lr
 1112              		.cfi_endproc
 1113              	.LFE137:
 1114              		.size	ADC_SetInjectedOffset, .-ADC_SetInjectedOffset
ARM GAS  /tmp/ccqRxWEk.s 			page 21


 1115 0016 00BFAFF3 		.section	.text.ADC_ExternalTrigInjectedConvConfig,"ax",%progbits
 1115      0080AFF3 
 1115      0080
 1116              		.align	2
 1117              		.p2align 4,,15
 1118              		.global	ADC_ExternalTrigInjectedConvConfig
 1119              		.thumb
 1120              		.thumb_func
 1121              		.type	ADC_ExternalTrigInjectedConvConfig, %function
 1122              	ADC_ExternalTrigInjectedConvConfig:
 1123              	.LFB138:
 1124              		.loc 1 1331 0
 1125              		.cfi_startproc
 1126              		@ args = 0, pretend = 0, frame = 0
 1127              		@ frame_needed = 0, uses_anonymous_args = 0
 1128              		@ link register save eliminated.
 1129              	.LVL107:
 1130              		.loc 1 1338 0
 1131 0000 8368     		ldr	r3, [r0, #8]
 1132              	.LVL108:
 1133              		.loc 1 1341 0
 1134 0002 23F47023 		bic	r3, r3, #983040
 1135              	.LVL109:
 1136              		.loc 1 1344 0
 1137 0006 1943     		orrs	r1, r1, r3
 1138              	.LVL110:
 1139              		.loc 1 1347 0
 1140 0008 8160     		str	r1, [r0, #8]
 1141 000a 7047     		bx	lr
 1142              		.cfi_endproc
 1143              	.LFE138:
 1144              		.size	ADC_ExternalTrigInjectedConvConfig, .-ADC_ExternalTrigInjectedConvConfig
 1145 000c AFF30080 		.section	.text.ADC_ExternalTrigInjectedConvEdgeConfig,"ax",%progbits
 1146              		.align	2
 1147              		.p2align 4,,15
 1148              		.global	ADC_ExternalTrigInjectedConvEdgeConfig
 1149              		.thumb
 1150              		.thumb_func
 1151              		.type	ADC_ExternalTrigInjectedConvEdgeConfig, %function
 1152              	ADC_ExternalTrigInjectedConvEdgeConfig:
 1153              	.LFB139:
 1154              		.loc 1 1365 0
 1155              		.cfi_startproc
 1156              		@ args = 0, pretend = 0, frame = 0
 1157              		@ frame_needed = 0, uses_anonymous_args = 0
 1158              		@ link register save eliminated.
 1159              	.LVL111:
 1160              		.loc 1 1371 0
 1161 0000 8368     		ldr	r3, [r0, #8]
 1162              	.LVL112:
 1163              		.loc 1 1373 0
 1164 0002 23F44013 		bic	r3, r3, #3145728
 1165              	.LVL113:
 1166              		.loc 1 1375 0
 1167 0006 1943     		orrs	r1, r1, r3
 1168              	.LVL114:
 1169              		.loc 1 1377 0
ARM GAS  /tmp/ccqRxWEk.s 			page 22


 1170 0008 8160     		str	r1, [r0, #8]
 1171 000a 7047     		bx	lr
 1172              		.cfi_endproc
 1173              	.LFE139:
 1174              		.size	ADC_ExternalTrigInjectedConvEdgeConfig, .-ADC_ExternalTrigInjectedConvEdgeConfig
 1175 000c AFF30080 		.section	.text.ADC_SoftwareStartInjectedConv,"ax",%progbits
 1176              		.align	2
 1177              		.p2align 4,,15
 1178              		.global	ADC_SoftwareStartInjectedConv
 1179              		.thumb
 1180              		.thumb_func
 1181              		.type	ADC_SoftwareStartInjectedConv, %function
 1182              	ADC_SoftwareStartInjectedConv:
 1183              	.LFB140:
 1184              		.loc 1 1386 0
 1185              		.cfi_startproc
 1186              		@ args = 0, pretend = 0, frame = 0
 1187              		@ frame_needed = 0, uses_anonymous_args = 0
 1188              		@ link register save eliminated.
 1189              	.LVL115:
 1190              		.loc 1 1390 0
 1191 0000 8368     		ldr	r3, [r0, #8]
 1192 0002 43F48003 		orr	r3, r3, #4194304
 1193 0006 8360     		str	r3, [r0, #8]
 1194 0008 7047     		bx	lr
 1195              		.cfi_endproc
 1196              	.LFE140:
 1197              		.size	ADC_SoftwareStartInjectedConv, .-ADC_SoftwareStartInjectedConv
 1198 000a 00BFAFF3 		.section	.text.ADC_GetSoftwareStartInjectedConvCmdStatus,"ax",%progbits
 1198      0080
 1199              		.align	2
 1200              		.p2align 4,,15
 1201              		.global	ADC_GetSoftwareStartInjectedConvCmdStatus
 1202              		.thumb
 1203              		.thumb_func
 1204              		.type	ADC_GetSoftwareStartInjectedConvCmdStatus, %function
 1205              	ADC_GetSoftwareStartInjectedConvCmdStatus:
 1206              	.LFB141:
 1207              		.loc 1 1399 0
 1208              		.cfi_startproc
 1209              		@ args = 0, pretend = 0, frame = 0
 1210              		@ frame_needed = 0, uses_anonymous_args = 0
 1211              		@ link register save eliminated.
 1212              	.LVL116:
 1213              		.loc 1 1405 0
 1214 0000 8068     		ldr	r0, [r0, #8]
 1215              	.LVL117:
 1216              		.loc 1 1417 0
 1217 0002 C0F38050 		ubfx	r0, r0, #22, #1
 1218              	.LVL118:
 1219 0006 7047     		bx	lr
 1220              		.cfi_endproc
 1221              	.LFE141:
 1222              		.size	ADC_GetSoftwareStartInjectedConvCmdStatus, .-ADC_GetSoftwareStartInjectedConvCmdStatus
 1223 0008 AFF30080 		.section	.text.ADC_AutoInjectedConvCmd,"ax",%progbits
 1223      AFF30080 
 1224              		.align	2
ARM GAS  /tmp/ccqRxWEk.s 			page 23


 1225              		.p2align 4,,15
 1226              		.global	ADC_AutoInjectedConvCmd
 1227              		.thumb
 1228              		.thumb_func
 1229              		.type	ADC_AutoInjectedConvCmd, %function
 1230              	ADC_AutoInjectedConvCmd:
 1231              	.LFB142:
 1232              		.loc 1 1428 0
 1233              		.cfi_startproc
 1234              		@ args = 0, pretend = 0, frame = 0
 1235              		@ frame_needed = 0, uses_anonymous_args = 0
 1236              		@ link register save eliminated.
 1237              	.LVL119:
 1238              		.loc 1 1435 0
 1239 0000 4368     		ldr	r3, [r0, #4]
 1240              		.loc 1 1432 0
 1241 0002 19B9     		cbnz	r1, .L84
 1242              		.loc 1 1440 0
 1243 0004 23F48063 		bic	r3, r3, #1024
 1244 0008 4360     		str	r3, [r0, #4]
 1245 000a 7047     		bx	lr
 1246              	.L84:
 1247              		.loc 1 1435 0
 1248 000c 43F48063 		orr	r3, r3, #1024
 1249 0010 4360     		str	r3, [r0, #4]
 1250 0012 7047     		bx	lr
 1251              		.cfi_endproc
 1252              	.LFE142:
 1253              		.size	ADC_AutoInjectedConvCmd, .-ADC_AutoInjectedConvCmd
 1254 0014 AFF30080 		.section	.text.ADC_InjectedDiscModeCmd,"ax",%progbits
 1254      AFF30080 
 1254      AFF30080 
 1255              		.align	2
 1256              		.p2align 4,,15
 1257              		.global	ADC_InjectedDiscModeCmd
 1258              		.thumb
 1259              		.thumb_func
 1260              		.type	ADC_InjectedDiscModeCmd, %function
 1261              	ADC_InjectedDiscModeCmd:
 1262              	.LFB143:
 1263              		.loc 1 1454 0
 1264              		.cfi_startproc
 1265              		@ args = 0, pretend = 0, frame = 0
 1266              		@ frame_needed = 0, uses_anonymous_args = 0
 1267              		@ link register save eliminated.
 1268              	.LVL120:
 1269              		.loc 1 1461 0
 1270 0000 4368     		ldr	r3, [r0, #4]
 1271              		.loc 1 1458 0
 1272 0002 19B9     		cbnz	r1, .L88
 1273              		.loc 1 1466 0
 1274 0004 23F48053 		bic	r3, r3, #4096
 1275 0008 4360     		str	r3, [r0, #4]
 1276 000a 7047     		bx	lr
 1277              	.L88:
 1278              		.loc 1 1461 0
 1279 000c 43F48053 		orr	r3, r3, #4096
ARM GAS  /tmp/ccqRxWEk.s 			page 24


 1280 0010 4360     		str	r3, [r0, #4]
 1281 0012 7047     		bx	lr
 1282              		.cfi_endproc
 1283              	.LFE143:
 1284              		.size	ADC_InjectedDiscModeCmd, .-ADC_InjectedDiscModeCmd
 1285 0014 AFF30080 		.section	.text.ADC_GetInjectedConversionValue,"ax",%progbits
 1285      AFF30080 
 1285      AFF30080 
 1286              		.align	2
 1287              		.p2align 4,,15
 1288              		.global	ADC_GetInjectedConversionValue
 1289              		.thumb
 1290              		.thumb_func
 1291              		.type	ADC_GetInjectedConversionValue, %function
 1292              	ADC_GetInjectedConversionValue:
 1293              	.LFB144:
 1294              		.loc 1 1482 0
 1295              		.cfi_startproc
 1296              		@ args = 0, pretend = 0, frame = 8
 1297              		@ frame_needed = 0, uses_anonymous_args = 0
 1298              		@ link register save eliminated.
 1299              	.LVL121:
 1300 0000 82B0     		sub	sp, sp, #8
 1301              		.cfi_def_cfa_offset 8
 1302              		.loc 1 1483 0
 1303 0002 0023     		movs	r3, #0
 1304 0004 0193     		str	r3, [sp, #4]
 1305              		.loc 1 1489 0
 1306 0006 0190     		str	r0, [sp, #4]
 1307              		.loc 1 1490 0
 1308 0008 019B     		ldr	r3, [sp, #4]
 1309 000a 2833     		adds	r3, r3, #40
 1310 000c 1944     		add	r1, r1, r3
 1311              	.LVL122:
 1312 000e 0191     		str	r1, [sp, #4]
 1313              		.loc 1 1493 0
 1314 0010 019B     		ldr	r3, [sp, #4]
 1315 0012 1868     		ldr	r0, [r3]
 1316              	.LVL123:
 1317              		.loc 1 1494 0
 1318 0014 80B2     		uxth	r0, r0
 1319 0016 02B0     		add	sp, sp, #8
 1320              		@ sp needed
 1321 0018 7047     		bx	lr
 1322              		.cfi_endproc
 1323              	.LFE144:
 1324              		.size	ADC_GetInjectedConversionValue, .-ADC_GetInjectedConversionValue
 1325 001a 00BFAFF3 		.section	.text.ADC_ITConfig,"ax",%progbits
 1325      0080
 1326              		.align	2
 1327              		.p2align 4,,15
 1328              		.global	ADC_ITConfig
 1329              		.thumb
 1330              		.thumb_func
 1331              		.type	ADC_ITConfig, %function
 1332              	ADC_ITConfig:
 1333              	.LFB145:
ARM GAS  /tmp/ccqRxWEk.s 			page 25


 1334              		.loc 1 1589 0
 1335              		.cfi_startproc
 1336              		@ args = 0, pretend = 0, frame = 0
 1337              		@ frame_needed = 0, uses_anonymous_args = 0
 1338              		@ link register save eliminated.
 1339              	.LVL124:
 1340              		.loc 1 1598 0
 1341 0000 0123     		movs	r3, #1
 1342 0002 C9B2     		uxtb	r1, r1
 1343              	.LVL125:
 1344 0004 03FA01F1 		lsl	r1, r3, r1
 1345              	.LVL126:
 1346              		.loc 1 1603 0
 1347 0008 4368     		ldr	r3, [r0, #4]
 1348              		.loc 1 1600 0
 1349 000a 1AB9     		cbnz	r2, .L93
 1350              		.loc 1 1608 0
 1351 000c 23EA0101 		bic	r1, r3, r1
 1352              	.LVL127:
 1353 0010 4160     		str	r1, [r0, #4]
 1354 0012 7047     		bx	lr
 1355              	.LVL128:
 1356              	.L93:
 1357              		.loc 1 1603 0
 1358 0014 1943     		orrs	r1, r1, r3
 1359              	.LVL129:
 1360 0016 4160     		str	r1, [r0, #4]
 1361 0018 7047     		bx	lr
 1362              		.cfi_endproc
 1363              	.LFE145:
 1364              		.size	ADC_ITConfig, .-ADC_ITConfig
 1365 001a 00BFAFF3 		.section	.text.ADC_GetFlagStatus,"ax",%progbits
 1365      0080
 1366              		.align	2
 1367              		.p2align 4,,15
 1368              		.global	ADC_GetFlagStatus
 1369              		.thumb
 1370              		.thumb_func
 1371              		.type	ADC_GetFlagStatus, %function
 1372              	ADC_GetFlagStatus:
 1373              	.LFB146:
 1374              		.loc 1 1626 0
 1375              		.cfi_startproc
 1376              		@ args = 0, pretend = 0, frame = 0
 1377              		@ frame_needed = 0, uses_anonymous_args = 0
 1378              		@ link register save eliminated.
 1379              	.LVL130:
 1380              		.loc 1 1633 0
 1381 0000 0368     		ldr	r3, [r0]
 1382              	.LVL131:
 1383 0002 1942     		tst	r1, r3
 1384              		.loc 1 1645 0
 1385 0004 0CBF     		ite	eq
 1386 0006 0020     		moveq	r0, #0
 1387 0008 0120     		movne	r0, #1
 1388              	.LVL132:
 1389 000a 7047     		bx	lr
ARM GAS  /tmp/ccqRxWEk.s 			page 26


 1390              		.cfi_endproc
 1391              	.LFE146:
 1392              		.size	ADC_GetFlagStatus, .-ADC_GetFlagStatus
 1393 000c AFF30080 		.section	.text.ADC_ClearFlag,"ax",%progbits
 1394              		.align	2
 1395              		.p2align 4,,15
 1396              		.global	ADC_ClearFlag
 1397              		.thumb
 1398              		.thumb_func
 1399              		.type	ADC_ClearFlag, %function
 1400              	ADC_ClearFlag:
 1401              	.LFB147:
 1402              		.loc 1 1661 0
 1403              		.cfi_startproc
 1404              		@ args = 0, pretend = 0, frame = 0
 1405              		@ frame_needed = 0, uses_anonymous_args = 0
 1406              		@ link register save eliminated.
 1407              	.LVL133:
 1408              		.loc 1 1667 0
 1409 0000 C943     		mvns	r1, r1
 1410              	.LVL134:
 1411 0002 0160     		str	r1, [r0]
 1412 0004 7047     		bx	lr
 1413              		.cfi_endproc
 1414              	.LFE147:
 1415              		.size	ADC_ClearFlag, .-ADC_ClearFlag
 1416 0006 00BFAFF3 		.section	.text.ADC_GetITStatus,"ax",%progbits
 1416      0080AFF3 
 1416      0080
 1417              		.align	2
 1418              		.p2align 4,,15
 1419              		.global	ADC_GetITStatus
 1420              		.thumb
 1421              		.thumb_func
 1422              		.type	ADC_GetITStatus, %function
 1423              	ADC_GetITStatus:
 1424              	.LFB148:
 1425              		.loc 1 1682 0
 1426              		.cfi_startproc
 1427              		@ args = 0, pretend = 0, frame = 0
 1428              		@ frame_needed = 0, uses_anonymous_args = 0
 1429              		@ link register save eliminated.
 1430              	.LVL135:
 1431              		.loc 1 1694 0
 1432 0000 4368     		ldr	r3, [r0, #4]
 1433              	.LVL136:
 1434              		.loc 1 1697 0
 1435 0002 0068     		ldr	r0, [r0]
 1436              	.LVL137:
 1437 0004 10EA1120 		ands	r0, r0, r1, lsr #8
 1438 0008 07D0     		beq	.L97
 1439              		.loc 1 1694 0 discriminator 1
 1440 000a C9B2     		uxtb	r1, r1
 1441              	.LVL138:
 1442 000c 0122     		movs	r2, #1
 1443 000e 02FA01F1 		lsl	r1, r2, r1
 1444              		.loc 1 1697 0 discriminator 1
ARM GAS  /tmp/ccqRxWEk.s 			page 27


 1445 0012 1942     		tst	r1, r3
 1446              		.loc 1 1700 0 discriminator 1
 1447 0014 0CBF     		ite	eq
 1448 0016 0020     		moveq	r0, #0
 1449 0018 0120     		movne	r0, #1
 1450              	.L97:
 1451              	.LVL139:
 1452              		.loc 1 1709 0
 1453 001a 7047     		bx	lr
 1454              		.cfi_endproc
 1455              	.LFE148:
 1456              		.size	ADC_GetITStatus, .-ADC_GetITStatus
 1457 001c AFF30080 		.section	.text.ADC_ClearITPendingBit,"ax",%progbits
 1458              		.align	2
 1459              		.p2align 4,,15
 1460              		.global	ADC_ClearITPendingBit
 1461              		.thumb
 1462              		.thumb_func
 1463              		.type	ADC_ClearITPendingBit, %function
 1464              	ADC_ClearITPendingBit:
 1465              	.LFB149:
 1466              		.loc 1 1723 0
 1467              		.cfi_startproc
 1468              		@ args = 0, pretend = 0, frame = 0
 1469              		@ frame_needed = 0, uses_anonymous_args = 0
 1470              		@ link register save eliminated.
 1471              	.LVL140:
 1472              		.loc 1 1731 0
 1473 0000 6FEA1121 		mvn	r1, r1, lsr #8
 1474              	.LVL141:
 1475 0004 0160     		str	r1, [r0]
 1476 0006 7047     		bx	lr
 1477              		.cfi_endproc
 1478              	.LFE149:
 1479              		.size	ADC_ClearITPendingBit, .-ADC_ClearITPendingBit
 1480 0008 AFF30080 		.text
 1480      AFF30080 
 1481              	.Letext0:
 1482              		.file 2 "/usr/include/newlib/machine/_default_types.h"
 1483              		.file 3 "/usr/include/newlib/stdint.h"
 1484              		.file 4 "ChibiOS_3.0.2/os/ext/CMSIS/ST/stm32f407xx.h"
 1485              		.file 5 "ChibiOS_3.0.2/os/ext/CMSIS/ST/stm32f4xx.h"
 1486              		.file 6 "ChibiOS_3.0.2/ext/stdperiph_stm32f4/inc/stm32f4xx_adc.h"
 1487              		.file 7 "ChibiOS_3.0.2/os/ext/CMSIS/include/core_cm4.h"
 1488              		.file 8 "ChibiOS_3.0.2/ext/stdperiph_stm32f4/inc/stm32f4xx_rcc.h"