ARM GAS  /tmp/ccYjUgc7.s 			page 1


   1              		.syntax unified
   2              		.cpu cortex-m4
   3              		.eabi_attribute 27, 3
   4              		.eabi_attribute 28, 1
   5              		.fpu fpv4-sp-d16
   6              		.eabi_attribute 20, 1
   7              		.eabi_attribute 21, 1
   8              		.eabi_attribute 23, 3
   9              		.eabi_attribute 24, 1
  10              		.eabi_attribute 25, 1
  11              		.eabi_attribute 26, 1
  12              		.eabi_attribute 30, 2
  13              		.eabi_attribute 34, 1
  14              		.eabi_attribute 18, 4
  15              		.thumb
  16              		.file	"stm32_dma.c"
  17              		.text
  18              	.Ltext0:
  19              		.cfi_sections	.debug_frame
  20              		.section	.text.Vector6C,"ax",%progbits
  21              		.align	2
  22              		.p2align 4,,15
  23              		.global	Vector6C
  24              		.thumb
  25              		.thumb_func
  26              		.type	Vector6C, %function
  27              	Vector6C:
  28              	.LFB256:
  29              		.file 1 "ChibiOS_3.0.2/os/hal/ports/STM32/STM32F4xx/stm32_dma.c"
  30              		.loc 1 127 0
  31              		.cfi_startproc
  32              		@ args = 0, pretend = 0, frame = 0
  33              		@ frame_needed = 0, uses_anonymous_args = 0
  34 0000 08B5     		push	{r3, lr}
  35              		.cfi_def_cfa_offset 8
  36              		.cfi_offset 3, -8
  37              		.cfi_offset 14, -4
  38              		.loc 1 132 0
  39 0002 074B     		ldr	r3, .L7
  40              		.loc 1 134 0
  41 0004 074A     		ldr	r2, .L7+4
  42              		.loc 1 132 0
  43 0006 1968     		ldr	r1, [r3]
  44 0008 01F03D01 		and	r1, r1, #61
  45              	.LVL0:
  46              		.loc 1 133 0
  47 000c 9960     		str	r1, [r3, #8]
  48              		.loc 1 134 0
  49 000e 1368     		ldr	r3, [r2]
  50 0010 0BB1     		cbz	r3, .L2
  51              		.loc 1 135 0
  52 0012 5068     		ldr	r0, [r2, #4]
  53 0014 9847     		blx	r3
  54              	.LVL1:
  55              	.L2:
  56              		.loc 1 138 0
  57 0016 BDE80840 		pop	{r3, lr}
ARM GAS  /tmp/ccYjUgc7.s 			page 2


  58              		.loc 1 137 0
  59 001a FFF7FEBF 		b	_port_irq_epilogue
  60              	.LVL2:
  61              	.L8:
  62 001e 00BF     		.align	2
  63              	.L7:
  64 0020 00600240 		.word	1073897472
  65 0024 00000000 		.word	.LANCHOR0
  66              		.cfi_endproc
  67              	.LFE256:
  68              		.size	Vector6C, .-Vector6C
  69 0028 AFF30080 		.section	.text.Vector70,"ax",%progbits
  69      AFF30080 
  70              		.align	2
  71              		.p2align 4,,15
  72              		.global	Vector70
  73              		.thumb
  74              		.thumb_func
  75              		.type	Vector70, %function
  76              	Vector70:
  77              	.LFB257:
  78              		.loc 1 145 0
  79              		.cfi_startproc
  80              		@ args = 0, pretend = 0, frame = 0
  81              		@ frame_needed = 0, uses_anonymous_args = 0
  82              		.loc 1 150 0
  83 0000 084B     		ldr	r3, .L14
  84              		.loc 1 152 0
  85 0002 0948     		ldr	r0, .L14+4
  86              		.loc 1 150 0
  87 0004 1968     		ldr	r1, [r3]
  88              		.loc 1 152 0
  89 0006 8268     		ldr	r2, [r0, #8]
  90              		.loc 1 150 0
  91 0008 8909     		lsrs	r1, r1, #6
  92 000a 01F03D01 		and	r1, r1, #61
  93              	.LVL3:
  94              		.loc 1 145 0
  95 000e 10B5     		push	{r4, lr}
  96              		.cfi_def_cfa_offset 8
  97              		.cfi_offset 4, -8
  98              		.cfi_offset 14, -4
  99              		.loc 1 151 0
 100 0010 8C01     		lsls	r4, r1, #6
 101 0012 9C60     		str	r4, [r3, #8]
 102              		.loc 1 152 0
 103 0014 0AB1     		cbz	r2, .L10
 104              		.loc 1 153 0
 105 0016 C068     		ldr	r0, [r0, #12]
 106 0018 9047     		blx	r2
 107              	.LVL4:
 108              	.L10:
 109              		.loc 1 156 0
 110 001a BDE81040 		pop	{r4, lr}
 111              		.loc 1 155 0
 112 001e FFF7FEBF 		b	_port_irq_epilogue
 113              	.LVL5:
ARM GAS  /tmp/ccYjUgc7.s 			page 3


 114              	.L15:
 115 0022 00BF     		.align	2
 116              	.L14:
 117 0024 00600240 		.word	1073897472
 118 0028 00000000 		.word	.LANCHOR0
 119              		.cfi_endproc
 120              	.LFE257:
 121              		.size	Vector70, .-Vector70
 122 002c AFF30080 		.section	.text.Vector74,"ax",%progbits
 123              		.align	2
 124              		.p2align 4,,15
 125              		.global	Vector74
 126              		.thumb
 127              		.thumb_func
 128              		.type	Vector74, %function
 129              	Vector74:
 130              	.LFB258:
 131              		.loc 1 163 0
 132              		.cfi_startproc
 133              		@ args = 0, pretend = 0, frame = 0
 134              		@ frame_needed = 0, uses_anonymous_args = 0
 135              		.loc 1 168 0
 136 0000 084B     		ldr	r3, .L21
 137              		.loc 1 170 0
 138 0002 0948     		ldr	r0, .L21+4
 139              		.loc 1 168 0
 140 0004 1968     		ldr	r1, [r3]
 141              		.loc 1 170 0
 142 0006 0269     		ldr	r2, [r0, #16]
 143              		.loc 1 168 0
 144 0008 090C     		lsrs	r1, r1, #16
 145 000a 01F03D01 		and	r1, r1, #61
 146              	.LVL6:
 147              		.loc 1 163 0
 148 000e 10B5     		push	{r4, lr}
 149              		.cfi_def_cfa_offset 8
 150              		.cfi_offset 4, -8
 151              		.cfi_offset 14, -4
 152              		.loc 1 169 0
 153 0010 0C04     		lsls	r4, r1, #16
 154 0012 9C60     		str	r4, [r3, #8]
 155              		.loc 1 170 0
 156 0014 0AB1     		cbz	r2, .L17
 157              		.loc 1 171 0
 158 0016 4069     		ldr	r0, [r0, #20]
 159 0018 9047     		blx	r2
 160              	.LVL7:
 161              	.L17:
 162              		.loc 1 174 0
 163 001a BDE81040 		pop	{r4, lr}
 164              		.loc 1 173 0
 165 001e FFF7FEBF 		b	_port_irq_epilogue
 166              	.LVL8:
 167              	.L22:
 168 0022 00BF     		.align	2
 169              	.L21:
 170 0024 00600240 		.word	1073897472
ARM GAS  /tmp/ccYjUgc7.s 			page 4


 171 0028 00000000 		.word	.LANCHOR0
 172              		.cfi_endproc
 173              	.LFE258:
 174              		.size	Vector74, .-Vector74
 175 002c AFF30080 		.section	.text.Vector78,"ax",%progbits
 176              		.align	2
 177              		.p2align 4,,15
 178              		.global	Vector78
 179              		.thumb
 180              		.thumb_func
 181              		.type	Vector78, %function
 182              	Vector78:
 183              	.LFB259:
 184              		.loc 1 181 0
 185              		.cfi_startproc
 186              		@ args = 0, pretend = 0, frame = 0
 187              		@ frame_needed = 0, uses_anonymous_args = 0
 188              		.loc 1 186 0
 189 0000 084B     		ldr	r3, .L28
 190              		.loc 1 188 0
 191 0002 0948     		ldr	r0, .L28+4
 192              		.loc 1 186 0
 193 0004 1968     		ldr	r1, [r3]
 194              		.loc 1 188 0
 195 0006 8269     		ldr	r2, [r0, #24]
 196              		.loc 1 186 0
 197 0008 890D     		lsrs	r1, r1, #22
 198 000a 01F03D01 		and	r1, r1, #61
 199              	.LVL9:
 200              		.loc 1 181 0
 201 000e 10B5     		push	{r4, lr}
 202              		.cfi_def_cfa_offset 8
 203              		.cfi_offset 4, -8
 204              		.cfi_offset 14, -4
 205              		.loc 1 187 0
 206 0010 8C05     		lsls	r4, r1, #22
 207 0012 9C60     		str	r4, [r3, #8]
 208              		.loc 1 188 0
 209 0014 0AB1     		cbz	r2, .L24
 210              		.loc 1 189 0
 211 0016 C069     		ldr	r0, [r0, #28]
 212 0018 9047     		blx	r2
 213              	.LVL10:
 214              	.L24:
 215              		.loc 1 192 0
 216 001a BDE81040 		pop	{r4, lr}
 217              		.loc 1 191 0
 218 001e FFF7FEBF 		b	_port_irq_epilogue
 219              	.LVL11:
 220              	.L29:
 221 0022 00BF     		.align	2
 222              	.L28:
 223 0024 00600240 		.word	1073897472
 224 0028 00000000 		.word	.LANCHOR0
 225              		.cfi_endproc
 226              	.LFE259:
 227              		.size	Vector78, .-Vector78
ARM GAS  /tmp/ccYjUgc7.s 			page 5


 228 002c AFF30080 		.section	.text.Vector7C,"ax",%progbits
 229              		.align	2
 230              		.p2align 4,,15
 231              		.global	Vector7C
 232              		.thumb
 233              		.thumb_func
 234              		.type	Vector7C, %function
 235              	Vector7C:
 236              	.LFB260:
 237              		.loc 1 199 0
 238              		.cfi_startproc
 239              		@ args = 0, pretend = 0, frame = 0
 240              		@ frame_needed = 0, uses_anonymous_args = 0
 241 0000 08B5     		push	{r3, lr}
 242              		.cfi_def_cfa_offset 8
 243              		.cfi_offset 3, -8
 244              		.cfi_offset 14, -4
 245              		.loc 1 204 0
 246 0002 074B     		ldr	r3, .L35
 247              		.loc 1 206 0
 248 0004 0748     		ldr	r0, .L35+4
 249              		.loc 1 204 0
 250 0006 5968     		ldr	r1, [r3, #4]
 251              		.loc 1 206 0
 252 0008 026A     		ldr	r2, [r0, #32]
 253              		.loc 1 204 0
 254 000a 01F03D01 		and	r1, r1, #61
 255              	.LVL12:
 256              		.loc 1 205 0
 257 000e D960     		str	r1, [r3, #12]
 258              		.loc 1 206 0
 259 0010 0AB1     		cbz	r2, .L31
 260              		.loc 1 207 0
 261 0012 406A     		ldr	r0, [r0, #36]
 262 0014 9047     		blx	r2
 263              	.LVL13:
 264              	.L31:
 265              		.loc 1 210 0
 266 0016 BDE80840 		pop	{r3, lr}
 267              		.loc 1 209 0
 268 001a FFF7FEBF 		b	_port_irq_epilogue
 269              	.LVL14:
 270              	.L36:
 271 001e 00BF     		.align	2
 272              	.L35:
 273 0020 00600240 		.word	1073897472
 274 0024 00000000 		.word	.LANCHOR0
 275              		.cfi_endproc
 276              	.LFE260:
 277              		.size	Vector7C, .-Vector7C
 278 0028 AFF30080 		.section	.text.Vector80,"ax",%progbits
 278      AFF30080 
 279              		.align	2
 280              		.p2align 4,,15
 281              		.global	Vector80
 282              		.thumb
 283              		.thumb_func
ARM GAS  /tmp/ccYjUgc7.s 			page 6


 284              		.type	Vector80, %function
 285              	Vector80:
 286              	.LFB261:
 287              		.loc 1 217 0
 288              		.cfi_startproc
 289              		@ args = 0, pretend = 0, frame = 0
 290              		@ frame_needed = 0, uses_anonymous_args = 0
 291              		.loc 1 222 0
 292 0000 084B     		ldr	r3, .L42
 293              		.loc 1 224 0
 294 0002 0948     		ldr	r0, .L42+4
 295              		.loc 1 222 0
 296 0004 5968     		ldr	r1, [r3, #4]
 297              		.loc 1 224 0
 298 0006 826A     		ldr	r2, [r0, #40]
 299              		.loc 1 222 0
 300 0008 8909     		lsrs	r1, r1, #6
 301 000a 01F03D01 		and	r1, r1, #61
 302              	.LVL15:
 303              		.loc 1 217 0
 304 000e 10B5     		push	{r4, lr}
 305              		.cfi_def_cfa_offset 8
 306              		.cfi_offset 4, -8
 307              		.cfi_offset 14, -4
 308              		.loc 1 223 0
 309 0010 8C01     		lsls	r4, r1, #6
 310 0012 DC60     		str	r4, [r3, #12]
 311              		.loc 1 224 0
 312 0014 0AB1     		cbz	r2, .L38
 313              		.loc 1 225 0
 314 0016 C06A     		ldr	r0, [r0, #44]
 315 0018 9047     		blx	r2
 316              	.LVL16:
 317              	.L38:
 318              		.loc 1 228 0
 319 001a BDE81040 		pop	{r4, lr}
 320              		.loc 1 227 0
 321 001e FFF7FEBF 		b	_port_irq_epilogue
 322              	.LVL17:
 323              	.L43:
 324 0022 00BF     		.align	2
 325              	.L42:
 326 0024 00600240 		.word	1073897472
 327 0028 00000000 		.word	.LANCHOR0
 328              		.cfi_endproc
 329              	.LFE261:
 330              		.size	Vector80, .-Vector80
 331 002c AFF30080 		.section	.text.Vector84,"ax",%progbits
 332              		.align	2
 333              		.p2align 4,,15
 334              		.global	Vector84
 335              		.thumb
 336              		.thumb_func
 337              		.type	Vector84, %function
 338              	Vector84:
 339              	.LFB262:
 340              		.loc 1 235 0
ARM GAS  /tmp/ccYjUgc7.s 			page 7


 341              		.cfi_startproc
 342              		@ args = 0, pretend = 0, frame = 0
 343              		@ frame_needed = 0, uses_anonymous_args = 0
 344              		.loc 1 240 0
 345 0000 084B     		ldr	r3, .L49
 346              		.loc 1 242 0
 347 0002 0948     		ldr	r0, .L49+4
 348              		.loc 1 240 0
 349 0004 5968     		ldr	r1, [r3, #4]
 350              		.loc 1 242 0
 351 0006 026B     		ldr	r2, [r0, #48]
 352              		.loc 1 240 0
 353 0008 090C     		lsrs	r1, r1, #16
 354 000a 01F03D01 		and	r1, r1, #61
 355              	.LVL18:
 356              		.loc 1 235 0
 357 000e 10B5     		push	{r4, lr}
 358              		.cfi_def_cfa_offset 8
 359              		.cfi_offset 4, -8
 360              		.cfi_offset 14, -4
 361              		.loc 1 241 0
 362 0010 0C04     		lsls	r4, r1, #16
 363 0012 DC60     		str	r4, [r3, #12]
 364              		.loc 1 242 0
 365 0014 0AB1     		cbz	r2, .L45
 366              		.loc 1 243 0
 367 0016 406B     		ldr	r0, [r0, #52]
 368 0018 9047     		blx	r2
 369              	.LVL19:
 370              	.L45:
 371              		.loc 1 246 0
 372 001a BDE81040 		pop	{r4, lr}
 373              		.loc 1 245 0
 374 001e FFF7FEBF 		b	_port_irq_epilogue
 375              	.LVL20:
 376              	.L50:
 377 0022 00BF     		.align	2
 378              	.L49:
 379 0024 00600240 		.word	1073897472
 380 0028 00000000 		.word	.LANCHOR0
 381              		.cfi_endproc
 382              	.LFE262:
 383              		.size	Vector84, .-Vector84
 384 002c AFF30080 		.section	.text.VectorFC,"ax",%progbits
 385              		.align	2
 386              		.p2align 4,,15
 387              		.global	VectorFC
 388              		.thumb
 389              		.thumb_func
 390              		.type	VectorFC, %function
 391              	VectorFC:
 392              	.LFB263:
 393              		.loc 1 253 0
 394              		.cfi_startproc
 395              		@ args = 0, pretend = 0, frame = 0
 396              		@ frame_needed = 0, uses_anonymous_args = 0
 397              		.loc 1 258 0
ARM GAS  /tmp/ccYjUgc7.s 			page 8


 398 0000 084B     		ldr	r3, .L56
 399              		.loc 1 260 0
 400 0002 0948     		ldr	r0, .L56+4
 401              		.loc 1 258 0
 402 0004 5968     		ldr	r1, [r3, #4]
 403              		.loc 1 260 0
 404 0006 826B     		ldr	r2, [r0, #56]
 405              		.loc 1 258 0
 406 0008 890D     		lsrs	r1, r1, #22
 407 000a 01F03D01 		and	r1, r1, #61
 408              	.LVL21:
 409              		.loc 1 253 0
 410 000e 10B5     		push	{r4, lr}
 411              		.cfi_def_cfa_offset 8
 412              		.cfi_offset 4, -8
 413              		.cfi_offset 14, -4
 414              		.loc 1 259 0
 415 0010 8C05     		lsls	r4, r1, #22
 416 0012 DC60     		str	r4, [r3, #12]
 417              		.loc 1 260 0
 418 0014 0AB1     		cbz	r2, .L52
 419              		.loc 1 261 0
 420 0016 C06B     		ldr	r0, [r0, #60]
 421 0018 9047     		blx	r2
 422              	.LVL22:
 423              	.L52:
 424              		.loc 1 264 0
 425 001a BDE81040 		pop	{r4, lr}
 426              		.loc 1 263 0
 427 001e FFF7FEBF 		b	_port_irq_epilogue
 428              	.LVL23:
 429              	.L57:
 430 0022 00BF     		.align	2
 431              	.L56:
 432 0024 00600240 		.word	1073897472
 433 0028 00000000 		.word	.LANCHOR0
 434              		.cfi_endproc
 435              	.LFE263:
 436              		.size	VectorFC, .-VectorFC
 437 002c AFF30080 		.section	.text.Vector120,"ax",%progbits
 438              		.align	2
 439              		.p2align 4,,15
 440              		.global	Vector120
 441              		.thumb
 442              		.thumb_func
 443              		.type	Vector120, %function
 444              	Vector120:
 445              	.LFB264:
 446              		.loc 1 271 0
 447              		.cfi_startproc
 448              		@ args = 0, pretend = 0, frame = 0
 449              		@ frame_needed = 0, uses_anonymous_args = 0
 450 0000 08B5     		push	{r3, lr}
 451              		.cfi_def_cfa_offset 8
 452              		.cfi_offset 3, -8
 453              		.cfi_offset 14, -4
 454              		.loc 1 276 0
ARM GAS  /tmp/ccYjUgc7.s 			page 9


 455 0002 074B     		ldr	r3, .L63
 456              		.loc 1 278 0
 457 0004 0748     		ldr	r0, .L63+4
 458              		.loc 1 276 0
 459 0006 1968     		ldr	r1, [r3]
 460              		.loc 1 278 0
 461 0008 026C     		ldr	r2, [r0, #64]
 462              		.loc 1 276 0
 463 000a 01F03D01 		and	r1, r1, #61
 464              	.LVL24:
 465              		.loc 1 277 0
 466 000e 9960     		str	r1, [r3, #8]
 467              		.loc 1 278 0
 468 0010 0AB1     		cbz	r2, .L59
 469              		.loc 1 279 0
 470 0012 406C     		ldr	r0, [r0, #68]
 471 0014 9047     		blx	r2
 472              	.LVL25:
 473              	.L59:
 474              		.loc 1 282 0
 475 0016 BDE80840 		pop	{r3, lr}
 476              		.loc 1 281 0
 477 001a FFF7FEBF 		b	_port_irq_epilogue
 478              	.LVL26:
 479              	.L64:
 480 001e 00BF     		.align	2
 481              	.L63:
 482 0020 00640240 		.word	1073898496
 483 0024 00000000 		.word	.LANCHOR0
 484              		.cfi_endproc
 485              	.LFE264:
 486              		.size	Vector120, .-Vector120
 487 0028 AFF30080 		.section	.text.Vector124,"ax",%progbits
 487      AFF30080 
 488              		.align	2
 489              		.p2align 4,,15
 490              		.global	Vector124
 491              		.thumb
 492              		.thumb_func
 493              		.type	Vector124, %function
 494              	Vector124:
 495              	.LFB265:
 496              		.loc 1 289 0
 497              		.cfi_startproc
 498              		@ args = 0, pretend = 0, frame = 0
 499              		@ frame_needed = 0, uses_anonymous_args = 0
 500              		.loc 1 294 0
 501 0000 084B     		ldr	r3, .L70
 502              		.loc 1 296 0
 503 0002 0948     		ldr	r0, .L70+4
 504              		.loc 1 294 0
 505 0004 1968     		ldr	r1, [r3]
 506              		.loc 1 296 0
 507 0006 826C     		ldr	r2, [r0, #72]
 508              		.loc 1 294 0
 509 0008 8909     		lsrs	r1, r1, #6
 510 000a 01F03D01 		and	r1, r1, #61
ARM GAS  /tmp/ccYjUgc7.s 			page 10


 511              	.LVL27:
 512              		.loc 1 289 0
 513 000e 10B5     		push	{r4, lr}
 514              		.cfi_def_cfa_offset 8
 515              		.cfi_offset 4, -8
 516              		.cfi_offset 14, -4
 517              		.loc 1 295 0
 518 0010 8C01     		lsls	r4, r1, #6
 519 0012 9C60     		str	r4, [r3, #8]
 520              		.loc 1 296 0
 521 0014 0AB1     		cbz	r2, .L66
 522              		.loc 1 297 0
 523 0016 C06C     		ldr	r0, [r0, #76]
 524 0018 9047     		blx	r2
 525              	.LVL28:
 526              	.L66:
 527              		.loc 1 300 0
 528 001a BDE81040 		pop	{r4, lr}
 529              		.loc 1 299 0
 530 001e FFF7FEBF 		b	_port_irq_epilogue
 531              	.LVL29:
 532              	.L71:
 533 0022 00BF     		.align	2
 534              	.L70:
 535 0024 00640240 		.word	1073898496
 536 0028 00000000 		.word	.LANCHOR0
 537              		.cfi_endproc
 538              	.LFE265:
 539              		.size	Vector124, .-Vector124
 540 002c AFF30080 		.section	.text.Vector128,"ax",%progbits
 541              		.align	2
 542              		.p2align 4,,15
 543              		.global	Vector128
 544              		.thumb
 545              		.thumb_func
 546              		.type	Vector128, %function
 547              	Vector128:
 548              	.LFB266:
 549              		.loc 1 307 0
 550              		.cfi_startproc
 551              		@ args = 0, pretend = 0, frame = 0
 552              		@ frame_needed = 0, uses_anonymous_args = 0
 553              		.loc 1 312 0
 554 0000 084B     		ldr	r3, .L77
 555              		.loc 1 314 0
 556 0002 0948     		ldr	r0, .L77+4
 557              		.loc 1 312 0
 558 0004 1968     		ldr	r1, [r3]
 559              		.loc 1 314 0
 560 0006 026D     		ldr	r2, [r0, #80]
 561              		.loc 1 312 0
 562 0008 090C     		lsrs	r1, r1, #16
 563 000a 01F03D01 		and	r1, r1, #61
 564              	.LVL30:
 565              		.loc 1 307 0
 566 000e 10B5     		push	{r4, lr}
 567              		.cfi_def_cfa_offset 8
ARM GAS  /tmp/ccYjUgc7.s 			page 11


 568              		.cfi_offset 4, -8
 569              		.cfi_offset 14, -4
 570              		.loc 1 313 0
 571 0010 0C04     		lsls	r4, r1, #16
 572 0012 9C60     		str	r4, [r3, #8]
 573              		.loc 1 314 0
 574 0014 0AB1     		cbz	r2, .L73
 575              		.loc 1 315 0
 576 0016 406D     		ldr	r0, [r0, #84]
 577 0018 9047     		blx	r2
 578              	.LVL31:
 579              	.L73:
 580              		.loc 1 318 0
 581 001a BDE81040 		pop	{r4, lr}
 582              		.loc 1 317 0
 583 001e FFF7FEBF 		b	_port_irq_epilogue
 584              	.LVL32:
 585              	.L78:
 586 0022 00BF     		.align	2
 587              	.L77:
 588 0024 00640240 		.word	1073898496
 589 0028 00000000 		.word	.LANCHOR0
 590              		.cfi_endproc
 591              	.LFE266:
 592              		.size	Vector128, .-Vector128
 593 002c AFF30080 		.section	.text.Vector12C,"ax",%progbits
 594              		.align	2
 595              		.p2align 4,,15
 596              		.global	Vector12C
 597              		.thumb
 598              		.thumb_func
 599              		.type	Vector12C, %function
 600              	Vector12C:
 601              	.LFB267:
 602              		.loc 1 325 0
 603              		.cfi_startproc
 604              		@ args = 0, pretend = 0, frame = 0
 605              		@ frame_needed = 0, uses_anonymous_args = 0
 606              		.loc 1 330 0
 607 0000 084B     		ldr	r3, .L84
 608              		.loc 1 332 0
 609 0002 0948     		ldr	r0, .L84+4
 610              		.loc 1 330 0
 611 0004 1968     		ldr	r1, [r3]
 612              		.loc 1 332 0
 613 0006 826D     		ldr	r2, [r0, #88]
 614              		.loc 1 330 0
 615 0008 890D     		lsrs	r1, r1, #22
 616 000a 01F03D01 		and	r1, r1, #61
 617              	.LVL33:
 618              		.loc 1 325 0
 619 000e 10B5     		push	{r4, lr}
 620              		.cfi_def_cfa_offset 8
 621              		.cfi_offset 4, -8
 622              		.cfi_offset 14, -4
 623              		.loc 1 331 0
 624 0010 8C05     		lsls	r4, r1, #22
ARM GAS  /tmp/ccYjUgc7.s 			page 12


 625 0012 9C60     		str	r4, [r3, #8]
 626              		.loc 1 332 0
 627 0014 0AB1     		cbz	r2, .L80
 628              		.loc 1 333 0
 629 0016 C06D     		ldr	r0, [r0, #92]
 630 0018 9047     		blx	r2
 631              	.LVL34:
 632              	.L80:
 633              		.loc 1 336 0
 634 001a BDE81040 		pop	{r4, lr}
 635              		.loc 1 335 0
 636 001e FFF7FEBF 		b	_port_irq_epilogue
 637              	.LVL35:
 638              	.L85:
 639 0022 00BF     		.align	2
 640              	.L84:
 641 0024 00640240 		.word	1073898496
 642 0028 00000000 		.word	.LANCHOR0
 643              		.cfi_endproc
 644              	.LFE267:
 645              		.size	Vector12C, .-Vector12C
 646 002c AFF30080 		.section	.text.Vector130,"ax",%progbits
 647              		.align	2
 648              		.p2align 4,,15
 649              		.global	Vector130
 650              		.thumb
 651              		.thumb_func
 652              		.type	Vector130, %function
 653              	Vector130:
 654              	.LFB268:
 655              		.loc 1 343 0
 656              		.cfi_startproc
 657              		@ args = 0, pretend = 0, frame = 0
 658              		@ frame_needed = 0, uses_anonymous_args = 0
 659 0000 08B5     		push	{r3, lr}
 660              		.cfi_def_cfa_offset 8
 661              		.cfi_offset 3, -8
 662              		.cfi_offset 14, -4
 663              		.loc 1 348 0
 664 0002 074B     		ldr	r3, .L91
 665              		.loc 1 350 0
 666 0004 0748     		ldr	r0, .L91+4
 667              		.loc 1 348 0
 668 0006 5968     		ldr	r1, [r3, #4]
 669              		.loc 1 350 0
 670 0008 026E     		ldr	r2, [r0, #96]
 671              		.loc 1 348 0
 672 000a 01F03D01 		and	r1, r1, #61
 673              	.LVL36:
 674              		.loc 1 349 0
 675 000e D960     		str	r1, [r3, #12]
 676              		.loc 1 350 0
 677 0010 0AB1     		cbz	r2, .L87
 678              		.loc 1 351 0
 679 0012 406E     		ldr	r0, [r0, #100]
 680 0014 9047     		blx	r2
 681              	.LVL37:
ARM GAS  /tmp/ccYjUgc7.s 			page 13


 682              	.L87:
 683              		.loc 1 354 0
 684 0016 BDE80840 		pop	{r3, lr}
 685              		.loc 1 353 0
 686 001a FFF7FEBF 		b	_port_irq_epilogue
 687              	.LVL38:
 688              	.L92:
 689 001e 00BF     		.align	2
 690              	.L91:
 691 0020 00640240 		.word	1073898496
 692 0024 00000000 		.word	.LANCHOR0
 693              		.cfi_endproc
 694              	.LFE268:
 695              		.size	Vector130, .-Vector130
 696 0028 AFF30080 		.section	.text.Vector150,"ax",%progbits
 696      AFF30080 
 697              		.align	2
 698              		.p2align 4,,15
 699              		.global	Vector150
 700              		.thumb
 701              		.thumb_func
 702              		.type	Vector150, %function
 703              	Vector150:
 704              	.LFB269:
 705              		.loc 1 361 0
 706              		.cfi_startproc
 707              		@ args = 0, pretend = 0, frame = 0
 708              		@ frame_needed = 0, uses_anonymous_args = 0
 709              		.loc 1 366 0
 710 0000 084B     		ldr	r3, .L98
 711              		.loc 1 368 0
 712 0002 0948     		ldr	r0, .L98+4
 713              		.loc 1 366 0
 714 0004 5968     		ldr	r1, [r3, #4]
 715              		.loc 1 368 0
 716 0006 826E     		ldr	r2, [r0, #104]
 717              		.loc 1 366 0
 718 0008 8909     		lsrs	r1, r1, #6
 719 000a 01F03D01 		and	r1, r1, #61
 720              	.LVL39:
 721              		.loc 1 361 0
 722 000e 10B5     		push	{r4, lr}
 723              		.cfi_def_cfa_offset 8
 724              		.cfi_offset 4, -8
 725              		.cfi_offset 14, -4
 726              		.loc 1 367 0
 727 0010 8C01     		lsls	r4, r1, #6
 728 0012 DC60     		str	r4, [r3, #12]
 729              		.loc 1 368 0
 730 0014 0AB1     		cbz	r2, .L94
 731              		.loc 1 369 0
 732 0016 C06E     		ldr	r0, [r0, #108]
 733 0018 9047     		blx	r2
 734              	.LVL40:
 735              	.L94:
 736              		.loc 1 372 0
 737 001a BDE81040 		pop	{r4, lr}
ARM GAS  /tmp/ccYjUgc7.s 			page 14


 738              		.loc 1 371 0
 739 001e FFF7FEBF 		b	_port_irq_epilogue
 740              	.LVL41:
 741              	.L99:
 742 0022 00BF     		.align	2
 743              	.L98:
 744 0024 00640240 		.word	1073898496
 745 0028 00000000 		.word	.LANCHOR0
 746              		.cfi_endproc
 747              	.LFE269:
 748              		.size	Vector150, .-Vector150
 749 002c AFF30080 		.section	.text.Vector154,"ax",%progbits
 750              		.align	2
 751              		.p2align 4,,15
 752              		.global	Vector154
 753              		.thumb
 754              		.thumb_func
 755              		.type	Vector154, %function
 756              	Vector154:
 757              	.LFB270:
 758              		.loc 1 379 0
 759              		.cfi_startproc
 760              		@ args = 0, pretend = 0, frame = 0
 761              		@ frame_needed = 0, uses_anonymous_args = 0
 762              		.loc 1 384 0
 763 0000 084B     		ldr	r3, .L105
 764              		.loc 1 386 0
 765 0002 0948     		ldr	r0, .L105+4
 766              		.loc 1 384 0
 767 0004 5968     		ldr	r1, [r3, #4]
 768              		.loc 1 386 0
 769 0006 026F     		ldr	r2, [r0, #112]
 770              		.loc 1 384 0
 771 0008 090C     		lsrs	r1, r1, #16
 772 000a 01F03D01 		and	r1, r1, #61
 773              	.LVL42:
 774              		.loc 1 379 0
 775 000e 10B5     		push	{r4, lr}
 776              		.cfi_def_cfa_offset 8
 777              		.cfi_offset 4, -8
 778              		.cfi_offset 14, -4
 779              		.loc 1 385 0
 780 0010 0C04     		lsls	r4, r1, #16
 781 0012 DC60     		str	r4, [r3, #12]
 782              		.loc 1 386 0
 783 0014 0AB1     		cbz	r2, .L101
 784              		.loc 1 387 0
 785 0016 406F     		ldr	r0, [r0, #116]
 786 0018 9047     		blx	r2
 787              	.LVL43:
 788              	.L101:
 789              		.loc 1 390 0
 790 001a BDE81040 		pop	{r4, lr}
 791              		.loc 1 389 0
 792 001e FFF7FEBF 		b	_port_irq_epilogue
 793              	.LVL44:
 794              	.L106:
ARM GAS  /tmp/ccYjUgc7.s 			page 15


 795 0022 00BF     		.align	2
 796              	.L105:
 797 0024 00640240 		.word	1073898496
 798 0028 00000000 		.word	.LANCHOR0
 799              		.cfi_endproc
 800              	.LFE270:
 801              		.size	Vector154, .-Vector154
 802 002c AFF30080 		.section	.text.Vector158,"ax",%progbits
 803              		.align	2
 804              		.p2align 4,,15
 805              		.global	Vector158
 806              		.thumb
 807              		.thumb_func
 808              		.type	Vector158, %function
 809              	Vector158:
 810              	.LFB271:
 811              		.loc 1 397 0
 812              		.cfi_startproc
 813              		@ args = 0, pretend = 0, frame = 0
 814              		@ frame_needed = 0, uses_anonymous_args = 0
 815              		.loc 1 402 0
 816 0000 084B     		ldr	r3, .L112
 817              		.loc 1 404 0
 818 0002 0948     		ldr	r0, .L112+4
 819              		.loc 1 402 0
 820 0004 5968     		ldr	r1, [r3, #4]
 821              		.loc 1 404 0
 822 0006 826F     		ldr	r2, [r0, #120]
 823              		.loc 1 402 0
 824 0008 890D     		lsrs	r1, r1, #22
 825 000a 01F03D01 		and	r1, r1, #61
 826              	.LVL45:
 827              		.loc 1 397 0
 828 000e 10B5     		push	{r4, lr}
 829              		.cfi_def_cfa_offset 8
 830              		.cfi_offset 4, -8
 831              		.cfi_offset 14, -4
 832              		.loc 1 403 0
 833 0010 8C05     		lsls	r4, r1, #22
 834 0012 DC60     		str	r4, [r3, #12]
 835              		.loc 1 404 0
 836 0014 0AB1     		cbz	r2, .L108
 837              		.loc 1 405 0
 838 0016 C06F     		ldr	r0, [r0, #124]
 839 0018 9047     		blx	r2
 840              	.LVL46:
 841              	.L108:
 842              		.loc 1 408 0
 843 001a BDE81040 		pop	{r4, lr}
 844              		.loc 1 407 0
 845 001e FFF7FEBF 		b	_port_irq_epilogue
 846              	.LVL47:
 847              	.L113:
 848 0022 00BF     		.align	2
 849              	.L112:
 850 0024 00640240 		.word	1073898496
 851 0028 00000000 		.word	.LANCHOR0
ARM GAS  /tmp/ccYjUgc7.s 			page 16


 852              		.cfi_endproc
 853              	.LFE271:
 854              		.size	Vector158, .-Vector158
 855 002c AFF30080 		.section	.text.dmaInit,"ax",%progbits
 856              		.align	2
 857              		.p2align 4,,15
 858              		.global	dmaInit
 859              		.thumb
 860              		.thumb_func
 861              		.type	dmaInit, %function
 862              	dmaInit:
 863              	.LFB272:
 864              		.loc 1 419 0
 865              		.cfi_startproc
 866              		@ args = 0, pretend = 0, frame = 0
 867              		@ frame_needed = 0, uses_anonymous_args = 0
 868              		@ link register save eliminated.
 869              		.loc 1 422 0
 870 0000 0C4B     		ldr	r3, .L118
 871              		.loc 1 419 0
 872 0002 30B4     		push	{r4, r5}
 873              		.cfi_def_cfa_offset 8
 874              		.cfi_offset 4, -8
 875              		.cfi_offset 5, -4
 876              		.loc 1 422 0
 877 0004 0022     		movs	r2, #0
 878 0006 0C4D     		ldr	r5, .L118+4
 879 0008 0C4C     		ldr	r4, .L118+8
 880 000a 1A60     		str	r2, [r3]
 881              	.LVL48:
 882              		.loc 1 424 0
 883 000c 1146     		mov	r1, r2
 884              		.loc 1 422 0
 885 000e 1346     		mov	r3, r2
 886              	.LVL49:
 887              	.L116:
 888              		.loc 1 424 0 discriminator 2
 889 0010 E858     		ldr	r0, [r5, r3]
 890 0012 0C33     		adds	r3, r3, #12
 891              		.loc 1 423 0 discriminator 2
 892 0014 C02B     		cmp	r3, #192
 893              		.loc 1 424 0 discriminator 2
 894 0016 0160     		str	r1, [r0]
 895              		.loc 1 425 0 discriminator 2
 896 0018 A150     		str	r1, [r4, r2]
 897 001a 02F10802 		add	r2, r2, #8
 898              		.loc 1 423 0 discriminator 2
 899 001e F7D1     		bne	.L116
 900              		.loc 1 427 0
 901 0020 0749     		ldr	r1, .L118+12
 902              		.loc 1 429 0
 903 0022 084A     		ldr	r2, .L118+16
 904              		.loc 1 427 0
 905 0024 4FF0FF33 		mov	r3, #-1
 906 0028 8B60     		str	r3, [r1, #8]
 907              		.loc 1 431 0
 908 002a 30BC     		pop	{r4, r5}
ARM GAS  /tmp/ccYjUgc7.s 			page 17


 909              		.loc 1 428 0
 910 002c CB60     		str	r3, [r1, #12]
 911              		.loc 1 429 0
 912 002e 9360     		str	r3, [r2, #8]
 913              		.loc 1 430 0
 914 0030 D360     		str	r3, [r2, #12]
 915              		.loc 1 431 0
 916 0032 7047     		bx	lr
 917              	.L119:
 918              		.align	2
 919              	.L118:
 920 0034 00000000 		.word	.LANCHOR1
 921 0038 00000000 		.word	.LANCHOR2
 922 003c 00000000 		.word	.LANCHOR0
 923 0040 00600240 		.word	1073897472
 924 0044 00640240 		.word	1073898496
 925              		.cfi_endproc
 926              	.LFE272:
 927              		.size	dmaInit, .-dmaInit
 928 0048 AFF30080 		.section	.text.dmaStreamAllocate,"ax",%progbits
 928      AFF30080 
 929              		.align	2
 930              		.p2align 4,,15
 931              		.global	dmaStreamAllocate
 932              		.thumb
 933              		.thumb_func
 934              		.type	dmaStreamAllocate, %function
 935              	dmaStreamAllocate:
 936              	.LFB273:
 937              		.loc 1 460 0
 938              		.cfi_startproc
 939              		@ args = 0, pretend = 0, frame = 0
 940              		@ frame_needed = 0, uses_anonymous_args = 0
 941              	.LVL50:
 942 0000 2DE9F041 		push	{r4, r5, r6, r7, r8, lr}
 943              		.cfi_def_cfa_offset 24
 944              		.cfi_offset 4, -24
 945              		.cfi_offset 5, -20
 946              		.cfi_offset 6, -16
 947              		.cfi_offset 7, -12
 948              		.cfi_offset 8, -8
 949              		.cfi_offset 14, -4
 950              		.loc 1 465 0
 951 0004 204E     		ldr	r6, .L135
 952 0006 447A     		ldrb	r4, [r0, #9]	@ zero_extendqisi2
 953 0008 3768     		ldr	r7, [r6]
 954 000a 0125     		movs	r5, #1
 955 000c 05FA04FC 		lsl	ip, r5, r4
 956 0010 1CEA070F 		tst	ip, r7
 957 0014 32D1     		bne	.L126
 958              		.loc 1 469 0
 959 0016 1D4D     		ldr	r5, .L135+4
 960              		.loc 1 471 0
 961 0018 4CEA0707 		orr	r7, ip, r7
 962              		.loc 1 470 0
 963 001c 05EBC408 		add	r8, r5, r4, lsl #3
 964              		.loc 1 474 0
ARM GAS  /tmp/ccYjUgc7.s 			page 18


 965 0020 17F0FF0F 		tst	r7, #255
 966              		.loc 1 469 0
 967 0024 45F83420 		str	r2, [r5, r4, lsl #3]
 968              		.loc 1 471 0
 969 0028 3760     		str	r7, [r6]
 970              		.loc 1 470 0
 971 002a C8F80430 		str	r3, [r8, #4]
 972              		.loc 1 474 0
 973 002e 04D0     		beq	.L122
 974              		.loc 1 475 0
 975 0030 174B     		ldr	r3, .L135+8
 976              	.LVL51:
 977 0032 1C6B     		ldr	r4, [r3, #48]
 978 0034 44F40014 		orr	r4, r4, #2097152
 979 0038 1C63     		str	r4, [r3, #48]
 980              	.L122:
 981              		.loc 1 476 0
 982 003a 17F47F4F 		tst	r7, #65280
 983 003e 17D1     		bne	.L134
 984              	.L123:
 985              		.loc 1 480 0
 986 0040 0468     		ldr	r4, [r0]
 987 0042 2368     		ldr	r3, [r4]
 988 0044 23F01F03 		bic	r3, r3, #31
 989 0048 2360     		str	r3, [r4]
 990              	.L125:
 991              		.loc 1 480 0 is_stmt 0 discriminator 1
 992 004a 2368     		ldr	r3, [r4]
 993 004c 13F00105 		ands	r5, r3, #1
 994 0050 FBD1     		bne	.L125
 995              		.loc 1 480 0 discriminator 2
 996 0052 067A     		ldrb	r6, [r0, #8]	@ zero_extendqisi2
 997 0054 4368     		ldr	r3, [r0, #4]
 998 0056 3D27     		movs	r7, #61
 999 0058 B740     		lsls	r7, r7, r6
 1000              		.loc 1 482 0 is_stmt 1 discriminator 2
 1001 005a 2126     		movs	r6, #33
 1002              		.loc 1 480 0 discriminator 2
 1003 005c 1F60     		str	r7, [r3]
 1004              		.loc 1 481 0 discriminator 2
 1005 005e 2560     		str	r5, [r4]
 1006              		.loc 1 482 0 discriminator 2
 1007 0060 6661     		str	r6, [r4, #20]
 1008              		.loc 1 485 0 discriminator 2
 1009 0062 72B1     		cbz	r2, .L127
 1010              		.loc 1 486 0
 1011 0064 807A     		ldrb	r0, [r0, #10]	@ zero_extendqisi2
 1012              	.LVL52:
 1013 0066 FFF7FEFF 		bl	nvicEnableVector
 1014              	.LVL53:
 1015              		.loc 1 488 0
 1016 006a 2846     		mov	r0, r5
 1017 006c BDE8F081 		pop	{r4, r5, r6, r7, r8, pc}
 1018              	.LVL54:
 1019              	.L134:
 1020              		.loc 1 477 0
 1021 0070 074B     		ldr	r3, .L135+8
ARM GAS  /tmp/ccYjUgc7.s 			page 19


 1022 0072 1C6B     		ldr	r4, [r3, #48]
 1023 0074 44F48004 		orr	r4, r4, #4194304
 1024 0078 1C63     		str	r4, [r3, #48]
 1025 007a E1E7     		b	.L123
 1026              	.LVL55:
 1027              	.L126:
 1028              		.loc 1 466 0
 1029 007c 2846     		mov	r0, r5
 1030              	.LVL56:
 1031 007e BDE8F081 		pop	{r4, r5, r6, r7, r8, pc}
 1032              	.LVL57:
 1033              	.L127:
 1034              		.loc 1 488 0
 1035 0082 1046     		mov	r0, r2
 1036              	.LVL58:
 1037              		.loc 1 489 0
 1038 0084 BDE8F081 		pop	{r4, r5, r6, r7, r8, pc}
 1039              	.LVL59:
 1040              	.L136:
 1041              		.align	2
 1042              	.L135:
 1043 0088 00000000 		.word	.LANCHOR1
 1044 008c 00000000 		.word	.LANCHOR0
 1045 0090 00380240 		.word	1073887232
 1046              		.cfi_endproc
 1047              	.LFE273:
 1048              		.size	dmaStreamAllocate, .-dmaStreamAllocate
 1049 0094 AFF30080 		.section	.text.dmaStreamRelease,"ax",%progbits
 1049      AFF30080 
 1049      AFF30080 
 1050              		.align	2
 1051              		.p2align 4,,15
 1052              		.global	dmaStreamRelease
 1053              		.thumb
 1054              		.thumb_func
 1055              		.type	dmaStreamRelease, %function
 1056              	dmaStreamRelease:
 1057              	.LFB274:
 1058              		.loc 1 504 0
 1059              		.cfi_startproc
 1060              		@ args = 0, pretend = 0, frame = 0
 1061              		@ frame_needed = 0, uses_anonymous_args = 0
 1062              	.LVL60:
 1063 0000 10B5     		push	{r4, lr}
 1064              		.cfi_def_cfa_offset 8
 1065              		.cfi_offset 4, -8
 1066              		.cfi_offset 14, -4
 1067              		.loc 1 504 0
 1068 0002 0446     		mov	r4, r0
 1069              		.loc 1 513 0
 1070 0004 807A     		ldrb	r0, [r0, #10]	@ zero_extendqisi2
 1071              	.LVL61:
 1072 0006 FFF7FEFF 		bl	nvicDisableVector
 1073              	.LVL62:
 1074              		.loc 1 516 0
 1075 000a 0D4A     		ldr	r2, .L140
 1076 000c 637A     		ldrb	r3, [r4, #9]	@ zero_extendqisi2
ARM GAS  /tmp/ccYjUgc7.s 			page 20


 1077 000e 1168     		ldr	r1, [r2]
 1078 0010 0120     		movs	r0, #1
 1079 0012 00FA03F3 		lsl	r3, r0, r3
 1080 0016 21EA0303 		bic	r3, r1, r3
 1081              		.loc 1 519 0
 1082 001a 13F0FF0F 		tst	r3, #255
 1083              		.loc 1 516 0
 1084 001e 1360     		str	r3, [r2]
 1085              		.loc 1 519 0
 1086 0020 04D1     		bne	.L138
 1087              		.loc 1 520 0
 1088 0022 084A     		ldr	r2, .L140+4
 1089 0024 116B     		ldr	r1, [r2, #48]
 1090 0026 21F40011 		bic	r1, r1, #2097152
 1091 002a 1163     		str	r1, [r2, #48]
 1092              	.L138:
 1093              		.loc 1 521 0
 1094 002c 13F47F4F 		tst	r3, #65280
 1095 0030 04D1     		bne	.L137
 1096              		.loc 1 522 0
 1097 0032 044B     		ldr	r3, .L140+4
 1098 0034 1A6B     		ldr	r2, [r3, #48]
 1099 0036 22F48002 		bic	r2, r2, #4194304
 1100 003a 1A63     		str	r2, [r3, #48]
 1101              	.L137:
 1102 003c 10BD     		pop	{r4, pc}
 1103              	.LVL63:
 1104              	.L141:
 1105 003e 00BF     		.align	2
 1106              	.L140:
 1107 0040 00000000 		.word	.LANCHOR1
 1108 0044 00380240 		.word	1073887232
 1109              		.cfi_endproc
 1110              	.LFE274:
 1111              		.size	dmaStreamRelease, .-dmaStreamRelease
 1112              		.global	_stm32_dma_streams
 1113 0048 AFF30080 		.section	.bss.dma_isr_redir,"aw",%nobits
 1113      AFF30080 
 1114              		.align	2
 1115              		.set	.LANCHOR0,. + 0
 1116              		.type	dma_isr_redir, %object
 1117              		.size	dma_isr_redir, 128
 1118              	dma_isr_redir:
 1119 0000 00000000 		.space	128
 1119      00000000 
 1119      00000000 
 1119      00000000 
 1119      00000000 
 1120              		.section	.rodata._stm32_dma_streams,"a",%progbits
 1121              		.align	2
 1122              		.set	.LANCHOR2,. + 0
 1123              		.type	_stm32_dma_streams, %object
 1124              		.size	_stm32_dma_streams, 192
 1125              	_stm32_dma_streams:
 1126 0000 10600240 		.word	1073897488
 1127 0004 08600240 		.word	1073897480
 1128 0008 00       		.byte	0
ARM GAS  /tmp/ccYjUgc7.s 			page 21


 1129 0009 00       		.byte	0
 1130 000a 0B       		.byte	11
 1131 000b 00       		.space	1
 1132 000c 28600240 		.word	1073897512
 1133 0010 08600240 		.word	1073897480
 1134 0014 06       		.byte	6
 1135 0015 01       		.byte	1
 1136 0016 0C       		.byte	12
 1137 0017 00       		.space	1
 1138 0018 40600240 		.word	1073897536
 1139 001c 08600240 		.word	1073897480
 1140 0020 10       		.byte	16
 1141 0021 02       		.byte	2
 1142 0022 0D       		.byte	13
 1143 0023 00       		.space	1
 1144 0024 58600240 		.word	1073897560
 1145 0028 08600240 		.word	1073897480
 1146 002c 16       		.byte	22
 1147 002d 03       		.byte	3
 1148 002e 0E       		.byte	14
 1149 002f 00       		.space	1
 1150 0030 70600240 		.word	1073897584
 1151 0034 0C600240 		.word	1073897484
 1152 0038 00       		.byte	0
 1153 0039 04       		.byte	4
 1154 003a 0F       		.byte	15
 1155 003b 00       		.space	1
 1156 003c 88600240 		.word	1073897608
 1157 0040 0C600240 		.word	1073897484
 1158 0044 06       		.byte	6
 1159 0045 05       		.byte	5
 1160 0046 10       		.byte	16
 1161 0047 00       		.space	1
 1162 0048 A0600240 		.word	1073897632
 1163 004c 0C600240 		.word	1073897484
 1164 0050 10       		.byte	16
 1165 0051 06       		.byte	6
 1166 0052 11       		.byte	17
 1167 0053 00       		.space	1
 1168 0054 B8600240 		.word	1073897656
 1169 0058 0C600240 		.word	1073897484
 1170 005c 16       		.byte	22
 1171 005d 07       		.byte	7
 1172 005e 2F       		.byte	47
 1173 005f 00       		.space	1
 1174 0060 10640240 		.word	1073898512
 1175 0064 08640240 		.word	1073898504
 1176 0068 00       		.byte	0
 1177 0069 08       		.byte	8
 1178 006a 38       		.byte	56
 1179 006b 00       		.space	1
 1180 006c 28640240 		.word	1073898536
 1181 0070 08640240 		.word	1073898504
 1182 0074 06       		.byte	6
 1183 0075 09       		.byte	9
 1184 0076 39       		.byte	57
 1185 0077 00       		.space	1
ARM GAS  /tmp/ccYjUgc7.s 			page 22


 1186 0078 40640240 		.word	1073898560
 1187 007c 08640240 		.word	1073898504
 1188 0080 10       		.byte	16
 1189 0081 0A       		.byte	10
 1190 0082 3A       		.byte	58
 1191 0083 00       		.space	1
 1192 0084 58640240 		.word	1073898584
 1193 0088 08640240 		.word	1073898504
 1194 008c 16       		.byte	22
 1195 008d 0B       		.byte	11
 1196 008e 3B       		.byte	59
 1197 008f 00       		.space	1
 1198 0090 70640240 		.word	1073898608
 1199 0094 0C640240 		.word	1073898508
 1200 0098 00       		.byte	0
 1201 0099 0C       		.byte	12
 1202 009a 3C       		.byte	60
 1203 009b 00       		.space	1
 1204 009c 88640240 		.word	1073898632
 1205 00a0 0C640240 		.word	1073898508
 1206 00a4 06       		.byte	6
 1207 00a5 0D       		.byte	13
 1208 00a6 44       		.byte	68
 1209 00a7 00       		.space	1
 1210 00a8 A0640240 		.word	1073898656
 1211 00ac 0C640240 		.word	1073898508
 1212 00b0 10       		.byte	16
 1213 00b1 0E       		.byte	14
 1214 00b2 45       		.byte	69
 1215 00b3 00       		.space	1
 1216 00b4 B8640240 		.word	1073898680
 1217 00b8 0C640240 		.word	1073898508
 1218 00bc 16       		.byte	22
 1219 00bd 0F       		.byte	15
 1220 00be 46       		.byte	70
 1221 00bf 00       		.space	1
 1222              		.section	.bss.dma_streams_mask,"aw",%nobits
 1223              		.align	2
 1224              		.set	.LANCHOR1,. + 0
 1225              		.type	dma_streams_mask, %object
 1226              		.size	dma_streams_mask, 4
 1227              	dma_streams_mask:
 1228 0000 00000000 		.space	4
 1229              		.text
 1230              	.Letext0:
 1231              		.file 2 "/usr/lib/gcc/arm-none-eabi/4.8/include/stddef.h"
 1232              		.file 3 "/usr/include/newlib/machine/_default_types.h"
 1233              		.file 4 "/usr/include/newlib/stdint.h"
 1234              		.file 5 "ChibiOS_3.0.2/os/rt/ports/ARMCMx/compilers/GCC/chtypes.h"
 1235              		.file 6 "ChibiOS_3.0.2/os/rt/include/chsystypes.h"
 1236              		.file 7 "ChibiOS_3.0.2/os/rt/include/chschd.h"
 1237              		.file 8 "ChibiOS_3.0.2/os/ext/CMSIS/ST/stm32f407xx.h"
 1238              		.file 9 "ChibiOS_3.0.2/os/rt/ports/ARMCMx/chcore.h"
 1239              		.file 10 "ChibiOS_3.0.2/os/rt/ports/ARMCMx/chcore_v7m.h"
 1240              		.file 11 "ChibiOS_3.0.2/os/rt/include/chtm.h"
 1241              		.file 12 "ChibiOS_3.0.2/os/rt/include/chsem.h"
 1242              		.file 13 "ChibiOS_3.0.2/os/rt/include/chmtx.h"
ARM GAS  /tmp/ccYjUgc7.s 			page 23


 1243              		.file 14 "ChibiOS_3.0.2/os/hal/ports/STM32/STM32F4xx/stm32_dma.h"
 1244              		.file 15 "ChibiOS_3.0.2/os/ext/CMSIS/include/core_cm4.h"
 1245              		.file 16 "ChibiOS_3.0.2/os/hal/ports/common/ARMCMx/nvic.h"