ARM GAS  /tmp/ccaxfZBe.s 			page 1


   1              		.syntax unified
   2              		.cpu cortex-m4
   3              		.eabi_attribute 27, 3
   4              		.eabi_attribute 28, 1
   5              		.fpu fpv4-sp-d16
   6              		.eabi_attribute 20, 1
   7              		.eabi_attribute 21, 1
   8              		.eabi_attribute 23, 3
   9              		.eabi_attribute 24, 1
  10              		.eabi_attribute 25, 1
  11              		.eabi_attribute 26, 1
  12              		.eabi_attribute 30, 2
  13              		.eabi_attribute 34, 1
  14              		.eabi_attribute 18, 4
  15              		.thumb
  16              		.file	"stm32f4xx_wwdg.c"
  17              		.text
  18              	.Ltext0:
  19              		.cfi_sections	.debug_frame
  20              		.section	.text.WWDG_DeInit,"ax",%progbits
  21              		.align	2
  22              		.p2align 4,,15
  23              		.global	WWDG_DeInit
  24              		.thumb
  25              		.thumb_func
  26              		.type	WWDG_DeInit, %function
  27              	WWDG_DeInit:
  28              	.LFB112:
  29              		.file 1 "ChibiOS_3.0.2/ext/stdperiph_stm32f4/src/stm32f4xx_wwdg.c"
  30              		.loc 1 143 0
  31              		.cfi_startproc
  32              		@ args = 0, pretend = 0, frame = 0
  33              		@ frame_needed = 0, uses_anonymous_args = 0
  34 0000 08B5     		push	{r3, lr}
  35              		.cfi_def_cfa_offset 8
  36              		.cfi_offset 3, -8
  37              		.cfi_offset 14, -4
  38              		.loc 1 144 0
  39 0002 4FF40060 		mov	r0, #2048
  40 0006 0121     		movs	r1, #1
  41 0008 FFF7FEFF 		bl	RCC_APB1PeriphResetCmd
  42              	.LVL0:
  43              		.loc 1 145 0
  44 000c 4FF40060 		mov	r0, #2048
  45 0010 0021     		movs	r1, #0
  46              		.loc 1 146 0
  47 0012 BDE80840 		pop	{r3, lr}
  48              		.loc 1 145 0
  49 0016 FFF7FEBF 		b	RCC_APB1PeriphResetCmd
  50              	.LVL1:
  51              		.cfi_endproc
  52              	.LFE112:
  53              		.size	WWDG_DeInit, .-WWDG_DeInit
  54 001a 00BFAFF3 		.section	.text.WWDG_SetPrescaler,"ax",%progbits
  54      0080
  55              		.align	2
  56              		.p2align 4,,15
ARM GAS  /tmp/ccaxfZBe.s 			page 2


  57              		.global	WWDG_SetPrescaler
  58              		.thumb
  59              		.thumb_func
  60              		.type	WWDG_SetPrescaler, %function
  61              	WWDG_SetPrescaler:
  62              	.LFB113:
  63              		.loc 1 159 0
  64              		.cfi_startproc
  65              		@ args = 0, pretend = 0, frame = 0
  66              		@ frame_needed = 0, uses_anonymous_args = 0
  67              		@ link register save eliminated.
  68              	.LVL2:
  69              		.loc 1 164 0
  70 0000 034B     		ldr	r3, .L3
  71 0002 5A68     		ldr	r2, [r3, #4]
  72 0004 22F4C072 		bic	r2, r2, #384
  73              	.LVL3:
  74              		.loc 1 166 0
  75 0008 1043     		orrs	r0, r0, r2
  76              	.LVL4:
  77              		.loc 1 168 0
  78 000a 5860     		str	r0, [r3, #4]
  79 000c 7047     		bx	lr
  80              	.L4:
  81 000e 00BF     		.align	2
  82              	.L3:
  83 0010 002C0040 		.word	1073753088
  84              		.cfi_endproc
  85              	.LFE113:
  86              		.size	WWDG_SetPrescaler, .-WWDG_SetPrescaler
  87 0014 AFF30080 		.section	.text.WWDG_SetWindowValue,"ax",%progbits
  87      AFF30080 
  87      AFF30080 
  88              		.align	2
  89              		.p2align 4,,15
  90              		.global	WWDG_SetWindowValue
  91              		.thumb
  92              		.thumb_func
  93              		.type	WWDG_SetWindowValue, %function
  94              	WWDG_SetWindowValue:
  95              	.LFB114:
  96              		.loc 1 178 0
  97              		.cfi_startproc
  98              		@ args = 0, pretend = 0, frame = 8
  99              		@ frame_needed = 0, uses_anonymous_args = 0
 100              		@ link register save eliminated.
 101              	.LVL5:
 102 0000 82B0     		sub	sp, sp, #8
 103              		.cfi_def_cfa_offset 8
 104              		.loc 1 185 0
 105 0002 084B     		ldr	r3, .L6
 106              		.loc 1 179 0
 107 0004 0022     		movs	r2, #0
 108 0006 0192     		str	r2, [sp, #4]
 109              		.loc 1 185 0
 110 0008 5A68     		ldr	r2, [r3, #4]
 111 000a 22F07F02 		bic	r2, r2, #127
ARM GAS  /tmp/ccaxfZBe.s 			page 3


 112 000e 0192     		str	r2, [sp, #4]
 113              		.loc 1 188 0
 114 0010 019A     		ldr	r2, [sp, #4]
 115 0012 00F07F00 		and	r0, r0, #127
 116              	.LVL6:
 117 0016 0243     		orrs	r2, r2, r0
 118 0018 0192     		str	r2, [sp, #4]
 119              		.loc 1 191 0
 120 001a 019A     		ldr	r2, [sp, #4]
 121 001c 5A60     		str	r2, [r3, #4]
 122              		.loc 1 192 0
 123 001e 02B0     		add	sp, sp, #8
 124              		@ sp needed
 125 0020 7047     		bx	lr
 126              	.L7:
 127 0022 00BF     		.align	2
 128              	.L6:
 129 0024 002C0040 		.word	1073753088
 130              		.cfi_endproc
 131              	.LFE114:
 132              		.size	WWDG_SetWindowValue, .-WWDG_SetWindowValue
 133 0028 AFF30080 		.section	.text.WWDG_EnableIT,"ax",%progbits
 133      AFF30080 
 134              		.align	2
 135              		.p2align 4,,15
 136              		.global	WWDG_EnableIT
 137              		.thumb
 138              		.thumb_func
 139              		.type	WWDG_EnableIT, %function
 140              	WWDG_EnableIT:
 141              	.LFB115:
 142              		.loc 1 201 0
 143              		.cfi_startproc
 144              		@ args = 0, pretend = 0, frame = 0
 145              		@ frame_needed = 0, uses_anonymous_args = 0
 146              		@ link register save eliminated.
 147              		.loc 1 202 0
 148 0000 014B     		ldr	r3, .L9
 149 0002 0122     		movs	r2, #1
 150 0004 1A60     		str	r2, [r3]
 151 0006 7047     		bx	lr
 152              	.L10:
 153              		.align	2
 154              	.L9:
 155 0008 A4800542 		.word	1107656868
 156              		.cfi_endproc
 157              	.LFE115:
 158              		.size	WWDG_EnableIT, .-WWDG_EnableIT
 159 000c AFF30080 		.section	.text.WWDG_SetCounter,"ax",%progbits
 160              		.align	2
 161              		.p2align 4,,15
 162              		.global	WWDG_SetCounter
 163              		.thumb
 164              		.thumb_func
 165              		.type	WWDG_SetCounter, %function
 166              	WWDG_SetCounter:
 167              	.LFB116:
ARM GAS  /tmp/ccaxfZBe.s 			page 4


 168              		.loc 1 213 0
 169              		.cfi_startproc
 170              		@ args = 0, pretend = 0, frame = 0
 171              		@ frame_needed = 0, uses_anonymous_args = 0
 172              		@ link register save eliminated.
 173              	.LVL7:
 174              		.loc 1 218 0
 175 0000 024B     		ldr	r3, .L12
 176 0002 00F07F00 		and	r0, r0, #127
 177              	.LVL8:
 178 0006 1860     		str	r0, [r3]
 179 0008 7047     		bx	lr
 180              	.L13:
 181 000a 00BF     		.align	2
 182              	.L12:
 183 000c 002C0040 		.word	1073753088
 184              		.cfi_endproc
 185              	.LFE116:
 186              		.size	WWDG_SetCounter, .-WWDG_SetCounter
 187              		.section	.text.WWDG_Enable,"ax",%progbits
 188              		.align	2
 189              		.p2align 4,,15
 190              		.global	WWDG_Enable
 191              		.thumb
 192              		.thumb_func
 193              		.type	WWDG_Enable, %function
 194              	WWDG_Enable:
 195              	.LFB117:
 196              		.loc 1 244 0
 197              		.cfi_startproc
 198              		@ args = 0, pretend = 0, frame = 0
 199              		@ frame_needed = 0, uses_anonymous_args = 0
 200              		@ link register save eliminated.
 201              	.LVL9:
 202              		.loc 1 247 0
 203 0000 024B     		ldr	r3, .L15
 204 0002 40F08000 		orr	r0, r0, #128
 205              	.LVL10:
 206 0006 1860     		str	r0, [r3]
 207 0008 7047     		bx	lr
 208              	.L16:
 209 000a 00BF     		.align	2
 210              	.L15:
 211 000c 002C0040 		.word	1073753088
 212              		.cfi_endproc
 213              	.LFE117:
 214              		.size	WWDG_Enable, .-WWDG_Enable
 215              		.section	.text.WWDG_GetFlagStatus,"ax",%progbits
 216              		.align	2
 217              		.p2align 4,,15
 218              		.global	WWDG_GetFlagStatus
 219              		.thumb
 220              		.thumb_func
 221              		.type	WWDG_GetFlagStatus, %function
 222              	WWDG_GetFlagStatus:
 223              	.LFB118:
 224              		.loc 1 271 0
ARM GAS  /tmp/ccaxfZBe.s 			page 5


 225              		.cfi_startproc
 226              		@ args = 0, pretend = 0, frame = 0
 227              		@ frame_needed = 0, uses_anonymous_args = 0
 228              		@ link register save eliminated.
 229              	.LVL11:
 230              		.loc 1 274 0
 231 0000 024B     		ldr	r3, .L18
 232 0002 9868     		ldr	r0, [r3, #8]
 233              	.LVL12:
 234              		.loc 1 283 0
 235 0004 0030     		adds	r0, r0, #0
 236 0006 18BF     		it	ne
 237 0008 0120     		movne	r0, #1
 238              	.LVL13:
 239 000a 7047     		bx	lr
 240              	.L19:
 241              		.align	2
 242              	.L18:
 243 000c 002C0040 		.word	1073753088
 244              		.cfi_endproc
 245              	.LFE118:
 246              		.size	WWDG_GetFlagStatus, .-WWDG_GetFlagStatus
 247              		.section	.text.WWDG_ClearFlag,"ax",%progbits
 248              		.align	2
 249              		.p2align 4,,15
 250              		.global	WWDG_ClearFlag
 251              		.thumb
 252              		.thumb_func
 253              		.type	WWDG_ClearFlag, %function
 254              	WWDG_ClearFlag:
 255              	.LFB119:
 256              		.loc 1 291 0
 257              		.cfi_startproc
 258              		@ args = 0, pretend = 0, frame = 0
 259              		@ frame_needed = 0, uses_anonymous_args = 0
 260              		@ link register save eliminated.
 261              		.loc 1 292 0
 262 0000 014B     		ldr	r3, .L21
 263 0002 0022     		movs	r2, #0
 264 0004 9A60     		str	r2, [r3, #8]
 265 0006 7047     		bx	lr
 266              	.L22:
 267              		.align	2
 268              	.L21:
 269 0008 002C0040 		.word	1073753088
 270              		.cfi_endproc
 271              	.LFE119:
 272              		.size	WWDG_ClearFlag, .-WWDG_ClearFlag
 273 000c AFF30080 		.text
 274              	.Letext0:
 275              		.file 2 "/usr/include/newlib/machine/_default_types.h"
 276              		.file 3 "/usr/include/newlib/stdint.h"
 277              		.file 4 "ChibiOS_3.0.2/os/ext/CMSIS/ST/stm32f407xx.h"
 278              		.file 5 "ChibiOS_3.0.2/os/ext/CMSIS/ST/stm32f4xx.h"
 279              		.file 6 "ChibiOS_3.0.2/os/ext/CMSIS/include/core_cm4.h"
 280              		.file 7 "ChibiOS_3.0.2/ext/stdperiph_stm32f4/inc/stm32f4xx_rcc.h"