ARM GAS  /tmp/ccyJVbjO.s 			page 1


   1              		.syntax unified
   2              		.cpu cortex-m4
   3              		.eabi_attribute 27, 3
   4              		.eabi_attribute 28, 1
   5              		.fpu fpv4-sp-d16
   6              		.eabi_attribute 20, 1
   7              		.eabi_attribute 21, 1
   8              		.eabi_attribute 23, 3
   9              		.eabi_attribute 24, 1
  10              		.eabi_attribute 25, 1
  11              		.eabi_attribute 26, 1
  12              		.eabi_attribute 30, 2
  13              		.eabi_attribute 34, 1
  14              		.eabi_attribute 18, 4
  15              		.thumb
  16              		.file	"stm32f4xx_rcc.c"
  17              		.text
  18              	.Ltext0:
  19              		.cfi_sections	.debug_frame
  20              		.section	.text.RCC_DeInit,"ax",%progbits
  21              		.align	2
  22              		.p2align 4,,15
  23              		.global	RCC_DeInit
  24              		.thumb
  25              		.thumb_func
  26              		.type	RCC_DeInit, %function
  27              	RCC_DeInit:
  28              	.LFB112:
  29              		.file 1 "ChibiOS_3.0.2/ext/stdperiph_stm32f4/src/stm32f4xx_rcc.c"
  30              		.loc 1 246 0
  31              		.cfi_startproc
  32              		@ args = 0, pretend = 0, frame = 0
  33              		@ frame_needed = 0, uses_anonymous_args = 0
  34              		@ link register save eliminated.
  35              		.loc 1 248 0
  36 0000 0A4B     		ldr	r3, .L2
  37              		.loc 1 257 0
  38 0002 0B48     		ldr	r0, .L2+4
  39              		.loc 1 248 0
  40 0004 1A68     		ldr	r2, [r3]
  41              		.loc 1 251 0
  42 0006 0021     		movs	r1, #0
  43              		.loc 1 248 0
  44 0008 42F00102 		orr	r2, r2, #1
  45 000c 1A60     		str	r2, [r3]
  46              		.loc 1 251 0
  47 000e 9960     		str	r1, [r3, #8]
  48              		.loc 1 254 0
  49 0010 1A68     		ldr	r2, [r3]
  50 0012 22F0A852 		bic	r2, r2, #352321536
  51 0016 22F41022 		bic	r2, r2, #589824
  52 001a 1A60     		str	r2, [r3]
  53              		.loc 1 257 0
  54 001c 5860     		str	r0, [r3, #4]
  55              		.loc 1 270 0
  56 001e 1A68     		ldr	r2, [r3]
  57 0020 22F48022 		bic	r2, r2, #262144
ARM GAS  /tmp/ccyJVbjO.s 			page 2


  58 0024 1A60     		str	r2, [r3]
  59              		.loc 1 273 0
  60 0026 D960     		str	r1, [r3, #12]
  61 0028 7047     		bx	lr
  62              	.L3:
  63 002a 00BF     		.align	2
  64              	.L2:
  65 002c 00380240 		.word	1073887232
  66 0030 10300024 		.word	603992080
  67              		.cfi_endproc
  68              	.LFE112:
  69              		.size	RCC_DeInit, .-RCC_DeInit
  70 0034 AFF30080 		.section	.text.RCC_HSEConfig,"ax",%progbits
  70      AFF30080 
  70      AFF30080 
  71              		.align	2
  72              		.p2align 4,,15
  73              		.global	RCC_HSEConfig
  74              		.thumb
  75              		.thumb_func
  76              		.type	RCC_HSEConfig, %function
  77              	RCC_HSEConfig:
  78              	.LFB113:
  79              		.loc 1 297 0
  80              		.cfi_startproc
  81              		@ args = 0, pretend = 0, frame = 0
  82              		@ frame_needed = 0, uses_anonymous_args = 0
  83              		@ link register save eliminated.
  84              	.LVL0:
  85              		.loc 1 302 0
  86 0000 024B     		ldr	r3, .L5
  87 0002 0022     		movs	r2, #0
  88 0004 1A70     		strb	r2, [r3]
  89              		.loc 1 305 0
  90 0006 1870     		strb	r0, [r3]
  91 0008 7047     		bx	lr
  92              	.L6:
  93 000a 00BF     		.align	2
  94              	.L5:
  95 000c 02380240 		.word	1073887234
  96              		.cfi_endproc
  97              	.LFE113:
  98              		.size	RCC_HSEConfig, .-RCC_HSEConfig
  99              		.section	.text.RCC_WaitForHSEStartUp,"ax",%progbits
 100              		.align	2
 101              		.p2align 4,,15
 102              		.global	RCC_WaitForHSEStartUp
 103              		.thumb
 104              		.thumb_func
 105              		.type	RCC_WaitForHSEStartUp, %function
 106              	RCC_WaitForHSEStartUp:
 107              	.LFB114:
 108              		.loc 1 321 0
 109              		.cfi_startproc
 110              		@ args = 0, pretend = 0, frame = 8
 111              		@ frame_needed = 0, uses_anonymous_args = 0
 112              		@ link register save eliminated.
ARM GAS  /tmp/ccyJVbjO.s 			page 3


 113 0000 82B0     		sub	sp, sp, #8
 114              		.cfi_def_cfa_offset 8
 115              		.loc 1 322 0
 116 0002 0023     		movs	r3, #0
 117              	.LBB6:
 118              	.LBB7:
 119              		.loc 1 2750 0
 120 0004 0B4A     		ldr	r2, .L19
 121              	.LBE7:
 122              	.LBE6:
 123              		.loc 1 322 0
 124 0006 0193     		str	r3, [sp, #4]
 125              	.LVL1:
 126              	.L11:
 127              	.LBB9:
 128              	.LBB8:
 129              		.loc 1 2750 0 discriminator 1
 130 0008 1368     		ldr	r3, [r2]
 131              	.LVL2:
 132              		.loc 1 2763 0 discriminator 1
 133 000a 9B03     		lsls	r3, r3, #14
 134              	.LVL3:
 135 000c 0CD4     		bmi	.L18
 136              	.LBE8:
 137              	.LBE9:
 138              		.loc 1 329 0
 139 000e 019B     		ldr	r3, [sp, #4]
 140 0010 0133     		adds	r3, r3, #1
 141 0012 0193     		str	r3, [sp, #4]
 142              		.loc 1 330 0
 143 0014 019B     		ldr	r3, [sp, #4]
 144 0016 B3F5A04F 		cmp	r3, #20480
 145 001a F5D1     		bne	.L11
 146              	.LVL4:
 147              	.L10:
 148              	.LBB10:
 149              	.LBB11:
 150              		.loc 1 2750 0
 151 001c 054B     		ldr	r3, .L19
 152 001e 1868     		ldr	r0, [r3]
 153              	.LVL5:
 154              	.LBE11:
 155              	.LBE10:
 156              		.loc 1 340 0
 157 0020 C0F34040 		ubfx	r0, r0, #17, #1
 158              	.LVL6:
 159              		.loc 1 341 0
 160 0024 02B0     		add	sp, sp, #8
 161              		@ sp needed
 162 0026 7047     		bx	lr
 163              	.LVL7:
 164              	.L18:
 165              		.loc 1 329 0
 166 0028 019B     		ldr	r3, [sp, #4]
 167 002a 0133     		adds	r3, r3, #1
 168 002c 0193     		str	r3, [sp, #4]
 169              		.loc 1 330 0
ARM GAS  /tmp/ccyJVbjO.s 			page 4


 170 002e 019B     		ldr	r3, [sp, #4]
 171 0030 F4E7     		b	.L10
 172              	.L20:
 173 0032 00BF     		.align	2
 174              	.L19:
 175 0034 00380240 		.word	1073887232
 176              		.cfi_endproc
 177              	.LFE114:
 178              		.size	RCC_WaitForHSEStartUp, .-RCC_WaitForHSEStartUp
 179 0038 AFF30080 		.section	.text.RCC_AdjustHSICalibrationValue,"ax",%progbits
 179      AFF30080 
 180              		.align	2
 181              		.p2align 4,,15
 182              		.global	RCC_AdjustHSICalibrationValue
 183              		.thumb
 184              		.thumb_func
 185              		.type	RCC_AdjustHSICalibrationValue, %function
 186              	RCC_AdjustHSICalibrationValue:
 187              	.LFB115:
 188              		.loc 1 352 0
 189              		.cfi_startproc
 190              		@ args = 0, pretend = 0, frame = 0
 191              		@ frame_needed = 0, uses_anonymous_args = 0
 192              		@ link register save eliminated.
 193              	.LVL8:
 194              		.loc 1 357 0
 195 0000 034B     		ldr	r3, .L22
 196 0002 1A68     		ldr	r2, [r3]
 197              	.LVL9:
 198              		.loc 1 360 0
 199 0004 22F0F802 		bic	r2, r2, #248
 200              	.LVL10:
 201              		.loc 1 363 0
 202 0008 42EAC000 		orr	r0, r2, r0, lsl #3
 203              	.LVL11:
 204              		.loc 1 366 0
 205 000c 1860     		str	r0, [r3]
 206 000e 7047     		bx	lr
 207              	.L23:
 208              		.align	2
 209              	.L22:
 210 0010 00380240 		.word	1073887232
 211              		.cfi_endproc
 212              	.LFE115:
 213              		.size	RCC_AdjustHSICalibrationValue, .-RCC_AdjustHSICalibrationValue
 214 0014 AFF30080 		.section	.text.RCC_HSICmd,"ax",%progbits
 214      AFF30080 
 214      AFF30080 
 215              		.align	2
 216              		.p2align 4,,15
 217              		.global	RCC_HSICmd
 218              		.thumb
 219              		.thumb_func
 220              		.type	RCC_HSICmd, %function
 221              	RCC_HSICmd:
 222              	.LFB116:
 223              		.loc 1 388 0
ARM GAS  /tmp/ccyJVbjO.s 			page 5


 224              		.cfi_startproc
 225              		@ args = 0, pretend = 0, frame = 0
 226              		@ frame_needed = 0, uses_anonymous_args = 0
 227              		@ link register save eliminated.
 228              	.LVL12:
 229              		.loc 1 392 0
 230 0000 014B     		ldr	r3, .L25
 231 0002 1860     		str	r0, [r3]
 232 0004 7047     		bx	lr
 233              	.L26:
 234 0006 00BF     		.align	2
 235              	.L25:
 236 0008 00004742 		.word	1111949312
 237              		.cfi_endproc
 238              	.LFE116:
 239              		.size	RCC_HSICmd, .-RCC_HSICmd
 240 000c AFF30080 		.section	.text.RCC_LSEConfig,"ax",%progbits
 241              		.align	2
 242              		.p2align 4,,15
 243              		.global	RCC_LSEConfig
 244              		.thumb
 245              		.thumb_func
 246              		.type	RCC_LSEConfig, %function
 247              	RCC_LSEConfig:
 248              	.LFB117:
 249              		.loc 1 413 0
 250              		.cfi_startproc
 251              		@ args = 0, pretend = 0, frame = 0
 252              		@ frame_needed = 0, uses_anonymous_args = 0
 253              		@ link register save eliminated.
 254              	.LVL13:
 255              		.loc 1 419 0
 256 0000 064B     		ldr	r3, .L32
 257 0002 0022     		movs	r2, #0
 258              		.loc 1 425 0
 259 0004 0128     		cmp	r0, #1
 260              		.loc 1 419 0
 261 0006 1A70     		strb	r2, [r3]
 262              		.loc 1 422 0
 263 0008 1A70     		strb	r2, [r3]
 264              		.loc 1 425 0
 265 000a 05D0     		beq	.L29
 266 000c 0428     		cmp	r0, #4
 267 000e 02D1     		bne	.L31
 268              		.loc 1 433 0
 269 0010 0522     		movs	r2, #5
 270 0012 1A70     		strb	r2, [r3]
 271 0014 7047     		bx	lr
 272              	.L31:
 273 0016 7047     		bx	lr
 274              	.L29:
 275              		.loc 1 429 0
 276 0018 1870     		strb	r0, [r3]
 277              		.loc 1 430 0
 278 001a 7047     		bx	lr
 279              	.L33:
 280              		.align	2
ARM GAS  /tmp/ccyJVbjO.s 			page 6


 281              	.L32:
 282 001c 70380240 		.word	1073887344
 283              		.cfi_endproc
 284              	.LFE117:
 285              		.size	RCC_LSEConfig, .-RCC_LSEConfig
 286              		.section	.text.RCC_LSICmd,"ax",%progbits
 287              		.align	2
 288              		.p2align 4,,15
 289              		.global	RCC_LSICmd
 290              		.thumb
 291              		.thumb_func
 292              		.type	RCC_LSICmd, %function
 293              	RCC_LSICmd:
 294              	.LFB118:
 295              		.loc 1 453 0
 296              		.cfi_startproc
 297              		@ args = 0, pretend = 0, frame = 0
 298              		@ frame_needed = 0, uses_anonymous_args = 0
 299              		@ link register save eliminated.
 300              	.LVL14:
 301              		.loc 1 457 0
 302 0000 014B     		ldr	r3, .L35
 303 0002 1860     		str	r0, [r3]
 304 0004 7047     		bx	lr
 305              	.L36:
 306 0006 00BF     		.align	2
 307              	.L35:
 308 0008 800E4742 		.word	1111953024
 309              		.cfi_endproc
 310              	.LFE118:
 311              		.size	RCC_LSICmd, .-RCC_LSICmd
 312 000c AFF30080 		.section	.text.RCC_PLLCmd,"ax",%progbits
 313              		.align	2
 314              		.p2align 4,,15
 315              		.global	RCC_PLLCmd
 316              		.thumb
 317              		.thumb_func
 318              		.type	RCC_PLLCmd, %function
 319              	RCC_PLLCmd:
 320              	.LFB119:
 321              		.loc 1 576 0
 322              		.cfi_startproc
 323              		@ args = 0, pretend = 0, frame = 0
 324              		@ frame_needed = 0, uses_anonymous_args = 0
 325              		@ link register save eliminated.
 326              	.LVL15:
 327              		.loc 1 579 0
 328 0000 014B     		ldr	r3, .L38
 329 0002 1860     		str	r0, [r3]
 330 0004 7047     		bx	lr
 331              	.L39:
 332 0006 00BF     		.align	2
 333              	.L38:
 334 0008 60004742 		.word	1111949408
 335              		.cfi_endproc
 336              	.LFE119:
 337              		.size	RCC_PLLCmd, .-RCC_PLLCmd
ARM GAS  /tmp/ccyJVbjO.s 			page 7


 338 000c AFF30080 		.section	.text.RCC_PLLI2SCmd,"ax",%progbits
 339              		.align	2
 340              		.p2align 4,,15
 341              		.global	RCC_PLLI2SCmd
 342              		.thumb
 343              		.thumb_func
 344              		.type	RCC_PLLI2SCmd, %function
 345              	RCC_PLLI2SCmd:
 346              	.LFB120:
 347              		.loc 1 745 0
 348              		.cfi_startproc
 349              		@ args = 0, pretend = 0, frame = 0
 350              		@ frame_needed = 0, uses_anonymous_args = 0
 351              		@ link register save eliminated.
 352              	.LVL16:
 353              		.loc 1 748 0
 354 0000 014B     		ldr	r3, .L41
 355 0002 1860     		str	r0, [r3]
 356 0004 7047     		bx	lr
 357              	.L42:
 358 0006 00BF     		.align	2
 359              	.L41:
 360 0008 68004742 		.word	1111949416
 361              		.cfi_endproc
 362              	.LFE120:
 363              		.size	RCC_PLLI2SCmd, .-RCC_PLLI2SCmd
 364 000c AFF30080 		.section	.text.RCC_PLLSAICmd,"ax",%progbits
 365              		.align	2
 366              		.p2align 4,,15
 367              		.global	RCC_PLLSAICmd
 368              		.thumb
 369              		.thumb_func
 370              		.type	RCC_PLLSAICmd, %function
 371              	RCC_PLLSAICmd:
 372              	.LFB121:
 373              		.loc 1 874 0
 374              		.cfi_startproc
 375              		@ args = 0, pretend = 0, frame = 0
 376              		@ frame_needed = 0, uses_anonymous_args = 0
 377              		@ link register save eliminated.
 378              	.LVL17:
 379              		.loc 1 877 0
 380 0000 014B     		ldr	r3, .L44
 381 0002 1860     		str	r0, [r3]
 382 0004 7047     		bx	lr
 383              	.L45:
 384 0006 00BF     		.align	2
 385              	.L44:
 386 0008 70004742 		.word	1111949424
 387              		.cfi_endproc
 388              	.LFE121:
 389              		.size	RCC_PLLSAICmd, .-RCC_PLLSAICmd
 390 000c AFF30080 		.section	.text.RCC_ClockSecuritySystemCmd,"ax",%progbits
 391              		.align	2
 392              		.p2align 4,,15
 393              		.global	RCC_ClockSecuritySystemCmd
 394              		.thumb
ARM GAS  /tmp/ccyJVbjO.s 			page 8


 395              		.thumb_func
 396              		.type	RCC_ClockSecuritySystemCmd, %function
 397              	RCC_ClockSecuritySystemCmd:
 398              	.LFB122:
 399              		.loc 1 892 0
 400              		.cfi_startproc
 401              		@ args = 0, pretend = 0, frame = 0
 402              		@ frame_needed = 0, uses_anonymous_args = 0
 403              		@ link register save eliminated.
 404              	.LVL18:
 405              		.loc 1 895 0
 406 0000 014B     		ldr	r3, .L47
 407 0002 1860     		str	r0, [r3]
 408 0004 7047     		bx	lr
 409              	.L48:
 410 0006 00BF     		.align	2
 411              	.L47:
 412 0008 4C004742 		.word	1111949388
 413              		.cfi_endproc
 414              	.LFE122:
 415              		.size	RCC_ClockSecuritySystemCmd, .-RCC_ClockSecuritySystemCmd
 416 000c AFF30080 		.section	.text.RCC_MCO1Config,"ax",%progbits
 417              		.align	2
 418              		.p2align 4,,15
 419              		.global	RCC_MCO1Config
 420              		.thumb
 421              		.thumb_func
 422              		.type	RCC_MCO1Config, %function
 423              	RCC_MCO1Config:
 424              	.LFB123:
 425              		.loc 1 917 0
 426              		.cfi_startproc
 427              		@ args = 0, pretend = 0, frame = 0
 428              		@ frame_needed = 0, uses_anonymous_args = 0
 429              		@ link register save eliminated.
 430              	.LVL19:
 431              		.loc 1 924 0
 432 0000 034B     		ldr	r3, .L50
 433 0002 9A68     		ldr	r2, [r3, #8]
 434              	.LVL20:
 435              		.loc 1 927 0
 436 0004 22F0EC62 		bic	r2, r2, #123731968
 437              	.LVL21:
 438              		.loc 1 930 0
 439 0008 1143     		orrs	r1, r1, r2
 440              	.LVL22:
 441 000a 0843     		orrs	r0, r0, r1
 442              	.LVL23:
 443              		.loc 1 933 0
 444 000c 9860     		str	r0, [r3, #8]
 445 000e 7047     		bx	lr
 446              	.L51:
 447              		.align	2
 448              	.L50:
 449 0010 00380240 		.word	1073887232
 450              		.cfi_endproc
 451              	.LFE123:
ARM GAS  /tmp/ccyJVbjO.s 			page 9


 452              		.size	RCC_MCO1Config, .-RCC_MCO1Config
 453 0014 AFF30080 		.section	.text.RCC_MCO2Config,"ax",%progbits
 453      AFF30080 
 453      AFF30080 
 454              		.align	2
 455              		.p2align 4,,15
 456              		.global	RCC_MCO2Config
 457              		.thumb
 458              		.thumb_func
 459              		.type	RCC_MCO2Config, %function
 460              	RCC_MCO2Config:
 461              	.LFB124:
 462              		.loc 1 962 0
 463              		.cfi_startproc
 464              		@ args = 0, pretend = 0, frame = 0
 465              		@ frame_needed = 0, uses_anonymous_args = 0
 466              		@ link register save eliminated.
 467              	.LVL24:
 468              		.loc 1 969 0
 469 0000 034B     		ldr	r3, .L53
 470 0002 9A68     		ldr	r2, [r3, #8]
 471              	.LVL25:
 472              		.loc 1 972 0
 473 0004 22F07842 		bic	r2, r2, #-134217728
 474              	.LVL26:
 475              		.loc 1 975 0
 476 0008 1143     		orrs	r1, r1, r2
 477              	.LVL27:
 478 000a 0843     		orrs	r0, r0, r1
 479              	.LVL28:
 480              		.loc 1 978 0
 481 000c 9860     		str	r0, [r3, #8]
 482 000e 7047     		bx	lr
 483              	.L54:
 484              		.align	2
 485              	.L53:
 486 0010 00380240 		.word	1073887232
 487              		.cfi_endproc
 488              	.LFE124:
 489              		.size	RCC_MCO2Config, .-RCC_MCO2Config
 490 0014 AFF30080 		.section	.text.RCC_SYSCLKConfig,"ax",%progbits
 490      AFF30080 
 490      AFF30080 
 491              		.align	2
 492              		.p2align 4,,15
 493              		.global	RCC_SYSCLKConfig
 494              		.thumb
 495              		.thumb_func
 496              		.type	RCC_SYSCLKConfig, %function
 497              	RCC_SYSCLKConfig:
 498              	.LFB125:
 499              		.loc 1 1162 0
 500              		.cfi_startproc
 501              		@ args = 0, pretend = 0, frame = 0
 502              		@ frame_needed = 0, uses_anonymous_args = 0
 503              		@ link register save eliminated.
 504              	.LVL29:
ARM GAS  /tmp/ccyJVbjO.s 			page 10


 505              		.loc 1 1168 0
 506 0000 034B     		ldr	r3, .L56
 507 0002 9A68     		ldr	r2, [r3, #8]
 508              	.LVL30:
 509              		.loc 1 1171 0
 510 0004 22F00302 		bic	r2, r2, #3
 511              	.LVL31:
 512              		.loc 1 1174 0
 513 0008 1043     		orrs	r0, r0, r2
 514              	.LVL32:
 515              		.loc 1 1177 0
 516 000a 9860     		str	r0, [r3, #8]
 517 000c 7047     		bx	lr
 518              	.L57:
 519 000e 00BF     		.align	2
 520              	.L56:
 521 0010 00380240 		.word	1073887232
 522              		.cfi_endproc
 523              	.LFE125:
 524              		.size	RCC_SYSCLKConfig, .-RCC_SYSCLKConfig
 525 0014 AFF30080 		.section	.text.RCC_GetSYSCLKSource,"ax",%progbits
 525      AFF30080 
 525      AFF30080 
 526              		.align	2
 527              		.p2align 4,,15
 528              		.global	RCC_GetSYSCLKSource
 529              		.thumb
 530              		.thumb_func
 531              		.type	RCC_GetSYSCLKSource, %function
 532              	RCC_GetSYSCLKSource:
 533              	.LFB126:
 534              		.loc 1 1191 0
 535              		.cfi_startproc
 536              		@ args = 0, pretend = 0, frame = 0
 537              		@ frame_needed = 0, uses_anonymous_args = 0
 538              		@ link register save eliminated.
 539              		.loc 1 1192 0
 540 0000 024B     		ldr	r3, .L59
 541 0002 9868     		ldr	r0, [r3, #8]
 542              		.loc 1 1193 0
 543 0004 00F00C00 		and	r0, r0, #12
 544 0008 7047     		bx	lr
 545              	.L60:
 546 000a 00BF     		.align	2
 547              	.L59:
 548 000c 00380240 		.word	1073887232
 549              		.cfi_endproc
 550              	.LFE126:
 551              		.size	RCC_GetSYSCLKSource, .-RCC_GetSYSCLKSource
 552              		.section	.text.RCC_HCLKConfig,"ax",%progbits
 553              		.align	2
 554              		.p2align 4,,15
 555              		.global	RCC_HCLKConfig
 556              		.thumb
 557              		.thumb_func
 558              		.type	RCC_HCLKConfig, %function
 559              	RCC_HCLKConfig:
ARM GAS  /tmp/ccyJVbjO.s 			page 11


 560              	.LFB127:
 561              		.loc 1 1216 0
 562              		.cfi_startproc
 563              		@ args = 0, pretend = 0, frame = 0
 564              		@ frame_needed = 0, uses_anonymous_args = 0
 565              		@ link register save eliminated.
 566              	.LVL33:
 567              		.loc 1 1222 0
 568 0000 034B     		ldr	r3, .L62
 569 0002 9A68     		ldr	r2, [r3, #8]
 570              	.LVL34:
 571              		.loc 1 1225 0
 572 0004 22F0F002 		bic	r2, r2, #240
 573              	.LVL35:
 574              		.loc 1 1228 0
 575 0008 1043     		orrs	r0, r0, r2
 576              	.LVL36:
 577              		.loc 1 1231 0
 578 000a 9860     		str	r0, [r3, #8]
 579 000c 7047     		bx	lr
 580              	.L63:
 581 000e 00BF     		.align	2
 582              	.L62:
 583 0010 00380240 		.word	1073887232
 584              		.cfi_endproc
 585              	.LFE127:
 586              		.size	RCC_HCLKConfig, .-RCC_HCLKConfig
 587 0014 AFF30080 		.section	.text.RCC_PCLK1Config,"ax",%progbits
 587      AFF30080 
 587      AFF30080 
 588              		.align	2
 589              		.p2align 4,,15
 590              		.global	RCC_PCLK1Config
 591              		.thumb
 592              		.thumb_func
 593              		.type	RCC_PCLK1Config, %function
 594              	RCC_PCLK1Config:
 595              	.LFB128:
 596              		.loc 1 1247 0
 597              		.cfi_startproc
 598              		@ args = 0, pretend = 0, frame = 0
 599              		@ frame_needed = 0, uses_anonymous_args = 0
 600              		@ link register save eliminated.
 601              	.LVL37:
 602              		.loc 1 1253 0
 603 0000 034B     		ldr	r3, .L65
 604 0002 9A68     		ldr	r2, [r3, #8]
 605              	.LVL38:
 606              		.loc 1 1256 0
 607 0004 22F4E052 		bic	r2, r2, #7168
 608              	.LVL39:
 609              		.loc 1 1259 0
 610 0008 1043     		orrs	r0, r0, r2
 611              	.LVL40:
 612              		.loc 1 1262 0
 613 000a 9860     		str	r0, [r3, #8]
 614 000c 7047     		bx	lr
ARM GAS  /tmp/ccyJVbjO.s 			page 12


 615              	.L66:
 616 000e 00BF     		.align	2
 617              	.L65:
 618 0010 00380240 		.word	1073887232
 619              		.cfi_endproc
 620              	.LFE128:
 621              		.size	RCC_PCLK1Config, .-RCC_PCLK1Config
 622 0014 AFF30080 		.section	.text.RCC_PCLK2Config,"ax",%progbits
 622      AFF30080 
 622      AFF30080 
 623              		.align	2
 624              		.p2align 4,,15
 625              		.global	RCC_PCLK2Config
 626              		.thumb
 627              		.thumb_func
 628              		.type	RCC_PCLK2Config, %function
 629              	RCC_PCLK2Config:
 630              	.LFB129:
 631              		.loc 1 1278 0
 632              		.cfi_startproc
 633              		@ args = 0, pretend = 0, frame = 0
 634              		@ frame_needed = 0, uses_anonymous_args = 0
 635              		@ link register save eliminated.
 636              	.LVL41:
 637              		.loc 1 1284 0
 638 0000 034B     		ldr	r3, .L68
 639 0002 9A68     		ldr	r2, [r3, #8]
 640              	.LVL42:
 641              		.loc 1 1287 0
 642 0004 22F46042 		bic	r2, r2, #57344
 643              	.LVL43:
 644              		.loc 1 1290 0
 645 0008 42EAC000 		orr	r0, r2, r0, lsl #3
 646              	.LVL44:
 647              		.loc 1 1293 0
 648 000c 9860     		str	r0, [r3, #8]
 649 000e 7047     		bx	lr
 650              	.L69:
 651              		.align	2
 652              	.L68:
 653 0010 00380240 		.word	1073887232
 654              		.cfi_endproc
 655              	.LFE129:
 656              		.size	RCC_PCLK2Config, .-RCC_PCLK2Config
 657 0014 AFF30080 		.section	.text.RCC_GetClocksFreq,"ax",%progbits
 657      AFF30080 
 657      AFF30080 
 658              		.align	2
 659              		.p2align 4,,15
 660              		.global	RCC_GetClocksFreq
 661              		.thumb
 662              		.thumb_func
 663              		.type	RCC_GetClocksFreq, %function
 664              	RCC_GetClocksFreq:
 665              	.LFB130:
 666              		.loc 1 1330 0
 667              		.cfi_startproc
ARM GAS  /tmp/ccyJVbjO.s 			page 13


 668              		@ args = 0, pretend = 0, frame = 0
 669              		@ frame_needed = 0, uses_anonymous_args = 0
 670              		@ link register save eliminated.
 671              	.LVL45:
 672              		.loc 1 1337 0
 673 0000 1F4A     		ldr	r2, .L79
 674 0002 9368     		ldr	r3, [r2, #8]
 675              	.LVL46:
 676 0004 03F00C03 		and	r3, r3, #12
 677              	.LVL47:
 678              		.loc 1 1339 0
 679 0008 042B     		cmp	r3, #4
 680              		.loc 1 1330 0
 681 000a 10B4     		push	{r4}
 682              		.cfi_def_cfa_offset 4
 683              		.cfi_offset 4, -4
 684              		.loc 1 1339 0
 685 000c 1BD0     		beq	.L72
 686 000e 082B     		cmp	r3, #8
 687 0010 1CD0     		beq	.L73
 688              		.loc 1 1395 0
 689 0012 1C4B     		ldr	r3, .L79+4
 690              	.LVL48:
 691 0014 0360     		str	r3, [r0]
 692              	.LVL49:
 693              	.L75:
 694              		.loc 1 1401 0
 695 0016 1A49     		ldr	r1, .L79
 696              		.loc 1 1403 0
 697 0018 1B4A     		ldr	r2, .L79+8
 698              		.loc 1 1401 0
 699 001a 8C68     		ldr	r4, [r1, #8]
 700              	.LVL50:
 701              		.loc 1 1402 0
 702 001c C4F30314 		ubfx	r4, r4, #4, #4
 703              	.LVL51:
 704              		.loc 1 1403 0
 705 0020 145D     		ldrb	r4, [r2, r4]	@ zero_extendqisi2
 706              	.LVL52:
 707              		.loc 1 1405 0
 708 0022 E340     		lsrs	r3, r3, r4
 709 0024 4360     		str	r3, [r0, #4]
 710              		.loc 1 1408 0
 711 0026 8C68     		ldr	r4, [r1, #8]
 712              	.LVL53:
 713              		.loc 1 1409 0
 714 0028 C4F38224 		ubfx	r4, r4, #10, #3
 715              	.LVL54:
 716              		.loc 1 1410 0
 717 002c 145D     		ldrb	r4, [r2, r4]	@ zero_extendqisi2
 718              	.LVL55:
 719              		.loc 1 1412 0
 720 002e 23FA04F4 		lsr	r4, r3, r4
 721              	.LVL56:
 722 0032 8460     		str	r4, [r0, #8]
 723              		.loc 1 1415 0
 724 0034 8968     		ldr	r1, [r1, #8]
ARM GAS  /tmp/ccyJVbjO.s 			page 14


 725              	.LVL57:
 726              		.loc 1 1420 0
 727 0036 5DF8044B 		ldr	r4, [sp], #4
 728              		.loc 1 1416 0
 729 003a C1F34231 		ubfx	r1, r1, #13, #3
 730              	.LVL58:
 731              		.loc 1 1417 0
 732 003e 525C     		ldrb	r2, [r2, r1]	@ zero_extendqisi2
 733              	.LVL59:
 734              		.loc 1 1419 0
 735 0040 D340     		lsrs	r3, r3, r2
 736 0042 C360     		str	r3, [r0, #12]
 737              		.loc 1 1420 0
 738 0044 7047     		bx	lr
 739              	.LVL60:
 740              	.L72:
 741              		.loc 1 1345 0
 742 0046 114B     		ldr	r3, .L79+12
 743              	.LVL61:
 744 0048 0360     		str	r3, [r0]
 745              		.loc 1 1346 0
 746 004a E4E7     		b	.L75
 747              	.LVL62:
 748              	.L73:
 749              		.loc 1 1352 0
 750 004c 5468     		ldr	r4, [r2, #4]
 751              	.LVL63:
 752              		.loc 1 1353 0
 753 004e 5168     		ldr	r1, [r2, #4]
 754              		.loc 1 1358 0
 755 0050 5268     		ldr	r2, [r2, #4]
 756              		.loc 1 1355 0
 757 0052 6302     		lsls	r3, r4, #9
 758              	.LVL64:
 759              		.loc 1 1358 0
 760 0054 4CBF     		ite	mi
 761 0056 0D4B     		ldrmi	r3, .L79+12
 762              		.loc 1 1363 0
 763 0058 0A4B     		ldrpl	r3, .L79+4
 764              		.loc 1 1353 0
 765 005a 01F03F01 		and	r1, r1, #63
 766              	.LVL65:
 767              		.loc 1 1363 0
 768 005e C2F38812 		ubfx	r2, r2, #6, #9
 769 0062 B3FBF1F3 		udiv	r3, r3, r1
 770 0066 03FB02F3 		mul	r3, r3, r2
 771              	.LVL66:
 772              		.loc 1 1366 0
 773 006a 054A     		ldr	r2, .L79
 774 006c 5268     		ldr	r2, [r2, #4]
 775              	.LVL67:
 776 006e C2F30142 		ubfx	r2, r2, #16, #2
 777              	.LVL68:
 778 0072 0132     		adds	r2, r2, #1
 779 0074 5200     		lsls	r2, r2, #1
 780              		.loc 1 1367 0
 781 0076 B3FBF2F3 		udiv	r3, r3, r2
ARM GAS  /tmp/ccyJVbjO.s 			page 15


 782              	.LVL69:
 783 007a 0360     		str	r3, [r0]
 784              		.loc 1 1368 0
 785 007c CBE7     		b	.L75
 786              	.L80:
 787 007e 00BF     		.align	2
 788              	.L79:
 789 0080 00380240 		.word	1073887232
 790 0084 0024F400 		.word	16000000
 791 0088 00000000 		.word	.LANCHOR0
 792 008c 00127A00 		.word	8000000
 793              		.cfi_endproc
 794              	.LFE130:
 795              		.size	RCC_GetClocksFreq, .-RCC_GetClocksFreq
 796              		.section	.text.RCC_RTCCLKConfig,"ax",%progbits
 797              		.align	2
 798              		.p2align 4,,15
 799              		.global	RCC_RTCCLKConfig
 800              		.thumb
 801              		.thumb_func
 802              		.type	RCC_RTCCLKConfig, %function
 803              	RCC_RTCCLKConfig:
 804              	.LFB131:
 805              		.loc 1 1483 0
 806              		.cfi_startproc
 807              		@ args = 0, pretend = 0, frame = 0
 808              		@ frame_needed = 0, uses_anonymous_args = 0
 809              		@ link register save eliminated.
 810              	.LVL70:
 811              		.loc 1 1489 0
 812 0000 00F44073 		and	r3, r0, #768
 813 0004 B3F5407F 		cmp	r3, #768
 814 0008 09D1     		bne	.L82
 815              		.loc 1 1491 0
 816 000a 084A     		ldr	r2, .L83
 817 000c 9168     		ldr	r1, [r2, #8]
 818              	.LVL71:
 819              		.loc 1 1497 0
 820 000e 20F07043 		bic	r3, r0, #-268435456
 821              		.loc 1 1494 0
 822 0012 21F4F811 		bic	r1, r1, #2031616
 823              	.LVL72:
 824              		.loc 1 1497 0
 825 0016 23F44073 		bic	r3, r3, #768
 826 001a 0B43     		orrs	r3, r3, r1
 827              	.LVL73:
 828              		.loc 1 1500 0
 829 001c 9360     		str	r3, [r2, #8]
 830              	.LVL74:
 831              	.L82:
 832              		.loc 1 1504 0
 833 001e 034B     		ldr	r3, .L83
 834 0020 1A6F     		ldr	r2, [r3, #112]
 835 0022 C0F30B00 		ubfx	r0, r0, #0, #12
 836              	.LVL75:
 837 0026 1043     		orrs	r0, r0, r2
 838 0028 1867     		str	r0, [r3, #112]
ARM GAS  /tmp/ccyJVbjO.s 			page 16


 839 002a 7047     		bx	lr
 840              	.L84:
 841              		.align	2
 842              	.L83:
 843 002c 00380240 		.word	1073887232
 844              		.cfi_endproc
 845              	.LFE131:
 846              		.size	RCC_RTCCLKConfig, .-RCC_RTCCLKConfig
 847              		.section	.text.RCC_RTCCLKCmd,"ax",%progbits
 848              		.align	2
 849              		.p2align 4,,15
 850              		.global	RCC_RTCCLKCmd
 851              		.thumb
 852              		.thumb_func
 853              		.type	RCC_RTCCLKCmd, %function
 854              	RCC_RTCCLKCmd:
 855              	.LFB132:
 856              		.loc 1 1515 0
 857              		.cfi_startproc
 858              		@ args = 0, pretend = 0, frame = 0
 859              		@ frame_needed = 0, uses_anonymous_args = 0
 860              		@ link register save eliminated.
 861              	.LVL76:
 862              		.loc 1 1519 0
 863 0000 014B     		ldr	r3, .L86
 864 0002 1860     		str	r0, [r3]
 865 0004 7047     		bx	lr
 866              	.L87:
 867 0006 00BF     		.align	2
 868              	.L86:
 869 0008 3C0E4742 		.word	1111952956
 870              		.cfi_endproc
 871              	.LFE132:
 872              		.size	RCC_RTCCLKCmd, .-RCC_RTCCLKCmd
 873 000c AFF30080 		.section	.text.RCC_BackupResetCmd,"ax",%progbits
 874              		.align	2
 875              		.p2align 4,,15
 876              		.global	RCC_BackupResetCmd
 877              		.thumb
 878              		.thumb_func
 879              		.type	RCC_BackupResetCmd, %function
 880              	RCC_BackupResetCmd:
 881              	.LFB133:
 882              		.loc 1 1532 0
 883              		.cfi_startproc
 884              		@ args = 0, pretend = 0, frame = 0
 885              		@ frame_needed = 0, uses_anonymous_args = 0
 886              		@ link register save eliminated.
 887              	.LVL77:
 888              		.loc 1 1535 0
 889 0000 014B     		ldr	r3, .L89
 890 0002 1860     		str	r0, [r3]
 891 0004 7047     		bx	lr
 892              	.L90:
 893 0006 00BF     		.align	2
 894              	.L89:
 895 0008 400E4742 		.word	1111952960
ARM GAS  /tmp/ccyJVbjO.s 			page 17


 896              		.cfi_endproc
 897              	.LFE133:
 898              		.size	RCC_BackupResetCmd, .-RCC_BackupResetCmd
 899 000c AFF30080 		.section	.text.RCC_TIMCLKPresConfig,"ax",%progbits
 900              		.align	2
 901              		.p2align 4,,15
 902              		.global	RCC_TIMCLKPresConfig
 903              		.thumb
 904              		.thumb_func
 905              		.type	RCC_TIMCLKPresConfig, %function
 906              	RCC_TIMCLKPresConfig:
 907              	.LFB134:
 908              		.loc 1 1756 0
 909              		.cfi_startproc
 910              		@ args = 0, pretend = 0, frame = 0
 911              		@ frame_needed = 0, uses_anonymous_args = 0
 912              		@ link register save eliminated.
 913              	.LVL78:
 914              		.loc 1 1760 0
 915 0000 014B     		ldr	r3, .L92
 916 0002 1860     		str	r0, [r3]
 917 0004 7047     		bx	lr
 918              	.L93:
 919 0006 00BF     		.align	2
 920              	.L92:
 921 0008 E0114742 		.word	1111953888
 922              		.cfi_endproc
 923              	.LFE134:
 924              		.size	RCC_TIMCLKPresConfig, .-RCC_TIMCLKPresConfig
 925 000c AFF30080 		.section	.text.RCC_AHB1PeriphClockCmd,"ax",%progbits
 926              		.align	2
 927              		.p2align 4,,15
 928              		.global	RCC_AHB1PeriphClockCmd
 929              		.thumb
 930              		.thumb_func
 931              		.type	RCC_AHB1PeriphClockCmd, %function
 932              	RCC_AHB1PeriphClockCmd:
 933              	.LFB135:
 934              		.loc 1 1798 0
 935              		.cfi_startproc
 936              		@ args = 0, pretend = 0, frame = 0
 937              		@ frame_needed = 0, uses_anonymous_args = 0
 938              		@ link register save eliminated.
 939              	.LVL79:
 940              		.loc 1 1805 0
 941 0000 044B     		ldr	r3, .L98
 942 0002 1A6B     		ldr	r2, [r3, #48]
 943              		.loc 1 1803 0
 944 0004 19B9     		cbnz	r1, .L97
 945              		.loc 1 1809 0
 946 0006 22EA0000 		bic	r0, r2, r0
 947              	.LVL80:
 948 000a 1863     		str	r0, [r3, #48]
 949 000c 7047     		bx	lr
 950              	.LVL81:
 951              	.L97:
 952              		.loc 1 1805 0
ARM GAS  /tmp/ccyJVbjO.s 			page 18


 953 000e 1043     		orrs	r0, r0, r2
 954              	.LVL82:
 955 0010 1863     		str	r0, [r3, #48]
 956 0012 7047     		bx	lr
 957              	.L99:
 958              		.align	2
 959              	.L98:
 960 0014 00380240 		.word	1073887232
 961              		.cfi_endproc
 962              	.LFE135:
 963              		.size	RCC_AHB1PeriphClockCmd, .-RCC_AHB1PeriphClockCmd
 964 0018 AFF30080 		.section	.text.RCC_AHB2PeriphClockCmd,"ax",%progbits
 964      AFF30080 
 965              		.align	2
 966              		.p2align 4,,15
 967              		.global	RCC_AHB2PeriphClockCmd
 968              		.thumb
 969              		.thumb_func
 970              		.type	RCC_AHB2PeriphClockCmd, %function
 971              	RCC_AHB2PeriphClockCmd:
 972              	.LFB136:
 973              		.loc 1 1830 0
 974              		.cfi_startproc
 975              		@ args = 0, pretend = 0, frame = 0
 976              		@ frame_needed = 0, uses_anonymous_args = 0
 977              		@ link register save eliminated.
 978              	.LVL83:
 979              		.loc 1 1837 0
 980 0000 044B     		ldr	r3, .L104
 981 0002 5A6B     		ldr	r2, [r3, #52]
 982              		.loc 1 1835 0
 983 0004 19B9     		cbnz	r1, .L103
 984              		.loc 1 1841 0
 985 0006 22EA0000 		bic	r0, r2, r0
 986              	.LVL84:
 987 000a 5863     		str	r0, [r3, #52]
 988 000c 7047     		bx	lr
 989              	.LVL85:
 990              	.L103:
 991              		.loc 1 1837 0
 992 000e 1043     		orrs	r0, r0, r2
 993              	.LVL86:
 994 0010 5863     		str	r0, [r3, #52]
 995 0012 7047     		bx	lr
 996              	.L105:
 997              		.align	2
 998              	.L104:
 999 0014 00380240 		.word	1073887232
 1000              		.cfi_endproc
 1001              	.LFE136:
 1002              		.size	RCC_AHB2PeriphClockCmd, .-RCC_AHB2PeriphClockCmd
 1003 0018 AFF30080 		.section	.text.RCC_APB1PeriphClockCmd,"ax",%progbits
 1003      AFF30080 
 1004              		.align	2
 1005              		.p2align 4,,15
 1006              		.global	RCC_APB1PeriphClockCmd
 1007              		.thumb
ARM GAS  /tmp/ccyJVbjO.s 			page 19


 1008              		.thumb_func
 1009              		.type	RCC_APB1PeriphClockCmd, %function
 1010              	RCC_APB1PeriphClockCmd:
 1011              	.LFB137:
 1012              		.loc 1 1917 0
 1013              		.cfi_startproc
 1014              		@ args = 0, pretend = 0, frame = 0
 1015              		@ frame_needed = 0, uses_anonymous_args = 0
 1016              		@ link register save eliminated.
 1017              	.LVL87:
 1018              		.loc 1 1924 0
 1019 0000 044B     		ldr	r3, .L110
 1020 0002 1A6C     		ldr	r2, [r3, #64]
 1021              		.loc 1 1922 0
 1022 0004 19B9     		cbnz	r1, .L109
 1023              		.loc 1 1928 0
 1024 0006 22EA0000 		bic	r0, r2, r0
 1025              	.LVL88:
 1026 000a 1864     		str	r0, [r3, #64]
 1027 000c 7047     		bx	lr
 1028              	.LVL89:
 1029              	.L109:
 1030              		.loc 1 1924 0
 1031 000e 1043     		orrs	r0, r0, r2
 1032              	.LVL90:
 1033 0010 1864     		str	r0, [r3, #64]
 1034 0012 7047     		bx	lr
 1035              	.L111:
 1036              		.align	2
 1037              	.L110:
 1038 0014 00380240 		.word	1073887232
 1039              		.cfi_endproc
 1040              	.LFE137:
 1041              		.size	RCC_APB1PeriphClockCmd, .-RCC_APB1PeriphClockCmd
 1042 0018 AFF30080 		.section	.text.RCC_APB2PeriphClockCmd,"ax",%progbits
 1042      AFF30080 
 1043              		.align	2
 1044              		.p2align 4,,15
 1045              		.global	RCC_APB2PeriphClockCmd
 1046              		.thumb
 1047              		.thumb_func
 1048              		.type	RCC_APB2PeriphClockCmd, %function
 1049              	RCC_APB2PeriphClockCmd:
 1050              	.LFB138:
 1051              		.loc 1 1964 0
 1052              		.cfi_startproc
 1053              		@ args = 0, pretend = 0, frame = 0
 1054              		@ frame_needed = 0, uses_anonymous_args = 0
 1055              		@ link register save eliminated.
 1056              	.LVL91:
 1057              		.loc 1 1971 0
 1058 0000 044B     		ldr	r3, .L116
 1059 0002 5A6C     		ldr	r2, [r3, #68]
 1060              		.loc 1 1969 0
 1061 0004 19B9     		cbnz	r1, .L115
 1062              		.loc 1 1975 0
 1063 0006 22EA0000 		bic	r0, r2, r0
ARM GAS  /tmp/ccyJVbjO.s 			page 20


 1064              	.LVL92:
 1065 000a 5864     		str	r0, [r3, #68]
 1066 000c 7047     		bx	lr
 1067              	.LVL93:
 1068              	.L115:
 1069              		.loc 1 1971 0
 1070 000e 1043     		orrs	r0, r0, r2
 1071              	.LVL94:
 1072 0010 5864     		str	r0, [r3, #68]
 1073 0012 7047     		bx	lr
 1074              	.L117:
 1075              		.align	2
 1076              	.L116:
 1077 0014 00380240 		.word	1073887232
 1078              		.cfi_endproc
 1079              	.LFE138:
 1080              		.size	RCC_APB2PeriphClockCmd, .-RCC_APB2PeriphClockCmd
 1081 0018 AFF30080 		.section	.text.RCC_AHB1PeriphResetCmd,"ax",%progbits
 1081      AFF30080 
 1082              		.align	2
 1083              		.p2align 4,,15
 1084              		.global	RCC_AHB1PeriphResetCmd
 1085              		.thumb
 1086              		.thumb_func
 1087              		.type	RCC_AHB1PeriphResetCmd, %function
 1088              	RCC_AHB1PeriphResetCmd:
 1089              	.LFB139:
 1090              		.loc 1 2007 0
 1091              		.cfi_startproc
 1092              		@ args = 0, pretend = 0, frame = 0
 1093              		@ frame_needed = 0, uses_anonymous_args = 0
 1094              		@ link register save eliminated.
 1095              	.LVL95:
 1096              		.loc 1 2014 0
 1097 0000 044B     		ldr	r3, .L122
 1098 0002 1A69     		ldr	r2, [r3, #16]
 1099              		.loc 1 2012 0
 1100 0004 19B9     		cbnz	r1, .L121
 1101              		.loc 1 2018 0
 1102 0006 22EA0000 		bic	r0, r2, r0
 1103              	.LVL96:
 1104 000a 1861     		str	r0, [r3, #16]
 1105 000c 7047     		bx	lr
 1106              	.LVL97:
 1107              	.L121:
 1108              		.loc 1 2014 0
 1109 000e 1043     		orrs	r0, r0, r2
 1110              	.LVL98:
 1111 0010 1861     		str	r0, [r3, #16]
 1112 0012 7047     		bx	lr
 1113              	.L123:
 1114              		.align	2
 1115              	.L122:
 1116 0014 00380240 		.word	1073887232
 1117              		.cfi_endproc
 1118              	.LFE139:
 1119              		.size	RCC_AHB1PeriphResetCmd, .-RCC_AHB1PeriphResetCmd
ARM GAS  /tmp/ccyJVbjO.s 			page 21


 1120 0018 AFF30080 		.section	.text.RCC_AHB2PeriphResetCmd,"ax",%progbits
 1120      AFF30080 
 1121              		.align	2
 1122              		.p2align 4,,15
 1123              		.global	RCC_AHB2PeriphResetCmd
 1124              		.thumb
 1125              		.thumb_func
 1126              		.type	RCC_AHB2PeriphResetCmd, %function
 1127              	RCC_AHB2PeriphResetCmd:
 1128              	.LFB140:
 1129              		.loc 1 2036 0
 1130              		.cfi_startproc
 1131              		@ args = 0, pretend = 0, frame = 0
 1132              		@ frame_needed = 0, uses_anonymous_args = 0
 1133              		@ link register save eliminated.
 1134              	.LVL99:
 1135              		.loc 1 2043 0
 1136 0000 044B     		ldr	r3, .L128
 1137 0002 5A69     		ldr	r2, [r3, #20]
 1138              		.loc 1 2041 0
 1139 0004 19B9     		cbnz	r1, .L127
 1140              		.loc 1 2047 0
 1141 0006 22EA0000 		bic	r0, r2, r0
 1142              	.LVL100:
 1143 000a 5861     		str	r0, [r3, #20]
 1144 000c 7047     		bx	lr
 1145              	.LVL101:
 1146              	.L127:
 1147              		.loc 1 2043 0
 1148 000e 1043     		orrs	r0, r0, r2
 1149              	.LVL102:
 1150 0010 5861     		str	r0, [r3, #20]
 1151 0012 7047     		bx	lr
 1152              	.L129:
 1153              		.align	2
 1154              	.L128:
 1155 0014 00380240 		.word	1073887232
 1156              		.cfi_endproc
 1157              	.LFE140:
 1158              		.size	RCC_AHB2PeriphResetCmd, .-RCC_AHB2PeriphResetCmd
 1159 0018 AFF30080 		.section	.text.RCC_APB1PeriphResetCmd,"ax",%progbits
 1159      AFF30080 
 1160              		.align	2
 1161              		.p2align 4,,15
 1162              		.global	RCC_APB1PeriphResetCmd
 1163              		.thumb
 1164              		.thumb_func
 1165              		.type	RCC_APB1PeriphResetCmd, %function
 1166              	RCC_APB1PeriphResetCmd:
 1167              	.LFB141:
 1168              		.loc 1 2117 0
 1169              		.cfi_startproc
 1170              		@ args = 0, pretend = 0, frame = 0
 1171              		@ frame_needed = 0, uses_anonymous_args = 0
 1172              		@ link register save eliminated.
 1173              	.LVL103:
 1174              		.loc 1 2123 0
ARM GAS  /tmp/ccyJVbjO.s 			page 22


 1175 0000 044B     		ldr	r3, .L134
 1176 0002 1A6A     		ldr	r2, [r3, #32]
 1177              		.loc 1 2121 0
 1178 0004 19B9     		cbnz	r1, .L133
 1179              		.loc 1 2127 0
 1180 0006 22EA0000 		bic	r0, r2, r0
 1181              	.LVL104:
 1182 000a 1862     		str	r0, [r3, #32]
 1183 000c 7047     		bx	lr
 1184              	.LVL105:
 1185              	.L133:
 1186              		.loc 1 2123 0
 1187 000e 1043     		orrs	r0, r0, r2
 1188              	.LVL106:
 1189 0010 1862     		str	r0, [r3, #32]
 1190 0012 7047     		bx	lr
 1191              	.L135:
 1192              		.align	2
 1193              	.L134:
 1194 0014 00380240 		.word	1073887232
 1195              		.cfi_endproc
 1196              	.LFE141:
 1197              		.size	RCC_APB1PeriphResetCmd, .-RCC_APB1PeriphResetCmd
 1198 0018 AFF30080 		.section	.text.RCC_APB2PeriphResetCmd,"ax",%progbits
 1198      AFF30080 
 1199              		.align	2
 1200              		.p2align 4,,15
 1201              		.global	RCC_APB2PeriphResetCmd
 1202              		.thumb
 1203              		.thumb_func
 1204              		.type	RCC_APB2PeriphResetCmd, %function
 1205              	RCC_APB2PeriphResetCmd:
 1206              	.LFB142:
 1207              		.loc 1 2160 0
 1208              		.cfi_startproc
 1209              		@ args = 0, pretend = 0, frame = 0
 1210              		@ frame_needed = 0, uses_anonymous_args = 0
 1211              		@ link register save eliminated.
 1212              	.LVL107:
 1213              		.loc 1 2166 0
 1214 0000 044B     		ldr	r3, .L140
 1215 0002 5A6A     		ldr	r2, [r3, #36]
 1216              		.loc 1 2164 0
 1217 0004 19B9     		cbnz	r1, .L139
 1218              		.loc 1 2170 0
 1219 0006 22EA0000 		bic	r0, r2, r0
 1220              	.LVL108:
 1221 000a 5862     		str	r0, [r3, #36]
 1222 000c 7047     		bx	lr
 1223              	.LVL109:
 1224              	.L139:
 1225              		.loc 1 2166 0
 1226 000e 1043     		orrs	r0, r0, r2
 1227              	.LVL110:
 1228 0010 5862     		str	r0, [r3, #36]
 1229 0012 7047     		bx	lr
 1230              	.L141:
ARM GAS  /tmp/ccyJVbjO.s 			page 23


 1231              		.align	2
 1232              	.L140:
 1233 0014 00380240 		.word	1073887232
 1234              		.cfi_endproc
 1235              	.LFE142:
 1236              		.size	RCC_APB2PeriphResetCmd, .-RCC_APB2PeriphResetCmd
 1237 0018 AFF30080 		.section	.text.RCC_AHB1PeriphClockLPModeCmd,"ax",%progbits
 1237      AFF30080 
 1238              		.align	2
 1239              		.p2align 4,,15
 1240              		.global	RCC_AHB1PeriphClockLPModeCmd
 1241              		.thumb
 1242              		.thumb_func
 1243              		.type	RCC_AHB1PeriphClockLPModeCmd, %function
 1244              	RCC_AHB1PeriphClockLPModeCmd:
 1245              	.LFB143:
 1246              		.loc 1 2209 0
 1247              		.cfi_startproc
 1248              		@ args = 0, pretend = 0, frame = 0
 1249              		@ frame_needed = 0, uses_anonymous_args = 0
 1250              		@ link register save eliminated.
 1251              	.LVL111:
 1252              		.loc 1 2215 0
 1253 0000 044B     		ldr	r3, .L146
 1254 0002 1A6D     		ldr	r2, [r3, #80]
 1255              		.loc 1 2213 0
 1256 0004 19B9     		cbnz	r1, .L145
 1257              		.loc 1 2219 0
 1258 0006 22EA0000 		bic	r0, r2, r0
 1259              	.LVL112:
 1260 000a 1865     		str	r0, [r3, #80]
 1261 000c 7047     		bx	lr
 1262              	.LVL113:
 1263              	.L145:
 1264              		.loc 1 2215 0
 1265 000e 1043     		orrs	r0, r0, r2
 1266              	.LVL114:
 1267 0010 1865     		str	r0, [r3, #80]
 1268 0012 7047     		bx	lr
 1269              	.L147:
 1270              		.align	2
 1271              	.L146:
 1272 0014 00380240 		.word	1073887232
 1273              		.cfi_endproc
 1274              	.LFE143:
 1275              		.size	RCC_AHB1PeriphClockLPModeCmd, .-RCC_AHB1PeriphClockLPModeCmd
 1276 0018 AFF30080 		.section	.text.RCC_AHB2PeriphClockLPModeCmd,"ax",%progbits
 1276      AFF30080 
 1277              		.align	2
 1278              		.p2align 4,,15
 1279              		.global	RCC_AHB2PeriphClockLPModeCmd
 1280              		.thumb
 1281              		.thumb_func
 1282              		.type	RCC_AHB2PeriphClockLPModeCmd, %function
 1283              	RCC_AHB2PeriphClockLPModeCmd:
 1284              	.LFB144:
 1285              		.loc 1 2241 0
ARM GAS  /tmp/ccyJVbjO.s 			page 24


 1286              		.cfi_startproc
 1287              		@ args = 0, pretend = 0, frame = 0
 1288              		@ frame_needed = 0, uses_anonymous_args = 0
 1289              		@ link register save eliminated.
 1290              	.LVL115:
 1291              		.loc 1 2247 0
 1292 0000 044B     		ldr	r3, .L152
 1293 0002 5A6D     		ldr	r2, [r3, #84]
 1294              		.loc 1 2245 0
 1295 0004 19B9     		cbnz	r1, .L151
 1296              		.loc 1 2251 0
 1297 0006 22EA0000 		bic	r0, r2, r0
 1298              	.LVL116:
 1299 000a 5865     		str	r0, [r3, #84]
 1300 000c 7047     		bx	lr
 1301              	.LVL117:
 1302              	.L151:
 1303              		.loc 1 2247 0
 1304 000e 1043     		orrs	r0, r0, r2
 1305              	.LVL118:
 1306 0010 5865     		str	r0, [r3, #84]
 1307 0012 7047     		bx	lr
 1308              	.L153:
 1309              		.align	2
 1310              	.L152:
 1311 0014 00380240 		.word	1073887232
 1312              		.cfi_endproc
 1313              	.LFE144:
 1314              		.size	RCC_AHB2PeriphClockLPModeCmd, .-RCC_AHB2PeriphClockLPModeCmd
 1315 0018 AFF30080 		.section	.text.RCC_APB1PeriphClockLPModeCmd,"ax",%progbits
 1315      AFF30080 
 1316              		.align	2
 1317              		.p2align 4,,15
 1318              		.global	RCC_APB1PeriphClockLPModeCmd
 1319              		.thumb
 1320              		.thumb_func
 1321              		.type	RCC_APB1PeriphClockLPModeCmd, %function
 1322              	RCC_APB1PeriphClockLPModeCmd:
 1323              	.LFB145:
 1324              		.loc 1 2328 0
 1325              		.cfi_startproc
 1326              		@ args = 0, pretend = 0, frame = 0
 1327              		@ frame_needed = 0, uses_anonymous_args = 0
 1328              		@ link register save eliminated.
 1329              	.LVL119:
 1330              		.loc 1 2334 0
 1331 0000 044B     		ldr	r3, .L158
 1332 0002 1A6E     		ldr	r2, [r3, #96]
 1333              		.loc 1 2332 0
 1334 0004 19B9     		cbnz	r1, .L157
 1335              		.loc 1 2338 0
 1336 0006 22EA0000 		bic	r0, r2, r0
 1337              	.LVL120:
 1338 000a 1866     		str	r0, [r3, #96]
 1339 000c 7047     		bx	lr
 1340              	.LVL121:
 1341              	.L157:
ARM GAS  /tmp/ccyJVbjO.s 			page 25


 1342              		.loc 1 2334 0
 1343 000e 1043     		orrs	r0, r0, r2
 1344              	.LVL122:
 1345 0010 1866     		str	r0, [r3, #96]
 1346 0012 7047     		bx	lr
 1347              	.L159:
 1348              		.align	2
 1349              	.L158:
 1350 0014 00380240 		.word	1073887232
 1351              		.cfi_endproc
 1352              	.LFE145:
 1353              		.size	RCC_APB1PeriphClockLPModeCmd, .-RCC_APB1PeriphClockLPModeCmd
 1354 0018 AFF30080 		.section	.text.RCC_APB2PeriphClockLPModeCmd,"ax",%progbits
 1354      AFF30080 
 1355              		.align	2
 1356              		.p2align 4,,15
 1357              		.global	RCC_APB2PeriphClockLPModeCmd
 1358              		.thumb
 1359              		.thumb_func
 1360              		.type	RCC_APB2PeriphClockLPModeCmd, %function
 1361              	RCC_APB2PeriphClockLPModeCmd:
 1362              	.LFB146:
 1363              		.loc 1 2375 0
 1364              		.cfi_startproc
 1365              		@ args = 0, pretend = 0, frame = 0
 1366              		@ frame_needed = 0, uses_anonymous_args = 0
 1367              		@ link register save eliminated.
 1368              	.LVL123:
 1369              		.loc 1 2381 0
 1370 0000 044B     		ldr	r3, .L164
 1371 0002 5A6E     		ldr	r2, [r3, #100]
 1372              		.loc 1 2379 0
 1373 0004 19B9     		cbnz	r1, .L163
 1374              		.loc 1 2385 0
 1375 0006 22EA0000 		bic	r0, r2, r0
 1376              	.LVL124:
 1377 000a 5866     		str	r0, [r3, #100]
 1378 000c 7047     		bx	lr
 1379              	.LVL125:
 1380              	.L163:
 1381              		.loc 1 2381 0
 1382 000e 1043     		orrs	r0, r0, r2
 1383              	.LVL126:
 1384 0010 5866     		str	r0, [r3, #100]
 1385 0012 7047     		bx	lr
 1386              	.L165:
 1387              		.align	2
 1388              	.L164:
 1389 0014 00380240 		.word	1073887232
 1390              		.cfi_endproc
 1391              	.LFE146:
 1392              		.size	RCC_APB2PeriphClockLPModeCmd, .-RCC_APB2PeriphClockLPModeCmd
 1393 0018 AFF30080 		.section	.text.RCC_LSEModeConfig,"ax",%progbits
 1393      AFF30080 
 1394              		.align	2
 1395              		.p2align 4,,15
 1396              		.global	RCC_LSEModeConfig
ARM GAS  /tmp/ccyJVbjO.s 			page 26


 1397              		.thumb
 1398              		.thumb_func
 1399              		.type	RCC_LSEModeConfig, %function
 1400              	RCC_LSEModeConfig:
 1401              	.LFB147:
 1402              		.loc 1 2399 0
 1403              		.cfi_startproc
 1404              		@ args = 0, pretend = 0, frame = 0
 1405              		@ frame_needed = 0, uses_anonymous_args = 0
 1406              		@ link register save eliminated.
 1407              	.LVL127:
 1408              		.loc 1 2405 0
 1409 0000 044B     		ldr	r3, .L169
 1410 0002 1A6F     		ldr	r2, [r3, #112]
 1411              		.loc 1 2403 0
 1412 0004 0128     		cmp	r0, #1
 1413              		.loc 1 2405 0
 1414 0006 0CBF     		ite	eq
 1415 0008 42F00802 		orreq	r2, r2, #8
 1416              		.loc 1 2409 0
 1417 000c 22F00802 		bicne	r2, r2, #8
 1418 0010 1A67     		str	r2, [r3, #112]
 1419 0012 7047     		bx	lr
 1420              	.L170:
 1421              		.align	2
 1422              	.L169:
 1423 0014 00380240 		.word	1073887232
 1424              		.cfi_endproc
 1425              	.LFE147:
 1426              		.size	RCC_LSEModeConfig, .-RCC_LSEModeConfig
 1427 0018 AFF30080 		.section	.text.RCC_ITConfig,"ax",%progbits
 1427      AFF30080 
 1428              		.align	2
 1429              		.p2align 4,,15
 1430              		.global	RCC_ITConfig
 1431              		.thumb
 1432              		.thumb_func
 1433              		.type	RCC_ITConfig, %function
 1434              	RCC_ITConfig:
 1435              	.LFB148:
 1436              		.loc 1 2701 0
 1437              		.cfi_startproc
 1438              		@ args = 0, pretend = 0, frame = 0
 1439              		@ frame_needed = 0, uses_anonymous_args = 0
 1440              		@ link register save eliminated.
 1441              	.LVL128:
 1442              		.loc 1 2708 0
 1443 0000 044B     		ldr	r3, .L175
 1444 0002 1A78     		ldrb	r2, [r3]	@ zero_extendqisi2
 1445              		.loc 1 2705 0
 1446 0004 19B9     		cbnz	r1, .L174
 1447              		.loc 1 2713 0
 1448 0006 22EA0000 		bic	r0, r2, r0
 1449              	.LVL129:
 1450 000a 1870     		strb	r0, [r3]
 1451 000c 7047     		bx	lr
 1452              	.LVL130:
ARM GAS  /tmp/ccyJVbjO.s 			page 27


 1453              	.L174:
 1454              		.loc 1 2708 0
 1455 000e 1043     		orrs	r0, r0, r2
 1456              	.LVL131:
 1457 0010 1870     		strb	r0, [r3]
 1458 0012 7047     		bx	lr
 1459              	.L176:
 1460              		.align	2
 1461              	.L175:
 1462 0014 0D380240 		.word	1073887245
 1463              		.cfi_endproc
 1464              	.LFE148:
 1465              		.size	RCC_ITConfig, .-RCC_ITConfig
 1466 0018 AFF30080 		.section	.text.RCC_GetFlagStatus,"ax",%progbits
 1466      AFF30080 
 1467              		.align	2
 1468              		.p2align 4,,15
 1469              		.global	RCC_GetFlagStatus
 1470              		.thumb
 1471              		.thumb_func
 1472              		.type	RCC_GetFlagStatus, %function
 1473              	RCC_GetFlagStatus:
 1474              	.LFB149:
 1475              		.loc 1 2738 0
 1476              		.cfi_startproc
 1477              		@ args = 0, pretend = 0, frame = 0
 1478              		@ frame_needed = 0, uses_anonymous_args = 0
 1479              		@ link register save eliminated.
 1480              	.LVL132:
 1481              		.loc 1 2747 0
 1482 0000 4309     		lsrs	r3, r0, #5
 1483              	.LVL133:
 1484              		.loc 1 2748 0
 1485 0002 012B     		cmp	r3, #1
 1486 0004 0BD0     		beq	.L181
 1487              		.loc 1 2752 0
 1488 0006 022B     		cmp	r3, #2
 1489              		.loc 1 2754 0
 1490 0008 094B     		ldr	r3, .L182
 1491              	.LVL134:
 1492 000a 0CBF     		ite	eq
 1493 000c 1B6F     		ldreq	r3, [r3, #112]
 1494              	.LVL135:
 1495              		.loc 1 2758 0
 1496 000e 5B6F     		ldrne	r3, [r3, #116]
 1497              	.LVL136:
 1498              		.loc 1 2763 0
 1499 0010 00F01F00 		and	r0, r0, #31
 1500              	.LVL137:
 1501 0014 23FA00F0 		lsr	r0, r3, r0
 1502              		.loc 1 2773 0
 1503 0018 00F00100 		and	r0, r0, #1
 1504 001c 7047     		bx	lr
 1505              	.LVL138:
 1506              	.L181:
 1507              		.loc 1 2750 0
 1508 001e 044B     		ldr	r3, .L182
ARM GAS  /tmp/ccyJVbjO.s 			page 28


 1509              	.LVL139:
 1510 0020 1B68     		ldr	r3, [r3]
 1511              	.LVL140:
 1512              		.loc 1 2763 0
 1513 0022 00F01F00 		and	r0, r0, #31
 1514              	.LVL141:
 1515 0026 23FA00F0 		lsr	r0, r3, r0
 1516              		.loc 1 2773 0
 1517 002a 00F00100 		and	r0, r0, #1
 1518 002e 7047     		bx	lr
 1519              	.L183:
 1520              		.align	2
 1521              	.L182:
 1522 0030 00380240 		.word	1073887232
 1523              		.cfi_endproc
 1524              	.LFE149:
 1525              		.size	RCC_GetFlagStatus, .-RCC_GetFlagStatus
 1526 0034 AFF30080 		.section	.text.RCC_ClearFlag,"ax",%progbits
 1526      AFF30080 
 1526      AFF30080 
 1527              		.align	2
 1528              		.p2align 4,,15
 1529              		.global	RCC_ClearFlag
 1530              		.thumb
 1531              		.thumb_func
 1532              		.type	RCC_ClearFlag, %function
 1533              	RCC_ClearFlag:
 1534              	.LFB150:
 1535              		.loc 1 2783 0
 1536              		.cfi_startproc
 1537              		@ args = 0, pretend = 0, frame = 0
 1538              		@ frame_needed = 0, uses_anonymous_args = 0
 1539              		@ link register save eliminated.
 1540              		.loc 1 2785 0
 1541 0000 024B     		ldr	r3, .L185
 1542 0002 5A6F     		ldr	r2, [r3, #116]
 1543 0004 42F08072 		orr	r2, r2, #16777216
 1544 0008 5A67     		str	r2, [r3, #116]
 1545 000a 7047     		bx	lr
 1546              	.L186:
 1547              		.align	2
 1548              	.L185:
 1549 000c 00380240 		.word	1073887232
 1550              		.cfi_endproc
 1551              	.LFE150:
 1552              		.size	RCC_ClearFlag, .-RCC_ClearFlag
 1553              		.section	.text.RCC_GetITStatus,"ax",%progbits
 1554              		.align	2
 1555              		.p2align 4,,15
 1556              		.global	RCC_GetITStatus
 1557              		.thumb
 1558              		.thumb_func
 1559              		.type	RCC_GetITStatus, %function
 1560              	RCC_GetITStatus:
 1561              	.LFB151:
 1562              		.loc 1 2803 0
 1563              		.cfi_startproc
ARM GAS  /tmp/ccyJVbjO.s 			page 29


 1564              		@ args = 0, pretend = 0, frame = 0
 1565              		@ frame_needed = 0, uses_anonymous_args = 0
 1566              		@ link register save eliminated.
 1567              	.LVL142:
 1568              		.loc 1 2810 0
 1569 0000 034B     		ldr	r3, .L188
 1570 0002 DB68     		ldr	r3, [r3, #12]
 1571              	.LVL143:
 1572 0004 1842     		tst	r0, r3
 1573              		.loc 1 2820 0
 1574 0006 0CBF     		ite	eq
 1575 0008 0020     		moveq	r0, #0
 1576 000a 0120     		movne	r0, #1
 1577              	.LVL144:
 1578 000c 7047     		bx	lr
 1579              	.L189:
 1580 000e 00BF     		.align	2
 1581              	.L188:
 1582 0010 00380240 		.word	1073887232
 1583              		.cfi_endproc
 1584              	.LFE151:
 1585              		.size	RCC_GetITStatus, .-RCC_GetITStatus
 1586 0014 AFF30080 		.section	.text.RCC_ClearITPendingBit,"ax",%progbits
 1586      AFF30080 
 1586      AFF30080 
 1587              		.align	2
 1588              		.p2align 4,,15
 1589              		.global	RCC_ClearITPendingBit
 1590              		.thumb
 1591              		.thumb_func
 1592              		.type	RCC_ClearITPendingBit, %function
 1593              	RCC_ClearITPendingBit:
 1594              	.LFB152:
 1595              		.loc 1 2837 0
 1596              		.cfi_startproc
 1597              		@ args = 0, pretend = 0, frame = 0
 1598              		@ frame_needed = 0, uses_anonymous_args = 0
 1599              		@ link register save eliminated.
 1600              	.LVL145:
 1601              		.loc 1 2843 0
 1602 0000 014B     		ldr	r3, .L191
 1603 0002 1870     		strb	r0, [r3]
 1604 0004 7047     		bx	lr
 1605              	.L192:
 1606 0006 00BF     		.align	2
 1607              	.L191:
 1608 0008 0E380240 		.word	1073887246
 1609              		.cfi_endproc
 1610              	.LFE152:
 1611              		.size	RCC_ClearITPendingBit, .-RCC_ClearITPendingBit
 1612 000c AFF30080 		.section	.data.APBAHBPrescTable,"aw",%progbits
 1613              		.align	2
 1614              		.set	.LANCHOR0,. + 0
 1615              		.type	APBAHBPrescTable, %object
 1616              		.size	APBAHBPrescTable, 16
 1617              	APBAHBPrescTable:
 1618 0000 00       		.byte	0
ARM GAS  /tmp/ccyJVbjO.s 			page 30


 1619 0001 00       		.byte	0
 1620 0002 00       		.byte	0
 1621 0003 00       		.byte	0
 1622 0004 01       		.byte	1
 1623 0005 02       		.byte	2
 1624 0006 03       		.byte	3
 1625 0007 04       		.byte	4
 1626 0008 01       		.byte	1
 1627 0009 02       		.byte	2
 1628 000a 03       		.byte	3
 1629 000b 04       		.byte	4
 1630 000c 06       		.byte	6
 1631 000d 07       		.byte	7
 1632 000e 08       		.byte	8
 1633 000f 09       		.byte	9
 1634              		.text
 1635              	.Letext0:
 1636              		.file 2 "/usr/include/newlib/machine/_default_types.h"
 1637              		.file 3 "/usr/include/newlib/stdint.h"
 1638              		.file 4 "ChibiOS_3.0.2/os/ext/CMSIS/ST/stm32f407xx.h"
 1639              		.file 5 "ChibiOS_3.0.2/os/ext/CMSIS/ST/stm32f4xx.h"
 1640              		.file 6 "ChibiOS_3.0.2/ext/stdperiph_stm32f4/inc/stm32f4xx_rcc.h"
 1641              		.file 7 "ChibiOS_3.0.2/os/ext/CMSIS/include/core_cm4.h"