ARM GAS  /tmp/ccTSMd8X.s 			page 1


   1              		.syntax unified
   2              		.cpu cortex-m4
   3              		.eabi_attribute 27, 3
   4              		.eabi_attribute 28, 1
   5              		.fpu fpv4-sp-d16
   6              		.eabi_attribute 20, 1
   7              		.eabi_attribute 21, 1
   8              		.eabi_attribute 23, 3
   9              		.eabi_attribute 24, 1
  10              		.eabi_attribute 25, 1
  11              		.eabi_attribute 26, 1
  12              		.eabi_attribute 30, 2
  13              		.eabi_attribute 34, 1
  14              		.eabi_attribute 18, 4
  15              		.thumb
  16              		.file	"stm32f4xx_syscfg.c"
  17              		.text
  18              	.Ltext0:
  19              		.cfi_sections	.debug_frame
  20              		.section	.text.SYSCFG_DeInit,"ax",%progbits
  21              		.align	2
  22              		.p2align 4,,15
  23              		.global	SYSCFG_DeInit
  24              		.thumb
  25              		.thumb_func
  26              		.type	SYSCFG_DeInit, %function
  27              	SYSCFG_DeInit:
  28              	.LFB112:
  29              		.file 1 "ChibiOS_3.0.2/ext/stdperiph_stm32f4/src/stm32f4xx_syscfg.c"
  30              		.loc 1 104 0
  31              		.cfi_startproc
  32              		@ args = 0, pretend = 0, frame = 0
  33              		@ frame_needed = 0, uses_anonymous_args = 0
  34 0000 08B5     		push	{r3, lr}
  35              		.cfi_def_cfa_offset 8
  36              		.cfi_offset 3, -8
  37              		.cfi_offset 14, -4
  38              		.loc 1 105 0
  39 0002 4FF48040 		mov	r0, #16384
  40 0006 0121     		movs	r1, #1
  41 0008 FFF7FEFF 		bl	RCC_APB2PeriphResetCmd
  42              	.LVL0:
  43              		.loc 1 106 0
  44 000c 4FF48040 		mov	r0, #16384
  45 0010 0021     		movs	r1, #0
  46              		.loc 1 107 0
  47 0012 BDE80840 		pop	{r3, lr}
  48              		.loc 1 106 0
  49 0016 FFF7FEBF 		b	RCC_APB2PeriphResetCmd
  50              	.LVL1:
  51              		.cfi_endproc
  52              	.LFE112:
  53              		.size	SYSCFG_DeInit, .-SYSCFG_DeInit
  54 001a 00BFAFF3 		.section	.text.SYSCFG_MemoryRemapConfig,"ax",%progbits
  54      0080
  55              		.align	2
  56              		.p2align 4,,15
ARM GAS  /tmp/ccTSMd8X.s 			page 2


  57              		.global	SYSCFG_MemoryRemapConfig
  58              		.thumb
  59              		.thumb_func
  60              		.type	SYSCFG_MemoryRemapConfig, %function
  61              	SYSCFG_MemoryRemapConfig:
  62              	.LFB113:
  63              		.loc 1 123 0
  64              		.cfi_startproc
  65              		@ args = 0, pretend = 0, frame = 0
  66              		@ frame_needed = 0, uses_anonymous_args = 0
  67              		@ link register save eliminated.
  68              	.LVL2:
  69              		.loc 1 127 0
  70 0000 014B     		ldr	r3, .L3
  71 0002 1860     		str	r0, [r3]
  72 0004 7047     		bx	lr
  73              	.L4:
  74 0006 00BF     		.align	2
  75              	.L3:
  76 0008 00380140 		.word	1073821696
  77              		.cfi_endproc
  78              	.LFE113:
  79              		.size	SYSCFG_MemoryRemapConfig, .-SYSCFG_MemoryRemapConfig
  80 000c AFF30080 		.section	.text.SYSCFG_MemorySwappingBank,"ax",%progbits
  81              		.align	2
  82              		.p2align 4,,15
  83              		.global	SYSCFG_MemorySwappingBank
  84              		.thumb
  85              		.thumb_func
  86              		.type	SYSCFG_MemorySwappingBank, %function
  87              	SYSCFG_MemorySwappingBank:
  88              	.LFB114:
  89              		.loc 1 144 0
  90              		.cfi_startproc
  91              		@ args = 0, pretend = 0, frame = 0
  92              		@ frame_needed = 0, uses_anonymous_args = 0
  93              		@ link register save eliminated.
  94              	.LVL3:
  95              		.loc 1 148 0
  96 0000 014B     		ldr	r3, .L6
  97 0002 1860     		str	r0, [r3]
  98 0004 7047     		bx	lr
  99              	.L7:
 100 0006 00BF     		.align	2
 101              	.L6:
 102 0008 20002742 		.word	1109852192
 103              		.cfi_endproc
 104              	.LFE114:
 105              		.size	SYSCFG_MemorySwappingBank, .-SYSCFG_MemorySwappingBank
 106 000c AFF30080 		.section	.text.SYSCFG_EXTILineConfig,"ax",%progbits
 107              		.align	2
 108              		.p2align 4,,15
 109              		.global	SYSCFG_EXTILineConfig
 110              		.thumb
 111              		.thumb_func
 112              		.type	SYSCFG_EXTILineConfig, %function
 113              	SYSCFG_EXTILineConfig:
ARM GAS  /tmp/ccTSMd8X.s 			page 3


 114              	.LFB115:
 115              		.loc 1 167 0
 116              		.cfi_startproc
 117              		@ args = 0, pretend = 0, frame = 0
 118              		@ frame_needed = 0, uses_anonymous_args = 0
 119              		@ link register save eliminated.
 120              	.LVL4:
 121 0000 01F0FC03 		and	r3, r1, #252
 122 0004 03F18043 		add	r3, r3, #1073741824
 123 0008 03F59C33 		add	r3, r3, #79872
 124              		.loc 1 174 0
 125 000c 01F00301 		and	r1, r1, #3
 126              	.LVL5:
 127              		.loc 1 167 0
 128 0010 10B4     		push	{r4}
 129              		.cfi_def_cfa_offset 4
 130              		.cfi_offset 4, -4
 131              		.loc 1 174 0
 132 0012 8900     		lsls	r1, r1, #2
 133              	.LVL6:
 134              		.loc 1 175 0
 135 0014 9C68     		ldr	r4, [r3, #8]
 136              		.loc 1 174 0
 137 0016 0F22     		movs	r2, #15
 138 0018 8A40     		lsls	r2, r2, r1
 139              	.LVL7:
 140              		.loc 1 175 0
 141 001a 24EA0202 		bic	r2, r4, r2
 142              	.LVL8:
 143 001e 9A60     		str	r2, [r3, #8]
 144              		.loc 1 176 0
 145 0020 9A68     		ldr	r2, [r3, #8]
 146              		.loc 1 177 0
 147 0022 5DF8044B 		ldr	r4, [sp], #4
 148              		.loc 1 176 0
 149 0026 8840     		lsls	r0, r0, r1
 150              	.LVL9:
 151 0028 0243     		orrs	r2, r2, r0
 152 002a 9A60     		str	r2, [r3, #8]
 153              		.loc 1 177 0
 154 002c 7047     		bx	lr
 155              		.cfi_endproc
 156              	.LFE115:
 157              		.size	SYSCFG_EXTILineConfig, .-SYSCFG_EXTILineConfig
 158 002e 00BF     		.section	.text.SYSCFG_ETH_MediaInterfaceConfig,"ax",%progbits
 159              		.align	2
 160              		.p2align 4,,15
 161              		.global	SYSCFG_ETH_MediaInterfaceConfig
 162              		.thumb
 163              		.thumb_func
 164              		.type	SYSCFG_ETH_MediaInterfaceConfig, %function
 165              	SYSCFG_ETH_MediaInterfaceConfig:
 166              	.LFB116:
 167              		.loc 1 188 0
 168              		.cfi_startproc
 169              		@ args = 0, pretend = 0, frame = 0
 170              		@ frame_needed = 0, uses_anonymous_args = 0
ARM GAS  /tmp/ccTSMd8X.s 			page 4


 171              		@ link register save eliminated.
 172              	.LVL10:
 173              		.loc 1 191 0
 174 0000 014B     		ldr	r3, .L10
 175 0002 1860     		str	r0, [r3]
 176 0004 7047     		bx	lr
 177              	.L11:
 178 0006 00BF     		.align	2
 179              	.L10:
 180 0008 DC002742 		.word	1109852380
 181              		.cfi_endproc
 182              	.LFE116:
 183              		.size	SYSCFG_ETH_MediaInterfaceConfig, .-SYSCFG_ETH_MediaInterfaceConfig
 184 000c AFF30080 		.section	.text.SYSCFG_CompensationCellCmd,"ax",%progbits
 185              		.align	2
 186              		.p2align 4,,15
 187              		.global	SYSCFG_CompensationCellCmd
 188              		.thumb
 189              		.thumb_func
 190              		.type	SYSCFG_CompensationCellCmd, %function
 191              	SYSCFG_CompensationCellCmd:
 192              	.LFB117:
 193              		.loc 1 205 0
 194              		.cfi_startproc
 195              		@ args = 0, pretend = 0, frame = 0
 196              		@ frame_needed = 0, uses_anonymous_args = 0
 197              		@ link register save eliminated.
 198              	.LVL11:
 199              		.loc 1 209 0
 200 0000 014B     		ldr	r3, .L13
 201 0002 1860     		str	r0, [r3]
 202 0004 7047     		bx	lr
 203              	.L14:
 204 0006 00BF     		.align	2
 205              	.L13:
 206 0008 00042742 		.word	1109853184
 207              		.cfi_endproc
 208              	.LFE117:
 209              		.size	SYSCFG_CompensationCellCmd, .-SYSCFG_CompensationCellCmd
 210 000c AFF30080 		.section	.text.SYSCFG_GetCompensationCellStatus,"ax",%progbits
 211              		.align	2
 212              		.p2align 4,,15
 213              		.global	SYSCFG_GetCompensationCellStatus
 214              		.thumb
 215              		.thumb_func
 216              		.type	SYSCFG_GetCompensationCellStatus, %function
 217              	SYSCFG_GetCompensationCellStatus:
 218              	.LFB118:
 219              		.loc 1 218 0
 220              		.cfi_startproc
 221              		@ args = 0, pretend = 0, frame = 0
 222              		@ frame_needed = 0, uses_anonymous_args = 0
 223              		@ link register save eliminated.
 224              	.LVL12:
 225              		.loc 1 221 0
 226 0000 024B     		ldr	r3, .L16
 227 0002 186A     		ldr	r0, [r3, #32]
ARM GAS  /tmp/ccTSMd8X.s 			page 5


 228              	.LVL13:
 229              		.loc 1 230 0
 230 0004 C0F30020 		ubfx	r0, r0, #8, #1
 231              	.LVL14:
 232 0008 7047     		bx	lr
 233              	.L17:
 234 000a 00BF     		.align	2
 235              	.L16:
 236 000c 00380140 		.word	1073821696
 237              		.cfi_endproc
 238              	.LFE118:
 239              		.size	SYSCFG_GetCompensationCellStatus, .-SYSCFG_GetCompensationCellStatus
 240              		.text
 241              	.Letext0:
 242              		.file 2 "/usr/include/newlib/machine/_default_types.h"
 243              		.file 3 "/usr/include/newlib/stdint.h"
 244              		.file 4 "ChibiOS_3.0.2/os/ext/CMSIS/ST/stm32f407xx.h"
 245              		.file 5 "ChibiOS_3.0.2/os/ext/CMSIS/ST/stm32f4xx.h"
 246              		.file 6 "ChibiOS_3.0.2/os/ext/CMSIS/include/core_cm4.h"
 247              		.file 7 "ChibiOS_3.0.2/ext/stdperiph_stm32f4/inc/stm32f4xx_rcc.h"