ARM GAS  /tmp/ccqRxWEk.s 			page 1


   1              		.syntax unified
   2              		.cpu cortex-m4
   3              		.eabi_attribute 27, 3
   4              		.eabi_attribute 28, 1
   5              		.fpu fpv4-sp-d16
   6              		.eabi_attribute 20, 1
   7              		.eabi_attribute 21, 1
   8              		.eabi_attribute 23, 3
   9              		.eabi_attribute 24, 1
  10              		.eabi_attribute 25, 1
  11              		.eabi_attribute 26, 1
  12              		.eabi_attribute 30, 2
  13              		.eabi_attribute 34, 1
  14              		.eabi_attribute 18, 4
  15              		.thumb
  16              		.file	"stm32f4xx_adc.c"
  17              		.text
  18              	.Ltext0:
  19              		.cfi_sections	.debug_frame
  20              		.section	.text.ADC_DeInit,"ax",%progbits
  21              		.align	2
  22              		.p2align 4,,15
  23              		.global	ADC_DeInit
  24              		.thumb
  25              		.thumb_func
  26              		.type	ADC_DeInit, %function
  27              	ADC_DeInit:
  28              	.LFB112:
  29              		.file 1 "ChibiOS_3.0.2/ext/stdperiph_stm32f4/src/stm32f4xx_adc.c"
  30              		.loc 1 218 0
  31              		.cfi_startproc
  32              		@ args = 0, pretend = 0, frame = 0
  33              		@ frame_needed = 0, uses_anonymous_args = 0
  34 0000 08B5     		push	{r3, lr}
  35              		.cfi_def_cfa_offset 8
  36              		.cfi_offset 3, -8
  37              		.cfi_offset 14, -4
  38              		.loc 1 220 0
  39 0002 4FF48070 		mov	r0, #256
  40 0006 0121     		movs	r1, #1
  41 0008 FFF7FEFF 		bl	RCC_APB2PeriphResetCmd
  42              	.LVL0:
  43              		.loc 1 223 0
  44 000c 4FF48070 		mov	r0, #256
  45 0010 0021     		movs	r1, #0
  46              		.loc 1 224 0
  47 0012 BDE80840 		pop	{r3, lr}
  48              		.loc 1 223 0
  49 0016 FFF7FEBF 		b	RCC_APB2PeriphResetCmd
  50              	.LVL1:
  51              		.cfi_endproc
  52              	.LFE112:
  53              		.size	ADC_DeInit, .-ADC_DeInit
  54 001a 00BFAFF3 		.section	.text.ADC_Init,"ax",%progbits
  54      0080
  55              		.align	2
  56              		.p2align 4,,15
ARM GAS  /tmp/ccqRxWEk.s 			page 2


  57              		.global	ADC_Init
  58              		.thumb
  59              		.thumb_func
  60              		.type	ADC_Init, %function
  61              	ADC_Init:
  62              	.LFB113:
  63              		.loc 1 240 0
  64              		.cfi_startproc
  65              		@ args = 0, pretend = 0, frame = 0
  66              		@ frame_needed = 0, uses_anonymous_args = 0
  67              		@ link register save eliminated.
  68              	.LVL2:
  69              		.loc 1 255 0
  70 0000 4268     		ldr	r2, [r0, #4]
  71              	.LVL3:
  72              		.loc 1 280 0
  73 0002 D1F80CC0 		ldr	ip, [r1, #12]
  74              		.loc 1 272 0
  75 0006 134B     		ldr	r3, .L3
  76              		.loc 1 240 0
  77 0008 2DE9F001 		push	{r4, r5, r6, r7, r8}
  78              		.cfi_def_cfa_offset 20
  79              		.cfi_offset 4, -20
  80              		.cfi_offset 5, -16
  81              		.cfi_offset 6, -12
  82              		.cfi_offset 7, -8
  83              		.cfi_offset 8, -4
  84              		.loc 1 258 0
  85 000c 22F04072 		bic	r2, r2, #50331648
  86              	.LVL4:
  87              		.loc 1 263 0
  88 0010 0C68     		ldr	r4, [r1]
  89 0012 91F80480 		ldrb	r8, [r1, #4]	@ zero_extendqisi2
  90              		.loc 1 280 0
  91 0016 0F69     		ldr	r7, [r1, #16]
  92              		.loc 1 281 0
  93 0018 8E68     		ldr	r6, [r1, #8]
  94              		.loc 1 283 0
  95 001a 4D79     		ldrb	r5, [r1, #5]	@ zero_extendqisi2
  96              		.loc 1 258 0
  97 001c 22F48072 		bic	r2, r2, #256
  98              		.loc 1 263 0
  99 0020 2243     		orrs	r2, r2, r4
 100 0022 42EA0822 		orr	r2, r2, r8, lsl #8
 101              	.LVL5:
 102              		.loc 1 266 0
 103 0026 4260     		str	r2, [r0, #4]
 104              		.loc 1 269 0
 105 0028 8468     		ldr	r4, [r0, #8]
 106              	.LVL6:
 107              		.loc 1 280 0
 108 002a 4CEA0702 		orr	r2, ip, r7
 109              		.loc 1 281 0
 110 002e 3243     		orrs	r2, r2, r6
 111              		.loc 1 272 0
 112 0030 2340     		ands	r3, r3, r4
 113              	.LVL7:
ARM GAS  /tmp/ccqRxWEk.s 			page 3


 114              		.loc 1 280 0
 115 0032 1343     		orrs	r3, r3, r2
 116              	.LVL8:
 117 0034 43EA4503 		orr	r3, r3, r5, lsl #1
 118              	.LVL9:
 119              		.loc 1 286 0
 120 0038 8360     		str	r3, [r0, #8]
 121              		.loc 1 296 0
 122 003a 0B7D     		ldrb	r3, [r1, #20]	@ zero_extendqisi2
 123              	.LVL10:
 124              		.loc 1 289 0
 125 003c C26A     		ldr	r2, [r0, #44]
 126              	.LVL11:
 127              		.loc 1 296 0
 128 003e 013B     		subs	r3, r3, #1
 129              		.loc 1 297 0
 130 0040 DBB2     		uxtb	r3, r3
 131              		.loc 1 292 0
 132 0042 22F47002 		bic	r2, r2, #15728640
 133              	.LVL12:
 134              		.loc 1 297 0
 135 0046 42EA0353 		orr	r3, r2, r3, lsl #20
 136              	.LVL13:
 137              		.loc 1 300 0
 138 004a C362     		str	r3, [r0, #44]
 139              	.LVL14:
 140              		.loc 1 301 0
 141 004c BDE8F001 		pop	{r4, r5, r6, r7, r8}
 142 0050 7047     		bx	lr
 143              	.L4:
 144 0052 00BF     		.align	2
 145              	.L3:
 146 0054 FDF7FFC0 		.word	-1056966659
 147              		.cfi_endproc
 148              	.LFE113:
 149              		.size	ADC_Init, .-ADC_Init
 150 0058 AFF30080 		.section	.text.ADC_StructInit,"ax",%progbits
 150      AFF30080 
 151              		.align	2
 152              		.p2align 4,,15
 153              		.global	ADC_StructInit
 154              		.thumb
 155              		.thumb_func
 156              		.type	ADC_StructInit, %function
 157              	ADC_StructInit:
 158              	.LFB114:
 159              		.loc 1 315 0
 160              		.cfi_startproc
 161              		@ args = 0, pretend = 0, frame = 0
 162              		@ frame_needed = 0, uses_anonymous_args = 0
 163              		@ link register save eliminated.
 164              	.LVL15:
 165              		.loc 1 317 0
 166 0000 0023     		movs	r3, #0
 167              		.loc 1 335 0
 168 0002 0122     		movs	r2, #1
 169 0004 0275     		strb	r2, [r0, #20]
ARM GAS  /tmp/ccqRxWEk.s 			page 4


 170              		.loc 1 317 0
 171 0006 0360     		str	r3, [r0]
 172              		.loc 1 320 0
 173 0008 0371     		strb	r3, [r0, #4]
 174              		.loc 1 323 0
 175 000a 4371     		strb	r3, [r0, #5]
 176              		.loc 1 326 0
 177 000c 8360     		str	r3, [r0, #8]
 178              		.loc 1 329 0
 179 000e C360     		str	r3, [r0, #12]
 180              		.loc 1 332 0
 181 0010 0361     		str	r3, [r0, #16]
 182 0012 7047     		bx	lr
 183              		.cfi_endproc
 184              	.LFE114:
 185              		.size	ADC_StructInit, .-ADC_StructInit
 186 0014 AFF30080 		.section	.text.ADC_CommonInit,"ax",%progbits
 186      AFF30080 
 186      AFF30080 
 187              		.align	2
 188              		.p2align 4,,15
 189              		.global	ADC_CommonInit
 190              		.thumb
 191              		.thumb_func
 192              		.type	ADC_CommonInit, %function
 193              	ADC_CommonInit:
 194              	.LFB115:
 195              		.loc 1 346 0
 196              		.cfi_startproc
 197              		@ args = 0, pretend = 0, frame = 0
 198              		@ frame_needed = 0, uses_anonymous_args = 0
 199              		@ link register save eliminated.
 200              	.LVL16:
 201 0000 70B4     		push	{r4, r5, r6}
 202              		.cfi_def_cfa_offset 12
 203              		.cfi_offset 4, -12
 204              		.cfi_offset 5, -8
 205              		.cfi_offset 6, -4
 206              		.loc 1 366 0
 207 0002 90E84200 		ldmia	r0, {r1, r6}
 208              		.loc 1 355 0
 209 0006 064A     		ldr	r2, .L7
 210              		.loc 1 367 0
 211 0008 8568     		ldr	r5, [r0, #8]
 212              		.loc 1 366 0
 213 000a C468     		ldr	r4, [r0, #12]
 214              		.loc 1 358 0
 215 000c 054B     		ldr	r3, .L7+4
 216              		.loc 1 355 0
 217 000e 5068     		ldr	r0, [r2, #4]
 218              	.LVL17:
 219              		.loc 1 366 0
 220 0010 3143     		orrs	r1, r1, r6
 221              		.loc 1 367 0
 222 0012 2943     		orrs	r1, r1, r5
 223              		.loc 1 366 0
 224 0014 2143     		orrs	r1, r1, r4
ARM GAS  /tmp/ccqRxWEk.s 			page 5


 225              		.loc 1 358 0
 226 0016 0340     		ands	r3, r3, r0
 227              	.LVL18:
 228              		.loc 1 366 0
 229 0018 0B43     		orrs	r3, r3, r1
 230              	.LVL19:
 231              		.loc 1 372 0
 232 001a 5360     		str	r3, [r2, #4]
 233              		.loc 1 373 0
 234 001c 70BC     		pop	{r4, r5, r6}
 235 001e 7047     		bx	lr
 236              	.L8:
 237              		.align	2
 238              	.L7:
 239 0020 00230140 		.word	1073816320
 240 0024 E030FCFF 		.word	-249632
 241              		.cfi_endproc
 242              	.LFE115:
 243              		.size	ADC_CommonInit, .-ADC_CommonInit
 244 0028 AFF30080 		.section	.text.ADC_CommonStructInit,"ax",%progbits
 244      AFF30080 
 245              		.align	2
 246              		.p2align 4,,15
 247              		.global	ADC_CommonStructInit
 248              		.thumb
 249              		.thumb_func
 250              		.type	ADC_CommonStructInit, %function
 251              	ADC_CommonStructInit:
 252              	.LFB116:
 253              		.loc 1 382 0
 254              		.cfi_startproc
 255              		@ args = 0, pretend = 0, frame = 0
 256              		@ frame_needed = 0, uses_anonymous_args = 0
 257              		@ link register save eliminated.
 258              	.LVL20:
 259              		.loc 1 384 0
 260 0000 0023     		movs	r3, #0
 261 0002 0360     		str	r3, [r0]
 262              		.loc 1 387 0
 263 0004 4360     		str	r3, [r0, #4]
 264              		.loc 1 390 0
 265 0006 8360     		str	r3, [r0, #8]
 266              		.loc 1 393 0
 267 0008 C360     		str	r3, [r0, #12]
 268 000a 7047     		bx	lr
 269              		.cfi_endproc
 270              	.LFE116:
 271              		.size	ADC_CommonStructInit, .-ADC_CommonStructInit
 272 000c AFF30080 		.section	.text.ADC_Cmd,"ax",%progbits
 273              		.align	2
 274              		.p2align 4,,15
 275              		.global	ADC_Cmd
 276              		.thumb
 277              		.thumb_func
 278              		.type	ADC_Cmd, %function
 279              	ADC_Cmd:
 280              	.LFB117:
ARM GAS  /tmp/ccqRxWEk.s 			page 6


 281              		.loc 1 404 0
 282              		.cfi_startproc
 283              		@ args = 0, pretend = 0, frame = 0
 284              		@ frame_needed = 0, uses_anonymous_args = 0
 285              		@ link register save eliminated.
 286              	.LVL21:
 287              		.loc 1 411 0
 288 0000 8368     		ldr	r3, [r0, #8]
 289              		.loc 1 408 0
 290 0002 19B9     		cbnz	r1, .L14
 291              		.loc 1 416 0
 292 0004 23F00103 		bic	r3, r3, #1
 293 0008 8360     		str	r3, [r0, #8]
 294 000a 7047     		bx	lr
 295              	.L14:
 296              		.loc 1 411 0
 297 000c 43F00103 		orr	r3, r3, #1
 298 0010 8360     		str	r3, [r0, #8]
 299 0012 7047     		bx	lr
 300              		.cfi_endproc
 301              	.LFE117:
 302              		.size	ADC_Cmd, .-ADC_Cmd
 303 0014 AFF30080 		.section	.text.ADC_AnalogWatchdogCmd,"ax",%progbits
 303      AFF30080 
 303      AFF30080 
 304              		.align	2
 305              		.p2align 4,,15
 306              		.global	ADC_AnalogWatchdogCmd
 307              		.thumb
 308              		.thumb_func
 309              		.type	ADC_AnalogWatchdogCmd, %function
 310              	ADC_AnalogWatchdogCmd:
 311              	.LFB118:
 312              		.loc 1 460 0
 313              		.cfi_startproc
 314              		@ args = 0, pretend = 0, frame = 0
 315              		@ frame_needed = 0, uses_anonymous_args = 0
 316              		@ link register save eliminated.
 317              	.LVL22:
 318              		.loc 1 467 0
 319 0000 4368     		ldr	r3, [r0, #4]
 320              	.LVL23:
 321              		.loc 1 470 0
 322 0002 23F44003 		bic	r3, r3, #12582912
 323              	.LVL24:
 324 0006 23F40073 		bic	r3, r3, #512
 325              	.LVL25:
 326              		.loc 1 473 0
 327 000a 1943     		orrs	r1, r1, r3
 328              	.LVL26:
 329              		.loc 1 476 0
 330 000c 4160     		str	r1, [r0, #4]
 331 000e 7047     		bx	lr
 332              		.cfi_endproc
 333              	.LFE118:
 334              		.size	ADC_AnalogWatchdogCmd, .-ADC_AnalogWatchdogCmd
 335              		.section	.text.ADC_AnalogWatchdogThresholdsConfig,"ax",%progbits
ARM GAS  /tmp/ccqRxWEk.s 			page 7


 336              		.align	2
 337              		.p2align 4,,15
 338              		.global	ADC_AnalogWatchdogThresholdsConfig
 339              		.thumb
 340              		.thumb_func
 341              		.type	ADC_AnalogWatchdogThresholdsConfig, %function
 342              	ADC_AnalogWatchdogThresholdsConfig:
 343              	.LFB119:
 344              		.loc 1 490 0
 345              		.cfi_startproc
 346              		@ args = 0, pretend = 0, frame = 0
 347              		@ frame_needed = 0, uses_anonymous_args = 0
 348              		@ link register save eliminated.
 349              	.LVL27:
 350              		.loc 1 497 0
 351 0000 4162     		str	r1, [r0, #36]
 352              		.loc 1 500 0
 353 0002 8262     		str	r2, [r0, #40]
 354 0004 7047     		bx	lr
 355              		.cfi_endproc
 356              	.LFE119:
 357              		.size	ADC_AnalogWatchdogThresholdsConfig, .-ADC_AnalogWatchdogThresholdsConfig
 358 0006 00BFAFF3 		.section	.text.ADC_AnalogWatchdogSingleChannelConfig,"ax",%progbits
 358      0080AFF3 
 358      0080
 359              		.align	2
 360              		.p2align 4,,15
 361              		.global	ADC_AnalogWatchdogSingleChannelConfig
 362              		.thumb
 363              		.thumb_func
 364              		.type	ADC_AnalogWatchdogSingleChannelConfig, %function
 365              	ADC_AnalogWatchdogSingleChannelConfig:
 366              	.LFB120:
 367              		.loc 1 530 0
 368              		.cfi_startproc
 369              		@ args = 0, pretend = 0, frame = 0
 370              		@ frame_needed = 0, uses_anonymous_args = 0
 371              		@ link register save eliminated.
 372              	.LVL28:
 373              		.loc 1 537 0
 374 0000 4368     		ldr	r3, [r0, #4]
 375              	.LVL29:
 376              		.loc 1 540 0
 377 0002 23F01F03 		bic	r3, r3, #31
 378              	.LVL30:
 379              		.loc 1 543 0
 380 0006 1943     		orrs	r1, r1, r3
 381              	.LVL31:
 382              		.loc 1 546 0
 383 0008 4160     		str	r1, [r0, #4]
 384 000a 7047     		bx	lr
 385              		.cfi_endproc
 386              	.LFE120:
 387              		.size	ADC_AnalogWatchdogSingleChannelConfig, .-ADC_AnalogWatchdogSingleChannelConfig
 388 000c AFF30080 		.section	.text.ADC_TempSensorVrefintCmd,"ax",%progbits
 389              		.align	2
 390              		.p2align 4,,15
ARM GAS  /tmp/ccqRxWEk.s 			page 8


 391              		.global	ADC_TempSensorVrefintCmd
 392              		.thumb
 393              		.thumb_func
 394              		.type	ADC_TempSensorVrefintCmd, %function
 395              	ADC_TempSensorVrefintCmd:
 396              	.LFB121:
 397              		.loc 1 594 0
 398              		.cfi_startproc
 399              		@ args = 0, pretend = 0, frame = 0
 400              		@ frame_needed = 0, uses_anonymous_args = 0
 401              		@ link register save eliminated.
 402              	.LVL32:
 403              		.loc 1 600 0
 404 0000 054B     		ldr	r3, .L22
 405 0002 5A68     		ldr	r2, [r3, #4]
 406              		.loc 1 597 0
 407 0004 18B9     		cbnz	r0, .L21
 408              		.loc 1 605 0
 409 0006 22F40002 		bic	r2, r2, #8388608
 410 000a 5A60     		str	r2, [r3, #4]
 411 000c 7047     		bx	lr
 412              	.L21:
 413              		.loc 1 600 0
 414 000e 42F40002 		orr	r2, r2, #8388608
 415 0012 5A60     		str	r2, [r3, #4]
 416 0014 7047     		bx	lr
 417              	.L23:
 418 0016 00BF     		.align	2
 419              	.L22:
 420 0018 00230140 		.word	1073816320
 421              		.cfi_endproc
 422              	.LFE121:
 423              		.size	ADC_TempSensorVrefintCmd, .-ADC_TempSensorVrefintCmd
 424 001c AFF30080 		.section	.text.ADC_VBATCmd,"ax",%progbits
 425              		.align	2
 426              		.p2align 4,,15
 427              		.global	ADC_VBATCmd
 428              		.thumb
 429              		.thumb_func
 430              		.type	ADC_VBATCmd, %function
 431              	ADC_VBATCmd:
 432              	.LFB122:
 433              		.loc 1 620 0
 434              		.cfi_startproc
 435              		@ args = 0, pretend = 0, frame = 0
 436              		@ frame_needed = 0, uses_anonymous_args = 0
 437              		@ link register save eliminated.
 438              	.LVL33:
 439              		.loc 1 626 0
 440 0000 054B     		ldr	r3, .L28
 441 0002 5A68     		ldr	r2, [r3, #4]
 442              		.loc 1 623 0
 443 0004 18B9     		cbnz	r0, .L27
 444              		.loc 1 631 0
 445 0006 22F48002 		bic	r2, r2, #4194304
 446 000a 5A60     		str	r2, [r3, #4]
 447 000c 7047     		bx	lr
ARM GAS  /tmp/ccqRxWEk.s 			page 9


 448              	.L27:
 449              		.loc 1 626 0
 450 000e 42F48002 		orr	r2, r2, #4194304
 451 0012 5A60     		str	r2, [r3, #4]
 452 0014 7047     		bx	lr
 453              	.L29:
 454 0016 00BF     		.align	2
 455              	.L28:
 456 0018 00230140 		.word	1073816320
 457              		.cfi_endproc
 458              	.LFE122:
 459              		.size	ADC_VBATCmd, .-ADC_VBATCmd
 460 001c AFF30080 		.section	.text.ADC_RegularChannelConfig,"ax",%progbits
 461              		.align	2
 462              		.p2align 4,,15
 463              		.global	ADC_RegularChannelConfig
 464              		.thumb
 465              		.thumb_func
 466              		.type	ADC_RegularChannelConfig, %function
 467              	ADC_RegularChannelConfig:
 468              	.LFB123:
 469              		.loc 1 720 0
 470              		.cfi_startproc
 471              		@ args = 0, pretend = 0, frame = 0
 472              		@ frame_needed = 0, uses_anonymous_args = 0
 473              		@ link register save eliminated.
 474              	.LVL34:
 475              		.loc 1 729 0
 476 0000 0929     		cmp	r1, #9
 477              		.loc 1 720 0
 478 0002 70B4     		push	{r4, r5, r6}
 479              		.cfi_def_cfa_offset 12
 480              		.cfi_offset 4, -12
 481              		.cfi_offset 5, -8
 482              		.cfi_offset 6, -4
 483              		.loc 1 729 0
 484 0004 1ED9     		bls	.L31
 485              		.loc 1 735 0
 486 0006 A1F10A04 		sub	r4, r1, #10
 487 000a 04EB4404 		add	r4, r4, r4, lsl #1
 488              		.loc 1 732 0
 489 000e C568     		ldr	r5, [r0, #12]
 490              	.LVL35:
 491              		.loc 1 735 0
 492 0010 0726     		movs	r6, #7
 493 0012 A640     		lsls	r6, r6, r4
 494              	.LVL36:
 495              		.loc 1 741 0
 496 0014 03FA04F4 		lsl	r4, r3, r4
 497              		.loc 1 738 0
 498 0018 25EA0603 		bic	r3, r5, r6
 499              	.LVL37:
 500              		.loc 1 744 0
 501 001c 2343     		orrs	r3, r3, r4
 502              	.LVL38:
 503              		.loc 1 770 0
 504 001e 062A     		cmp	r2, #6
ARM GAS  /tmp/ccqRxWEk.s 			page 10


 505              		.loc 1 747 0
 506 0020 C360     		str	r3, [r0, #12]
 507              		.loc 1 770 0
 508 0022 1CD9     		bls	.L36
 509              	.L33:
 510              		.loc 1 791 0
 511 0024 0C2A     		cmp	r2, #12
 512 0026 28D9     		bls	.L37
 513              		.loc 1 818 0
 514 0028 0D3A     		subs	r2, r2, #13
 515              	.LVL39:
 516              		.loc 1 815 0
 517 002a C46A     		ldr	r4, [r0, #44]
 518              	.LVL40:
 519              		.loc 1 818 0
 520 002c 02EB8202 		add	r2, r2, r2, lsl #2
 521              	.LVL41:
 522 0030 1F23     		movs	r3, #31
 523 0032 9340     		lsls	r3, r3, r2
 524              	.LVL42:
 525              		.loc 1 821 0
 526 0034 24EA0303 		bic	r3, r4, r3
 527              	.LVL43:
 528              		.loc 1 824 0
 529 0038 01FA02F2 		lsl	r2, r1, r2
 530              	.LVL44:
 531              		.loc 1 827 0
 532 003c 1A43     		orrs	r2, r2, r3
 533              	.LVL45:
 534              		.loc 1 830 0
 535 003e C262     		str	r2, [r0, #44]
 536              		.loc 1 832 0
 537 0040 70BC     		pop	{r4, r5, r6}
 538 0042 7047     		bx	lr
 539              	.LVL46:
 540              	.L31:
 541              		.loc 1 755 0
 542 0044 01EB4104 		add	r4, r1, r1, lsl #1
 543              		.loc 1 752 0
 544 0048 0569     		ldr	r5, [r0, #16]
 545              	.LVL47:
 546              		.loc 1 755 0
 547 004a 0726     		movs	r6, #7
 548 004c A640     		lsls	r6, r6, r4
 549              	.LVL48:
 550              		.loc 1 761 0
 551 004e 03FA04F4 		lsl	r4, r3, r4
 552              		.loc 1 758 0
 553 0052 25EA0603 		bic	r3, r5, r6
 554              	.LVL49:
 555              		.loc 1 764 0
 556 0056 2343     		orrs	r3, r3, r4
 557              	.LVL50:
 558              		.loc 1 770 0
 559 0058 062A     		cmp	r2, #6
 560              		.loc 1 767 0
 561 005a 0361     		str	r3, [r0, #16]
ARM GAS  /tmp/ccqRxWEk.s 			page 11


 562              		.loc 1 770 0
 563 005c E2D8     		bhi	.L33
 564              	.L36:
 565              		.loc 1 776 0
 566 005e 013A     		subs	r2, r2, #1
 567              	.LVL51:
 568              		.loc 1 773 0
 569 0060 446B     		ldr	r4, [r0, #52]
 570              	.LVL52:
 571              		.loc 1 776 0
 572 0062 02EB8202 		add	r2, r2, r2, lsl #2
 573              	.LVL53:
 574 0066 1F23     		movs	r3, #31
 575 0068 9340     		lsls	r3, r3, r2
 576              	.LVL54:
 577              		.loc 1 779 0
 578 006a 24EA0303 		bic	r3, r4, r3
 579              	.LVL55:
 580              		.loc 1 782 0
 581 006e 01FA02F2 		lsl	r2, r1, r2
 582              	.LVL56:
 583              		.loc 1 785 0
 584 0072 1A43     		orrs	r2, r2, r3
 585              	.LVL57:
 586              		.loc 1 788 0
 587 0074 4263     		str	r2, [r0, #52]
 588              		.loc 1 832 0
 589 0076 70BC     		pop	{r4, r5, r6}
 590 0078 7047     		bx	lr
 591              	.LVL58:
 592              	.L37:
 593              		.loc 1 797 0
 594 007a 073A     		subs	r2, r2, #7
 595              	.LVL59:
 596              		.loc 1 794 0
 597 007c 046B     		ldr	r4, [r0, #48]
 598              	.LVL60:
 599              		.loc 1 797 0
 600 007e 02EB8202 		add	r2, r2, r2, lsl #2
 601              	.LVL61:
 602 0082 1F23     		movs	r3, #31
 603 0084 9340     		lsls	r3, r3, r2
 604              	.LVL62:
 605              		.loc 1 800 0
 606 0086 24EA0303 		bic	r3, r4, r3
 607              	.LVL63:
 608              		.loc 1 803 0
 609 008a 01FA02F2 		lsl	r2, r1, r2
 610              	.LVL64:
 611              		.loc 1 806 0
 612 008e 1A43     		orrs	r2, r2, r3
 613              	.LVL65:
 614              		.loc 1 809 0
 615 0090 0263     		str	r2, [r0, #48]
 616              		.loc 1 832 0
 617 0092 70BC     		pop	{r4, r5, r6}
 618 0094 7047     		bx	lr
ARM GAS  /tmp/ccqRxWEk.s 			page 12


 619              		.cfi_endproc
 620              	.LFE123:
 621              		.size	ADC_RegularChannelConfig, .-ADC_RegularChannelConfig
 622 0096 00BFAFF3 		.section	.text.ADC_SoftwareStartConv,"ax",%progbits
 622      0080AFF3 
 622      0080
 623              		.align	2
 624              		.p2align 4,,15
 625              		.global	ADC_SoftwareStartConv
 626              		.thumb
 627              		.thumb_func
 628              		.type	ADC_SoftwareStartConv, %function
 629              	ADC_SoftwareStartConv:
 630              	.LFB124:
 631              		.loc 1 840 0
 632              		.cfi_startproc
 633              		@ args = 0, pretend = 0, frame = 0
 634              		@ frame_needed = 0, uses_anonymous_args = 0
 635              		@ link register save eliminated.
 636              	.LVL66:
 637              		.loc 1 845 0
 638 0000 8368     		ldr	r3, [r0, #8]
 639 0002 43F08043 		orr	r3, r3, #1073741824
 640 0006 8360     		str	r3, [r0, #8]
 641 0008 7047     		bx	lr
 642              		.cfi_endproc
 643              	.LFE124:
 644              		.size	ADC_SoftwareStartConv, .-ADC_SoftwareStartConv
 645 000a 00BFAFF3 		.section	.text.ADC_GetSoftwareStartConvStatus,"ax",%progbits
 645      0080
 646              		.align	2
 647              		.p2align 4,,15
 648              		.global	ADC_GetSoftwareStartConvStatus
 649              		.thumb
 650              		.thumb_func
 651              		.type	ADC_GetSoftwareStartConvStatus, %function
 652              	ADC_GetSoftwareStartConvStatus:
 653              	.LFB125:
 654              		.loc 1 854 0
 655              		.cfi_startproc
 656              		@ args = 0, pretend = 0, frame = 0
 657              		@ frame_needed = 0, uses_anonymous_args = 0
 658              		@ link register save eliminated.
 659              	.LVL67:
 660              		.loc 1 860 0
 661 0000 8068     		ldr	r0, [r0, #8]
 662              	.LVL68:
 663              		.loc 1 873 0
 664 0002 C0F38070 		ubfx	r0, r0, #30, #1
 665              	.LVL69:
 666 0006 7047     		bx	lr
 667              		.cfi_endproc
 668              	.LFE125:
 669              		.size	ADC_GetSoftwareStartConvStatus, .-ADC_GetSoftwareStartConvStatus
 670 0008 AFF30080 		.section	.text.ADC_EOCOnEachRegularChannelCmd,"ax",%progbits
 670      AFF30080 
 671              		.align	2
ARM GAS  /tmp/ccqRxWEk.s 			page 13


 672              		.p2align 4,,15
 673              		.global	ADC_EOCOnEachRegularChannelCmd
 674              		.thumb
 675              		.thumb_func
 676              		.type	ADC_EOCOnEachRegularChannelCmd, %function
 677              	ADC_EOCOnEachRegularChannelCmd:
 678              	.LFB126:
 679              		.loc 1 884 0
 680              		.cfi_startproc
 681              		@ args = 0, pretend = 0, frame = 0
 682              		@ frame_needed = 0, uses_anonymous_args = 0
 683              		@ link register save eliminated.
 684              	.LVL70:
 685              		.loc 1 892 0
 686 0000 8368     		ldr	r3, [r0, #8]
 687              		.loc 1 889 0
 688 0002 19B9     		cbnz	r1, .L43
 689              		.loc 1 897 0
 690 0004 23F48063 		bic	r3, r3, #1024
 691 0008 8360     		str	r3, [r0, #8]
 692 000a 7047     		bx	lr
 693              	.L43:
 694              		.loc 1 892 0
 695 000c 43F48063 		orr	r3, r3, #1024
 696 0010 8360     		str	r3, [r0, #8]
 697 0012 7047     		bx	lr
 698              		.cfi_endproc
 699              	.LFE126:
 700              		.size	ADC_EOCOnEachRegularChannelCmd, .-ADC_EOCOnEachRegularChannelCmd
 701 0014 AFF30080 		.section	.text.ADC_ContinuousModeCmd,"ax",%progbits
 701      AFF30080 
 701      AFF30080 
 702              		.align	2
 703              		.p2align 4,,15
 704              		.global	ADC_ContinuousModeCmd
 705              		.thumb
 706              		.thumb_func
 707              		.type	ADC_ContinuousModeCmd, %function
 708              	ADC_ContinuousModeCmd:
 709              	.LFB127:
 710              		.loc 1 909 0
 711              		.cfi_startproc
 712              		@ args = 0, pretend = 0, frame = 0
 713              		@ frame_needed = 0, uses_anonymous_args = 0
 714              		@ link register save eliminated.
 715              	.LVL71:
 716              		.loc 1 917 0
 717 0000 8368     		ldr	r3, [r0, #8]
 718              		.loc 1 914 0
 719 0002 19B9     		cbnz	r1, .L47
 720              		.loc 1 922 0
 721 0004 23F00203 		bic	r3, r3, #2
 722 0008 8360     		str	r3, [r0, #8]
 723 000a 7047     		bx	lr
 724              	.L47:
 725              		.loc 1 917 0
 726 000c 43F00203 		orr	r3, r3, #2
ARM GAS  /tmp/ccqRxWEk.s 			page 14


 727 0010 8360     		str	r3, [r0, #8]
 728 0012 7047     		bx	lr
 729              		.cfi_endproc
 730              	.LFE127:
 731              		.size	ADC_ContinuousModeCmd, .-ADC_ContinuousModeCmd
 732 0014 AFF30080 		.section	.text.ADC_DiscModeChannelCountConfig,"ax",%progbits
 732      AFF30080 
 732      AFF30080 
 733              		.align	2
 734              		.p2align 4,,15
 735              		.global	ADC_DiscModeChannelCountConfig
 736              		.thumb
 737              		.thumb_func
 738              		.type	ADC_DiscModeChannelCountConfig, %function
 739              	ADC_DiscModeChannelCountConfig:
 740              	.LFB128:
 741              		.loc 1 935 0
 742              		.cfi_startproc
 743              		@ args = 0, pretend = 0, frame = 0
 744              		@ frame_needed = 0, uses_anonymous_args = 0
 745              		@ link register save eliminated.
 746              	.LVL72:
 747              		.loc 1 944 0
 748 0000 4368     		ldr	r3, [r0, #4]
 749              	.LVL73:
 750              		.loc 1 950 0
 751 0002 0139     		subs	r1, r1, #1
 752              	.LVL74:
 753              		.loc 1 947 0
 754 0004 23F46043 		bic	r3, r3, #57344
 755              	.LVL75:
 756              		.loc 1 951 0
 757 0008 43EA4131 		orr	r1, r3, r1, lsl #13
 758              	.LVL76:
 759              		.loc 1 954 0
 760 000c 4160     		str	r1, [r0, #4]
 761 000e 7047     		bx	lr
 762              		.cfi_endproc
 763              	.LFE128:
 764              		.size	ADC_DiscModeChannelCountConfig, .-ADC_DiscModeChannelCountConfig
 765              		.section	.text.ADC_DiscModeCmd,"ax",%progbits
 766              		.align	2
 767              		.p2align 4,,15
 768              		.global	ADC_DiscModeCmd
 769              		.thumb
 770              		.thumb_func
 771              		.type	ADC_DiscModeCmd, %function
 772              	ADC_DiscModeCmd:
 773              	.LFB129:
 774              		.loc 1 967 0
 775              		.cfi_startproc
 776              		@ args = 0, pretend = 0, frame = 0
 777              		@ frame_needed = 0, uses_anonymous_args = 0
 778              		@ link register save eliminated.
 779              	.LVL77:
 780              		.loc 1 975 0
 781 0000 4368     		ldr	r3, [r0, #4]
ARM GAS  /tmp/ccqRxWEk.s 			page 15


 782              		.loc 1 972 0
 783 0002 19B9     		cbnz	r1, .L52
 784              		.loc 1 980 0
 785 0004 23F40063 		bic	r3, r3, #2048
 786 0008 4360     		str	r3, [r0, #4]
 787 000a 7047     		bx	lr
 788              	.L52:
 789              		.loc 1 975 0
 790 000c 43F40063 		orr	r3, r3, #2048
 791 0010 4360     		str	r3, [r0, #4]
 792 0012 7047     		bx	lr
 793              		.cfi_endproc
 794              	.LFE129:
 795              		.size	ADC_DiscModeCmd, .-ADC_DiscModeCmd
 796 0014 AFF30080 		.section	.text.ADC_GetConversionValue,"ax",%progbits
 796      AFF30080 
 796      AFF30080 
 797              		.align	2
 798              		.p2align 4,,15
 799              		.global	ADC_GetConversionValue
 800              		.thumb
 801              		.thumb_func
 802              		.type	ADC_GetConversionValue, %function
 803              	ADC_GetConversionValue:
 804              	.LFB130:
 805              		.loc 1 990 0
 806              		.cfi_startproc
 807              		@ args = 0, pretend = 0, frame = 0
 808              		@ frame_needed = 0, uses_anonymous_args = 0
 809              		@ link register save eliminated.
 810              	.LVL78:
 811              		.loc 1 995 0
 812 0000 C06C     		ldr	r0, [r0, #76]
 813              	.LVL79:
 814              		.loc 1 996 0
 815 0002 80B2     		uxth	r0, r0
 816 0004 7047     		bx	lr
 817              		.cfi_endproc
 818              	.LFE130:
 819              		.size	ADC_GetConversionValue, .-ADC_GetConversionValue
 820 0006 00BFAFF3 		.section	.text.ADC_GetMultiModeConversionValue,"ax",%progbits
 820      0080AFF3 
 820      0080
 821              		.align	2
 822              		.p2align 4,,15
 823              		.global	ADC_GetMultiModeConversionValue
 824              		.thumb
 825              		.thumb_func
 826              		.type	ADC_GetMultiModeConversionValue, %function
 827              	ADC_GetMultiModeConversionValue:
 828              	.LFB131:
 829              		.loc 1 1011 0
 830              		.cfi_startproc
 831              		@ args = 0, pretend = 0, frame = 0
 832              		@ frame_needed = 0, uses_anonymous_args = 0
 833              		@ link register save eliminated.
 834              		.loc 1 1013 0
ARM GAS  /tmp/ccqRxWEk.s 			page 16


 835 0000 014B     		ldr	r3, .L55
 836 0002 1868     		ldr	r0, [r3]
 837              		.loc 1 1014 0
 838 0004 7047     		bx	lr
 839              	.L56:
 840 0006 00BF     		.align	2
 841              	.L55:
 842 0008 08230140 		.word	1073816328
 843              		.cfi_endproc
 844              	.LFE131:
 845              		.size	ADC_GetMultiModeConversionValue, .-ADC_GetMultiModeConversionValue
 846 000c AFF30080 		.section	.text.ADC_DMACmd,"ax",%progbits
 847              		.align	2
 848              		.p2align 4,,15
 849              		.global	ADC_DMACmd
 850              		.thumb
 851              		.thumb_func
 852              		.type	ADC_DMACmd, %function
 853              	ADC_DMACmd:
 854              	.LFB132:
 855              		.loc 1 1057 0
 856              		.cfi_startproc
 857              		@ args = 0, pretend = 0, frame = 0
 858              		@ frame_needed = 0, uses_anonymous_args = 0
 859              		@ link register save eliminated.
 860              	.LVL80:
 861              		.loc 1 1064 0
 862 0000 8368     		ldr	r3, [r0, #8]
 863              		.loc 1 1061 0
 864 0002 19B9     		cbnz	r1, .L60
 865              		.loc 1 1069 0
 866 0004 23F48073 		bic	r3, r3, #256
 867 0008 8360     		str	r3, [r0, #8]
 868 000a 7047     		bx	lr
 869              	.L60:
 870              		.loc 1 1064 0
 871 000c 43F48073 		orr	r3, r3, #256
 872 0010 8360     		str	r3, [r0, #8]
 873 0012 7047     		bx	lr
 874              		.cfi_endproc
 875              	.LFE132:
 876              		.size	ADC_DMACmd, .-ADC_DMACmd
 877 0014 AFF30080 		.section	.text.ADC_DMARequestAfterLastTransferCmd,"ax",%progbits
 877      AFF30080 
 877      AFF30080 
 878              		.align	2
 879              		.p2align 4,,15
 880              		.global	ADC_DMARequestAfterLastTransferCmd
 881              		.thumb
 882              		.thumb_func
 883              		.type	ADC_DMARequestAfterLastTransferCmd, %function
 884              	ADC_DMARequestAfterLastTransferCmd:
 885              	.LFB133:
 886              		.loc 1 1081 0
 887              		.cfi_startproc
 888              		@ args = 0, pretend = 0, frame = 0
 889              		@ frame_needed = 0, uses_anonymous_args = 0
ARM GAS  /tmp/ccqRxWEk.s 			page 17


 890              		@ link register save eliminated.
 891              	.LVL81:
 892              		.loc 1 1088 0
 893 0000 8368     		ldr	r3, [r0, #8]
 894              		.loc 1 1085 0
 895 0002 19B9     		cbnz	r1, .L64
 896              		.loc 1 1093 0
 897 0004 23F40073 		bic	r3, r3, #512
 898 0008 8360     		str	r3, [r0, #8]
 899 000a 7047     		bx	lr
 900              	.L64:
 901              		.loc 1 1088 0
 902 000c 43F40073 		orr	r3, r3, #512
 903 0010 8360     		str	r3, [r0, #8]
 904 0012 7047     		bx	lr
 905              		.cfi_endproc
 906              	.LFE133:
 907              		.size	ADC_DMARequestAfterLastTransferCmd, .-ADC_DMARequestAfterLastTransferCmd
 908 0014 AFF30080 		.section	.text.ADC_MultiModeDMARequestAfterLastTransferCmd,"ax",%progbits
 908      AFF30080 
 908      AFF30080 
 909              		.align	2
 910              		.p2align 4,,15
 911              		.global	ADC_MultiModeDMARequestAfterLastTransferCmd
 912              		.thumb
 913              		.thumb_func
 914              		.type	ADC_MultiModeDMARequestAfterLastTransferCmd, %function
 915              	ADC_MultiModeDMARequestAfterLastTransferCmd:
 916              	.LFB134:
 917              		.loc 1 1108 0
 918              		.cfi_startproc
 919              		@ args = 0, pretend = 0, frame = 0
 920              		@ frame_needed = 0, uses_anonymous_args = 0
 921              		@ link register save eliminated.
 922              	.LVL82:
 923              		.loc 1 1114 0
 924 0000 054B     		ldr	r3, .L69
 925 0002 5A68     		ldr	r2, [r3, #4]
 926              		.loc 1 1111 0
 927 0004 18B9     		cbnz	r0, .L68
 928              		.loc 1 1119 0
 929 0006 22F40052 		bic	r2, r2, #8192
 930 000a 5A60     		str	r2, [r3, #4]
 931 000c 7047     		bx	lr
 932              	.L68:
 933              		.loc 1 1114 0
 934 000e 42F40052 		orr	r2, r2, #8192
 935 0012 5A60     		str	r2, [r3, #4]
 936 0014 7047     		bx	lr
 937              	.L70:
 938 0016 00BF     		.align	2
 939              	.L69:
 940 0018 00230140 		.word	1073816320
 941              		.cfi_endproc
 942              	.LFE134:
 943              		.size	ADC_MultiModeDMARequestAfterLastTransferCmd, .-ADC_MultiModeDMARequestAfterLastTransferCmd
 944 001c AFF30080 		.section	.text.ADC_InjectedChannelConfig,"ax",%progbits
ARM GAS  /tmp/ccqRxWEk.s 			page 18


 945              		.align	2
 946              		.p2align 4,,15
 947              		.global	ADC_InjectedChannelConfig
 948              		.thumb
 949              		.thumb_func
 950              		.type	ADC_InjectedChannelConfig, %function
 951              	ADC_InjectedChannelConfig:
 952              	.LFB135:
 953              		.loc 1 1195 0
 954              		.cfi_startproc
 955              		@ args = 0, pretend = 0, frame = 0
 956              		@ frame_needed = 0, uses_anonymous_args = 0
 957              		@ link register save eliminated.
 958              	.LVL83:
 959              		.loc 1 1203 0
 960 0000 0929     		cmp	r1, #9
 961              		.loc 1 1195 0
 962 0002 70B4     		push	{r4, r5, r6}
 963              		.cfi_def_cfa_offset 12
 964              		.cfi_offset 4, -12
 965              		.cfi_offset 5, -8
 966              		.cfi_offset 6, -4
 967              		.loc 1 1203 0
 968 0004 1BD8     		bhi	.L74
 969              		.loc 1 1223 0
 970 0006 01EB4104 		add	r4, r1, r1, lsl #1
 971              		.loc 1 1221 0
 972 000a 0569     		ldr	r5, [r0, #16]
 973              	.LVL84:
 974              		.loc 1 1223 0
 975 000c 0726     		movs	r6, #7
 976 000e A640     		lsls	r6, r6, r4
 977              	.LVL85:
 978              		.loc 1 1227 0
 979 0010 03FA04F4 		lsl	r4, r3, r4
 980              		.loc 1 1225 0
 981 0014 25EA0603 		bic	r3, r5, r6
 982              	.LVL86:
 983              		.loc 1 1229 0
 984 0018 2343     		orrs	r3, r3, r4
 985              	.LVL87:
 986              		.loc 1 1231 0
 987 001a 0361     		str	r3, [r0, #16]
 988              	.L73:
 989              		.loc 1 1235 0
 990 001c 836B     		ldr	r3, [r0, #56]
 991              	.LVL88:
 992              		.loc 1 1239 0
 993 001e 0232     		adds	r2, r2, #2
 994              	.LVL89:
 995              		.loc 1 1237 0
 996 0020 C3F30154 		ubfx	r4, r3, #20, #2
 997              		.loc 1 1239 0
 998 0024 121B     		subs	r2, r2, r4
 999 0026 D2B2     		uxtb	r2, r2
 1000 0028 02EB8202 		add	r2, r2, r2, lsl #2
 1001              	.LVL90:
ARM GAS  /tmp/ccqRxWEk.s 			page 19


 1002 002c 1F24     		movs	r4, #31
 1003 002e 9440     		lsls	r4, r4, r2
 1004              	.LVL91:
 1005              		.loc 1 1241 0
 1006 0030 23EA0403 		bic	r3, r3, r4
 1007              	.LVL92:
 1008              		.loc 1 1243 0
 1009 0034 9140     		lsls	r1, r1, r2
 1010              	.LVL93:
 1011              		.loc 1 1245 0
 1012 0036 0B43     		orrs	r3, r3, r1
 1013              	.LVL94:
 1014              		.loc 1 1247 0
 1015 0038 8363     		str	r3, [r0, #56]
 1016              		.loc 1 1248 0
 1017 003a 70BC     		pop	{r4, r5, r6}
 1018 003c 7047     		bx	lr
 1019              	.LVL95:
 1020              	.L74:
 1021              		.loc 1 1208 0
 1022 003e A1F10A04 		sub	r4, r1, #10
 1023 0042 04EB4404 		add	r4, r4, r4, lsl #1
 1024              		.loc 1 1206 0
 1025 0046 C568     		ldr	r5, [r0, #12]
 1026              	.LVL96:
 1027              		.loc 1 1208 0
 1028 0048 0726     		movs	r6, #7
 1029 004a A640     		lsls	r6, r6, r4
 1030              	.LVL97:
 1031              		.loc 1 1212 0
 1032 004c 03FA04F4 		lsl	r4, r3, r4
 1033              		.loc 1 1210 0
 1034 0050 25EA0603 		bic	r3, r5, r6
 1035              	.LVL98:
 1036              		.loc 1 1214 0
 1037 0054 2343     		orrs	r3, r3, r4
 1038              	.LVL99:
 1039              		.loc 1 1216 0
 1040 0056 C360     		str	r3, [r0, #12]
 1041 0058 E0E7     		b	.L73
 1042              		.cfi_endproc
 1043              	.LFE135:
 1044              		.size	ADC_InjectedChannelConfig, .-ADC_InjectedChannelConfig
 1045 005a 00BFAFF3 		.section	.text.ADC_InjectedSequencerLengthConfig,"ax",%progbits
 1045      0080
 1046              		.align	2
 1047              		.p2align 4,,15
 1048              		.global	ADC_InjectedSequencerLengthConfig
 1049              		.thumb
 1050              		.thumb_func
 1051              		.type	ADC_InjectedSequencerLengthConfig, %function
 1052              	ADC_InjectedSequencerLengthConfig:
 1053              	.LFB136:
 1054              		.loc 1 1258 0
 1055              		.cfi_startproc
 1056              		@ args = 0, pretend = 0, frame = 0
 1057              		@ frame_needed = 0, uses_anonymous_args = 0
ARM GAS  /tmp/ccqRxWEk.s 			page 20


 1058              		@ link register save eliminated.
 1059              	.LVL100:
 1060              		.loc 1 1266 0
 1061 0000 836B     		ldr	r3, [r0, #56]
 1062              	.LVL101:
 1063              		.loc 1 1272 0
 1064 0002 0139     		subs	r1, r1, #1
 1065              	.LVL102:
 1066              		.loc 1 1269 0
 1067 0004 23F44013 		bic	r3, r3, #3145728
 1068              	.LVL103:
 1069              		.loc 1 1273 0
 1070 0008 43EA0151 		orr	r1, r3, r1, lsl #20
 1071              	.LVL104:
 1072              		.loc 1 1276 0
 1073 000c 8163     		str	r1, [r0, #56]
 1074 000e 7047     		bx	lr
 1075              		.cfi_endproc
 1076              	.LFE136:
 1077              		.size	ADC_InjectedSequencerLengthConfig, .-ADC_InjectedSequencerLengthConfig
 1078              		.section	.text.ADC_SetInjectedOffset,"ax",%progbits
 1079              		.align	2
 1080              		.p2align 4,,15
 1081              		.global	ADC_SetInjectedOffset
 1082              		.thumb
 1083              		.thumb_func
 1084              		.type	ADC_SetInjectedOffset, %function
 1085              	ADC_SetInjectedOffset:
 1086              	.LFB137:
 1087              		.loc 1 1293 0
 1088              		.cfi_startproc
 1089              		@ args = 0, pretend = 0, frame = 8
 1090              		@ frame_needed = 0, uses_anonymous_args = 0
 1091              		@ link register save eliminated.
 1092              	.LVL105:
 1093 0000 82B0     		sub	sp, sp, #8
 1094              		.cfi_def_cfa_offset 8
 1095              		.loc 1 1294 0
 1096 0002 0023     		movs	r3, #0
 1097 0004 0193     		str	r3, [sp, #4]
 1098              		.loc 1 1300 0
 1099 0006 0190     		str	r0, [sp, #4]
 1100              		.loc 1 1301 0
 1101 0008 019B     		ldr	r3, [sp, #4]
 1102 000a 1944     		add	r1, r1, r3
 1103              	.LVL106:
 1104 000c 0191     		str	r1, [sp, #4]
 1105              		.loc 1 1304 0
 1106 000e 019B     		ldr	r3, [sp, #4]
 1107 0010 1A60     		str	r2, [r3]
 1108              		.loc 1 1305 0
 1109 0012 02B0     		add	sp, sp, #8
 1110              		@ sp needed
 1111 0014 7047     		bx	lr
 1112              		.cfi_endproc
 1113              	.LFE137:
 1114              		.size	ADC_SetInjectedOffset, .-ADC_SetInjectedOffset
ARM GAS  /tmp/ccqRxWEk.s 			page 21


 1115 0016 00BFAFF3 		.section	.text.ADC_ExternalTrigInjectedConvConfig,"ax",%progbits
 1115      0080AFF3 
 1115      0080
 1116              		.align	2
 1117              		.p2align 4,,15
 1118              		.global	ADC_ExternalTrigInjectedConvConfig
 1119              		.thumb
 1120              		.thumb_func
 1121              		.type	ADC_ExternalTrigInjectedConvConfig, %function
 1122              	ADC_ExternalTrigInjectedConvConfig:
 1123              	.LFB138:
 1124              		.loc 1 1331 0
 1125              		.cfi_startproc
 1126              		@ args = 0, pretend = 0, frame = 0
 1127              		@ frame_needed = 0, uses_anonymous_args = 0
 1128              		@ link register save eliminated.
 1129              	.LVL107:
 1130              		.loc 1 1338 0
 1131 0000 8368     		ldr	r3, [r0, #8]
 1132              	.LVL108:
 1133              		.loc 1 1341 0
 1134 0002 23F47023 		bic	r3, r3, #983040
 1135              	.LVL109:
 1136              		.loc 1 1344 0
 1137 0006 1943     		orrs	r1, r1, r3
 1138              	.LVL110:
 1139              		.loc 1 1347 0
 1140 0008 8160     		str	r1, [r0, #8]
 1141 000a 7047     		bx	lr
 1142              		.cfi_endproc
 1143              	.LFE138:
 1144              		.size	ADC_ExternalTrigInjectedConvConfig, .-ADC_ExternalTrigInjectedConvConfig
 1145 000c AFF30080 		.section	.text.ADC_ExternalTrigInjectedConvEdgeConfig,"ax",%progbits
 1146              		.align	2
 1147              		.p2align 4,,15
 1148              		.global	ADC_ExternalTrigInjectedConvEdgeConfig
 1149              		.thumb
 1150              		.thumb_func
 1151              		.type	ADC_ExternalTrigInjectedConvEdgeConfig, %function
 1152              	ADC_ExternalTrigInjectedConvEdgeConfig:
 1153              	.LFB139:
 1154              		.loc 1 1365 0
 1155              		.cfi_startproc
 1156              		@ args = 0, pretend = 0, frame = 0
 1157              		@ frame_needed = 0, uses_anonymous_args = 0
 1158              		@ link register save eliminated.
 1159              	.LVL111:
 1160              		.loc 1 1371 0
 1161 0000 8368     		ldr	r3, [r0, #8]
 1162              	.LVL112:
 1163              		.loc 1 1373 0
 1164 0002 23F44013 		bic	r3, r3, #3145728
 1165              	.LVL113:
 1166              		.loc 1 1375 0
 1167 0006 1943     		orrs	r1, r1, r3
 1168              	.LVL114:
 1169              		.loc 1 1377 0
ARM GAS  /tmp/ccqRxWEk.s 			page 22


 1170 0008 8160     		str	r1, [r0, #8]
 1171 000a 7047     		bx	lr
 1172              		.cfi_endproc
 1173              	.LFE139:
 1174              		.size	ADC_ExternalTrigInjectedConvEdgeConfig, .-ADC_ExternalTrigInjectedConvEdgeConfig
 1175 000c AFF30080 		.section	.text.ADC_SoftwareStartInjectedConv,"ax",%progbits
 1176              		.align	2
 1177              		.p2align 4,,15
 1178              		.global	ADC_SoftwareStartInjectedConv
 1179              		.thumb
 1180              		.thumb_func
 1181              		.type	ADC_SoftwareStartInjectedConv, %function
 1182              	ADC_SoftwareStartInjectedConv:
 1183              	.LFB140:
 1184              		.loc 1 1386 0
 1185              		.cfi_startproc
 1186              		@ args = 0, pretend = 0, frame = 0
 1187              		@ frame_needed = 0, uses_anonymous_args = 0
 1188              		@ link register save eliminated.
 1189              	.LVL115:
 1190              		.loc 1 1390 0
 1191 0000 8368     		ldr	r3, [r0, #8]
 1192 0002 43F48003 		orr	r3, r3, #4194304
 1193 0006 8360     		str	r3, [r0, #8]
 1194 0008 7047     		bx	lr
 1195              		.cfi_endproc
 1196              	.LFE140:
 1197              		.size	ADC_SoftwareStartInjectedConv, .-ADC_SoftwareStartInjectedConv
 1198 000a 00BFAFF3 		.section	.text.ADC_GetSoftwareStartInjectedConvCmdStatus,"ax",%progbits
 1198      0080
 1199              		.align	2
 1200              		.p2align 4,,15
 1201              		.global	ADC_GetSoftwareStartInjectedConvCmdStatus
 1202              		.thumb
 1203              		.thumb_func
 1204              		.type	ADC_GetSoftwareStartInjectedConvCmdStatus, %function
 1205              	ADC_GetSoftwareStartInjectedConvCmdStatus:
 1206              	.LFB141:
 1207              		.loc 1 1399 0
 1208              		.cfi_startproc
 1209              		@ args = 0, pretend = 0, frame = 0
 1210              		@ frame_needed = 0, uses_anonymous_args = 0
 1211              		@ link register save eliminated.
 1212              	.LVL116:
 1213              		.loc 1 1405 0
 1214 0000 8068     		ldr	r0, [r0, #8]
 1215              	.LVL117:
 1216              		.loc 1 1417 0
 1217 0002 C0F38050 		ubfx	r0, r0, #22, #1
 1218              	.LVL118:
 1219 0006 7047     		bx	lr
 1220              		.cfi_endproc
 1221              	.LFE141:
 1222              		.size	ADC_GetSoftwareStartInjectedConvCmdStatus, .-ADC_GetSoftwareStartInjectedConvCmdStatus
 1223 0008 AFF30080 		.section	.text.ADC_AutoInjectedConvCmd,"ax",%progbits
 1223      AFF30080 
 1224              		.align	2
ARM GAS  /tmp/ccqRxWEk.s 			page 23


 1225              		.p2align 4,,15
 1226              		.global	ADC_AutoInjectedConvCmd
 1227              		.thumb
 1228              		.thumb_func
 1229              		.type	ADC_AutoInjectedConvCmd, %function
 1230              	ADC_AutoInjectedConvCmd:
 1231              	.LFB142:
 1232              		.loc 1 1428 0
 1233              		.cfi_startproc
 1234              		@ args = 0, pretend = 0, frame = 0
 1235              		@ frame_needed = 0, uses_anonymous_args = 0
 1236              		@ link register save eliminated.
 1237              	.LVL119:
 1238              		.loc 1 1435 0
 1239 0000 4368     		ldr	r3, [r0, #4]
 1240              		.loc 1 1432 0
 1241 0002 19B9     		cbnz	r1, .L84
 1242              		.loc 1 1440 0
 1243 0004 23F48063 		bic	r3, r3, #1024
 1244 0008 4360     		str	r3, [r0, #4]
 1245 000a 7047     		bx	lr
 1246              	.L84:
 1247              		.loc 1 1435 0
 1248 000c 43F48063 		orr	r3, r3, #1024
 1249 0010 4360     		str	r3, [r0, #4]
 1250 0012 7047     		bx	lr
 1251              		.cfi_endproc
 1252              	.LFE142:
 1253              		.size	ADC_AutoInjectedConvCmd, .-ADC_AutoInjectedConvCmd
 1254 0014 AFF30080 		.section	.text.ADC_InjectedDiscModeCmd,"ax",%progbits
 1254      AFF30080 
 1254      AFF30080 
 1255              		.align	2
 1256              		.p2align 4,,15
 1257              		.global	ADC_InjectedDiscModeCmd
 1258              		.thumb
 1259              		.thumb_func
 1260              		.type	ADC_InjectedDiscModeCmd, %function
 1261              	ADC_InjectedDiscModeCmd:
 1262              	.LFB143:
 1263              		.loc 1 1454 0
 1264              		.cfi_startproc
 1265              		@ args = 0, pretend = 0, frame = 0
 1266              		@ frame_needed = 0, uses_anonymous_args = 0
 1267              		@ link register save eliminated.
 1268              	.LVL120:
 1269              		.loc 1 1461 0
 1270 0000 4368     		ldr	r3, [r0, #4]
 1271              		.loc 1 1458 0
 1272 0002 19B9     		cbnz	r1, .L88
 1273              		.loc 1 1466 0
 1274 0004 23F48053 		bic	r3, r3, #4096
 1275 0008 4360     		str	r3, [r0, #4]
 1276 000a 7047     		bx	lr
 1277              	.L88:
 1278              		.loc 1 1461 0
 1279 000c 43F48053 		orr	r3, r3, #4096
ARM GAS  /tmp/ccqRxWEk.s 			page 24


 1280 0010 4360     		str	r3, [r0, #4]
 1281 0012 7047     		bx	lr
 1282              		.cfi_endproc
 1283              	.LFE143:
 1284              		.size	ADC_InjectedDiscModeCmd, .-ADC_InjectedDiscModeCmd
 1285 0014 AFF30080 		.section	.text.ADC_GetInjectedConversionValue,"ax",%progbits
 1285      AFF30080 
 1285      AFF30080 
 1286              		.align	2
 1287              		.p2align 4,,15
 1288              		.global	ADC_GetInjectedConversionValue
 1289              		.thumb
 1290              		.thumb_func
 1291              		.type	ADC_GetInjectedConversionValue, %function
 1292              	ADC_GetInjectedConversionValue:
 1293              	.LFB144:
 1294              		.loc 1 1482 0
 1295              		.cfi_startproc
 1296              		@ args = 0, pretend = 0, frame = 8
 1297              		@ frame_needed = 0, uses_anonymous_args = 0
 1298              		@ link register save eliminated.
 1299              	.LVL121:
 1300 0000 82B0     		sub	sp, sp, #8
 1301              		.cfi_def_cfa_offset 8
 1302              		.loc 1 1483 0
 1303 0002 0023     		movs	r3, #0
 1304 0004 0193     		str	r3, [sp, #4]
 1305              		.loc 1 1489 0
 1306 0006 0190     		str	r0, [sp, #4]
 1307              		.loc 1 1490 0
 1308 0008 019B     		ldr	r3, [sp, #4]
 1309 000a 2833     		adds	r3, r3, #40
 1310 000c 1944     		add	r1, r1, r3
 1311              	.LVL122:
 1312 000e 0191     		str	r1, [sp, #4]
 1313              		.loc 1 1493 0
 1314 0010 019B     		ldr	r3, [sp, #4]
 1315 0012 1868     		ldr	r0, [r3]
 1316              	.LVL123:
 1317              		.loc 1 1494 0
 1318 0014 80B2     		uxth	r0, r0
 1319 0016 02B0     		add	sp, sp, #8
 1320              		@ sp needed
 1321 0018 7047     		bx	lr
 1322              		.cfi_endproc
 1323              	.LFE144:
 1324              		.size	ADC_GetInjectedConversionValue, .-ADC_GetInjectedConversionValue
 1325 001a 00BFAFF3 		.section	.text.ADC_ITConfig,"ax",%progbits
 1325      0080
 1326              		.align	2
 1327              		.p2align 4,,15
 1328              		.global	ADC_ITConfig
 1329              		.thumb
 1330              		.thumb_func
 1331              		.type	ADC_ITConfig, %function
 1332              	ADC_ITConfig:
 1333              	.LFB145:
ARM GAS  /tmp/ccqRxWEk.s 			page 25


 1334              		.loc 1 1589 0
 1335              		.cfi_startproc
 1336              		@ args = 0, pretend = 0, frame = 0
 1337              		@ frame_needed = 0, uses_anonymous_args = 0
 1338              		@ link register save eliminated.
 1339              	.LVL124:
 1340              		.loc 1 1598 0
 1341 0000 0123     		movs	r3, #1
 1342 0002 C9B2     		uxtb	r1, r1
 1343              	.LVL125:
 1344 0004 03FA01F1 		lsl	r1, r3, r1
 1345              	.LVL126:
 1346              		.loc 1 1603 0
 1347 0008 4368     		ldr	r3, [r0, #4]
 1348              		.loc 1 1600 0
 1349 000a 1AB9     		cbnz	r2, .L93
 1350              		.loc 1 1608 0
 1351 000c 23EA0101 		bic	r1, r3, r1
 1352              	.LVL127:
 1353 0010 4160     		str	r1, [r0, #4]
 1354 0012 7047     		bx	lr
 1355              	.LVL128:
 1356              	.L93:
 1357              		.loc 1 1603 0
 1358 0014 1943     		orrs	r1, r1, r3
 1359              	.LVL129:
 1360 0016 4160     		str	r1, [r0, #4]
 1361 0018 7047     		bx	lr
 1362              		.cfi_endproc
 1363              	.LFE145:
 1364              		.size	ADC_ITConfig, .-ADC_ITConfig
 1365 001a 00BFAFF3 		.section	.text.ADC_GetFlagStatus,"ax",%progbits
 1365      0080
 1366              		.align	2
 1367              		.p2align 4,,15
 1368              		.global	ADC_GetFlagStatus
 1369              		.thumb
 1370              		.thumb_func
 1371              		.type	ADC_GetFlagStatus, %function
 1372              	ADC_GetFlagStatus:
 1373              	.LFB146:
 1374              		.loc 1 1626 0
 1375              		.cfi_startproc
 1376              		@ args = 0, pretend = 0, frame = 0
 1377              		@ frame_needed = 0, uses_anonymous_args = 0
 1378              		@ link register save eliminated.
 1379              	.LVL130:
 1380              		.loc 1 1633 0
 1381 0000 0368     		ldr	r3, [r0]
 1382              	.LVL131:
 1383 0002 1942     		tst	r1, r3
 1384              		.loc 1 1645 0
 1385 0004 0CBF     		ite	eq
 1386 0006 0020     		moveq	r0, #0
 1387 0008 0120     		movne	r0, #1
 1388              	.LVL132:
 1389 000a 7047     		bx	lr
ARM GAS  /tmp/ccqRxWEk.s 			page 26


 1390              		.cfi_endproc
 1391              	.LFE146:
 1392              		.size	ADC_GetFlagStatus, .-ADC_GetFlagStatus
 1393 000c AFF30080 		.section	.text.ADC_ClearFlag,"ax",%progbits
 1394              		.align	2
 1395              		.p2align 4,,15
 1396              		.global	ADC_ClearFlag
 1397              		.thumb
 1398              		.thumb_func
 1399              		.type	ADC_ClearFlag, %function
 1400              	ADC_ClearFlag:
 1401              	.LFB147:
 1402              		.loc 1 1661 0
 1403              		.cfi_startproc
 1404              		@ args = 0, pretend = 0, frame = 0
 1405              		@ frame_needed = 0, uses_anonymous_args = 0
 1406              		@ link register save eliminated.
 1407              	.LVL133:
 1408              		.loc 1 1667 0
 1409 0000 C943     		mvns	r1, r1
 1410              	.LVL134:
 1411 0002 0160     		str	r1, [r0]
 1412 0004 7047     		bx	lr
 1413              		.cfi_endproc
 1414              	.LFE147:
 1415              		.size	ADC_ClearFlag, .-ADC_ClearFlag
 1416 0006 00BFAFF3 		.section	.text.ADC_GetITStatus,"ax",%progbits
 1416      0080AFF3 
 1416      0080
 1417              		.align	2
 1418              		.p2align 4,,15
 1419              		.global	ADC_GetITStatus
 1420              		.thumb
 1421              		.thumb_func
 1422              		.type	ADC_GetITStatus, %function
 1423              	ADC_GetITStatus:
 1424              	.LFB148:
 1425              		.loc 1 1682 0
 1426              		.cfi_startproc
 1427              		@ args = 0, pretend = 0, frame = 0
 1428              		@ frame_needed = 0, uses_anonymous_args = 0
 1429              		@ link register save eliminated.
 1430              	.LVL135:
 1431              		.loc 1 1694 0
 1432 0000 4368     		ldr	r3, [r0, #4]
 1433              	.LVL136:
 1434              		.loc 1 1697 0
 1435 0002 0068     		ldr	r0, [r0]
 1436              	.LVL137:
 1437 0004 10EA1120 		ands	r0, r0, r1, lsr #8
 1438 0008 07D0     		beq	.L97
 1439              		.loc 1 1694 0 discriminator 1
 1440 000a C9B2     		uxtb	r1, r1
 1441              	.LVL138:
 1442 000c 0122     		movs	r2, #1
 1443 000e 02FA01F1 		lsl	r1, r2, r1
 1444              		.loc 1 1697 0 discriminator 1
ARM GAS  /tmp/ccqRxWEk.s 			page 27


 1445 0012 1942     		tst	r1, r3
 1446              		.loc 1 1700 0 discriminator 1
 1447 0014 0CBF     		ite	eq
 1448 0016 0020     		moveq	r0, #0
 1449 0018 0120     		movne	r0, #1
 1450              	.L97:
 1451              	.LVL139:
 1452              		.loc 1 1709 0
 1453 001a 7047     		bx	lr
 1454              		.cfi_endproc
 1455              	.LFE148:
 1456              		.size	ADC_GetITStatus, .-ADC_GetITStatus
 1457 001c AFF30080 		.section	.text.ADC_ClearITPendingBit,"ax",%progbits
 1458              		.align	2
 1459              		.p2align 4,,15
 1460              		.global	ADC_ClearITPendingBit
 1461              		.thumb
 1462              		.thumb_func
 1463              		.type	ADC_ClearITPendingBit, %function
 1464              	ADC_ClearITPendingBit:
 1465              	.LFB149:
 1466              		.loc 1 1723 0
 1467              		.cfi_startproc
 1468              		@ args = 0, pretend = 0, frame = 0
 1469              		@ frame_needed = 0, uses_anonymous_args = 0
 1470              		@ link register save eliminated.
 1471              	.LVL140:
 1472              		.loc 1 1731 0
 1473 0000 6FEA1121 		mvn	r1, r1, lsr #8
 1474              	.LVL141:
 1475 0004 0160     		str	r1, [r0]
 1476 0006 7047     		bx	lr
 1477              		.cfi_endproc
 1478              	.LFE149:
 1479              		.size	ADC_ClearITPendingBit, .-ADC_ClearITPendingBit
 1480 0008 AFF30080 		.text
 1480      AFF30080 
 1481              	.Letext0:
 1482              		.file 2 "/usr/include/newlib/machine/_default_types.h"
 1483              		.file 3 "/usr/include/newlib/stdint.h"
 1484              		.file 4 "ChibiOS_3.0.2/os/ext/CMSIS/ST/stm32f407xx.h"
 1485              		.file 5 "ChibiOS_3.0.2/os/ext/CMSIS/ST/stm32f4xx.h"
 1486              		.file 6 "ChibiOS_3.0.2/ext/stdperiph_stm32f4/inc/stm32f4xx_adc.h"
 1487              		.file 7 "ChibiOS_3.0.2/os/ext/CMSIS/include/core_cm4.h"
 1488              		.file 8 "ChibiOS_3.0.2/ext/stdperiph_stm32f4/inc/stm32f4xx_rcc.h"
 1489              		.section	.debug_info,"",%progbits
 1490              	.Ldebug_info0:
 1491 0000 640C0000 		.4byte	0xc64
 1492 0004 0400     		.2byte	0x4
 1493 0006 00000000 		.4byte	.Ldebug_abbrev0
 1494 000a 04       		.byte	0x4
 1495 000b 01       		.uleb128 0x1
 1496 000c DE010000 		.4byte	.LASF115
 1497 0010 01       		.byte	0x1
 1498 0011 89000000 		.4byte	.LASF116
 1499 0015 20030000 		.4byte	.LASF117
 1500 0019 00000000 		.4byte	.Ldebug_ranges0+0
ARM GAS  /tmp/ccqRxWEk.s 			page 28


 1501 001d 00000000 		.4byte	0
 1502 0021 00000000 		.4byte	.Ldebug_line0
 1503 0025 02       		.uleb128 0x2
 1504 0026 01       		.byte	0x1
 1505 0027 06       		.byte	0x6
 1506 0028 F5000000 		.4byte	.LASF0
 1507 002c 03       		.uleb128 0x3
 1508 002d 46000000 		.4byte	.LASF3
 1509 0031 02       		.byte	0x2
 1510 0032 1D       		.byte	0x1d
 1511 0033 37000000 		.4byte	0x37
 1512 0037 02       		.uleb128 0x2
 1513 0038 01       		.byte	0x1
 1514 0039 08       		.byte	0x8
 1515 003a 73060000 		.4byte	.LASF1
 1516 003e 02       		.uleb128 0x2
 1517 003f 02       		.byte	0x2
 1518 0040 05       		.byte	0x5
 1519 0041 81060000 		.4byte	.LASF2
 1520 0045 03       		.uleb128 0x3
 1521 0046 62070000 		.4byte	.LASF4
 1522 004a 02       		.byte	0x2
 1523 004b 2B       		.byte	0x2b
 1524 004c 50000000 		.4byte	0x50
 1525 0050 02       		.uleb128 0x2
 1526 0051 02       		.byte	0x2
 1527 0052 07       		.byte	0x7
 1528 0053 20040000 		.4byte	.LASF5
 1529 0057 03       		.uleb128 0x3
 1530 0058 89070000 		.4byte	.LASF6
 1531 005c 02       		.byte	0x2
 1532 005d 3F       		.byte	0x3f
 1533 005e 62000000 		.4byte	0x62
 1534 0062 02       		.uleb128 0x2
 1535 0063 04       		.byte	0x4
 1536 0064 05       		.byte	0x5
 1537 0065 99010000 		.4byte	.LASF7
 1538 0069 03       		.uleb128 0x3
 1539 006a E7020000 		.4byte	.LASF8
 1540 006e 02       		.byte	0x2
 1541 006f 41       		.byte	0x41
 1542 0070 74000000 		.4byte	0x74
 1543 0074 02       		.uleb128 0x2
 1544 0075 04       		.byte	0x4
 1545 0076 07       		.byte	0x7
 1546 0077 C5030000 		.4byte	.LASF9
 1547 007b 02       		.uleb128 0x2
 1548 007c 08       		.byte	0x8
 1549 007d 05       		.byte	0x5
 1550 007e E7000000 		.4byte	.LASF10
 1551 0082 02       		.uleb128 0x2
 1552 0083 08       		.byte	0x8
 1553 0084 07       		.byte	0x7
 1554 0085 6C000000 		.4byte	.LASF11
 1555 0089 04       		.uleb128 0x4
 1556 008a 04       		.byte	0x4
 1557 008b 05       		.byte	0x5
ARM GAS  /tmp/ccqRxWEk.s 			page 29


 1558 008c 696E7400 		.ascii	"int\000"
 1559 0090 02       		.uleb128 0x2
 1560 0091 04       		.byte	0x4
 1561 0092 07       		.byte	0x7
 1562 0093 AB030000 		.4byte	.LASF12
 1563 0097 03       		.uleb128 0x3
 1564 0098 12080000 		.4byte	.LASF13
 1565 009c 03       		.byte	0x3
 1566 009d 2A       		.byte	0x2a
 1567 009e 2C000000 		.4byte	0x2c
 1568 00a2 03       		.uleb128 0x3
 1569 00a3 D5010000 		.4byte	.LASF14
 1570 00a7 03       		.byte	0x3
 1571 00a8 36       		.byte	0x36
 1572 00a9 45000000 		.4byte	0x45
 1573 00ad 03       		.uleb128 0x3
 1574 00ae 6B060000 		.4byte	.LASF15
 1575 00b2 03       		.byte	0x3
 1576 00b3 41       		.byte	0x41
 1577 00b4 57000000 		.4byte	0x57
 1578 00b8 03       		.uleb128 0x3
 1579 00b9 06070000 		.4byte	.LASF16
 1580 00bd 03       		.byte	0x3
 1581 00be 42       		.byte	0x42
 1582 00bf 69000000 		.4byte	0x69
 1583 00c3 02       		.uleb128 0x2
 1584 00c4 04       		.byte	0x4
 1585 00c5 07       		.byte	0x7
 1586 00c6 10050000 		.4byte	.LASF17
 1587 00ca 05       		.uleb128 0x5
 1588 00cb B8000000 		.4byte	0xb8
 1589 00cf 06       		.uleb128 0x6
 1590 00d0 50       		.byte	0x50
 1591 00d1 04       		.byte	0x4
 1592 00d2 C4       		.byte	0xc4
 1593 00d3 C6010000 		.4byte	0x1c6
 1594 00d7 07       		.uleb128 0x7
 1595 00d8 535200   		.ascii	"SR\000"
 1596 00db 04       		.byte	0x4
 1597 00dc C6       		.byte	0xc6
 1598 00dd CA000000 		.4byte	0xca
 1599 00e1 00       		.byte	0
 1600 00e2 07       		.uleb128 0x7
 1601 00e3 43523100 		.ascii	"CR1\000"
 1602 00e7 04       		.byte	0x4
 1603 00e8 C7       		.byte	0xc7
 1604 00e9 CA000000 		.4byte	0xca
 1605 00ed 04       		.byte	0x4
 1606 00ee 07       		.uleb128 0x7
 1607 00ef 43523200 		.ascii	"CR2\000"
 1608 00f3 04       		.byte	0x4
 1609 00f4 C8       		.byte	0xc8
 1610 00f5 CA000000 		.4byte	0xca
 1611 00f9 08       		.byte	0x8
 1612 00fa 08       		.uleb128 0x8
 1613 00fb 70050000 		.4byte	.LASF18
 1614 00ff 04       		.byte	0x4
ARM GAS  /tmp/ccqRxWEk.s 			page 30


 1615 0100 C9       		.byte	0xc9
 1616 0101 CA000000 		.4byte	0xca
 1617 0105 0C       		.byte	0xc
 1618 0106 08       		.uleb128 0x8
 1619 0107 50000000 		.4byte	.LASF19
 1620 010b 04       		.byte	0x4
 1621 010c CA       		.byte	0xca
 1622 010d CA000000 		.4byte	0xca
 1623 0111 10       		.byte	0x10
 1624 0112 08       		.uleb128 0x8
 1625 0113 83000000 		.4byte	.LASF20
 1626 0117 04       		.byte	0x4
 1627 0118 CB       		.byte	0xcb
 1628 0119 CA000000 		.4byte	0xca
 1629 011d 14       		.byte	0x14
 1630 011e 08       		.uleb128 0x8
 1631 011f B6040000 		.4byte	.LASF21
 1632 0123 04       		.byte	0x4
 1633 0124 CC       		.byte	0xcc
 1634 0125 CA000000 		.4byte	0xca
 1635 0129 18       		.byte	0x18
 1636 012a 08       		.uleb128 0x8
 1637 012b BC040000 		.4byte	.LASF22
 1638 012f 04       		.byte	0x4
 1639 0130 CD       		.byte	0xcd
 1640 0131 CA000000 		.4byte	0xca
 1641 0135 1C       		.byte	0x1c
 1642 0136 08       		.uleb128 0x8
 1643 0137 E0060000 		.4byte	.LASF23
 1644 013b 04       		.byte	0x4
 1645 013c CE       		.byte	0xce
 1646 013d CA000000 		.4byte	0xca
 1647 0141 20       		.byte	0x20
 1648 0142 07       		.uleb128 0x7
 1649 0143 48545200 		.ascii	"HTR\000"
 1650 0147 04       		.byte	0x4
 1651 0148 CF       		.byte	0xcf
 1652 0149 CA000000 		.4byte	0xca
 1653 014d 24       		.byte	0x24
 1654 014e 07       		.uleb128 0x7
 1655 014f 4C545200 		.ascii	"LTR\000"
 1656 0153 04       		.byte	0x4
 1657 0154 D0       		.byte	0xd0
 1658 0155 CA000000 		.4byte	0xca
 1659 0159 28       		.byte	0x28
 1660 015a 08       		.uleb128 0x8
 1661 015b B2050000 		.4byte	.LASF24
 1662 015f 04       		.byte	0x4
 1663 0160 D1       		.byte	0xd1
 1664 0161 CA000000 		.4byte	0xca
 1665 0165 2C       		.byte	0x2c
 1666 0166 08       		.uleb128 0x8
 1667 0167 B7050000 		.4byte	.LASF25
 1668 016b 04       		.byte	0x4
 1669 016c D2       		.byte	0xd2
 1670 016d CA000000 		.4byte	0xca
 1671 0171 30       		.byte	0x30
ARM GAS  /tmp/ccqRxWEk.s 			page 31


 1672 0172 08       		.uleb128 0x8
 1673 0173 BC050000 		.4byte	.LASF26
 1674 0177 04       		.byte	0x4
 1675 0178 D3       		.byte	0xd3
 1676 0179 CA000000 		.4byte	0xca
 1677 017d 34       		.byte	0x34
 1678 017e 08       		.uleb128 0x8
 1679 017f E2000000 		.4byte	.LASF27
 1680 0183 04       		.byte	0x4
 1681 0184 D4       		.byte	0xd4
 1682 0185 CA000000 		.4byte	0xca
 1683 0189 38       		.byte	0x38
 1684 018a 08       		.uleb128 0x8
 1685 018b 2C080000 		.4byte	.LASF28
 1686 018f 04       		.byte	0x4
 1687 0190 D5       		.byte	0xd5
 1688 0191 CA000000 		.4byte	0xca
 1689 0195 3C       		.byte	0x3c
 1690 0196 08       		.uleb128 0x8
 1691 0197 31080000 		.4byte	.LASF29
 1692 019b 04       		.byte	0x4
 1693 019c D6       		.byte	0xd6
 1694 019d CA000000 		.4byte	0xca
 1695 01a1 40       		.byte	0x40
 1696 01a2 08       		.uleb128 0x8
 1697 01a3 36080000 		.4byte	.LASF30
 1698 01a7 04       		.byte	0x4
 1699 01a8 D7       		.byte	0xd7
 1700 01a9 CA000000 		.4byte	0xca
 1701 01ad 44       		.byte	0x44
 1702 01ae 08       		.uleb128 0x8
 1703 01af 3B080000 		.4byte	.LASF31
 1704 01b3 04       		.byte	0x4
 1705 01b4 D8       		.byte	0xd8
 1706 01b5 CA000000 		.4byte	0xca
 1707 01b9 48       		.byte	0x48
 1708 01ba 07       		.uleb128 0x7
 1709 01bb 445200   		.ascii	"DR\000"
 1710 01be 04       		.byte	0x4
 1711 01bf D9       		.byte	0xd9
 1712 01c0 CA000000 		.4byte	0xca
 1713 01c4 4C       		.byte	0x4c
 1714 01c5 00       		.byte	0
 1715 01c6 03       		.uleb128 0x3
 1716 01c7 19050000 		.4byte	.LASF32
 1717 01cb 04       		.byte	0x4
 1718 01cc DA       		.byte	0xda
 1719 01cd CF000000 		.4byte	0xcf
 1720 01d1 06       		.uleb128 0x6
 1721 01d2 0C       		.byte	0xc
 1722 01d3 04       		.byte	0x4
 1723 01d4 DC       		.byte	0xdc
 1724 01d5 FE010000 		.4byte	0x1fe
 1725 01d9 07       		.uleb128 0x7
 1726 01da 43535200 		.ascii	"CSR\000"
 1727 01de 04       		.byte	0x4
 1728 01df DE       		.byte	0xde
ARM GAS  /tmp/ccqRxWEk.s 			page 32


 1729 01e0 CA000000 		.4byte	0xca
 1730 01e4 00       		.byte	0
 1731 01e5 07       		.uleb128 0x7
 1732 01e6 43435200 		.ascii	"CCR\000"
 1733 01ea 04       		.byte	0x4
 1734 01eb DF       		.byte	0xdf
 1735 01ec CA000000 		.4byte	0xca
 1736 01f0 04       		.byte	0x4
 1737 01f1 07       		.uleb128 0x7
 1738 01f2 43445200 		.ascii	"CDR\000"
 1739 01f6 04       		.byte	0x4
 1740 01f7 E0       		.byte	0xe0
 1741 01f8 CA000000 		.4byte	0xca
 1742 01fc 08       		.byte	0x8
 1743 01fd 00       		.byte	0
 1744 01fe 03       		.uleb128 0x3
 1745 01ff 30050000 		.4byte	.LASF33
 1746 0203 04       		.byte	0x4
 1747 0204 E2       		.byte	0xe2
 1748 0205 D1010000 		.4byte	0x1d1
 1749 0209 09       		.uleb128 0x9
 1750 020a 01       		.byte	0x1
 1751 020b 05       		.byte	0x5
 1752 020c A2       		.byte	0xa2
 1753 020d 1E020000 		.4byte	0x21e
 1754 0211 0A       		.uleb128 0xa
 1755 0212 EF050000 		.4byte	.LASF34
 1756 0216 00       		.sleb128 0
 1757 0217 0B       		.uleb128 0xb
 1758 0218 53455400 		.ascii	"SET\000"
 1759 021c 01       		.sleb128 1
 1760 021d 00       		.byte	0
 1761 021e 03       		.uleb128 0x3
 1762 021f 25000000 		.4byte	.LASF35
 1763 0223 05       		.byte	0x5
 1764 0224 A5       		.byte	0xa5
 1765 0225 09020000 		.4byte	0x209
 1766 0229 03       		.uleb128 0x3
 1767 022a 8A030000 		.4byte	.LASF36
 1768 022e 05       		.byte	0x5
 1769 022f A5       		.byte	0xa5
 1770 0230 09020000 		.4byte	0x209
 1771 0234 09       		.uleb128 0x9
 1772 0235 01       		.byte	0x1
 1773 0236 05       		.byte	0x5
 1774 0237 A8       		.byte	0xa8
 1775 0238 49020000 		.4byte	0x249
 1776 023c 0A       		.uleb128 0xa
 1777 023d 64000000 		.4byte	.LASF37
 1778 0241 00       		.sleb128 0
 1779 0242 0A       		.uleb128 0xa
 1780 0243 CE010000 		.4byte	.LASF38
 1781 0247 01       		.sleb128 1
 1782 0248 00       		.byte	0
 1783 0249 03       		.uleb128 0x3
 1784 024a 7A030000 		.4byte	.LASF39
 1785 024e 05       		.byte	0x5
ARM GAS  /tmp/ccqRxWEk.s 			page 33


 1786 024f AB       		.byte	0xab
 1787 0250 34020000 		.4byte	0x234
 1788 0254 06       		.uleb128 0x6
 1789 0255 18       		.byte	0x18
 1790 0256 06       		.byte	0x6
 1791 0257 35       		.byte	0x35
 1792 0258 B1020000 		.4byte	0x2b1
 1793 025c 08       		.uleb128 0x8
 1794 025d 4A080000 		.4byte	.LASF40
 1795 0261 06       		.byte	0x6
 1796 0262 37       		.byte	0x37
 1797 0263 B8000000 		.4byte	0xb8
 1798 0267 00       		.byte	0
 1799 0268 08       		.uleb128 0x8
 1800 0269 CF060000 		.4byte	.LASF41
 1801 026d 06       		.byte	0x6
 1802 026e 39       		.byte	0x39
 1803 026f 49020000 		.4byte	0x249
 1804 0273 04       		.byte	0x4
 1805 0274 08       		.uleb128 0x8
 1806 0275 82010000 		.4byte	.LASF42
 1807 0279 06       		.byte	0x6
 1808 027a 3D       		.byte	0x3d
 1809 027b 49020000 		.4byte	0x249
 1810 027f 05       		.byte	0x5
 1811 0280 08       		.uleb128 0x8
 1812 0281 B6060000 		.4byte	.LASF43
 1813 0285 06       		.byte	0x6
 1814 0286 40       		.byte	0x40
 1815 0287 B8000000 		.4byte	0xb8
 1816 028b 08       		.byte	0x8
 1817 028c 08       		.uleb128 0x8
 1818 028d 10000000 		.4byte	.LASF44
 1819 0291 06       		.byte	0x6
 1820 0292 44       		.byte	0x44
 1821 0293 B8000000 		.4byte	0xb8
 1822 0297 0C       		.byte	0xc
 1823 0298 08       		.uleb128 0x8
 1824 0299 0F070000 		.4byte	.LASF45
 1825 029d 06       		.byte	0x6
 1826 029e 48       		.byte	0x48
 1827 029f B8000000 		.4byte	0xb8
 1828 02a3 10       		.byte	0x10
 1829 02a4 08       		.uleb128 0x8
 1830 02a5 C1000000 		.4byte	.LASF46
 1831 02a9 06       		.byte	0x6
 1832 02aa 4B       		.byte	0x4b
 1833 02ab 97000000 		.4byte	0x97
 1834 02af 14       		.byte	0x14
 1835 02b0 00       		.byte	0
 1836 02b1 03       		.uleb128 0x3
 1837 02b2 E6060000 		.4byte	.LASF47
 1838 02b6 06       		.byte	0x6
 1839 02b7 4F       		.byte	0x4f
 1840 02b8 54020000 		.4byte	0x254
 1841 02bc 06       		.uleb128 0x6
 1842 02bd 10       		.byte	0x10
ARM GAS  /tmp/ccqRxWEk.s 			page 34


 1843 02be 06       		.byte	0x6
 1844 02bf 54       		.byte	0x54
 1845 02c0 F5020000 		.4byte	0x2f5
 1846 02c4 08       		.uleb128 0x8
 1847 02c5 8B060000 		.4byte	.LASF48
 1848 02c9 06       		.byte	0x6
 1849 02ca 56       		.byte	0x56
 1850 02cb B8000000 		.4byte	0xb8
 1851 02cf 00       		.byte	0
 1852 02d0 08       		.uleb128 0x8
 1853 02d1 54070000 		.4byte	.LASF49
 1854 02d5 06       		.byte	0x6
 1855 02d6 59       		.byte	0x59
 1856 02d7 B8000000 		.4byte	0xb8
 1857 02db 04       		.byte	0x4
 1858 02dc 08       		.uleb128 0x8
 1859 02dd F0030000 		.4byte	.LASF50
 1860 02e1 06       		.byte	0x6
 1861 02e2 5C       		.byte	0x5c
 1862 02e3 B8000000 		.4byte	0xb8
 1863 02e7 08       		.byte	0x8
 1864 02e8 08       		.uleb128 0x8
 1865 02e9 8E080000 		.4byte	.LASF51
 1866 02ed 06       		.byte	0x6
 1867 02ee 60       		.byte	0x60
 1868 02ef B8000000 		.4byte	0xb8
 1869 02f3 0C       		.byte	0xc
 1870 02f4 00       		.byte	0
 1871 02f5 03       		.uleb128 0x3
 1872 02f6 30000000 		.4byte	.LASF52
 1873 02fa 06       		.byte	0x6
 1874 02fb 64       		.byte	0x64
 1875 02fc BC020000 		.4byte	0x2bc
 1876 0300 0C       		.uleb128 0xc
 1877 0301 87040000 		.4byte	.LASF53
 1878 0305 01       		.byte	0x1
 1879 0306 D9       		.byte	0xd9
 1880 0307 00000000 		.4byte	.LFB112
 1881 030b 1A000000 		.4byte	.LFE112-.LFB112
 1882 030f 01       		.uleb128 0x1
 1883 0310 9C       		.byte	0x9c
 1884 0311 46030000 		.4byte	0x346
 1885 0315 0D       		.uleb128 0xd
 1886 0316 0C000000 		.4byte	.LVL0
 1887 031a 540C0000 		.4byte	0xc54
 1888 031e 2F030000 		.4byte	0x32f
 1889 0322 0E       		.uleb128 0xe
 1890 0323 01       		.uleb128 0x1
 1891 0324 51       		.byte	0x51
 1892 0325 01       		.uleb128 0x1
 1893 0326 31       		.byte	0x31
 1894 0327 0E       		.uleb128 0xe
 1895 0328 01       		.uleb128 0x1
 1896 0329 50       		.byte	0x50
 1897 032a 03       		.uleb128 0x3
 1898 032b 0A       		.byte	0xa
 1899 032c 0001     		.2byte	0x100
ARM GAS  /tmp/ccqRxWEk.s 			page 35


 1900 032e 00       		.byte	0
 1901 032f 0F       		.uleb128 0xf
 1902 0330 1A000000 		.4byte	.LVL1
 1903 0334 540C0000 		.4byte	0xc54
 1904 0338 0E       		.uleb128 0xe
 1905 0339 01       		.uleb128 0x1
 1906 033a 51       		.byte	0x51
 1907 033b 01       		.uleb128 0x1
 1908 033c 30       		.byte	0x30
 1909 033d 0E       		.uleb128 0xe
 1910 033e 01       		.uleb128 0x1
 1911 033f 50       		.byte	0x50
 1912 0340 03       		.uleb128 0x3
 1913 0341 0A       		.byte	0xa
 1914 0342 0001     		.2byte	0x100
 1915 0344 00       		.byte	0
 1916 0345 00       		.byte	0
 1917 0346 0C       		.uleb128 0xc
 1918 0347 5B000000 		.4byte	.LASF54
 1919 034b 01       		.byte	0x1
 1920 034c EF       		.byte	0xef
 1921 034d 00000000 		.4byte	.LFB113
 1922 0351 58000000 		.4byte	.LFE113-.LFB113
 1923 0355 01       		.uleb128 0x1
 1924 0356 9C       		.byte	0x9c
 1925 0357 94030000 		.4byte	0x394
 1926 035b 10       		.uleb128 0x10
 1927 035c 56000000 		.4byte	.LASF55
 1928 0360 01       		.byte	0x1
 1929 0361 EF       		.byte	0xef
 1930 0362 94030000 		.4byte	0x394
 1931 0366 01       		.uleb128 0x1
 1932 0367 50       		.byte	0x50
 1933 0368 10       		.uleb128 0x10
 1934 0369 D8020000 		.4byte	.LASF56
 1935 036d 01       		.byte	0x1
 1936 036e EF       		.byte	0xef
 1937 036f 9A030000 		.4byte	0x39a
 1938 0373 01       		.uleb128 0x1
 1939 0374 51       		.byte	0x51
 1940 0375 11       		.uleb128 0x11
 1941 0376 6F040000 		.4byte	.LASF57
 1942 037a 01       		.byte	0x1
 1943 037b F1       		.byte	0xf1
 1944 037c B8000000 		.4byte	0xb8
 1945 0380 00000000 		.4byte	.LLST0
 1946 0384 11       		.uleb128 0x11
 1947 0385 77040000 		.4byte	.LASF58
 1948 0389 01       		.byte	0x1
 1949 038a F2       		.byte	0xf2
 1950 038b 97000000 		.4byte	0x97
 1951 038f 92000000 		.4byte	.LLST1
 1952 0393 00       		.byte	0
 1953 0394 12       		.uleb128 0x12
 1954 0395 04       		.byte	0x4
 1955 0396 C6010000 		.4byte	0x1c6
 1956 039a 12       		.uleb128 0x12
ARM GAS  /tmp/ccqRxWEk.s 			page 36


 1957 039b 04       		.byte	0x4
 1958 039c B1020000 		.4byte	0x2b1
 1959 03a0 13       		.uleb128 0x13
 1960 03a1 11030000 		.4byte	.LASF59
 1961 03a5 01       		.byte	0x1
 1962 03a6 3A01     		.2byte	0x13a
 1963 03a8 00000000 		.4byte	.LFB114
 1964 03ac 14000000 		.4byte	.LFE114-.LFB114
 1965 03b0 01       		.uleb128 0x1
 1966 03b1 9C       		.byte	0x9c
 1967 03b2 C5030000 		.4byte	0x3c5
 1968 03b6 14       		.uleb128 0x14
 1969 03b7 D8020000 		.4byte	.LASF56
 1970 03bb 01       		.byte	0x1
 1971 03bc 3A01     		.2byte	0x13a
 1972 03be 9A030000 		.4byte	0x39a
 1973 03c2 01       		.uleb128 0x1
 1974 03c3 50       		.byte	0x50
 1975 03c4 00       		.byte	0
 1976 03c5 13       		.uleb128 0x13
 1977 03c6 6D070000 		.4byte	.LASF60
 1978 03ca 01       		.byte	0x1
 1979 03cb 5901     		.2byte	0x159
 1980 03cd 00000000 		.4byte	.LFB115
 1981 03d1 28000000 		.4byte	.LFE115-.LFB115
 1982 03d5 01       		.uleb128 0x1
 1983 03d6 9C       		.byte	0x9c
 1984 03d7 FC030000 		.4byte	0x3fc
 1985 03db 15       		.uleb128 0x15
 1986 03dc 56060000 		.4byte	.LASF61
 1987 03e0 01       		.byte	0x1
 1988 03e1 5901     		.2byte	0x159
 1989 03e3 FC030000 		.4byte	0x3fc
 1990 03e7 B7000000 		.4byte	.LLST2
 1991 03eb 16       		.uleb128 0x16
 1992 03ec 6F040000 		.4byte	.LASF57
 1993 03f0 01       		.byte	0x1
 1994 03f1 5B01     		.2byte	0x15b
 1995 03f3 B8000000 		.4byte	0xb8
 1996 03f7 D8000000 		.4byte	.LLST3
 1997 03fb 00       		.byte	0
 1998 03fc 12       		.uleb128 0x12
 1999 03fd 04       		.byte	0x4
 2000 03fe F5020000 		.4byte	0x2f5
 2001 0402 13       		.uleb128 0x13
 2002 0403 33040000 		.4byte	.LASF62
 2003 0407 01       		.byte	0x1
 2004 0408 7D01     		.2byte	0x17d
 2005 040a 00000000 		.4byte	.LFB116
 2006 040e 0C000000 		.4byte	.LFE116-.LFB116
 2007 0412 01       		.uleb128 0x1
 2008 0413 9C       		.byte	0x9c
 2009 0414 27040000 		.4byte	0x427
 2010 0418 14       		.uleb128 0x14
 2011 0419 56060000 		.4byte	.LASF61
 2012 041d 01       		.byte	0x1
 2013 041e 7D01     		.2byte	0x17d
ARM GAS  /tmp/ccqRxWEk.s 			page 37


 2014 0420 FC030000 		.4byte	0x3fc
 2015 0424 01       		.uleb128 0x1
 2016 0425 50       		.byte	0x50
 2017 0426 00       		.byte	0
 2018 0427 13       		.uleb128 0x13
 2019 0428 7A010000 		.4byte	.LASF63
 2020 042c 01       		.byte	0x1
 2021 042d 9301     		.2byte	0x193
 2022 042f 00000000 		.4byte	.LFB117
 2023 0433 14000000 		.4byte	.LFE117-.LFB117
 2024 0437 01       		.uleb128 0x1
 2025 0438 9C       		.byte	0x9c
 2026 0439 5A040000 		.4byte	0x45a
 2027 043d 14       		.uleb128 0x14
 2028 043e 56000000 		.4byte	.LASF55
 2029 0442 01       		.byte	0x1
 2030 0443 9301     		.2byte	0x193
 2031 0445 94030000 		.4byte	0x394
 2032 0449 01       		.uleb128 0x1
 2033 044a 50       		.byte	0x50
 2034 044b 14       		.uleb128 0x14
 2035 044c 00000000 		.4byte	.LASF64
 2036 0450 01       		.byte	0x1
 2037 0451 9301     		.2byte	0x193
 2038 0453 49020000 		.4byte	0x249
 2039 0457 01       		.uleb128 0x1
 2040 0458 51       		.byte	0x51
 2041 0459 00       		.byte	0
 2042 045a 13       		.uleb128 0x13
 2043 045b F5070000 		.4byte	.LASF65
 2044 045f 01       		.byte	0x1
 2045 0460 CB01     		.2byte	0x1cb
 2046 0462 00000000 		.4byte	.LFB118
 2047 0466 10000000 		.4byte	.LFE118-.LFB118
 2048 046a 01       		.uleb128 0x1
 2049 046b 9C       		.byte	0x9c
 2050 046c 9F040000 		.4byte	0x49f
 2051 0470 14       		.uleb128 0x14
 2052 0471 56000000 		.4byte	.LASF55
 2053 0475 01       		.byte	0x1
 2054 0476 CB01     		.2byte	0x1cb
 2055 0478 94030000 		.4byte	0x394
 2056 047c 01       		.uleb128 0x1
 2057 047d 50       		.byte	0x50
 2058 047e 15       		.uleb128 0x15
 2059 047f 5D050000 		.4byte	.LASF66
 2060 0483 01       		.byte	0x1
 2061 0484 CB01     		.2byte	0x1cb
 2062 0486 B8000000 		.4byte	0xb8
 2063 048a 02010000 		.4byte	.LLST4
 2064 048e 16       		.uleb128 0x16
 2065 048f 5C010000 		.4byte	.LASF67
 2066 0493 01       		.byte	0x1
 2067 0494 CD01     		.2byte	0x1cd
 2068 0496 B8000000 		.4byte	0xb8
 2069 049a 23010000 		.4byte	.LLST5
 2070 049e 00       		.byte	0
ARM GAS  /tmp/ccqRxWEk.s 			page 38


 2071 049f 13       		.uleb128 0x13
 2072 04a0 01010000 		.4byte	.LASF68
 2073 04a4 01       		.byte	0x1
 2074 04a5 E801     		.2byte	0x1e8
 2075 04a7 00000000 		.4byte	.LFB119
 2076 04ab 06000000 		.4byte	.LFE119-.LFB119
 2077 04af 01       		.uleb128 0x1
 2078 04b0 9C       		.byte	0x9c
 2079 04b1 E0040000 		.4byte	0x4e0
 2080 04b5 14       		.uleb128 0x14
 2081 04b6 56000000 		.4byte	.LASF55
 2082 04ba 01       		.byte	0x1
 2083 04bb E801     		.2byte	0x1e8
 2084 04bd 94030000 		.4byte	0x394
 2085 04c1 01       		.uleb128 0x1
 2086 04c2 50       		.byte	0x50
 2087 04c3 14       		.uleb128 0x14
 2088 04c4 61040000 		.4byte	.LASF69
 2089 04c8 01       		.byte	0x1
 2090 04c9 E801     		.2byte	0x1e8
 2091 04cb A2000000 		.4byte	0xa2
 2092 04cf 01       		.uleb128 0x1
 2093 04d0 51       		.byte	0x51
 2094 04d1 14       		.uleb128 0x14
 2095 04d2 6D030000 		.4byte	.LASF70
 2096 04d6 01       		.byte	0x1
 2097 04d7 E901     		.2byte	0x1e9
 2098 04d9 A2000000 		.4byte	0xa2
 2099 04dd 01       		.uleb128 0x1
 2100 04de 52       		.byte	0x52
 2101 04df 00       		.byte	0
 2102 04e0 13       		.uleb128 0x13
 2103 04e1 47030000 		.4byte	.LASF71
 2104 04e5 01       		.byte	0x1
 2105 04e6 1102     		.2byte	0x211
 2106 04e8 00000000 		.4byte	.LFB120
 2107 04ec 0C000000 		.4byte	.LFE120-.LFB120
 2108 04f0 01       		.uleb128 0x1
 2109 04f1 9C       		.byte	0x9c
 2110 04f2 25050000 		.4byte	0x525
 2111 04f6 14       		.uleb128 0x14
 2112 04f7 56000000 		.4byte	.LASF55
 2113 04fb 01       		.byte	0x1
 2114 04fc 1102     		.2byte	0x211
 2115 04fe 94030000 		.4byte	0x394
 2116 0502 01       		.uleb128 0x1
 2117 0503 50       		.byte	0x50
 2118 0504 15       		.uleb128 0x15
 2119 0505 E3050000 		.4byte	.LASF72
 2120 0509 01       		.byte	0x1
 2121 050a 1102     		.2byte	0x211
 2122 050c 97000000 		.4byte	0x97
 2123 0510 58010000 		.4byte	.LLST6
 2124 0514 16       		.uleb128 0x16
 2125 0515 5C010000 		.4byte	.LASF67
 2126 0519 01       		.byte	0x1
 2127 051a 1302     		.2byte	0x213
ARM GAS  /tmp/ccqRxWEk.s 			page 39


 2128 051c B8000000 		.4byte	0xb8
 2129 0520 79010000 		.4byte	.LLST7
 2130 0524 00       		.byte	0
 2131 0525 13       		.uleb128 0x13
 2132 0526 D7030000 		.4byte	.LASF73
 2133 052a 01       		.byte	0x1
 2134 052b 5102     		.2byte	0x251
 2135 052d 00000000 		.4byte	.LFB121
 2136 0531 1C000000 		.4byte	.LFE121-.LFB121
 2137 0535 01       		.uleb128 0x1
 2138 0536 9C       		.byte	0x9c
 2139 0537 4A050000 		.4byte	0x54a
 2140 053b 14       		.uleb128 0x14
 2141 053c 00000000 		.4byte	.LASF64
 2142 0540 01       		.byte	0x1
 2143 0541 5102     		.2byte	0x251
 2144 0543 49020000 		.4byte	0x249
 2145 0547 01       		.uleb128 0x1
 2146 0548 50       		.byte	0x50
 2147 0549 00       		.byte	0
 2148 054a 13       		.uleb128 0x13
 2149 054b A3080000 		.4byte	.LASF74
 2150 054f 01       		.byte	0x1
 2151 0550 6B02     		.2byte	0x26b
 2152 0552 00000000 		.4byte	.LFB122
 2153 0556 1C000000 		.4byte	.LFE122-.LFB122
 2154 055a 01       		.uleb128 0x1
 2155 055b 9C       		.byte	0x9c
 2156 055c 6F050000 		.4byte	0x56f
 2157 0560 14       		.uleb128 0x14
 2158 0561 00000000 		.4byte	.LASF64
 2159 0565 01       		.byte	0x1
 2160 0566 6B02     		.2byte	0x26b
 2161 0568 49020000 		.4byte	0x249
 2162 056c 01       		.uleb128 0x1
 2163 056d 50       		.byte	0x50
 2164 056e 00       		.byte	0
 2165 056f 13       		.uleb128 0x13
 2166 0570 48040000 		.4byte	.LASF75
 2167 0574 01       		.byte	0x1
 2168 0575 CF02     		.2byte	0x2cf
 2169 0577 00000000 		.4byte	.LFB123
 2170 057b 96000000 		.4byte	.LFE123-.LFB123
 2171 057f 01       		.uleb128 0x1
 2172 0580 9C       		.byte	0x9c
 2173 0581 E2050000 		.4byte	0x5e2
 2174 0585 14       		.uleb128 0x14
 2175 0586 56000000 		.4byte	.LASF55
 2176 058a 01       		.byte	0x1
 2177 058b CF02     		.2byte	0x2cf
 2178 058d 94030000 		.4byte	0x394
 2179 0591 01       		.uleb128 0x1
 2180 0592 50       		.byte	0x50
 2181 0593 14       		.uleb128 0x14
 2182 0594 E3050000 		.4byte	.LASF72
 2183 0598 01       		.byte	0x1
 2184 0599 CF02     		.2byte	0x2cf
ARM GAS  /tmp/ccqRxWEk.s 			page 40


 2185 059b 97000000 		.4byte	0x97
 2186 059f 01       		.uleb128 0x1
 2187 05a0 51       		.byte	0x51
 2188 05a1 15       		.uleb128 0x15
 2189 05a2 DE050000 		.4byte	.LASF76
 2190 05a6 01       		.byte	0x1
 2191 05a7 CF02     		.2byte	0x2cf
 2192 05a9 97000000 		.4byte	0x97
 2193 05ad A3010000 		.4byte	.LLST8
 2194 05b1 15       		.uleb128 0x15
 2195 05b2 76050000 		.4byte	.LASF77
 2196 05b6 01       		.byte	0x1
 2197 05b7 CF02     		.2byte	0x2cf
 2198 05b9 97000000 		.4byte	0x97
 2199 05bd F6010000 		.4byte	.LLST9
 2200 05c1 16       		.uleb128 0x16
 2201 05c2 6F040000 		.4byte	.LASF57
 2202 05c6 01       		.byte	0x1
 2203 05c7 D102     		.2byte	0x2d1
 2204 05c9 B8000000 		.4byte	0xb8
 2205 05cd 30020000 		.4byte	.LLST10
 2206 05d1 16       		.uleb128 0x16
 2207 05d2 77040000 		.4byte	.LASF58
 2208 05d6 01       		.byte	0x1
 2209 05d7 D102     		.2byte	0x2d1
 2210 05d9 B8000000 		.4byte	0xb8
 2211 05dd EA020000 		.4byte	.LLST11
 2212 05e1 00       		.byte	0
 2213 05e2 13       		.uleb128 0x13
 2214 05e3 78080000 		.4byte	.LASF78
 2215 05e7 01       		.byte	0x1
 2216 05e8 4703     		.2byte	0x347
 2217 05ea 00000000 		.4byte	.LFB124
 2218 05ee 0A000000 		.4byte	.LFE124-.LFB124
 2219 05f2 01       		.uleb128 0x1
 2220 05f3 9C       		.byte	0x9c
 2221 05f4 07060000 		.4byte	0x607
 2222 05f8 14       		.uleb128 0x14
 2223 05f9 56000000 		.4byte	.LASF55
 2224 05fd 01       		.byte	0x1
 2225 05fe 4703     		.2byte	0x347
 2226 0600 94030000 		.4byte	0x394
 2227 0604 01       		.uleb128 0x1
 2228 0605 50       		.byte	0x50
 2229 0606 00       		.byte	0
 2230 0607 17       		.uleb128 0x17
 2231 0608 93070000 		.4byte	.LASF85
 2232 060c 01       		.byte	0x1
 2233 060d 5503     		.2byte	0x355
 2234 060f 1E020000 		.4byte	0x21e
 2235 0613 00000000 		.4byte	.LFB125
 2236 0617 08000000 		.4byte	.LFE125-.LFB125
 2237 061b 01       		.uleb128 0x1
 2238 061c 9C       		.byte	0x9c
 2239 061d 42060000 		.4byte	0x642
 2240 0621 15       		.uleb128 0x15
 2241 0622 56000000 		.4byte	.LASF55
ARM GAS  /tmp/ccqRxWEk.s 			page 41


 2242 0626 01       		.byte	0x1
 2243 0627 5503     		.2byte	0x355
 2244 0629 94030000 		.4byte	0x394
 2245 062d C5030000 		.4byte	.LLST12
 2246 0631 16       		.uleb128 0x16
 2247 0632 40080000 		.4byte	.LASF79
 2248 0636 01       		.byte	0x1
 2249 0637 5703     		.2byte	0x357
 2250 0639 1E020000 		.4byte	0x21e
 2251 063d E6030000 		.4byte	.LLST13
 2252 0641 00       		.byte	0
 2253 0642 13       		.uleb128 0x13
 2254 0643 35070000 		.4byte	.LASF80
 2255 0647 01       		.byte	0x1
 2256 0648 7303     		.2byte	0x373
 2257 064a 00000000 		.4byte	.LFB126
 2258 064e 14000000 		.4byte	.LFE126-.LFB126
 2259 0652 01       		.uleb128 0x1
 2260 0653 9C       		.byte	0x9c
 2261 0654 75060000 		.4byte	0x675
 2262 0658 14       		.uleb128 0x14
 2263 0659 56000000 		.4byte	.LASF55
 2264 065d 01       		.byte	0x1
 2265 065e 7303     		.2byte	0x373
 2266 0660 94030000 		.4byte	0x394
 2267 0664 01       		.uleb128 0x1
 2268 0665 50       		.byte	0x50
 2269 0666 14       		.uleb128 0x14
 2270 0667 00000000 		.4byte	.LASF64
 2271 066b 01       		.byte	0x1
 2272 066c 7303     		.2byte	0x373
 2273 066e 49020000 		.4byte	0x249
 2274 0672 01       		.uleb128 0x1
 2275 0673 51       		.byte	0x51
 2276 0674 00       		.byte	0
 2277 0675 13       		.uleb128 0x13
 2278 0676 92040000 		.4byte	.LASF81
 2279 067a 01       		.byte	0x1
 2280 067b 8C03     		.2byte	0x38c
 2281 067d 00000000 		.4byte	.LFB127
 2282 0681 14000000 		.4byte	.LFE127-.LFB127
 2283 0685 01       		.uleb128 0x1
 2284 0686 9C       		.byte	0x9c
 2285 0687 A8060000 		.4byte	0x6a8
 2286 068b 14       		.uleb128 0x14
 2287 068c 56000000 		.4byte	.LASF55
 2288 0690 01       		.byte	0x1
 2289 0691 8C03     		.2byte	0x38c
 2290 0693 94030000 		.4byte	0x394
 2291 0697 01       		.uleb128 0x1
 2292 0698 50       		.byte	0x50
 2293 0699 14       		.uleb128 0x14
 2294 069a 00000000 		.4byte	.LASF64
 2295 069e 01       		.byte	0x1
 2296 069f 8C03     		.2byte	0x38c
 2297 06a1 49020000 		.4byte	0x249
 2298 06a5 01       		.uleb128 0x1
ARM GAS  /tmp/ccqRxWEk.s 			page 42


 2299 06a6 51       		.byte	0x51
 2300 06a7 00       		.byte	0
 2301 06a8 13       		.uleb128 0x13
 2302 06a9 F2020000 		.4byte	.LASF82
 2303 06ad 01       		.byte	0x1
 2304 06ae A603     		.2byte	0x3a6
 2305 06b0 00000000 		.4byte	.LFB128
 2306 06b4 10000000 		.4byte	.LFE128-.LFB128
 2307 06b8 01       		.uleb128 0x1
 2308 06b9 9C       		.byte	0x9c
 2309 06ba FD060000 		.4byte	0x6fd
 2310 06be 14       		.uleb128 0x14
 2311 06bf 56000000 		.4byte	.LASF55
 2312 06c3 01       		.byte	0x1
 2313 06c4 A603     		.2byte	0x3a6
 2314 06c6 94030000 		.4byte	0x394
 2315 06ca 01       		.uleb128 0x1
 2316 06cb 50       		.byte	0x50
 2317 06cc 15       		.uleb128 0x15
 2318 06cd E9040000 		.4byte	.LASF83
 2319 06d1 01       		.byte	0x1
 2320 06d2 A603     		.2byte	0x3a6
 2321 06d4 97000000 		.4byte	0x97
 2322 06d8 0D040000 		.4byte	.LLST14
 2323 06dc 16       		.uleb128 0x16
 2324 06dd 6F040000 		.4byte	.LASF57
 2325 06e1 01       		.byte	0x1
 2326 06e2 A803     		.2byte	0x3a8
 2327 06e4 B8000000 		.4byte	0xb8
 2328 06e8 2E040000 		.4byte	.LLST15
 2329 06ec 16       		.uleb128 0x16
 2330 06ed 77040000 		.4byte	.LASF58
 2331 06f1 01       		.byte	0x1
 2332 06f2 A903     		.2byte	0x3a9
 2333 06f4 B8000000 		.4byte	0xb8
 2334 06f8 58040000 		.4byte	.LLST16
 2335 06fc 00       		.byte	0
 2336 06fd 13       		.uleb128 0x13
 2337 06fe E5070000 		.4byte	.LASF84
 2338 0702 01       		.byte	0x1
 2339 0703 C603     		.2byte	0x3c6
 2340 0705 00000000 		.4byte	.LFB129
 2341 0709 14000000 		.4byte	.LFE129-.LFB129
 2342 070d 01       		.uleb128 0x1
 2343 070e 9C       		.byte	0x9c
 2344 070f 30070000 		.4byte	0x730
 2345 0713 14       		.uleb128 0x14
 2346 0714 56000000 		.4byte	.LASF55
 2347 0718 01       		.byte	0x1
 2348 0719 C603     		.2byte	0x3c6
 2349 071b 94030000 		.4byte	0x394
 2350 071f 01       		.uleb128 0x1
 2351 0720 50       		.byte	0x50
 2352 0721 14       		.uleb128 0x14
 2353 0722 00000000 		.4byte	.LASF64
 2354 0726 01       		.byte	0x1
 2355 0727 C603     		.2byte	0x3c6
ARM GAS  /tmp/ccqRxWEk.s 			page 43


 2356 0729 49020000 		.4byte	0x249
 2357 072d 01       		.uleb128 0x1
 2358 072e 51       		.byte	0x51
 2359 072f 00       		.byte	0
 2360 0730 17       		.uleb128 0x17
 2361 0731 63010000 		.4byte	.LASF86
 2362 0735 01       		.byte	0x1
 2363 0736 DD03     		.2byte	0x3dd
 2364 0738 A2000000 		.4byte	0xa2
 2365 073c 00000000 		.4byte	.LFB130
 2366 0740 06000000 		.4byte	.LFE130-.LFB130
 2367 0744 01       		.uleb128 0x1
 2368 0745 9C       		.byte	0x9c
 2369 0746 5B070000 		.4byte	0x75b
 2370 074a 15       		.uleb128 0x15
 2371 074b 56000000 		.4byte	.LASF55
 2372 074f 01       		.byte	0x1
 2373 0750 DD03     		.2byte	0x3dd
 2374 0752 94030000 		.4byte	0x394
 2375 0756 7F040000 		.4byte	.LLST17
 2376 075a 00       		.byte	0
 2377 075b 18       		.uleb128 0x18
 2378 075c F0040000 		.4byte	.LASF118
 2379 0760 01       		.byte	0x1
 2380 0761 F203     		.2byte	0x3f2
 2381 0763 B8000000 		.4byte	0xb8
 2382 0767 00000000 		.4byte	.LFB131
 2383 076b 0C000000 		.4byte	.LFE131-.LFB131
 2384 076f 01       		.uleb128 0x1
 2385 0770 9C       		.byte	0x9c
 2386 0771 13       		.uleb128 0x13
 2387 0772 25050000 		.4byte	.LASF87
 2388 0776 01       		.byte	0x1
 2389 0777 2004     		.2byte	0x420
 2390 0779 00000000 		.4byte	.LFB132
 2391 077d 14000000 		.4byte	.LFE132-.LFB132
 2392 0781 01       		.uleb128 0x1
 2393 0782 9C       		.byte	0x9c
 2394 0783 A4070000 		.4byte	0x7a4
 2395 0787 14       		.uleb128 0x14
 2396 0788 56000000 		.4byte	.LASF55
 2397 078c 01       		.byte	0x1
 2398 078d 2004     		.2byte	0x420
 2399 078f 94030000 		.4byte	0x394
 2400 0793 01       		.uleb128 0x1
 2401 0794 50       		.byte	0x50
 2402 0795 14       		.uleb128 0x14
 2403 0796 00000000 		.4byte	.LASF64
 2404 079a 01       		.byte	0x1
 2405 079b 2004     		.2byte	0x420
 2406 079d 49020000 		.4byte	0x249
 2407 07a1 01       		.uleb128 0x1
 2408 07a2 51       		.byte	0x51
 2409 07a3 00       		.byte	0
 2410 07a4 13       		.uleb128 0x13
 2411 07a5 AB010000 		.4byte	.LASF88
 2412 07a9 01       		.byte	0x1
ARM GAS  /tmp/ccqRxWEk.s 			page 44


 2413 07aa 3804     		.2byte	0x438
 2414 07ac 00000000 		.4byte	.LFB133
 2415 07b0 14000000 		.4byte	.LFE133-.LFB133
 2416 07b4 01       		.uleb128 0x1
 2417 07b5 9C       		.byte	0x9c
 2418 07b6 D7070000 		.4byte	0x7d7
 2419 07ba 14       		.uleb128 0x14
 2420 07bb 56000000 		.4byte	.LASF55
 2421 07bf 01       		.byte	0x1
 2422 07c0 3804     		.2byte	0x438
 2423 07c2 94030000 		.4byte	0x394
 2424 07c6 01       		.uleb128 0x1
 2425 07c7 50       		.byte	0x50
 2426 07c8 14       		.uleb128 0x14
 2427 07c9 00000000 		.4byte	.LASF64
 2428 07cd 01       		.byte	0x1
 2429 07ce 3804     		.2byte	0x438
 2430 07d0 49020000 		.4byte	0x249
 2431 07d4 01       		.uleb128 0x1
 2432 07d5 51       		.byte	0x51
 2433 07d6 00       		.byte	0
 2434 07d7 13       		.uleb128 0x13
 2435 07d8 B2070000 		.4byte	.LASF89
 2436 07dc 01       		.byte	0x1
 2437 07dd 5304     		.2byte	0x453
 2438 07df 00000000 		.4byte	.LFB134
 2439 07e3 1C000000 		.4byte	.LFE134-.LFB134
 2440 07e7 01       		.uleb128 0x1
 2441 07e8 9C       		.byte	0x9c
 2442 07e9 FC070000 		.4byte	0x7fc
 2443 07ed 14       		.uleb128 0x14
 2444 07ee 00000000 		.4byte	.LASF64
 2445 07f2 01       		.byte	0x1
 2446 07f3 5304     		.2byte	0x453
 2447 07f5 49020000 		.4byte	0x249
 2448 07f9 01       		.uleb128 0x1
 2449 07fa 50       		.byte	0x50
 2450 07fb 00       		.byte	0
 2451 07fc 13       		.uleb128 0x13
 2452 07fd 42010000 		.4byte	.LASF90
 2453 0801 01       		.byte	0x1
 2454 0802 AA04     		.2byte	0x4aa
 2455 0804 00000000 		.4byte	.LFB135
 2456 0808 5A000000 		.4byte	.LFE135-.LFB135
 2457 080c 01       		.uleb128 0x1
 2458 080d 9C       		.byte	0x9c
 2459 080e 81080000 		.4byte	0x881
 2460 0812 14       		.uleb128 0x14
 2461 0813 56000000 		.4byte	.LASF55
 2462 0817 01       		.byte	0x1
 2463 0818 AA04     		.2byte	0x4aa
 2464 081a 94030000 		.4byte	0x394
 2465 081e 01       		.uleb128 0x1
 2466 081f 50       		.byte	0x50
 2467 0820 15       		.uleb128 0x15
 2468 0821 E3050000 		.4byte	.LASF72
 2469 0825 01       		.byte	0x1
ARM GAS  /tmp/ccqRxWEk.s 			page 45


 2470 0826 AA04     		.2byte	0x4aa
 2471 0828 97000000 		.4byte	0x97
 2472 082c A0040000 		.4byte	.LLST18
 2473 0830 15       		.uleb128 0x15
 2474 0831 DE050000 		.4byte	.LASF76
 2475 0835 01       		.byte	0x1
 2476 0836 AA04     		.2byte	0x4aa
 2477 0838 97000000 		.4byte	0x97
 2478 083c CC040000 		.4byte	.LLST19
 2479 0840 15       		.uleb128 0x15
 2480 0841 76050000 		.4byte	.LASF77
 2481 0845 01       		.byte	0x1
 2482 0846 AA04     		.2byte	0x4aa
 2483 0848 97000000 		.4byte	0x97
 2484 084c F8040000 		.4byte	.LLST20
 2485 0850 16       		.uleb128 0x16
 2486 0851 6F040000 		.4byte	.LASF57
 2487 0855 01       		.byte	0x1
 2488 0856 AC04     		.2byte	0x4ac
 2489 0858 B8000000 		.4byte	0xb8
 2490 085c 32050000 		.4byte	.LLST21
 2491 0860 16       		.uleb128 0x16
 2492 0861 77040000 		.4byte	.LASF58
 2493 0865 01       		.byte	0x1
 2494 0866 AC04     		.2byte	0x4ac
 2495 0868 B8000000 		.4byte	0xb8
 2496 086c 7E050000 		.4byte	.LLST22
 2497 0870 16       		.uleb128 0x16
 2498 0871 7F040000 		.4byte	.LASF91
 2499 0875 01       		.byte	0x1
 2500 0876 AC04     		.2byte	0x4ac
 2501 0878 B8000000 		.4byte	0xb8
 2502 087c FF050000 		.4byte	.LLST23
 2503 0880 00       		.byte	0
 2504 0881 13       		.uleb128 0x13
 2505 0882 94060000 		.4byte	.LASF92
 2506 0886 01       		.byte	0x1
 2507 0887 E904     		.2byte	0x4e9
 2508 0889 00000000 		.4byte	.LFB136
 2509 088d 10000000 		.4byte	.LFE136-.LFB136
 2510 0891 01       		.uleb128 0x1
 2511 0892 9C       		.byte	0x9c
 2512 0893 D6080000 		.4byte	0x8d6
 2513 0897 14       		.uleb128 0x14
 2514 0898 56000000 		.4byte	.LASF55
 2515 089c 01       		.byte	0x1
 2516 089d E904     		.2byte	0x4e9
 2517 089f 94030000 		.4byte	0x394
 2518 08a3 01       		.uleb128 0x1
 2519 08a4 50       		.byte	0x50
 2520 08a5 15       		.uleb128 0x15
 2521 08a6 DE070000 		.4byte	.LASF93
 2522 08aa 01       		.byte	0x1
 2523 08ab E904     		.2byte	0x4e9
 2524 08ad 97000000 		.4byte	0x97
 2525 08b1 32060000 		.4byte	.LLST24
 2526 08b5 16       		.uleb128 0x16
ARM GAS  /tmp/ccqRxWEk.s 			page 46


 2527 08b6 6F040000 		.4byte	.LASF57
 2528 08ba 01       		.byte	0x1
 2529 08bb EB04     		.2byte	0x4eb
 2530 08bd B8000000 		.4byte	0xb8
 2531 08c1 53060000 		.4byte	.LLST25
 2532 08c5 16       		.uleb128 0x16
 2533 08c6 77040000 		.4byte	.LASF58
 2534 08ca 01       		.byte	0x1
 2535 08cb EC04     		.2byte	0x4ec
 2536 08cd B8000000 		.4byte	0xb8
 2537 08d1 7D060000 		.4byte	.LLST26
 2538 08d5 00       		.byte	0
 2539 08d6 13       		.uleb128 0x13
 2540 08d7 9C050000 		.4byte	.LASF94
 2541 08db 01       		.byte	0x1
 2542 08dc 0C05     		.2byte	0x50c
 2543 08de 00000000 		.4byte	.LFB137
 2544 08e2 16000000 		.4byte	.LFE137-.LFB137
 2545 08e6 01       		.uleb128 0x1
 2546 08e7 9C       		.byte	0x9c
 2547 08e8 28090000 		.4byte	0x928
 2548 08ec 14       		.uleb128 0x14
 2549 08ed 56000000 		.4byte	.LASF55
 2550 08f1 01       		.byte	0x1
 2551 08f2 0C05     		.2byte	0x50c
 2552 08f4 94030000 		.4byte	0x394
 2553 08f8 01       		.uleb128 0x1
 2554 08f9 50       		.byte	0x50
 2555 08fa 15       		.uleb128 0x15
 2556 08fb F5050000 		.4byte	.LASF95
 2557 08ff 01       		.byte	0x1
 2558 0900 0C05     		.2byte	0x50c
 2559 0902 97000000 		.4byte	0x97
 2560 0906 A4060000 		.4byte	.LLST27
 2561 090a 14       		.uleb128 0x14
 2562 090b 0B080000 		.4byte	.LASF96
 2563 090f 01       		.byte	0x1
 2564 0910 0C05     		.2byte	0x50c
 2565 0912 A2000000 		.4byte	0xa2
 2566 0916 01       		.uleb128 0x1
 2567 0917 52       		.byte	0x52
 2568 0918 19       		.uleb128 0x19
 2569 0919 746D7000 		.ascii	"tmp\000"
 2570 091d 01       		.byte	0x1
 2571 091e 0E05     		.2byte	0x50e
 2572 0920 CA000000 		.4byte	0xca
 2573 0924 02       		.uleb128 0x2
 2574 0925 91       		.byte	0x91
 2575 0926 7C       		.sleb128 -4
 2576 0927 00       		.byte	0
 2577 0928 13       		.uleb128 0x13
 2578 0929 33060000 		.4byte	.LASF97
 2579 092d 01       		.byte	0x1
 2580 092e 3205     		.2byte	0x532
 2581 0930 00000000 		.4byte	.LFB138
 2582 0934 0C000000 		.4byte	.LFE138-.LFB138
 2583 0938 01       		.uleb128 0x1
ARM GAS  /tmp/ccqRxWEk.s 			page 47


 2584 0939 9C       		.byte	0x9c
 2585 093a 6D090000 		.4byte	0x96d
 2586 093e 14       		.uleb128 0x14
 2587 093f 56000000 		.4byte	.LASF55
 2588 0943 01       		.byte	0x1
 2589 0944 3205     		.2byte	0x532
 2590 0946 94030000 		.4byte	0x394
 2591 094a 01       		.uleb128 0x1
 2592 094b 50       		.byte	0x50
 2593 094c 15       		.uleb128 0x15
 2594 094d 43050000 		.4byte	.LASF98
 2595 0951 01       		.byte	0x1
 2596 0952 3205     		.2byte	0x532
 2597 0954 B8000000 		.4byte	0xb8
 2598 0958 C5060000 		.4byte	.LLST28
 2599 095c 16       		.uleb128 0x16
 2600 095d 5C010000 		.4byte	.LASF67
 2601 0961 01       		.byte	0x1
 2602 0962 3405     		.2byte	0x534
 2603 0964 B8000000 		.4byte	0xb8
 2604 0968 E6060000 		.4byte	.LLST29
 2605 096c 00       		.byte	0
 2606 096d 13       		.uleb128 0x13
 2607 096e C2040000 		.4byte	.LASF99
 2608 0972 01       		.byte	0x1
 2609 0973 5405     		.2byte	0x554
 2610 0975 00000000 		.4byte	.LFB139
 2611 0979 0C000000 		.4byte	.LFE139-.LFB139
 2612 097d 01       		.uleb128 0x1
 2613 097e 9C       		.byte	0x9c
 2614 097f B2090000 		.4byte	0x9b2
 2615 0983 14       		.uleb128 0x14
 2616 0984 56000000 		.4byte	.LASF55
 2617 0988 01       		.byte	0x1
 2618 0989 5405     		.2byte	0x554
 2619 098b 94030000 		.4byte	0x394
 2620 098f 01       		.uleb128 0x1
 2621 0990 50       		.byte	0x50
 2622 0991 15       		.uleb128 0x15
 2623 0992 24010000 		.4byte	.LASF100
 2624 0996 01       		.byte	0x1
 2625 0997 5405     		.2byte	0x554
 2626 0999 B8000000 		.4byte	0xb8
 2627 099d 10070000 		.4byte	.LLST30
 2628 09a1 16       		.uleb128 0x16
 2629 09a2 5C010000 		.4byte	.LASF67
 2630 09a6 01       		.byte	0x1
 2631 09a7 5605     		.2byte	0x556
 2632 09a9 B8000000 		.4byte	0xb8
 2633 09ad 31070000 		.4byte	.LLST31
 2634 09b1 00       		.byte	0
 2635 09b2 13       		.uleb128 0x13
 2636 09b3 02040000 		.4byte	.LASF101
 2637 09b7 01       		.byte	0x1
 2638 09b8 6905     		.2byte	0x569
 2639 09ba 00000000 		.4byte	.LFB140
 2640 09be 0A000000 		.4byte	.LFE140-.LFB140
ARM GAS  /tmp/ccqRxWEk.s 			page 48


 2641 09c2 01       		.uleb128 0x1
 2642 09c3 9C       		.byte	0x9c
 2643 09c4 D7090000 		.4byte	0x9d7
 2644 09c8 14       		.uleb128 0x14
 2645 09c9 56000000 		.4byte	.LASF55
 2646 09cd 01       		.byte	0x1
 2647 09ce 6905     		.2byte	0x569
 2648 09d0 94030000 		.4byte	0x394
 2649 09d4 01       		.uleb128 0x1
 2650 09d5 50       		.byte	0x50
 2651 09d6 00       		.byte	0
 2652 09d7 17       		.uleb128 0x17
 2653 09d8 09060000 		.4byte	.LASF102
 2654 09dc 01       		.byte	0x1
 2655 09dd 7605     		.2byte	0x576
 2656 09df 1E020000 		.4byte	0x21e
 2657 09e3 00000000 		.4byte	.LFB141
 2658 09e7 08000000 		.4byte	.LFE141-.LFB141
 2659 09eb 01       		.uleb128 0x1
 2660 09ec 9C       		.byte	0x9c
 2661 09ed 120A0000 		.4byte	0xa12
 2662 09f1 15       		.uleb128 0x15
 2663 09f2 56000000 		.4byte	.LASF55
 2664 09f6 01       		.byte	0x1
 2665 09f7 7605     		.2byte	0x576
 2666 09f9 94030000 		.4byte	0x394
 2667 09fd 5B070000 		.4byte	.LLST32
 2668 0a01 16       		.uleb128 0x16
 2669 0a02 40080000 		.4byte	.LASF79
 2670 0a06 01       		.byte	0x1
 2671 0a07 7805     		.2byte	0x578
 2672 0a09 1E020000 		.4byte	0x21e
 2673 0a0d 7C070000 		.4byte	.LLST33
 2674 0a11 00       		.byte	0
 2675 0a12 13       		.uleb128 0x13
 2676 0a13 1D070000 		.4byte	.LASF103
 2677 0a17 01       		.byte	0x1
 2678 0a18 9305     		.2byte	0x593
 2679 0a1a 00000000 		.4byte	.LFB142
 2680 0a1e 14000000 		.4byte	.LFE142-.LFB142
 2681 0a22 01       		.uleb128 0x1
 2682 0a23 9C       		.byte	0x9c
 2683 0a24 450A0000 		.4byte	0xa45
 2684 0a28 14       		.uleb128 0x14
 2685 0a29 56000000 		.4byte	.LASF55
 2686 0a2d 01       		.byte	0x1
 2687 0a2e 9305     		.2byte	0x593
 2688 0a30 94030000 		.4byte	0x394
 2689 0a34 01       		.uleb128 0x1
 2690 0a35 50       		.byte	0x50
 2691 0a36 14       		.uleb128 0x14
 2692 0a37 00000000 		.4byte	.LASF64
 2693 0a3b 01       		.byte	0x1
 2694 0a3c 9305     		.2byte	0x593
 2695 0a3e 49020000 		.4byte	0x249
 2696 0a42 01       		.uleb128 0x1
 2697 0a43 51       		.byte	0x51
ARM GAS  /tmp/ccqRxWEk.s 			page 49


 2698 0a44 00       		.byte	0
 2699 0a45 13       		.uleb128 0x13
 2700 0a46 93030000 		.4byte	.LASF104
 2701 0a4a 01       		.byte	0x1
 2702 0a4b AD05     		.2byte	0x5ad
 2703 0a4d 00000000 		.4byte	.LFB143
 2704 0a51 14000000 		.4byte	.LFE143-.LFB143
 2705 0a55 01       		.uleb128 0x1
 2706 0a56 9C       		.byte	0x9c
 2707 0a57 780A0000 		.4byte	0xa78
 2708 0a5b 14       		.uleb128 0x14
 2709 0a5c 56000000 		.4byte	.LASF55
 2710 0a60 01       		.byte	0x1
 2711 0a61 AD05     		.2byte	0x5ad
 2712 0a63 94030000 		.4byte	0x394
 2713 0a67 01       		.uleb128 0x1
 2714 0a68 50       		.byte	0x50
 2715 0a69 14       		.uleb128 0x14
 2716 0a6a 00000000 		.4byte	.LASF64
 2717 0a6e 01       		.byte	0x1
 2718 0a6f AD05     		.2byte	0x5ad
 2719 0a71 49020000 		.4byte	0x249
 2720 0a75 01       		.uleb128 0x1
 2721 0a76 51       		.byte	0x51
 2722 0a77 00       		.byte	0
 2723 0a78 17       		.uleb128 0x17
 2724 0a79 59080000 		.4byte	.LASF105
 2725 0a7d 01       		.byte	0x1
 2726 0a7e C905     		.2byte	0x5c9
 2727 0a80 A2000000 		.4byte	0xa2
 2728 0a84 00000000 		.4byte	.LFB144
 2729 0a88 1A000000 		.4byte	.LFE144-.LFB144
 2730 0a8c 01       		.uleb128 0x1
 2731 0a8d 9C       		.byte	0x9c
 2732 0a8e C20A0000 		.4byte	0xac2
 2733 0a92 15       		.uleb128 0x15
 2734 0a93 56000000 		.4byte	.LASF55
 2735 0a97 01       		.byte	0x1
 2736 0a98 C905     		.2byte	0x5c9
 2737 0a9a 94030000 		.4byte	0x394
 2738 0a9e A3070000 		.4byte	.LLST34
 2739 0aa2 15       		.uleb128 0x15
 2740 0aa3 F5050000 		.4byte	.LASF95
 2741 0aa7 01       		.byte	0x1
 2742 0aa8 C905     		.2byte	0x5c9
 2743 0aaa 97000000 		.4byte	0x97
 2744 0aae C4070000 		.4byte	.LLST35
 2745 0ab2 19       		.uleb128 0x19
 2746 0ab3 746D7000 		.ascii	"tmp\000"
 2747 0ab7 01       		.byte	0x1
 2748 0ab8 CB05     		.2byte	0x5cb
 2749 0aba CA000000 		.4byte	0xca
 2750 0abe 02       		.uleb128 0x2
 2751 0abf 91       		.byte	0x91
 2752 0ac0 7C       		.sleb128 -4
 2753 0ac1 00       		.byte	0
 2754 0ac2 13       		.uleb128 0x13
ARM GAS  /tmp/ccqRxWEk.s 			page 50


 2755 0ac3 B8030000 		.4byte	.LASF106
 2756 0ac7 01       		.byte	0x1
 2757 0ac8 3406     		.2byte	0x634
 2758 0aca 00000000 		.4byte	.LFB145
 2759 0ace 1A000000 		.4byte	.LFE145-.LFB145
 2760 0ad2 01       		.uleb128 0x1
 2761 0ad3 9C       		.byte	0x9c
 2762 0ad4 150B0000 		.4byte	0xb15
 2763 0ad8 14       		.uleb128 0x14
 2764 0ad9 56000000 		.4byte	.LASF55
 2765 0add 01       		.byte	0x1
 2766 0ade 3406     		.2byte	0x634
 2767 0ae0 94030000 		.4byte	0x394
 2768 0ae4 01       		.uleb128 0x1
 2769 0ae5 50       		.byte	0x50
 2770 0ae6 15       		.uleb128 0x15
 2771 0ae7 09000000 		.4byte	.LASF107
 2772 0aeb 01       		.byte	0x1
 2773 0aec 3406     		.2byte	0x634
 2774 0aee A2000000 		.4byte	0xa2
 2775 0af2 E5070000 		.4byte	.LLST36
 2776 0af6 14       		.uleb128 0x14
 2777 0af7 00000000 		.4byte	.LASF64
 2778 0afb 01       		.byte	0x1
 2779 0afc 3406     		.2byte	0x634
 2780 0afe 49020000 		.4byte	0x249
 2781 0b02 01       		.uleb128 0x1
 2782 0b03 52       		.byte	0x52
 2783 0b04 16       		.uleb128 0x16
 2784 0b05 C1050000 		.4byte	.LASF108
 2785 0b09 01       		.byte	0x1
 2786 0b0a 3606     		.2byte	0x636
 2787 0b0c B8000000 		.4byte	0xb8
 2788 0b10 06080000 		.4byte	.LLST37
 2789 0b14 00       		.byte	0
 2790 0b15 17       		.uleb128 0x17
 2791 0b16 1A080000 		.4byte	.LASF109
 2792 0b1a 01       		.byte	0x1
 2793 0b1b 5906     		.2byte	0x659
 2794 0b1d 1E020000 		.4byte	0x21e
 2795 0b21 00000000 		.4byte	.LFB146
 2796 0b25 0C000000 		.4byte	.LFE146-.LFB146
 2797 0b29 01       		.uleb128 0x1
 2798 0b2a 9C       		.byte	0x9c
 2799 0b2b 5E0B0000 		.4byte	0xb5e
 2800 0b2f 15       		.uleb128 0x15
 2801 0b30 56000000 		.4byte	.LASF55
 2802 0b34 01       		.byte	0x1
 2803 0b35 5906     		.2byte	0x659
 2804 0b37 94030000 		.4byte	0x394
 2805 0b3b 5A080000 		.4byte	.LLST38
 2806 0b3f 14       		.uleb128 0x14
 2807 0b40 A2010000 		.4byte	.LASF110
 2808 0b44 01       		.byte	0x1
 2809 0b45 5906     		.2byte	0x659
 2810 0b47 97000000 		.4byte	0x97
 2811 0b4b 01       		.uleb128 0x1
ARM GAS  /tmp/ccqRxWEk.s 			page 51


 2812 0b4c 51       		.byte	0x51
 2813 0b4d 16       		.uleb128 0x16
 2814 0b4e 40080000 		.4byte	.LASF79
 2815 0b52 01       		.byte	0x1
 2816 0b53 5B06     		.2byte	0x65b
 2817 0b55 1E020000 		.4byte	0x21e
 2818 0b59 7B080000 		.4byte	.LLST39
 2819 0b5d 00       		.byte	0
 2820 0b5e 13       		.uleb128 0x13
 2821 0b5f A8040000 		.4byte	.LASF111
 2822 0b63 01       		.byte	0x1
 2823 0b64 7C06     		.2byte	0x67c
 2824 0b66 00000000 		.4byte	.LFB147
 2825 0b6a 06000000 		.4byte	.LFE147-.LFB147
 2826 0b6e 01       		.uleb128 0x1
 2827 0b6f 9C       		.byte	0x9c
 2828 0b70 930B0000 		.4byte	0xb93
 2829 0b74 14       		.uleb128 0x14
 2830 0b75 56000000 		.4byte	.LASF55
 2831 0b79 01       		.byte	0x1
 2832 0b7a 7C06     		.2byte	0x67c
 2833 0b7c 94030000 		.4byte	0x394
 2834 0b80 01       		.uleb128 0x1
 2835 0b81 50       		.byte	0x50
 2836 0b82 15       		.uleb128 0x15
 2837 0b83 A2010000 		.4byte	.LASF110
 2838 0b87 01       		.byte	0x1
 2839 0b88 7C06     		.2byte	0x67c
 2840 0b8a 97000000 		.4byte	0x97
 2841 0b8e A4080000 		.4byte	.LLST40
 2842 0b92 00       		.byte	0
 2843 0b93 17       		.uleb128 0x17
 2844 0b94 F6060000 		.4byte	.LASF112
 2845 0b98 01       		.byte	0x1
 2846 0b99 9106     		.2byte	0x691
 2847 0b9b 29020000 		.4byte	0x229
 2848 0b9f 00000000 		.4byte	.LFB148
 2849 0ba3 1C000000 		.4byte	.LFE148-.LFB148
 2850 0ba7 01       		.uleb128 0x1
 2851 0ba8 9C       		.byte	0x9c
 2852 0ba9 FE0B0000 		.4byte	0xbfe
 2853 0bad 15       		.uleb128 0x15
 2854 0bae 56000000 		.4byte	.LASF55
 2855 0bb2 01       		.byte	0x1
 2856 0bb3 9106     		.2byte	0x691
 2857 0bb5 94030000 		.4byte	0x394
 2858 0bb9 C5080000 		.4byte	.LLST41
 2859 0bbd 15       		.uleb128 0x15
 2860 0bbe 09000000 		.4byte	.LASF107
 2861 0bc2 01       		.byte	0x1
 2862 0bc3 9106     		.2byte	0x691
 2863 0bc5 A2000000 		.4byte	0xa2
 2864 0bc9 E6080000 		.4byte	.LLST42
 2865 0bcd 16       		.uleb128 0x16
 2866 0bce 40080000 		.4byte	.LASF79
 2867 0bd2 01       		.byte	0x1
 2868 0bd3 9306     		.2byte	0x693
ARM GAS  /tmp/ccqRxWEk.s 			page 52


 2869 0bd5 29020000 		.4byte	0x229
 2870 0bd9 07090000 		.4byte	.LLST43
 2871 0bdd 16       		.uleb128 0x16
 2872 0bde C1050000 		.4byte	.LASF108
 2873 0be2 01       		.byte	0x1
 2874 0be3 9406     		.2byte	0x694
 2875 0be5 B8000000 		.4byte	0xb8
 2876 0be9 26090000 		.4byte	.LLST44
 2877 0bed 16       		.uleb128 0x16
 2878 0bee 7C070000 		.4byte	.LASF113
 2879 0bf2 01       		.byte	0x1
 2880 0bf3 9406     		.2byte	0x694
 2881 0bf5 B8000000 		.4byte	0xb8
 2882 0bf9 41090000 		.4byte	.LLST45
 2883 0bfd 00       		.byte	0
 2884 0bfe 13       		.uleb128 0x13
 2885 0bff C8050000 		.4byte	.LASF114
 2886 0c03 01       		.byte	0x1
 2887 0c04 BA06     		.2byte	0x6ba
 2888 0c06 00000000 		.4byte	.LFB149
 2889 0c0a 08000000 		.4byte	.LFE149-.LFB149
 2890 0c0e 01       		.uleb128 0x1
 2891 0c0f 9C       		.byte	0x9c
 2892 0c10 430C0000 		.4byte	0xc43
 2893 0c14 14       		.uleb128 0x14
 2894 0c15 56000000 		.4byte	.LASF55
 2895 0c19 01       		.byte	0x1
 2896 0c1a BA06     		.2byte	0x6ba
 2897 0c1c 94030000 		.4byte	0x394
 2898 0c20 01       		.uleb128 0x1
 2899 0c21 50       		.byte	0x50
 2900 0c22 15       		.uleb128 0x15
 2901 0c23 09000000 		.4byte	.LASF107
 2902 0c27 01       		.byte	0x1
 2903 0c28 BA06     		.2byte	0x6ba
 2904 0c2a A2000000 		.4byte	0xa2
 2905 0c2e 6A090000 		.4byte	.LLST46
 2906 0c32 16       		.uleb128 0x16
 2907 0c33 C1050000 		.4byte	.LASF108
 2908 0c37 01       		.byte	0x1
 2909 0c38 BC06     		.2byte	0x6bc
 2910 0c3a 97000000 		.4byte	0x97
 2911 0c3e 8B090000 		.4byte	.LLST47
 2912 0c42 00       		.byte	0
 2913 0c43 1A       		.uleb128 0x1a
 2914 0c44 D5000000 		.4byte	.LASF119
 2915 0c48 07       		.byte	0x7
 2916 0c49 A706     		.2byte	0x6a7
 2917 0c4b 4F0C0000 		.4byte	0xc4f
 2918 0c4f 05       		.uleb128 0x5
 2919 0c50 AD000000 		.4byte	0xad
 2920 0c54 1B       		.uleb128 0x1b
 2921 0c55 85050000 		.4byte	.LASF120
 2922 0c59 08       		.byte	0x8
 2923 0c5a 6203     		.2byte	0x362
 2924 0c5c 1C       		.uleb128 0x1c
 2925 0c5d B8000000 		.4byte	0xb8
ARM GAS  /tmp/ccqRxWEk.s 			page 53


 2926 0c61 1C       		.uleb128 0x1c
 2927 0c62 49020000 		.4byte	0x249
 2928 0c66 00       		.byte	0
 2929 0c67 00       		.byte	0
 2930              		.section	.debug_abbrev,"",%progbits
 2931              	.Ldebug_abbrev0:
 2932 0000 01       		.uleb128 0x1
 2933 0001 11       		.uleb128 0x11
 2934 0002 01       		.byte	0x1
 2935 0003 25       		.uleb128 0x25
 2936 0004 0E       		.uleb128 0xe
 2937 0005 13       		.uleb128 0x13
 2938 0006 0B       		.uleb128 0xb
 2939 0007 03       		.uleb128 0x3
 2940 0008 0E       		.uleb128 0xe
 2941 0009 1B       		.uleb128 0x1b
 2942 000a 0E       		.uleb128 0xe
 2943 000b 55       		.uleb128 0x55
 2944 000c 17       		.uleb128 0x17
 2945 000d 11       		.uleb128 0x11
 2946 000e 01       		.uleb128 0x1
 2947 000f 10       		.uleb128 0x10
 2948 0010 17       		.uleb128 0x17
 2949 0011 00       		.byte	0
 2950 0012 00       		.byte	0
 2951 0013 02       		.uleb128 0x2
 2952 0014 24       		.uleb128 0x24
 2953 0015 00       		.byte	0
 2954 0016 0B       		.uleb128 0xb
 2955 0017 0B       		.uleb128 0xb
 2956 0018 3E       		.uleb128 0x3e
 2957 0019 0B       		.uleb128 0xb
 2958 001a 03       		.uleb128 0x3
 2959 001b 0E       		.uleb128 0xe
 2960 001c 00       		.byte	0
 2961 001d 00       		.byte	0
 2962 001e 03       		.uleb128 0x3
 2963 001f 16       		.uleb128 0x16
 2964 0020 00       		.byte	0
 2965 0021 03       		.uleb128 0x3
 2966 0022 0E       		.uleb128 0xe
 2967 0023 3A       		.uleb128 0x3a
 2968 0024 0B       		.uleb128 0xb
 2969 0025 3B       		.uleb128 0x3b
 2970 0026 0B       		.uleb128 0xb
 2971 0027 49       		.uleb128 0x49
 2972 0028 13       		.uleb128 0x13
 2973 0029 00       		.byte	0
 2974 002a 00       		.byte	0
 2975 002b 04       		.uleb128 0x4
 2976 002c 24       		.uleb128 0x24
 2977 002d 00       		.byte	0
 2978 002e 0B       		.uleb128 0xb
 2979 002f 0B       		.uleb128 0xb
 2980 0030 3E       		.uleb128 0x3e
 2981 0031 0B       		.uleb128 0xb
 2982 0032 03       		.uleb128 0x3
ARM GAS  /tmp/ccqRxWEk.s 			page 54


 2983 0033 08       		.uleb128 0x8
 2984 0034 00       		.byte	0
 2985 0035 00       		.byte	0
 2986 0036 05       		.uleb128 0x5
 2987 0037 35       		.uleb128 0x35
 2988 0038 00       		.byte	0
 2989 0039 49       		.uleb128 0x49
 2990 003a 13       		.uleb128 0x13
 2991 003b 00       		.byte	0
 2992 003c 00       		.byte	0
 2993 003d 06       		.uleb128 0x6
 2994 003e 13       		.uleb128 0x13
 2995 003f 01       		.byte	0x1
 2996 0040 0B       		.uleb128 0xb
 2997 0041 0B       		.uleb128 0xb
 2998 0042 3A       		.uleb128 0x3a
 2999 0043 0B       		.uleb128 0xb
 3000 0044 3B       		.uleb128 0x3b
 3001 0045 0B       		.uleb128 0xb
 3002 0046 01       		.uleb128 0x1
 3003 0047 13       		.uleb128 0x13
 3004 0048 00       		.byte	0
 3005 0049 00       		.byte	0
 3006 004a 07       		.uleb128 0x7
 3007 004b 0D       		.uleb128 0xd
 3008 004c 00       		.byte	0
 3009 004d 03       		.uleb128 0x3
 3010 004e 08       		.uleb128 0x8
 3011 004f 3A       		.uleb128 0x3a
 3012 0050 0B       		.uleb128 0xb
 3013 0051 3B       		.uleb128 0x3b
 3014 0052 0B       		.uleb128 0xb
 3015 0053 49       		.uleb128 0x49
 3016 0054 13       		.uleb128 0x13
 3017 0055 38       		.uleb128 0x38
 3018 0056 0B       		.uleb128 0xb
 3019 0057 00       		.byte	0
 3020 0058 00       		.byte	0
 3021 0059 08       		.uleb128 0x8
 3022 005a 0D       		.uleb128 0xd
 3023 005b 00       		.byte	0
 3024 005c 03       		.uleb128 0x3
 3025 005d 0E       		.uleb128 0xe
 3026 005e 3A       		.uleb128 0x3a
 3027 005f 0B       		.uleb128 0xb
 3028 0060 3B       		.uleb128 0x3b
 3029 0061 0B       		.uleb128 0xb
 3030 0062 49       		.uleb128 0x49
 3031 0063 13       		.uleb128 0x13
 3032 0064 38       		.uleb128 0x38
 3033 0065 0B       		.uleb128 0xb
 3034 0066 00       		.byte	0
 3035 0067 00       		.byte	0
 3036 0068 09       		.uleb128 0x9
 3037 0069 04       		.uleb128 0x4
 3038 006a 01       		.byte	0x1
 3039 006b 0B       		.uleb128 0xb
ARM GAS  /tmp/ccqRxWEk.s 			page 55


 3040 006c 0B       		.uleb128 0xb
 3041 006d 3A       		.uleb128 0x3a
 3042 006e 0B       		.uleb128 0xb
 3043 006f 3B       		.uleb128 0x3b
 3044 0070 0B       		.uleb128 0xb
 3045 0071 01       		.uleb128 0x1
 3046 0072 13       		.uleb128 0x13
 3047 0073 00       		.byte	0
 3048 0074 00       		.byte	0
 3049 0075 0A       		.uleb128 0xa
 3050 0076 28       		.uleb128 0x28
 3051 0077 00       		.byte	0
 3052 0078 03       		.uleb128 0x3
 3053 0079 0E       		.uleb128 0xe
 3054 007a 1C       		.uleb128 0x1c
 3055 007b 0D       		.uleb128 0xd
 3056 007c 00       		.byte	0
 3057 007d 00       		.byte	0
 3058 007e 0B       		.uleb128 0xb
 3059 007f 28       		.uleb128 0x28
 3060 0080 00       		.byte	0
 3061 0081 03       		.uleb128 0x3
 3062 0082 08       		.uleb128 0x8
 3063 0083 1C       		.uleb128 0x1c
 3064 0084 0D       		.uleb128 0xd
 3065 0085 00       		.byte	0
 3066 0086 00       		.byte	0
 3067 0087 0C       		.uleb128 0xc
 3068 0088 2E       		.uleb128 0x2e
 3069 0089 01       		.byte	0x1
 3070 008a 3F       		.uleb128 0x3f
 3071 008b 19       		.uleb128 0x19
 3072 008c 03       		.uleb128 0x3
 3073 008d 0E       		.uleb128 0xe
 3074 008e 3A       		.uleb128 0x3a
 3075 008f 0B       		.uleb128 0xb
 3076 0090 3B       		.uleb128 0x3b
 3077 0091 0B       		.uleb128 0xb
 3078 0092 27       		.uleb128 0x27
 3079 0093 19       		.uleb128 0x19
 3080 0094 11       		.uleb128 0x11
 3081 0095 01       		.uleb128 0x1
 3082 0096 12       		.uleb128 0x12
 3083 0097 06       		.uleb128 0x6
 3084 0098 40       		.uleb128 0x40
 3085 0099 18       		.uleb128 0x18
 3086 009a 9742     		.uleb128 0x2117
 3087 009c 19       		.uleb128 0x19
 3088 009d 01       		.uleb128 0x1
 3089 009e 13       		.uleb128 0x13
 3090 009f 00       		.byte	0
 3091 00a0 00       		.byte	0
 3092 00a1 0D       		.uleb128 0xd
 3093 00a2 898201   		.uleb128 0x4109
 3094 00a5 01       		.byte	0x1
 3095 00a6 11       		.uleb128 0x11
 3096 00a7 01       		.uleb128 0x1
ARM GAS  /tmp/ccqRxWEk.s 			page 56


 3097 00a8 31       		.uleb128 0x31
 3098 00a9 13       		.uleb128 0x13
 3099 00aa 01       		.uleb128 0x1
 3100 00ab 13       		.uleb128 0x13
 3101 00ac 00       		.byte	0
 3102 00ad 00       		.byte	0
 3103 00ae 0E       		.uleb128 0xe
 3104 00af 8A8201   		.uleb128 0x410a
 3105 00b2 00       		.byte	0
 3106 00b3 02       		.uleb128 0x2
 3107 00b4 18       		.uleb128 0x18
 3108 00b5 9142     		.uleb128 0x2111
 3109 00b7 18       		.uleb128 0x18
 3110 00b8 00       		.byte	0
 3111 00b9 00       		.byte	0
 3112 00ba 0F       		.uleb128 0xf
 3113 00bb 898201   		.uleb128 0x4109
 3114 00be 01       		.byte	0x1
 3115 00bf 11       		.uleb128 0x11
 3116 00c0 01       		.uleb128 0x1
 3117 00c1 9542     		.uleb128 0x2115
 3118 00c3 19       		.uleb128 0x19
 3119 00c4 31       		.uleb128 0x31
 3120 00c5 13       		.uleb128 0x13
 3121 00c6 00       		.byte	0
 3122 00c7 00       		.byte	0
 3123 00c8 10       		.uleb128 0x10
 3124 00c9 05       		.uleb128 0x5
 3125 00ca 00       		.byte	0
 3126 00cb 03       		.uleb128 0x3
 3127 00cc 0E       		.uleb128 0xe
 3128 00cd 3A       		.uleb128 0x3a
 3129 00ce 0B       		.uleb128 0xb
 3130 00cf 3B       		.uleb128 0x3b
 3131 00d0 0B       		.uleb128 0xb
 3132 00d1 49       		.uleb128 0x49
 3133 00d2 13       		.uleb128 0x13
 3134 00d3 02       		.uleb128 0x2
 3135 00d4 18       		.uleb128 0x18
 3136 00d5 00       		.byte	0
 3137 00d6 00       		.byte	0
 3138 00d7 11       		.uleb128 0x11
 3139 00d8 34       		.uleb128 0x34
 3140 00d9 00       		.byte	0
 3141 00da 03       		.uleb128 0x3
 3142 00db 0E       		.uleb128 0xe
 3143 00dc 3A       		.uleb128 0x3a
 3144 00dd 0B       		.uleb128 0xb
 3145 00de 3B       		.uleb128 0x3b
 3146 00df 0B       		.uleb128 0xb
 3147 00e0 49       		.uleb128 0x49
 3148 00e1 13       		.uleb128 0x13
 3149 00e2 02       		.uleb128 0x2
 3150 00e3 17       		.uleb128 0x17
 3151 00e4 00       		.byte	0
 3152 00e5 00       		.byte	0
 3153 00e6 12       		.uleb128 0x12
ARM GAS  /tmp/ccqRxWEk.s 			page 57


 3154 00e7 0F       		.uleb128 0xf
 3155 00e8 00       		.byte	0
 3156 00e9 0B       		.uleb128 0xb
 3157 00ea 0B       		.uleb128 0xb
 3158 00eb 49       		.uleb128 0x49
 3159 00ec 13       		.uleb128 0x13
 3160 00ed 00       		.byte	0
 3161 00ee 00       		.byte	0
 3162 00ef 13       		.uleb128 0x13
 3163 00f0 2E       		.uleb128 0x2e
 3164 00f1 01       		.byte	0x1
 3165 00f2 3F       		.uleb128 0x3f
 3166 00f3 19       		.uleb128 0x19
 3167 00f4 03       		.uleb128 0x3
 3168 00f5 0E       		.uleb128 0xe
 3169 00f6 3A       		.uleb128 0x3a
 3170 00f7 0B       		.uleb128 0xb
 3171 00f8 3B       		.uleb128 0x3b
 3172 00f9 05       		.uleb128 0x5
 3173 00fa 27       		.uleb128 0x27
 3174 00fb 19       		.uleb128 0x19
 3175 00fc 11       		.uleb128 0x11
 3176 00fd 01       		.uleb128 0x1
 3177 00fe 12       		.uleb128 0x12
 3178 00ff 06       		.uleb128 0x6
 3179 0100 40       		.uleb128 0x40
 3180 0101 18       		.uleb128 0x18
 3181 0102 9742     		.uleb128 0x2117
 3182 0104 19       		.uleb128 0x19
 3183 0105 01       		.uleb128 0x1
 3184 0106 13       		.uleb128 0x13
 3185 0107 00       		.byte	0
 3186 0108 00       		.byte	0
 3187 0109 14       		.uleb128 0x14
 3188 010a 05       		.uleb128 0x5
 3189 010b 00       		.byte	0
 3190 010c 03       		.uleb128 0x3
 3191 010d 0E       		.uleb128 0xe
 3192 010e 3A       		.uleb128 0x3a
 3193 010f 0B       		.uleb128 0xb
 3194 0110 3B       		.uleb128 0x3b
 3195 0111 05       		.uleb128 0x5
 3196 0112 49       		.uleb128 0x49
 3197 0113 13       		.uleb128 0x13
 3198 0114 02       		.uleb128 0x2
 3199 0115 18       		.uleb128 0x18
 3200 0116 00       		.byte	0
 3201 0117 00       		.byte	0
 3202 0118 15       		.uleb128 0x15
 3203 0119 05       		.uleb128 0x5
 3204 011a 00       		.byte	0
 3205 011b 03       		.uleb128 0x3
 3206 011c 0E       		.uleb128 0xe
 3207 011d 3A       		.uleb128 0x3a
 3208 011e 0B       		.uleb128 0xb
 3209 011f 3B       		.uleb128 0x3b
 3210 0120 05       		.uleb128 0x5
ARM GAS  /tmp/ccqRxWEk.s 			page 58


 3211 0121 49       		.uleb128 0x49
 3212 0122 13       		.uleb128 0x13
 3213 0123 02       		.uleb128 0x2
 3214 0124 17       		.uleb128 0x17
 3215 0125 00       		.byte	0
 3216 0126 00       		.byte	0
 3217 0127 16       		.uleb128 0x16
 3218 0128 34       		.uleb128 0x34
 3219 0129 00       		.byte	0
 3220 012a 03       		.uleb128 0x3
 3221 012b 0E       		.uleb128 0xe
 3222 012c 3A       		.uleb128 0x3a
 3223 012d 0B       		.uleb128 0xb
 3224 012e 3B       		.uleb128 0x3b
 3225 012f 05       		.uleb128 0x5
 3226 0130 49       		.uleb128 0x49
 3227 0131 13       		.uleb128 0x13
 3228 0132 02       		.uleb128 0x2
 3229 0133 17       		.uleb128 0x17
 3230 0134 00       		.byte	0
 3231 0135 00       		.byte	0
 3232 0136 17       		.uleb128 0x17
 3233 0137 2E       		.uleb128 0x2e
 3234 0138 01       		.byte	0x1
 3235 0139 3F       		.uleb128 0x3f
 3236 013a 19       		.uleb128 0x19
 3237 013b 03       		.uleb128 0x3
 3238 013c 0E       		.uleb128 0xe
 3239 013d 3A       		.uleb128 0x3a
 3240 013e 0B       		.uleb128 0xb
 3241 013f 3B       		.uleb128 0x3b
 3242 0140 05       		.uleb128 0x5
 3243 0141 27       		.uleb128 0x27
 3244 0142 19       		.uleb128 0x19
 3245 0143 49       		.uleb128 0x49
 3246 0144 13       		.uleb128 0x13
 3247 0145 11       		.uleb128 0x11
 3248 0146 01       		.uleb128 0x1
 3249 0147 12       		.uleb128 0x12
 3250 0148 06       		.uleb128 0x6
 3251 0149 40       		.uleb128 0x40
 3252 014a 18       		.uleb128 0x18
 3253 014b 9742     		.uleb128 0x2117
 3254 014d 19       		.uleb128 0x19
 3255 014e 01       		.uleb128 0x1
 3256 014f 13       		.uleb128 0x13
 3257 0150 00       		.byte	0
 3258 0151 00       		.byte	0
 3259 0152 18       		.uleb128 0x18
 3260 0153 2E       		.uleb128 0x2e
 3261 0154 00       		.byte	0
 3262 0155 3F       		.uleb128 0x3f
 3263 0156 19       		.uleb128 0x19
 3264 0157 03       		.uleb128 0x3
 3265 0158 0E       		.uleb128 0xe
 3266 0159 3A       		.uleb128 0x3a
 3267 015a 0B       		.uleb128 0xb
ARM GAS  /tmp/ccqRxWEk.s 			page 59


 3268 015b 3B       		.uleb128 0x3b
 3269 015c 05       		.uleb128 0x5
 3270 015d 27       		.uleb128 0x27
 3271 015e 19       		.uleb128 0x19
 3272 015f 49       		.uleb128 0x49
 3273 0160 13       		.uleb128 0x13
 3274 0161 11       		.uleb128 0x11
 3275 0162 01       		.uleb128 0x1
 3276 0163 12       		.uleb128 0x12
 3277 0164 06       		.uleb128 0x6
 3278 0165 40       		.uleb128 0x40
 3279 0166 18       		.uleb128 0x18
 3280 0167 9742     		.uleb128 0x2117
 3281 0169 19       		.uleb128 0x19
 3282 016a 00       		.byte	0
 3283 016b 00       		.byte	0
 3284 016c 19       		.uleb128 0x19
 3285 016d 34       		.uleb128 0x34
 3286 016e 00       		.byte	0
 3287 016f 03       		.uleb128 0x3
 3288 0170 08       		.uleb128 0x8
 3289 0171 3A       		.uleb128 0x3a
 3290 0172 0B       		.uleb128 0xb
 3291 0173 3B       		.uleb128 0x3b
 3292 0174 05       		.uleb128 0x5
 3293 0175 49       		.uleb128 0x49
 3294 0176 13       		.uleb128 0x13
 3295 0177 02       		.uleb128 0x2
 3296 0178 18       		.uleb128 0x18
 3297 0179 00       		.byte	0
 3298 017a 00       		.byte	0
 3299 017b 1A       		.uleb128 0x1a
 3300 017c 34       		.uleb128 0x34
 3301 017d 00       		.byte	0
 3302 017e 03       		.uleb128 0x3
 3303 017f 0E       		.uleb128 0xe
 3304 0180 3A       		.uleb128 0x3a
 3305 0181 0B       		.uleb128 0xb
 3306 0182 3B       		.uleb128 0x3b
 3307 0183 05       		.uleb128 0x5
 3308 0184 49       		.uleb128 0x49
 3309 0185 13       		.uleb128 0x13
 3310 0186 3F       		.uleb128 0x3f
 3311 0187 19       		.uleb128 0x19
 3312 0188 3C       		.uleb128 0x3c
 3313 0189 19       		.uleb128 0x19
 3314 018a 00       		.byte	0
 3315 018b 00       		.byte	0
 3316 018c 1B       		.uleb128 0x1b
 3317 018d 2E       		.uleb128 0x2e
 3318 018e 01       		.byte	0x1
 3319 018f 3F       		.uleb128 0x3f
 3320 0190 19       		.uleb128 0x19
 3321 0191 03       		.uleb128 0x3
 3322 0192 0E       		.uleb128 0xe
 3323 0193 3A       		.uleb128 0x3a
 3324 0194 0B       		.uleb128 0xb
ARM GAS  /tmp/ccqRxWEk.s 			page 60


 3325 0195 3B       		.uleb128 0x3b
 3326 0196 05       		.uleb128 0x5
 3327 0197 27       		.uleb128 0x27
 3328 0198 19       		.uleb128 0x19
 3329 0199 3C       		.uleb128 0x3c
 3330 019a 19       		.uleb128 0x19
 3331 019b 00       		.byte	0
 3332 019c 00       		.byte	0
 3333 019d 1C       		.uleb128 0x1c
 3334 019e 05       		.uleb128 0x5
 3335 019f 00       		.byte	0
 3336 01a0 49       		.uleb128 0x49
 3337 01a1 13       		.uleb128 0x13
 3338 01a2 00       		.byte	0
 3339 01a3 00       		.byte	0
 3340 01a4 00       		.byte	0
 3341              		.section	.debug_loc,"",%progbits
 3342              	.Ldebug_loc0:
 3343              	.LLST0:
 3344 0000 00000000 		.4byte	.LVL2
 3345 0004 02000000 		.4byte	.LVL3
 3346 0008 0200     		.2byte	0x2
 3347 000a 30       		.byte	0x30
 3348 000b 9F       		.byte	0x9f
 3349 000c 02000000 		.4byte	.LVL3
 3350 0010 10000000 		.4byte	.LVL4
 3351 0014 0900     		.2byte	0x9
 3352 0016 72       		.byte	0x72
 3353 0017 00       		.sleb128 0
 3354 0018 11       		.byte	0x11
 3355 0019 FFFDFF67 		.sleb128 -50331905
 3356 001d 1A       		.byte	0x1a
 3357 001e 9F       		.byte	0x9f
 3358 001f 26000000 		.4byte	.LVL5
 3359 0023 2A000000 		.4byte	.LVL6
 3360 0027 0100     		.2byte	0x1
 3361 0029 52       		.byte	0x52
 3362 002a 2A000000 		.4byte	.LVL6
 3363 002e 32000000 		.4byte	.LVL7
 3364 0032 0A00     		.2byte	0xa
 3365 0034 74       		.byte	0x74
 3366 0035 00       		.sleb128 0
 3367 0036 11       		.byte	0x11
 3368 0037 FDEFFF87 		.sleb128 -1056966659
 3368      7C
 3369 003c 1A       		.byte	0x1a
 3370 003d 9F       		.byte	0x9f
 3371 003e 32000000 		.4byte	.LVL7
 3372 0042 34000000 		.4byte	.LVL8
 3373 0046 0100     		.2byte	0x1
 3374 0048 53       		.byte	0x53
 3375 0049 34000000 		.4byte	.LVL8
 3376 004d 38000000 		.4byte	.LVL9
 3377 0051 0A00     		.2byte	0xa
 3378 0053 74       		.byte	0x74
 3379 0054 00       		.sleb128 0
 3380 0055 11       		.byte	0x11
ARM GAS  /tmp/ccqRxWEk.s 			page 61


 3381 0056 FDEFFF87 		.sleb128 -1056966659
 3381      7C
 3382 005b 1A       		.byte	0x1a
 3383 005c 9F       		.byte	0x9f
 3384 005d 38000000 		.4byte	.LVL9
 3385 0061 3C000000 		.4byte	.LVL10
 3386 0065 0100     		.2byte	0x1
 3387 0067 53       		.byte	0x53
 3388 0068 3C000000 		.4byte	.LVL10
 3389 006c 3E000000 		.4byte	.LVL11
 3390 0070 0200     		.2byte	0x2
 3391 0072 70       		.byte	0x70
 3392 0073 08       		.sleb128 8
 3393 0074 3E000000 		.4byte	.LVL11
 3394 0078 4A000000 		.4byte	.LVL13
 3395 007c 0100     		.2byte	0x1
 3396 007e 52       		.byte	0x52
 3397 007f 4A000000 		.4byte	.LVL13
 3398 0083 58000000 		.4byte	.LFE113
 3399 0087 0100     		.2byte	0x1
 3400 0089 53       		.byte	0x53
 3401 008a 00000000 		.4byte	0
 3402 008e 00000000 		.4byte	0
 3403              	.LLST1:
 3404 0092 00000000 		.4byte	.LVL2
 3405 0096 46000000 		.4byte	.LVL12
 3406 009a 0200     		.2byte	0x2
 3407 009c 30       		.byte	0x30
 3408 009d 9F       		.byte	0x9f
 3409 009e 46000000 		.4byte	.LVL12
 3410 00a2 4C000000 		.4byte	.LVL14
 3411 00a6 0700     		.2byte	0x7
 3412 00a8 71       		.byte	0x71
 3413 00a9 14       		.sleb128 20
 3414 00aa 94       		.byte	0x94
 3415 00ab 01       		.byte	0x1
 3416 00ac 31       		.byte	0x31
 3417 00ad 1C       		.byte	0x1c
 3418 00ae 9F       		.byte	0x9f
 3419 00af 00000000 		.4byte	0
 3420 00b3 00000000 		.4byte	0
 3421              	.LLST2:
 3422 00b7 00000000 		.4byte	.LVL16
 3423 00bb 10000000 		.4byte	.LVL17
 3424 00bf 0100     		.2byte	0x1
 3425 00c1 50       		.byte	0x50
 3426 00c2 10000000 		.4byte	.LVL17
 3427 00c6 28000000 		.4byte	.LFE115
 3428 00ca 0400     		.2byte	0x4
 3429 00cc F3       		.byte	0xf3
 3430 00cd 01       		.uleb128 0x1
 3431 00ce 50       		.byte	0x50
 3432 00cf 9F       		.byte	0x9f
 3433 00d0 00000000 		.4byte	0
 3434 00d4 00000000 		.4byte	0
 3435              	.LLST3:
 3436 00d8 00000000 		.4byte	.LVL16
ARM GAS  /tmp/ccqRxWEk.s 			page 62


 3437 00dc 10000000 		.4byte	.LVL17
 3438 00e0 0200     		.2byte	0x2
 3439 00e2 30       		.byte	0x30
 3440 00e3 9F       		.byte	0x9f
 3441 00e4 10000000 		.4byte	.LVL17
 3442 00e8 18000000 		.4byte	.LVL18
 3443 00ec 0100     		.2byte	0x1
 3444 00ee 50       		.byte	0x50
 3445 00ef 18000000 		.4byte	.LVL18
 3446 00f3 28000000 		.4byte	.LFE115
 3447 00f7 0100     		.2byte	0x1
 3448 00f9 53       		.byte	0x53
 3449 00fa 00000000 		.4byte	0
 3450 00fe 00000000 		.4byte	0
 3451              	.LLST4:
 3452 0102 00000000 		.4byte	.LVL22
 3453 0106 0C000000 		.4byte	.LVL26
 3454 010a 0100     		.2byte	0x1
 3455 010c 51       		.byte	0x51
 3456 010d 0C000000 		.4byte	.LVL26
 3457 0111 10000000 		.4byte	.LFE118
 3458 0115 0400     		.2byte	0x4
 3459 0117 F3       		.byte	0xf3
 3460 0118 01       		.uleb128 0x1
 3461 0119 51       		.byte	0x51
 3462 011a 9F       		.byte	0x9f
 3463 011b 00000000 		.4byte	0
 3464 011f 00000000 		.4byte	0
 3465              	.LLST5:
 3466 0123 00000000 		.4byte	.LVL22
 3467 0127 02000000 		.4byte	.LVL23
 3468 012b 0200     		.2byte	0x2
 3469 012d 30       		.byte	0x30
 3470 012e 9F       		.byte	0x9f
 3471 012f 02000000 		.4byte	.LVL23
 3472 0133 06000000 		.4byte	.LVL24
 3473 0137 0100     		.2byte	0x1
 3474 0139 53       		.byte	0x53
 3475 013a 0A000000 		.4byte	.LVL25
 3476 013e 0C000000 		.4byte	.LVL26
 3477 0142 0100     		.2byte	0x1
 3478 0144 53       		.byte	0x53
 3479 0145 0C000000 		.4byte	.LVL26
 3480 0149 10000000 		.4byte	.LFE118
 3481 014d 0100     		.2byte	0x1
 3482 014f 51       		.byte	0x51
 3483 0150 00000000 		.4byte	0
 3484 0154 00000000 		.4byte	0
 3485              	.LLST6:
 3486 0158 00000000 		.4byte	.LVL28
 3487 015c 08000000 		.4byte	.LVL31
 3488 0160 0100     		.2byte	0x1
 3489 0162 51       		.byte	0x51
 3490 0163 08000000 		.4byte	.LVL31
 3491 0167 0C000000 		.4byte	.LFE120
 3492 016b 0400     		.2byte	0x4
 3493 016d F3       		.byte	0xf3
ARM GAS  /tmp/ccqRxWEk.s 			page 63


 3494 016e 01       		.uleb128 0x1
 3495 016f 51       		.byte	0x51
 3496 0170 9F       		.byte	0x9f
 3497 0171 00000000 		.4byte	0
 3498 0175 00000000 		.4byte	0
 3499              	.LLST7:
 3500 0179 00000000 		.4byte	.LVL28
 3501 017d 02000000 		.4byte	.LVL29
 3502 0181 0200     		.2byte	0x2
 3503 0183 30       		.byte	0x30
 3504 0184 9F       		.byte	0x9f
 3505 0185 02000000 		.4byte	.LVL29
 3506 0189 08000000 		.4byte	.LVL31
 3507 018d 0100     		.2byte	0x1
 3508 018f 53       		.byte	0x53
 3509 0190 08000000 		.4byte	.LVL31
 3510 0194 0C000000 		.4byte	.LFE120
 3511 0198 0100     		.2byte	0x1
 3512 019a 51       		.byte	0x51
 3513 019b 00000000 		.4byte	0
 3514 019f 00000000 		.4byte	0
 3515              	.LLST8:
 3516 01a3 00000000 		.4byte	.LVL34
 3517 01a7 2A000000 		.4byte	.LVL39
 3518 01ab 0100     		.2byte	0x1
 3519 01ad 52       		.byte	0x52
 3520 01ae 2A000000 		.4byte	.LVL39
 3521 01b2 44000000 		.4byte	.LVL46
 3522 01b6 0400     		.2byte	0x4
 3523 01b8 F3       		.byte	0xf3
 3524 01b9 01       		.uleb128 0x1
 3525 01ba 52       		.byte	0x52
 3526 01bb 9F       		.byte	0x9f
 3527 01bc 44000000 		.4byte	.LVL46
 3528 01c0 60000000 		.4byte	.LVL51
 3529 01c4 0100     		.2byte	0x1
 3530 01c6 52       		.byte	0x52
 3531 01c7 60000000 		.4byte	.LVL51
 3532 01cb 7A000000 		.4byte	.LVL58
 3533 01cf 0400     		.2byte	0x4
 3534 01d1 F3       		.byte	0xf3
 3535 01d2 01       		.uleb128 0x1
 3536 01d3 52       		.byte	0x52
 3537 01d4 9F       		.byte	0x9f
 3538 01d5 7A000000 		.4byte	.LVL58
 3539 01d9 7C000000 		.4byte	.LVL59
 3540 01dd 0100     		.2byte	0x1
 3541 01df 52       		.byte	0x52
 3542 01e0 7C000000 		.4byte	.LVL59
 3543 01e4 96000000 		.4byte	.LFE123
 3544 01e8 0400     		.2byte	0x4
 3545 01ea F3       		.byte	0xf3
 3546 01eb 01       		.uleb128 0x1
 3547 01ec 52       		.byte	0x52
 3548 01ed 9F       		.byte	0x9f
 3549 01ee 00000000 		.4byte	0
 3550 01f2 00000000 		.4byte	0
ARM GAS  /tmp/ccqRxWEk.s 			page 64


 3551              	.LLST9:
 3552 01f6 00000000 		.4byte	.LVL34
 3553 01fa 1C000000 		.4byte	.LVL37
 3554 01fe 0100     		.2byte	0x1
 3555 0200 53       		.byte	0x53
 3556 0201 1C000000 		.4byte	.LVL37
 3557 0205 44000000 		.4byte	.LVL46
 3558 0209 0400     		.2byte	0x4
 3559 020b F3       		.byte	0xf3
 3560 020c 01       		.uleb128 0x1
 3561 020d 53       		.byte	0x53
 3562 020e 9F       		.byte	0x9f
 3563 020f 44000000 		.4byte	.LVL46
 3564 0213 56000000 		.4byte	.LVL49
 3565 0217 0100     		.2byte	0x1
 3566 0219 53       		.byte	0x53
 3567 021a 56000000 		.4byte	.LVL49
 3568 021e 96000000 		.4byte	.LFE123
 3569 0222 0400     		.2byte	0x4
 3570 0224 F3       		.byte	0xf3
 3571 0225 01       		.uleb128 0x1
 3572 0226 53       		.byte	0x53
 3573 0227 9F       		.byte	0x9f
 3574 0228 00000000 		.4byte	0
 3575 022c 00000000 		.4byte	0
 3576              	.LLST10:
 3577 0230 00000000 		.4byte	.LVL34
 3578 0234 10000000 		.4byte	.LVL35
 3579 0238 0200     		.2byte	0x2
 3580 023a 30       		.byte	0x30
 3581 023b 9F       		.byte	0x9f
 3582 023c 10000000 		.4byte	.LVL35
 3583 0240 1C000000 		.4byte	.LVL37
 3584 0244 0100     		.2byte	0x1
 3585 0246 55       		.byte	0x55
 3586 0247 1C000000 		.4byte	.LVL37
 3587 024b 2C000000 		.4byte	.LVL40
 3588 024f 0100     		.2byte	0x1
 3589 0251 53       		.byte	0x53
 3590 0252 2C000000 		.4byte	.LVL40
 3591 0256 38000000 		.4byte	.LVL43
 3592 025a 0100     		.2byte	0x1
 3593 025c 54       		.byte	0x54
 3594 025d 38000000 		.4byte	.LVL43
 3595 0261 3E000000 		.4byte	.LVL45
 3596 0265 0100     		.2byte	0x1
 3597 0267 53       		.byte	0x53
 3598 0268 3E000000 		.4byte	.LVL45
 3599 026c 44000000 		.4byte	.LVL46
 3600 0270 0100     		.2byte	0x1
 3601 0272 52       		.byte	0x52
 3602 0273 44000000 		.4byte	.LVL46
 3603 0277 4A000000 		.4byte	.LVL47
 3604 027b 0200     		.2byte	0x2
 3605 027d 30       		.byte	0x30
 3606 027e 9F       		.byte	0x9f
 3607 027f 4A000000 		.4byte	.LVL47
ARM GAS  /tmp/ccqRxWEk.s 			page 65


 3608 0283 56000000 		.4byte	.LVL49
 3609 0287 0100     		.2byte	0x1
 3610 0289 55       		.byte	0x55
 3611 028a 56000000 		.4byte	.LVL49
 3612 028e 62000000 		.4byte	.LVL52
 3613 0292 0100     		.2byte	0x1
 3614 0294 53       		.byte	0x53
 3615 0295 62000000 		.4byte	.LVL52
 3616 0299 6E000000 		.4byte	.LVL55
 3617 029d 0100     		.2byte	0x1
 3618 029f 54       		.byte	0x54
 3619 02a0 6E000000 		.4byte	.LVL55
 3620 02a4 74000000 		.4byte	.LVL57
 3621 02a8 0100     		.2byte	0x1
 3622 02aa 53       		.byte	0x53
 3623 02ab 74000000 		.4byte	.LVL57
 3624 02af 7A000000 		.4byte	.LVL58
 3625 02b3 0100     		.2byte	0x1
 3626 02b5 52       		.byte	0x52
 3627 02b6 7A000000 		.4byte	.LVL58
 3628 02ba 7E000000 		.4byte	.LVL60
 3629 02be 0100     		.2byte	0x1
 3630 02c0 53       		.byte	0x53
 3631 02c1 7E000000 		.4byte	.LVL60
 3632 02c5 8A000000 		.4byte	.LVL63
 3633 02c9 0100     		.2byte	0x1
 3634 02cb 54       		.byte	0x54
 3635 02cc 8A000000 		.4byte	.LVL63
 3636 02d0 90000000 		.4byte	.LVL65
 3637 02d4 0100     		.2byte	0x1
 3638 02d6 53       		.byte	0x53
 3639 02d7 90000000 		.4byte	.LVL65
 3640 02db 96000000 		.4byte	.LFE123
 3641 02df 0100     		.2byte	0x1
 3642 02e1 52       		.byte	0x52
 3643 02e2 00000000 		.4byte	0
 3644 02e6 00000000 		.4byte	0
 3645              	.LLST11:
 3646 02ea 00000000 		.4byte	.LVL34
 3647 02ee 10000000 		.4byte	.LVL35
 3648 02f2 0200     		.2byte	0x2
 3649 02f4 30       		.byte	0x30
 3650 02f5 9F       		.byte	0x9f
 3651 02f6 10000000 		.4byte	.LVL35
 3652 02fa 14000000 		.4byte	.LVL36
 3653 02fe 0500     		.2byte	0x5
 3654 0300 37       		.byte	0x37
 3655 0301 74       		.byte	0x74
 3656 0302 00       		.sleb128 0
 3657 0303 24       		.byte	0x24
 3658 0304 9F       		.byte	0x9f
 3659 0305 14000000 		.4byte	.LVL36
 3660 0309 1C000000 		.4byte	.LVL37
 3661 030d 0100     		.2byte	0x1
 3662 030f 56       		.byte	0x56
 3663 0310 30000000 		.4byte	.LVL41
 3664 0314 34000000 		.4byte	.LVL42
ARM GAS  /tmp/ccqRxWEk.s 			page 66


 3665 0318 0500     		.2byte	0x5
 3666 031a 4F       		.byte	0x4f
 3667 031b 72       		.byte	0x72
 3668 031c 00       		.sleb128 0
 3669 031d 24       		.byte	0x24
 3670 031e 9F       		.byte	0x9f
 3671 031f 34000000 		.4byte	.LVL42
 3672 0323 38000000 		.4byte	.LVL43
 3673 0327 0100     		.2byte	0x1
 3674 0329 53       		.byte	0x53
 3675 032a 38000000 		.4byte	.LVL43
 3676 032e 3C000000 		.4byte	.LVL44
 3677 0332 0900     		.2byte	0x9
 3678 0334 71       		.byte	0x71
 3679 0335 00       		.sleb128 0
 3680 0336 08       		.byte	0x8
 3681 0337 FF       		.byte	0xff
 3682 0338 1A       		.byte	0x1a
 3683 0339 72       		.byte	0x72
 3684 033a 00       		.sleb128 0
 3685 033b 24       		.byte	0x24
 3686 033c 9F       		.byte	0x9f
 3687 033d 44000000 		.4byte	.LVL46
 3688 0341 4A000000 		.4byte	.LVL47
 3689 0345 0200     		.2byte	0x2
 3690 0347 30       		.byte	0x30
 3691 0348 9F       		.byte	0x9f
 3692 0349 4A000000 		.4byte	.LVL47
 3693 034d 4E000000 		.4byte	.LVL48
 3694 0351 0500     		.2byte	0x5
 3695 0353 37       		.byte	0x37
 3696 0354 74       		.byte	0x74
 3697 0355 00       		.sleb128 0
 3698 0356 24       		.byte	0x24
 3699 0357 9F       		.byte	0x9f
 3700 0358 4E000000 		.4byte	.LVL48
 3701 035c 56000000 		.4byte	.LVL49
 3702 0360 0100     		.2byte	0x1
 3703 0362 56       		.byte	0x56
 3704 0363 66000000 		.4byte	.LVL53
 3705 0367 6A000000 		.4byte	.LVL54
 3706 036b 0500     		.2byte	0x5
 3707 036d 4F       		.byte	0x4f
 3708 036e 72       		.byte	0x72
 3709 036f 00       		.sleb128 0
 3710 0370 24       		.byte	0x24
 3711 0371 9F       		.byte	0x9f
 3712 0372 6A000000 		.4byte	.LVL54
 3713 0376 6E000000 		.4byte	.LVL55
 3714 037a 0100     		.2byte	0x1
 3715 037c 53       		.byte	0x53
 3716 037d 6E000000 		.4byte	.LVL55
 3717 0381 72000000 		.4byte	.LVL56
 3718 0385 0900     		.2byte	0x9
 3719 0387 71       		.byte	0x71
 3720 0388 00       		.sleb128 0
 3721 0389 08       		.byte	0x8
ARM GAS  /tmp/ccqRxWEk.s 			page 67


 3722 038a FF       		.byte	0xff
 3723 038b 1A       		.byte	0x1a
 3724 038c 72       		.byte	0x72
 3725 038d 00       		.sleb128 0
 3726 038e 24       		.byte	0x24
 3727 038f 9F       		.byte	0x9f
 3728 0390 82000000 		.4byte	.LVL61
 3729 0394 86000000 		.4byte	.LVL62
 3730 0398 0500     		.2byte	0x5
 3731 039a 4F       		.byte	0x4f
 3732 039b 72       		.byte	0x72
 3733 039c 00       		.sleb128 0
 3734 039d 24       		.byte	0x24
 3735 039e 9F       		.byte	0x9f
 3736 039f 86000000 		.4byte	.LVL62
 3737 03a3 8A000000 		.4byte	.LVL63
 3738 03a7 0100     		.2byte	0x1
 3739 03a9 53       		.byte	0x53
 3740 03aa 8A000000 		.4byte	.LVL63
 3741 03ae 8E000000 		.4byte	.LVL64
 3742 03b2 0900     		.2byte	0x9
 3743 03b4 71       		.byte	0x71
 3744 03b5 00       		.sleb128 0
 3745 03b6 08       		.byte	0x8
 3746 03b7 FF       		.byte	0xff
 3747 03b8 1A       		.byte	0x1a
 3748 03b9 72       		.byte	0x72
 3749 03ba 00       		.sleb128 0
 3750 03bb 24       		.byte	0x24
 3751 03bc 9F       		.byte	0x9f
 3752 03bd 00000000 		.4byte	0
 3753 03c1 00000000 		.4byte	0
 3754              	.LLST12:
 3755 03c5 00000000 		.4byte	.LVL67
 3756 03c9 02000000 		.4byte	.LVL68
 3757 03cd 0100     		.2byte	0x1
 3758 03cf 50       		.byte	0x50
 3759 03d0 02000000 		.4byte	.LVL68
 3760 03d4 08000000 		.4byte	.LFE125
 3761 03d8 0400     		.2byte	0x4
 3762 03da F3       		.byte	0xf3
 3763 03db 01       		.uleb128 0x1
 3764 03dc 50       		.byte	0x50
 3765 03dd 9F       		.byte	0x9f
 3766 03de 00000000 		.4byte	0
 3767 03e2 00000000 		.4byte	0
 3768              	.LLST13:
 3769 03e6 00000000 		.4byte	.LVL67
 3770 03ea 02000000 		.4byte	.LVL68
 3771 03ee 0200     		.2byte	0x2
 3772 03f0 30       		.byte	0x30
 3773 03f1 9F       		.byte	0x9f
 3774 03f2 02000000 		.4byte	.LVL68
 3775 03f6 06000000 		.4byte	.LVL69
 3776 03fa 0900     		.2byte	0x9
 3777 03fc 70       		.byte	0x70
 3778 03fd 00       		.sleb128 0
ARM GAS  /tmp/ccqRxWEk.s 			page 68


 3779 03fe 40       		.byte	0x40
 3780 03ff 4A       		.byte	0x4a
 3781 0400 24       		.byte	0x24
 3782 0401 1A       		.byte	0x1a
 3783 0402 30       		.byte	0x30
 3784 0403 2E       		.byte	0x2e
 3785 0404 9F       		.byte	0x9f
 3786 0405 00000000 		.4byte	0
 3787 0409 00000000 		.4byte	0
 3788              	.LLST14:
 3789 040d 00000000 		.4byte	.LVL72
 3790 0411 04000000 		.4byte	.LVL74
 3791 0415 0100     		.2byte	0x1
 3792 0417 51       		.byte	0x51
 3793 0418 04000000 		.4byte	.LVL74
 3794 041c 10000000 		.4byte	.LFE128
 3795 0420 0400     		.2byte	0x4
 3796 0422 F3       		.byte	0xf3
 3797 0423 01       		.uleb128 0x1
 3798 0424 51       		.byte	0x51
 3799 0425 9F       		.byte	0x9f
 3800 0426 00000000 		.4byte	0
 3801 042a 00000000 		.4byte	0
 3802              	.LLST15:
 3803 042e 00000000 		.4byte	.LVL72
 3804 0432 02000000 		.4byte	.LVL73
 3805 0436 0200     		.2byte	0x2
 3806 0438 30       		.byte	0x30
 3807 0439 9F       		.byte	0x9f
 3808 043a 02000000 		.4byte	.LVL73
 3809 043e 0C000000 		.4byte	.LVL76
 3810 0442 0100     		.2byte	0x1
 3811 0444 53       		.byte	0x53
 3812 0445 0C000000 		.4byte	.LVL76
 3813 0449 10000000 		.4byte	.LFE128
 3814 044d 0100     		.2byte	0x1
 3815 044f 51       		.byte	0x51
 3816 0450 00000000 		.4byte	0
 3817 0454 00000000 		.4byte	0
 3818              	.LLST16:
 3819 0458 00000000 		.4byte	.LVL72
 3820 045c 08000000 		.4byte	.LVL75
 3821 0460 0200     		.2byte	0x2
 3822 0462 30       		.byte	0x30
 3823 0463 9F       		.byte	0x9f
 3824 0464 08000000 		.4byte	.LVL75
 3825 0468 10000000 		.4byte	.LFE128
 3826 046c 0900     		.2byte	0x9
 3827 046e F3       		.byte	0xf3
 3828 046f 01       		.uleb128 0x1
 3829 0470 51       		.byte	0x51
 3830 0471 08       		.byte	0x8
 3831 0472 FF       		.byte	0xff
 3832 0473 1A       		.byte	0x1a
 3833 0474 31       		.byte	0x31
 3834 0475 1C       		.byte	0x1c
 3835 0476 9F       		.byte	0x9f
ARM GAS  /tmp/ccqRxWEk.s 			page 69


 3836 0477 00000000 		.4byte	0
 3837 047b 00000000 		.4byte	0
 3838              	.LLST17:
 3839 047f 00000000 		.4byte	.LVL78
 3840 0483 02000000 		.4byte	.LVL79
 3841 0487 0100     		.2byte	0x1
 3842 0489 50       		.byte	0x50
 3843 048a 02000000 		.4byte	.LVL79
 3844 048e 06000000 		.4byte	.LFE130
 3845 0492 0400     		.2byte	0x4
 3846 0494 F3       		.byte	0xf3
 3847 0495 01       		.uleb128 0x1
 3848 0496 50       		.byte	0x50
 3849 0497 9F       		.byte	0x9f
 3850 0498 00000000 		.4byte	0
 3851 049c 00000000 		.4byte	0
 3852              	.LLST18:
 3853 04a0 00000000 		.4byte	.LVL83
 3854 04a4 36000000 		.4byte	.LVL93
 3855 04a8 0100     		.2byte	0x1
 3856 04aa 51       		.byte	0x51
 3857 04ab 36000000 		.4byte	.LVL93
 3858 04af 3E000000 		.4byte	.LVL95
 3859 04b3 0400     		.2byte	0x4
 3860 04b5 F3       		.byte	0xf3
 3861 04b6 01       		.uleb128 0x1
 3862 04b7 51       		.byte	0x51
 3863 04b8 9F       		.byte	0x9f
 3864 04b9 3E000000 		.4byte	.LVL95
 3865 04bd 5A000000 		.4byte	.LFE135
 3866 04c1 0100     		.2byte	0x1
 3867 04c3 51       		.byte	0x51
 3868 04c4 00000000 		.4byte	0
 3869 04c8 00000000 		.4byte	0
 3870              	.LLST19:
 3871 04cc 00000000 		.4byte	.LVL83
 3872 04d0 20000000 		.4byte	.LVL89
 3873 04d4 0100     		.2byte	0x1
 3874 04d6 52       		.byte	0x52
 3875 04d7 20000000 		.4byte	.LVL89
 3876 04db 3E000000 		.4byte	.LVL95
 3877 04df 0400     		.2byte	0x4
 3878 04e1 F3       		.byte	0xf3
 3879 04e2 01       		.uleb128 0x1
 3880 04e3 52       		.byte	0x52
 3881 04e4 9F       		.byte	0x9f
 3882 04e5 3E000000 		.4byte	.LVL95
 3883 04e9 5A000000 		.4byte	.LFE135
 3884 04ed 0100     		.2byte	0x1
 3885 04ef 52       		.byte	0x52
 3886 04f0 00000000 		.4byte	0
 3887 04f4 00000000 		.4byte	0
 3888              	.LLST20:
 3889 04f8 00000000 		.4byte	.LVL83
 3890 04fc 18000000 		.4byte	.LVL86
 3891 0500 0100     		.2byte	0x1
 3892 0502 53       		.byte	0x53
ARM GAS  /tmp/ccqRxWEk.s 			page 70


 3893 0503 18000000 		.4byte	.LVL86
 3894 0507 3E000000 		.4byte	.LVL95
 3895 050b 0400     		.2byte	0x4
 3896 050d F3       		.byte	0xf3
 3897 050e 01       		.uleb128 0x1
 3898 050f 53       		.byte	0x53
 3899 0510 9F       		.byte	0x9f
 3900 0511 3E000000 		.4byte	.LVL95
 3901 0515 54000000 		.4byte	.LVL98
 3902 0519 0100     		.2byte	0x1
 3903 051b 53       		.byte	0x53
 3904 051c 54000000 		.4byte	.LVL98
 3905 0520 5A000000 		.4byte	.LFE135
 3906 0524 0400     		.2byte	0x4
 3907 0526 F3       		.byte	0xf3
 3908 0527 01       		.uleb128 0x1
 3909 0528 53       		.byte	0x53
 3910 0529 9F       		.byte	0x9f
 3911 052a 00000000 		.4byte	0
 3912 052e 00000000 		.4byte	0
 3913              	.LLST21:
 3914 0532 00000000 		.4byte	.LVL83
 3915 0536 0C000000 		.4byte	.LVL84
 3916 053a 0200     		.2byte	0x2
 3917 053c 30       		.byte	0x30
 3918 053d 9F       		.byte	0x9f
 3919 053e 0C000000 		.4byte	.LVL84
 3920 0542 18000000 		.4byte	.LVL86
 3921 0546 0100     		.2byte	0x1
 3922 0548 55       		.byte	0x55
 3923 0549 18000000 		.4byte	.LVL86
 3924 054d 3E000000 		.4byte	.LVL95
 3925 0551 0100     		.2byte	0x1
 3926 0553 53       		.byte	0x53
 3927 0554 3E000000 		.4byte	.LVL95
 3928 0558 48000000 		.4byte	.LVL96
 3929 055c 0200     		.2byte	0x2
 3930 055e 30       		.byte	0x30
 3931 055f 9F       		.byte	0x9f
 3932 0560 48000000 		.4byte	.LVL96
 3933 0564 54000000 		.4byte	.LVL98
 3934 0568 0100     		.2byte	0x1
 3935 056a 55       		.byte	0x55
 3936 056b 54000000 		.4byte	.LVL98
 3937 056f 5A000000 		.4byte	.LFE135
 3938 0573 0100     		.2byte	0x1
 3939 0575 53       		.byte	0x53
 3940 0576 00000000 		.4byte	0
 3941 057a 00000000 		.4byte	0
 3942              	.LLST22:
 3943 057e 00000000 		.4byte	.LVL83
 3944 0582 0C000000 		.4byte	.LVL84
 3945 0586 0200     		.2byte	0x2
 3946 0588 30       		.byte	0x30
 3947 0589 9F       		.byte	0x9f
 3948 058a 0C000000 		.4byte	.LVL84
 3949 058e 10000000 		.4byte	.LVL85
ARM GAS  /tmp/ccqRxWEk.s 			page 71


 3950 0592 0500     		.2byte	0x5
 3951 0594 37       		.byte	0x37
 3952 0595 74       		.byte	0x74
 3953 0596 00       		.sleb128 0
 3954 0597 24       		.byte	0x24
 3955 0598 9F       		.byte	0x9f
 3956 0599 10000000 		.4byte	.LVL85
 3957 059d 18000000 		.4byte	.LVL86
 3958 05a1 0100     		.2byte	0x1
 3959 05a3 56       		.byte	0x56
 3960 05a4 2C000000 		.4byte	.LVL90
 3961 05a8 30000000 		.4byte	.LVL91
 3962 05ac 0500     		.2byte	0x5
 3963 05ae 4F       		.byte	0x4f
 3964 05af 72       		.byte	0x72
 3965 05b0 00       		.sleb128 0
 3966 05b1 24       		.byte	0x24
 3967 05b2 9F       		.byte	0x9f
 3968 05b3 30000000 		.4byte	.LVL91
 3969 05b7 34000000 		.4byte	.LVL92
 3970 05bb 0100     		.2byte	0x1
 3971 05bd 54       		.byte	0x54
 3972 05be 34000000 		.4byte	.LVL92
 3973 05c2 36000000 		.4byte	.LVL93
 3974 05c6 0900     		.2byte	0x9
 3975 05c8 71       		.byte	0x71
 3976 05c9 00       		.sleb128 0
 3977 05ca 08       		.byte	0x8
 3978 05cb FF       		.byte	0xff
 3979 05cc 1A       		.byte	0x1a
 3980 05cd 72       		.byte	0x72
 3981 05ce 00       		.sleb128 0
 3982 05cf 24       		.byte	0x24
 3983 05d0 9F       		.byte	0x9f
 3984 05d1 3E000000 		.4byte	.LVL95
 3985 05d5 48000000 		.4byte	.LVL96
 3986 05d9 0200     		.2byte	0x2
 3987 05db 30       		.byte	0x30
 3988 05dc 9F       		.byte	0x9f
 3989 05dd 48000000 		.4byte	.LVL96
 3990 05e1 4C000000 		.4byte	.LVL97
 3991 05e5 0500     		.2byte	0x5
 3992 05e7 37       		.byte	0x37
 3993 05e8 74       		.byte	0x74
 3994 05e9 00       		.sleb128 0
 3995 05ea 24       		.byte	0x24
 3996 05eb 9F       		.byte	0x9f
 3997 05ec 4C000000 		.4byte	.LVL97
 3998 05f0 54000000 		.4byte	.LVL98
 3999 05f4 0100     		.2byte	0x1
 4000 05f6 56       		.byte	0x56
 4001 05f7 00000000 		.4byte	0
 4002 05fb 00000000 		.4byte	0
 4003              	.LLST23:
 4004 05ff 00000000 		.4byte	.LVL83
 4005 0603 1E000000 		.4byte	.LVL88
 4006 0607 0200     		.2byte	0x2
ARM GAS  /tmp/ccqRxWEk.s 			page 72


 4007 0609 30       		.byte	0x30
 4008 060a 9F       		.byte	0x9f
 4009 060b 1E000000 		.4byte	.LVL88
 4010 060f 34000000 		.4byte	.LVL92
 4011 0613 0900     		.2byte	0x9
 4012 0615 73       		.byte	0x73
 4013 0616 00       		.sleb128 0
 4014 0617 48       		.byte	0x48
 4015 0618 41       		.byte	0x41
 4016 0619 24       		.byte	0x24
 4017 061a 1A       		.byte	0x1a
 4018 061b 44       		.byte	0x44
 4019 061c 25       		.byte	0x25
 4020 061d 9F       		.byte	0x9f
 4021 061e 3E000000 		.4byte	.LVL95
 4022 0622 5A000000 		.4byte	.LFE135
 4023 0626 0200     		.2byte	0x2
 4024 0628 30       		.byte	0x30
 4025 0629 9F       		.byte	0x9f
 4026 062a 00000000 		.4byte	0
 4027 062e 00000000 		.4byte	0
 4028              	.LLST24:
 4029 0632 00000000 		.4byte	.LVL100
 4030 0636 04000000 		.4byte	.LVL102
 4031 063a 0100     		.2byte	0x1
 4032 063c 51       		.byte	0x51
 4033 063d 04000000 		.4byte	.LVL102
 4034 0641 10000000 		.4byte	.LFE136
 4035 0645 0400     		.2byte	0x4
 4036 0647 F3       		.byte	0xf3
 4037 0648 01       		.uleb128 0x1
 4038 0649 51       		.byte	0x51
 4039 064a 9F       		.byte	0x9f
 4040 064b 00000000 		.4byte	0
 4041 064f 00000000 		.4byte	0
 4042              	.LLST25:
 4043 0653 00000000 		.4byte	.LVL100
 4044 0657 02000000 		.4byte	.LVL101
 4045 065b 0200     		.2byte	0x2
 4046 065d 30       		.byte	0x30
 4047 065e 9F       		.byte	0x9f
 4048 065f 02000000 		.4byte	.LVL101
 4049 0663 0C000000 		.4byte	.LVL104
 4050 0667 0100     		.2byte	0x1
 4051 0669 53       		.byte	0x53
 4052 066a 0C000000 		.4byte	.LVL104
 4053 066e 10000000 		.4byte	.LFE136
 4054 0672 0100     		.2byte	0x1
 4055 0674 51       		.byte	0x51
 4056 0675 00000000 		.4byte	0
 4057 0679 00000000 		.4byte	0
 4058              	.LLST26:
 4059 067d 00000000 		.4byte	.LVL100
 4060 0681 08000000 		.4byte	.LVL103
 4061 0685 0200     		.2byte	0x2
 4062 0687 30       		.byte	0x30
 4063 0688 9F       		.byte	0x9f
ARM GAS  /tmp/ccqRxWEk.s 			page 73


 4064 0689 08000000 		.4byte	.LVL103
 4065 068d 10000000 		.4byte	.LFE136
 4066 0691 0900     		.2byte	0x9
 4067 0693 F3       		.byte	0xf3
 4068 0694 01       		.uleb128 0x1
 4069 0695 51       		.byte	0x51
 4070 0696 08       		.byte	0x8
 4071 0697 FF       		.byte	0xff
 4072 0698 1A       		.byte	0x1a
 4073 0699 31       		.byte	0x31
 4074 069a 1C       		.byte	0x1c
 4075 069b 9F       		.byte	0x9f
 4076 069c 00000000 		.4byte	0
 4077 06a0 00000000 		.4byte	0
 4078              	.LLST27:
 4079 06a4 00000000 		.4byte	.LVL105
 4080 06a8 0C000000 		.4byte	.LVL106
 4081 06ac 0100     		.2byte	0x1
 4082 06ae 51       		.byte	0x51
 4083 06af 0C000000 		.4byte	.LVL106
 4084 06b3 16000000 		.4byte	.LFE137
 4085 06b7 0400     		.2byte	0x4
 4086 06b9 F3       		.byte	0xf3
 4087 06ba 01       		.uleb128 0x1
 4088 06bb 51       		.byte	0x51
 4089 06bc 9F       		.byte	0x9f
 4090 06bd 00000000 		.4byte	0
 4091 06c1 00000000 		.4byte	0
 4092              	.LLST28:
 4093 06c5 00000000 		.4byte	.LVL107
 4094 06c9 08000000 		.4byte	.LVL110
 4095 06cd 0100     		.2byte	0x1
 4096 06cf 51       		.byte	0x51
 4097 06d0 08000000 		.4byte	.LVL110
 4098 06d4 0C000000 		.4byte	.LFE138
 4099 06d8 0400     		.2byte	0x4
 4100 06da F3       		.byte	0xf3
 4101 06db 01       		.uleb128 0x1
 4102 06dc 51       		.byte	0x51
 4103 06dd 9F       		.byte	0x9f
 4104 06de 00000000 		.4byte	0
 4105 06e2 00000000 		.4byte	0
 4106              	.LLST29:
 4107 06e6 00000000 		.4byte	.LVL107
 4108 06ea 02000000 		.4byte	.LVL108
 4109 06ee 0200     		.2byte	0x2
 4110 06f0 30       		.byte	0x30
 4111 06f1 9F       		.byte	0x9f
 4112 06f2 02000000 		.4byte	.LVL108
 4113 06f6 08000000 		.4byte	.LVL110
 4114 06fa 0100     		.2byte	0x1
 4115 06fc 53       		.byte	0x53
 4116 06fd 08000000 		.4byte	.LVL110
 4117 0701 0C000000 		.4byte	.LFE138
 4118 0705 0100     		.2byte	0x1
 4119 0707 51       		.byte	0x51
 4120 0708 00000000 		.4byte	0
ARM GAS  /tmp/ccqRxWEk.s 			page 74


 4121 070c 00000000 		.4byte	0
 4122              	.LLST30:
 4123 0710 00000000 		.4byte	.LVL111
 4124 0714 08000000 		.4byte	.LVL114
 4125 0718 0100     		.2byte	0x1
 4126 071a 51       		.byte	0x51
 4127 071b 08000000 		.4byte	.LVL114
 4128 071f 0C000000 		.4byte	.LFE139
 4129 0723 0400     		.2byte	0x4
 4130 0725 F3       		.byte	0xf3
 4131 0726 01       		.uleb128 0x1
 4132 0727 51       		.byte	0x51
 4133 0728 9F       		.byte	0x9f
 4134 0729 00000000 		.4byte	0
 4135 072d 00000000 		.4byte	0
 4136              	.LLST31:
 4137 0731 00000000 		.4byte	.LVL111
 4138 0735 02000000 		.4byte	.LVL112
 4139 0739 0200     		.2byte	0x2
 4140 073b 30       		.byte	0x30
 4141 073c 9F       		.byte	0x9f
 4142 073d 02000000 		.4byte	.LVL112
 4143 0741 08000000 		.4byte	.LVL114
 4144 0745 0100     		.2byte	0x1
 4145 0747 53       		.byte	0x53
 4146 0748 08000000 		.4byte	.LVL114
 4147 074c 0C000000 		.4byte	.LFE139
 4148 0750 0100     		.2byte	0x1
 4149 0752 51       		.byte	0x51
 4150 0753 00000000 		.4byte	0
 4151 0757 00000000 		.4byte	0
 4152              	.LLST32:
 4153 075b 00000000 		.4byte	.LVL116
 4154 075f 02000000 		.4byte	.LVL117
 4155 0763 0100     		.2byte	0x1
 4156 0765 50       		.byte	0x50
 4157 0766 02000000 		.4byte	.LVL117
 4158 076a 08000000 		.4byte	.LFE141
 4159 076e 0400     		.2byte	0x4
 4160 0770 F3       		.byte	0xf3
 4161 0771 01       		.uleb128 0x1
 4162 0772 50       		.byte	0x50
 4163 0773 9F       		.byte	0x9f
 4164 0774 00000000 		.4byte	0
 4165 0778 00000000 		.4byte	0
 4166              	.LLST33:
 4167 077c 00000000 		.4byte	.LVL116
 4168 0780 02000000 		.4byte	.LVL117
 4169 0784 0200     		.2byte	0x2
 4170 0786 30       		.byte	0x30
 4171 0787 9F       		.byte	0x9f
 4172 0788 02000000 		.4byte	.LVL117
 4173 078c 06000000 		.4byte	.LVL118
 4174 0790 0900     		.2byte	0x9
 4175 0792 70       		.byte	0x70
 4176 0793 00       		.sleb128 0
 4177 0794 40       		.byte	0x40
ARM GAS  /tmp/ccqRxWEk.s 			page 75


 4178 0795 42       		.byte	0x42
 4179 0796 24       		.byte	0x24
 4180 0797 1A       		.byte	0x1a
 4181 0798 30       		.byte	0x30
 4182 0799 2E       		.byte	0x2e
 4183 079a 9F       		.byte	0x9f
 4184 079b 00000000 		.4byte	0
 4185 079f 00000000 		.4byte	0
 4186              	.LLST34:
 4187 07a3 00000000 		.4byte	.LVL121
 4188 07a7 14000000 		.4byte	.LVL123
 4189 07ab 0100     		.2byte	0x1
 4190 07ad 50       		.byte	0x50
 4191 07ae 14000000 		.4byte	.LVL123
 4192 07b2 1A000000 		.4byte	.LFE144
 4193 07b6 0400     		.2byte	0x4
 4194 07b8 F3       		.byte	0xf3
 4195 07b9 01       		.uleb128 0x1
 4196 07ba 50       		.byte	0x50
 4197 07bb 9F       		.byte	0x9f
 4198 07bc 00000000 		.4byte	0
 4199 07c0 00000000 		.4byte	0
 4200              	.LLST35:
 4201 07c4 00000000 		.4byte	.LVL121
 4202 07c8 0E000000 		.4byte	.LVL122
 4203 07cc 0100     		.2byte	0x1
 4204 07ce 51       		.byte	0x51
 4205 07cf 0E000000 		.4byte	.LVL122
 4206 07d3 1A000000 		.4byte	.LFE144
 4207 07d7 0400     		.2byte	0x4
 4208 07d9 F3       		.byte	0xf3
 4209 07da 01       		.uleb128 0x1
 4210 07db 51       		.byte	0x51
 4211 07dc 9F       		.byte	0x9f
 4212 07dd 00000000 		.4byte	0
 4213 07e1 00000000 		.4byte	0
 4214              	.LLST36:
 4215 07e5 00000000 		.4byte	.LVL124
 4216 07e9 04000000 		.4byte	.LVL125
 4217 07ed 0100     		.2byte	0x1
 4218 07ef 51       		.byte	0x51
 4219 07f0 04000000 		.4byte	.LVL125
 4220 07f4 1A000000 		.4byte	.LFE145
 4221 07f8 0400     		.2byte	0x4
 4222 07fa F3       		.byte	0xf3
 4223 07fb 01       		.uleb128 0x1
 4224 07fc 51       		.byte	0x51
 4225 07fd 9F       		.byte	0x9f
 4226 07fe 00000000 		.4byte	0
 4227 0802 00000000 		.4byte	0
 4228              	.LLST37:
 4229 0806 00000000 		.4byte	.LVL124
 4230 080a 04000000 		.4byte	.LVL125
 4231 080e 0600     		.2byte	0x6
 4232 0810 71       		.byte	0x71
 4233 0811 00       		.sleb128 0
 4234 0812 08       		.byte	0x8
ARM GAS  /tmp/ccqRxWEk.s 			page 76


 4235 0813 FF       		.byte	0xff
 4236 0814 1A       		.byte	0x1a
 4237 0815 9F       		.byte	0x9f
 4238 0816 04000000 		.4byte	.LVL125
 4239 081a 10000000 		.4byte	.LVL127
 4240 081e 0100     		.2byte	0x1
 4241 0820 51       		.byte	0x51
 4242 0821 10000000 		.4byte	.LVL127
 4243 0825 14000000 		.4byte	.LVL128
 4244 0829 0900     		.2byte	0x9
 4245 082b 31       		.byte	0x31
 4246 082c F3       		.byte	0xf3
 4247 082d 01       		.uleb128 0x1
 4248 082e 51       		.byte	0x51
 4249 082f 08       		.byte	0x8
 4250 0830 FF       		.byte	0xff
 4251 0831 1A       		.byte	0x1a
 4252 0832 24       		.byte	0x24
 4253 0833 9F       		.byte	0x9f
 4254 0834 14000000 		.4byte	.LVL128
 4255 0838 16000000 		.4byte	.LVL129
 4256 083c 0100     		.2byte	0x1
 4257 083e 51       		.byte	0x51
 4258 083f 16000000 		.4byte	.LVL129
 4259 0843 1A000000 		.4byte	.LFE145
 4260 0847 0900     		.2byte	0x9
 4261 0849 31       		.byte	0x31
 4262 084a F3       		.byte	0xf3
 4263 084b 01       		.uleb128 0x1
 4264 084c 51       		.byte	0x51
 4265 084d 08       		.byte	0x8
 4266 084e FF       		.byte	0xff
 4267 084f 1A       		.byte	0x1a
 4268 0850 24       		.byte	0x24
 4269 0851 9F       		.byte	0x9f
 4270 0852 00000000 		.4byte	0
 4271 0856 00000000 		.4byte	0
 4272              	.LLST38:
 4273 085a 00000000 		.4byte	.LVL130
 4274 085e 0A000000 		.4byte	.LVL132
 4275 0862 0100     		.2byte	0x1
 4276 0864 50       		.byte	0x50
 4277 0865 0A000000 		.4byte	.LVL132
 4278 0869 0C000000 		.4byte	.LFE146
 4279 086d 0400     		.2byte	0x4
 4280 086f F3       		.byte	0xf3
 4281 0870 01       		.uleb128 0x1
 4282 0871 50       		.byte	0x50
 4283 0872 9F       		.byte	0x9f
 4284 0873 00000000 		.4byte	0
 4285 0877 00000000 		.4byte	0
 4286              	.LLST39:
 4287 087b 00000000 		.4byte	.LVL130
 4288 087f 02000000 		.4byte	.LVL131
 4289 0883 0200     		.2byte	0x2
 4290 0885 30       		.byte	0x30
 4291 0886 9F       		.byte	0x9f
ARM GAS  /tmp/ccqRxWEk.s 			page 77


 4292 0887 02000000 		.4byte	.LVL131
 4293 088b 0C000000 		.4byte	.LFE146
 4294 088f 0B00     		.2byte	0xb
 4295 0891 71       		.byte	0x71
 4296 0892 00       		.sleb128 0
 4297 0893 08       		.byte	0x8
 4298 0894 FF       		.byte	0xff
 4299 0895 1A       		.byte	0x1a
 4300 0896 73       		.byte	0x73
 4301 0897 00       		.sleb128 0
 4302 0898 1A       		.byte	0x1a
 4303 0899 30       		.byte	0x30
 4304 089a 2E       		.byte	0x2e
 4305 089b 9F       		.byte	0x9f
 4306 089c 00000000 		.4byte	0
 4307 08a0 00000000 		.4byte	0
 4308              	.LLST40:
 4309 08a4 00000000 		.4byte	.LVL133
 4310 08a8 02000000 		.4byte	.LVL134
 4311 08ac 0100     		.2byte	0x1
 4312 08ae 51       		.byte	0x51
 4313 08af 02000000 		.4byte	.LVL134
 4314 08b3 06000000 		.4byte	.LFE147
 4315 08b7 0400     		.2byte	0x4
 4316 08b9 F3       		.byte	0xf3
 4317 08ba 01       		.uleb128 0x1
 4318 08bb 51       		.byte	0x51
 4319 08bc 9F       		.byte	0x9f
 4320 08bd 00000000 		.4byte	0
 4321 08c1 00000000 		.4byte	0
 4322              	.LLST41:
 4323 08c5 00000000 		.4byte	.LVL135
 4324 08c9 04000000 		.4byte	.LVL137
 4325 08cd 0100     		.2byte	0x1
 4326 08cf 50       		.byte	0x50
 4327 08d0 04000000 		.4byte	.LVL137
 4328 08d4 1C000000 		.4byte	.LFE148
 4329 08d8 0400     		.2byte	0x4
 4330 08da F3       		.byte	0xf3
 4331 08db 01       		.uleb128 0x1
 4332 08dc 50       		.byte	0x50
 4333 08dd 9F       		.byte	0x9f
 4334 08de 00000000 		.4byte	0
 4335 08e2 00000000 		.4byte	0
 4336              	.LLST42:
 4337 08e6 00000000 		.4byte	.LVL135
 4338 08ea 0C000000 		.4byte	.LVL138
 4339 08ee 0100     		.2byte	0x1
 4340 08f0 51       		.byte	0x51
 4341 08f1 0C000000 		.4byte	.LVL138
 4342 08f5 1C000000 		.4byte	.LFE148
 4343 08f9 0400     		.2byte	0x4
 4344 08fb F3       		.byte	0xf3
 4345 08fc 01       		.uleb128 0x1
 4346 08fd 51       		.byte	0x51
 4347 08fe 9F       		.byte	0x9f
 4348 08ff 00000000 		.4byte	0
ARM GAS  /tmp/ccqRxWEk.s 			page 78


 4349 0903 00000000 		.4byte	0
 4350              	.LLST43:
 4351 0907 00000000 		.4byte	.LVL135
 4352 090b 1A000000 		.4byte	.LVL139
 4353 090f 0200     		.2byte	0x2
 4354 0911 30       		.byte	0x30
 4355 0912 9F       		.byte	0x9f
 4356 0913 1A000000 		.4byte	.LVL139
 4357 0917 1C000000 		.4byte	.LFE148
 4358 091b 0100     		.2byte	0x1
 4359 091d 50       		.byte	0x50
 4360 091e 00000000 		.4byte	0
 4361 0922 00000000 		.4byte	0
 4362              	.LLST44:
 4363 0926 00000000 		.4byte	.LVL135
 4364 092a 0C000000 		.4byte	.LVL138
 4365 092e 0900     		.2byte	0x9
 4366 0930 71       		.byte	0x71
 4367 0931 00       		.sleb128 0
 4368 0932 38       		.byte	0x38
 4369 0933 25       		.byte	0x25
 4370 0934 0A       		.byte	0xa
 4371 0935 FFFF     		.2byte	0xffff
 4372 0937 1A       		.byte	0x1a
 4373 0938 9F       		.byte	0x9f
 4374 0939 00000000 		.4byte	0
 4375 093d 00000000 		.4byte	0
 4376              	.LLST45:
 4377 0941 00000000 		.4byte	.LVL135
 4378 0945 02000000 		.4byte	.LVL136
 4379 0949 0200     		.2byte	0x2
 4380 094b 30       		.byte	0x30
 4381 094c 9F       		.byte	0x9f
 4382 094d 02000000 		.4byte	.LVL136
 4383 0951 0C000000 		.4byte	.LVL138
 4384 0955 0B00     		.2byte	0xb
 4385 0957 31       		.byte	0x31
 4386 0958 71       		.byte	0x71
 4387 0959 00       		.sleb128 0
 4388 095a 08       		.byte	0x8
 4389 095b FF       		.byte	0xff
 4390 095c 1A       		.byte	0x1a
 4391 095d 24       		.byte	0x24
 4392 095e 73       		.byte	0x73
 4393 095f 00       		.sleb128 0
 4394 0960 1A       		.byte	0x1a
 4395 0961 9F       		.byte	0x9f
 4396 0962 00000000 		.4byte	0
 4397 0966 00000000 		.4byte	0
 4398              	.LLST46:
 4399 096a 00000000 		.4byte	.LVL140
 4400 096e 04000000 		.4byte	.LVL141
 4401 0972 0100     		.2byte	0x1
 4402 0974 51       		.byte	0x51
 4403 0975 04000000 		.4byte	.LVL141
 4404 0979 08000000 		.4byte	.LFE149
 4405 097d 0400     		.2byte	0x4
ARM GAS  /tmp/ccqRxWEk.s 			page 79


 4406 097f F3       		.byte	0xf3
 4407 0980 01       		.uleb128 0x1
 4408 0981 51       		.byte	0x51
 4409 0982 9F       		.byte	0x9f
 4410 0983 00000000 		.4byte	0
 4411 0987 00000000 		.4byte	0
 4412              	.LLST47:
 4413 098b 00000000 		.4byte	.LVL140
 4414 098f 04000000 		.4byte	.LVL141
 4415 0993 0500     		.2byte	0x5
 4416 0995 71       		.byte	0x71
 4417 0996 00       		.sleb128 0
 4418 0997 38       		.byte	0x38
 4419 0998 25       		.byte	0x25
 4420 0999 9F       		.byte	0x9f
 4421 099a 04000000 		.4byte	.LVL141
 4422 099e 08000000 		.4byte	.LFE149
 4423 09a2 0600     		.2byte	0x6
 4424 09a4 F3       		.byte	0xf3
 4425 09a5 01       		.uleb128 0x1
 4426 09a6 51       		.byte	0x51
 4427 09a7 38       		.byte	0x38
 4428 09a8 25       		.byte	0x25
 4429 09a9 9F       		.byte	0x9f
 4430 09aa 00000000 		.4byte	0
 4431 09ae 00000000 		.4byte	0
 4432              		.section	.debug_aranges,"",%progbits
 4433 0000 44010000 		.4byte	0x144
 4434 0004 0200     		.2byte	0x2
 4435 0006 00000000 		.4byte	.Ldebug_info0
 4436 000a 04       		.byte	0x4
 4437 000b 00       		.byte	0
 4438 000c 0000     		.2byte	0
 4439 000e 0000     		.2byte	0
 4440 0010 00000000 		.4byte	.LFB112
 4441 0014 1A000000 		.4byte	.LFE112-.LFB112
 4442 0018 00000000 		.4byte	.LFB113
 4443 001c 58000000 		.4byte	.LFE113-.LFB113
 4444 0020 00000000 		.4byte	.LFB114
 4445 0024 14000000 		.4byte	.LFE114-.LFB114
 4446 0028 00000000 		.4byte	.LFB115
 4447 002c 28000000 		.4byte	.LFE115-.LFB115
 4448 0030 00000000 		.4byte	.LFB116
 4449 0034 0C000000 		.4byte	.LFE116-.LFB116
 4450 0038 00000000 		.4byte	.LFB117
 4451 003c 14000000 		.4byte	.LFE117-.LFB117
 4452 0040 00000000 		.4byte	.LFB118
 4453 0044 10000000 		.4byte	.LFE118-.LFB118
 4454 0048 00000000 		.4byte	.LFB119
 4455 004c 06000000 		.4byte	.LFE119-.LFB119
 4456 0050 00000000 		.4byte	.LFB120
 4457 0054 0C000000 		.4byte	.LFE120-.LFB120
 4458 0058 00000000 		.4byte	.LFB121
 4459 005c 1C000000 		.4byte	.LFE121-.LFB121
 4460 0060 00000000 		.4byte	.LFB122
 4461 0064 1C000000 		.4byte	.LFE122-.LFB122
 4462 0068 00000000 		.4byte	.LFB123
ARM GAS  /tmp/ccqRxWEk.s 			page 80


 4463 006c 96000000 		.4byte	.LFE123-.LFB123
 4464 0070 00000000 		.4byte	.LFB124
 4465 0074 0A000000 		.4byte	.LFE124-.LFB124
 4466 0078 00000000 		.4byte	.LFB125
 4467 007c 08000000 		.4byte	.LFE125-.LFB125
 4468 0080 00000000 		.4byte	.LFB126
 4469 0084 14000000 		.4byte	.LFE126-.LFB126
 4470 0088 00000000 		.4byte	.LFB127
 4471 008c 14000000 		.4byte	.LFE127-.LFB127
 4472 0090 00000000 		.4byte	.LFB128
 4473 0094 10000000 		.4byte	.LFE128-.LFB128
 4474 0098 00000000 		.4byte	.LFB129
 4475 009c 14000000 		.4byte	.LFE129-.LFB129
 4476 00a0 00000000 		.4byte	.LFB130
 4477 00a4 06000000 		.4byte	.LFE130-.LFB130
 4478 00a8 00000000 		.4byte	.LFB131
 4479 00ac 0C000000 		.4byte	.LFE131-.LFB131
 4480 00b0 00000000 		.4byte	.LFB132
 4481 00b4 14000000 		.4byte	.LFE132-.LFB132
 4482 00b8 00000000 		.4byte	.LFB133
 4483 00bc 14000000 		.4byte	.LFE133-.LFB133
 4484 00c0 00000000 		.4byte	.LFB134
 4485 00c4 1C000000 		.4byte	.LFE134-.LFB134
 4486 00c8 00000000 		.4byte	.LFB135
 4487 00cc 5A000000 		.4byte	.LFE135-.LFB135
 4488 00d0 00000000 		.4byte	.LFB136
 4489 00d4 10000000 		.4byte	.LFE136-.LFB136
 4490 00d8 00000000 		.4byte	.LFB137
 4491 00dc 16000000 		.4byte	.LFE137-.LFB137
 4492 00e0 00000000 		.4byte	.LFB138
 4493 00e4 0C000000 		.4byte	.LFE138-.LFB138
 4494 00e8 00000000 		.4byte	.LFB139
 4495 00ec 0C000000 		.4byte	.LFE139-.LFB139
 4496 00f0 00000000 		.4byte	.LFB140
 4497 00f4 0A000000 		.4byte	.LFE140-.LFB140
 4498 00f8 00000000 		.4byte	.LFB141
 4499 00fc 08000000 		.4byte	.LFE141-.LFB141
 4500 0100 00000000 		.4byte	.LFB142
 4501 0104 14000000 		.4byte	.LFE142-.LFB142
 4502 0108 00000000 		.4byte	.LFB143
 4503 010c 14000000 		.4byte	.LFE143-.LFB143
 4504 0110 00000000 		.4byte	.LFB144
 4505 0114 1A000000 		.4byte	.LFE144-.LFB144
 4506 0118 00000000 		.4byte	.LFB145
 4507 011c 1A000000 		.4byte	.LFE145-.LFB145
 4508 0120 00000000 		.4byte	.LFB146
 4509 0124 0C000000 		.4byte	.LFE146-.LFB146
 4510 0128 00000000 		.4byte	.LFB147
 4511 012c 06000000 		.4byte	.LFE147-.LFB147
 4512 0130 00000000 		.4byte	.LFB148
 4513 0134 1C000000 		.4byte	.LFE148-.LFB148
 4514 0138 00000000 		.4byte	.LFB149
 4515 013c 08000000 		.4byte	.LFE149-.LFB149
 4516 0140 00000000 		.4byte	0
 4517 0144 00000000 		.4byte	0
 4518              		.section	.debug_ranges,"",%progbits
 4519              	.Ldebug_ranges0:
ARM GAS  /tmp/ccqRxWEk.s 			page 81


 4520 0000 00000000 		.4byte	.LFB112
 4521 0004 1A000000 		.4byte	.LFE112
 4522 0008 00000000 		.4byte	.LFB113
 4523 000c 58000000 		.4byte	.LFE113
 4524 0010 00000000 		.4byte	.LFB114
 4525 0014 14000000 		.4byte	.LFE114
 4526 0018 00000000 		.4byte	.LFB115
 4527 001c 28000000 		.4byte	.LFE115
 4528 0020 00000000 		.4byte	.LFB116
 4529 0024 0C000000 		.4byte	.LFE116
 4530 0028 00000000 		.4byte	.LFB117
 4531 002c 14000000 		.4byte	.LFE117
 4532 0030 00000000 		.4byte	.LFB118
 4533 0034 10000000 		.4byte	.LFE118
 4534 0038 00000000 		.4byte	.LFB119
 4535 003c 06000000 		.4byte	.LFE119
 4536 0040 00000000 		.4byte	.LFB120
 4537 0044 0C000000 		.4byte	.LFE120
 4538 0048 00000000 		.4byte	.LFB121
 4539 004c 1C000000 		.4byte	.LFE121
 4540 0050 00000000 		.4byte	.LFB122
 4541 0054 1C000000 		.4byte	.LFE122
 4542 0058 00000000 		.4byte	.LFB123
 4543 005c 96000000 		.4byte	.LFE123
 4544 0060 00000000 		.4byte	.LFB124
 4545 0064 0A000000 		.4byte	.LFE124
 4546 0068 00000000 		.4byte	.LFB125
 4547 006c 08000000 		.4byte	.LFE125
 4548 0070 00000000 		.4byte	.LFB126
 4549 0074 14000000 		.4byte	.LFE126
 4550 0078 00000000 		.4byte	.LFB127
 4551 007c 14000000 		.4byte	.LFE127
 4552 0080 00000000 		.4byte	.LFB128
 4553 0084 10000000 		.4byte	.LFE128
 4554 0088 00000000 		.4byte	.LFB129
 4555 008c 14000000 		.4byte	.LFE129
 4556 0090 00000000 		.4byte	.LFB130
 4557 0094 06000000 		.4byte	.LFE130
 4558 0098 00000000 		.4byte	.LFB131
 4559 009c 0C000000 		.4byte	.LFE131
 4560 00a0 00000000 		.4byte	.LFB132
 4561 00a4 14000000 		.4byte	.LFE132
 4562 00a8 00000000 		.4byte	.LFB133
 4563 00ac 14000000 		.4byte	.LFE133
 4564 00b0 00000000 		.4byte	.LFB134
 4565 00b4 1C000000 		.4byte	.LFE134
 4566 00b8 00000000 		.4byte	.LFB135
 4567 00bc 5A000000 		.4byte	.LFE135
 4568 00c0 00000000 		.4byte	.LFB136
 4569 00c4 10000000 		.4byte	.LFE136
 4570 00c8 00000000 		.4byte	.LFB137
 4571 00cc 16000000 		.4byte	.LFE137
 4572 00d0 00000000 		.4byte	.LFB138
 4573 00d4 0C000000 		.4byte	.LFE138
 4574 00d8 00000000 		.4byte	.LFB139
 4575 00dc 0C000000 		.4byte	.LFE139
 4576 00e0 00000000 		.4byte	.LFB140
ARM GAS  /tmp/ccqRxWEk.s 			page 82


 4577 00e4 0A000000 		.4byte	.LFE140
 4578 00e8 00000000 		.4byte	.LFB141
 4579 00ec 08000000 		.4byte	.LFE141
 4580 00f0 00000000 		.4byte	.LFB142
 4581 00f4 14000000 		.4byte	.LFE142
 4582 00f8 00000000 		.4byte	.LFB143
 4583 00fc 14000000 		.4byte	.LFE143
 4584 0100 00000000 		.4byte	.LFB144
 4585 0104 1A000000 		.4byte	.LFE144
 4586 0108 00000000 		.4byte	.LFB145
 4587 010c 1A000000 		.4byte	.LFE145
 4588 0110 00000000 		.4byte	.LFB146
 4589 0114 0C000000 		.4byte	.LFE146
 4590 0118 00000000 		.4byte	.LFB147
 4591 011c 06000000 		.4byte	.LFE147
 4592 0120 00000000 		.4byte	.LFB148
 4593 0124 1C000000 		.4byte	.LFE148
 4594 0128 00000000 		.4byte	.LFB149
 4595 012c 08000000 		.4byte	.LFE149
 4596 0130 00000000 		.4byte	0
 4597 0134 00000000 		.4byte	0
 4598              		.section	.debug_line,"",%progbits
 4599              	.Ldebug_line0:
 4600 0000 0A050000 		.section	.debug_str,"MS",%progbits,1
 4600      02005B01 
 4600      00000201 
 4600      FB0E0D00 
 4600      01010101 
 4601              	.LASF64:
 4602 0000 4E657753 		.ascii	"NewState\000"
 4602      74617465 
 4602      00
 4603              	.LASF107:
 4604 0009 4144435F 		.ascii	"ADC_IT\000"
 4604      495400
 4605              	.LASF44:
 4606 0010 4144435F 		.ascii	"ADC_ExternalTrigConv\000"
 4606      45787465 
 4606      726E616C 
 4606      54726967 
 4606      436F6E76 
 4607              	.LASF35:
 4608 0025 466C6167 		.ascii	"FlagStatus\000"
 4608      53746174 
 4608      757300
 4609              	.LASF52:
 4610 0030 4144435F 		.ascii	"ADC_CommonInitTypeDef\000"
 4610      436F6D6D 
 4610      6F6E496E 
 4610      69745479 
 4610      70654465 
 4611              	.LASF3:
 4612 0046 5F5F7569 		.ascii	"__uint8_t\000"
 4612      6E74385F 
 4612      7400
 4613              	.LASF19:
 4614 0050 534D5052 		.ascii	"SMPR2\000"
ARM GAS  /tmp/ccqRxWEk.s 			page 83


 4614      3200
 4615              	.LASF55:
 4616 0056 41444378 		.ascii	"ADCx\000"
 4616      00
 4617              	.LASF54:
 4618 005b 4144435F 		.ascii	"ADC_Init\000"
 4618      496E6974 
 4618      00
 4619              	.LASF37:
 4620 0064 44495341 		.ascii	"DISABLE\000"
 4620      424C4500 
 4621              	.LASF11:
 4622 006c 6C6F6E67 		.ascii	"long long unsigned int\000"
 4622      206C6F6E 
 4622      6720756E 
 4622      7369676E 
 4622      65642069 
 4623              	.LASF20:
 4624 0083 4A4F4652 		.ascii	"JOFR1\000"
 4624      3100
 4625              	.LASF116:
 4626 0089 43686962 		.ascii	"ChibiOS_3.0.2/ext/stdperiph_stm32f4/src/stm32f4xx_a"
 4626      694F535F 
 4626      332E302E 
 4626      322F6578 
 4626      742F7374 
 4627 00bc 64632E63 		.ascii	"dc.c\000"
 4627      00
 4628              	.LASF46:
 4629 00c1 4144435F 		.ascii	"ADC_NbrOfConversion\000"
 4629      4E62724F 
 4629      66436F6E 
 4629      76657273 
 4629      696F6E00 
 4630              	.LASF119:
 4631 00d5 49544D5F 		.ascii	"ITM_RxBuffer\000"
 4631      52784275 
 4631      66666572 
 4631      00
 4632              	.LASF27:
 4633 00e2 4A535152 		.ascii	"JSQR\000"
 4633      00
 4634              	.LASF10:
 4635 00e7 6C6F6E67 		.ascii	"long long int\000"
 4635      206C6F6E 
 4635      6720696E 
 4635      7400
 4636              	.LASF0:
 4637 00f5 7369676E 		.ascii	"signed char\000"
 4637      65642063 
 4637      68617200 
 4638              	.LASF68:
 4639 0101 4144435F 		.ascii	"ADC_AnalogWatchdogThresholdsConfig\000"
 4639      416E616C 
 4639      6F675761 
 4639      74636864 
 4639      6F675468 
ARM GAS  /tmp/ccqRxWEk.s 			page 84


 4640              	.LASF100:
 4641 0124 4144435F 		.ascii	"ADC_ExternalTrigInjecConvEdge\000"
 4641      45787465 
 4641      726E616C 
 4641      54726967 
 4641      496E6A65 
 4642              	.LASF90:
 4643 0142 4144435F 		.ascii	"ADC_InjectedChannelConfig\000"
 4643      496E6A65 
 4643      63746564 
 4643      4368616E 
 4643      6E656C43 
 4644              	.LASF67:
 4645 015c 746D7072 		.ascii	"tmpreg\000"
 4645      656700
 4646              	.LASF86:
 4647 0163 4144435F 		.ascii	"ADC_GetConversionValue\000"
 4647      47657443 
 4647      6F6E7665 
 4647      7273696F 
 4647      6E56616C 
 4648              	.LASF63:
 4649 017a 4144435F 		.ascii	"ADC_Cmd\000"
 4649      436D6400 
 4650              	.LASF42:
 4651 0182 4144435F 		.ascii	"ADC_ContinuousConvMode\000"
 4651      436F6E74 
 4651      696E756F 
 4651      7573436F 
 4651      6E764D6F 
 4652              	.LASF7:
 4653 0199 6C6F6E67 		.ascii	"long int\000"
 4653      20696E74 
 4653      00
 4654              	.LASF110:
 4655 01a2 4144435F 		.ascii	"ADC_FLAG\000"
 4655      464C4147 
 4655      00
 4656              	.LASF88:
 4657 01ab 4144435F 		.ascii	"ADC_DMARequestAfterLastTransferCmd\000"
 4657      444D4152 
 4657      65717565 
 4657      73744166 
 4657      7465724C 
 4658              	.LASF38:
 4659 01ce 454E4142 		.ascii	"ENABLE\000"
 4659      4C4500
 4660              	.LASF14:
 4661 01d5 75696E74 		.ascii	"uint16_t\000"
 4661      31365F74 
 4661      00
 4662              	.LASF115:
 4663 01de 474E5520 		.ascii	"GNU C 4.8.4 20141219 (release) -mcpu=cortex-m4 -mfl"
 4663      4320342E 
 4663      382E3420 
 4663      32303134 
 4663      31323139 
ARM GAS  /tmp/ccqRxWEk.s 			page 85


 4664 0211 6F61742D 		.ascii	"oat-abi=hard -mfpu=fpv4-sp-d16 -mno-thumb-interwork"
 4664      6162693D 
 4664      68617264 
 4664      202D6D66 
 4664      70753D66 
 4665 0244 202D6D74 		.ascii	" -mthumb -ggdb -O2 -std=gnu99 -fomit-frame-pointer "
 4665      68756D62 
 4665      202D6767 
 4665      6462202D 
 4665      4F32202D 
 4666 0277 2D66616C 		.ascii	"-falign-functions=16 -ffunction-sections -fdata-sec"
 4666      69676E2D 
 4666      66756E63 
 4666      74696F6E 
 4666      733D3136 
 4667 02aa 74696F6E 		.ascii	"tions -fno-common -fsingle-precision-constant\000"
 4667      73202D66 
 4667      6E6F2D63 
 4667      6F6D6D6F 
 4667      6E202D66 
 4668              	.LASF56:
 4669 02d8 4144435F 		.ascii	"ADC_InitStruct\000"
 4669      496E6974 
 4669      53747275 
 4669      637400
 4670              	.LASF8:
 4671 02e7 5F5F7569 		.ascii	"__uint32_t\000"
 4671      6E743332 
 4671      5F7400
 4672              	.LASF82:
 4673 02f2 4144435F 		.ascii	"ADC_DiscModeChannelCountConfig\000"
 4673      44697363 
 4673      4D6F6465 
 4673      4368616E 
 4673      6E656C43 
 4674              	.LASF59:
 4675 0311 4144435F 		.ascii	"ADC_StructInit\000"
 4675      53747275 
 4675      6374496E 
 4675      697400
 4676              	.LASF117:
 4677 0320 2F686F6D 		.ascii	"/home/taylor/Programming/VESC/firmware\000"
 4677      652F7461 
 4677      796C6F72 
 4677      2F50726F 
 4677      6772616D 
 4678              	.LASF71:
 4679 0347 4144435F 		.ascii	"ADC_AnalogWatchdogSingleChannelConfig\000"
 4679      416E616C 
 4679      6F675761 
 4679      74636864 
 4679      6F675369 
 4680              	.LASF70:
 4681 036d 4C6F7754 		.ascii	"LowThreshold\000"
 4681      68726573 
 4681      686F6C64 
 4681      00
ARM GAS  /tmp/ccqRxWEk.s 			page 86


 4682              	.LASF39:
 4683 037a 46756E63 		.ascii	"FunctionalState\000"
 4683      74696F6E 
 4683      616C5374 
 4683      61746500 
 4684              	.LASF36:
 4685 038a 49545374 		.ascii	"ITStatus\000"
 4685      61747573 
 4685      00
 4686              	.LASF104:
 4687 0393 4144435F 		.ascii	"ADC_InjectedDiscModeCmd\000"
 4687      496E6A65 
 4687      63746564 
 4687      44697363 
 4687      4D6F6465 
 4688              	.LASF12:
 4689 03ab 756E7369 		.ascii	"unsigned int\000"
 4689      676E6564 
 4689      20696E74 
 4689      00
 4690              	.LASF106:
 4691 03b8 4144435F 		.ascii	"ADC_ITConfig\000"
 4691      4954436F 
 4691      6E666967 
 4691      00
 4692              	.LASF9:
 4693 03c5 6C6F6E67 		.ascii	"long unsigned int\000"
 4693      20756E73 
 4693      69676E65 
 4693      6420696E 
 4693      7400
 4694              	.LASF73:
 4695 03d7 4144435F 		.ascii	"ADC_TempSensorVrefintCmd\000"
 4695      54656D70 
 4695      53656E73 
 4695      6F725672 
 4695      6566696E 
 4696              	.LASF50:
 4697 03f0 4144435F 		.ascii	"ADC_DMAAccessMode\000"
 4697      444D4141 
 4697      63636573 
 4697      734D6F64 
 4697      6500
 4698              	.LASF101:
 4699 0402 4144435F 		.ascii	"ADC_SoftwareStartInjectedConv\000"
 4699      536F6674 
 4699      77617265 
 4699      53746172 
 4699      74496E6A 
 4700              	.LASF5:
 4701 0420 73686F72 		.ascii	"short unsigned int\000"
 4701      7420756E 
 4701      7369676E 
 4701      65642069 
 4701      6E7400
 4702              	.LASF62:
 4703 0433 4144435F 		.ascii	"ADC_CommonStructInit\000"
ARM GAS  /tmp/ccqRxWEk.s 			page 87


 4703      436F6D6D 
 4703      6F6E5374 
 4703      72756374 
 4703      496E6974 
 4704              	.LASF75:
 4705 0448 4144435F 		.ascii	"ADC_RegularChannelConfig\000"
 4705      52656775 
 4705      6C617243 
 4705      68616E6E 
 4705      656C436F 
 4706              	.LASF69:
 4707 0461 48696768 		.ascii	"HighThreshold\000"
 4707      54687265 
 4707      73686F6C 
 4707      6400
 4708              	.LASF57:
 4709 046f 746D7072 		.ascii	"tmpreg1\000"
 4709      65673100 
 4710              	.LASF58:
 4711 0477 746D7072 		.ascii	"tmpreg2\000"
 4711      65673200 
 4712              	.LASF91:
 4713 047f 746D7072 		.ascii	"tmpreg3\000"
 4713      65673300 
 4714              	.LASF53:
 4715 0487 4144435F 		.ascii	"ADC_DeInit\000"
 4715      4465496E 
 4715      697400
 4716              	.LASF81:
 4717 0492 4144435F 		.ascii	"ADC_ContinuousModeCmd\000"
 4717      436F6E74 
 4717      696E756F 
 4717      75734D6F 
 4717      6465436D 
 4718              	.LASF111:
 4719 04a8 4144435F 		.ascii	"ADC_ClearFlag\000"
 4719      436C6561 
 4719      72466C61 
 4719      6700
 4720              	.LASF21:
 4721 04b6 4A4F4652 		.ascii	"JOFR2\000"
 4721      3200
 4722              	.LASF22:
 4723 04bc 4A4F4652 		.ascii	"JOFR3\000"
 4723      3300
 4724              	.LASF99:
 4725 04c2 4144435F 		.ascii	"ADC_ExternalTrigInjectedConvEdgeConfig\000"
 4725      45787465 
 4725      726E616C 
 4725      54726967 
 4725      496E6A65 
 4726              	.LASF83:
 4727 04e9 4E756D62 		.ascii	"Number\000"
 4727      657200
 4728              	.LASF118:
 4729 04f0 4144435F 		.ascii	"ADC_GetMultiModeConversionValue\000"
 4729      4765744D 
ARM GAS  /tmp/ccqRxWEk.s 			page 88


 4729      756C7469 
 4729      4D6F6465 
 4729      436F6E76 
 4730              	.LASF17:
 4731 0510 73697A65 		.ascii	"sizetype\000"
 4731      74797065 
 4731      00
 4732              	.LASF32:
 4733 0519 4144435F 		.ascii	"ADC_TypeDef\000"
 4733      54797065 
 4733      44656600 
 4734              	.LASF87:
 4735 0525 4144435F 		.ascii	"ADC_DMACmd\000"
 4735      444D4143 
 4735      6D6400
 4736              	.LASF33:
 4737 0530 4144435F 		.ascii	"ADC_Common_TypeDef\000"
 4737      436F6D6D 
 4737      6F6E5F54 
 4737      79706544 
 4737      656600
 4738              	.LASF98:
 4739 0543 4144435F 		.ascii	"ADC_ExternalTrigInjecConv\000"
 4739      45787465 
 4739      726E616C 
 4739      54726967 
 4739      496E6A65 
 4740              	.LASF66:
 4741 055d 4144435F 		.ascii	"ADC_AnalogWatchdog\000"
 4741      416E616C 
 4741      6F675761 
 4741      74636864 
 4741      6F6700
 4742              	.LASF18:
 4743 0570 534D5052 		.ascii	"SMPR1\000"
 4743      3100
 4744              	.LASF77:
 4745 0576 4144435F 		.ascii	"ADC_SampleTime\000"
 4745      53616D70 
 4745      6C655469 
 4745      6D6500
 4746              	.LASF120:
 4747 0585 5243435F 		.ascii	"RCC_APB2PeriphResetCmd\000"
 4747      41504232 
 4747      50657269 
 4747      70685265 
 4747      73657443 
 4748              	.LASF94:
 4749 059c 4144435F 		.ascii	"ADC_SetInjectedOffset\000"
 4749      53657449 
 4749      6E6A6563 
 4749      7465644F 
 4749      66667365 
 4750              	.LASF24:
 4751 05b2 53515231 		.ascii	"SQR1\000"
 4751      00
 4752              	.LASF25:
ARM GAS  /tmp/ccqRxWEk.s 			page 89


 4753 05b7 53515232 		.ascii	"SQR2\000"
 4753      00
 4754              	.LASF26:
 4755 05bc 53515233 		.ascii	"SQR3\000"
 4755      00
 4756              	.LASF108:
 4757 05c1 69746D61 		.ascii	"itmask\000"
 4757      736B00
 4758              	.LASF114:
 4759 05c8 4144435F 		.ascii	"ADC_ClearITPendingBit\000"
 4759      436C6561 
 4759      72495450 
 4759      656E6469 
 4759      6E674269 
 4760              	.LASF76:
 4761 05de 52616E6B 		.ascii	"Rank\000"
 4761      00
 4762              	.LASF72:
 4763 05e3 4144435F 		.ascii	"ADC_Channel\000"
 4763      4368616E 
 4763      6E656C00 
 4764              	.LASF34:
 4765 05ef 52455345 		.ascii	"RESET\000"
 4765      5400
 4766              	.LASF95:
 4767 05f5 4144435F 		.ascii	"ADC_InjectedChannel\000"
 4767      496E6A65 
 4767      63746564 
 4767      4368616E 
 4767      6E656C00 
 4768              	.LASF102:
 4769 0609 4144435F 		.ascii	"ADC_GetSoftwareStartInjectedConvCmdStatus\000"
 4769      47657453 
 4769      6F667477 
 4769      61726553 
 4769      74617274 
 4770              	.LASF97:
 4771 0633 4144435F 		.ascii	"ADC_ExternalTrigInjectedConvConfig\000"
 4771      45787465 
 4771      726E616C 
 4771      54726967 
 4771      496E6A65 
 4772              	.LASF61:
 4773 0656 4144435F 		.ascii	"ADC_CommonInitStruct\000"
 4773      436F6D6D 
 4773      6F6E496E 
 4773      69745374 
 4773      72756374 
 4774              	.LASF15:
 4775 066b 696E7433 		.ascii	"int32_t\000"
 4775      325F7400 
 4776              	.LASF1:
 4777 0673 756E7369 		.ascii	"unsigned char\000"
 4777      676E6564 
 4777      20636861 
 4777      7200
 4778              	.LASF2:
ARM GAS  /tmp/ccqRxWEk.s 			page 90


 4779 0681 73686F72 		.ascii	"short int\000"
 4779      7420696E 
 4779      7400
 4780              	.LASF48:
 4781 068b 4144435F 		.ascii	"ADC_Mode\000"
 4781      4D6F6465 
 4781      00
 4782              	.LASF92:
 4783 0694 4144435F 		.ascii	"ADC_InjectedSequencerLengthConfig\000"
 4783      496E6A65 
 4783      63746564 
 4783      53657175 
 4783      656E6365 
 4784              	.LASF43:
 4785 06b6 4144435F 		.ascii	"ADC_ExternalTrigConvEdge\000"
 4785      45787465 
 4785      726E616C 
 4785      54726967 
 4785      436F6E76 
 4786              	.LASF41:
 4787 06cf 4144435F 		.ascii	"ADC_ScanConvMode\000"
 4787      5363616E 
 4787      436F6E76 
 4787      4D6F6465 
 4787      00
 4788              	.LASF23:
 4789 06e0 4A4F4652 		.ascii	"JOFR4\000"
 4789      3400
 4790              	.LASF47:
 4791 06e6 4144435F 		.ascii	"ADC_InitTypeDef\000"
 4791      496E6974 
 4791      54797065 
 4791      44656600 
 4792              	.LASF112:
 4793 06f6 4144435F 		.ascii	"ADC_GetITStatus\000"
 4793      47657449 
 4793      54537461 
 4793      74757300 
 4794              	.LASF16:
 4795 0706 75696E74 		.ascii	"uint32_t\000"
 4795      33325F74 
 4795      00
 4796              	.LASF45:
 4797 070f 4144435F 		.ascii	"ADC_DataAlign\000"
 4797      44617461 
 4797      416C6967 
 4797      6E00
 4798              	.LASF103:
 4799 071d 4144435F 		.ascii	"ADC_AutoInjectedConvCmd\000"
 4799      4175746F 
 4799      496E6A65 
 4799      63746564 
 4799      436F6E76 
 4800              	.LASF80:
 4801 0735 4144435F 		.ascii	"ADC_EOCOnEachRegularChannelCmd\000"
 4801      454F434F 
 4801      6E456163 
ARM GAS  /tmp/ccqRxWEk.s 			page 91


 4801      68526567 
 4801      756C6172 
 4802              	.LASF49:
 4803 0754 4144435F 		.ascii	"ADC_Prescaler\000"
 4803      50726573 
 4803      63616C65 
 4803      7200
 4804              	.LASF4:
 4805 0762 5F5F7569 		.ascii	"__uint16_t\000"
 4805      6E743136 
 4805      5F7400
 4806              	.LASF60:
 4807 076d 4144435F 		.ascii	"ADC_CommonInit\000"
 4807      436F6D6D 
 4807      6F6E496E 
 4807      697400
 4808              	.LASF113:
 4809 077c 656E6162 		.ascii	"enablestatus\000"
 4809      6C657374 
 4809      61747573 
 4809      00
 4810              	.LASF6:
 4811 0789 5F5F696E 		.ascii	"__int32_t\000"
 4811      7433325F 
 4811      7400
 4812              	.LASF85:
 4813 0793 4144435F 		.ascii	"ADC_GetSoftwareStartConvStatus\000"
 4813      47657453 
 4813      6F667477 
 4813      61726553 
 4813      74617274 
 4814              	.LASF89:
 4815 07b2 4144435F 		.ascii	"ADC_MultiModeDMARequestAfterLastTransferCmd\000"
 4815      4D756C74 
 4815      694D6F64 
 4815      65444D41 
 4815      52657175 
 4816              	.LASF93:
 4817 07de 4C656E67 		.ascii	"Length\000"
 4817      746800
 4818              	.LASF84:
 4819 07e5 4144435F 		.ascii	"ADC_DiscModeCmd\000"
 4819      44697363 
 4819      4D6F6465 
 4819      436D6400 
 4820              	.LASF65:
 4821 07f5 4144435F 		.ascii	"ADC_AnalogWatchdogCmd\000"
 4821      416E616C 
 4821      6F675761 
 4821      74636864 
 4821      6F67436D 
 4822              	.LASF96:
 4823 080b 4F666673 		.ascii	"Offset\000"
 4823      657400
 4824              	.LASF13:
 4825 0812 75696E74 		.ascii	"uint8_t\000"
 4825      385F7400 
ARM GAS  /tmp/ccqRxWEk.s 			page 92


 4826              	.LASF109:
 4827 081a 4144435F 		.ascii	"ADC_GetFlagStatus\000"
 4827      47657446 
 4827      6C616753 
 4827      74617475 
 4827      7300
 4828              	.LASF28:
 4829 082c 4A445231 		.ascii	"JDR1\000"
 4829      00
 4830              	.LASF29:
 4831 0831 4A445232 		.ascii	"JDR2\000"
 4831      00
 4832              	.LASF30:
 4833 0836 4A445233 		.ascii	"JDR3\000"
 4833      00
 4834              	.LASF31:
 4835 083b 4A445234 		.ascii	"JDR4\000"
 4835      00
 4836              	.LASF79:
 4837 0840 62697473 		.ascii	"bitstatus\000"
 4837      74617475 
 4837      7300
 4838              	.LASF40:
 4839 084a 4144435F 		.ascii	"ADC_Resolution\000"
 4839      5265736F 
 4839      6C757469 
 4839      6F6E00
 4840              	.LASF105:
 4841 0859 4144435F 		.ascii	"ADC_GetInjectedConversionValue\000"
 4841      47657449 
 4841      6E6A6563 
 4841      74656443 
 4841      6F6E7665 
 4842              	.LASF78:
 4843 0878 4144435F 		.ascii	"ADC_SoftwareStartConv\000"
 4843      536F6674 
 4843      77617265 
 4843      53746172 
 4843      74436F6E 
 4844              	.LASF51:
 4845 088e 4144435F 		.ascii	"ADC_TwoSamplingDelay\000"
 4845      54776F53 
 4845      616D706C 
 4845      696E6744 
 4845      656C6179 
 4846              	.LASF74:
 4847 08a3 4144435F 		.ascii	"ADC_VBATCmd\000"
 4847      56424154 
 4847      436D6400 
 4848              		.ident	"GCC: (4.8.4-1+11-1) 4.8.4 20141219 (release)"
ARM GAS  /tmp/ccqRxWEk.s 			page 93


DEFINED SYMBOLS
                            *ABS*:0000000000000000 stm32f4xx_adc.c
     /tmp/ccqRxWEk.s:21     .text.ADC_DeInit:0000000000000000 $t
     /tmp/ccqRxWEk.s:27     .text.ADC_DeInit:0000000000000000 ADC_DeInit
     /tmp/ccqRxWEk.s:55     .text.ADC_Init:0000000000000000 $t
     /tmp/ccqRxWEk.s:61     .text.ADC_Init:0000000000000000 ADC_Init
     /tmp/ccqRxWEk.s:146    .text.ADC_Init:0000000000000054 $d
     /tmp/ccqRxWEk.s:151    .text.ADC_StructInit:0000000000000000 $t
     /tmp/ccqRxWEk.s:157    .text.ADC_StructInit:0000000000000000 ADC_StructInit
     /tmp/ccqRxWEk.s:187    .text.ADC_CommonInit:0000000000000000 $t
     /tmp/ccqRxWEk.s:193    .text.ADC_CommonInit:0000000000000000 ADC_CommonInit
     /tmp/ccqRxWEk.s:239    .text.ADC_CommonInit:0000000000000020 $d
     /tmp/ccqRxWEk.s:245    .text.ADC_CommonStructInit:0000000000000000 $t
     /tmp/ccqRxWEk.s:251    .text.ADC_CommonStructInit:0000000000000000 ADC_CommonStructInit
     /tmp/ccqRxWEk.s:273    .text.ADC_Cmd:0000000000000000 $t
     /tmp/ccqRxWEk.s:279    .text.ADC_Cmd:0000000000000000 ADC_Cmd
     /tmp/ccqRxWEk.s:304    .text.ADC_AnalogWatchdogCmd:0000000000000000 $t
     /tmp/ccqRxWEk.s:310    .text.ADC_AnalogWatchdogCmd:0000000000000000 ADC_AnalogWatchdogCmd
     /tmp/ccqRxWEk.s:336    .text.ADC_AnalogWatchdogThresholdsConfig:0000000000000000 $t
     /tmp/ccqRxWEk.s:342    .text.ADC_AnalogWatchdogThresholdsConfig:0000000000000000 ADC_AnalogWatchdogThresholdsConfig
     /tmp/ccqRxWEk.s:359    .text.ADC_AnalogWatchdogSingleChannelConfig:0000000000000000 $t
     /tmp/ccqRxWEk.s:365    .text.ADC_AnalogWatchdogSingleChannelConfig:0000000000000000 ADC_AnalogWatchdogSingleChannelConfig
     /tmp/ccqRxWEk.s:389    .text.ADC_TempSensorVrefintCmd:0000000000000000 $t
     /tmp/ccqRxWEk.s:395    .text.ADC_TempSensorVrefintCmd:0000000000000000 ADC_TempSensorVrefintCmd
     /tmp/ccqRxWEk.s:420    .text.ADC_TempSensorVrefintCmd:0000000000000018 $d
     /tmp/ccqRxWEk.s:425    .text.ADC_VBATCmd:0000000000000000 $t
     /tmp/ccqRxWEk.s:431    .text.ADC_VBATCmd:0000000000000000 ADC_VBATCmd
     /tmp/ccqRxWEk.s:456    .text.ADC_VBATCmd:0000000000000018 $d
     /tmp/ccqRxWEk.s:461    .text.ADC_RegularChannelConfig:0000000000000000 $t
     /tmp/ccqRxWEk.s:467    .text.ADC_RegularChannelConfig:0000000000000000 ADC_RegularChannelConfig
     /tmp/ccqRxWEk.s:623    .text.ADC_SoftwareStartConv:0000000000000000 $t
     /tmp/ccqRxWEk.s:629    .text.ADC_SoftwareStartConv:0000000000000000 ADC_SoftwareStartConv
     /tmp/ccqRxWEk.s:646    .text.ADC_GetSoftwareStartConvStatus:0000000000000000 $t
     /tmp/ccqRxWEk.s:652    .text.ADC_GetSoftwareStartConvStatus:0000000000000000 ADC_GetSoftwareStartConvStatus
     /tmp/ccqRxWEk.s:671    .text.ADC_EOCOnEachRegularChannelCmd:0000000000000000 $t
     /tmp/ccqRxWEk.s:677    .text.ADC_EOCOnEachRegularChannelCmd:0000000000000000 ADC_EOCOnEachRegularChannelCmd
     /tmp/ccqRxWEk.s:702    .text.ADC_ContinuousModeCmd:0000000000000000 $t
     /tmp/ccqRxWEk.s:708    .text.ADC_ContinuousModeCmd:0000000000000000 ADC_ContinuousModeCmd
     /tmp/ccqRxWEk.s:733    .text.ADC_DiscModeChannelCountConfig:0000000000000000 $t
     /tmp/ccqRxWEk.s:739    .text.ADC_DiscModeChannelCountConfig:0000000000000000 ADC_DiscModeChannelCountConfig
     /tmp/ccqRxWEk.s:766    .text.ADC_DiscModeCmd:0000000000000000 $t
     /tmp/ccqRxWEk.s:772    .text.ADC_DiscModeCmd:0000000000000000 ADC_DiscModeCmd
     /tmp/ccqRxWEk.s:797    .text.ADC_GetConversionValue:0000000000000000 $t
     /tmp/ccqRxWEk.s:803    .text.ADC_GetConversionValue:0000000000000000 ADC_GetConversionValue
     /tmp/ccqRxWEk.s:821    .text.ADC_GetMultiModeConversionValue:0000000000000000 $t
     /tmp/ccqRxWEk.s:827    .text.ADC_GetMultiModeConversionValue:0000000000000000 ADC_GetMultiModeConversionValue
     /tmp/ccqRxWEk.s:842    .text.ADC_GetMultiModeConversionValue:0000000000000008 $d
     /tmp/ccqRxWEk.s:847    .text.ADC_DMACmd:0000000000000000 $t
     /tmp/ccqRxWEk.s:853    .text.ADC_DMACmd:0000000000000000 ADC_DMACmd
     /tmp/ccqRxWEk.s:878    .text.ADC_DMARequestAfterLastTransferCmd:0000000000000000 $t
     /tmp/ccqRxWEk.s:884    .text.ADC_DMARequestAfterLastTransferCmd:0000000000000000 ADC_DMARequestAfterLastTransferCmd
     /tmp/ccqRxWEk.s:909    .text.ADC_MultiModeDMARequestAfterLastTransferCmd:0000000000000000 $t
     /tmp/ccqRxWEk.s:915    .text.ADC_MultiModeDMARequestAfterLastTransferCmd:0000000000000000 ADC_MultiModeDMARequestAfterLastTransferCmd
     /tmp/ccqRxWEk.s:940    .text.ADC_MultiModeDMARequestAfterLastTransferCmd:0000000000000018 $d
     /tmp/ccqRxWEk.s:945    .text.ADC_InjectedChannelConfig:0000000000000000 $t
     /tmp/ccqRxWEk.s:951    .text.ADC_InjectedChannelConfig:0000000000000000 ADC_InjectedChannelConfig
     /tmp/ccqRxWEk.s:1046   .text.ADC_InjectedSequencerLengthConfig:0000000000000000 $t
ARM GAS  /tmp/ccqRxWEk.s 			page 94


     /tmp/ccqRxWEk.s:1052   .text.ADC_InjectedSequencerLengthConfig:0000000000000000 ADC_InjectedSequencerLengthConfig
     /tmp/ccqRxWEk.s:1079   .text.ADC_SetInjectedOffset:0000000000000000 $t
     /tmp/ccqRxWEk.s:1085   .text.ADC_SetInjectedOffset:0000000000000000 ADC_SetInjectedOffset
     /tmp/ccqRxWEk.s:1116   .text.ADC_ExternalTrigInjectedConvConfig:0000000000000000 $t
     /tmp/ccqRxWEk.s:1122   .text.ADC_ExternalTrigInjectedConvConfig:0000000000000000 ADC_ExternalTrigInjectedConvConfig
     /tmp/ccqRxWEk.s:1146   .text.ADC_ExternalTrigInjectedConvEdgeConfig:0000000000000000 $t
     /tmp/ccqRxWEk.s:1152   .text.ADC_ExternalTrigInjectedConvEdgeConfig:0000000000000000 ADC_ExternalTrigInjectedConvEdgeConfig
     /tmp/ccqRxWEk.s:1176   .text.ADC_SoftwareStartInjectedConv:0000000000000000 $t
     /tmp/ccqRxWEk.s:1182   .text.ADC_SoftwareStartInjectedConv:0000000000000000 ADC_SoftwareStartInjectedConv
     /tmp/ccqRxWEk.s:1199   .text.ADC_GetSoftwareStartInjectedConvCmdStatus:0000000000000000 $t
     /tmp/ccqRxWEk.s:1205   .text.ADC_GetSoftwareStartInjectedConvCmdStatus:0000000000000000 ADC_GetSoftwareStartInjectedConvCmdStatus
     /tmp/ccqRxWEk.s:1224   .text.ADC_AutoInjectedConvCmd:0000000000000000 $t
     /tmp/ccqRxWEk.s:1230   .text.ADC_AutoInjectedConvCmd:0000000000000000 ADC_AutoInjectedConvCmd
     /tmp/ccqRxWEk.s:1255   .text.ADC_InjectedDiscModeCmd:0000000000000000 $t
     /tmp/ccqRxWEk.s:1261   .text.ADC_InjectedDiscModeCmd:0000000000000000 ADC_InjectedDiscModeCmd
     /tmp/ccqRxWEk.s:1286   .text.ADC_GetInjectedConversionValue:0000000000000000 $t
     /tmp/ccqRxWEk.s:1292   .text.ADC_GetInjectedConversionValue:0000000000000000 ADC_GetInjectedConversionValue
     /tmp/ccqRxWEk.s:1326   .text.ADC_ITConfig:0000000000000000 $t
     /tmp/ccqRxWEk.s:1332   .text.ADC_ITConfig:0000000000000000 ADC_ITConfig
     /tmp/ccqRxWEk.s:1366   .text.ADC_GetFlagStatus:0000000000000000 $t
     /tmp/ccqRxWEk.s:1372   .text.ADC_GetFlagStatus:0000000000000000 ADC_GetFlagStatus
     /tmp/ccqRxWEk.s:1394   .text.ADC_ClearFlag:0000000000000000 $t
     /tmp/ccqRxWEk.s:1400   .text.ADC_ClearFlag:0000000000000000 ADC_ClearFlag
     /tmp/ccqRxWEk.s:1417   .text.ADC_GetITStatus:0000000000000000 $t
     /tmp/ccqRxWEk.s:1423   .text.ADC_GetITStatus:0000000000000000 ADC_GetITStatus
     /tmp/ccqRxWEk.s:1458   .text.ADC_ClearITPendingBit:0000000000000000 $t
     /tmp/ccqRxWEk.s:1464   .text.ADC_ClearITPendingBit:0000000000000000 ADC_ClearITPendingBit
                     .debug_frame:0000000000000010 $d
     /tmp/ccqRxWEk.s:150    .text.ADC_Init:0000000000000058 $t
     /tmp/ccqRxWEk.s:244    .text.ADC_CommonInit:0000000000000028 $t
     /tmp/ccqRxWEk.s:424    .text.ADC_TempSensorVrefintCmd:000000000000001c $t
     /tmp/ccqRxWEk.s:460    .text.ADC_VBATCmd:000000000000001c $t
     /tmp/ccqRxWEk.s:846    .text.ADC_GetMultiModeConversionValue:000000000000000c $t
     /tmp/ccqRxWEk.s:944    .text.ADC_MultiModeDMARequestAfterLastTransferCmd:000000000000001c $t

UNDEFINED SYMBOLS
RCC_APB2PeriphResetCmd
