ARM GAS  /tmp/ccTHhLt7.s 			page 1


   1              		.syntax unified
   2              		.cpu cortex-m4
   3              		.eabi_attribute 27, 3
   4              		.eabi_attribute 28, 1
   5              		.fpu fpv4-sp-d16
   6              		.eabi_attribute 20, 1
   7              		.eabi_attribute 21, 1
   8              		.eabi_attribute 23, 3
   9              		.eabi_attribute 24, 1
  10              		.eabi_attribute 25, 1
  11              		.eabi_attribute 26, 1
  12              		.eabi_attribute 30, 2
  13              		.eabi_attribute 34, 1
  14              		.eabi_attribute 18, 4
  15              		.thumb
  16              		.file	"terminal.c"
  17              		.text
  18              	.Ltext0:
  19              		.cfi_sections	.debug_frame
  20              		.global	__aeabi_f2d
  21              		.section	.text.terminal_process_string,"ax",%progbits
  22              		.align	2
  23              		.p2align 4,,15
  24              		.global	terminal_process_string
  25              		.thumb
  26              		.thumb_func
  27              		.type	terminal_process_string, %function
  28              	terminal_process_string:
  29              	.LFB256:
  30              		.file 1 "terminal.c"
  31              		.loc 1 57 0
  32              		.cfi_startproc
  33              		@ args = 0, pretend = 0, frame = 312
  34              		@ frame_needed = 0, uses_anonymous_args = 0
  35              	.LVL0:
  36 0000 2DE9F047 		push	{r4, r5, r6, r7, r8, r9, r10, lr}
  37              		.cfi_def_cfa_offset 32
  38              		.cfi_offset 4, -32
  39              		.cfi_offset 5, -28
  40              		.cfi_offset 6, -24
  41              		.cfi_offset 7, -20
  42              		.cfi_offset 8, -16
  43              		.cfi_offset 9, -12
  44              		.cfi_offset 10, -8
  45              		.cfi_offset 14, -4
  46 0004 2DED088B 		fstmfdd	sp!, {d8, d9, d10, d11}
  47              		.cfi_def_cfa_offset 64
  48              		.cfi_offset 80, -64
  49              		.cfi_offset 82, -56
  50              		.cfi_offset 84, -48
  51              		.cfi_offset 86, -40
  52              		.loc 1 62 0
  53 0008 8E49     		ldr	r1, .L182
  54              		.loc 1 57 0
  55 000a D8B0     		sub	sp, sp, #352
  56              		.cfi_def_cfa_offset 416
  57              		.loc 1 62 0
ARM GAS  /tmp/ccTHhLt7.s 			page 2


  58 000c FFF7FEFF 		bl	strtok
  59              	.LVL1:
  60              		.loc 1 63 0
  61 0010 0346     		mov	r3, r0
  62 0012 0028     		cmp	r0, #0
  63 0014 7AD0     		beq	.L155
  64 0016 17AC     		add	r4, sp, #92
  65              		.loc 1 59 0
  66 0018 0025     		movs	r5, #0
  67 001a 01E0     		b	.L5
  68              	.LVL2:
  69              	.L156:
  70              		.loc 1 63 0 discriminator 2
  71 001c 402D     		cmp	r5, #64
  72 001e 09D0     		beq	.L4
  73              	.LVL3:
  74              	.L5:
  75              		.loc 1 64 0
  76 0020 44F8043F 		str	r3, [r4, #4]!
  77              		.loc 1 65 0
  78 0024 0020     		movs	r0, #0
  79 0026 8749     		ldr	r1, .L182
  80 0028 FFF7FEFF 		bl	strtok
  81              	.LVL4:
  82              		.loc 1 64 0
  83 002c 0135     		adds	r5, r5, #1
  84              	.LVL5:
  85              		.loc 1 63 0
  86 002e 0346     		mov	r3, r0
  87 0030 0028     		cmp	r0, #0
  88 0032 F3D1     		bne	.L156
  89              	.L4:
  90              		.loc 1 75 0
  91 0034 FFF7FEFF 		bl	mc_interface_get_configuration
  92              	.LVL6:
  93 0038 4FF4BA72 		mov	r2, #372
  94 003c 0146     		mov	r1, r0
  95 003e 8248     		ldr	r0, .L182+4
  96 0040 FFF7FEFF 		bl	memcpy
  97              	.LVL7:
  98              		.loc 1 76 0
  99 0044 8049     		ldr	r1, .L182+4
 100 0046 8148     		ldr	r0, .L182+8
 101 0048 4FF4BA72 		mov	r2, #372
 102 004c FFF7FEFF 		bl	memcpy
 103              	.LVL8:
 104              		.loc 1 78 0
 105 0050 189E     		ldr	r6, [sp, #96]
 106 0052 7F49     		ldr	r1, .L182+12
 107 0054 3046     		mov	r0, r6
 108 0056 FFF7FEFF 		bl	strcmp
 109              	.LVL9:
 110 005a 0028     		cmp	r0, #0
 111 005c 5ED0     		beq	.L157
 112              		.loc 1 80 0
 113 005e 3046     		mov	r0, r6
 114 0060 7C49     		ldr	r1, .L182+16
ARM GAS  /tmp/ccTHhLt7.s 			page 3


 115 0062 FFF7FEFF 		bl	strcmp
 116              	.LVL10:
 117 0066 0028     		cmp	r0, #0
 118 0068 6CD0     		beq	.L158
 119              		.loc 1 83 0
 120 006a 3046     		mov	r0, r6
 121 006c 7A49     		ldr	r1, .L182+20
 122 006e FFF7FEFF 		bl	strcmp
 123              	.LVL11:
 124 0072 0028     		cmp	r0, #0
 125 0074 72D0     		beq	.L159
 126              		.loc 1 87 0
 127 0076 3046     		mov	r0, r6
 128 0078 7849     		ldr	r1, .L182+24
 129 007a FFF7FEFF 		bl	strcmp
 130              	.LVL12:
 131 007e 0028     		cmp	r0, #0
 132 0080 54D0     		beq	.L160
 133              		.loc 1 89 0
 134 0082 3046     		mov	r0, r6
 135 0084 7649     		ldr	r1, .L182+28
 136 0086 FFF7FEFF 		bl	strcmp
 137              	.LVL13:
 138 008a 0028     		cmp	r0, #0
 139 008c 00F09980 		beq	.L161
 140              		.loc 1 95 0
 141 0090 3046     		mov	r0, r6
 142 0092 7449     		ldr	r1, .L182+32
 143 0094 FFF7FEFF 		bl	strcmp
 144              	.LVL14:
 145 0098 0028     		cmp	r0, #0
 146 009a 00F0A580 		beq	.L162
 147              		.loc 1 109 0
 148 009e 3046     		mov	r0, r6
 149 00a0 7149     		ldr	r1, .L182+36
 150 00a2 FFF7FEFF 		bl	strcmp
 151              	.LVL15:
 152 00a6 0028     		cmp	r0, #0
 153 00a8 00F0C380 		beq	.L163
 154              		.loc 1 111 0
 155 00ac 3046     		mov	r0, r6
 156 00ae 6F49     		ldr	r1, .L182+40
 157 00b0 FFF7FEFF 		bl	strcmp
 158              	.LVL16:
 159 00b4 0028     		cmp	r0, #0
 160 00b6 7BD0     		beq	.L164
 161              		.loc 1 139 0
 162 00b8 3046     		mov	r0, r6
 163 00ba 6D49     		ldr	r1, .L182+44
 164 00bc FFF7FEFF 		bl	strcmp
 165              	.LVL17:
 166 00c0 0028     		cmp	r0, #0
 167 00c2 00F07D81 		beq	.L165
 168              		.loc 1 141 0
 169 00c6 3046     		mov	r0, r6
 170 00c8 6A49     		ldr	r1, .L182+48
 171 00ca FFF7FEFF 		bl	strcmp
ARM GAS  /tmp/ccTHhLt7.s 			page 4


 172              	.LVL18:
 173 00ce 0028     		cmp	r0, #0
 174 00d0 00F08281 		beq	.L166
 175              		.loc 1 143 0
 176 00d4 3046     		mov	r0, r6
 177 00d6 6849     		ldr	r1, .L182+52
 178 00d8 FFF7FEFF 		bl	strcmp
 179              	.LVL19:
 180 00dc 0028     		cmp	r0, #0
 181 00de 00F0B881 		beq	.L167
 182              		.loc 1 168 0
 183 00e2 3046     		mov	r0, r6
 184 00e4 6549     		ldr	r1, .L182+56
 185 00e6 FFF7FEFF 		bl	strcmp
 186              	.LVL20:
 187 00ea 0028     		cmp	r0, #0
 188 00ec 00F09881 		beq	.L168
 189              		.loc 1 170 0
 190 00f0 3046     		mov	r0, r6
 191 00f2 6349     		ldr	r1, .L182+60
 192 00f4 FFF7FEFF 		bl	strcmp
 193              	.LVL21:
 194 00f8 0028     		cmp	r0, #0
 195 00fa 40F07481 		bne	.L24
 196              		.loc 1 172 0
 197 00fe 042D     		cmp	r5, #4
 198 0100 00F0F181 		beq	.L169
 199              		.loc 1 214 0
 200 0104 5F48     		ldr	r0, .L182+64
 201 0106 FFF7FEFF 		bl	commands_printf
 202              	.LVL22:
 203 010a 02E0     		b	.L1
 204              	.LVL23:
 205              	.L155:
 206              		.loc 1 69 0
 207 010c 5E48     		ldr	r0, .L182+68
 208              	.LVL24:
 209 010e FFF7FEFF 		bl	commands_printf
 210              	.LVL25:
 211              	.L1:
 212              		.loc 1 696 0
 213 0112 58B0     		add	sp, sp, #352
 214              		@ sp needed
 215 0114 BDEC088B 		fldmfdd	sp!, {d8-d11}
 216 0118 BDE8F087 		pop	{r4, r5, r6, r7, r8, r9, r10, pc}
 217              	.LVL26:
 218              	.L157:
 219              		.loc 1 79 0
 220 011c 5B48     		ldr	r0, .L182+72
 221 011e FFF7FEFF 		bl	commands_printf
 222              	.LVL27:
 223              		.loc 1 696 0
 224 0122 58B0     		add	sp, sp, #352
 225              		@ sp needed
 226 0124 BDEC088B 		fldmfdd	sp!, {d8-d11}
 227 0128 BDE8F087 		pop	{r4, r5, r6, r7, r8, r9, r10, pc}
 228              	.LVL28:
ARM GAS  /tmp/ccTHhLt7.s 			page 5


 229              	.L160:
 230              		.loc 1 88 0
 231 012c FFF7FEFF 		bl	mcpwm_get_kv_filtered
 232              	.LVL29:
 233 0130 10EE100A 		fmrs	r0, s0
 234 0134 FFF7FEFF 		bl	__aeabi_f2d
 235              	.LVL30:
 236 0138 0246     		mov	r2, r0
 237 013a 0B46     		mov	r3, r1
 238 013c 5448     		ldr	r0, .L182+76
 239 013e FFF7FEFF 		bl	commands_printf
 240              	.LVL31:
 241 0142 E6E7     		b	.L1
 242              	.L158:
 243              		.loc 1 81 0
 244 0144 9FED530A 		flds	s0, .L182+80
 245 0148 FFF7FEFF 		bl	mc_interface_set_duty
 246              	.LVL32:
 247              		.loc 1 82 0
 248 014c 5248     		ldr	r0, .L182+84
 249 014e FFF7FEFF 		bl	commands_printf
 250              	.LVL33:
 251              		.loc 1 696 0
 252 0152 58B0     		add	sp, sp, #352
 253              		@ sp needed
 254 0154 BDEC088B 		fldmfdd	sp!, {d8-d11}
 255 0158 BDE8F087 		pop	{r4, r5, r6, r7, r8, r9, r10, pc}
 256              	.LVL34:
 257              	.L159:
 258              		.loc 1 84 0
 259 015c FFF7FEFF 		bl	mcpwm_get_last_adc_isr_duration
 260              	.LVL35:
 261 0160 9FED4E8A 		flds	s16, .L182+88
 262 0164 20EE080A 		fmuls	s0, s0, s16
 263 0168 10EE100A 		fmrs	r0, s0
 264 016c FFF7FEFF 		bl	__aeabi_f2d
 265              	.LVL36:
 266 0170 0246     		mov	r2, r0
 267 0172 0B46     		mov	r3, r1
 268 0174 4A48     		ldr	r0, .L182+92
 269 0176 FFF7FEFF 		bl	commands_printf
 270              	.LVL37:
 271              		.loc 1 85 0
 272 017a FFF7FEFF 		bl	mc_interface_get_last_inj_adc_isr_duration
 273              	.LVL38:
 274 017e 20EE080A 		fmuls	s0, s0, s16
 275 0182 10EE100A 		fmrs	r0, s0
 276 0186 FFF7FEFF 		bl	__aeabi_f2d
 277              	.LVL39:
 278 018a 0246     		mov	r2, r0
 279 018c 0B46     		mov	r3, r1
 280 018e 4548     		ldr	r0, .L182+96
 281 0190 FFF7FEFF 		bl	commands_printf
 282              	.LVL40:
 283              		.loc 1 86 0
 284 0194 FFF7FEFF 		bl	mc_interface_get_last_sample_adc_isr_duration
 285              	.LVL41:
ARM GAS  /tmp/ccTHhLt7.s 			page 6


 286 0198 20EE088A 		fmuls	s16, s0, s16
 287 019c 18EE100A 		fmrs	r0, s16
 288 01a0 FFF7FEFF 		bl	__aeabi_f2d
 289              	.LVL42:
 290 01a4 0246     		mov	r2, r0
 291 01a6 0B46     		mov	r3, r1
 292 01a8 3F48     		ldr	r0, .L182+100
 293 01aa FFF7FEFF 		bl	commands_printf
 294              	.LVL43:
 295 01ae B0E7     		b	.L1
 296              	.L164:
 297              		.loc 1 112 0
 298 01b0 3E4D     		ldr	r5, .L182+104
 299              	.LVL44:
 300 01b2 2B68     		ldr	r3, [r5]
 301 01b4 002B     		cmp	r3, #0
 302 01b6 40F08F80 		bne	.L17
 303              		.loc 1 113 0
 304 01ba 3D48     		ldr	r0, .L182+108
 305 01bc FFF7FEFF 		bl	commands_printf
 306              	.LVL45:
 307 01c0 A7E7     		b	.L1
 308              	.LVL46:
 309              	.L161:
 310              	.LBB59:
 311              		.loc 1 91 0
 312 01c2 11A9     		add	r1, sp, #68
 313 01c4 FFF7FEFF 		bl	chHeapStatus
 314              	.LVL47:
 315 01c8 0446     		mov	r4, r0
 316              	.LVL48:
 317              		.loc 1 92 0
 318 01ca FFF7FEFF 		bl	chCoreGetStatusX
 319              	.LVL49:
 320 01ce 0146     		mov	r1, r0
 321 01d0 3848     		ldr	r0, .L182+112
 322 01d2 FFF7FEFF 		bl	commands_printf
 323              	.LVL50:
 324              		.loc 1 93 0
 325 01d6 2146     		mov	r1, r4
 326 01d8 3748     		ldr	r0, .L182+116
 327 01da FFF7FEFF 		bl	commands_printf
 328              	.LVL51:
 329              		.loc 1 94 0
 330 01de 1199     		ldr	r1, [sp, #68]
 331 01e0 3648     		ldr	r0, .L182+120
 332 01e2 FFF7FEFF 		bl	commands_printf
 333              	.LVL52:
 334              	.LBE59:
 335 01e6 94E7     		b	.L1
 336              	.LVL53:
 337              	.L162:
 338              	.LBB60:
 339              		.loc 1 98 0
 340 01e8 3548     		ldr	r0, .L182+124
 341 01ea 364E     		ldr	r6, .L182+128
 342 01ec FFF7FEFF 		bl	commands_printf
ARM GAS  /tmp/ccTHhLt7.s 			page 7


 343              	.LVL54:
 344              		.loc 1 99 0
 345 01f0 3548     		ldr	r0, .L182+132
 346 01f2 FFF7FEFF 		bl	commands_printf
 347              	.LVL55:
 348              		.loc 1 100 0
 349 01f6 FFF7FEFF 		bl	chRegFirstThread
 350              	.LVL56:
 351 01fa 0446     		mov	r4, r0
 352              	.LVL57:
 353              	.L14:
 354              		.loc 1 104 0 discriminator 1
 355 01fc A17F     		ldrb	r1, [r4, #30]	@ zero_extendqisi2
 356              		.loc 1 102 0 discriminator 1
 357 01fe E268     		ldr	r2, [r4, #12]
 358 0200 A368     		ldr	r3, [r4, #8]
 359 0202 256A     		ldr	r5, [r4, #32]
 360 0204 3148     		ldr	r0, .L182+136
 361              	.LVL58:
 362              		.loc 1 104 0 discriminator 1
 363 0206 0139     		subs	r1, r1, #1
 364              		.loc 1 102 0 discriminator 1
 365 0208 0091     		str	r1, [sp]
 366 020a 217F     		ldrb	r1, [r4, #28]	@ zero_extendqisi2
 367 020c 56F82110 		ldr	r1, [r6, r1, lsl #2]
 368 0210 0191     		str	r1, [sp, #4]
 369 0212 A169     		ldr	r1, [r4, #24]
 370 0214 0291     		str	r1, [sp, #8]
 371 0216 0395     		str	r5, [sp, #12]
 372 0218 2146     		mov	r1, r4
 373 021a FFF7FEFF 		bl	commands_printf
 374              	.LVL59:
 375              		.loc 1 106 0 discriminator 1
 376 021e 2046     		mov	r0, r4
 377 0220 FFF7FEFF 		bl	chRegNextThread
 378              	.LVL60:
 379              		.loc 1 107 0 discriminator 1
 380 0224 0446     		mov	r4, r0
 381 0226 0028     		cmp	r0, #0
 382 0228 E8D1     		bne	.L14
 383              		.loc 1 108 0
 384 022a 2948     		ldr	r0, .L182+140
 385              	.LVL61:
 386 022c FFF7FEFF 		bl	commands_printf
 387              	.LVL62:
 388              	.LBE60:
 389 0230 6FE7     		b	.L1
 390              	.LVL63:
 391              	.L163:
 392              		.loc 1 110 0
 393 0232 FFF7FEFF 		bl	mc_interface_get_fault
 394              	.LVL64:
 395 0236 FFF7FEFF 		bl	mc_interface_fault_to_string
 396              	.LVL65:
 397 023a 0146     		mov	r1, r0
 398 023c 2548     		ldr	r0, .L182+144
 399 023e FFF7FEFF 		bl	commands_printf
ARM GAS  /tmp/ccTHhLt7.s 			page 8


 400              	.LVL66:
 401 0242 66E7     		b	.L1
 402              	.L183:
 403              		.align	2
 404              	.L182:
 405 0244 18000000 		.word	.LC4
 406 0248 00000000 		.word	.LANCHOR0
 407 024c 00000000 		.word	.LANCHOR1
 408 0250 34000000 		.word	.LC6
 409 0254 44000000 		.word	.LC8
 410 0258 5C000000 		.word	.LC10
 411 025c E0000000 		.word	.LC14
 412 0260 04010000 		.word	.LC16
 413 0264 5C010000 		.word	.LC20
 414 0268 0C020000 		.word	.LC25
 415 026c 18020000 		.word	.LC27
 416 0270 C8030000 		.word	.LC44
 417 0274 E8030000 		.word	.LC46
 418 0278 08040000 		.word	.LC48
 419 027c C0040000 		.word	.LC60
 420 0280 E0040000 		.word	.LC62
 421 0284 38060000 		.word	.LC73
 422 0288 1C000000 		.word	.LC5
 423 028c 3C000000 		.word	.LC7
 424 0290 E4000000 		.word	.LC15
 425 0294 00000000 		.word	0
 426 0298 4C000000 		.word	.LC9
 427 029c 00007A44 		.word	1148846080
 428 02a0 70000000 		.word	.LC11
 429 02a4 90000000 		.word	.LC12
 430 02a8 B8000000 		.word	.LC13
 431 02ac 00000000 		.word	.LANCHOR3
 432 02b0 20020000 		.word	.LC28
 433 02b4 08010000 		.word	.LC17
 434 02b8 24010000 		.word	.LC18
 435 02bc 3C010000 		.word	.LC19
 436 02c0 64010000 		.word	.LC21
 437 02c4 00000000 		.word	.LANCHOR2
 438 02c8 A4010000 		.word	.LC22
 439 02cc E4010000 		.word	.LC23
 440 02d0 08020000 		.word	.LC24
 441 02d4 14020000 		.word	.LC26
 442              	.LVL67:
 443              	.L17:
 444              		.loc 1 115 0
 445 02d8 A648     		ldr	r0, .L184
 446 02da FFF7FEFF 		bl	commands_printf
 447              	.LVL68:
 448              	.LBB61:
 449              		.loc 1 116 0
 450 02de 2B68     		ldr	r3, [r5]
 451 02e0 002B     		cmp	r3, #0
 452 02e2 7FF716AF 		ble	.L1
 453 02e6 A44E     		ldr	r6, .L184+4
 454 02e8 0024     		movs	r4, #0
 455              	.LVL69:
 456              	.L19:
ARM GAS  /tmp/ccTHhLt7.s 			page 9


 457              		.loc 1 117 0 discriminator 2
 458 02ea C4EBC403 		rsb	r3, r4, r4, lsl #3
 459 02ee 06EBC307 		add	r7, r6, r3, lsl #3
 460 02f2 16F83300 		ldrb	r0, [r6, r3, lsl #3]	@ zero_extendqisi2
 461 02f6 FFF7FEFF 		bl	mc_interface_fault_to_string
 462              	.LVL70:
 463 02fa 0146     		mov	r1, r0
 464 02fc 9F48     		ldr	r0, .L184+8
 465 02fe FFF7FEFF 		bl	commands_printf
 466              	.LVL71:
 467              		.loc 1 118 0 discriminator 2
 468 0302 7868     		ldr	r0, [r7, #4]	@ float
 469 0304 FFF7FEFF 		bl	__aeabi_f2d
 470              	.LVL72:
 471 0308 0246     		mov	r2, r0
 472 030a 0B46     		mov	r3, r1
 473 030c 9C48     		ldr	r0, .L184+12
 474 030e FFF7FEFF 		bl	commands_printf
 475              	.LVL73:
 476              		.loc 1 119 0 discriminator 2
 477 0312 B868     		ldr	r0, [r7, #8]	@ float
 478 0314 FFF7FEFF 		bl	__aeabi_f2d
 479              	.LVL74:
 480 0318 0246     		mov	r2, r0
 481 031a 0B46     		mov	r3, r1
 482 031c 9948     		ldr	r0, .L184+16
 483 031e FFF7FEFF 		bl	commands_printf
 484              	.LVL75:
 485              		.loc 1 120 0 discriminator 2
 486 0322 F868     		ldr	r0, [r7, #12]	@ float
 487 0324 FFF7FEFF 		bl	__aeabi_f2d
 488              	.LVL76:
 489 0328 0246     		mov	r2, r0
 490 032a 0B46     		mov	r3, r1
 491 032c 9648     		ldr	r0, .L184+20
 492 032e FFF7FEFF 		bl	commands_printf
 493              	.LVL77:
 494              		.loc 1 121 0 discriminator 2
 495 0332 3869     		ldr	r0, [r7, #16]	@ float
 496 0334 FFF7FEFF 		bl	__aeabi_f2d
 497              	.LVL78:
 498 0338 0246     		mov	r2, r0
 499 033a 0B46     		mov	r3, r1
 500 033c 9348     		ldr	r0, .L184+24
 501 033e FFF7FEFF 		bl	commands_printf
 502              	.LVL79:
 503              		.loc 1 122 0 discriminator 2
 504 0342 7869     		ldr	r0, [r7, #20]	@ float
 505 0344 FFF7FEFF 		bl	__aeabi_f2d
 506              	.LVL80:
 507 0348 0246     		mov	r2, r0
 508 034a 0B46     		mov	r3, r1
 509 034c 9048     		ldr	r0, .L184+28
 510 034e FFF7FEFF 		bl	commands_printf
 511              	.LVL81:
 512              		.loc 1 123 0 discriminator 2
 513 0352 B969     		ldr	r1, [r7, #24]
ARM GAS  /tmp/ccTHhLt7.s 			page 10


 514 0354 8F48     		ldr	r0, .L184+32
 515 0356 FFF7FEFF 		bl	commands_printf
 516              	.LVL82:
 517              		.loc 1 124 0 discriminator 2
 518 035a F969     		ldr	r1, [r7, #28]
 519 035c 8E48     		ldr	r0, .L184+36
 520 035e FFF7FEFF 		bl	commands_printf
 521              	.LVL83:
 522              		.loc 1 125 0 discriminator 2
 523 0362 D7ED0A7A 		flds	s15, [r7, #40]	@ int
 524 0366 97ED047A 		flds	s14, [r7, #16]
 525 036a 8C48     		ldr	r0, .L184+40
 526 036c F8EEE77A 		fsitos	s15, s15
 527              		.loc 1 116 0 discriminator 2
 528 0370 0134     		adds	r4, r4, #1
 529              	.LVL84:
 530              		.loc 1 125 0 discriminator 2
 531 0372 67EE877A 		fmuls	s15, s15, s14
 532 0376 FDEEE77A 		ftosizs	s15, s15
 533 037a 17EE901A 		fmrs	r1, s15	@ int
 534 037e FFF7FEFF 		bl	commands_printf
 535              	.LVL85:
 536              		.loc 1 126 0 discriminator 2
 537 0382 396A     		ldr	r1, [r7, #32]
 538 0384 8648     		ldr	r0, .L184+44
 539 0386 FFF7FEFF 		bl	commands_printf
 540              	.LVL86:
 541              		.loc 1 127 0 discriminator 2
 542 038a 796A     		ldr	r1, [r7, #36]
 543 038c 8548     		ldr	r0, .L184+48
 544 038e FFF7FEFF 		bl	commands_printf
 545              	.LVL87:
 546              		.loc 1 128 0 discriminator 2
 547 0392 B96A     		ldr	r1, [r7, #40]
 548 0394 8448     		ldr	r0, .L184+52
 549 0396 FFF7FEFF 		bl	commands_printf
 550              	.LVL88:
 551              		.loc 1 129 0 discriminator 2
 552 039a F96A     		ldr	r1, [r7, #44]
 553 039c 8348     		ldr	r0, .L184+56
 554 039e FFF7FEFF 		bl	commands_printf
 555              	.LVL89:
 556              		.loc 1 130 0 discriminator 2
 557 03a2 386B     		ldr	r0, [r7, #48]	@ float
 558 03a4 FFF7FEFF 		bl	__aeabi_f2d
 559              	.LVL90:
 560 03a8 0246     		mov	r2, r0
 561 03aa 0B46     		mov	r3, r1
 562 03ac 8048     		ldr	r0, .L184+60
 563 03ae FFF7FEFF 		bl	commands_printf
 564              	.LVL91:
 565              		.loc 1 136 0 discriminator 2
 566 03b2 8048     		ldr	r0, .L184+64
 567 03b4 FFF7FEFF 		bl	commands_printf
 568              	.LVL92:
 569              		.loc 1 116 0 discriminator 2
 570 03b8 2B68     		ldr	r3, [r5]
ARM GAS  /tmp/ccTHhLt7.s 			page 11


 571 03ba A342     		cmp	r3, r4
 572 03bc 95DC     		bgt	.L19
 573 03be A8E6     		b	.L1
 574              	.LVL93:
 575              	.L165:
 576              	.LBE61:
 577              		.loc 1 140 0
 578 03c0 FFF7FEFF 		bl	mc_interface_get_rpm
 579              	.LVL94:
 580 03c4 10EE100A 		fmrs	r0, s0
 581 03c8 FFF7FEFF 		bl	__aeabi_f2d
 582              	.LVL95:
 583 03cc 0246     		mov	r2, r0
 584 03ce 0B46     		mov	r3, r1
 585 03d0 7948     		ldr	r0, .L184+68
 586 03d2 FFF7FEFF 		bl	commands_printf
 587              	.LVL96:
 588 03d6 9CE6     		b	.L1
 589              	.L166:
 590              		.loc 1 142 0
 591 03d8 FFF7FEFF 		bl	mc_interface_get_tachometer_value
 592              	.LVL97:
 593 03dc 0146     		mov	r1, r0
 594 03de 7748     		ldr	r0, .L184+72
 595 03e0 FFF7FEFF 		bl	commands_printf
 596              	.LVL98:
 597 03e4 95E6     		b	.L1
 598              	.L24:
 599              		.loc 1 216 0
 600 03e6 3046     		mov	r0, r6
 601 03e8 7549     		ldr	r1, .L184+76
 602 03ea FFF7FEFF 		bl	strcmp
 603              	.LVL99:
 604 03ee 0028     		cmp	r0, #0
 605 03f0 00F05881 		beq	.L170
 606              		.loc 1 221 0
 607 03f4 3046     		mov	r0, r6
 608 03f6 7349     		ldr	r1, .L184+80
 609 03f8 FFF7FEFF 		bl	strcmp
 610              	.LVL100:
 611 03fc 0446     		mov	r4, r0
 612 03fe 0028     		cmp	r0, #0
 613 0400 00F00D82 		beq	.L171
 614              		.loc 1 235 0
 615 0404 3046     		mov	r0, r6
 616 0406 7049     		ldr	r1, .L184+84
 617 0408 FFF7FEFF 		bl	strcmp
 618              	.LVL101:
 619 040c 0028     		cmp	r0, #0
 620 040e 40F00F81 		bne	.L44
 621              		.loc 1 236 0
 622 0412 022D     		cmp	r5, #2
 623 0414 00F08981 		beq	.L172
 624              	.L45:
 625              		.loc 1 264 0
 626 0418 6C48     		ldr	r0, .L184+88
 627 041a FFF7FEFF 		bl	commands_printf
ARM GAS  /tmp/ccTHhLt7.s 			page 12


 628              	.LVL102:
 629 041e 78E6     		b	.L1
 630              	.L168:
 631              		.loc 1 169 0
 632 0420 6B4B     		ldr	r3, .L184+92
 633 0422 DFED6C6A 		flds	s13, .L184+96
 634 0426 1B8A     		ldrh	r3, [r3, #16]
 635 0428 DFED6B7A 		flds	s15, .L184+100
 636 042c 9BB2     		uxth	r3, r3
 637 042e 06EE103A 		fmsr	s12, r3	@ int
 638 0432 B8EE467A 		fuitos	s14, s12
 639 0436 27EE267A 		fmuls	s14, s14, s13
 640 043a 67EE277A 		fmuls	s15, s14, s15
 641 043e 17EE900A 		fmrs	r0, s15
 642 0442 FFF7FEFF 		bl	__aeabi_f2d
 643              	.LVL103:
 644 0446 0246     		mov	r2, r0
 645 0448 0B46     		mov	r3, r1
 646 044a 6448     		ldr	r0, .L184+104
 647 044c FFF7FEFF 		bl	commands_printf
 648              	.LVL104:
 649 0450 5FE6     		b	.L1
 650              	.L167:
 651              	.LVL105:
 652              	.LBB62:
 653              	.LBB63:
 654              	.LBB64:
 655              	.LBB65:
 656              	.LBB66:
 657              		.file 2 "ChibiOS_3.0.2/os/ext/CMSIS/include/core_cmFunc.h"
 658              		.loc 2 546 0
 659 0452 2023     		movs	r3, #32
 660              	@ 546 "ChibiOS_3.0.2/os/ext/CMSIS/include/core_cmFunc.h" 1
 661 0454 83F31188 		MSR basepri, r3
 662              	@ 0 "" 2
 663              		.thumb
 664              	.LBE66:
 665              	.LBE65:
 666              	.LBE64:
 667              	.LBE63:
 668              		.loc 1 145 0
 669 0458 614B     		ldr	r3, .L184+108
 670              		.loc 1 146 0
 671 045a 624A     		ldr	r2, .L184+112
 672              		.loc 1 145 0
 673 045c 596A     		ldr	r1, [r3, #36]
 674 045e 0E91     		str	r1, [sp, #56]
 675              		.loc 1 146 0
 676 0460 516A     		ldr	r1, [r2, #36]
 677 0462 0F91     		str	r1, [sp, #60]
 678              		.loc 1 147 0
 679 0464 1968     		ldr	r1, [r3]
 680 0466 C1F30011 		ubfx	r1, r1, #4, #1
 681 046a 1091     		str	r1, [sp, #64]
 682              		.loc 1 148 0
 683 046c 1168     		ldr	r1, [r2]
 684 046e C1F30011 		ubfx	r1, r1, #4, #1
ARM GAS  /tmp/ccTHhLt7.s 			page 13


 685 0472 1191     		str	r1, [sp, #68]
 686              	.LVL106:
 687              	.LBB67:
 688              	.LBB68:
 689              	.LBB69:
 690              	.LBB70:
 691              	.LBB71:
 692              		.loc 2 546 0
 693              	@ 546 "ChibiOS_3.0.2/os/ext/CMSIS/include/core_cmFunc.h" 1
 694 0474 80F31188 		MSR basepri, r0
 695              	@ 0 "" 2
 696              		.thumb
 697              	.LBE71:
 698              	.LBE70:
 699              	.LBE69:
 700              	.LBE68:
 701              	.LBE67:
 702              		.loc 1 157 0
 703 0478 5B48     		ldr	r0, .L184+116
 704              		.loc 1 150 0
 705 047a D3F834A0 		ldr	r10, [r3, #52]
 706              	.LVL107:
 707              		.loc 1 151 0
 708 047e D3F83890 		ldr	r9, [r3, #56]
 709              	.LVL108:
 710              		.loc 1 152 0
 711 0482 D3F83C80 		ldr	r8, [r3, #60]
 712              	.LVL109:
 713              		.loc 1 153 0
 714 0486 DF6A     		ldr	r7, [r3, #44]
 715              	.LVL110:
 716              		.loc 1 154 0
 717 0488 566B     		ldr	r6, [r2, #52]
 718              	.LVL111:
 719              		.loc 1 155 0
 720 048a 1D6C     		ldr	r5, [r3, #64]
 721              	.LVL112:
 722              		.loc 1 156 0
 723 048c 946B     		ldr	r4, [r2, #56]
 724              	.LVL113:
 725              		.loc 1 157 0
 726 048e 0E99     		ldr	r1, [sp, #56]
 727 0490 FFF7FEFF 		bl	commands_printf
 728              	.LVL114:
 729              		.loc 1 158 0
 730 0494 0F99     		ldr	r1, [sp, #60]
 731 0496 5548     		ldr	r0, .L184+120
 732 0498 FFF7FEFF 		bl	commands_printf
 733              	.LVL115:
 734              		.loc 1 159 0
 735 049c 5146     		mov	r1, r10
 736 049e 5448     		ldr	r0, .L184+124
 737 04a0 FFF7FEFF 		bl	commands_printf
 738              	.LVL116:
 739              		.loc 1 160 0
 740 04a4 4946     		mov	r1, r9
 741 04a6 5348     		ldr	r0, .L184+128
ARM GAS  /tmp/ccTHhLt7.s 			page 14


 742 04a8 FFF7FEFF 		bl	commands_printf
 743              	.LVL117:
 744              		.loc 1 161 0
 745 04ac 4146     		mov	r1, r8
 746 04ae 5248     		ldr	r0, .L184+132
 747 04b0 FFF7FEFF 		bl	commands_printf
 748              	.LVL118:
 749              		.loc 1 162 0
 750 04b4 3946     		mov	r1, r7
 751 04b6 5148     		ldr	r0, .L184+136
 752 04b8 FFF7FEFF 		bl	commands_printf
 753              	.LVL119:
 754              		.loc 1 163 0
 755 04bc 1099     		ldr	r1, [sp, #64]
 756 04be 5048     		ldr	r0, .L184+140
 757 04c0 FFF7FEFF 		bl	commands_printf
 758              	.LVL120:
 759              		.loc 1 164 0
 760 04c4 1199     		ldr	r1, [sp, #68]
 761 04c6 4F48     		ldr	r0, .L184+144
 762 04c8 FFF7FEFF 		bl	commands_printf
 763              	.LVL121:
 764              		.loc 1 165 0
 765 04cc 3146     		mov	r1, r6
 766 04ce 4E48     		ldr	r0, .L184+148
 767 04d0 FFF7FEFF 		bl	commands_printf
 768              	.LVL122:
 769              		.loc 1 166 0
 770 04d4 2946     		mov	r1, r5
 771 04d6 4D48     		ldr	r0, .L184+152
 772 04d8 FFF7FEFF 		bl	commands_printf
 773              	.LVL123:
 774              		.loc 1 167 0
 775 04dc 2146     		mov	r1, r4
 776 04de 4C48     		ldr	r0, .L184+156
 777 04e0 FFF7FEFF 		bl	commands_printf
 778              	.LVL124:
 779              	.LBE62:
 780 04e4 15E6     		b	.L1
 781              	.LVL125:
 782              	.L169:
 783              	.LBB72:
 784              		.loc 1 173 0
 785 04e6 4B4B     		ldr	r3, .L184+160
 786              		.loc 1 176 0
 787 04e8 4B49     		ldr	r1, .L184+164
 788 04ea 1998     		ldr	r0, [sp, #100]
 789              		.loc 1 173 0
 790 04ec 0B93     		str	r3, [sp, #44]	@ float
 791              		.loc 1 176 0
 792 04ee 0BAA     		add	r2, sp, #44
 793              		.loc 1 174 0
 794 04f0 0C93     		str	r3, [sp, #48]	@ float
 795              		.loc 1 175 0
 796 04f2 0D93     		str	r3, [sp, #52]	@ float
 797              		.loc 1 176 0
 798 04f4 FFF7FEFF 		bl	sscanf
ARM GAS  /tmp/ccTHhLt7.s 			page 15


 799              	.LVL126:
 800              		.loc 1 177 0
 801 04f8 0CAA     		add	r2, sp, #48
 802 04fa 4749     		ldr	r1, .L184+164
 803 04fc 1A98     		ldr	r0, [sp, #104]
 804 04fe FFF7FEFF 		bl	sscanf
 805              	.LVL127:
 806              		.loc 1 178 0
 807 0502 1B98     		ldr	r0, [sp, #108]
 808 0504 4449     		ldr	r1, .L184+164
 809 0506 0DAA     		add	r2, sp, #52
 810 0508 FFF7FEFF 		bl	sscanf
 811              	.LVL128:
 812              		.loc 1 180 0
 813 050c 9DED0B0A 		flds	s0, [sp, #44]
 814 0510 B5EEC00A 		fcmpezs	s0
 815 0514 F1EE10FA 		fmstat
 816 0518 28DD     		ble	.L88
 817              		.loc 1 180 0 is_stmt 0 discriminator 1
 818 051a 404B     		ldr	r3, .L184+168
 819 051c D3ED017A 		flds	s15, [r3, #4]
 820 0520 B4EEE70A 		fcmpes	s0, s15
 821 0524 F1EE10FA 		fmstat
 822 0528 20D5     		bpl	.L88
 823              		.loc 1 181 0 is_stmt 1 discriminator 1
 824 052a DDED0C0A 		flds	s1, [sp, #48]
 825              		.loc 1 180 0 discriminator 1
 826 052e F2EE047A 		fconsts	s15, #36
 827 0532 F4EEE70A 		fcmpes	s1, s15
 828 0536 F1EE10FA 		fmstat
 829 053a 17DD     		ble	.L88
 830              		.loc 1 181 0
 831 053c DFED387A 		flds	s15, .L184+172
 832 0540 F4EEE70A 		fcmpes	s1, s15
 833 0544 F1EE10FA 		fmstat
 834 0548 10D5     		bpl	.L88
 835              		.loc 1 182 0 discriminator 1
 836 054a 9DED0D1A 		flds	s2, [sp, #52]
 837              		.loc 1 181 0 discriminator 1
 838 054e DFED357A 		flds	s15, .L184+176
 839 0552 B4EEE71A 		fcmpes	s2, s15
 840 0556 F1EE10FA 		fmstat
 841 055a 07DD     		ble	.L88
 842              		.loc 1 182 0
 843 055c DFED327A 		flds	s15, .L184+180
 844 0560 B4EEE71A 		fcmpes	s2, s15
 845 0564 F1EE10FA 		fmstat
 846 0568 00F1B880 		bmi	.L173
 847              	.LVL129:
 848              	.L88:
 849              	.LBE72:
 850              	.LBB76:
 851              		.loc 1 552 0
 852 056c 2F48     		ldr	r0, .L184+184
 853 056e FFF7FEFF 		bl	commands_printf
 854              	.LVL130:
 855 0572 CEE5     		b	.L1
ARM GAS  /tmp/ccTHhLt7.s 			page 16


 856              	.L185:
 857              		.align	2
 858              	.L184:
 859 0574 44020000 		.word	.LC29
 860 0578 00000000 		.word	.LANCHOR4
 861 057c 78020000 		.word	.LC30
 862 0580 90020000 		.word	.LC31
 863 0584 A8020000 		.word	.LC32
 864 0588 C0020000 		.word	.LC33
 865 058c D8020000 		.word	.LC34
 866 0590 F0020000 		.word	.LC35
 867 0594 08030000 		.word	.LC36
 868 0598 20030000 		.word	.LC37
 869 059c 38030000 		.word	.LC38
 870 05a0 50030000 		.word	.LC39
 871 05a4 68030000 		.word	.LC40
 872 05a8 80030000 		.word	.LC41
 873 05ac 98030000 		.word	.LC42
 874 05b0 B0030000 		.word	.LC43
 875 05b4 18000000 		.word	.LC4
 876 05b8 CC030000 		.word	.LC45
 877 05bc F0030000 		.word	.LC47
 878 05c0 60060000 		.word	.LC74
 879 05c4 BC060000 		.word	.LC78
 880 05c8 98070000 		.word	.LC86
 881 05cc F4070000 		.word	.LC91
 882 05d0 00000000 		.word	ADC_Value
 883 05d4 6740533A 		.word	978534503
 884 05d8 74D19541 		.word	1100337524
 885 05dc C8040000 		.word	.LC61
 886 05e0 00000140 		.word	1073807360
 887 05e4 00040140 		.word	1073808384
 888 05e8 0C040000 		.word	.LC49
 889 05ec 1C040000 		.word	.LC50
 890 05f0 2C040000 		.word	.LC51
 891 05f4 3C040000 		.word	.LC52
 892 05f8 4C040000 		.word	.LC53
 893 05fc 5C040000 		.word	.LC54
 894 0600 64040000 		.word	.LC55
 895 0604 70040000 		.word	.LC56
 896 0608 7C040000 		.word	.LC57
 897 060c 90040000 		.word	.LC58
 898 0610 A8040000 		.word	.LC59
 899 0614 000080BF 		.word	-1082130432
 900 0618 F0040000 		.word	.LC63
 901 061c 00000000 		.word	.LANCHOR0
 902 0620 00803B45 		.word	1161527296
 903 0624 0AD7A33C 		.word	1017370378
 904 0628 CDCC4C3F 		.word	1061997773
 905 062c 20060000 		.word	.LC72
 906              	.LVL131:
 907              	.L44:
 908              	.LBE76:
 909              		.loc 1 266 0
 910 0630 3046     		mov	r0, r6
 911 0632 A749     		ldr	r1, .L186
 912 0634 FFF7FEFF 		bl	strcmp
ARM GAS  /tmp/ccTHhLt7.s 			page 17


 913              	.LVL132:
 914 0638 0028     		cmp	r0, #0
 915 063a 40F08B81 		bne	.L52
 916              		.loc 1 267 0
 917 063e 022D     		cmp	r5, #2
 918 0640 7FF4EAAE 		bne	.L45
 919              	.LBB77:
 920              		.loc 1 268 0
 921 0644 11AC     		add	r4, sp, #68
 922 0646 A34B     		ldr	r3, .L186+4
 923              		.loc 1 269 0
 924 0648 1998     		ldr	r0, [sp, #100]
 925 064a A349     		ldr	r1, .L186+8
 926              		.loc 1 268 0
 927 064c 1193     		str	r3, [sp, #68]	@ float
 928              		.loc 1 269 0
 929 064e 2246     		mov	r2, r4
 930 0650 FFF7FEFF 		bl	sscanf
 931              	.LVL133:
 932              		.loc 1 271 0
 933 0654 D4ED007A 		flds	s15, [r4]
 934 0658 F5EEC07A 		fcmpezs	s15
 935 065c F1EE10FA 		fmstat
 936 0660 84DD     		ble	.L88
 937              		.loc 1 271 0 is_stmt 0 discriminator 1
 938 0662 9E4D     		ldr	r5, .L186+12
 939              	.LVL134:
 940 0664 95ED017A 		flds	s14, [r5, #4]
 941 0668 F4EEC77A 		fcmpes	s15, s14
 942 066c F1EE10FA 		fmstat
 943 0670 3FF67CAF 		bhi	.L88
 944              		.loc 1 272 0 is_stmt 1
 945 0674 0223     		movs	r3, #2
 946              		.loc 1 273 0
 947 0676 2846     		mov	r0, r5
 948              		.loc 1 272 0
 949 0678 AB70     		strb	r3, [r5, #2]
 950              		.loc 1 273 0
 951 067a FFF7FEFF 		bl	mc_interface_set_configuration
 952              	.LVL135:
 953              		.loc 1 275 0
 954 067e 94ED000A 		flds	s0, [r4]
 955 0682 4FF4FA60 		mov	r0, #2000
 956 0686 FFF7FEFF 		bl	mcpwm_foc_measure_resistance
 957              	.LVL136:
 958 068a 10EE100A 		fmrs	r0, s0
 959 068e FFF7FEFF 		bl	__aeabi_f2d
 960              	.LVL137:
 961 0692 0246     		mov	r2, r0
 962 0694 0B46     		mov	r3, r1
 963 0696 9248     		ldr	r0, .L186+16
 964 0698 FFF7FEFF 		bl	commands_printf
 965              	.LVL138:
 966              		.loc 1 277 0
 967 069c 9148     		ldr	r0, .L186+20
 968 069e FFF7FEFF 		bl	mc_interface_set_configuration
 969              	.LVL139:
ARM GAS  /tmp/ccTHhLt7.s 			page 18


 970 06a2 36E5     		b	.L1
 971              	.LVL140:
 972              	.L170:
 973              	.LBE77:
 974              	.LBB78:
 975              		.loc 1 217 0
 976 06a4 11A8     		add	r0, sp, #68
 977 06a6 FFF7FEFF 		bl	mcpwm_get_rpm_dep
 978              	.LVL141:
 979              		.loc 1 218 0
 980 06aa 1198     		ldr	r0, [sp, #68]	@ float
 981 06ac FFF7FEFF 		bl	__aeabi_f2d
 982              	.LVL142:
 983 06b0 0246     		mov	r2, r0
 984 06b2 0B46     		mov	r3, r1
 985 06b4 8C48     		ldr	r0, .L186+24
 986 06b6 FFF7FEFF 		bl	commands_printf
 987              	.LVL143:
 988              		.loc 1 219 0
 989 06ba 1298     		ldr	r0, [sp, #72]	@ float
 990 06bc FFF7FEFF 		bl	__aeabi_f2d
 991              	.LVL144:
 992 06c0 0246     		mov	r2, r0
 993 06c2 0B46     		mov	r3, r1
 994 06c4 8948     		ldr	r0, .L186+28
 995 06c6 FFF7FEFF 		bl	commands_printf
 996              	.LVL145:
 997              		.loc 1 220 0
 998 06ca 1398     		ldr	r0, [sp, #76]	@ float
 999 06cc FFF7FEFF 		bl	__aeabi_f2d
 1000              	.LVL146:
 1001 06d0 0246     		mov	r2, r0
 1002 06d2 0B46     		mov	r3, r1
 1003 06d4 8648     		ldr	r0, .L186+32
 1004 06d6 FFF7FEFF 		bl	commands_printf
 1005              	.LVL147:
 1006              	.LBE78:
 1007 06da 1AE5     		b	.L1
 1008              	.L173:
 1009              	.LBB79:
 1010              	.LBB73:
 1011              		.loc 1 188 0
 1012 06dc 0EA8     		add	r0, sp, #56
 1013 06de 0FA9     		add	r1, sp, #60
 1014 06e0 11AA     		add	r2, sp, #68
 1015 06e2 10AB     		add	r3, sp, #64
 1016 06e4 FFF7FEFF 		bl	conf_general_detect_motor_param
 1017              	.LVL148:
 1018 06e8 0028     		cmp	r0, #0
 1019 06ea 00F09480 		beq	.L33
 1020              		.loc 1 189 0
 1021 06ee 0E98     		ldr	r0, [sp, #56]	@ float
 1022 06f0 FFF7FEFF 		bl	__aeabi_f2d
 1023              	.LVL149:
 1024 06f4 0246     		mov	r2, r0
 1025 06f6 0B46     		mov	r3, r1
 1026 06f8 7E48     		ldr	r0, .L186+36
ARM GAS  /tmp/ccTHhLt7.s 			page 19


 1027 06fa FFF7FEFF 		bl	commands_printf
 1028              	.LVL150:
 1029              		.loc 1 190 0
 1030 06fe 0F98     		ldr	r0, [sp, #60]	@ float
 1031 0700 FFF7FEFF 		bl	__aeabi_f2d
 1032              	.LVL151:
 1033 0704 0246     		mov	r2, r0
 1034 0706 0B46     		mov	r3, r1
 1035 0708 7B48     		ldr	r0, .L186+40
 1036 070a FFF7FEFF 		bl	commands_printf
 1037              	.LVL152:
 1038              		.loc 1 192 0
 1039 070e 109B     		ldr	r3, [sp, #64]
 1040 0710 002B     		cmp	r3, #0
 1041 0712 7ED0     		beq	.L174
 1042              		.loc 1 197 0
 1043 0714 591C     		adds	r1, r3, #1
 1044 0716 5CD0     		beq	.L175
 1045              		.loc 1 202 0
 1046 0718 9A1C     		adds	r2, r3, #2
 1047 071a 56D0     		beq	.L176
 1048              		.loc 1 204 0
 1049 071c 0333     		adds	r3, r3, #3
 1050 071e 7FF4F8AC 		bne	.L1
 1051              		.loc 1 205 0
 1052 0722 7648     		ldr	r0, .L186+44
 1053 0724 FFF7FEFF 		bl	commands_printf
 1054              	.LVL153:
 1055 0728 F3E4     		b	.L1
 1056              	.L172:
 1057              	.LBE73:
 1058              	.LBE79:
 1059              	.LBB80:
 1060              		.loc 1 237 0
 1061 072a 6A4B     		ldr	r3, .L186+4
 1062              		.loc 1 238 0
 1063 072c 1998     		ldr	r0, [sp, #100]
 1064 072e 6A49     		ldr	r1, .L186+8
 1065              		.loc 1 237 0
 1066 0730 0F93     		str	r3, [sp, #60]	@ float
 1067              		.loc 1 238 0
 1068 0732 0FAA     		add	r2, sp, #60
 1069 0734 FFF7FEFF 		bl	sscanf
 1070              	.LVL154:
 1071              		.loc 1 240 0
 1072 0738 DDED0F7A 		flds	s15, [sp, #60]
 1073 073c F5EEC07A 		fcmpezs	s15
 1074 0740 F1EE10FA 		fmstat
 1075 0744 7FF712AF 		ble	.L88
 1076              		.loc 1 240 0 is_stmt 0 discriminator 1
 1077 0748 644D     		ldr	r5, .L186+12
 1078              	.LVL155:
 1079 074a 95ED017A 		flds	s14, [r5, #4]
 1080 074e F4EEC77A 		fcmpes	s15, s14
 1081 0752 F1EE10FA 		fmstat
 1082 0756 3FF609AF 		bhi	.L88
 1083              		.loc 1 241 0 is_stmt 1
ARM GAS  /tmp/ccTHhLt7.s 			page 20


 1084 075a FFF7FEFF 		bl	encoder_is_configured
 1085              	.LVL156:
 1086 075e 0028     		cmp	r0, #0
 1087 0760 53D0     		beq	.L49
 1088              	.LBB81:
 1089              		.loc 1 243 0
 1090 0762 0223     		movs	r3, #2
 1091              		.loc 1 244 0
 1092 0764 2846     		mov	r0, r5
 1093              		.loc 1 242 0
 1094 0766 AE78     		ldrb	r6, [r5, #2]	@ zero_extendqisi2
 1095              	.LVL157:
 1096              		.loc 1 243 0
 1097 0768 AB70     		strb	r3, [r5, #2]
 1098              		.loc 1 246 0
 1099 076a 0024     		movs	r4, #0
 1100              		.loc 1 244 0
 1101 076c FFF7FEFF 		bl	mc_interface_set_configuration
 1102              	.LVL158:
 1103              		.loc 1 248 0
 1104 0770 0027     		movs	r7, #0
 1105              		.loc 1 249 0
 1106 0772 9DED0F0A 		flds	s0, [sp, #60]
 1107              		.loc 1 246 0
 1108 0776 1094     		str	r4, [sp, #64]	@ float
 1109              		.loc 1 249 0
 1110 0778 11AA     		add	r2, sp, #68
 1111 077a 0EAB     		add	r3, sp, #56
 1112 077c 10A9     		add	r1, sp, #64
 1113 077e 0120     		movs	r0, #1
 1114              		.loc 1 247 0
 1115 0780 1194     		str	r4, [sp, #68]	@ float
 1116              		.loc 1 248 0
 1117 0782 8DF83870 		strb	r7, [sp, #56]
 1118              		.loc 1 249 0
 1119 0786 FFF7FEFF 		bl	mcpwm_foc_encoder_detect
 1120              	.LVL159:
 1121              		.loc 1 252 0
 1122 078a 2846     		mov	r0, r5
 1123              		.loc 1 251 0
 1124 078c AE70     		strb	r6, [r5, #2]
 1125              		.loc 1 252 0
 1126 078e FFF7FEFF 		bl	mc_interface_set_configuration
 1127              	.LVL160:
 1128              		.loc 1 254 0
 1129 0792 1098     		ldr	r0, [sp, #64]	@ float
 1130 0794 FFF7FEFF 		bl	__aeabi_f2d
 1131              	.LVL161:
 1132 0798 0246     		mov	r2, r0
 1133 079a 0B46     		mov	r3, r1
 1134 079c 5848     		ldr	r0, .L186+48
 1135 079e FFF7FEFF 		bl	commands_printf
 1136              	.LVL162:
 1137              		.loc 1 255 0
 1138 07a2 1198     		ldr	r0, [sp, #68]	@ float
 1139 07a4 FFF7FEFF 		bl	__aeabi_f2d
 1140              	.LVL163:
ARM GAS  /tmp/ccTHhLt7.s 			page 21


 1141 07a8 0246     		mov	r2, r0
 1142 07aa 0B46     		mov	r3, r1
 1143 07ac 5548     		ldr	r0, .L186+52
 1144 07ae FFF7FEFF 		bl	commands_printf
 1145              	.LVL164:
 1146              		.loc 1 256 0
 1147 07b2 9DF83810 		ldrb	r1, [sp, #56]	@ zero_extendqisi2
 1148 07b6 544A     		ldr	r2, .L186+56
 1149 07b8 544B     		ldr	r3, .L186+60
 1150 07ba 5548     		ldr	r0, .L186+64
 1151 07bc B942     		cmp	r1, r7
 1152 07be 0CBF     		ite	eq
 1153 07c0 1146     		moveq	r1, r2
 1154 07c2 1946     		movne	r1, r3
 1155 07c4 FFF7FEFF 		bl	commands_printf
 1156              	.LVL165:
 1157              	.LBE81:
 1158 07c8 A3E4     		b	.L1
 1159              	.LVL166:
 1160              	.L176:
 1161              	.LBE80:
 1162              	.LBB82:
 1163              	.LBB74:
 1164              		.loc 1 203 0
 1165 07ca 5248     		ldr	r0, .L186+68
 1166 07cc FFF7FEFF 		bl	commands_printf
 1167              	.LVL167:
 1168 07d0 9FE4     		b	.L1
 1169              	.L175:
 1170              		.loc 1 198 0
 1171 07d2 5148     		ldr	r0, .L186+72
 1172              	.L152:
 1173 07d4 FFF7FEFF 		bl	commands_printf
 1174              	.LVL168:
 1175              		.loc 1 199 0
 1176 07d8 9DF94B00 		ldrsb	r0, [sp, #75]
 1177 07dc 9DF94770 		ldrsb	r7, [sp, #71]
 1178 07e0 9DF94860 		ldrsb	r6, [sp, #72]
 1179 07e4 9DF94950 		ldrsb	r5, [sp, #73]
 1180              	.LVL169:
 1181 07e8 9DF94A40 		ldrsb	r4, [sp, #74]
 1182 07ec 0490     		str	r0, [sp, #16]
 1183 07ee 9DF94410 		ldrsb	r1, [sp, #68]
 1184 07f2 9DF94520 		ldrsb	r2, [sp, #69]
 1185 07f6 9DF94630 		ldrsb	r3, [sp, #70]
 1186 07fa 0097     		str	r7, [sp]
 1187 07fc 0196     		str	r6, [sp, #4]
 1188 07fe 0295     		str	r5, [sp, #8]
 1189 0800 0394     		str	r4, [sp, #12]
 1190 0802 4648     		ldr	r0, .L186+76
 1191 0804 FFF7FEFF 		bl	commands_printf
 1192              	.LVL170:
 1193 0808 83E4     		b	.L1
 1194              	.L49:
 1195              	.LBE74:
 1196              	.LBE82:
 1197              	.LBB83:
ARM GAS  /tmp/ccTHhLt7.s 			page 22


 1198              		.loc 1 258 0
 1199 080a 4548     		ldr	r0, .L186+80
 1200 080c FFF7FEFF 		bl	commands_printf
 1201              	.LVL171:
 1202 0810 7FE4     		b	.L1
 1203              	.LVL172:
 1204              	.L174:
 1205              	.LBE83:
 1206              	.LBB84:
 1207              	.LBB75:
 1208              		.loc 1 193 0
 1209 0812 4448     		ldr	r0, .L186+84
 1210 0814 DEE7     		b	.L152
 1211              	.L33:
 1212              		.loc 1 208 0
 1213 0816 4448     		ldr	r0, .L186+88
 1214 0818 FFF7FEFF 		bl	commands_printf
 1215              	.LVL173:
 1216              	.LBE75:
 1217              		.loc 1 182 0
 1218 081c 79E4     		b	.L1
 1219              	.L171:
 1220              	.LBE84:
 1221              		.loc 1 222 0
 1222 081e 4348     		ldr	r0, .L186+92
 1223              	.LBB85:
 1224              	.LBB86:
 1225              	.LBB87:
 1226              	.LBB88:
 1227              	.LBB89:
 1228              	.LBB90:
 1229              		.file 3 "ChibiOS_3.0.2/os/rt/include/chvt.h"
 1230              		.loc 3 231 0
 1231 0820 434D     		ldr	r5, .L186+96
 1232              	.LVL174:
 1233              	.LBE90:
 1234              	.LBE89:
 1235              	.LBE88:
 1236              	.LBE87:
 1237              		.loc 1 226 0
 1238 0822 9FED448A 		flds	s16, .L186+100
 1239              		.loc 1 229 0
 1240 0826 DFED448A 		flds	s17, .L186+104
 1241              	.LBE86:
 1242              	.LBE85:
 1243              		.loc 1 222 0
 1244 082a FFF7FEFF 		bl	commands_printf
 1245              	.LVL175:
 1246 082e 02E0     		b	.L43
 1247              	.LVL176:
 1248              	.L41:
 1249              	.LBB101:
 1250              		.loc 1 223 0
 1251 0830 0A2C     		cmp	r4, #10
 1252 0832 3FF46EAC 		beq	.L1
 1253              	.LVL177:
 1254              	.L43:
ARM GAS  /tmp/ccTHhLt7.s 			page 23


 1255              	.LBB99:
 1256              		.loc 1 224 0
 1257 0836 2046     		mov	r0, r4
 1258 0838 FFF7FEFF 		bl	comm_can_get_status_msg_index
 1259              	.LVL178:
 1260              		.loc 1 226 0
 1261 083c 0168     		ldr	r1, [r0]
 1262 083e 0029     		cmp	r1, #0
 1263              		.loc 1 224 0
 1264 0840 0646     		mov	r6, r0
 1265              	.LVL179:
 1266              		.loc 1 226 0
 1267 0842 F7EE007A 		fconsts	s15, #112
 1268              	.LBE99:
 1269              		.loc 1 223 0
 1270 0846 04F10104 		add	r4, r4, #1
 1271              	.LVL180:
 1272              	.LBB100:
 1273              		.loc 1 226 0
 1274 084a F1DB     		blt	.L41
 1275              	.LBB94:
 1276              	.LBB93:
 1277              	.LBB92:
 1278              	.LBB91:
 1279              		.loc 3 231 0 discriminator 1
 1280 084c AA6A     		ldr	r2, [r5, #40]
 1281              	.LBE91:
 1282              	.LBE92:
 1283              		.loc 3 267 0 discriminator 1
 1284 084e 4368     		ldr	r3, [r0, #4]
 1285 0850 D31A     		subs	r3, r2, r3
 1286 0852 07EE103A 		fmsr	s14, r3	@ int
 1287              	.LBE93:
 1288              	.LBE94:
 1289              		.loc 1 226 0 discriminator 1
 1290 0856 B8EE477A 		fuitos	s14, s14
 1291 085a 87EE087A 		fdivs	s14, s14, s16
 1292 085e B4EEE77A 		fcmpes	s14, s15
 1293 0862 F1EE10FA 		fmstat
 1294 0866 E3D5     		bpl	.L41
 1295              		.loc 1 227 0
 1296 0868 3448     		ldr	r0, .L186+108
 1297              	.LVL181:
 1298 086a FFF7FEFF 		bl	commands_printf
 1299              	.LVL182:
 1300              		.loc 1 228 0
 1301 086e 7168     		ldr	r1, [r6, #4]
 1302 0870 3348     		ldr	r0, .L186+112
 1303 0872 FFF7FEFF 		bl	commands_printf
 1304              	.LVL183:
 1305              	.LBB95:
 1306              	.LBB96:
 1307              	.LBB97:
 1308              	.LBB98:
 1309              		.loc 3 231 0
 1310 0876 AA6A     		ldr	r2, [r5, #40]
 1311              	.LBE98:
ARM GAS  /tmp/ccTHhLt7.s 			page 24


 1312              	.LBE97:
 1313              		.loc 3 267 0
 1314 0878 7368     		ldr	r3, [r6, #4]
 1315 087a D31A     		subs	r3, r2, r3
 1316 087c 07EE903A 		fmsr	s15, r3	@ int
 1317              	.LBE96:
 1318              	.LBE95:
 1319              		.loc 1 229 0
 1320 0880 F8EE677A 		fuitos	s15, s15
 1321 0884 C7EE887A 		fdivs	s15, s15, s16
 1322 0888 67EEA87A 		fmuls	s15, s15, s17
 1323 088c 17EE900A 		fmrs	r0, s15
 1324 0890 FFF7FEFF 		bl	__aeabi_f2d
 1325              	.LVL184:
 1326 0894 0246     		mov	r2, r0
 1327 0896 0B46     		mov	r3, r1
 1328 0898 2A48     		ldr	r0, .L186+116
 1329 089a FFF7FEFF 		bl	commands_printf
 1330              	.LVL185:
 1331              		.loc 1 230 0
 1332 089e B068     		ldr	r0, [r6, #8]	@ float
 1333 08a0 FFF7FEFF 		bl	__aeabi_f2d
 1334              	.LVL186:
 1335 08a4 0246     		mov	r2, r0
 1336 08a6 0B46     		mov	r3, r1
 1337 08a8 2748     		ldr	r0, .L186+120
 1338 08aa FFF7FEFF 		bl	commands_printf
 1339              	.LVL187:
 1340              		.loc 1 231 0
 1341 08ae F068     		ldr	r0, [r6, #12]	@ float
 1342 08b0 FFF7FEFF 		bl	__aeabi_f2d
 1343              	.LVL188:
 1344 08b4 0246     		mov	r2, r0
 1345 08b6 0B46     		mov	r3, r1
 1346 08b8 2448     		ldr	r0, .L186+124
 1347 08ba FFF7FEFF 		bl	commands_printf
 1348              	.LVL189:
 1349              		.loc 1 232 0
 1350 08be 3069     		ldr	r0, [r6, #16]	@ float
 1351 08c0 FFF7FEFF 		bl	__aeabi_f2d
 1352              	.LVL190:
 1353 08c4 0246     		mov	r2, r0
 1354 08c6 0B46     		mov	r3, r1
 1355 08c8 2148     		ldr	r0, .L186+128
 1356 08ca FFF7FEFF 		bl	commands_printf
 1357              	.LVL191:
 1358 08ce AFE7     		b	.L41
 1359              	.L187:
 1360              		.align	2
 1361              	.L186:
 1362 08d0 1C080000 		.word	.LC92
 1363 08d4 000080BF 		.word	-1082130432
 1364 08d8 F0040000 		.word	.LC63
 1365 08dc 00000000 		.word	.LANCHOR0
 1366 08e0 28080000 		.word	.LC93
 1367 08e4 00000000 		.word	.LANCHOR1
 1368 08e8 68060000 		.word	.LC75
ARM GAS  /tmp/ccTHhLt7.s 			page 25


 1369 08ec 80060000 		.word	.LC76
 1370 08f0 A0060000 		.word	.LC77
 1371 08f4 F4040000 		.word	.LC64
 1372 08f8 14050000 		.word	.LC65
 1373 08fc B8050000 		.word	.LC70
 1374 0900 AC070000 		.word	.LC87
 1375 0904 BC070000 		.word	.LC88
 1376 0908 08000000 		.word	.LC1
 1377 090c 00000000 		.word	.LC0
 1378 0910 CC070000 		.word	.LC89
 1379 0914 88050000 		.word	.LC69
 1380 0918 68050000 		.word	.LC68
 1381 091c 48050000 		.word	.LC67
 1382 0920 DC070000 		.word	.LC90
 1383 0924 2C050000 		.word	.LC66
 1384 0928 E8050000 		.word	.LC71
 1385 092c C8060000 		.word	.LC79
 1386 0930 00000000 		.word	ch
 1387 0934 00401C46 		.word	1176256512
 1388 0938 00007A44 		.word	1148846080
 1389 093c F8060000 		.word	.LC80
 1390 0940 10070000 		.word	.LC81
 1391 0944 28070000 		.word	.LC82
 1392 0948 44070000 		.word	.LC83
 1393 094c 60070000 		.word	.LC84
 1394 0950 7C070000 		.word	.LC85
 1395              	.LVL192:
 1396              	.L52:
 1397              	.LBE100:
 1398              	.LBE101:
 1399              		.loc 1 284 0
 1400 0954 3046     		mov	r0, r6
 1401 0956 A549     		ldr	r1, .L188
 1402 0958 FFF7FEFF 		bl	strcmp
 1403              	.LVL193:
 1404 095c 0028     		cmp	r0, #0
 1405 095e 3DD1     		bne	.L57
 1406              		.loc 1 285 0
 1407 0960 022D     		cmp	r5, #2
 1408 0962 7FF459AD 		bne	.L45
 1409              	.LBB102:
 1410              		.loc 1 286 0
 1411 0966 A24B     		ldr	r3, .L188+4
 1412              		.loc 1 287 0
 1413 0968 1998     		ldr	r0, [sp, #100]
 1414 096a A249     		ldr	r1, .L188+8
 1415              		.loc 1 286 0
 1416 096c 1093     		str	r3, [sp, #64]	@ float
 1417              		.loc 1 287 0
 1418 096e 10AA     		add	r2, sp, #64
 1419 0970 FFF7FEFF 		bl	sscanf
 1420              	.LVL194:
 1421              		.loc 1 289 0
 1422 0974 DDED107A 		flds	s15, [sp, #64]
 1423 0978 F5EEC07A 		fcmpezs	s15
 1424 097c F1EE10FA 		fmstat
 1425 0980 7FF7F4AD 		ble	.L88
ARM GAS  /tmp/ccTHhLt7.s 			page 26


 1426              		.loc 1 289 0 is_stmt 0 discriminator 1
 1427 0984 9FED9C7A 		flds	s14, .L188+12
 1428 0988 F4EEC77A 		fcmpes	s15, s14
 1429 098c F1EE10FA 		fmstat
 1430 0990 7FF5ECAD 		bpl	.L88
 1431              	.LBB103:
 1432              		.loc 1 290 0 is_stmt 1 discriminator 1
 1433 0994 994B     		ldr	r3, .L188+16
 1434              		.loc 1 291 0 discriminator 1
 1435 0996 9A49     		ldr	r1, .L188+20
 1436 0998 C3F8AC10 		str	r1, [r3, #172]	@ float
 1437              		.loc 1 290 0 discriminator 1
 1438 099c 0222     		movs	r2, #2
 1439              		.loc 1 292 0 discriminator 1
 1440 099e 1846     		mov	r0, r3
 1441              		.loc 1 290 0 discriminator 1
 1442 09a0 9A70     		strb	r2, [r3, #2]
 1443              		.loc 1 292 0 discriminator 1
 1444 09a2 FFF7FEFF 		bl	mc_interface_set_configuration
 1445              	.LVL195:
 1446              		.loc 1 295 0 discriminator 1
 1447 09a6 11A9     		add	r1, sp, #68
 1448 09a8 9DED100A 		flds	s0, [sp, #64]
 1449 09ac C820     		movs	r0, #200
 1450 09ae FFF7FEFF 		bl	mcpwm_foc_measure_inductance
 1451              	.LVL196:
 1452              		.loc 1 296 0 discriminator 1
 1453 09b2 10EE100A 		fmrs	r0, s0
 1454 09b6 FFF7FEFF 		bl	__aeabi_f2d
 1455              	.LVL197:
 1456 09ba 0446     		mov	r4, r0
 1457 09bc 1198     		ldr	r0, [sp, #68]	@ float
 1458 09be 0D46     		mov	r5, r1
 1459              	.LVL198:
 1460 09c0 FFF7FEFF 		bl	__aeabi_f2d
 1461              	.LVL199:
 1462 09c4 2246     		mov	r2, r4
 1463 09c6 CDE90001 		strd	r0, [sp]
 1464 09ca 2B46     		mov	r3, r5
 1465 09cc 8D48     		ldr	r0, .L188+24
 1466 09ce FFF7FEFF 		bl	commands_printf
 1467              	.LVL200:
 1468              		.loc 1 298 0 discriminator 1
 1469 09d2 8D48     		ldr	r0, .L188+28
 1470 09d4 FFF7FEFF 		bl	mc_interface_set_configuration
 1471              	.LVL201:
 1472              	.LBE103:
 1473              		.loc 1 289 0 discriminator 1
 1474 09d8 FFF79BBB 		b	.L1
 1475              	.LVL202:
 1476              	.L57:
 1477              	.LBE102:
 1478              		.loc 1 305 0
 1479 09dc 3046     		mov	r0, r6
 1480 09de 8B49     		ldr	r1, .L188+32
 1481 09e0 FFF7FEFF 		bl	strcmp
 1482              	.LVL203:
ARM GAS  /tmp/ccTHhLt7.s 			page 27


 1483 09e4 0028     		cmp	r0, #0
 1484 09e6 53D1     		bne	.L62
 1485              		.loc 1 306 0
 1486 09e8 052D     		cmp	r5, #5
 1487 09ea 7FF415AD 		bne	.L45
 1488              	.LBB104:
 1489              		.loc 1 307 0
 1490 09ee 804B     		ldr	r3, .L188+4
 1491              		.loc 1 311 0
 1492 09f0 8049     		ldr	r1, .L188+8
 1493 09f2 1998     		ldr	r0, [sp, #100]
 1494              		.loc 1 307 0
 1495 09f4 0D93     		str	r3, [sp, #52]	@ float
 1496              		.loc 1 311 0
 1497 09f6 0DAA     		add	r2, sp, #52
 1498              		.loc 1 308 0
 1499 09f8 0E93     		str	r3, [sp, #56]	@ float
 1500              		.loc 1 309 0
 1501 09fa 0F93     		str	r3, [sp, #60]	@ float
 1502              		.loc 1 310 0
 1503 09fc 1093     		str	r3, [sp, #64]	@ float
 1504              		.loc 1 311 0
 1505 09fe FFF7FEFF 		bl	sscanf
 1506              	.LVL204:
 1507              		.loc 1 312 0
 1508 0a02 0EAA     		add	r2, sp, #56
 1509 0a04 7B49     		ldr	r1, .L188+8
 1510 0a06 1A98     		ldr	r0, [sp, #104]
 1511 0a08 FFF7FEFF 		bl	sscanf
 1512              	.LVL205:
 1513              		.loc 1 313 0
 1514 0a0c 0FAA     		add	r2, sp, #60
 1515 0a0e 7949     		ldr	r1, .L188+8
 1516 0a10 1B98     		ldr	r0, [sp, #108]
 1517 0a12 FFF7FEFF 		bl	sscanf
 1518              	.LVL206:
 1519              		.loc 1 314 0
 1520 0a16 1C98     		ldr	r0, [sp, #112]
 1521 0a18 7649     		ldr	r1, .L188+8
 1522 0a1a 10AA     		add	r2, sp, #64
 1523 0a1c FFF7FEFF 		bl	sscanf
 1524              	.LVL207:
 1525              		.loc 1 316 0
 1526 0a20 9DED0D0A 		flds	s0, [sp, #52]
 1527 0a24 B5EEC00A 		fcmpezs	s0
 1528 0a28 F1EE10FA 		fmstat
 1529 0a2c 7FF79EAD 		ble	.L88
 1530              		.loc 1 316 0 is_stmt 0 discriminator 1
 1531 0a30 724B     		ldr	r3, .L188+16
 1532 0a32 D3ED017A 		flds	s15, [r3, #4]
 1533 0a36 B4EEE70A 		fcmpes	s0, s15
 1534 0a3a F1EE10FA 		fmstat
 1535 0a3e 3FF695AD 		bhi	.L88
 1536 0a42 9DED0F1A 		flds	s2, [sp, #60]
 1537 0a46 B5EEC01A 		fcmpezs	s2
 1538 0a4a F1EE10FA 		fmstat
 1539 0a4e 7FF78DAD 		ble	.L88
ARM GAS  /tmp/ccTHhLt7.s 			page 28


 1540 0a52 DDED0E0A 		flds	s1, [sp, #56]
 1541 0a56 DFED6E7A 		flds	s15, .L188+36
 1542 0a5a F4EEE70A 		fcmpes	s1, s15
 1543 0a5e F1EE10FA 		fmstat
 1544 0a62 7FF783AD 		ble	.L88
 1545 0a66 DDED101A 		flds	s3, [sp, #64]
 1546 0a6a F5EEC01A 		fcmpezs	s3
 1547 0a6e F1EE10FA 		fmstat
 1548 0a72 FFF67BAD 		blt	.L88
 1549              	.LBB105:
 1550              		.loc 1 318 0 is_stmt 1 discriminator 1
 1551 0a76 11A8     		add	r0, sp, #68
 1552 0a78 FFF7FEFF 		bl	conf_general_measure_flux_linkage
 1553              	.LVL208:
 1554              		.loc 1 319 0 discriminator 1
 1555 0a7c 1198     		ldr	r0, [sp, #68]	@ float
 1556              	.LVL209:
 1557              	.L153:
 1558              	.LBE105:
 1559              	.LBE104:
 1560              	.LBB106:
 1561              	.LBB107:
 1562              		.loc 1 382 0
 1563 0a7e FFF7FEFF 		bl	__aeabi_f2d
 1564              	.LVL210:
 1565 0a82 0246     		mov	r2, r0
 1566 0a84 0B46     		mov	r3, r1
 1567 0a86 6348     		ldr	r0, .L188+40
 1568 0a88 FFF7FEFF 		bl	commands_printf
 1569              	.LVL211:
 1570              	.LBE107:
 1571 0a8c FFF741BB 		b	.L1
 1572              	.LVL212:
 1573              	.L62:
 1574              	.LBE106:
 1575              		.loc 1 326 0
 1576 0a90 3046     		mov	r0, r6
 1577 0a92 6149     		ldr	r1, .L188+44
 1578 0a94 FFF7FEFF 		bl	strcmp
 1579              	.LVL213:
 1580 0a98 0028     		cmp	r0, #0
 1581 0a9a 00F08480 		beq	.L177
 1582              		.loc 1 337 0
 1583 0a9e 3046     		mov	r0, r6
 1584 0aa0 5E49     		ldr	r1, .L188+48
 1585 0aa2 FFF7FEFF 		bl	strcmp
 1586              	.LVL214:
 1587 0aa6 0746     		mov	r7, r0
 1588 0aa8 0028     		cmp	r0, #0
 1589 0aaa 40F0C380 		bne	.L71
 1590              		.loc 1 338 0
 1591 0aae 022D     		cmp	r5, #2
 1592 0ab0 7FF4B2AC 		bne	.L45
 1593              	.LBB112:
 1594              		.loc 1 339 0
 1595 0ab4 11AC     		add	r4, sp, #68
 1596 0ab6 4E4B     		ldr	r3, .L188+4
ARM GAS  /tmp/ccTHhLt7.s 			page 29


 1597              		.loc 1 340 0
 1598 0ab8 1998     		ldr	r0, [sp, #100]
 1599 0aba 4E49     		ldr	r1, .L188+8
 1600              		.loc 1 339 0
 1601 0abc 2360     		str	r3, [r4]	@ float
 1602              		.loc 1 340 0
 1603 0abe 2246     		mov	r2, r4
 1604 0ac0 FFF7FEFF 		bl	sscanf
 1605              	.LVL215:
 1606              		.loc 1 342 0
 1607 0ac4 D4ED007A 		flds	s15, [r4]
 1608 0ac8 F5EEC07A 		fcmpezs	s15
 1609 0acc F1EE10FA 		fmstat
 1610 0ad0 7FF74CAD 		ble	.L88
 1611              	.LBB111:
 1612              		.loc 1 343 0
 1613 0ad4 494E     		ldr	r6, .L188+16
 1614              	.LBB108:
 1615              		.loc 1 354 0
 1616 0ad6 9FED528A 		flds	s16, .L188+52
 1617              	.LBE108:
 1618              		.loc 1 343 0
 1619 0ada B570     		strb	r5, [r6, #2]
 1620              		.loc 1 344 0
 1621 0adc 3046     		mov	r0, r6
 1622 0ade FFF7FEFF 		bl	mc_interface_set_configuration
 1623              	.LVL216:
 1624              		.loc 1 345 0
 1625 0ae2 96ED31AA 		flds	s20, [r6, #196]
 1626 0ae6 F7EE087A 		fconsts	s15, #120
 1627 0aea 2AEE27AA 		fmuls	s20, s20, s15
 1628              	.LVL217:
 1629              		.loc 1 348 0
 1630 0aee FFF7FEFF 		bl	timeout_get_timeout_msec
 1631              	.LVL218:
 1632 0af2 0646     		mov	r6, r0
 1633              	.LVL219:
 1634              		.loc 1 349 0
 1635 0af4 FFF7FEFF 		bl	timeout_get_brake_current
 1636              	.LVL220:
 1637 0af8 F0EE40AA 		fcpys	s21, s0
 1638              	.LVL221:
 1639              		.loc 1 350 0
 1640 0afc FFF7FEFF 		bl	timeout_reset
 1641              	.LVL222:
 1642              		.loc 1 351 0
 1643 0b00 4EF66020 		movw	r0, #60000
 1644 0b04 9FED470A 		flds	s0, .L188+56
 1645 0b08 FFF7FEFF 		bl	timeout_configure
 1646              	.LVL223:
 1647              	.LBB109:
 1648              		.loc 1 353 0
 1649 0b0c 3D46     		mov	r5, r7
 1650              	.LVL224:
 1651              	.L75:
 1652              		.loc 1 354 0 discriminator 2
 1653 0b0e 07EE905A 		fmsr	s15, r5	@ int
ARM GAS  /tmp/ccTHhLt7.s 			page 30


 1654 0b12 B8EEE70A 		fsitos	s0, s15
 1655 0b16 D4ED007A 		flds	s15, [r4]
 1656 0b1a 80EE080A 		fdivs	s0, s0, s16
 1657              		.loc 1 353 0 discriminator 2
 1658 0b1e 0135     		adds	r5, r5, #1
 1659              	.LVL225:
 1660              		.loc 1 354 0 discriminator 2
 1661 0b20 20EE270A 		fmuls	s0, s0, s15
 1662 0b24 FFF7FEFF 		bl	mc_interface_set_duty
 1663              	.LVL226:
 1664              		.loc 1 355 0 discriminator 2
 1665 0b28 C820     		movs	r0, #200
 1666 0b2a FFF7FEFF 		bl	chThdSleep
 1667              	.LVL227:
 1668              		.loc 1 353 0 discriminator 2
 1669 0b2e 642D     		cmp	r5, #100
 1670 0b30 EDD1     		bne	.L75
 1671              		.loc 1 353 0 is_stmt 0
 1672 0b32 9FED3C8A 		flds	s16, .L188+56
 1673 0b36 4FF47A74 		mov	r4, #1000
 1674 0b3a F0EE488A 		fcpys	s17, s16
 1675 0b3e B0EE489A 		fcpys	s18, s16
 1676 0b42 F0EE489A 		fcpys	s19, s16
 1677              	.LBE109:
 1678              	.LBB110:
 1679              		.loc 1 366 0 is_stmt 1
 1680 0b46 B7EE00BA 		fconsts	s22, #112
 1681              	.L77:
 1682              	.LVL228:
 1683              		.loc 1 363 0 discriminator 2
 1684 0b4a FFF7FEFF 		bl	mcpwm_foc_get_vq
 1685              	.LVL229:
 1686 0b4e 79EE809A 		fadds	s19, s19, s0
 1687              	.LVL230:
 1688              		.loc 1 364 0 discriminator 2
 1689 0b52 FFF7FEFF 		bl	mc_interface_get_rpm
 1690              	.LVL231:
 1691 0b56 39EE009A 		fadds	s18, s18, s0
 1692              	.LVL232:
 1693              		.loc 1 365 0 discriminator 2
 1694 0b5a FFF7FEFF 		bl	mc_interface_get_tot_current_directional
 1695              	.LVL233:
 1696              		.loc 1 367 0 discriminator 2
 1697 0b5e 0A20     		movs	r0, #10
 1698              		.loc 1 365 0 discriminator 2
 1699 0b60 38EE008A 		fadds	s16, s16, s0
 1700              	.LVL234:
 1701              		.loc 1 367 0 discriminator 2
 1702 0b64 FFF7FEFF 		bl	chThdSleep
 1703              	.LVL235:
 1704              		.loc 1 362 0 discriminator 2
 1705 0b68 013C     		subs	r4, r4, #1
 1706              	.LVL236:
 1707              		.loc 1 366 0 discriminator 2
 1708 0b6a 78EE8B8A 		fadds	s17, s17, s22
 1709              	.LVL237:
 1710              		.loc 1 362 0 discriminator 2
ARM GAS  /tmp/ccTHhLt7.s 			page 31


 1711 0b6e ECD1     		bne	.L77
 1712              	.LBE110:
 1713              		.loc 1 370 0
 1714 0b70 FFF7FEFF 		bl	mc_interface_release_motor
 1715              	.LVL238:
 1716              		.loc 1 371 0
 1717 0b74 2448     		ldr	r0, .L188+28
 1718 0b76 FFF7FEFF 		bl	mc_interface_set_configuration
 1719              	.LVL239:
 1720              		.loc 1 374 0
 1721 0b7a 3046     		mov	r0, r6
 1722 0b7c B0EE6A0A 		fcpys	s0, s21
 1723 0b80 FFF7FEFF 		bl	timeout_configure
 1724              	.LVL240:
 1725              		.loc 1 376 0
 1726 0b84 C9EEA89A 		fdivs	s19, s19, s17
 1727              	.LVL241:
 1728              		.loc 1 378 0
 1729 0b88 88EE288A 		fdivs	s16, s16, s17
 1730              	.LVL242:
 1731              		.loc 1 377 0
 1732 0b8c C9EE288A 		fdivs	s17, s18, s17
 1733              	.LVL243:
 1734              		.loc 1 380 0
 1735 0b90 EAEE489A 		vfms.f32	s19, s20, s16
 1736              	.LVL244:
 1737 0b94 DFED247A 		flds	s15, .L188+60
 1738 0b98 68EEA77A 		fmuls	s15, s17, s15
 1739              		.loc 1 382 0
 1740 0b9c C9EEA77A 		fdivs	s15, s19, s15
 1741 0ba0 17EE900A 		fmrs	r0, s15
 1742 0ba4 6BE7     		b	.L153
 1743              	.LVL245:
 1744              	.L177:
 1745              	.LBE111:
 1746              	.LBE112:
 1747              	.LBB113:
 1748              		.loc 1 327 0
 1749 0ba6 154B     		ldr	r3, .L188+16
 1750 0ba8 0222     		movs	r2, #2
 1751              		.loc 1 328 0
 1752 0baa 1846     		mov	r0, r3
 1753              		.loc 1 327 0
 1754 0bac 9A70     		strb	r2, [r3, #2]
 1755              		.loc 1 328 0
 1756 0bae FFF7FEFF 		bl	mc_interface_set_configuration
 1757              	.LVL246:
 1758              		.loc 1 330 0
 1759 0bb2 0023     		movs	r3, #0
 1760              		.loc 1 332 0
 1761 0bb4 11A9     		add	r1, sp, #68
 1762 0bb6 10A8     		add	r0, sp, #64
 1763              		.loc 1 330 0
 1764 0bb8 1093     		str	r3, [sp, #64]	@ float
 1765              		.loc 1 331 0
 1766 0bba 1193     		str	r3, [sp, #68]	@ float
 1767              		.loc 1 332 0
ARM GAS  /tmp/ccTHhLt7.s 			page 32


 1768 0bbc FFF7FEFF 		bl	mcpwm_foc_measure_res_ind
 1769              	.LVL247:
 1770              		.loc 1 333 0
 1771 0bc0 1098     		ldr	r0, [sp, #64]	@ float
 1772 0bc2 FFF7FEFF 		bl	__aeabi_f2d
 1773              	.LVL248:
 1774 0bc6 0246     		mov	r2, r0
 1775 0bc8 0B46     		mov	r3, r1
 1776 0bca 1848     		ldr	r0, .L188+64
 1777 0bcc FFF7FEFF 		bl	commands_printf
 1778              	.LVL249:
 1779              		.loc 1 334 0
 1780 0bd0 1198     		ldr	r0, [sp, #68]	@ float
 1781 0bd2 FFF7FEFF 		bl	__aeabi_f2d
 1782              	.LVL250:
 1783 0bd6 0246     		mov	r2, r0
 1784 0bd8 0B46     		mov	r3, r1
 1785 0bda 1548     		ldr	r0, .L188+68
 1786 0bdc FFF7FEFF 		bl	commands_printf
 1787              	.LVL251:
 1788              		.loc 1 336 0
 1789 0be0 0948     		ldr	r0, .L188+28
 1790 0be2 FFF7FEFF 		bl	mc_interface_set_configuration
 1791              	.LVL252:
 1792              	.LBE113:
 1793 0be6 FFF794BA 		b	.L1
 1794              	.L189:
 1795 0bea 00BF     		.align	2
 1796              	.L188:
 1797 0bec 40080000 		.word	.LC94
 1798 0bf0 000080BF 		.word	-1082130432
 1799 0bf4 F0040000 		.word	.LC63
 1800 0bf8 6666663F 		.word	1063675494
 1801 0bfc 00000000 		.word	.LANCHOR0
 1802 0c00 00803B45 		.word	1161527296
 1803 0c04 4C080000 		.word	.LC95
 1804 0c08 00000000 		.word	.LANCHOR1
 1805 0c0c 74080000 		.word	.LC96
 1806 0c10 0AD7A33C 		.word	1017370378
 1807 0c14 84080000 		.word	.LC97
 1808 0c18 98080000 		.word	.LC98
 1809 0c1c E0080000 		.word	.LC101
 1810 0c20 0000C842 		.word	1120403456
 1811 0c24 00000000 		.word	0
 1812 0c28 5077D63D 		.word	1037465424
 1813 0c2c A8080000 		.word	.LC99
 1814 0c30 C0080000 		.word	.LC100
 1815              	.L71:
 1816              		.loc 1 389 0
 1817 0c34 3046     		mov	r0, r6
 1818 0c36 6D49     		ldr	r1, .L190
 1819 0c38 FFF7FEFF 		bl	strcmp
 1820              	.LVL253:
 1821 0c3c 0028     		cmp	r0, #0
 1822 0c3e 00F0C280 		beq	.L178
 1823              		.loc 1 392 0
 1824 0c42 3046     		mov	r0, r6
ARM GAS  /tmp/ccTHhLt7.s 			page 33


 1825 0c44 6A49     		ldr	r1, .L190+4
 1826 0c46 FFF7FEFF 		bl	strcmp
 1827              	.LVL254:
 1828 0c4a 0028     		cmp	r0, #0
 1829 0c4c 00F08580 		beq	.L179
 1830              		.loc 1 403 0
 1831 0c50 3046     		mov	r0, r6
 1832 0c52 6849     		ldr	r1, .L190+8
 1833 0c54 FFF7FEFF 		bl	strcmp
 1834              	.LVL255:
 1835 0c58 0028     		cmp	r0, #0
 1836 0c5a 00F0BB80 		beq	.L83
 1837              		.loc 1 427 0
 1838 0c5e 3046     		mov	r0, r6
 1839 0c60 6549     		ldr	r1, .L190+12
 1840 0c62 FFF7FEFF 		bl	strcmp
 1841              	.LVL256:
 1842 0c66 0028     		cmp	r0, #0
 1843 0c68 00F0B480 		beq	.L83
 1844              		.loc 1 454 0
 1845 0c6c 3046     		mov	r0, r6
 1846 0c6e 6349     		ldr	r1, .L190+16
 1847 0c70 FFF7FEFF 		bl	strcmp
 1848              	.LVL257:
 1849 0c74 0028     		cmp	r0, #0
 1850 0c76 00F0AD80 		beq	.L83
 1851              		.loc 1 479 0
 1852 0c7a 3046     		mov	r0, r6
 1853 0c7c 6049     		ldr	r1, .L190+20
 1854 0c7e FFF7FEFF 		bl	strcmp
 1855              	.LVL258:
 1856 0c82 0028     		cmp	r0, #0
 1857 0c84 00F0A680 		beq	.L83
 1858              		.loc 1 485 0
 1859 0c88 3046     		mov	r0, r6
 1860 0c8a 5E49     		ldr	r1, .L190+24
 1861 0c8c FFF7FEFF 		bl	strcmp
 1862              	.LVL259:
 1863 0c90 0028     		cmp	r0, #0
 1864 0c92 00F09F80 		beq	.L83
 1865              		.loc 1 491 0
 1866 0c96 3046     		mov	r0, r6
 1867 0c98 5B49     		ldr	r1, .L190+28
 1868 0c9a FFF7FEFF 		bl	strcmp
 1869              	.LVL260:
 1870 0c9e 0028     		cmp	r0, #0
 1871 0ca0 56D0     		beq	.L85
 1872              		.loc 1 515 0
 1873 0ca2 3046     		mov	r0, r6
 1874 0ca4 5949     		ldr	r1, .L190+32
 1875 0ca6 FFF7FEFF 		bl	strcmp
 1876              	.LVL261:
 1877 0caa 0028     		cmp	r0, #0
 1878 0cac 50D0     		beq	.L85
 1879              		.loc 1 542 0
 1880 0cae 3046     		mov	r0, r6
 1881 0cb0 5749     		ldr	r1, .L190+36
ARM GAS  /tmp/ccTHhLt7.s 			page 34


 1882 0cb2 FFF7FEFF 		bl	strcmp
 1883              	.LVL262:
 1884 0cb6 38BB     		cbnz	r0, .L86
 1885              		.loc 1 543 0
 1886 0cb8 032D     		cmp	r5, #3
 1887 0cba 04D0     		beq	.L180
 1888              		.loc 1 555 0
 1889 0cbc 5548     		ldr	r0, .L190+40
 1890 0cbe FFF7FEFF 		bl	commands_printf
 1891              	.LVL263:
 1892 0cc2 FFF726BA 		b	.L1
 1893              	.L180:
 1894              	.LBB114:
 1895              		.loc 1 544 0
 1896 0cc6 544B     		ldr	r3, .L190+44
 1897              		.loc 1 546 0
 1898 0cc8 5449     		ldr	r1, .L190+48
 1899 0cca 1998     		ldr	r0, [sp, #100]
 1900              		.loc 1 544 0
 1901 0ccc 1093     		str	r3, [sp, #64]	@ float
 1902              		.loc 1 546 0
 1903 0cce 10AA     		add	r2, sp, #64
 1904              		.loc 1 545 0
 1905 0cd0 1193     		str	r3, [sp, #68]	@ float
 1906              		.loc 1 546 0
 1907 0cd2 FFF7FEFF 		bl	sscanf
 1908              	.LVL264:
 1909              		.loc 1 547 0
 1910 0cd6 1A98     		ldr	r0, [sp, #104]
 1911 0cd8 5049     		ldr	r1, .L190+48
 1912 0cda 11AA     		add	r2, sp, #68
 1913 0cdc FFF7FEFF 		bl	sscanf
 1914              	.LVL265:
 1915              		.loc 1 549 0
 1916 0ce0 9DED100A 		flds	s0, [sp, #64]
 1917 0ce4 B5EEC00A 		fcmpezs	s0
 1918 0ce8 F1EE10FA 		fmstat
 1919 0cec FFF63EAC 		blt	.L88
 1920              		.loc 1 549 0 is_stmt 0 discriminator 1
 1921 0cf0 DDED110A 		flds	s1, [sp, #68]
 1922 0cf4 F5EEC00A 		fcmpezs	s1
 1923 0cf8 F1EE10FA 		fmstat
 1924 0cfc FFF636AC 		blt	.L88
 1925              		.loc 1 550 0 is_stmt 1
 1926 0d00 FFF7FEFF 		bl	mcpwm_foc_set_openloop
 1927              	.LVL266:
 1928 0d04 FFF705BA 		b	.L1
 1929              	.L86:
 1930              	.LBE114:
 1931              		.loc 1 560 0
 1932 0d08 3046     		mov	r0, r6
 1933 0d0a 4549     		ldr	r1, .L190+52
 1934 0d0c FFF7FEFF 		bl	strcmp
 1935              	.LVL267:
 1936 0d10 0746     		mov	r7, r0
 1937 0d12 0028     		cmp	r0, #0
 1938 0d14 00F0AA80 		beq	.L92
ARM GAS  /tmp/ccTHhLt7.s 			page 35


 1939              	.LVL268:
 1940              	.LBB115:
 1941              	.LBB116:
 1942              		.loc 1 683 0 discriminator 1
 1943 0d18 424B     		ldr	r3, .L190+56
 1944 0d1a D3F80080 		ldr	r8, [r3]
 1945 0d1e B8F1000F 		cmp	r8, #0
 1946 0d22 0FDD     		ble	.L94
 1947 0d24 DFF840A1 		ldr	r10, .L190+124
 1948              		.loc 1 683 0 is_stmt 0
 1949 0d28 0024     		movs	r4, #0
 1950              	.LVL269:
 1951              	.L103:
 1952 0d2a 2701     		lsls	r7, r4, #4
 1953              		.loc 1 684 0 is_stmt 1
 1954 0d2c 3046     		mov	r0, r6
 1955 0d2e 5AF80710 		ldr	r1, [r10, r7]
 1956 0d32 DFF83491 		ldr	r9, .L190+124
 1957              		.loc 1 683 0
 1958 0d36 0134     		adds	r4, r4, #1
 1959              	.LVL270:
 1960              		.loc 1 684 0
 1961 0d38 FFF7FEFF 		bl	strcmp
 1962              	.LVL271:
 1963 0d3c 0028     		cmp	r0, #0
 1964 0d3e 4ED0     		beq	.L181
 1965              		.loc 1 683 0
 1966 0d40 4445     		cmp	r4, r8
 1967 0d42 F2D1     		bne	.L103
 1968              	.LVL272:
 1969              	.L94:
 1970              	.LBE116:
 1971              		.loc 1 692 0
 1972 0d44 3146     		mov	r1, r6
 1973 0d46 3848     		ldr	r0, .L190+60
 1974 0d48 FFF7FEFF 		bl	commands_printf
 1975              	.LVL273:
 1976 0d4c FFF7E1B9 		b	.L1
 1977              	.LVL274:
 1978              	.L85:
 1979              	.LBE115:
 1980              		.loc 1 513 0
 1981 0d50 3648     		ldr	r0, .L190+64
 1982 0d52 FFF7FEFF 		bl	commands_printf
 1983              	.LVL275:
 1984 0d56 FFF7DCB9 		b	.L1
 1985              	.L179:
 1986              		.loc 1 393 0
 1987 0d5a 2122     		movs	r2, #33
 1988 0d5c 3448     		ldr	r0, .L190+68
 1989 0d5e 0321     		movs	r1, #3
 1990 0d60 FFF7FEFF 		bl	commands_printf
 1991              	.LVL276:
 1992              		.loc 1 395 0
 1993 0d64 3348     		ldr	r0, .L190+72
 1994 0d66 3449     		ldr	r1, .L190+76
 1995 0d68 FFF7FEFF 		bl	commands_printf
ARM GAS  /tmp/ccTHhLt7.s 			page 36


 1996              	.LVL277:
 1997              		.loc 1 398 0
 1998 0d6c 3348     		ldr	r0, .L190+80
 1999 0d6e 3449     		ldr	r1, .L190+84
 2000 0d70 344A     		ldr	r2, .L190+88
 2001 0d72 354B     		ldr	r3, .L190+92
 2002              		.loc 1 397 0
 2003 0d74 0478     		ldrb	r4, [r0]	@ zero_extendqisi2
 2004 0d76 0978     		ldrb	r1, [r1]	@ zero_extendqisi2
 2005 0d78 1278     		ldrb	r2, [r2]	@ zero_extendqisi2
 2006 0d7a 1B78     		ldrb	r3, [r3]	@ zero_extendqisi2
 2007 0d7c 0094     		str	r4, [sp]
 2008 0d7e 4478     		ldrb	r4, [r0, #1]	@ zero_extendqisi2
 2009 0d80 0194     		str	r4, [sp, #4]
 2010 0d82 8478     		ldrb	r4, [r0, #2]	@ zero_extendqisi2
 2011 0d84 0294     		str	r4, [sp, #8]
 2012 0d86 C478     		ldrb	r4, [r0, #3]	@ zero_extendqisi2
 2013 0d88 0394     		str	r4, [sp, #12]
 2014 0d8a 0479     		ldrb	r4, [r0, #4]	@ zero_extendqisi2
 2015 0d8c 0494     		str	r4, [sp, #16]
 2016 0d8e 4479     		ldrb	r4, [r0, #5]	@ zero_extendqisi2
 2017 0d90 0594     		str	r4, [sp, #20]
 2018 0d92 8479     		ldrb	r4, [r0, #6]	@ zero_extendqisi2
 2019 0d94 0694     		str	r4, [sp, #24]
 2020 0d96 C479     		ldrb	r4, [r0, #7]	@ zero_extendqisi2
 2021 0d98 0794     		str	r4, [sp, #28]
 2022              		.loc 1 400 0
 2023 0d9a 0830     		adds	r0, r0, #8
 2024              		.loc 1 397 0
 2025 0d9c 0078     		ldrb	r0, [r0]	@ zero_extendqisi2
 2026 0d9e 0890     		str	r0, [sp, #32]
 2027 0da0 2A48     		ldr	r0, .L190+96
 2028 0da2 FFF7FEFF 		bl	commands_printf
 2029              	.LVL278:
 2030              		.loc 1 401 0
 2031 0da6 2A4B     		ldr	r3, .L190+100
 2032 0da8 2A4A     		ldr	r2, .L190+104
 2033 0daa 1978     		ldrb	r1, [r3]	@ zero_extendqisi2
 2034 0dac 2A4B     		ldr	r3, .L190+108
 2035 0dae 2B48     		ldr	r0, .L190+112
 2036 0db0 0029     		cmp	r1, #0
 2037 0db2 0CBF     		ite	eq
 2038 0db4 1146     		moveq	r1, r2
 2039 0db6 1946     		movne	r1, r3
 2040 0db8 FFF7FEFF 		bl	commands_printf
 2041              	.LVL279:
 2042              		.loc 1 402 0
 2043 0dbc 2848     		ldr	r0, .L190+116
 2044 0dbe FFF7FEFF 		bl	commands_printf
 2045              	.LVL280:
 2046 0dc2 FFF7A6B9 		b	.L1
 2047              	.L178:
 2048              		.loc 1 390 0
 2049 0dc6 FFF7FEFF 		bl	mcpwm_foc_print_state
 2050              	.LVL281:
 2051              		.loc 1 391 0
 2052 0dca 2548     		ldr	r0, .L190+116
ARM GAS  /tmp/ccTHhLt7.s 			page 37


 2053 0dcc FFF7FEFF 		bl	commands_printf
 2054              	.LVL282:
 2055 0dd0 FFF79FB9 		b	.L1
 2056              	.L83:
 2057              		.loc 1 425 0
 2058 0dd4 2348     		ldr	r0, .L190+120
 2059 0dd6 FFF7FEFF 		bl	commands_printf
 2060              	.LVL283:
 2061 0dda FFF79AB9 		b	.L1
 2062              	.LVL284:
 2063              	.L181:
 2064              	.LBB118:
 2065              	.LBB117:
 2066              		.loc 1 685 0
 2067 0dde 4F44     		add	r7, r7, r9
 2068 0de0 2846     		mov	r0, r5
 2069 0de2 FB68     		ldr	r3, [r7, #12]
 2070 0de4 18A9     		add	r1, sp, #96
 2071 0de6 9847     		blx	r3
 2072              	.LVL285:
 2073 0de8 FFF793B9 		b	.L1
 2074              	.L191:
 2075              		.align	2
 2076              	.L190:
 2077 0dec F4080000 		.word	.LC102
 2078 0df0 00090000 		.word	.LC103
 2079 0df4 8C090000 		.word	.LC109
 2080 0df8 C8090000 		.word	.LC111
 2081 0dfc DC090000 		.word	.LC112
 2082 0e00 F0090000 		.word	.LC113
 2083 0e04 080A0000 		.word	.LC114
 2084 0e08 200A0000 		.word	.LC115
 2085 0e0c 5C0A0000 		.word	.LC117
 2086 0e10 700A0000 		.word	.LC118
 2087 0e14 800A0000 		.word	.LC119
 2088 0e18 000080BF 		.word	-1082130432
 2089 0e1c F0040000 		.word	.LC63
 2090 0e20 A80A0000 		.word	.LC120
 2091 0e24 00000000 		.word	.LANCHOR5
 2092 0e28 30110000 		.word	.LC161
 2093 0e2c 340A0000 		.word	.LC116
 2094 0e30 0C090000 		.word	.LC104
 2095 0e34 1C090000 		.word	.LC105
 2096 0e38 2C090000 		.word	.LC106
 2097 0e3c 137AFF1F 		.word	536836627
 2098 0e40 107AFF1F 		.word	536836624
 2099 0e44 117AFF1F 		.word	536836625
 2100 0e48 127AFF1F 		.word	536836626
 2101 0e4c 30090000 		.word	.LC107
 2102 0e50 00000000 		.word	conf_general_permanent_nrf_found
 2103 0e54 14000000 		.word	.LC3
 2104 0e58 10000000 		.word	.LC2
 2105 0e5c 74090000 		.word	.LC108
 2106 0e60 18000000 		.word	.LC4
 2107 0e64 A0090000 		.word	.LC110
 2108 0e68 00000000 		.word	.LANCHOR6
 2109              	.LVL286:
ARM GAS  /tmp/ccTHhLt7.s 			page 38


 2110              	.L92:
 2111              	.LBE117:
 2112              	.LBE118:
 2113              		.loc 1 561 0
 2114 0e6c 6648     		ldr	r0, .L192
 2115              	.LBB119:
 2116              		.loc 1 666 0
 2117 0e6e 674E     		ldr	r6, .L192+4
 2118              	.LBE119:
 2119              		.loc 1 561 0
 2120 0e70 FFF7FEFF 		bl	commands_printf
 2121              	.LVL287:
 2122              		.loc 1 562 0
 2123 0e74 6648     		ldr	r0, .L192+8
 2124 0e76 FFF7FEFF 		bl	commands_printf
 2125              	.LVL288:
 2126              		.loc 1 563 0
 2127 0e7a 6648     		ldr	r0, .L192+12
 2128 0e7c FFF7FEFF 		bl	commands_printf
 2129              	.LVL289:
 2130              		.loc 1 565 0
 2131 0e80 6548     		ldr	r0, .L192+16
 2132 0e82 FFF7FEFF 		bl	commands_printf
 2133              	.LVL290:
 2134              		.loc 1 566 0
 2135 0e86 6548     		ldr	r0, .L192+20
 2136 0e88 FFF7FEFF 		bl	commands_printf
 2137              	.LVL291:
 2138              		.loc 1 568 0
 2139 0e8c 6448     		ldr	r0, .L192+24
 2140 0e8e FFF7FEFF 		bl	commands_printf
 2141              	.LVL292:
 2142              		.loc 1 569 0
 2143 0e92 6448     		ldr	r0, .L192+28
 2144 0e94 FFF7FEFF 		bl	commands_printf
 2145              	.LVL293:
 2146              		.loc 1 571 0
 2147 0e98 6348     		ldr	r0, .L192+32
 2148 0e9a FFF7FEFF 		bl	commands_printf
 2149              	.LVL294:
 2150              		.loc 1 572 0
 2151 0e9e 6348     		ldr	r0, .L192+36
 2152 0ea0 FFF7FEFF 		bl	commands_printf
 2153              	.LVL295:
 2154              		.loc 1 574 0
 2155 0ea4 6248     		ldr	r0, .L192+40
 2156 0ea6 FFF7FEFF 		bl	commands_printf
 2157              	.LVL296:
 2158              		.loc 1 575 0
 2159 0eaa 6248     		ldr	r0, .L192+44
 2160 0eac FFF7FEFF 		bl	commands_printf
 2161              	.LVL297:
 2162              		.loc 1 577 0
 2163 0eb0 6148     		ldr	r0, .L192+48
 2164 0eb2 FFF7FEFF 		bl	commands_printf
 2165              	.LVL298:
 2166              		.loc 1 578 0
ARM GAS  /tmp/ccTHhLt7.s 			page 39


 2167 0eb6 6148     		ldr	r0, .L192+52
 2168 0eb8 FFF7FEFF 		bl	commands_printf
 2169              	.LVL299:
 2170              		.loc 1 580 0
 2171 0ebc 6048     		ldr	r0, .L192+56
 2172 0ebe FFF7FEFF 		bl	commands_printf
 2173              	.LVL300:
 2174              		.loc 1 581 0
 2175 0ec2 6048     		ldr	r0, .L192+60
 2176 0ec4 FFF7FEFF 		bl	commands_printf
 2177              	.LVL301:
 2178              		.loc 1 583 0
 2179 0ec8 5F48     		ldr	r0, .L192+64
 2180 0eca FFF7FEFF 		bl	commands_printf
 2181              	.LVL302:
 2182              		.loc 1 584 0
 2183 0ece 5F48     		ldr	r0, .L192+68
 2184 0ed0 FFF7FEFF 		bl	commands_printf
 2185              	.LVL303:
 2186              		.loc 1 586 0
 2187 0ed4 5E48     		ldr	r0, .L192+72
 2188 0ed6 FFF7FEFF 		bl	commands_printf
 2189              	.LVL304:
 2190              		.loc 1 587 0
 2191 0eda 5E48     		ldr	r0, .L192+76
 2192 0edc FFF7FEFF 		bl	commands_printf
 2193              	.LVL305:
 2194              		.loc 1 589 0
 2195 0ee0 5D48     		ldr	r0, .L192+80
 2196 0ee2 FFF7FEFF 		bl	commands_printf
 2197              	.LVL306:
 2198              		.loc 1 590 0
 2199 0ee6 5D48     		ldr	r0, .L192+84
 2200 0ee8 FFF7FEFF 		bl	commands_printf
 2201              	.LVL307:
 2202              		.loc 1 592 0
 2203 0eec 5C48     		ldr	r0, .L192+88
 2204 0eee FFF7FEFF 		bl	commands_printf
 2205              	.LVL308:
 2206              		.loc 1 593 0
 2207 0ef2 5C48     		ldr	r0, .L192+92
 2208 0ef4 FFF7FEFF 		bl	commands_printf
 2209              	.LVL309:
 2210              		.loc 1 595 0
 2211 0ef8 5B48     		ldr	r0, .L192+96
 2212 0efa FFF7FEFF 		bl	commands_printf
 2213              	.LVL310:
 2214              		.loc 1 596 0
 2215 0efe 5B48     		ldr	r0, .L192+100
 2216 0f00 FFF7FEFF 		bl	commands_printf
 2217              	.LVL311:
 2218              		.loc 1 598 0
 2219 0f04 5A48     		ldr	r0, .L192+104
 2220 0f06 FFF7FEFF 		bl	commands_printf
 2221              	.LVL312:
 2222              		.loc 1 599 0
 2223 0f0a 5A48     		ldr	r0, .L192+108
ARM GAS  /tmp/ccTHhLt7.s 			page 40


 2224 0f0c FFF7FEFF 		bl	commands_printf
 2225              	.LVL313:
 2226              		.loc 1 601 0
 2227 0f10 5948     		ldr	r0, .L192+112
 2228 0f12 FFF7FEFF 		bl	commands_printf
 2229              	.LVL314:
 2230              		.loc 1 602 0
 2231 0f16 5948     		ldr	r0, .L192+116
 2232 0f18 FFF7FEFF 		bl	commands_printf
 2233              	.LVL315:
 2234              		.loc 1 603 0
 2235 0f1c 5848     		ldr	r0, .L192+120
 2236 0f1e FFF7FEFF 		bl	commands_printf
 2237              	.LVL316:
 2238              		.loc 1 604 0
 2239 0f22 5848     		ldr	r0, .L192+124
 2240 0f24 FFF7FEFF 		bl	commands_printf
 2241              	.LVL317:
 2242              		.loc 1 606 0
 2243 0f28 5748     		ldr	r0, .L192+128
 2244 0f2a FFF7FEFF 		bl	commands_printf
 2245              	.LVL318:
 2246              		.loc 1 607 0
 2247 0f2e 5748     		ldr	r0, .L192+132
 2248 0f30 FFF7FEFF 		bl	commands_printf
 2249              	.LVL319:
 2250              		.loc 1 609 0
 2251 0f34 5648     		ldr	r0, .L192+136
 2252 0f36 FFF7FEFF 		bl	commands_printf
 2253              	.LVL320:
 2254              		.loc 1 610 0
 2255 0f3a 5648     		ldr	r0, .L192+140
 2256 0f3c FFF7FEFF 		bl	commands_printf
 2257              	.LVL321:
 2258              		.loc 1 612 0
 2259 0f40 5548     		ldr	r0, .L192+144
 2260 0f42 FFF7FEFF 		bl	commands_printf
 2261              	.LVL322:
 2262              		.loc 1 613 0
 2263 0f46 5548     		ldr	r0, .L192+148
 2264 0f48 FFF7FEFF 		bl	commands_printf
 2265              	.LVL323:
 2266              		.loc 1 615 0
 2267 0f4c 5448     		ldr	r0, .L192+152
 2268 0f4e FFF7FEFF 		bl	commands_printf
 2269              	.LVL324:
 2270              		.loc 1 616 0
 2271 0f52 5448     		ldr	r0, .L192+156
 2272 0f54 FFF7FEFF 		bl	commands_printf
 2273              	.LVL325:
 2274              		.loc 1 618 0
 2275 0f58 5348     		ldr	r0, .L192+160
 2276 0f5a FFF7FEFF 		bl	commands_printf
 2277              	.LVL326:
 2278              		.loc 1 619 0
 2279 0f5e 5348     		ldr	r0, .L192+164
 2280 0f60 FFF7FEFF 		bl	commands_printf
ARM GAS  /tmp/ccTHhLt7.s 			page 41


 2281              	.LVL327:
 2282              		.loc 1 621 0
 2283 0f64 5248     		ldr	r0, .L192+168
 2284 0f66 FFF7FEFF 		bl	commands_printf
 2285              	.LVL328:
 2286              		.loc 1 622 0
 2287 0f6a 5248     		ldr	r0, .L192+172
 2288 0f6c FFF7FEFF 		bl	commands_printf
 2289              	.LVL329:
 2290              		.loc 1 623 0
 2291 0f70 5148     		ldr	r0, .L192+176
 2292 0f72 FFF7FEFF 		bl	commands_printf
 2293              	.LVL330:
 2294              		.loc 1 624 0
 2295 0f76 5148     		ldr	r0, .L192+180
 2296 0f78 FFF7FEFF 		bl	commands_printf
 2297              	.LVL331:
 2298              		.loc 1 626 0
 2299 0f7c 5048     		ldr	r0, .L192+184
 2300 0f7e FFF7FEFF 		bl	commands_printf
 2301              	.LVL332:
 2302              		.loc 1 627 0
 2303 0f82 5048     		ldr	r0, .L192+188
 2304 0f84 FFF7FEFF 		bl	commands_printf
 2305              	.LVL333:
 2306              		.loc 1 629 0
 2307 0f88 4F48     		ldr	r0, .L192+192
 2308 0f8a FFF7FEFF 		bl	commands_printf
 2309              	.LVL334:
 2310              		.loc 1 630 0
 2311 0f8e 4F48     		ldr	r0, .L192+196
 2312 0f90 FFF7FEFF 		bl	commands_printf
 2313              	.LVL335:
 2314              		.loc 1 632 0
 2315 0f94 4E48     		ldr	r0, .L192+200
 2316 0f96 FFF7FEFF 		bl	commands_printf
 2317              	.LVL336:
 2318              		.loc 1 633 0
 2319 0f9a 4E48     		ldr	r0, .L192+204
 2320 0f9c FFF7FEFF 		bl	commands_printf
 2321              	.LVL337:
 2322              		.loc 1 635 0
 2323 0fa0 4D48     		ldr	r0, .L192+208
 2324 0fa2 FFF7FEFF 		bl	commands_printf
 2325              	.LVL338:
 2326              		.loc 1 636 0
 2327 0fa6 4D48     		ldr	r0, .L192+212
 2328 0fa8 FFF7FEFF 		bl	commands_printf
 2329              	.LVL339:
 2330              		.loc 1 663 0
 2331 0fac 4C48     		ldr	r0, .L192+216
 2332 0fae FFF7FEFF 		bl	commands_printf
 2333              	.LVL340:
 2334              		.loc 1 664 0
 2335 0fb2 4C48     		ldr	r0, .L192+220
 2336 0fb4 FFF7FEFF 		bl	commands_printf
 2337              	.LVL341:
ARM GAS  /tmp/ccTHhLt7.s 			page 42


 2338              	.LBB120:
 2339              		.loc 1 666 0
 2340 0fb8 3368     		ldr	r3, [r6]
 2341 0fba 002B     		cmp	r3, #0
 2342 0fbc 16DD     		ble	.L100
 2343 0fbe 4A4C     		ldr	r4, .L192+224
 2344 0fc0 3D46     		mov	r5, r7
 2345              	.LVL342:
 2346              	.L101:
 2347              		.loc 1 667 0
 2348 0fc2 2368     		ldr	r3, [r4]
 2349              		.loc 1 668 0
 2350 0fc4 4948     		ldr	r0, .L192+228
 2351 0fc6 1A46     		mov	r2, r3
 2352              		.loc 1 667 0
 2353 0fc8 CBB1     		cbz	r3, .L96
 2354              		.loc 1 668 0
 2355 0fca 54F8081C 		ldr	r1, [r4, #-8]
 2356 0fce FFF7FEFF 		bl	commands_printf
 2357              	.LVL343:
 2358              	.L97:
 2359              		.loc 1 673 0
 2360 0fd2 54F8043C 		ldr	r3, [r4, #-4]
 2361              		.loc 1 674 0
 2362 0fd6 4648     		ldr	r0, .L192+232
 2363 0fd8 1946     		mov	r1, r3
 2364              		.loc 1 673 0
 2365 0fda 63B1     		cbz	r3, .L98
 2366              		.loc 1 674 0
 2367 0fdc FFF7FEFF 		bl	commands_printf
 2368              	.LVL344:
 2369              	.L99:
 2370              		.loc 1 666 0
 2371 0fe0 3368     		ldr	r3, [r6]
 2372 0fe2 0135     		adds	r5, r5, #1
 2373              	.LVL345:
 2374 0fe4 AB42     		cmp	r3, r5
 2375 0fe6 04F11004 		add	r4, r4, #16
 2376 0fea EADC     		bgt	.L101
 2377              	.LVL346:
 2378              	.L100:
 2379              	.LBE120:
 2380              		.loc 1 680 0
 2381 0fec 4148     		ldr	r0, .L192+236
 2382 0fee FFF7FEFF 		bl	commands_printf
 2383              	.LVL347:
 2384 0ff2 FFF78EB8 		b	.L1
 2385              	.LVL348:
 2386              	.L98:
 2387              	.LBB121:
 2388              		.loc 1 676 0
 2389 0ff6 4048     		ldr	r0, .L192+240
 2390 0ff8 FFF7FEFF 		bl	commands_printf
 2391              	.LVL349:
 2392 0ffc F0E7     		b	.L99
 2393              	.L96:
 2394              		.loc 1 670 0
ARM GAS  /tmp/ccTHhLt7.s 			page 43


 2395 0ffe 54F8080C 		ldr	r0, [r4, #-8]
 2396 1002 FFF7FEFF 		bl	commands_printf
 2397              	.LVL350:
 2398 1006 E4E7     		b	.L97
 2399              	.L193:
 2400              		.align	2
 2401              	.L192:
 2402 1008 B00A0000 		.word	.LC121
 2403 100c 00000000 		.word	.LANCHOR5
 2404 1010 A80A0000 		.word	.LC120
 2405 1014 C40A0000 		.word	.LC122
 2406 1018 34000000 		.word	.LC6
 2407 101c D80A0000 		.word	.LC123
 2408 1020 44000000 		.word	.LC8
 2409 1024 040B0000 		.word	.LC124
 2410 1028 5C000000 		.word	.LC10
 2411 102c 180B0000 		.word	.LC125
 2412 1030 E0000000 		.word	.LC14
 2413 1034 480B0000 		.word	.LC126
 2414 1038 04010000 		.word	.LC16
 2415 103c 6C0B0000 		.word	.LC127
 2416 1040 5C010000 		.word	.LC20
 2417 1044 800B0000 		.word	.LC128
 2418 1048 0C020000 		.word	.LC25
 2419 104c 940B0000 		.word	.LC129
 2420 1050 18020000 		.word	.LC27
 2421 1054 B40B0000 		.word	.LC130
 2422 1058 C8030000 		.word	.LC44
 2423 105c F80B0000 		.word	.LC131
 2424 1060 E8030000 		.word	.LC46
 2425 1064 1C0C0000 		.word	.LC132
 2426 1068 08040000 		.word	.LC48
 2427 106c 380C0000 		.word	.LC133
 2428 1070 C0040000 		.word	.LC60
 2429 1074 580C0000 		.word	.LC134
 2430 1078 740C0000 		.word	.LC135
 2431 107c A00C0000 		.word	.LC136
 2432 1080 E40C0000 		.word	.LC137
 2433 1084 200D0000 		.word	.LC138
 2434 1088 60060000 		.word	.LC74
 2435 108c 480D0000 		.word	.LC139
 2436 1090 BC060000 		.word	.LC78
 2437 1094 680D0000 		.word	.LC140
 2438 1098 A40D0000 		.word	.LC141
 2439 109c C40D0000 		.word	.LC142
 2440 10a0 080E0000 		.word	.LC143
 2441 10a4 200E0000 		.word	.LC144
 2442 10a8 600E0000 		.word	.LC145
 2443 10ac 740E0000 		.word	.LC146
 2444 10b0 C80E0000 		.word	.LC147
 2445 10b4 000F0000 		.word	.LC148
 2446 10b8 400F0000 		.word	.LC149
 2447 10bc 6C0F0000 		.word	.LC150
 2448 10c0 98080000 		.word	.LC98
 2449 10c4 A40F0000 		.word	.LC151
 2450 10c8 FC0F0000 		.word	.LC152
 2451 10cc 18100000 		.word	.LC153
ARM GAS  /tmp/ccTHhLt7.s 			page 44


 2452 10d0 F4080000 		.word	.LC102
 2453 10d4 50100000 		.word	.LC154
 2454 10d8 00090000 		.word	.LC103
 2455 10dc 74100000 		.word	.LC155
 2456 10e0 A0100000 		.word	.LC156
 2457 10e4 C0100000 		.word	.LC157
 2458 10e8 08000000 		.word	.LANCHOR6+8
 2459 10ec F0100000 		.word	.LC158
 2460 10f0 F8100000 		.word	.LC159
 2461 10f4 18000000 		.word	.LC4
 2462 10f8 00110000 		.word	.LC160
 2463              	.LBE121:
 2464              		.cfi_endproc
 2465              	.LFE256:
 2466              		.size	terminal_process_string, .-terminal_process_string
 2467 10fc AFF30080 		.section	.text.terminal_add_fault_data,"ax",%progbits
 2468              		.align	2
 2469              		.p2align 4,,15
 2470              		.global	terminal_add_fault_data
 2471              		.thumb
 2472              		.thumb_func
 2473              		.type	terminal_add_fault_data, %function
 2474              	terminal_add_fault_data:
 2475              	.LFB257:
 2476              		.loc 1 698 0
 2477              		.cfi_startproc
 2478              		@ args = 0, pretend = 0, frame = 0
 2479              		@ frame_needed = 0, uses_anonymous_args = 0
 2480              		@ link register save eliminated.
 2481              	.LVL351:
 2482 0000 F0B4     		push	{r4, r5, r6, r7}
 2483              		.cfi_def_cfa_offset 16
 2484              		.cfi_offset 4, -16
 2485              		.cfi_offset 5, -12
 2486              		.cfi_offset 6, -8
 2487              		.cfi_offset 7, -4
 2488              		.loc 1 699 0
 2489 0002 0D4E     		ldr	r6, .L196
 2490 0004 0D4C     		ldr	r4, .L196+4
 2491 0006 3768     		ldr	r7, [r6]
 2492 0008 0546     		mov	r5, r0
 2493 000a 0FCD     		ldmia	r5!, {r0, r1, r2, r3}
 2494              	.LVL352:
 2495 000c C7EBC70C 		rsb	ip, r7, r7, lsl #3
 2496 0010 04EBCC04 		add	r4, r4, ip, lsl #3
 2497 0014 0137     		adds	r7, r7, #1
 2498 0016 3760     		str	r7, [r6]
 2499 0018 0FC4     		stmia	r4!, {r0, r1, r2, r3}
 2500 001a 0FCD     		ldmia	r5!, {r0, r1, r2, r3}
 2501              	.LVL353:
 2502 001c 0FC4     		stmia	r4!, {r0, r1, r2, r3}
 2503 001e 0FCD     		ldmia	r5!, {r0, r1, r2, r3}
 2504              	.LVL354:
 2505 0020 0FC4     		stmia	r4!, {r0, r1, r2, r3}
 2506 0022 95E80300 		ldmia	r5, {r0, r1}
 2507 0026 84E80300 		stmia	r4, {r0, r1}
 2508              		.loc 1 700 0
ARM GAS  /tmp/ccTHhLt7.s 			page 45


 2509 002a 3368     		ldr	r3, [r6]
 2510 002c 182B     		cmp	r3, #24
 2511              		.loc 1 701 0
 2512 002e C4BF     		itt	gt
 2513 0030 0023     		movgt	r3, #0
 2514 0032 3360     		strgt	r3, [r6]
 2515              		.loc 1 703 0
 2516 0034 F0BC     		pop	{r4, r5, r6, r7}
 2517              	.LVL355:
 2518 0036 7047     		bx	lr
 2519              	.L197:
 2520              		.align	2
 2521              	.L196:
 2522 0038 00000000 		.word	.LANCHOR3
 2523 003c 00000000 		.word	.LANCHOR4
 2524              		.cfi_endproc
 2525              	.LFE257:
 2526              		.size	terminal_add_fault_data, .-terminal_add_fault_data
 2527              		.section	.text.terminal_register_command_callback,"ax",%progbits
 2528              		.align	2
 2529              		.p2align 4,,15
 2530              		.global	terminal_register_command_callback
 2531              		.thumb
 2532              		.thumb_func
 2533              		.type	terminal_register_command_callback, %function
 2534              	terminal_register_command_callback:
 2535              	.LFB258:
 2536              		.loc 1 726 0
 2537              		.cfi_startproc
 2538              		@ args = 0, pretend = 0, frame = 0
 2539              		@ frame_needed = 0, uses_anonymous_args = 0
 2540              	.LVL356:
 2541 0000 2DE9F84F 		push	{r3, r4, r5, r6, r7, r8, r9, r10, fp, lr}
 2542              		.cfi_def_cfa_offset 40
 2543              		.cfi_offset 3, -40
 2544              		.cfi_offset 4, -36
 2545              		.cfi_offset 5, -32
 2546              		.cfi_offset 6, -28
 2547              		.cfi_offset 7, -24
 2548              		.cfi_offset 8, -20
 2549              		.cfi_offset 9, -16
 2550              		.cfi_offset 10, -12
 2551              		.cfi_offset 11, -8
 2552              		.cfi_offset 14, -4
 2553              		.loc 1 728 0
 2554 0004 1E4F     		ldr	r7, .L212
 2555              	.LBB122:
 2556              		.loc 1 732 0
 2557 0006 1F4D     		ldr	r5, .L212+4
 2558              	.LBE122:
 2559              		.loc 1 728 0
 2560 0008 3E68     		ldr	r6, [r7]
 2561              	.LVL357:
 2562              	.LBB123:
 2563              		.loc 1 730 0
 2564 000a 002E     		cmp	r6, #0
 2565              	.LBE123:
ARM GAS  /tmp/ccTHhLt7.s 			page 46


 2566              		.loc 1 726 0
 2567 000c 8346     		mov	fp, r0
 2568 000e 8A46     		mov	r10, r1
 2569 0010 9146     		mov	r9, r2
 2570 0012 9846     		mov	r8, r3
 2571              	.LBB124:
 2572              		.loc 1 730 0
 2573 0014 1DDD     		ble	.L199
 2574              		.loc 1 732 0
 2575 0016 2868     		ldr	r0, [r5]
 2576              	.LVL358:
 2577 0018 5845     		cmp	r0, fp
 2578 001a 2ED0     		beq	.L205
 2579              		.loc 1 730 0
 2580 001c 0024     		movs	r4, #0
 2581 001e 07E0     		b	.L201
 2582              	.LVL359:
 2583              	.L210:
 2584 0020 0134     		adds	r4, r4, #1
 2585              	.LVL360:
 2586 0022 B442     		cmp	r4, r6
 2587 0024 4FEA0413 		lsl	r3, r4, #4
 2588 0028 13D0     		beq	.L199
 2589              		.loc 1 732 0
 2590 002a E858     		ldr	r0, [r5, r3]
 2591 002c 5845     		cmp	r0, fp
 2592 002e 05D0     		beq	.L200
 2593              	.LVL361:
 2594              	.L201:
 2595              		.loc 1 738 0
 2596 0030 5946     		mov	r1, fp
 2597 0032 FFF7FEFF 		bl	strcmp
 2598              	.LVL362:
 2599 0036 0028     		cmp	r0, #0
 2600 0038 F2D1     		bne	.L210
 2601 003a 2301     		lsls	r3, r4, #4
 2602              	.LVL363:
 2603              	.L200:
 2604              	.LBE124:
 2605              		.loc 1 744 0
 2606 003c EA18     		adds	r2, r5, r3
 2607 003e 45F803B0 		str	fp, [r5, r3]
 2608              		.loc 1 745 0
 2609 0042 C2F804A0 		str	r10, [r2, #4]
 2610              		.loc 1 746 0
 2611 0046 C2F80890 		str	r9, [r2, #8]
 2612              		.loc 1 747 0
 2613 004a C2F80C80 		str	r8, [r2, #12]
 2614 004e BDE8F88F 		pop	{r3, r4, r5, r6, r7, r8, r9, r10, fp, pc}
 2615              	.LVL364:
 2616              	.L199:
 2617              		.loc 1 744 0
 2618 0052 3201     		lsls	r2, r6, #4
 2619 0054 AB18     		adds	r3, r5, r2
 2620              		.loc 1 750 0
 2621 0056 0136     		adds	r6, r6, #1
 2622              	.LVL365:
ARM GAS  /tmp/ccTHhLt7.s 			page 47


 2623              		.loc 1 751 0
 2624 0058 182E     		cmp	r6, #24
 2625              		.loc 1 744 0
 2626 005a 45F802B0 		str	fp, [r5, r2]
 2627              		.loc 1 745 0
 2628 005e C3F804A0 		str	r10, [r3, #4]
 2629              		.loc 1 746 0
 2630 0062 C3F80890 		str	r9, [r3, #8]
 2631              		.loc 1 747 0
 2632 0066 C3F80C80 		str	r8, [r3, #12]
 2633              		.loc 1 751 0
 2634 006a 03DD     		ble	.L211
 2635              		.loc 1 752 0
 2636 006c 0023     		movs	r3, #0
 2637 006e 3B60     		str	r3, [r7]
 2638 0070 BDE8F88F 		pop	{r3, r4, r5, r6, r7, r8, r9, r10, fp, pc}
 2639              	.LVL366:
 2640              	.L211:
 2641              		.loc 1 750 0
 2642 0074 3E60     		str	r6, [r7]
 2643 0076 BDE8F88F 		pop	{r3, r4, r5, r6, r7, r8, r9, r10, fp, pc}
 2644              	.LVL367:
 2645              	.L205:
 2646 007a 0023     		movs	r3, #0
 2647              	.LVL368:
 2648 007c DEE7     		b	.L200
 2649              	.L213:
 2650 007e 00BF     		.align	2
 2651              	.L212:
 2652 0080 00000000 		.word	.LANCHOR5
 2653 0084 00000000 		.word	.LANCHOR6
 2654              		.cfi_endproc
 2655              	.LFE258:
 2656              		.size	terminal_register_command_callback, .-terminal_register_command_callback
 2657 0088 AFF30080 		.section	.rodata.states.11264,"a",%progbits
 2657      AFF30080 
 2658              		.align	2
 2659              		.set	.LANCHOR2,. + 0
 2660              		.type	states.11264, %object
 2661              		.size	states.11264, 64
 2662              	states.11264:
 2663 0000 70110000 		.word	.LC162
 2664 0004 78110000 		.word	.LC163
 2665 0008 80110000 		.word	.LC164
 2666 000c 88110000 		.word	.LC165
 2667 0010 94110000 		.word	.LC166
 2668 0014 9C110000 		.word	.LC167
 2669 0018 A4110000 		.word	.LC168
 2670 001c AC110000 		.word	.LC169
 2671 0020 B4110000 		.word	.LC170
 2672 0024 C0110000 		.word	.LC171
 2673 0028 C8110000 		.word	.LC172
 2674 002c D0110000 		.word	.LC173
 2675 0030 DC110000 		.word	.LC174
 2676 0034 E4110000 		.word	.LC175
 2677 0038 EC110000 		.word	.LC176
 2678 003c F4110000 		.word	.LC177
ARM GAS  /tmp/ccTHhLt7.s 			page 48


 2679              		.section	.bss.callbacks,"aw",%nobits
 2680              		.align	2
 2681              		.set	.LANCHOR6,. + 0
 2682              		.type	callbacks, %object
 2683              		.size	callbacks, 400
 2684              	callbacks:
 2685 0000 00000000 		.space	400
 2685      00000000 
 2685      00000000 
 2685      00000000 
 2685      00000000 
 2686              		.section	.bss.fault_vec_write,"aw",%nobits
 2687              		.align	2
 2688              		.set	.LANCHOR3,. + 0
 2689              		.type	fault_vec_write, %object
 2690              		.size	fault_vec_write, 4
 2691              	fault_vec_write:
 2692 0000 00000000 		.space	4
 2693              		.section	.rodata.str1.4,"aMS",%progbits,1
 2694              		.align	2
 2695              	.LC0:
 2696 0000 74727565 		.ascii	"true\000"
 2696      00
 2697 0005 000000   		.space	3
 2698              	.LC1:
 2699 0008 66616C73 		.ascii	"false\000"
 2699      6500
 2700 000e 0000     		.space	2
 2701              	.LC2:
 2702 0010 59657300 		.ascii	"Yes\000"
 2703              	.LC3:
 2704 0014 4E6F00   		.ascii	"No\000"
 2705 0017 00       		.space	1
 2706              	.LC4:
 2707 0018 2000     		.ascii	" \000"
 2708 001a 0000     		.space	2
 2709              	.LC5:
 2710 001c 4E6F2063 		.ascii	"No command received\012\000"
 2710      6F6D6D61 
 2710      6E642072 
 2710      65636569 
 2710      7665640A 
 2711 0031 000000   		.space	3
 2712              	.LC6:
 2713 0034 70696E67 		.ascii	"ping\000"
 2713      00
 2714 0039 000000   		.space	3
 2715              	.LC7:
 2716 003c 706F6E67 		.ascii	"pong\012\000"
 2716      0A00
 2717 0042 0000     		.space	2
 2718              	.LC8:
 2719 0044 73746F70 		.ascii	"stop\000"
 2719      00
 2720 0049 000000   		.space	3
 2721              	.LC9:
 2722 004c 4D6F746F 		.ascii	"Motor stopped\012\000"
ARM GAS  /tmp/ccTHhLt7.s 			page 49


 2722      72207374 
 2722      6F707065 
 2722      640A00
 2723 005b 00       		.space	1
 2724              	.LC10:
 2725 005c 6C617374 		.ascii	"last_adc_duration\000"
 2725      5F616463 
 2725      5F647572 
 2725      6174696F 
 2725      6E00
 2726 006e 0000     		.space	2
 2727              	.LC11:
 2728 0070 4C617465 		.ascii	"Latest ADC duration: %.4f ms\000"
 2728      73742041 
 2728      44432064 
 2728      75726174 
 2728      696F6E3A 
 2729 008d 000000   		.space	3
 2730              	.LC12:
 2731 0090 4C617465 		.ascii	"Latest injected ADC duration: %.4f ms\000"
 2731      73742069 
 2731      6E6A6563 
 2731      74656420 
 2731      41444320 
 2732 00b6 0000     		.space	2
 2733              	.LC13:
 2734 00b8 4C617465 		.ascii	"Latest sample ADC duration: %.4f ms\012\000"
 2734      73742073 
 2734      616D706C 
 2734      65204144 
 2734      43206475 
 2735 00dd 000000   		.space	3
 2736              	.LC14:
 2737 00e0 6B7600   		.ascii	"kv\000"
 2738 00e3 00       		.space	1
 2739              	.LC15:
 2740 00e4 43616C63 		.ascii	"Calculated KV: %.2f rpm/volt\012\000"
 2740      756C6174 
 2740      6564204B 
 2740      563A2025 
 2740      2E326620 
 2741 0102 0000     		.space	2
 2742              	.LC16:
 2743 0104 6D656D00 		.ascii	"mem\000"
 2744              	.LC17:
 2745 0108 636F7265 		.ascii	"core free memory : %u bytes\000"
 2745      20667265 
 2745      65206D65 
 2745      6D6F7279 
 2745      203A2025 
 2746              	.LC18:
 2747 0124 68656170 		.ascii	"heap fragments   : %u\000"
 2747      20667261 
 2747      676D656E 
 2747      74732020 
 2747      203A2025 
 2748 013a 0000     		.space	2
ARM GAS  /tmp/ccTHhLt7.s 			page 50


 2749              	.LC19:
 2750 013c 68656170 		.ascii	"heap free total  : %u bytes\012\000"
 2750      20667265 
 2750      6520746F 
 2750      74616C20 
 2750      203A2025 
 2751 0159 000000   		.space	3
 2752              	.LC20:
 2753 015c 74687265 		.ascii	"threads\000"
 2753      61647300 
 2754              	.LC21:
 2755 0164 20202020 		.ascii	"    addr    stack prio refs     state           nam"
 2755      61646472 
 2755      20202020 
 2755      73746163 
 2755      6B207072 
 2756 0197 65207469 		.ascii	"e time    \000"
 2756      6D652020 
 2756      202000
 2757 01a2 0000     		.space	2
 2758              	.LC22:
 2759 01a4 2D2D2D2D 		.ascii	"---------------------------------------------------"
 2759      2D2D2D2D 
 2759      2D2D2D2D 
 2759      2D2D2D2D 
 2759      2D2D2D2D 
 2760 01d7 2D2D2D2D 		.ascii	"----------\000"
 2760      2D2D2D2D 
 2760      2D2D00
 2761 01e2 0000     		.space	2
 2762              	.LC23:
 2763 01e4 252E386C 		.ascii	"%.8lx %.8lx %4lu %4lu %9s %14s %lu\000"
 2763      7820252E 
 2763      386C7820 
 2763      25346C75 
 2763      2025346C 
 2764 0207 00       		.space	1
 2765              	.LC24:
 2766 0208 00       		.ascii	"\000"
 2767 0209 000000   		.space	3
 2768              	.LC25:
 2769 020c 6661756C 		.ascii	"fault\000"
 2769      7400
 2770 0212 0000     		.space	2
 2771              	.LC26:
 2772 0214 25730A00 		.ascii	"%s\012\000"
 2773              	.LC27:
 2774 0218 6661756C 		.ascii	"faults\000"
 2774      747300
 2775 021f 00       		.space	1
 2776              	.LC28:
 2777 0220 4E6F2066 		.ascii	"No faults registered since startup\012\000"
 2777      61756C74 
 2777      73207265 
 2777      67697374 
 2777      65726564 
 2778              	.LC29:
ARM GAS  /tmp/ccTHhLt7.s 			page 51


 2779 0244 54686520 		.ascii	"The following faults were registered since start:\012"
 2779      666F6C6C 
 2779      6F77696E 
 2779      67206661 
 2779      756C7473 
 2780 0276 00       		.ascii	"\000"
 2781 0277 00       		.space	1
 2782              	.LC30:
 2783 0278 4661756C 		.ascii	"Fault            : %s\000"
 2783      74202020 
 2783      20202020 
 2783      20202020 
 2783      203A2025 
 2784 028e 0000     		.space	2
 2785              	.LC31:
 2786 0290 43757272 		.ascii	"Current          : %.1f\000"
 2786      656E7420 
 2786      20202020 
 2786      20202020 
 2786      203A2025 
 2787              	.LC32:
 2788 02a8 43757272 		.ascii	"Current filtered : %.1f\000"
 2788      656E7420 
 2788      66696C74 
 2788      65726564 
 2788      203A2025 
 2789              	.LC33:
 2790 02c0 566F6C74 		.ascii	"Voltage          : %.2f\000"
 2790      61676520 
 2790      20202020 
 2790      20202020 
 2790      203A2025 
 2791              	.LC34:
 2792 02d8 44757479 		.ascii	"Duty             : %.3f\000"
 2792      20202020 
 2792      20202020 
 2792      20202020 
 2792      203A2025 
 2793              	.LC35:
 2794 02f0 52504D20 		.ascii	"RPM              : %.1f\000"
 2794      20202020 
 2794      20202020 
 2794      20202020 
 2794      203A2025 
 2795              	.LC36:
 2796 0308 54616368 		.ascii	"Tacho            : %d\000"
 2796      6F202020 
 2796      20202020 
 2796      20202020 
 2796      203A2025 
 2797 031e 0000     		.space	2
 2798              	.LC37:
 2799 0320 4379636C 		.ascii	"Cycles running   : %d\000"
 2799      65732072 
 2799      756E6E69 
 2799      6E672020 
 2799      203A2025 
ARM GAS  /tmp/ccTHhLt7.s 			page 52


 2800 0336 0000     		.space	2
 2801              	.LC38:
 2802 0338 54494D20 		.ascii	"TIM duty         : %d\000"
 2802      64757479 
 2802      20202020 
 2802      20202020 
 2802      203A2025 
 2803 034e 0000     		.space	2
 2804              	.LC39:
 2805 0350 54494D20 		.ascii	"TIM val samp     : %d\000"
 2805      76616C20 
 2805      73616D70 
 2805      20202020 
 2805      203A2025 
 2806 0366 0000     		.space	2
 2807              	.LC40:
 2808 0368 54494D20 		.ascii	"TIM current samp : %d\000"
 2808      63757272 
 2808      656E7420 
 2808      73616D70 
 2808      203A2025 
 2809 037e 0000     		.space	2
 2810              	.LC41:
 2811 0380 54494D20 		.ascii	"TIM top          : %d\000"
 2811      746F7020 
 2811      20202020 
 2811      20202020 
 2811      203A2025 
 2812 0396 0000     		.space	2
 2813              	.LC42:
 2814 0398 436F6D6D 		.ascii	"Comm step        : %d\000"
 2814      20737465 
 2814      70202020 
 2814      20202020 
 2814      203A2025 
 2815 03ae 0000     		.space	2
 2816              	.LC43:
 2817 03b0 54656D70 		.ascii	"Temperature      : %.2f\000"
 2817      65726174 
 2817      75726520 
 2817      20202020 
 2817      203A2025 
 2818              	.LC44:
 2819 03c8 72706D00 		.ascii	"rpm\000"
 2820              	.LC45:
 2821 03cc 456C6563 		.ascii	"Electrical RPM: %.2f rpm\012\000"
 2821      74726963 
 2821      616C2052 
 2821      504D3A20 
 2821      252E3266 
 2822 03e6 0000     		.space	2
 2823              	.LC46:
 2824 03e8 74616368 		.ascii	"tacho\000"
 2824      6F00
 2825 03ee 0000     		.space	2
 2826              	.LC47:
 2827 03f0 54616368 		.ascii	"Tachometer counts: %i\012\000"
ARM GAS  /tmp/ccTHhLt7.s 			page 53


 2827      6F6D6574 
 2827      65722063 
 2827      6F756E74 
 2827      733A2025 
 2828 0407 00       		.space	1
 2829              	.LC48:
 2830 0408 74696D00 		.ascii	"tim\000"
 2831              	.LC49:
 2832 040c 54696D31 		.ascii	"Tim1 CNT: %i\000"
 2832      20434E54 
 2832      3A202569 
 2832      00
 2833 0419 000000   		.space	3
 2834              	.LC50:
 2835 041c 54696D38 		.ascii	"Tim8 CNT: %u\000"
 2835      20434E54 
 2835      3A202575 
 2835      00
 2836 0429 000000   		.space	3
 2837              	.LC51:
 2838 042c 44757479 		.ascii	"Duty cycle1: %u\000"
 2838      20637963 
 2838      6C65313A 
 2838      20257500 
 2839              	.LC52:
 2840 043c 44757479 		.ascii	"Duty cycle2: %u\000"
 2840      20637963 
 2840      6C65323A 
 2840      20257500 
 2841              	.LC53:
 2842 044c 44757479 		.ascii	"Duty cycle3: %u\000"
 2842      20637963 
 2842      6C65333A 
 2842      20257500 
 2843              	.LC54:
 2844 045c 546F703A 		.ascii	"Top: %u\000"
 2844      20257500 
 2845              	.LC55:
 2846 0464 44697231 		.ascii	"Dir1: %u\000"
 2846      3A202575 
 2846      00
 2847 046d 000000   		.space	3
 2848              	.LC56:
 2849 0470 44697238 		.ascii	"Dir8: %u\000"
 2849      3A202575 
 2849      00
 2850 0479 000000   		.space	3
 2851              	.LC57:
 2852 047c 566F6C74 		.ascii	"Voltage sample: %u\000"
 2852      61676520 
 2852      73616D70 
 2852      6C653A20 
 2852      257500
 2853 048f 00       		.space	1
 2854              	.LC58:
 2855 0490 43757272 		.ascii	"Current 1 sample: %u\000"
 2855      656E7420 
ARM GAS  /tmp/ccTHhLt7.s 			page 54


 2855      31207361 
 2855      6D706C65 
 2855      3A202575 
 2856 04a5 000000   		.space	3
 2857              	.LC59:
 2858 04a8 43757272 		.ascii	"Current 2 sample: %u\012\000"
 2858      656E7420 
 2858      32207361 
 2858      6D706C65 
 2858      3A202575 
 2859 04be 0000     		.space	2
 2860              	.LC60:
 2861 04c0 766F6C74 		.ascii	"volt\000"
 2861      00
 2862 04c5 000000   		.space	3
 2863              	.LC61:
 2864 04c8 496E7075 		.ascii	"Input voltage: %.2f\012\000"
 2864      7420766F 
 2864      6C746167 
 2864      653A2025 
 2864      2E32660A 
 2865 04dd 000000   		.space	3
 2866              	.LC62:
 2867 04e0 70617261 		.ascii	"param_detect\000"
 2867      6D5F6465 
 2867      74656374 
 2867      00
 2868 04ed 000000   		.space	3
 2869              	.LC63:
 2870 04f0 256600   		.ascii	"%f\000"
 2871 04f3 00       		.space	1
 2872              	.LC64:
 2873 04f4 4379636C 		.ascii	"Cycle integrator limit: %.2f\000"
 2873      6520696E 
 2873      74656772 
 2873      61746F72 
 2873      206C696D 
 2874 0511 000000   		.space	3
 2875              	.LC65:
 2876 0514 436F7570 		.ascii	"Coupling factor: %.2f\000"
 2876      6C696E67 
 2876      20666163 
 2876      746F723A 
 2876      20252E32 
 2877 052a 0000     		.space	2
 2878              	.LC66:
 2879 052c 44657465 		.ascii	"Detected hall sensor table:\000"
 2879      63746564 
 2879      2068616C 
 2879      6C207365 
 2879      6E736F72 
 2880              	.LC67:
 2881 0548 25692C20 		.ascii	"%i, %i, %i, %i, %i, %i, %i, %i\012\000"
 2881      25692C20 
 2881      25692C20 
 2881      25692C20 
 2881      25692C20 
ARM GAS  /tmp/ccTHhLt7.s 			page 55


 2882              	.LC68:
 2883 0568 48616C6C 		.ascii	"Hall sensor detection failed:\000"
 2883      2073656E 
 2883      736F7220 
 2883      64657465 
 2883      6374696F 
 2884 0586 0000     		.space	2
 2885              	.LC69:
 2886 0588 57533238 		.ascii	"WS2811 enabled. Hall sensors cannot be used.\012\000"
 2886      31312065 
 2886      6E61626C 
 2886      65642E20 
 2886      48616C6C 
 2887 05b6 0000     		.space	2
 2888              	.LC70:
 2889 05b8 456E636F 		.ascii	"Encoder enabled. Hall sensors cannot be used.\012\000"
 2889      64657220 
 2889      656E6162 
 2889      6C65642E 
 2889      2048616C 
 2890 05e7 00       		.space	1
 2891              	.LC71:
 2892 05e8 44657465 		.ascii	"Detection failed. Try again with different paramete"
 2892      6374696F 
 2892      6E206661 
 2892      696C6564 
 2892      2E205472 
 2893 061b 72732E0A 		.ascii	"rs.\012\000"
 2893      00
 2894              	.LC72:
 2895 0620 496E7661 		.ascii	"Invalid argument(s).\012\000"
 2895      6C696420 
 2895      61726775 
 2895      6D656E74 
 2895      2873292E 
 2896 0636 0000     		.space	2
 2897              	.LC73:
 2898 0638 54686973 		.ascii	"This command requires three arguments.\012\000"
 2898      20636F6D 
 2898      6D616E64 
 2898      20726571 
 2898      75697265 
 2899              	.LC74:
 2900 0660 72706D5F 		.ascii	"rpm_dep\000"
 2900      64657000 
 2901              	.LC75:
 2902 0668 4379636C 		.ascii	"Cycle int limit: %.2f\000"
 2902      6520696E 
 2902      74206C69 
 2902      6D69743A 
 2902      20252E32 
 2903 067e 0000     		.space	2
 2904              	.LC76:
 2905 0680 4379636C 		.ascii	"Cycle int limit running: %.2f\000"
 2905      6520696E 
 2905      74206C69 
 2905      6D697420 
ARM GAS  /tmp/ccTHhLt7.s 			page 56


 2905      72756E6E 
 2906 069e 0000     		.space	2
 2907              	.LC77:
 2908 06a0 4379636C 		.ascii	"Cycle int limit max: %.2f\012\000"
 2908      6520696E 
 2908      74206C69 
 2908      6D697420 
 2908      6D61783A 
 2909 06bb 00       		.space	1
 2910              	.LC78:
 2911 06bc 63616E5F 		.ascii	"can_devs\000"
 2911      64657673 
 2911      00
 2912 06c5 000000   		.space	3
 2913              	.LC79:
 2914 06c8 43414E20 		.ascii	"CAN devices seen on the bus the past second:\012\000"
 2914      64657669 
 2914      63657320 
 2914      7365656E 
 2914      206F6E20 
 2915 06f6 0000     		.space	2
 2916              	.LC80:
 2917 06f8 49442020 		.ascii	"ID                 : %i\000"
 2917      20202020 
 2917      20202020 
 2917      20202020 
 2917      2020203A 
 2918              	.LC81:
 2919 0710 52582054 		.ascii	"RX Time            : %i\000"
 2919      696D6520 
 2919      20202020 
 2919      20202020 
 2919      2020203A 
 2920              	.LC82:
 2921 0728 41676520 		.ascii	"Age (milliseconds) : %.2f\000"
 2921      286D696C 
 2921      6C697365 
 2921      636F6E64 
 2921      7329203A 
 2922 0742 0000     		.space	2
 2923              	.LC83:
 2924 0744 52504D20 		.ascii	"RPM                : %.2f\000"
 2924      20202020 
 2924      20202020 
 2924      20202020 
 2924      2020203A 
 2925 075e 0000     		.space	2
 2926              	.LC84:
 2927 0760 43757272 		.ascii	"Current            : %.2f\000"
 2927      656E7420 
 2927      20202020 
 2927      20202020 
 2927      2020203A 
 2928 077a 0000     		.space	2
 2929              	.LC85:
 2930 077c 44757479 		.ascii	"Duty               : %.2f\012\000"
 2930      20202020 
ARM GAS  /tmp/ccTHhLt7.s 			page 57


 2930      20202020 
 2930      20202020 
 2930      2020203A 
 2931 0797 00       		.space	1
 2932              	.LC86:
 2933 0798 666F635F 		.ascii	"foc_encoder_detect\000"
 2933      656E636F 
 2933      6465725F 
 2933      64657465 
 2933      637400
 2934 07ab 00       		.space	1
 2935              	.LC87:
 2936 07ac 4F666673 		.ascii	"Offset   : %.2f\000"
 2936      65742020 
 2936      203A2025 
 2936      2E326600 
 2937              	.LC88:
 2938 07bc 52617469 		.ascii	"Ratio    : %.2f\000"
 2938      6F202020 
 2938      203A2025 
 2938      2E326600 
 2939              	.LC89:
 2940 07cc 496E7665 		.ascii	"Inverted : %s\012\000"
 2940      72746564 
 2940      203A2025 
 2940      730A00
 2941 07db 00       		.space	1
 2942              	.LC90:
 2943 07dc 456E636F 		.ascii	"Encoder not enabled.\012\000"
 2943      64657220 
 2943      6E6F7420 
 2943      656E6162 
 2943      6C65642E 
 2944 07f2 0000     		.space	2
 2945              	.LC91:
 2946 07f4 54686973 		.ascii	"This command requires one argument.\012\000"
 2946      20636F6D 
 2946      6D616E64 
 2946      20726571 
 2946      75697265 
 2947 0819 000000   		.space	3
 2948              	.LC92:
 2949 081c 6D656173 		.ascii	"measure_res\000"
 2949      7572655F 
 2949      72657300 
 2950              	.LC93:
 2951 0828 52657369 		.ascii	"Resistance: %.6f ohm\012\000"
 2951      7374616E 
 2951      63653A20 
 2951      252E3666 
 2951      206F686D 
 2952 083e 0000     		.space	2
 2953              	.LC94:
 2954 0840 6D656173 		.ascii	"measure_ind\000"
 2954      7572655F 
 2954      696E6400 
 2955              	.LC95:
ARM GAS  /tmp/ccTHhLt7.s 			page 58


 2956 084c 496E6475 		.ascii	"Inductance: %.2f microhenry (%.2f A)\012\000"
 2956      6374616E 
 2956      63653A20 
 2956      252E3266 
 2956      206D6963 
 2957 0872 0000     		.space	2
 2958              	.LC96:
 2959 0874 6D656173 		.ascii	"measure_linkage\000"
 2959      7572655F 
 2959      6C696E6B 
 2959      61676500 
 2960              	.LC97:
 2961 0884 466C7578 		.ascii	"Flux linkage: %.7f\012\000"
 2961      206C696E 
 2961      6B616765 
 2961      3A20252E 
 2961      37660A00 
 2962              	.LC98:
 2963 0898 6D656173 		.ascii	"measure_res_ind\000"
 2963      7572655F 
 2963      7265735F 
 2963      696E6400 
 2964              	.LC99:
 2965 08a8 52657369 		.ascii	"Resistance: %.6f ohm\000"
 2965      7374616E 
 2965      63653A20 
 2965      252E3666 
 2965      206F686D 
 2966 08bd 000000   		.space	3
 2967              	.LC100:
 2968 08c0 496E6475 		.ascii	"Inductance: %.2f microhenry\012\000"
 2968      6374616E 
 2968      63653A20 
 2968      252E3266 
 2968      206D6963 
 2969 08dd 000000   		.space	3
 2970              	.LC101:
 2971 08e0 6D656173 		.ascii	"measure_linkage_foc\000"
 2971      7572655F 
 2971      6C696E6B 
 2971      6167655F 
 2971      666F6300 
 2972              	.LC102:
 2973 08f4 666F635F 		.ascii	"foc_state\000"
 2973      73746174 
 2973      6500
 2974 08fe 0000     		.space	2
 2975              	.LC103:
 2976 0900 68775F73 		.ascii	"hw_status\000"
 2976      74617475 
 2976      7300
 2977 090a 0000     		.space	2
 2978              	.LC104:
 2979 090c 4669726D 		.ascii	"Firmware: %d.%d\000"
 2979      77617265 
 2979      3A202564 
 2979      2E256400 
ARM GAS  /tmp/ccTHhLt7.s 			page 59


 2980              	.LC105:
 2981 091c 48617264 		.ascii	"Hardware: %s\000"
 2981      77617265 
 2981      3A202573 
 2981      00
 2982 0929 000000   		.space	3
 2983              	.LC106:
 2984 092c 34313000 		.ascii	"410\000"
 2985              	.LC107:
 2986 0930 55554944 		.ascii	"UUID: %02X %02X %02X %02X %02X %02X %02X %02X %02X "
 2986      3A202530 
 2986      32582025 
 2986      30325820 
 2986      25303258 
 2987 0963 25303258 		.ascii	"%02X %02X %02X\000"
 2987      20253032 
 2987      58202530 
 2987      325800
 2988 0972 0000     		.space	2
 2989              	.LC108:
 2990 0974 5065726D 		.ascii	"Permanent NRF found: %s\000"
 2990      616E656E 
 2990      74204E52 
 2990      4620666F 
 2990      756E643A 
 2991              	.LC109:
 2992 098c 64727638 		.ascii	"drv8301_read_reg\000"
 2992      3330315F 
 2992      72656164 
 2992      5F726567 
 2992      00
 2993 099d 000000   		.space	3
 2994              	.LC110:
 2995 09a0 54686973 		.ascii	"This hardware does not have a DRV8301.\012\000"
 2995      20686172 
 2995      64776172 
 2995      6520646F 
 2995      6573206E 
 2996              	.LC111:
 2997 09c8 64727638 		.ascii	"drv8301_write_reg\000"
 2997      3330315F 
 2997      77726974 
 2997      655F7265 
 2997      6700
 2998 09da 0000     		.space	2
 2999              	.LC112:
 3000 09dc 64727638 		.ascii	"drv8301_set_oc_adj\000"
 3000      3330315F 
 3000      7365745F 
 3000      6F635F61 
 3000      646A00
 3001 09ef 00       		.space	1
 3002              	.LC113:
 3003 09f0 64727638 		.ascii	"drv8301_print_faults\000"
 3003      3330315F 
 3003      7072696E 
 3003      745F6661 
ARM GAS  /tmp/ccTHhLt7.s 			page 60


 3003      756C7473 
 3004 0a05 000000   		.space	3
 3005              	.LC114:
 3006 0a08 64727638 		.ascii	"drv8301_reset_faults\000"
 3006      3330315F 
 3006      72657365 
 3006      745F6661 
 3006      756C7473 
 3007 0a1d 000000   		.space	3
 3008              	.LC115:
 3009 0a20 64727638 		.ascii	"drv8305_read_reg\000"
 3009      3330355F 
 3009      72656164 
 3009      5F726567 
 3009      00
 3010 0a31 000000   		.space	3
 3011              	.LC116:
 3012 0a34 54686973 		.ascii	"This hardware does not have a DRV8305.\012\000"
 3012      20686172 
 3012      64776172 
 3012      6520646F 
 3012      6573206E 
 3013              	.LC117:
 3014 0a5c 64727638 		.ascii	"drv8305_write_reg\000"
 3014      3330355F 
 3014      77726974 
 3014      655F7265 
 3014      6700
 3015 0a6e 0000     		.space	2
 3016              	.LC118:
 3017 0a70 666F635F 		.ascii	"foc_openloop\000"
 3017      6F70656E 
 3017      6C6F6F70 
 3017      00
 3018 0a7d 000000   		.space	3
 3019              	.LC119:
 3020 0a80 54686973 		.ascii	"This command requires two arguments.\012\000"
 3020      20636F6D 
 3020      6D616E64 
 3020      20726571 
 3020      75697265 
 3021 0aa6 0000     		.space	2
 3022              	.LC120:
 3023 0aa8 68656C70 		.ascii	"help\000"
 3023      00
 3024 0aad 000000   		.space	3
 3025              	.LC121:
 3026 0ab0 56616C69 		.ascii	"Valid commands are:\000"
 3026      6420636F 
 3026      6D6D616E 
 3026      64732061 
 3026      72653A00 
 3027              	.LC122:
 3028 0ac4 20205368 		.ascii	"  Show this help\000"
 3028      6F772074 
 3028      68697320 
 3028      68656C70 
ARM GAS  /tmp/ccTHhLt7.s 			page 61


 3028      00
 3029 0ad5 000000   		.space	3
 3030              	.LC123:
 3031 0ad8 20205072 		.ascii	"  Print pong here to see if the reply works\000"
 3031      696E7420 
 3031      706F6E67 
 3031      20686572 
 3031      6520746F 
 3032              	.LC124:
 3033 0b04 20205374 		.ascii	"  Stop the motor\000"
 3033      6F702074 
 3033      6865206D 
 3033      6F746F72 
 3033      00
 3034 0b15 000000   		.space	3
 3035              	.LC125:
 3036 0b18 20205468 		.ascii	"  The time the latest ADC interrupt consumed\000"
 3036      65207469 
 3036      6D652074 
 3036      6865206C 
 3036      61746573 
 3037 0b45 000000   		.space	3
 3038              	.LC126:
 3039 0b48 20205468 		.ascii	"  The calculated kv of the motor\000"
 3039      65206361 
 3039      6C63756C 
 3039      61746564 
 3039      206B7620 
 3040 0b69 000000   		.space	3
 3041              	.LC127:
 3042 0b6c 20205368 		.ascii	"  Show memory usage\000"
 3042      6F77206D 
 3042      656D6F72 
 3042      79207573 
 3042      61676500 
 3043              	.LC128:
 3044 0b80 20204C69 		.ascii	"  List all threads\000"
 3044      73742061 
 3044      6C6C2074 
 3044      68726561 
 3044      647300
 3045 0b93 00       		.space	1
 3046              	.LC129:
 3047 0b94 20205072 		.ascii	"  Prints the current fault code\000"
 3047      696E7473 
 3047      20746865 
 3047      20637572 
 3047      72656E74 
 3048              	.LC130:
 3049 0bb4 20205072 		.ascii	"  Prints all stored fault codes and conditions when"
 3049      696E7473 
 3049      20616C6C 
 3049      2073746F 
 3049      72656420 
 3050 0be7 20746865 		.ascii	" they arrived\000"
 3050      79206172 
 3050      72697665 
ARM GAS  /tmp/ccTHhLt7.s 			page 62


 3050      6400
 3051 0bf5 000000   		.space	3
 3052              	.LC131:
 3053 0bf8 20205072 		.ascii	"  Prints the current electrical RPM\000"
 3053      696E7473 
 3053      20746865 
 3053      20637572 
 3053      72656E74 
 3054              	.LC132:
 3055 0c1c 20205072 		.ascii	"  Prints tachometer value\000"
 3055      696E7473 
 3055      20746163 
 3055      686F6D65 
 3055      74657220 
 3056 0c36 0000     		.space	2
 3057              	.LC133:
 3058 0c38 20205072 		.ascii	"  Prints tim1 and tim8 settings\000"
 3058      696E7473 
 3058      2074696D 
 3058      3120616E 
 3058      64207469 
 3059              	.LC134:
 3060 0c58 20205072 		.ascii	"  Prints different voltages\000"
 3060      696E7473 
 3060      20646966 
 3060      66657265 
 3060      6E742076 
 3061              	.LC135:
 3062 0c74 70617261 		.ascii	"param_detect [current] [min_rpm] [low_duty]\000"
 3062      6D5F6465 
 3062      74656374 
 3062      205B6375 
 3062      7272656E 
 3063              	.LC136:
 3064 0ca0 20205370 		.ascii	"  Spin up the motor in COMM_MODE_DELAY and compute "
 3064      696E2075 
 3064      70207468 
 3064      65206D6F 
 3064      746F7220 
 3065 0cd3 69747320 		.ascii	"its parameters.\000"
 3065      70617261 
 3065      6D657465 
 3065      72732E00 
 3066 0ce3 00       		.space	1
 3067              	.LC137:
 3068 0ce4 20205468 		.ascii	"  This test should be performed without load on the"
 3068      69732074 
 3068      65737420 
 3068      73686F75 
 3068      6C642062 
 3069 0d17 206D6F74 		.ascii	" motor.\000"
 3069      6F722E00 
 3070 0d1f 00       		.space	1
 3071              	.LC138:
 3072 0d20 20204578 		.ascii	"  Example: param_detect 5.0 600 0.06\000"
 3072      616D706C 
 3072      653A2070 
ARM GAS  /tmp/ccTHhLt7.s 			page 63


 3072      6172616D 
 3072      5F646574 
 3073 0d45 000000   		.space	3
 3074              	.LC139:
 3075 0d48 20205072 		.ascii	"  Prints some rpm-dep values\000"
 3075      696E7473 
 3075      20736F6D 
 3075      65207270 
 3075      6D2D6465 
 3076 0d65 000000   		.space	3
 3077              	.LC140:
 3078 0d68 20205072 		.ascii	"  Prints all CAN devices seen on the bus the past s"
 3078      696E7473 
 3078      20616C6C 
 3078      2043414E 
 3078      20646576 
 3079 0d9b 65636F6E 		.ascii	"econd\000"
 3079      6400
 3080 0da1 000000   		.space	3
 3081              	.LC141:
 3082 0da4 666F635F 		.ascii	"foc_encoder_detect [current]\000"
 3082      656E636F 
 3082      6465725F 
 3082      64657465 
 3082      6374205B 
 3083 0dc1 000000   		.space	3
 3084              	.LC142:
 3085 0dc4 20205275 		.ascii	"  Run the motor at 1Hz on open loop and compute enc"
 3085      6E207468 
 3085      65206D6F 
 3085      746F7220 
 3085      61742031 
 3086 0df7 6F646572 		.ascii	"oder settings\000"
 3086      20736574 
 3086      74696E67 
 3086      7300
 3087 0e05 000000   		.space	3
 3088              	.LC143:
 3089 0e08 6D656173 		.ascii	"measure_res [current]\000"
 3089      7572655F 
 3089      72657320 
 3089      5B637572 
 3089      72656E74 
 3090 0e1e 0000     		.space	2
 3091              	.LC144:
 3092 0e20 20204C6F 		.ascii	"  Lock the motor with a current and calculate its r"
 3092      636B2074 
 3092      6865206D 
 3092      6F746F72 
 3092      20776974 
 3093 0e53 65736973 		.ascii	"esistance\000"
 3093      74616E63 
 3093      6500
 3094 0e5d 000000   		.space	3
 3095              	.LC145:
 3096 0e60 6D656173 		.ascii	"measure_ind [duty]\000"
 3096      7572655F 
ARM GAS  /tmp/ccTHhLt7.s 			page 64


 3096      696E6420 
 3096      5B647574 
 3096      795D00
 3097 0e73 00       		.space	1
 3098              	.LC146:
 3099 0e74 20205365 		.ascii	"  Send short voltage pulses, measure the current an"
 3099      6E642073 
 3099      686F7274 
 3099      20766F6C 
 3099      74616765 
 3100 0ea7 64206361 		.ascii	"d calculate the motor inductance\000"
 3100      6C63756C 
 3100      61746520 
 3100      74686520 
 3100      6D6F746F 
 3101              	.LC147:
 3102 0ec8 6D656173 		.ascii	"measure_linkage [current] [duty] [min_rpm] [motor_r"
 3102      7572655F 
 3102      6C696E6B 
 3102      61676520 
 3102      5B637572 
 3103 0efb 65735D00 		.ascii	"es]\000"
 3104 0eff 00       		.space	1
 3105              	.LC148:
 3106 0f00 20205275 		.ascii	"  Run the motor in BLDC delay mode and measure the "
 3106      6E207468 
 3106      65206D6F 
 3106      746F7220 
 3106      696E2042 
 3107 0f33 666C7578 		.ascii	"flux linkage\000"
 3107      206C696E 
 3107      6B616765 
 3107      00
 3108              	.LC149:
 3109 0f40 20206578 		.ascii	"  example measure_linkage 5 0.5 700 0.076\000"
 3109      616D706C 
 3109      65206D65 
 3109      61737572 
 3109      655F6C69 
 3110 0f6a 0000     		.space	2
 3111              	.LC150:
 3112 0f6c 20207469 		.ascii	"  tip: measure the resistance with measure_res firs"
 3112      703A206D 
 3112      65617375 
 3112      72652074 
 3112      68652072 
 3113 0f9f 7400     		.ascii	"t\000"
 3114 0fa1 000000   		.space	3
 3115              	.LC151:
 3116 0fa4 20204D65 		.ascii	"  Measure the motor resistance and inductance with "
 3116      61737572 
 3116      65207468 
 3116      65206D6F 
 3116      746F7220 
 3117 0fd7 616E2069 		.ascii	"an incremental adaptive algorithm.\000"
 3117      6E637265 
 3117      6D656E74 
ARM GAS  /tmp/ccTHhLt7.s 			page 65


 3117      616C2061 
 3117      64617074 
 3118 0ffa 0000     		.space	2
 3119              	.LC152:
 3120 0ffc 6D656173 		.ascii	"measure_linkage_foc [duty]\000"
 3120      7572655F 
 3120      6C696E6B 
 3120      6167655F 
 3120      666F6320 
 3121 1017 00       		.space	1
 3122              	.LC153:
 3123 1018 20205275 		.ascii	"  Run the motor with FOC and measure the flux linka"
 3123      6E207468 
 3123      65206D6F 
 3123      746F7220 
 3123      77697468 
 3124 104b 67652E00 		.ascii	"ge.\000"
 3125 104f 00       		.space	1
 3126              	.LC154:
 3127 1050 20205072 		.ascii	"  Print some FOC state variables.\000"
 3127      696E7420 
 3127      736F6D65 
 3127      20464F43 
 3127      20737461 
 3128 1072 0000     		.space	2
 3129              	.LC155:
 3130 1074 20205072 		.ascii	"  Print some hardware status information.\000"
 3130      696E7420 
 3130      736F6D65 
 3130      20686172 
 3130      64776172 
 3131 109e 0000     		.space	2
 3132              	.LC156:
 3133 10a0 666F635F 		.ascii	"foc_openloop [current] [erpm]\000"
 3133      6F70656E 
 3133      6C6F6F70 
 3133      205B6375 
 3133      7272656E 
 3134 10be 0000     		.space	2
 3135              	.LC157:
 3136 10c0 20204372 		.ascii	"  Create an open loop rotating current vector.\000"
 3136      65617465 
 3136      20616E20 
 3136      6F70656E 
 3136      206C6F6F 
 3137 10ef 00       		.space	1
 3138              	.LC158:
 3139 10f0 25732025 		.ascii	"%s %s\000"
 3139      7300
 3140 10f6 0000     		.space	2
 3141              	.LC159:
 3142 10f8 20202573 		.ascii	"  %s\000"
 3142      00
 3143 10fd 000000   		.space	3
 3144              	.LC160:
 3145 1100 20205468 		.ascii	"  There is no help available for this command.\000"
 3145      65726520 
ARM GAS  /tmp/ccTHhLt7.s 			page 66


 3145      6973206E 
 3145      6F206865 
 3145      6C702061 
 3146 112f 00       		.space	1
 3147              	.LC161:
 3148 1130 496E7661 		.ascii	"Invalid command: %s\012type help to list all availa"
 3148      6C696420 
 3148      636F6D6D 
 3148      616E643A 
 3148      2025730A 
 3149 1160 626C6520 		.ascii	"ble commands\012\000"
 3149      636F6D6D 
 3149      616E6473 
 3149      0A00
 3150 116e 0000     		.space	2
 3151              	.LC162:
 3152 1170 52454144 		.ascii	"READY\000"
 3152      5900
 3153 1176 0000     		.space	2
 3154              	.LC163:
 3155 1178 43555252 		.ascii	"CURRENT\000"
 3155      454E5400 
 3156              	.LC164:
 3157 1180 57545354 		.ascii	"WTSTART\000"
 3157      41525400 
 3158              	.LC165:
 3159 1188 53555350 		.ascii	"SUSPENDED\000"
 3159      454E4445 
 3159      4400
 3160 1192 0000     		.space	2
 3161              	.LC166:
 3162 1194 51554555 		.ascii	"QUEUED\000"
 3162      454400
 3163 119b 00       		.space	1
 3164              	.LC167:
 3165 119c 57545345 		.ascii	"WTSEM\000"
 3165      4D00
 3166 11a2 0000     		.space	2
 3167              	.LC168:
 3168 11a4 57544D54 		.ascii	"WTMTX\000"
 3168      5800
 3169 11aa 0000     		.space	2
 3170              	.LC169:
 3171 11ac 5754434F 		.ascii	"WTCOND\000"
 3171      4E4400
 3172 11b3 00       		.space	1
 3173              	.LC170:
 3174 11b4 534C4545 		.ascii	"SLEEPING\000"
 3174      50494E47 
 3174      00
 3175 11bd 000000   		.space	3
 3176              	.LC171:
 3177 11c0 57544558 		.ascii	"WTEXIT\000"
 3177      495400
 3178 11c7 00       		.space	1
 3179              	.LC172:
 3180 11c8 57544F52 		.ascii	"WTOREVT\000"
ARM GAS  /tmp/ccTHhLt7.s 			page 67


 3180      45565400 
 3181              	.LC173:
 3182 11d0 5754414E 		.ascii	"WTANDEVT\000"
 3182      44455654 
 3182      00
 3183 11d9 000000   		.space	3
 3184              	.LC174:
 3185 11dc 534E444D 		.ascii	"SNDMSGQ\000"
 3185      53475100 
 3186              	.LC175:
 3187 11e4 534E444D 		.ascii	"SNDMSG\000"
 3187      534700
 3188 11eb 00       		.space	1
 3189              	.LC176:
 3190 11ec 57544D53 		.ascii	"WTMSG\000"
 3190      4700
 3191 11f2 0000     		.space	2
 3192              	.LC177:
 3193 11f4 46494E41 		.ascii	"FINAL\000"
 3193      4C00
 3194 11fa 0000     		.section	.bss.fault_vec,"aw",%nobits
 3195              		.align	2
 3196              		.set	.LANCHOR4,. + 0
 3197              		.type	fault_vec, %object
 3198              		.size	fault_vec, 1400
 3199              	fault_vec:
 3200 0000 00000000 		.space	1400
 3200      00000000 
 3200      00000000 
 3200      00000000 
 3200      00000000 
 3201              		.section	.bss.mcconf_old.11260,"aw",%nobits
 3202              		.align	2
 3203              		.set	.LANCHOR1,. + 0
 3204              		.type	mcconf_old.11260, %object
 3205              		.size	mcconf_old.11260, 372
 3206              	mcconf_old.11260:
 3207 0000 00000000 		.space	372
 3207      00000000 
 3207      00000000 
 3207      00000000 
 3207      00000000 
 3208              		.section	.bss.mcconf.11259,"aw",%nobits
 3209              		.align	2
 3210              		.set	.LANCHOR0,. + 0
 3211              		.type	mcconf.11259, %object
 3212              		.size	mcconf.11259, 372
 3213              	mcconf.11259:
 3214 0000 00000000 		.space	372
 3214      00000000 
 3214      00000000 
 3214      00000000 
 3214      00000000 
 3215              		.section	.bss.callback_write,"aw",%nobits
 3216              		.align	2
 3217              		.set	.LANCHOR5,. + 0
 3218              		.type	callback_write, %object
ARM GAS  /tmp/ccTHhLt7.s 			page 68


 3219              		.size	callback_write, 4
 3220              	callback_write:
 3221 0000 00000000 		.space	4
 3222              		.text
 3223              	.Letext0:
 3224              		.file 4 "/usr/lib/gcc/arm-none-eabi/4.8/include/stddef.h"
 3225              		.file 5 "/usr/include/newlib/machine/_default_types.h"
 3226              		.file 6 "/usr/include/newlib/stdint.h"
 3227              		.file 7 "ChibiOS_3.0.2/os/rt/ports/ARMCMx/compilers/GCC/chtypes.h"
 3228              		.file 8 "ChibiOS_3.0.2/os/rt/include/chsystypes.h"
 3229              		.file 9 "ChibiOS_3.0.2/os/rt/include/chschd.h"
 3230              		.file 10 "ChibiOS_3.0.2/os/ext/CMSIS/ST/stm32f407xx.h"
 3231              		.file 11 "ChibiOS_3.0.2/os/rt/ports/ARMCMx/chcore.h"
 3232              		.file 12 "ChibiOS_3.0.2/os/rt/ports/ARMCMx/chcore_v7m.h"
 3233              		.file 13 "ChibiOS_3.0.2/os/rt/include/chtm.h"
 3234              		.file 14 "ChibiOS_3.0.2/os/rt/include/chsem.h"
 3235              		.file 15 "ChibiOS_3.0.2/os/rt/include/chmtx.h"
 3236              		.file 16 "ChibiOS_3.0.2/os/rt/include/chmemcore.h"
 3237              		.file 17 "ChibiOS_3.0.2/os/rt/include/chheap.h"
 3238              		.file 18 "./datatypes.h"
 3239              		.file 19 "ChibiOS_3.0.2/os/rt/include/chsys.h"
 3240              		.file 20 "ChibiOS_3.0.2/os/ext/CMSIS/include/core_cm4.h"
 3241              		.file 21 "./conf_general.h"
 3242              		.file 22 "mc_interface.h"
 3243              		.file 23 "ChibiOS_3.0.2/os/rt/include/chregistry.h"
 3244              		.file 24 "/usr/include/newlib/stdio.h"
 3245              		.file 25 "commands.h"
 3246              		.file 26 "mcpwm_foc.h"
 3247              		.file 27 "mcpwm.h"
 3248              		.file 28 "encoder.h"
 3249              		.file 29 "comm_can.h"
 3250              		.file 30 "ChibiOS_3.0.2/os/rt/include/chthreads.h"
 3251              		.file 31 "timeout.h"
 3252              		.file 32 "/usr/include/newlib/string.h"