ARM GAS  /tmp/ccCYQVbb.s 			page 1


   1              		.syntax unified
   2              		.cpu cortex-m4
   3              		.eabi_attribute 27, 3
   4              		.eabi_attribute 28, 1
   5              		.fpu fpv4-sp-d16
   6              		.eabi_attribute 20, 1
   7              		.eabi_attribute 21, 1
   8              		.eabi_attribute 23, 3
   9              		.eabi_attribute 24, 1
  10              		.eabi_attribute 25, 1
  11              		.eabi_attribute 26, 1
  12              		.eabi_attribute 30, 2
  13              		.eabi_attribute 34, 1
  14              		.eabi_attribute 18, 4
  15              		.thumb
  16              		.file	"timeout.c"
  17              		.text
  18              	.Ltext0:
  19              		.cfi_sections	.debug_frame
  20              		.section	.text.timeout_thread,"ax",%progbits
  21              		.align	2
  22              		.p2align 4,,15
  23              		.thumb
  24              		.thumb_func
  25              		.type	timeout_thread, %function
  26              	timeout_thread:
  27              	.LFB225:
  28              		.file 1 "timeout.c"
  29              		.loc 1 63 0
  30              		.cfi_startproc
  31              		@ args = 0, pretend = 0, frame = 0
  32              		@ frame_needed = 0, uses_anonymous_args = 0
  33              	.LVL0:
  34 0000 2DE9F84F 		push	{r3, r4, r5, r6, r7, r8, r9, r10, fp, lr}
  35              		.cfi_def_cfa_offset 40
  36              		.cfi_offset 3, -40
  37              		.cfi_offset 4, -36
  38              		.cfi_offset 5, -32
  39              		.cfi_offset 6, -28
  40              		.cfi_offset 7, -24
  41              		.cfi_offset 8, -20
  42              		.cfi_offset 9, -16
  43              		.cfi_offset 10, -12
  44              		.cfi_offset 11, -8
  45              		.cfi_offset 14, -4
  46              	.LBB47:
  47              	.LBB48:
  48              		.file 2 "ChibiOS_3.0.2/os/rt/include/chregistry.h"
  49              		.loc 2 135 0
  50 0004 174F     		ldr	r7, .L10
  51 0006 184C     		ldr	r4, .L10+4
  52 0008 BB69     		ldr	r3, [r7, #24]
  53 000a 184A     		ldr	r2, .L10+8
  54 000c DFF864A0 		ldr	r10, .L10+16
  55 0010 DFF864B0 		ldr	fp, .L10+20
  56 0014 164D     		ldr	r5, .L10+12
  57              	.LBE48:
ARM GAS  /tmp/ccCYQVbb.s 			page 2


  58              	.LBE47:
  59              		.loc 1 69 0
  60 0016 DFF86490 		ldr	r9, .L10+24
  61              	.LBB50:
  62              	.LBB49:
  63              		.loc 2 135 0
  64 001a 9A61     		str	r2, [r3, #24]
  65              	.LBE49:
  66              	.LBE50:
  67              		.loc 1 69 0
  68 001c A046     		mov	r8, r4
  69              		.loc 1 74 0
  70 001e 0026     		movs	r6, #0
  71              	.LVL1:
  72              	.L4:
  73              		.loc 1 69 0
  74 0020 2368     		ldr	r3, [r4]
  75 0022 42F21072 		movw	r2, #10000
  76 0026 73B1     		cbz	r3, .L2
  77              		.loc 1 69 0 is_stmt 0 discriminator 1
  78 0028 DAF80030 		ldr	r3, [r10]
  79              	.LVL2:
  80              	.LBB51:
  81              	.LBB52:
  82              	.LBB53:
  83              	.LBB54:
  84              		.file 3 "ChibiOS_3.0.2/os/rt/include/chvt.h"
  85              		.loc 3 231 0 is_stmt 1 discriminator 1
  86 002c B96A     		ldr	r1, [r7, #40]
  87              	.LBE54:
  88              	.LBE53:
  89              	.LBE52:
  90              	.LBE51:
  91              		.loc 1 69 0 discriminator 1
  92 002e D8F80000 		ldr	r0, [r8]
  93 0032 02FB00F2 		mul	r2, r2, r0
  94 0036 02F2E732 		addw	r2, r2, #999
  95              	.LBB56:
  96              	.LBB55:
  97              		.loc 3 267 0 discriminator 1
  98 003a CB1A     		subs	r3, r1, r3
  99              	.LVL3:
 100              	.LBE55:
 101              	.LBE56:
 102              		.loc 1 69 0 discriminator 1
 103 003c A9FB0212 		umull	r1, r2, r9, r2
 104 0040 B3EB921F 		cmp	r3, r2, lsr #6
 105 0044 04D8     		bhi	.L9
 106              	.L2:
 107              		.loc 1 74 0
 108 0046 2E70     		strb	r6, [r5]
 109              	.L3:
 110              		.loc 1 77 0
 111 0048 6420     		movs	r0, #100
 112 004a FFF7FEFF 		bl	chThdSleep
 113              	.LVL4:
 114              		.loc 1 78 0
ARM GAS  /tmp/ccCYQVbb.s 			page 3


 115 004e E7E7     		b	.L4
 116              	.L9:
 117              		.loc 1 70 0
 118 0050 FFF7FEFF 		bl	mc_interface_unlock
 119              	.LVL5:
 120              		.loc 1 71 0
 121 0054 9BED000A 		flds	s0, [fp]
 122 0058 FFF7FEFF 		bl	mc_interface_set_brake_current
 123              	.LVL6:
 124              		.loc 1 72 0
 125 005c 0123     		movs	r3, #1
 126 005e 2B70     		strb	r3, [r5]
 127 0060 F2E7     		b	.L3
 128              	.L11:
 129 0062 00BF     		.align	2
 130              	.L10:
 131 0064 00000000 		.word	ch
 132 0068 00000000 		.word	.LANCHOR0
 133 006c 00000000 		.word	.LC0
 134 0070 00000000 		.word	.LANCHOR3
 135 0074 00000000 		.word	.LANCHOR1
 136 0078 00000000 		.word	.LANCHOR2
 137 007c D34D6210 		.word	274877907
 138              		.cfi_endproc
 139              	.LFE225:
 140              		.size	timeout_thread, .-timeout_thread
 141              		.section	.text.timeout_init,"ax",%progbits
 142              		.align	2
 143              		.p2align 4,,15
 144              		.global	timeout_init
 145              		.thumb
 146              		.thumb_func
 147              		.type	timeout_init, %function
 148              	timeout_init:
 149              	.LFB219:
 150              		.loc 1 33 0
 151              		.cfi_startproc
 152              		@ args = 0, pretend = 0, frame = 0
 153              		@ frame_needed = 0, uses_anonymous_args = 0
 154 0000 2DE9F041 		push	{r4, r5, r6, r7, r8, lr}
 155              		.cfi_def_cfa_offset 24
 156              		.cfi_offset 4, -24
 157              		.cfi_offset 5, -20
 158              		.cfi_offset 6, -16
 159              		.cfi_offset 7, -12
 160              		.cfi_offset 8, -8
 161              		.cfi_offset 14, -4
 162              		.loc 1 34 0
 163 0004 DFF848E0 		ldr	lr, .L13+20
 164              		.loc 1 35 0
 165 0008 0C4F     		ldr	r7, .L13
 166              		.loc 1 36 0
 167 000a 0D4E     		ldr	r6, .L13+4
 168              		.loc 1 37 0
 169 000c 0D4D     		ldr	r5, .L13+8
 170              		.loc 1 39 0
 171 000e 0E4B     		ldr	r3, .L13+12
ARM GAS  /tmp/ccCYQVbb.s 			page 4


 172 0010 0E48     		ldr	r0, .L13+16
 173              		.loc 1 33 0
 174 0012 82B0     		sub	sp, sp, #8
 175              		.cfi_def_cfa_offset 32
 176              		.loc 1 35 0
 177 0014 0024     		movs	r4, #0
 178              		.loc 1 34 0
 179 0016 4FF47A7C 		mov	ip, #1000
 180              		.loc 1 39 0
 181 001a 0094     		str	r4, [sp]
 182              		.loc 1 36 0
 183 001c 4FF00008 		mov	r8, #0
 184              		.loc 1 34 0
 185 0020 CEF800C0 		str	ip, [lr]
 186              		.loc 1 39 0
 187 0024 4FF46671 		mov	r1, #920
 188              		.loc 1 35 0
 189 0028 3C60     		str	r4, [r7]
 190              		.loc 1 39 0
 191 002a 4022     		movs	r2, #64
 192              		.loc 1 36 0
 193 002c C6F80080 		str	r8, [r6]	@ float
 194              		.loc 1 37 0
 195 0030 2C70     		strb	r4, [r5]
 196              		.loc 1 39 0
 197 0032 FFF7FEFF 		bl	chThdCreateStatic
 198              	.LVL7:
 199              		.loc 1 40 0
 200 0036 02B0     		add	sp, sp, #8
 201              		@ sp needed
 202 0038 BDE8F081 		pop	{r4, r5, r6, r7, r8, pc}
 203              	.L14:
 204              		.align	2
 205              	.L13:
 206 003c 00000000 		.word	.LANCHOR1
 207 0040 00000000 		.word	.LANCHOR2
 208 0044 00000000 		.word	.LANCHOR3
 209 0048 00000000 		.word	timeout_thread
 210 004c 00000000 		.word	.LANCHOR4
 211 0050 00000000 		.word	.LANCHOR0
 212              		.cfi_endproc
 213              	.LFE219:
 214              		.size	timeout_init, .-timeout_init
 215 0054 AFF30080 		.section	.text.timeout_configure,"ax",%progbits
 215      AFF30080 
 215      AFF30080 
 216              		.align	2
 217              		.p2align 4,,15
 218              		.global	timeout_configure
 219              		.thumb
 220              		.thumb_func
 221              		.type	timeout_configure, %function
 222              	timeout_configure:
 223              	.LFB220:
 224              		.loc 1 42 0
 225              		.cfi_startproc
 226              		@ args = 0, pretend = 0, frame = 0
ARM GAS  /tmp/ccCYQVbb.s 			page 5


 227              		@ frame_needed = 0, uses_anonymous_args = 0
 228              		@ link register save eliminated.
 229              	.LVL8:
 230              		.loc 1 43 0
 231 0000 024A     		ldr	r2, .L16
 232              		.loc 1 44 0
 233 0002 034B     		ldr	r3, .L16+4
 234              		.loc 1 43 0
 235 0004 1060     		str	r0, [r2]
 236              		.loc 1 44 0
 237 0006 83ED000A 		fsts	s0, [r3]
 238 000a 7047     		bx	lr
 239              	.L17:
 240              		.align	2
 241              	.L16:
 242 000c 00000000 		.word	.LANCHOR0
 243 0010 00000000 		.word	.LANCHOR2
 244              		.cfi_endproc
 245              	.LFE220:
 246              		.size	timeout_configure, .-timeout_configure
 247 0014 AFF30080 		.section	.text.timeout_reset,"ax",%progbits
 247      AFF30080 
 247      AFF30080 
 248              		.align	2
 249              		.p2align 4,,15
 250              		.global	timeout_reset
 251              		.thumb
 252              		.thumb_func
 253              		.type	timeout_reset, %function
 254              	timeout_reset:
 255              	.LFB221:
 256              		.loc 1 47 0
 257              		.cfi_startproc
 258              		@ args = 0, pretend = 0, frame = 0
 259              		@ frame_needed = 0, uses_anonymous_args = 0
 260              		@ link register save eliminated.
 261              	.LVL9:
 262              	.LBB57:
 263              	.LBB58:
 264              	.LBB59:
 265              	.LBB60:
 266              	.LBB61:
 267              	.LBB62:
 268              		.file 4 "ChibiOS_3.0.2/os/ext/CMSIS/include/core_cmFunc.h"
 269              		.loc 4 546 0
 270 0000 2023     		movs	r3, #32
 271              	@ 546 "ChibiOS_3.0.2/os/ext/CMSIS/include/core_cmFunc.h" 1
 272 0002 83F31188 		MSR basepri, r3
 273              	@ 0 "" 2
 274              		.thumb
 275              	.LBE62:
 276              	.LBE61:
 277              	.LBE60:
 278              	.LBE59:
 279              	.LBB63:
 280              	.LBB64:
 281              		.loc 3 231 0
ARM GAS  /tmp/ccCYQVbb.s 			page 6


 282 0006 044A     		ldr	r2, .L19
 283              	.LBE64:
 284              	.LBE63:
 285              	.LBB66:
 286              	.LBB67:
 287              	.LBB68:
 288              	.LBB69:
 289              	.LBB70:
 290              		.loc 4 546 0
 291 0008 0023     		movs	r3, #0
 292              	.LBE70:
 293              	.LBE69:
 294              	.LBE68:
 295              	.LBE67:
 296              	.LBE66:
 297              	.LBB75:
 298              	.LBB65:
 299              		.loc 3 231 0
 300 000a 926A     		ldr	r2, [r2, #40]
 301              	.LVL10:
 302              	.LBE65:
 303              	.LBE75:
 304              	.LBB76:
 305              	.LBB74:
 306              	.LBB73:
 307              	.LBB72:
 308              	.LBB71:
 309              		.loc 4 546 0
 310              	@ 546 "ChibiOS_3.0.2/os/ext/CMSIS/include/core_cmFunc.h" 1
 311 000c 83F31188 		MSR basepri, r3
 312              	@ 0 "" 2
 313              		.thumb
 314              	.LBE71:
 315              	.LBE72:
 316              	.LBE73:
 317              	.LBE74:
 318              	.LBE76:
 319              	.LBE58:
 320              	.LBE57:
 321              		.loc 1 48 0
 322 0010 024B     		ldr	r3, .L19+4
 323 0012 1A60     		str	r2, [r3]
 324 0014 7047     		bx	lr
 325              	.L20:
 326 0016 00BF     		.align	2
 327              	.L19:
 328 0018 00000000 		.word	ch
 329 001c 00000000 		.word	.LANCHOR1
 330              		.cfi_endproc
 331              	.LFE221:
 332              		.size	timeout_reset, .-timeout_reset
 333              		.section	.text.timeout_has_timeout,"ax",%progbits
 334              		.align	2
 335              		.p2align 4,,15
 336              		.global	timeout_has_timeout
 337              		.thumb
 338              		.thumb_func
ARM GAS  /tmp/ccCYQVbb.s 			page 7


 339              		.type	timeout_has_timeout, %function
 340              	timeout_has_timeout:
 341              	.LFB222:
 342              		.loc 1 51 0
 343              		.cfi_startproc
 344              		@ args = 0, pretend = 0, frame = 0
 345              		@ frame_needed = 0, uses_anonymous_args = 0
 346              		@ link register save eliminated.
 347              		.loc 1 52 0
 348 0000 014B     		ldr	r3, .L22
 349 0002 1878     		ldrb	r0, [r3]	@ zero_extendqisi2
 350              		.loc 1 53 0
 351 0004 7047     		bx	lr
 352              	.L23:
 353 0006 00BF     		.align	2
 354              	.L22:
 355 0008 00000000 		.word	.LANCHOR3
 356              		.cfi_endproc
 357              	.LFE222:
 358              		.size	timeout_has_timeout, .-timeout_has_timeout
 359 000c AFF30080 		.section	.text.timeout_get_timeout_msec,"ax",%progbits
 360              		.align	2
 361              		.p2align 4,,15
 362              		.global	timeout_get_timeout_msec
 363              		.thumb
 364              		.thumb_func
 365              		.type	timeout_get_timeout_msec, %function
 366              	timeout_get_timeout_msec:
 367              	.LFB223:
 368              		.loc 1 55 0
 369              		.cfi_startproc
 370              		@ args = 0, pretend = 0, frame = 0
 371              		@ frame_needed = 0, uses_anonymous_args = 0
 372              		@ link register save eliminated.
 373              		.loc 1 56 0
 374 0000 014B     		ldr	r3, .L25
 375 0002 1868     		ldr	r0, [r3]
 376              		.loc 1 57 0
 377 0004 7047     		bx	lr
 378              	.L26:
 379 0006 00BF     		.align	2
 380              	.L25:
 381 0008 00000000 		.word	.LANCHOR0
 382              		.cfi_endproc
 383              	.LFE223:
 384              		.size	timeout_get_timeout_msec, .-timeout_get_timeout_msec
 385 000c AFF30080 		.section	.text.timeout_get_brake_current,"ax",%progbits
 386              		.align	2
 387              		.p2align 4,,15
 388              		.global	timeout_get_brake_current
 389              		.thumb
 390              		.thumb_func
 391              		.type	timeout_get_brake_current, %function
 392              	timeout_get_brake_current:
 393              	.LFB224:
 394              		.loc 1 59 0
 395              		.cfi_startproc
ARM GAS  /tmp/ccCYQVbb.s 			page 8


 396              		@ args = 0, pretend = 0, frame = 0
 397              		@ frame_needed = 0, uses_anonymous_args = 0
 398              		@ link register save eliminated.
 399              		.loc 1 60 0
 400 0000 014B     		ldr	r3, .L28
 401 0002 93ED000A 		flds	s0, [r3]
 402              		.loc 1 61 0
 403 0006 7047     		bx	lr
 404              	.L29:
 405              		.align	2
 406              	.L28:
 407 0008 00000000 		.word	.LANCHOR2
 408              		.cfi_endproc
 409              	.LFE224:
 410              		.size	timeout_get_brake_current, .-timeout_get_brake_current
 411 000c AFF30080 		.section	.bss.timeout_thread_wa,"aw",%nobits
 412              		.align	3
 413              		.set	.LANCHOR4,. + 0
 414              		.type	timeout_thread_wa, %object
 415              		.size	timeout_thread_wa, 920
 416              	timeout_thread_wa:
 417 0000 00000000 		.space	920
 417      00000000 
 417      00000000 
 417      00000000 
 417      00000000 
 418              		.section	.bss.last_update_time,"aw",%nobits
 419              		.align	2
 420              		.set	.LANCHOR1,. + 0
 421              		.type	last_update_time, %object
 422              		.size	last_update_time, 4
 423              	last_update_time:
 424 0000 00000000 		.space	4
 425              		.section	.rodata.str1.4,"aMS",%progbits,1
 426              		.align	2
 427              	.LC0:
 428 0000 54696D65 		.ascii	"Timeout\000"
 428      6F757400 
 429              		.section	.bss.timeout_brake_current,"aw",%nobits
 430              		.align	2
 431              		.set	.LANCHOR2,. + 0
 432              		.type	timeout_brake_current, %object
 433              		.size	timeout_brake_current, 4
 434              	timeout_brake_current:
 435 0000 00000000 		.space	4
 436              		.section	.bss.has_timeout,"aw",%nobits
 437              		.set	.LANCHOR3,. + 0
 438              		.type	has_timeout, %object
 439              		.size	has_timeout, 1
 440              	has_timeout:
 441 0000 00       		.space	1
 442              		.section	.bss.timeout_msec,"aw",%nobits
 443              		.align	2
 444              		.set	.LANCHOR0,. + 0
 445              		.type	timeout_msec, %object
 446              		.size	timeout_msec, 4
 447              	timeout_msec:
ARM GAS  /tmp/ccCYQVbb.s 			page 9


 448 0000 00000000 		.space	4
 449              		.text
 450              	.Letext0:
 451              		.file 5 "/usr/lib/gcc/arm-none-eabi/4.8/include/stddef.h"
 452              		.file 6 "/usr/include/newlib/machine/_default_types.h"
 453              		.file 7 "/usr/include/newlib/stdint.h"
 454              		.file 8 "ChibiOS_3.0.2/os/rt/ports/ARMCMx/compilers/GCC/chtypes.h"
 455              		.file 9 "ChibiOS_3.0.2/os/rt/include/chsystypes.h"
 456              		.file 10 "ChibiOS_3.0.2/os/rt/include/chschd.h"
 457              		.file 11 "ChibiOS_3.0.2/os/rt/ports/ARMCMx/chcore.h"
 458              		.file 12 "ChibiOS_3.0.2/os/rt/ports/ARMCMx/chcore_v7m.h"
 459              		.file 13 "ChibiOS_3.0.2/os/rt/include/chtm.h"
 460              		.file 14 "ChibiOS_3.0.2/os/rt/include/chsem.h"
 461              		.file 15 "ChibiOS_3.0.2/os/rt/include/chmtx.h"
 462              		.file 16 "ChibiOS_3.0.2/os/rt/include/chthreads.h"
 463              		.file 17 "ChibiOS_3.0.2/os/rt/include/chsys.h"
 464              		.file 18 "mc_interface.h"
 465              		.file 19 "ChibiOS_3.0.2/os/ext/CMSIS/include/core_cm4.h"