ARM GAS  /tmp/ccgqwmVH.s 			page 1


   1              		.syntax unified
   2              		.cpu cortex-m4
   3              		.eabi_attribute 27, 3
   4              		.eabi_attribute 28, 1
   5              		.fpu fpv4-sp-d16
   6              		.eabi_attribute 20, 1
   7              		.eabi_attribute 21, 1
   8              		.eabi_attribute 23, 3
   9              		.eabi_attribute 24, 1
  10              		.eabi_attribute 25, 1
  11              		.eabi_attribute 26, 1
  12              		.eabi_attribute 30, 2
  13              		.eabi_attribute 34, 1
  14              		.eabi_attribute 18, 4
  15              		.thumb
  16              		.file	"uart.c"
  17              		.text
  18              	.Ltext0:
  19              		.cfi_sections	.debug_frame
  20              		.section	.text.uartInit,"ax",%progbits
  21              		.align	2
  22              		.p2align 4,,15
  23              		.global	uartInit
  24              		.thumb
  25              		.thumb_func
  26              		.type	uartInit, %function
  27              	uartInit:
  28              	.LFB256:
  29              		.file 1 "ChibiOS_3.0.2/os/hal/src/uart.c"
  30              		.loc 1 56 0
  31              		.cfi_startproc
  32              		@ args = 0, pretend = 0, frame = 0
  33              		@ frame_needed = 0, uses_anonymous_args = 0
  34              		@ link register save eliminated.
  35              		.loc 1 58 0
  36 0000 FFF7FEBF 		b	uart_lld_init
  37              	.LVL0:
  38              		.cfi_endproc
  39              	.LFE256:
  40              		.size	uartInit, .-uartInit
  41 0004 AFF30080 		.section	.text.uartObjectInit,"ax",%progbits
  41      AFF30080 
  41      AFF30080 
  42              		.align	2
  43              		.p2align 4,,15
  44              		.global	uartObjectInit
  45              		.thumb
  46              		.thumb_func
  47              		.type	uartObjectInit, %function
  48              	uartObjectInit:
  49              	.LFB257:
  50              		.loc 1 68 0
  51              		.cfi_startproc
  52              		@ args = 0, pretend = 0, frame = 0
  53              		@ frame_needed = 0, uses_anonymous_args = 0
  54              		@ link register save eliminated.
  55              	.LVL1:
ARM GAS  /tmp/ccgqwmVH.s 			page 2


  56              		.loc 1 71 0
  57 0000 0023     		movs	r3, #0
  58              		.loc 1 70 0
  59 0002 0122     		movs	r2, #1
  60 0004 0270     		strb	r2, [r0]
  61              		.loc 1 71 0
  62 0006 4370     		strb	r3, [r0, #1]
  63              		.loc 1 72 0
  64 0008 8370     		strb	r3, [r0, #2]
  65              		.loc 1 73 0
  66 000a 4360     		str	r3, [r0, #4]
  67 000c 7047     		bx	lr
  68              		.cfi_endproc
  69              	.LFE257:
  70              		.size	uartObjectInit, .-uartObjectInit
  71 000e 00BF     		.section	.text.uartStart,"ax",%progbits
  72              		.align	2
  73              		.p2align 4,,15
  74              		.global	uartStart
  75              		.thumb
  76              		.thumb_func
  77              		.type	uartStart, %function
  78              	uartStart:
  79              	.LFB258:
  80              		.loc 1 88 0
  81              		.cfi_startproc
  82              		@ args = 0, pretend = 0, frame = 0
  83              		@ frame_needed = 0, uses_anonymous_args = 0
  84              	.LVL2:
  85 0000 10B5     		push	{r4, lr}
  86              		.cfi_def_cfa_offset 8
  87              		.cfi_offset 4, -8
  88              		.cfi_offset 14, -4
  89              	.LBB102:
  90              	.LBB103:
  91              	.LBB104:
  92              	.LBB105:
  93              	.LBB106:
  94              		.file 2 "ChibiOS_3.0.2/os/ext/CMSIS/include/core_cmFunc.h"
  95              		.loc 2 546 0
  96 0002 2023     		movs	r3, #32
  97              	.LBE106:
  98              	.LBE105:
  99              	.LBE104:
 100              	.LBE103:
 101              	.LBE102:
 102              		.loc 1 88 0
 103 0004 0446     		mov	r4, r0
 104              	.LBB111:
 105              	.LBB110:
 106              	.LBB109:
 107              	.LBB108:
 108              	.LBB107:
 109              		.loc 2 546 0
 110              	@ 546 "ChibiOS_3.0.2/os/ext/CMSIS/include/core_cmFunc.h" 1
 111 0006 83F31188 		MSR basepri, r3
 112              	@ 0 "" 2
ARM GAS  /tmp/ccgqwmVH.s 			page 3


 113              		.thumb
 114              	.LBE107:
 115              	.LBE108:
 116              	.LBE109:
 117              	.LBE110:
 118              	.LBE111:
 119              		.loc 1 96 0
 120 000a 4160     		str	r1, [r0, #4]
 121              		.loc 1 97 0
 122 000c FFF7FEFF 		bl	uart_lld_start
 123              	.LVL3:
 124              		.loc 1 98 0
 125 0010 0223     		movs	r3, #2
 126 0012 2370     		strb	r3, [r4]
 127              	.LVL4:
 128              	.LBB112:
 129              	.LBB113:
 130              	.LBB114:
 131              	.LBB115:
 132              	.LBB116:
 133              	.LBB117:
 134              		.loc 2 546 0
 135 0014 0023     		movs	r3, #0
 136              	@ 546 "ChibiOS_3.0.2/os/ext/CMSIS/include/core_cmFunc.h" 1
 137 0016 83F31188 		MSR basepri, r3
 138              	@ 0 "" 2
 139              		.thumb
 140 001a 10BD     		pop	{r4, pc}
 141              	.LBE117:
 142              	.LBE116:
 143              	.LBE115:
 144              	.LBE114:
 145              	.LBE113:
 146              	.LBE112:
 147              		.cfi_endproc
 148              	.LFE258:
 149              		.size	uartStart, .-uartStart
 150 001c AFF30080 		.section	.text.uartStop,"ax",%progbits
 151              		.align	2
 152              		.p2align 4,,15
 153              		.global	uartStop
 154              		.thumb
 155              		.thumb_func
 156              		.type	uartStop, %function
 157              	uartStop:
 158              	.LFB259:
 159              		.loc 1 109 0
 160              		.cfi_startproc
 161              		@ args = 0, pretend = 0, frame = 0
 162              		@ frame_needed = 0, uses_anonymous_args = 0
 163              	.LVL5:
 164 0000 10B5     		push	{r4, lr}
 165              		.cfi_def_cfa_offset 8
 166              		.cfi_offset 4, -8
 167              		.cfi_offset 14, -4
 168              	.LBB118:
 169              	.LBB119:
ARM GAS  /tmp/ccgqwmVH.s 			page 4


 170              	.LBB120:
 171              	.LBB121:
 172              	.LBB122:
 173              		.loc 2 546 0
 174 0002 2023     		movs	r3, #32
 175              	.LBE122:
 176              	.LBE121:
 177              	.LBE120:
 178              	.LBE119:
 179              	.LBE118:
 180              		.loc 1 109 0
 181 0004 0446     		mov	r4, r0
 182              	.LBB127:
 183              	.LBB126:
 184              	.LBB125:
 185              	.LBB124:
 186              	.LBB123:
 187              		.loc 2 546 0
 188              	@ 546 "ChibiOS_3.0.2/os/ext/CMSIS/include/core_cmFunc.h" 1
 189 0006 83F31188 		MSR basepri, r3
 190              	@ 0 "" 2
 191              		.thumb
 192              	.LBE123:
 193              	.LBE124:
 194              	.LBE125:
 195              	.LBE126:
 196              	.LBE127:
 197              		.loc 1 117 0
 198 000a FFF7FEFF 		bl	uart_lld_stop
 199              	.LVL6:
 200              		.loc 1 119 0
 201 000e 0023     		movs	r3, #0
 202              		.loc 1 118 0
 203 0010 0122     		movs	r2, #1
 204 0012 2270     		strb	r2, [r4]
 205              		.loc 1 119 0
 206 0014 6370     		strb	r3, [r4, #1]
 207              		.loc 1 120 0
 208 0016 A370     		strb	r3, [r4, #2]
 209              	.LVL7:
 210              	.LBB128:
 211              	.LBB129:
 212              	.LBB130:
 213              	.LBB131:
 214              	.LBB132:
 215              	.LBB133:
 216              		.loc 2 546 0
 217              	@ 546 "ChibiOS_3.0.2/os/ext/CMSIS/include/core_cmFunc.h" 1
 218 0018 83F31188 		MSR basepri, r3
 219              	@ 0 "" 2
 220              		.thumb
 221 001c 10BD     		pop	{r4, pc}
 222              	.LBE133:
 223              	.LBE132:
 224              	.LBE131:
 225              	.LBE130:
 226              	.LBE129:
ARM GAS  /tmp/ccgqwmVH.s 			page 5


 227              	.LBE128:
 228              		.cfi_endproc
 229              	.LFE259:
 230              		.size	uartStop, .-uartStop
 231 001e 00BF     		.section	.text.uartStartSend,"ax",%progbits
 232              		.align	2
 233              		.p2align 4,,15
 234              		.global	uartStartSend
 235              		.thumb
 236              		.thumb_func
 237              		.type	uartStartSend, %function
 238              	uartStartSend:
 239              	.LFB260:
 240              		.loc 1 135 0
 241              		.cfi_startproc
 242              		@ args = 0, pretend = 0, frame = 0
 243              		@ frame_needed = 0, uses_anonymous_args = 0
 244              	.LVL8:
 245 0000 10B5     		push	{r4, lr}
 246              		.cfi_def_cfa_offset 8
 247              		.cfi_offset 4, -8
 248              		.cfi_offset 14, -4
 249              	.LBB134:
 250              	.LBB135:
 251              	.LBB136:
 252              	.LBB137:
 253              	.LBB138:
 254              		.loc 2 546 0
 255 0002 2023     		movs	r3, #32
 256              	.LBE138:
 257              	.LBE137:
 258              	.LBE136:
 259              	.LBE135:
 260              	.LBE134:
 261              		.loc 1 135 0
 262 0004 0446     		mov	r4, r0
 263              	.LBB143:
 264              	.LBB142:
 265              	.LBB141:
 266              	.LBB140:
 267              	.LBB139:
 268              		.loc 2 546 0
 269              	@ 546 "ChibiOS_3.0.2/os/ext/CMSIS/include/core_cmFunc.h" 1
 270 0006 83F31188 		MSR basepri, r3
 271              	@ 0 "" 2
 272              		.thumb
 273              	.LBE139:
 274              	.LBE140:
 275              	.LBE141:
 276              	.LBE142:
 277              	.LBE143:
 278              		.loc 1 143 0
 279 000a FFF7FEFF 		bl	uart_lld_start_send
 280              	.LVL9:
 281              		.loc 1 144 0
 282 000e 0123     		movs	r3, #1
 283 0010 6370     		strb	r3, [r4, #1]
ARM GAS  /tmp/ccgqwmVH.s 			page 6


 284              	.LVL10:
 285              	.LBB144:
 286              	.LBB145:
 287              	.LBB146:
 288              	.LBB147:
 289              	.LBB148:
 290              	.LBB149:
 291              		.loc 2 546 0
 292 0012 0023     		movs	r3, #0
 293              	@ 546 "ChibiOS_3.0.2/os/ext/CMSIS/include/core_cmFunc.h" 1
 294 0014 83F31188 		MSR basepri, r3
 295              	@ 0 "" 2
 296              		.thumb
 297 0018 10BD     		pop	{r4, pc}
 298              	.LBE149:
 299              	.LBE148:
 300              	.LBE147:
 301              	.LBE146:
 302              	.LBE145:
 303              	.LBE144:
 304              		.cfi_endproc
 305              	.LFE260:
 306              		.size	uartStartSend, .-uartStartSend
 307 001a 00BFAFF3 		.section	.text.uartStartSendI,"ax",%progbits
 307      0080
 308              		.align	2
 309              		.p2align 4,,15
 310              		.global	uartStartSendI
 311              		.thumb
 312              		.thumb_func
 313              		.type	uartStartSendI, %function
 314              	uartStartSendI:
 315              	.LFB261:
 316              		.loc 1 160 0
 317              		.cfi_startproc
 318              		@ args = 0, pretend = 0, frame = 0
 319              		@ frame_needed = 0, uses_anonymous_args = 0
 320              	.LVL11:
 321 0000 10B5     		push	{r4, lr}
 322              		.cfi_def_cfa_offset 8
 323              		.cfi_offset 4, -8
 324              		.cfi_offset 14, -4
 325              		.loc 1 160 0
 326 0002 0446     		mov	r4, r0
 327              		.loc 1 167 0
 328 0004 FFF7FEFF 		bl	uart_lld_start_send
 329              	.LVL12:
 330              		.loc 1 168 0
 331 0008 0123     		movs	r3, #1
 332 000a 6370     		strb	r3, [r4, #1]
 333 000c 10BD     		pop	{r4, pc}
 334              		.cfi_endproc
 335              	.LFE261:
 336              		.size	uartStartSendI, .-uartStartSendI
 337 000e 00BF     		.section	.text.uartStopSend,"ax",%progbits
 338              		.align	2
 339              		.p2align 4,,15
ARM GAS  /tmp/ccgqwmVH.s 			page 7


 340              		.global	uartStopSend
 341              		.thumb
 342              		.thumb_func
 343              		.type	uartStopSend, %function
 344              	uartStopSend:
 345              	.LFB262:
 346              		.loc 1 183 0
 347              		.cfi_startproc
 348              		@ args = 0, pretend = 0, frame = 0
 349              		@ frame_needed = 0, uses_anonymous_args = 0
 350              	.LVL13:
 351 0000 10B5     		push	{r4, lr}
 352              		.cfi_def_cfa_offset 8
 353              		.cfi_offset 4, -8
 354              		.cfi_offset 14, -4
 355              	.LBB150:
 356              	.LBB151:
 357              	.LBB152:
 358              	.LBB153:
 359              	.LBB154:
 360              		.loc 2 546 0
 361 0002 2023     		movs	r3, #32
 362              	.LBE154:
 363              	.LBE153:
 364              	.LBE152:
 365              	.LBE151:
 366              	.LBE150:
 367              		.loc 1 183 0
 368 0004 0446     		mov	r4, r0
 369              	.LBB159:
 370              	.LBB158:
 371              	.LBB157:
 372              	.LBB156:
 373              	.LBB155:
 374              		.loc 2 546 0
 375              	@ 546 "ChibiOS_3.0.2/os/ext/CMSIS/include/core_cmFunc.h" 1
 376 0006 83F31188 		MSR basepri, r3
 377              	@ 0 "" 2
 378              		.thumb
 379              	.LBE155:
 380              	.LBE156:
 381              	.LBE157:
 382              	.LBE158:
 383              	.LBE159:
 384              		.loc 1 191 0
 385 000a 4378     		ldrb	r3, [r0, #1]	@ zero_extendqisi2
 386 000c 012B     		cmp	r3, #1
 387 000e 04D0     		beq	.L11
 388              		.loc 1 196 0
 389 0010 0020     		movs	r0, #0
 390              	.LVL14:
 391              	.LBB160:
 392              	.LBB161:
 393              	.LBB162:
 394              	.LBB163:
 395              	.LBB164:
 396              	.LBB165:
ARM GAS  /tmp/ccgqwmVH.s 			page 8


 397              		.loc 2 546 0
 398 0012 0023     		movs	r3, #0
 399              	@ 546 "ChibiOS_3.0.2/os/ext/CMSIS/include/core_cmFunc.h" 1
 400 0014 83F31188 		MSR basepri, r3
 401              	@ 0 "" 2
 402              		.thumb
 403              	.LBE165:
 404              	.LBE164:
 405              	.LBE163:
 406              	.LBE162:
 407              	.LBE161:
 408              	.LBE160:
 409              		.loc 1 201 0
 410 0018 10BD     		pop	{r4, pc}
 411              	.LVL15:
 412              	.L11:
 413              		.loc 1 192 0
 414 001a FFF7FEFF 		bl	uart_lld_stop_send
 415              	.LVL16:
 416              		.loc 1 193 0
 417 001e 0023     		movs	r3, #0
 418 0020 6370     		strb	r3, [r4, #1]
 419              	.LVL17:
 420              	.LBB171:
 421              	.LBB170:
 422              	.LBB169:
 423              	.LBB168:
 424              	.LBB167:
 425              	.LBB166:
 426              		.loc 2 546 0
 427 0022 0023     		movs	r3, #0
 428              	@ 546 "ChibiOS_3.0.2/os/ext/CMSIS/include/core_cmFunc.h" 1
 429 0024 83F31188 		MSR basepri, r3
 430              	@ 0 "" 2
 431              		.thumb
 432              	.LBE166:
 433              	.LBE167:
 434              	.LBE168:
 435              	.LBE169:
 436              	.LBE170:
 437              	.LBE171:
 438              		.loc 1 201 0
 439 0028 10BD     		pop	{r4, pc}
 440              		.cfi_endproc
 441              	.LFE262:
 442              		.size	uartStopSend, .-uartStopSend
 443 002a 00BFAFF3 		.section	.text.uartStopSendI,"ax",%progbits
 443      0080
 444              		.align	2
 445              		.p2align 4,,15
 446              		.global	uartStopSendI
 447              		.thumb
 448              		.thumb_func
 449              		.type	uartStopSendI, %function
 450              	uartStopSendI:
 451              	.LFB263:
 452              		.loc 1 216 0
ARM GAS  /tmp/ccgqwmVH.s 			page 9


 453              		.cfi_startproc
 454              		@ args = 0, pretend = 0, frame = 0
 455              		@ frame_needed = 0, uses_anonymous_args = 0
 456              	.LVL18:
 457              		.loc 1 222 0
 458 0000 4378     		ldrb	r3, [r0, #1]	@ zero_extendqisi2
 459 0002 012B     		cmp	r3, #1
 460              		.loc 1 216 0
 461 0004 10B5     		push	{r4, lr}
 462              		.cfi_def_cfa_offset 8
 463              		.cfi_offset 4, -8
 464              		.cfi_offset 14, -4
 465              		.loc 1 216 0
 466 0006 0446     		mov	r4, r0
 467              		.loc 1 222 0
 468 0008 01D0     		beq	.L15
 469              		.loc 1 227 0
 470 000a 0020     		movs	r0, #0
 471              	.LVL19:
 472              		.loc 1 228 0
 473 000c 10BD     		pop	{r4, pc}
 474              	.LVL20:
 475              	.L15:
 476              	.LBB172:
 477              		.loc 1 223 0
 478 000e FFF7FEFF 		bl	uart_lld_stop_send
 479              	.LVL21:
 480              		.loc 1 224 0
 481 0012 0023     		movs	r3, #0
 482 0014 6370     		strb	r3, [r4, #1]
 483              		.loc 1 225 0
 484 0016 10BD     		pop	{r4, pc}
 485              	.LBE172:
 486              		.cfi_endproc
 487              	.LFE263:
 488              		.size	uartStopSendI, .-uartStopSendI
 489 0018 AFF30080 		.section	.text.uartStartReceive,"ax",%progbits
 489      AFF30080 
 490              		.align	2
 491              		.p2align 4,,15
 492              		.global	uartStartReceive
 493              		.thumb
 494              		.thumb_func
 495              		.type	uartStartReceive, %function
 496              	uartStartReceive:
 497              	.LFB264:
 498              		.loc 1 241 0
 499              		.cfi_startproc
 500              		@ args = 0, pretend = 0, frame = 0
 501              		@ frame_needed = 0, uses_anonymous_args = 0
 502              	.LVL22:
 503 0000 10B5     		push	{r4, lr}
 504              		.cfi_def_cfa_offset 8
 505              		.cfi_offset 4, -8
 506              		.cfi_offset 14, -4
 507              	.LBB173:
 508              	.LBB174:
ARM GAS  /tmp/ccgqwmVH.s 			page 10


 509              	.LBB175:
 510              	.LBB176:
 511              	.LBB177:
 512              		.loc 2 546 0
 513 0002 2023     		movs	r3, #32
 514              	.LBE177:
 515              	.LBE176:
 516              	.LBE175:
 517              	.LBE174:
 518              	.LBE173:
 519              		.loc 1 241 0
 520 0004 0446     		mov	r4, r0
 521              	.LBB182:
 522              	.LBB181:
 523              	.LBB180:
 524              	.LBB179:
 525              	.LBB178:
 526              		.loc 2 546 0
 527              	@ 546 "ChibiOS_3.0.2/os/ext/CMSIS/include/core_cmFunc.h" 1
 528 0006 83F31188 		MSR basepri, r3
 529              	@ 0 "" 2
 530              		.thumb
 531              	.LBE178:
 532              	.LBE179:
 533              	.LBE180:
 534              	.LBE181:
 535              	.LBE182:
 536              		.loc 1 249 0
 537 000a FFF7FEFF 		bl	uart_lld_start_receive
 538              	.LVL23:
 539              		.loc 1 250 0
 540 000e 0123     		movs	r3, #1
 541 0010 A370     		strb	r3, [r4, #2]
 542              	.LVL24:
 543              	.LBB183:
 544              	.LBB184:
 545              	.LBB185:
 546              	.LBB186:
 547              	.LBB187:
 548              	.LBB188:
 549              		.loc 2 546 0
 550 0012 0023     		movs	r3, #0
 551              	@ 546 "ChibiOS_3.0.2/os/ext/CMSIS/include/core_cmFunc.h" 1
 552 0014 83F31188 		MSR basepri, r3
 553              	@ 0 "" 2
 554              		.thumb
 555 0018 10BD     		pop	{r4, pc}
 556              	.LBE188:
 557              	.LBE187:
 558              	.LBE186:
 559              	.LBE185:
 560              	.LBE184:
 561              	.LBE183:
 562              		.cfi_endproc
 563              	.LFE264:
 564              		.size	uartStartReceive, .-uartStartReceive
 565 001a 00BFAFF3 		.section	.text.uartStartReceiveI,"ax",%progbits
ARM GAS  /tmp/ccgqwmVH.s 			page 11


 565      0080
 566              		.align	2
 567              		.p2align 4,,15
 568              		.global	uartStartReceiveI
 569              		.thumb
 570              		.thumb_func
 571              		.type	uartStartReceiveI, %function
 572              	uartStartReceiveI:
 573              	.LFB265:
 574              		.loc 1 266 0
 575              		.cfi_startproc
 576              		@ args = 0, pretend = 0, frame = 0
 577              		@ frame_needed = 0, uses_anonymous_args = 0
 578              	.LVL25:
 579 0000 10B5     		push	{r4, lr}
 580              		.cfi_def_cfa_offset 8
 581              		.cfi_offset 4, -8
 582              		.cfi_offset 14, -4
 583              		.loc 1 266 0
 584 0002 0446     		mov	r4, r0
 585              		.loc 1 273 0
 586 0004 FFF7FEFF 		bl	uart_lld_start_receive
 587              	.LVL26:
 588              		.loc 1 274 0
 589 0008 0123     		movs	r3, #1
 590 000a A370     		strb	r3, [r4, #2]
 591 000c 10BD     		pop	{r4, pc}
 592              		.cfi_endproc
 593              	.LFE265:
 594              		.size	uartStartReceiveI, .-uartStartReceiveI
 595 000e 00BF     		.section	.text.uartStopReceive,"ax",%progbits
 596              		.align	2
 597              		.p2align 4,,15
 598              		.global	uartStopReceive
 599              		.thumb
 600              		.thumb_func
 601              		.type	uartStopReceive, %function
 602              	uartStopReceive:
 603              	.LFB266:
 604              		.loc 1 289 0
 605              		.cfi_startproc
 606              		@ args = 0, pretend = 0, frame = 0
 607              		@ frame_needed = 0, uses_anonymous_args = 0
 608              	.LVL27:
 609 0000 10B5     		push	{r4, lr}
 610              		.cfi_def_cfa_offset 8
 611              		.cfi_offset 4, -8
 612              		.cfi_offset 14, -4
 613              	.LBB189:
 614              	.LBB190:
 615              	.LBB191:
 616              	.LBB192:
 617              	.LBB193:
 618              		.loc 2 546 0
 619 0002 2023     		movs	r3, #32
 620              	.LBE193:
 621              	.LBE192:
ARM GAS  /tmp/ccgqwmVH.s 			page 12


 622              	.LBE191:
 623              	.LBE190:
 624              	.LBE189:
 625              		.loc 1 289 0
 626 0004 0446     		mov	r4, r0
 627              	.LBB198:
 628              	.LBB197:
 629              	.LBB196:
 630              	.LBB195:
 631              	.LBB194:
 632              		.loc 2 546 0
 633              	@ 546 "ChibiOS_3.0.2/os/ext/CMSIS/include/core_cmFunc.h" 1
 634 0006 83F31188 		MSR basepri, r3
 635              	@ 0 "" 2
 636              		.thumb
 637              	.LBE194:
 638              	.LBE195:
 639              	.LBE196:
 640              	.LBE197:
 641              	.LBE198:
 642              		.loc 1 297 0
 643 000a 8378     		ldrb	r3, [r0, #2]	@ zero_extendqisi2
 644 000c 012B     		cmp	r3, #1
 645 000e 04D0     		beq	.L21
 646              		.loc 1 302 0
 647 0010 0020     		movs	r0, #0
 648              	.LVL28:
 649              	.LBB199:
 650              	.LBB200:
 651              	.LBB201:
 652              	.LBB202:
 653              	.LBB203:
 654              	.LBB204:
 655              		.loc 2 546 0
 656 0012 0023     		movs	r3, #0
 657              	@ 546 "ChibiOS_3.0.2/os/ext/CMSIS/include/core_cmFunc.h" 1
 658 0014 83F31188 		MSR basepri, r3
 659              	@ 0 "" 2
 660              		.thumb
 661              	.LBE204:
 662              	.LBE203:
 663              	.LBE202:
 664              	.LBE201:
 665              	.LBE200:
 666              	.LBE199:
 667              		.loc 1 307 0
 668 0018 10BD     		pop	{r4, pc}
 669              	.LVL29:
 670              	.L21:
 671              		.loc 1 298 0
 672 001a FFF7FEFF 		bl	uart_lld_stop_receive
 673              	.LVL30:
 674              		.loc 1 299 0
 675 001e 0023     		movs	r3, #0
 676 0020 A370     		strb	r3, [r4, #2]
 677              	.LVL31:
 678              	.LBB210:
ARM GAS  /tmp/ccgqwmVH.s 			page 13


 679              	.LBB209:
 680              	.LBB208:
 681              	.LBB207:
 682              	.LBB206:
 683              	.LBB205:
 684              		.loc 2 546 0
 685 0022 0023     		movs	r3, #0
 686              	@ 546 "ChibiOS_3.0.2/os/ext/CMSIS/include/core_cmFunc.h" 1
 687 0024 83F31188 		MSR basepri, r3
 688              	@ 0 "" 2
 689              		.thumb
 690              	.LBE205:
 691              	.LBE206:
 692              	.LBE207:
 693              	.LBE208:
 694              	.LBE209:
 695              	.LBE210:
 696              		.loc 1 307 0
 697 0028 10BD     		pop	{r4, pc}
 698              		.cfi_endproc
 699              	.LFE266:
 700              		.size	uartStopReceive, .-uartStopReceive
 701 002a 00BFAFF3 		.section	.text.uartStopReceiveI,"ax",%progbits
 701      0080
 702              		.align	2
 703              		.p2align 4,,15
 704              		.global	uartStopReceiveI
 705              		.thumb
 706              		.thumb_func
 707              		.type	uartStopReceiveI, %function
 708              	uartStopReceiveI:
 709              	.LFB267:
 710              		.loc 1 322 0
 711              		.cfi_startproc
 712              		@ args = 0, pretend = 0, frame = 0
 713              		@ frame_needed = 0, uses_anonymous_args = 0
 714              	.LVL32:
 715              		.loc 1 328 0
 716 0000 8378     		ldrb	r3, [r0, #2]	@ zero_extendqisi2
 717 0002 012B     		cmp	r3, #1
 718              		.loc 1 322 0
 719 0004 10B5     		push	{r4, lr}
 720              		.cfi_def_cfa_offset 8
 721              		.cfi_offset 4, -8
 722              		.cfi_offset 14, -4
 723              		.loc 1 322 0
 724 0006 0446     		mov	r4, r0
 725              		.loc 1 328 0
 726 0008 01D0     		beq	.L25
 727              		.loc 1 333 0
 728 000a 0020     		movs	r0, #0
 729              	.LVL33:
 730              		.loc 1 334 0
 731 000c 10BD     		pop	{r4, pc}
 732              	.LVL34:
 733              	.L25:
 734              	.LBB211:
ARM GAS  /tmp/ccgqwmVH.s 			page 14


 735              		.loc 1 329 0
 736 000e FFF7FEFF 		bl	uart_lld_stop_receive
 737              	.LVL35:
 738              		.loc 1 330 0
 739 0012 0023     		movs	r3, #0
 740 0014 A370     		strb	r3, [r4, #2]
 741              		.loc 1 331 0
 742 0016 10BD     		pop	{r4, pc}
 743              	.LBE211:
 744              		.cfi_endproc
 745              	.LFE267:
 746              		.size	uartStopReceiveI, .-uartStopReceiveI
 747 0018 AFF30080 		.text
 747      AFF30080 
 748              	.Letext0:
 749              		.file 3 "/usr/lib/gcc/arm-none-eabi/4.8/include/stddef.h"
 750              		.file 4 "/usr/include/newlib/machine/_default_types.h"
 751              		.file 5 "/usr/include/newlib/stdint.h"
 752              		.file 6 "ChibiOS_3.0.2/os/rt/ports/ARMCMx/compilers/GCC/chtypes.h"
 753              		.file 7 "ChibiOS_3.0.2/os/rt/include/chsystypes.h"
 754              		.file 8 "ChibiOS_3.0.2/os/rt/include/chschd.h"
 755              		.file 9 "ChibiOS_3.0.2/os/ext/CMSIS/ST/stm32f407xx.h"
 756              		.file 10 "ChibiOS_3.0.2/os/rt/ports/ARMCMx/chcore.h"
 757              		.file 11 "ChibiOS_3.0.2/os/rt/ports/ARMCMx/chcore_v7m.h"
 758              		.file 12 "ChibiOS_3.0.2/os/rt/include/chtm.h"
 759              		.file 13 "ChibiOS_3.0.2/os/rt/include/chsem.h"
 760              		.file 14 "ChibiOS_3.0.2/os/rt/include/chmtx.h"
 761              		.file 15 "ChibiOS_3.0.2/os/hal/ports/STM32/STM32F4xx/stm32_dma.h"
 762              		.file 16 "ChibiOS_3.0.2/os/hal/include/uart.h"
 763              		.file 17 "ChibiOS_3.0.2/os/hal/ports/STM32/LLD/USARTv1/uart_lld.h"
 764              		.file 18 "ChibiOS_3.0.2/os/rt/include/chsys.h"
 765              		.file 19 "ChibiOS_3.0.2/os/hal/osal/rt/osal.h"
 766              		.file 20 "ChibiOS_3.0.2/os/ext/CMSIS/include/core_cm4.h"
 767              		.section	.debug_info,"",%progbits
 768              	.Ldebug_info0:
 769 0000 F8130000 		.4byte	0x13f8
 770 0004 0400     		.2byte	0x4
 771 0006 00000000 		.4byte	.Ldebug_abbrev0
 772 000a 04       		.byte	0x4
 773 000b 01       		.uleb128 0x1
 774 000c 1A020000 		.4byte	.LASF182
 775 0010 01       		.byte	0x1
 776 0011 73030000 		.4byte	.LASF183
 777 0015 14030000 		.4byte	.LASF184
 778 0019 C0000000 		.4byte	.Ldebug_ranges0+0xc0
 779 001d 00000000 		.4byte	0
 780 0021 00000000 		.4byte	.Ldebug_line0
 781 0025 02       		.uleb128 0x2
 782 0026 04       		.byte	0x4
 783 0027 05       		.byte	0x5
 784 0028 696E7400 		.ascii	"int\000"
 785 002c 03       		.uleb128 0x3
 786 002d 2F000000 		.4byte	.LASF2
 787 0031 03       		.byte	0x3
 788 0032 D4       		.byte	0xd4
 789 0033 37000000 		.4byte	0x37
 790 0037 04       		.uleb128 0x4
ARM GAS  /tmp/ccgqwmVH.s 			page 15


 791 0038 04       		.byte	0x4
 792 0039 07       		.byte	0x7
 793 003a 99030000 		.4byte	.LASF0
 794 003e 04       		.uleb128 0x4
 795 003f 01       		.byte	0x1
 796 0040 06       		.byte	0x6
 797 0041 27010000 		.4byte	.LASF1
 798 0045 03       		.uleb128 0x3
 799 0046 50000000 		.4byte	.LASF3
 800 004a 04       		.byte	0x4
 801 004b 1D       		.byte	0x1d
 802 004c 50000000 		.4byte	0x50
 803 0050 04       		.uleb128 0x4
 804 0051 01       		.byte	0x1
 805 0052 08       		.byte	0x8
 806 0053 1A060000 		.4byte	.LASF4
 807 0057 04       		.uleb128 0x4
 808 0058 02       		.byte	0x2
 809 0059 05       		.byte	0x5
 810 005a 45060000 		.4byte	.LASF5
 811 005e 03       		.uleb128 0x3
 812 005f 5B070000 		.4byte	.LASF6
 813 0063 04       		.byte	0x4
 814 0064 2B       		.byte	0x2b
 815 0065 69000000 		.4byte	0x69
 816 0069 04       		.uleb128 0x4
 817 006a 02       		.byte	0x2
 818 006b 07       		.byte	0x7
 819 006c F2030000 		.4byte	.LASF7
 820 0070 03       		.uleb128 0x3
 821 0071 80040000 		.4byte	.LASF8
 822 0075 04       		.byte	0x4
 823 0076 3F       		.byte	0x3f
 824 0077 7B000000 		.4byte	0x7b
 825 007b 04       		.uleb128 0x4
 826 007c 04       		.byte	0x4
 827 007d 05       		.byte	0x5
 828 007e 83010000 		.4byte	.LASF9
 829 0082 03       		.uleb128 0x3
 830 0083 94070000 		.4byte	.LASF10
 831 0087 04       		.byte	0x4
 832 0088 41       		.byte	0x41
 833 0089 8D000000 		.4byte	0x8d
 834 008d 04       		.uleb128 0x4
 835 008e 04       		.byte	0x4
 836 008f 07       		.byte	0x7
 837 0090 21070000 		.4byte	.LASF11
 838 0094 04       		.uleb128 0x4
 839 0095 08       		.byte	0x8
 840 0096 05       		.byte	0x5
 841 0097 19010000 		.4byte	.LASF12
 842 009b 03       		.uleb128 0x3
 843 009c 85050000 		.4byte	.LASF13
 844 00a0 04       		.byte	0x4
 845 00a1 5B       		.byte	0x5b
 846 00a2 A6000000 		.4byte	0xa6
 847 00a6 04       		.uleb128 0x4
ARM GAS  /tmp/ccgqwmVH.s 			page 16


 848 00a7 08       		.byte	0x8
 849 00a8 07       		.byte	0x7
 850 00a9 8C000000 		.4byte	.LASF14
 851 00ad 03       		.uleb128 0x3
 852 00ae 59080000 		.4byte	.LASF15
 853 00b2 05       		.byte	0x5
 854 00b3 2A       		.byte	0x2a
 855 00b4 45000000 		.4byte	0x45
 856 00b8 03       		.uleb128 0x3
 857 00b9 B6010000 		.4byte	.LASF16
 858 00bd 05       		.byte	0x5
 859 00be 36       		.byte	0x36
 860 00bf 5E000000 		.4byte	0x5e
 861 00c3 03       		.uleb128 0x3
 862 00c4 12060000 		.4byte	.LASF17
 863 00c8 05       		.byte	0x5
 864 00c9 41       		.byte	0x41
 865 00ca 70000000 		.4byte	0x70
 866 00ce 03       		.uleb128 0x3
 867 00cf D7080000 		.4byte	.LASF18
 868 00d3 05       		.byte	0x5
 869 00d4 42       		.byte	0x42
 870 00d5 82000000 		.4byte	0x82
 871 00d9 03       		.uleb128 0x3
 872 00da 47000000 		.4byte	.LASF19
 873 00de 05       		.byte	0x5
 874 00df 4E       		.byte	0x4e
 875 00e0 9B000000 		.4byte	0x9b
 876 00e4 05       		.uleb128 0x5
 877 00e5 B8000000 		.4byte	0xb8
 878 00e9 05       		.uleb128 0x5
 879 00ea C3000000 		.4byte	0xc3
 880 00ee 05       		.uleb128 0x5
 881 00ef CE000000 		.4byte	0xce
 882 00f3 03       		.uleb128 0x3
 883 00f4 FD070000 		.4byte	.LASF20
 884 00f8 06       		.byte	0x6
 885 00f9 45       		.byte	0x45
 886 00fa CE000000 		.4byte	0xce
 887 00fe 03       		.uleb128 0x3
 888 00ff 54040000 		.4byte	.LASF21
 889 0103 06       		.byte	0x6
 890 0104 48       		.byte	0x48
 891 0105 AD000000 		.4byte	0xad
 892 0109 03       		.uleb128 0x3
 893 010a 9D010000 		.4byte	.LASF22
 894 010e 06       		.byte	0x6
 895 010f 49       		.byte	0x49
 896 0110 AD000000 		.4byte	0xad
 897 0114 03       		.uleb128 0x3
 898 0115 96050000 		.4byte	.LASF23
 899 0119 06       		.byte	0x6
 900 011a 4A       		.byte	0x4a
 901 011b AD000000 		.4byte	0xad
 902 011f 03       		.uleb128 0x3
 903 0120 69010000 		.4byte	.LASF24
 904 0124 06       		.byte	0x6
ARM GAS  /tmp/ccgqwmVH.s 			page 17


 905 0125 4B       		.byte	0x4b
 906 0126 AD000000 		.4byte	0xad
 907 012a 03       		.uleb128 0x3
 908 012b D6050000 		.4byte	.LASF25
 909 012f 06       		.byte	0x6
 910 0130 4C       		.byte	0x4c
 911 0131 CE000000 		.4byte	0xce
 912 0135 03       		.uleb128 0x3
 913 0136 2B040000 		.4byte	.LASF26
 914 013a 06       		.byte	0x6
 915 013b 4D       		.byte	0x4d
 916 013c C3000000 		.4byte	0xc3
 917 0140 03       		.uleb128 0x3
 918 0141 74040000 		.4byte	.LASF27
 919 0145 06       		.byte	0x6
 920 0146 4F       		.byte	0x4f
 921 0147 CE000000 		.4byte	0xce
 922 014b 03       		.uleb128 0x3
 923 014c 0B050000 		.4byte	.LASF28
 924 0150 06       		.byte	0x6
 925 0151 51       		.byte	0x51
 926 0152 C3000000 		.4byte	0xc3
 927 0156 03       		.uleb128 0x3
 928 0157 76070000 		.4byte	.LASF29
 929 015b 07       		.byte	0x7
 930 015c 33       		.byte	0x33
 931 015d CE000000 		.4byte	0xce
 932 0161 03       		.uleb128 0x3
 933 0162 66070000 		.4byte	.LASF30
 934 0166 07       		.byte	0x7
 935 0167 3F       		.byte	0x3f
 936 0168 6C010000 		.4byte	0x16c
 937 016c 06       		.uleb128 0x6
 938 016d 1B040000 		.4byte	.LASF52
 939 0171 48       		.byte	0x48
 940 0172 08       		.byte	0x8
 941 0173 C2       		.byte	0xc2
 942 0174 71020000 		.4byte	0x271
 943 0178 07       		.uleb128 0x7
 944 0179 76060000 		.4byte	.LASF31
 945 017d 08       		.byte	0x8
 946 017e C3       		.byte	0xc3
 947 017f 7C020000 		.4byte	0x27c
 948 0183 00       		.byte	0
 949 0184 07       		.uleb128 0x7
 950 0185 AE050000 		.4byte	.LASF32
 951 0189 08       		.byte	0x8
 952 018a C5       		.byte	0xc5
 953 018b 7C020000 		.4byte	0x27c
 954 018f 04       		.byte	0x4
 955 0190 07       		.uleb128 0x7
 956 0191 F4000000 		.4byte	.LASF33
 957 0195 08       		.byte	0x8
 958 0196 C7       		.byte	0xc7
 959 0197 2A010000 		.4byte	0x12a
 960 019b 08       		.byte	0x8
 961 019c 07       		.uleb128 0x7
ARM GAS  /tmp/ccgqwmVH.s 			page 18


 962 019d E0080000 		.4byte	.LASF34
 963 01a1 08       		.byte	0x8
 964 01a2 C8       		.byte	0xc8
 965 01a3 7E050000 		.4byte	0x57e
 966 01a7 0C       		.byte	0xc
 967 01a8 07       		.uleb128 0x7
 968 01a9 DB010000 		.4byte	.LASF35
 969 01ad 08       		.byte	0x8
 970 01ae CA       		.byte	0xca
 971 01af 7C020000 		.4byte	0x27c
 972 01b3 10       		.byte	0x10
 973 01b4 07       		.uleb128 0x7
 974 01b5 2B050000 		.4byte	.LASF36
 975 01b9 08       		.byte	0x8
 976 01ba CB       		.byte	0xcb
 977 01bb 7C020000 		.4byte	0x27c
 978 01bf 14       		.byte	0x14
 979 01c0 07       		.uleb128 0x7
 980 01c1 36080000 		.4byte	.LASF37
 981 01c5 08       		.byte	0x8
 982 01c6 D2       		.byte	0xd2
 983 01c7 C3070000 		.4byte	0x7c3
 984 01cb 18       		.byte	0x18
 985 01cc 07       		.uleb128 0x7
 986 01cd 4F060000 		.4byte	.LASF38
 987 01d1 08       		.byte	0x8
 988 01d2 DD       		.byte	0xdd
 989 01d3 09010000 		.4byte	0x109
 990 01d7 1C       		.byte	0x1c
 991 01d8 07       		.uleb128 0x7
 992 01d9 90080000 		.4byte	.LASF39
 993 01dd 08       		.byte	0x8
 994 01de E1       		.byte	0xe1
 995 01df FE000000 		.4byte	0xfe
 996 01e3 1D       		.byte	0x1d
 997 01e4 07       		.uleb128 0x7
 998 01e5 3D080000 		.4byte	.LASF40
 999 01e9 08       		.byte	0x8
 1000 01ea E6       		.byte	0xe6
 1001 01eb 14010000 		.4byte	0x114
 1002 01ef 1E       		.byte	0x1e
 1003 01f0 07       		.uleb128 0x7
 1004 01f1 57060000 		.4byte	.LASF41
 1005 01f5 08       		.byte	0x8
 1006 01f6 EC       		.byte	0xec
 1007 01f7 1F010000 		.4byte	0x11f
 1008 01fb 1F       		.byte	0x1f
 1009 01fc 07       		.uleb128 0x7
 1010 01fd E5070000 		.4byte	.LASF42
 1011 0201 08       		.byte	0x8
 1012 0202 F3       		.byte	0xf3
 1013 0203 D5070000 		.4byte	0x7d5
 1014 0207 20       		.byte	0x20
 1015 0208 08       		.uleb128 0x8
 1016 0209 705F7500 		.ascii	"p_u\000"
 1017 020d 08       		.byte	0x8
 1018 020e 3101     		.2byte	0x131
ARM GAS  /tmp/ccgqwmVH.s 			page 19


 1019 0210 FE060000 		.4byte	0x6fe
 1020 0214 24       		.byte	0x24
 1021 0215 09       		.uleb128 0x9
 1022 0216 E6080000 		.4byte	.LASF43
 1023 021a 08       		.byte	0x8
 1024 021b 3601     		.2byte	0x136
 1025 021d 82020000 		.4byte	0x282
 1026 0221 28       		.byte	0x28
 1027 0222 09       		.uleb128 0x9
 1028 0223 05080000 		.4byte	.LASF44
 1029 0227 08       		.byte	0x8
 1030 0228 3C01     		.2byte	0x13c
 1031 022a A6020000 		.4byte	0x2a6
 1032 022e 2C       		.byte	0x2c
 1033 022f 09       		.uleb128 0x9
 1034 0230 B8080000 		.4byte	.LASF45
 1035 0234 08       		.byte	0x8
 1036 0235 4001     		.2byte	0x140
 1037 0237 35010000 		.4byte	0x135
 1038 023b 34       		.byte	0x34
 1039 023c 09       		.uleb128 0x9
 1040 023d C8060000 		.4byte	.LASF46
 1041 0241 08       		.byte	0x8
 1042 0242 4601     		.2byte	0x146
 1043 0244 40010000 		.4byte	0x140
 1044 0248 38       		.byte	0x38
 1045 0249 09       		.uleb128 0x9
 1046 024a 3B060000 		.4byte	.LASF47
 1047 024e 08       		.byte	0x8
 1048 024f 4D01     		.2byte	0x14d
 1049 0251 BD070000 		.4byte	0x7bd
 1050 0255 3C       		.byte	0x3c
 1051 0256 09       		.uleb128 0x9
 1052 0257 80070000 		.4byte	.LASF48
 1053 025b 08       		.byte	0x8
 1054 025c 5101     		.2byte	0x151
 1055 025e 2A010000 		.4byte	0x12a
 1056 0262 40       		.byte	0x40
 1057 0263 09       		.uleb128 0x9
 1058 0264 45010000 		.4byte	.LASF49
 1059 0268 08       		.byte	0x8
 1060 0269 5801     		.2byte	0x158
 1061 026b 59030000 		.4byte	0x359
 1062 026f 44       		.byte	0x44
 1063 0270 00       		.byte	0
 1064 0271 03       		.uleb128 0x3
 1065 0272 CE040000 		.4byte	.LASF50
 1066 0276 07       		.byte	0x7
 1067 0277 44       		.byte	0x44
 1068 0278 7C020000 		.4byte	0x27c
 1069 027c 0A       		.uleb128 0xa
 1070 027d 04       		.byte	0x4
 1071 027e 61010000 		.4byte	0x161
 1072 0282 03       		.uleb128 0x3
 1073 0283 81080000 		.4byte	.LASF51
 1074 0287 07       		.byte	0x7
 1075 0288 49       		.byte	0x49
ARM GAS  /tmp/ccgqwmVH.s 			page 20


 1076 0289 8D020000 		.4byte	0x28d
 1077 028d 06       		.uleb128 0x6
 1078 028e FE060000 		.4byte	.LASF53
 1079 0292 04       		.byte	0x4
 1080 0293 08       		.byte	0x8
 1081 0294 B0       		.byte	0xb0
 1082 0295 A6020000 		.4byte	0x2a6
 1083 0299 07       		.uleb128 0x7
 1084 029a 76060000 		.4byte	.LASF31
 1085 029e 08       		.byte	0x8
 1086 029f B1       		.byte	0xb1
 1087 02a0 7C020000 		.4byte	0x27c
 1088 02a4 00       		.byte	0
 1089 02a5 00       		.byte	0
 1090 02a6 03       		.uleb128 0x3
 1091 02a7 26080000 		.4byte	.LASF54
 1092 02ab 07       		.byte	0x7
 1093 02ac 50       		.byte	0x50
 1094 02ad B1020000 		.4byte	0x2b1
 1095 02b1 06       		.uleb128 0x6
 1096 02b2 E3000000 		.4byte	.LASF55
 1097 02b6 08       		.byte	0x8
 1098 02b7 08       		.byte	0x8
 1099 02b8 B7       		.byte	0xb7
 1100 02b9 D6020000 		.4byte	0x2d6
 1101 02bd 07       		.uleb128 0x7
 1102 02be 76060000 		.4byte	.LASF31
 1103 02c2 08       		.byte	0x8
 1104 02c3 B8       		.byte	0xb8
 1105 02c4 7C020000 		.4byte	0x27c
 1106 02c8 00       		.byte	0
 1107 02c9 07       		.uleb128 0x7
 1108 02ca AE050000 		.4byte	.LASF32
 1109 02ce 08       		.byte	0x8
 1110 02cf B9       		.byte	0xb9
 1111 02d0 7C020000 		.4byte	0x27c
 1112 02d4 04       		.byte	0x4
 1113 02d5 00       		.byte	0
 1114 02d6 03       		.uleb128 0x3
 1115 02d7 1D000000 		.4byte	.LASF56
 1116 02db 07       		.byte	0x7
 1117 02dc 57       		.byte	0x57
 1118 02dd E1020000 		.4byte	0x2e1
 1119 02e1 0B       		.uleb128 0xb
 1120 02e2 66040000 		.4byte	.LASF57
 1121 02e6 1C       		.byte	0x1c
 1122 02e7 08       		.byte	0x8
 1123 02e8 9001     		.2byte	0x190
 1124 02ea 3D030000 		.4byte	0x33d
 1125 02ee 09       		.uleb128 0x9
 1126 02ef EB060000 		.4byte	.LASF58
 1127 02f3 08       		.byte	0x8
 1128 02f4 9101     		.2byte	0x191
 1129 02f6 A6020000 		.4byte	0x2a6
 1130 02fa 00       		.byte	0
 1131 02fb 09       		.uleb128 0x9
 1132 02fc 61060000 		.4byte	.LASF59
ARM GAS  /tmp/ccgqwmVH.s 			page 21


 1133 0300 08       		.byte	0x8
 1134 0301 9201     		.2byte	0x192
 1135 0303 2A010000 		.4byte	0x12a
 1136 0307 08       		.byte	0x8
 1137 0308 09       		.uleb128 0x9
 1138 0309 33050000 		.4byte	.LASF60
 1139 030d 08       		.byte	0x8
 1140 030e 9401     		.2byte	0x194
 1141 0310 7E050000 		.4byte	0x57e
 1142 0314 0C       		.byte	0xc
 1143 0315 09       		.uleb128 0x9
 1144 0316 0A020000 		.4byte	.LASF61
 1145 031a 08       		.byte	0x8
 1146 031b 9701     		.2byte	0x197
 1147 031d 7C020000 		.4byte	0x27c
 1148 0321 10       		.byte	0x10
 1149 0322 09       		.uleb128 0x9
 1150 0323 78050000 		.4byte	.LASF62
 1151 0327 08       		.byte	0x8
 1152 0328 9801     		.2byte	0x198
 1153 032a 7C020000 		.4byte	0x27c
 1154 032e 14       		.byte	0x14
 1155 032f 09       		.uleb128 0x9
 1156 0330 6E050000 		.4byte	.LASF63
 1157 0334 08       		.byte	0x8
 1158 0335 9B01     		.2byte	0x19b
 1159 0337 7C020000 		.4byte	0x27c
 1160 033b 18       		.byte	0x18
 1161 033c 00       		.byte	0
 1162 033d 03       		.uleb128 0x3
 1163 033e 8B070000 		.4byte	.LASF64
 1164 0342 07       		.byte	0x7
 1165 0343 5C       		.byte	0x5c
 1166 0344 48030000 		.4byte	0x348
 1167 0348 0A       		.uleb128 0xa
 1168 0349 04       		.byte	0x4
 1169 034a 4E030000 		.4byte	0x34e
 1170 034e 0C       		.uleb128 0xc
 1171 034f 59030000 		.4byte	0x359
 1172 0353 0D       		.uleb128 0xd
 1173 0354 59030000 		.4byte	0x359
 1174 0358 00       		.byte	0
 1175 0359 0E       		.uleb128 0xe
 1176 035a 04       		.byte	0x4
 1177 035b 03       		.uleb128 0x3
 1178 035c 9E050000 		.4byte	.LASF65
 1179 0360 07       		.byte	0x7
 1180 0361 61       		.byte	0x61
 1181 0362 66030000 		.4byte	0x366
 1182 0366 0B       		.uleb128 0xb
 1183 0367 EC070000 		.4byte	.LASF66
 1184 036b 14       		.byte	0x14
 1185 036c 08       		.byte	0x8
 1186 036d 6B01     		.2byte	0x16b
 1187 036f B5030000 		.4byte	0x3b5
 1188 0373 09       		.uleb128 0x9
 1189 0374 A6030000 		.4byte	.LASF67
ARM GAS  /tmp/ccgqwmVH.s 			page 22


 1190 0378 08       		.byte	0x8
 1191 0379 6C01     		.2byte	0x16c
 1192 037b DA070000 		.4byte	0x7da
 1193 037f 00       		.byte	0
 1194 0380 09       		.uleb128 0x9
 1195 0381 12020000 		.4byte	.LASF68
 1196 0385 08       		.byte	0x8
 1197 0386 6D01     		.2byte	0x16d
 1198 0388 DA070000 		.4byte	0x7da
 1199 038c 04       		.byte	0x4
 1200 038d 09       		.uleb128 0x9
 1201 038e BB030000 		.4byte	.LASF69
 1202 0392 08       		.byte	0x8
 1203 0393 6E01     		.2byte	0x16e
 1204 0395 56010000 		.4byte	0x156
 1205 0399 08       		.byte	0x8
 1206 039a 09       		.uleb128 0x9
 1207 039b 58050000 		.4byte	.LASF70
 1208 039f 08       		.byte	0x8
 1209 03a0 6F01     		.2byte	0x16f
 1210 03a2 3D030000 		.4byte	0x33d
 1211 03a6 0C       		.byte	0xc
 1212 03a7 09       		.uleb128 0x9
 1213 03a8 1F080000 		.4byte	.LASF71
 1214 03ac 08       		.byte	0x8
 1215 03ad 7101     		.2byte	0x171
 1216 03af 59030000 		.4byte	0x359
 1217 03b3 10       		.byte	0x10
 1218 03b4 00       		.byte	0
 1219 03b5 03       		.uleb128 0x3
 1220 03b6 B5000000 		.4byte	.LASF72
 1221 03ba 07       		.byte	0x7
 1222 03bb 66       		.byte	0x66
 1223 03bc C0030000 		.4byte	0x3c0
 1224 03c0 0B       		.uleb128 0xb
 1225 03c1 E1040000 		.4byte	.LASF73
 1226 03c5 10       		.byte	0x10
 1227 03c6 08       		.byte	0x8
 1228 03c7 7B01     		.2byte	0x17b
 1229 03c9 02040000 		.4byte	0x402
 1230 03cd 09       		.uleb128 0x9
 1231 03ce A6030000 		.4byte	.LASF67
 1232 03d2 08       		.byte	0x8
 1233 03d3 7C01     		.2byte	0x17c
 1234 03d5 DA070000 		.4byte	0x7da
 1235 03d9 00       		.byte	0
 1236 03da 09       		.uleb128 0x9
 1237 03db 12020000 		.4byte	.LASF68
 1238 03df 08       		.byte	0x8
 1239 03e0 7E01     		.2byte	0x17e
 1240 03e2 DA070000 		.4byte	0x7da
 1241 03e6 04       		.byte	0x4
 1242 03e7 09       		.uleb128 0x9
 1243 03e8 BB030000 		.4byte	.LASF69
 1244 03ec 08       		.byte	0x8
 1245 03ed 8001     		.2byte	0x180
 1246 03ef 56010000 		.4byte	0x156
ARM GAS  /tmp/ccgqwmVH.s 			page 23


 1247 03f3 08       		.byte	0x8
 1248 03f4 09       		.uleb128 0x9
 1249 03f5 F3060000 		.4byte	.LASF74
 1250 03f9 08       		.byte	0x8
 1251 03fa 8201     		.2byte	0x182
 1252 03fc D5070000 		.4byte	0x7d5
 1253 0400 0C       		.byte	0xc
 1254 0401 00       		.byte	0
 1255 0402 03       		.uleb128 0x3
 1256 0403 C4030000 		.4byte	.LASF75
 1257 0407 07       		.byte	0x7
 1258 0408 6B       		.byte	0x6b
 1259 0409 0D040000 		.4byte	0x40d
 1260 040d 0B       		.uleb128 0xb
 1261 040e FC050000 		.4byte	.LASF76
 1262 0412 04       		.byte	0x4
 1263 0413 08       		.byte	0x8
 1264 0414 A201     		.2byte	0x1a2
 1265 0416 28040000 		.4byte	0x428
 1266 041a 09       		.uleb128 0x9
 1267 041b C1070000 		.4byte	.LASF77
 1268 041f 08       		.byte	0x8
 1269 0420 AA01     		.2byte	0x1aa
 1270 0422 E0070000 		.4byte	0x7e0
 1271 0426 00       		.byte	0
 1272 0427 00       		.byte	0
 1273 0428 03       		.uleb128 0x3
 1274 0429 31040000 		.4byte	.LASF78
 1275 042d 07       		.byte	0x7
 1276 042e 70       		.byte	0x70
 1277 042f 33040000 		.4byte	0x433
 1278 0433 0F       		.uleb128 0xf
 1279 0434 79010000 		.4byte	.LASF79
 1280 0438 5802     		.2byte	0x258
 1281 043a 08       		.byte	0x8
 1282 043b C201     		.2byte	0x1c2
 1283 043d 8F040000 		.4byte	0x48f
 1284 0441 09       		.uleb128 0x9
 1285 0442 53080000 		.4byte	.LASF80
 1286 0446 08       		.byte	0x8
 1287 0447 C601     		.2byte	0x1c6
 1288 0449 D6020000 		.4byte	0x2d6
 1289 044d 00       		.byte	0
 1290 044e 09       		.uleb128 0x9
 1291 044f 75000000 		.4byte	.LASF81
 1292 0453 08       		.byte	0x8
 1293 0454 CA01     		.2byte	0x1ca
 1294 0456 B5030000 		.4byte	0x3b5
 1295 045a 1C       		.byte	0x1c
 1296 045b 08       		.uleb128 0x8
 1297 045c 64626700 		.ascii	"dbg\000"
 1298 0460 08       		.byte	0x8
 1299 0461 CE01     		.2byte	0x1ce
 1300 0463 02040000 		.4byte	0x402
 1301 0467 2C       		.byte	0x2c
 1302 0468 09       		.uleb128 0x9
 1303 0469 AA000000 		.4byte	.LASF82
ARM GAS  /tmp/ccgqwmVH.s 			page 24


 1304 046d 08       		.byte	0x8
 1305 046e D201     		.2byte	0x1d2
 1306 0470 61010000 		.4byte	0x161
 1307 0474 30       		.byte	0x30
 1308 0475 08       		.uleb128 0x8
 1309 0476 746D00   		.ascii	"tm\000"
 1310 0479 08       		.byte	0x8
 1311 047a D701     		.2byte	0x1d7
 1312 047c F3060000 		.4byte	0x6f3
 1313 0480 78       		.byte	0x78
 1314 0481 09       		.uleb128 0x9
 1315 0482 55030000 		.4byte	.LASF83
 1316 0486 08       		.byte	0x8
 1317 0487 E301     		.2byte	0x1e3
 1318 0489 E5070000 		.4byte	0x7e5
 1319 048d 80       		.byte	0x80
 1320 048e 00       		.byte	0
 1321 048f 04       		.uleb128 0x4
 1322 0490 04       		.byte	0x4
 1323 0491 07       		.byte	0x7
 1324 0492 61080000 		.4byte	.LASF84
 1325 0496 10       		.uleb128 0x10
 1326 0497 18       		.byte	0x18
 1327 0498 09       		.byte	0x9
 1328 0499 6B01     		.2byte	0x16b
 1329 049b ED040000 		.4byte	0x4ed
 1330 049f 08       		.uleb128 0x8
 1331 04a0 435200   		.ascii	"CR\000"
 1332 04a3 09       		.byte	0x9
 1333 04a4 6D01     		.2byte	0x16d
 1334 04a6 EE000000 		.4byte	0xee
 1335 04aa 00       		.byte	0
 1336 04ab 09       		.uleb128 0x9
 1337 04ac F7050000 		.4byte	.LASF85
 1338 04b0 09       		.byte	0x9
 1339 04b1 6E01     		.2byte	0x16e
 1340 04b3 EE000000 		.4byte	0xee
 1341 04b7 04       		.byte	0x4
 1342 04b8 08       		.uleb128 0x8
 1343 04b9 50415200 		.ascii	"PAR\000"
 1344 04bd 09       		.byte	0x9
 1345 04be 6F01     		.2byte	0x16f
 1346 04c0 EE000000 		.4byte	0xee
 1347 04c4 08       		.byte	0x8
 1348 04c5 09       		.uleb128 0x9
 1349 04c6 2A000000 		.4byte	.LASF86
 1350 04ca 09       		.byte	0x9
 1351 04cb 7001     		.2byte	0x170
 1352 04cd EE000000 		.4byte	0xee
 1353 04d1 0C       		.byte	0xc
 1354 04d2 09       		.uleb128 0x9
 1355 04d3 10080000 		.4byte	.LASF87
 1356 04d7 09       		.byte	0x9
 1357 04d8 7101     		.2byte	0x171
 1358 04da EE000000 		.4byte	0xee
 1359 04de 10       		.byte	0x10
 1360 04df 08       		.uleb128 0x8
ARM GAS  /tmp/ccgqwmVH.s 			page 25


 1361 04e0 46435200 		.ascii	"FCR\000"
 1362 04e4 09       		.byte	0x9
 1363 04e5 7201     		.2byte	0x172
 1364 04e7 EE000000 		.4byte	0xee
 1365 04eb 14       		.byte	0x14
 1366 04ec 00       		.byte	0
 1367 04ed 11       		.uleb128 0x11
 1368 04ee D2070000 		.4byte	.LASF88
 1369 04f2 09       		.byte	0x9
 1370 04f3 7301     		.2byte	0x173
 1371 04f5 96040000 		.4byte	0x496
 1372 04f9 10       		.uleb128 0x10
 1373 04fa 1C       		.byte	0x1c
 1374 04fb 09       		.byte	0x9
 1375 04fc 0903     		.2byte	0x309
 1376 04fe 5C050000 		.4byte	0x55c
 1377 0502 08       		.uleb128 0x8
 1378 0503 535200   		.ascii	"SR\000"
 1379 0506 09       		.byte	0x9
 1380 0507 0B03     		.2byte	0x30b
 1381 0509 EE000000 		.4byte	0xee
 1382 050d 00       		.byte	0
 1383 050e 08       		.uleb128 0x8
 1384 050f 445200   		.ascii	"DR\000"
 1385 0512 09       		.byte	0x9
 1386 0513 0C03     		.2byte	0x30c
 1387 0515 EE000000 		.4byte	0xee
 1388 0519 04       		.byte	0x4
 1389 051a 08       		.uleb128 0x8
 1390 051b 42525200 		.ascii	"BRR\000"
 1391 051f 09       		.byte	0x9
 1392 0520 0D03     		.2byte	0x30d
 1393 0522 EE000000 		.4byte	0xee
 1394 0526 08       		.byte	0x8
 1395 0527 08       		.uleb128 0x8
 1396 0528 43523100 		.ascii	"CR1\000"
 1397 052c 09       		.byte	0x9
 1398 052d 0E03     		.2byte	0x30e
 1399 052f EE000000 		.4byte	0xee
 1400 0533 0C       		.byte	0xc
 1401 0534 08       		.uleb128 0x8
 1402 0535 43523200 		.ascii	"CR2\000"
 1403 0539 09       		.byte	0x9
 1404 053a 0F03     		.2byte	0x30f
 1405 053c EE000000 		.4byte	0xee
 1406 0540 10       		.byte	0x10
 1407 0541 08       		.uleb128 0x8
 1408 0542 43523300 		.ascii	"CR3\000"
 1409 0546 09       		.byte	0x9
 1410 0547 1003     		.2byte	0x310
 1411 0549 EE000000 		.4byte	0xee
 1412 054d 14       		.byte	0x14
 1413 054e 09       		.uleb128 0x9
 1414 054f 80050000 		.4byte	.LASF89
 1415 0553 09       		.byte	0x9
 1416 0554 1103     		.2byte	0x311
 1417 0556 EE000000 		.4byte	0xee
ARM GAS  /tmp/ccgqwmVH.s 			page 26


 1418 055a 18       		.byte	0x18
 1419 055b 00       		.byte	0
 1420 055c 11       		.uleb128 0x11
 1421 055d 3D040000 		.4byte	.LASF90
 1422 0561 09       		.byte	0x9
 1423 0562 1203     		.2byte	0x312
 1424 0564 F9040000 		.4byte	0x4f9
 1425 0568 03       		.uleb128 0x3
 1426 0569 E2060000 		.4byte	.LASF91
 1427 056d 0A       		.byte	0xa
 1428 056e 65       		.byte	0x65
 1429 056f 59030000 		.4byte	0x359
 1430 0573 03       		.uleb128 0x3
 1431 0574 8A040000 		.4byte	.LASF92
 1432 0578 0A       		.byte	0xa
 1433 0579 6D       		.byte	0x6d
 1434 057a D9000000 		.4byte	0xd9
 1435 057e 06       		.uleb128 0x6
 1436 057f EA030000 		.4byte	.LASF93
 1437 0583 04       		.byte	0x4
 1438 0584 0A       		.byte	0xa
 1439 0585 89       		.byte	0x89
 1440 0586 97050000 		.4byte	0x597
 1441 058a 12       		.uleb128 0x12
 1442 058b 72313300 		.ascii	"r13\000"
 1443 058f 0A       		.byte	0xa
 1444 0590 8A       		.byte	0x8a
 1445 0591 D8060000 		.4byte	0x6d8
 1446 0595 00       		.byte	0
 1447 0596 00       		.byte	0
 1448 0597 06       		.uleb128 0x6
 1449 0598 69000000 		.4byte	.LASF94
 1450 059c 64       		.byte	0x64
 1451 059d 0B       		.byte	0xb
 1452 059e F4       		.byte	0xf4
 1453 059f D8060000 		.4byte	0x6d8
 1454 05a3 12       		.uleb128 0x12
 1455 05a4 73313600 		.ascii	"s16\000"
 1456 05a8 0B       		.byte	0xb
 1457 05a9 F6       		.byte	0xf6
 1458 05aa 68050000 		.4byte	0x568
 1459 05ae 00       		.byte	0
 1460 05af 12       		.uleb128 0x12
 1461 05b0 73313700 		.ascii	"s17\000"
 1462 05b4 0B       		.byte	0xb
 1463 05b5 F7       		.byte	0xf7
 1464 05b6 68050000 		.4byte	0x568
 1465 05ba 04       		.byte	0x4
 1466 05bb 12       		.uleb128 0x12
 1467 05bc 73313800 		.ascii	"s18\000"
 1468 05c0 0B       		.byte	0xb
 1469 05c1 F8       		.byte	0xf8
 1470 05c2 68050000 		.4byte	0x568
 1471 05c6 08       		.byte	0x8
 1472 05c7 12       		.uleb128 0x12
 1473 05c8 73313900 		.ascii	"s19\000"
 1474 05cc 0B       		.byte	0xb
ARM GAS  /tmp/ccgqwmVH.s 			page 27


 1475 05cd F9       		.byte	0xf9
 1476 05ce 68050000 		.4byte	0x568
 1477 05d2 0C       		.byte	0xc
 1478 05d3 12       		.uleb128 0x12
 1479 05d4 73323000 		.ascii	"s20\000"
 1480 05d8 0B       		.byte	0xb
 1481 05d9 FA       		.byte	0xfa
 1482 05da 68050000 		.4byte	0x568
 1483 05de 10       		.byte	0x10
 1484 05df 12       		.uleb128 0x12
 1485 05e0 73323100 		.ascii	"s21\000"
 1486 05e4 0B       		.byte	0xb
 1487 05e5 FB       		.byte	0xfb
 1488 05e6 68050000 		.4byte	0x568
 1489 05ea 14       		.byte	0x14
 1490 05eb 12       		.uleb128 0x12
 1491 05ec 73323200 		.ascii	"s22\000"
 1492 05f0 0B       		.byte	0xb
 1493 05f1 FC       		.byte	0xfc
 1494 05f2 68050000 		.4byte	0x568
 1495 05f6 18       		.byte	0x18
 1496 05f7 12       		.uleb128 0x12
 1497 05f8 73323300 		.ascii	"s23\000"
 1498 05fc 0B       		.byte	0xb
 1499 05fd FD       		.byte	0xfd
 1500 05fe 68050000 		.4byte	0x568
 1501 0602 1C       		.byte	0x1c
 1502 0603 12       		.uleb128 0x12
 1503 0604 73323400 		.ascii	"s24\000"
 1504 0608 0B       		.byte	0xb
 1505 0609 FE       		.byte	0xfe
 1506 060a 68050000 		.4byte	0x568
 1507 060e 20       		.byte	0x20
 1508 060f 12       		.uleb128 0x12
 1509 0610 73323500 		.ascii	"s25\000"
 1510 0614 0B       		.byte	0xb
 1511 0615 FF       		.byte	0xff
 1512 0616 68050000 		.4byte	0x568
 1513 061a 24       		.byte	0x24
 1514 061b 08       		.uleb128 0x8
 1515 061c 73323600 		.ascii	"s26\000"
 1516 0620 0B       		.byte	0xb
 1517 0621 0001     		.2byte	0x100
 1518 0623 68050000 		.4byte	0x568
 1519 0627 28       		.byte	0x28
 1520 0628 08       		.uleb128 0x8
 1521 0629 73323700 		.ascii	"s27\000"
 1522 062d 0B       		.byte	0xb
 1523 062e 0101     		.2byte	0x101
 1524 0630 68050000 		.4byte	0x568
 1525 0634 2C       		.byte	0x2c
 1526 0635 08       		.uleb128 0x8
 1527 0636 73323800 		.ascii	"s28\000"
 1528 063a 0B       		.byte	0xb
 1529 063b 0201     		.2byte	0x102
 1530 063d 68050000 		.4byte	0x568
 1531 0641 30       		.byte	0x30
ARM GAS  /tmp/ccgqwmVH.s 			page 28


 1532 0642 08       		.uleb128 0x8
 1533 0643 73323900 		.ascii	"s29\000"
 1534 0647 0B       		.byte	0xb
 1535 0648 0301     		.2byte	0x103
 1536 064a 68050000 		.4byte	0x568
 1537 064e 34       		.byte	0x34
 1538 064f 08       		.uleb128 0x8
 1539 0650 73333000 		.ascii	"s30\000"
 1540 0654 0B       		.byte	0xb
 1541 0655 0401     		.2byte	0x104
 1542 0657 68050000 		.4byte	0x568
 1543 065b 38       		.byte	0x38
 1544 065c 08       		.uleb128 0x8
 1545 065d 73333100 		.ascii	"s31\000"
 1546 0661 0B       		.byte	0xb
 1547 0662 0501     		.2byte	0x105
 1548 0664 68050000 		.4byte	0x568
 1549 0668 3C       		.byte	0x3c
 1550 0669 08       		.uleb128 0x8
 1551 066a 723400   		.ascii	"r4\000"
 1552 066d 0B       		.byte	0xb
 1553 066e 0701     		.2byte	0x107
 1554 0670 68050000 		.4byte	0x568
 1555 0674 40       		.byte	0x40
 1556 0675 08       		.uleb128 0x8
 1557 0676 723500   		.ascii	"r5\000"
 1558 0679 0B       		.byte	0xb
 1559 067a 0801     		.2byte	0x108
 1560 067c 68050000 		.4byte	0x568
 1561 0680 44       		.byte	0x44
 1562 0681 08       		.uleb128 0x8
 1563 0682 723600   		.ascii	"r6\000"
 1564 0685 0B       		.byte	0xb
 1565 0686 0901     		.2byte	0x109
 1566 0688 68050000 		.4byte	0x568
 1567 068c 48       		.byte	0x48
 1568 068d 08       		.uleb128 0x8
 1569 068e 723700   		.ascii	"r7\000"
 1570 0691 0B       		.byte	0xb
 1571 0692 0A01     		.2byte	0x10a
 1572 0694 68050000 		.4byte	0x568
 1573 0698 4C       		.byte	0x4c
 1574 0699 08       		.uleb128 0x8
 1575 069a 723800   		.ascii	"r8\000"
 1576 069d 0B       		.byte	0xb
 1577 069e 0B01     		.2byte	0x10b
 1578 06a0 68050000 		.4byte	0x568
 1579 06a4 50       		.byte	0x50
 1580 06a5 08       		.uleb128 0x8
 1581 06a6 723900   		.ascii	"r9\000"
 1582 06a9 0B       		.byte	0xb
 1583 06aa 0C01     		.2byte	0x10c
 1584 06ac 68050000 		.4byte	0x568
 1585 06b0 54       		.byte	0x54
 1586 06b1 08       		.uleb128 0x8
 1587 06b2 72313000 		.ascii	"r10\000"
 1588 06b6 0B       		.byte	0xb
ARM GAS  /tmp/ccgqwmVH.s 			page 29


 1589 06b7 0D01     		.2byte	0x10d
 1590 06b9 68050000 		.4byte	0x568
 1591 06bd 58       		.byte	0x58
 1592 06be 08       		.uleb128 0x8
 1593 06bf 72313100 		.ascii	"r11\000"
 1594 06c3 0B       		.byte	0xb
 1595 06c4 0E01     		.2byte	0x10e
 1596 06c6 68050000 		.4byte	0x568
 1597 06ca 5C       		.byte	0x5c
 1598 06cb 08       		.uleb128 0x8
 1599 06cc 6C7200   		.ascii	"lr\000"
 1600 06cf 0B       		.byte	0xb
 1601 06d0 0F01     		.2byte	0x10f
 1602 06d2 68050000 		.4byte	0x568
 1603 06d6 60       		.byte	0x60
 1604 06d7 00       		.byte	0
 1605 06d8 0A       		.uleb128 0xa
 1606 06d9 04       		.byte	0x4
 1607 06da 97050000 		.4byte	0x597
 1608 06de 13       		.uleb128 0x13
 1609 06df 04       		.byte	0x4
 1610 06e0 0C       		.byte	0xc
 1611 06e1 38       		.byte	0x38
 1612 06e2 F3060000 		.4byte	0x6f3
 1613 06e6 07       		.uleb128 0x7
 1614 06e7 CB070000 		.4byte	.LASF95
 1615 06eb 0C       		.byte	0xc
 1616 06ec 3C       		.byte	0x3c
 1617 06ed F3000000 		.4byte	0xf3
 1618 06f1 00       		.byte	0
 1619 06f2 00       		.byte	0
 1620 06f3 03       		.uleb128 0x3
 1621 06f4 1A050000 		.4byte	.LASF96
 1622 06f8 0C       		.byte	0xc
 1623 06f9 3D       		.byte	0x3d
 1624 06fa DE060000 		.4byte	0x6de
 1625 06fe 14       		.uleb128 0x14
 1626 06ff 04       		.byte	0x4
 1627 0700 08       		.byte	0x8
 1628 0701 FA       		.byte	0xfa
 1629 0702 5B070000 		.4byte	0x75b
 1630 0706 15       		.uleb128 0x15
 1631 0707 40000000 		.4byte	.LASF97
 1632 070b 08       		.byte	0x8
 1633 070c 0101     		.2byte	0x101
 1634 070e 35010000 		.4byte	0x135
 1635 0712 15       		.uleb128 0x15
 1636 0713 4B040000 		.4byte	.LASF98
 1637 0717 08       		.byte	0x8
 1638 0718 0801     		.2byte	0x108
 1639 071a 35010000 		.4byte	0x135
 1640 071e 15       		.uleb128 0x15
 1641 071f 68060000 		.4byte	.LASF99
 1642 0723 08       		.byte	0x8
 1643 0724 0F01     		.2byte	0x10f
 1644 0726 59030000 		.4byte	0x359
 1645 072a 15       		.uleb128 0x15
ARM GAS  /tmp/ccgqwmVH.s 			page 30


 1646 072b F8040000 		.4byte	.LASF100
 1647 072f 08       		.byte	0x8
 1648 0730 1601     		.2byte	0x116
 1649 0732 5B070000 		.4byte	0x75b
 1650 0736 15       		.uleb128 0x15
 1651 0737 B4030000 		.4byte	.LASF101
 1652 073b 08       		.byte	0x8
 1653 073c 1E01     		.2byte	0x11e
 1654 073e 86070000 		.4byte	0x786
 1655 0742 15       		.uleb128 0x15
 1656 0743 BA070000 		.4byte	.LASF102
 1657 0747 08       		.byte	0x8
 1658 0748 2701     		.2byte	0x127
 1659 074a BD070000 		.4byte	0x7bd
 1660 074e 15       		.uleb128 0x15
 1661 074f 6F060000 		.4byte	.LASF103
 1662 0753 08       		.byte	0x8
 1663 0754 2F01     		.2byte	0x12f
 1664 0756 40010000 		.4byte	0x140
 1665 075a 00       		.byte	0
 1666 075b 0A       		.uleb128 0xa
 1667 075c 04       		.byte	0x4
 1668 075d 71020000 		.4byte	0x271
 1669 0761 06       		.uleb128 0x6
 1670 0762 BB060000 		.4byte	.LASF104
 1671 0766 0C       		.byte	0xc
 1672 0767 0D       		.byte	0xd
 1673 0768 34       		.byte	0x34
 1674 0769 86070000 		.4byte	0x786
 1675 076d 07       		.uleb128 0x7
 1676 076e E3010000 		.4byte	.LASF105
 1677 0772 0D       		.byte	0xd
 1678 0773 35       		.byte	0x35
 1679 0774 A6020000 		.4byte	0x2a6
 1680 0778 00       		.byte	0
 1681 0779 07       		.uleb128 0x7
 1682 077a E4030000 		.4byte	.LASF106
 1683 077e 0D       		.byte	0xd
 1684 077f 37       		.byte	0x37
 1685 0780 4B010000 		.4byte	0x14b
 1686 0784 08       		.byte	0x8
 1687 0785 00       		.byte	0
 1688 0786 0A       		.uleb128 0xa
 1689 0787 04       		.byte	0x4
 1690 0788 61070000 		.4byte	0x761
 1691 078c 06       		.uleb128 0x6
 1692 078d 72080000 		.4byte	.LASF107
 1693 0791 10       		.byte	0x10
 1694 0792 0E       		.byte	0xe
 1695 0793 39       		.byte	0x39
 1696 0794 BD070000 		.4byte	0x7bd
 1697 0798 07       		.uleb128 0x7
 1698 0799 55010000 		.4byte	.LASF108
 1699 079d 0E       		.byte	0xe
 1700 079e 3A       		.byte	0x3a
 1701 079f A6020000 		.4byte	0x2a6
 1702 07a3 00       		.byte	0
ARM GAS  /tmp/ccgqwmVH.s 			page 31


 1703 07a4 07       		.uleb128 0x7
 1704 07a5 CF080000 		.4byte	.LASF109
 1705 07a9 0E       		.byte	0xe
 1706 07aa 3C       		.byte	0x3c
 1707 07ab 7C020000 		.4byte	0x27c
 1708 07af 08       		.byte	0x8
 1709 07b0 07       		.uleb128 0x7
 1710 07b1 6F070000 		.4byte	.LASF110
 1711 07b5 0E       		.byte	0xe
 1712 07b6 3E       		.byte	0x3e
 1713 07b7 00080000 		.4byte	0x800
 1714 07bb 0C       		.byte	0xc
 1715 07bc 00       		.byte	0
 1716 07bd 0A       		.uleb128 0xa
 1717 07be 04       		.byte	0x4
 1718 07bf 8C070000 		.4byte	0x78c
 1719 07c3 0A       		.uleb128 0xa
 1720 07c4 04       		.byte	0x4
 1721 07c5 C9070000 		.4byte	0x7c9
 1722 07c9 16       		.uleb128 0x16
 1723 07ca CE070000 		.4byte	0x7ce
 1724 07ce 04       		.uleb128 0x4
 1725 07cf 01       		.byte	0x1
 1726 07d0 08       		.byte	0x8
 1727 07d1 42070000 		.4byte	.LASF111
 1728 07d5 05       		.uleb128 0x5
 1729 07d6 56010000 		.4byte	0x156
 1730 07da 0A       		.uleb128 0xa
 1731 07db 04       		.byte	0x4
 1732 07dc 5B030000 		.4byte	0x35b
 1733 07e0 05       		.uleb128 0x5
 1734 07e1 C3070000 		.4byte	0x7c3
 1735 07e5 17       		.uleb128 0x17
 1736 07e6 73050000 		.4byte	0x573
 1737 07ea F5070000 		.4byte	0x7f5
 1738 07ee 18       		.uleb128 0x18
 1739 07ef 8F040000 		.4byte	0x48f
 1740 07f3 3A       		.byte	0x3a
 1741 07f4 00       		.byte	0
 1742 07f5 03       		.uleb128 0x3
 1743 07f6 47030000 		.4byte	.LASF112
 1744 07fa 0E       		.byte	0xe
 1745 07fb 34       		.byte	0x34
 1746 07fc 8C070000 		.4byte	0x78c
 1747 0800 0A       		.uleb128 0xa
 1748 0801 04       		.byte	0x4
 1749 0802 F5070000 		.4byte	0x7f5
 1750 0806 04       		.uleb128 0x4
 1751 0807 04       		.byte	0x4
 1752 0808 04       		.byte	0x4
 1753 0809 90050000 		.4byte	.LASF113
 1754 080d 04       		.uleb128 0x4
 1755 080e 01       		.byte	0x1
 1756 080f 02       		.byte	0x2
 1757 0810 0C060000 		.4byte	.LASF114
 1758 0814 13       		.uleb128 0x13
 1759 0815 0C       		.byte	0xc
ARM GAS  /tmp/ccgqwmVH.s 			page 32


 1760 0816 0F       		.byte	0xf
 1761 0817 DA       		.byte	0xda
 1762 0818 59080000 		.4byte	0x859
 1763 081c 07       		.uleb128 0x7
 1764 081d F0050000 		.4byte	.LASF115
 1765 0821 0F       		.byte	0xf
 1766 0822 DB       		.byte	0xdb
 1767 0823 59080000 		.4byte	0x859
 1768 0827 00       		.byte	0
 1769 0828 07       		.uleb128 0x7
 1770 0829 D3060000 		.4byte	.LASF116
 1771 082d 0F       		.byte	0xf
 1772 082e DC       		.byte	0xdc
 1773 082f 5F080000 		.4byte	0x85f
 1774 0833 04       		.byte	0x4
 1775 0834 07       		.uleb128 0x7
 1776 0835 DD030000 		.4byte	.LASF117
 1777 0839 0F       		.byte	0xf
 1778 083a DD       		.byte	0xdd
 1779 083b AD000000 		.4byte	0xad
 1780 083f 08       		.byte	0x8
 1781 0840 07       		.uleb128 0x7
 1782 0841 15080000 		.4byte	.LASF118
 1783 0845 0F       		.byte	0xf
 1784 0846 DF       		.byte	0xdf
 1785 0847 AD000000 		.4byte	0xad
 1786 084b 09       		.byte	0x9
 1787 084c 07       		.uleb128 0x7
 1788 084d A3000000 		.4byte	.LASF119
 1789 0851 0F       		.byte	0xf
 1790 0852 E0       		.byte	0xe0
 1791 0853 AD000000 		.4byte	0xad
 1792 0857 0A       		.byte	0xa
 1793 0858 00       		.byte	0
 1794 0859 0A       		.uleb128 0xa
 1795 085a 04       		.byte	0x4
 1796 085b ED040000 		.4byte	0x4ed
 1797 085f 0A       		.uleb128 0xa
 1798 0860 04       		.byte	0x4
 1799 0861 EE000000 		.4byte	0xee
 1800 0865 03       		.uleb128 0x3
 1801 0866 B5050000 		.4byte	.LASF120
 1802 086a 0F       		.byte	0xf
 1803 086b E1       		.byte	0xe1
 1804 086c 14080000 		.4byte	0x814
 1805 0870 0A       		.uleb128 0xa
 1806 0871 04       		.byte	0x4
 1807 0872 76080000 		.4byte	0x876
 1808 0876 16       		.uleb128 0x16
 1809 0877 65080000 		.4byte	0x865
 1810 087b 19       		.uleb128 0x19
 1811 087c 01       		.byte	0x1
 1812 087d 10       		.byte	0x10
 1813 087e 3D       		.byte	0x3d
 1814 087f 96080000 		.4byte	0x896
 1815 0883 1A       		.uleb128 0x1a
 1816 0884 05040000 		.4byte	.LASF121
ARM GAS  /tmp/ccgqwmVH.s 			page 33


 1817 0888 00       		.sleb128 0
 1818 0889 1A       		.uleb128 0x1a
 1819 088a 11040000 		.4byte	.LASF122
 1820 088e 01       		.sleb128 1
 1821 088f 1A       		.uleb128 0x1a
 1822 0890 95040000 		.4byte	.LASF123
 1823 0894 02       		.sleb128 2
 1824 0895 00       		.byte	0
 1825 0896 03       		.uleb128 0x3
 1826 0897 7D060000 		.4byte	.LASF124
 1827 089b 10       		.byte	0x10
 1828 089c 41       		.byte	0x41
 1829 089d 7B080000 		.4byte	0x87b
 1830 08a1 19       		.uleb128 0x19
 1831 08a2 01       		.byte	0x1
 1832 08a3 10       		.byte	0x10
 1833 08a4 46       		.byte	0x46
 1834 08a5 BC080000 		.4byte	0x8bc
 1835 08a9 1A       		.uleb128 0x1a
 1836 08aa AD070000 		.4byte	.LASF125
 1837 08ae 00       		.sleb128 0
 1838 08af 1A       		.uleb128 0x1a
 1839 08b0 64030000 		.4byte	.LASF126
 1840 08b4 01       		.sleb128 1
 1841 08b5 1A       		.uleb128 0x1a
 1842 08b6 AA060000 		.4byte	.LASF127
 1843 08ba 02       		.sleb128 2
 1844 08bb 00       		.byte	0
 1845 08bc 03       		.uleb128 0x3
 1846 08bd 60050000 		.4byte	.LASF128
 1847 08c1 10       		.byte	0x10
 1848 08c2 4A       		.byte	0x4a
 1849 08c3 A1080000 		.4byte	0x8a1
 1850 08c7 19       		.uleb128 0x19
 1851 08c8 01       		.byte	0x1
 1852 08c9 10       		.byte	0x10
 1853 08ca 4F       		.byte	0x4f
 1854 08cb E2080000 		.4byte	0x8e2
 1855 08cf 1A       		.uleb128 0x1a
 1856 08d0 4E070000 		.4byte	.LASF129
 1857 08d4 00       		.sleb128 0
 1858 08d5 1A       		.uleb128 0x1a
 1859 08d6 BF040000 		.4byte	.LASF130
 1860 08da 01       		.sleb128 1
 1861 08db 1A       		.uleb128 0x1a
 1862 08dc AE040000 		.4byte	.LASF131
 1863 08e0 02       		.sleb128 2
 1864 08e1 00       		.byte	0
 1865 08e2 03       		.uleb128 0x3
 1866 08e3 EB010000 		.4byte	.LASF132
 1867 08e7 10       		.byte	0x10
 1868 08e8 53       		.byte	0x53
 1869 08e9 C7080000 		.4byte	0x8c7
 1870 08ed 11       		.uleb128 0x11
 1871 08ee 39050000 		.4byte	.LASF133
 1872 08f2 11       		.byte	0x11
 1873 08f3 B101     		.2byte	0x1b1
ARM GAS  /tmp/ccgqwmVH.s 			page 34


 1874 08f5 CE000000 		.4byte	0xce
 1875 08f9 11       		.uleb128 0x11
 1876 08fa FF010000 		.4byte	.LASF134
 1877 08fe 11       		.byte	0x11
 1878 08ff B601     		.2byte	0x1b6
 1879 0901 05090000 		.4byte	0x905
 1880 0905 0B       		.uleb128 0xb
 1881 0906 FF010000 		.4byte	.LASF134
 1882 090a 1C       		.byte	0x1c
 1883 090b 11       		.byte	0x11
 1884 090c FE01     		.2byte	0x1fe
 1885 090e 88090000 		.4byte	0x988
 1886 0912 09       		.uleb128 0x9
 1887 0913 73010000 		.4byte	.LASF135
 1888 0917 11       		.byte	0x11
 1889 0918 0202     		.2byte	0x202
 1890 091a 96080000 		.4byte	0x896
 1891 091e 00       		.byte	0
 1892 091f 09       		.uleb128 0x9
 1893 0920 FB000000 		.4byte	.LASF136
 1894 0924 11       		.byte	0x11
 1895 0925 0602     		.2byte	0x206
 1896 0927 BC080000 		.4byte	0x8bc
 1897 092b 01       		.byte	0x1
 1898 092c 09       		.uleb128 0x9
 1899 092d 4D010000 		.4byte	.LASF137
 1900 0931 11       		.byte	0x11
 1901 0932 0A02     		.2byte	0x20a
 1902 0934 E2080000 		.4byte	0x8e2
 1903 0938 02       		.byte	0x2
 1904 0939 09       		.uleb128 0x9
 1905 093a 47070000 		.4byte	.LASF138
 1906 093e 11       		.byte	0x11
 1907 093f 0E02     		.2byte	0x20e
 1908 0941 7A0A0000 		.4byte	0xa7a
 1909 0945 04       		.byte	0x4
 1910 0946 09       		.uleb128 0x9
 1911 0947 93030000 		.4byte	.LASF139
 1912 094b 11       		.byte	0x11
 1913 094c 1602     		.2byte	0x216
 1914 094e 850A0000 		.4byte	0xa85
 1915 0952 08       		.byte	0x8
 1916 0953 09       		.uleb128 0x9
 1917 0954 6A080000 		.4byte	.LASF140
 1918 0958 11       		.byte	0x11
 1919 0959 1A02     		.2byte	0x21a
 1920 095b CE000000 		.4byte	0xce
 1921 095f 0C       		.byte	0xc
 1922 0960 09       		.uleb128 0x9
 1923 0961 17000000 		.4byte	.LASF141
 1924 0965 11       		.byte	0x11
 1925 0966 1E02     		.2byte	0x21e
 1926 0968 70080000 		.4byte	0x870
 1927 096c 10       		.byte	0x10
 1928 096d 09       		.uleb128 0x9
 1929 096e F9010000 		.4byte	.LASF142
 1930 0972 11       		.byte	0x11
ARM GAS  /tmp/ccgqwmVH.s 			page 35


 1931 0973 2202     		.2byte	0x222
 1932 0975 70080000 		.4byte	0x870
 1933 0979 14       		.byte	0x14
 1934 097a 09       		.uleb128 0x9
 1935 097b 7C000000 		.4byte	.LASF143
 1936 097f 11       		.byte	0x11
 1937 0980 2602     		.2byte	0x226
 1938 0982 E4000000 		.4byte	0xe4
 1939 0986 18       		.byte	0x18
 1940 0987 00       		.byte	0
 1941 0988 11       		.uleb128 0x11
 1942 0989 33010000 		.4byte	.LASF144
 1943 098d 11       		.byte	0x11
 1944 098e BD01     		.2byte	0x1bd
 1945 0990 94090000 		.4byte	0x994
 1946 0994 0A       		.uleb128 0xa
 1947 0995 04       		.byte	0x4
 1948 0996 9A090000 		.4byte	0x99a
 1949 099a 0C       		.uleb128 0xc
 1950 099b A5090000 		.4byte	0x9a5
 1951 099f 0D       		.uleb128 0xd
 1952 09a0 A5090000 		.4byte	0x9a5
 1953 09a4 00       		.byte	0
 1954 09a5 0A       		.uleb128 0xa
 1955 09a6 04       		.byte	0x4
 1956 09a7 F9080000 		.4byte	0x8f9
 1957 09ab 11       		.uleb128 0x11
 1958 09ac 0E070000 		.4byte	.LASF145
 1959 09b0 11       		.byte	0x11
 1960 09b1 C501     		.2byte	0x1c5
 1961 09b3 B7090000 		.4byte	0x9b7
 1962 09b7 0A       		.uleb128 0xa
 1963 09b8 04       		.byte	0x4
 1964 09b9 BD090000 		.4byte	0x9bd
 1965 09bd 0C       		.uleb128 0xc
 1966 09be CD090000 		.4byte	0x9cd
 1967 09c2 0D       		.uleb128 0xd
 1968 09c3 A5090000 		.4byte	0x9a5
 1969 09c7 0D       		.uleb128 0xd
 1970 09c8 B8000000 		.4byte	0xb8
 1971 09cc 00       		.byte	0
 1972 09cd 11       		.uleb128 0x11
 1973 09ce D3030000 		.4byte	.LASF146
 1974 09d2 11       		.byte	0x11
 1975 09d3 CD01     		.2byte	0x1cd
 1976 09d5 D9090000 		.4byte	0x9d9
 1977 09d9 0A       		.uleb128 0xa
 1978 09da 04       		.byte	0x4
 1979 09db DF090000 		.4byte	0x9df
 1980 09df 0C       		.uleb128 0xc
 1981 09e0 EF090000 		.4byte	0x9ef
 1982 09e4 0D       		.uleb128 0xd
 1983 09e5 A5090000 		.4byte	0x9a5
 1984 09e9 0D       		.uleb128 0xd
 1985 09ea ED080000 		.4byte	0x8ed
 1986 09ee 00       		.byte	0
 1987 09ef 10       		.uleb128 0x10
ARM GAS  /tmp/ccgqwmVH.s 			page 36


 1988 09f0 20       		.byte	0x20
 1989 09f1 11       		.byte	0x11
 1990 09f2 D301     		.2byte	0x1d3
 1991 09f4 6E0A0000 		.4byte	0xa6e
 1992 09f8 09       		.uleb128 0x9
 1993 09f9 D8060000 		.4byte	.LASF147
 1994 09fd 11       		.byte	0x11
 1995 09fe D701     		.2byte	0x1d7
 1996 0a00 88090000 		.4byte	0x988
 1997 0a04 00       		.byte	0
 1998 0a05 09       		.uleb128 0x9
 1999 0a06 5C040000 		.4byte	.LASF148
 2000 0a0a 11       		.byte	0x11
 2001 0a0b DB01     		.2byte	0x1db
 2002 0a0d 88090000 		.4byte	0x988
 2003 0a11 04       		.byte	0x4
 2004 0a12 09       		.uleb128 0x9
 2005 0a13 4F050000 		.4byte	.LASF149
 2006 0a17 11       		.byte	0x11
 2007 0a18 DF01     		.2byte	0x1df
 2008 0a1a 88090000 		.4byte	0x988
 2009 0a1e 08       		.byte	0x8
 2010 0a1f 09       		.uleb128 0x9
 2011 0a20 36000000 		.4byte	.LASF150
 2012 0a24 11       		.byte	0x11
 2013 0a25 E301     		.2byte	0x1e3
 2014 0a27 AB090000 		.4byte	0x9ab
 2015 0a2b 0C       		.byte	0xc
 2016 0a2c 09       		.uleb128 0x9
 2017 0a2d 11050000 		.4byte	.LASF151
 2018 0a31 11       		.byte	0x11
 2019 0a32 E701     		.2byte	0x1e7
 2020 0a34 CD090000 		.4byte	0x9cd
 2021 0a38 10       		.byte	0x10
 2022 0a39 09       		.uleb128 0x9
 2023 0a3a 7B080000 		.4byte	.LASF152
 2024 0a3e 11       		.byte	0x11
 2025 0a3f EC01     		.2byte	0x1ec
 2026 0a41 CE000000 		.4byte	0xce
 2027 0a45 14       		.byte	0x14
 2028 0a46 08       		.uleb128 0x8
 2029 0a47 63723100 		.ascii	"cr1\000"
 2030 0a4b 11       		.byte	0x11
 2031 0a4c F001     		.2byte	0x1f0
 2032 0a4e B8000000 		.4byte	0xb8
 2033 0a52 18       		.byte	0x18
 2034 0a53 08       		.uleb128 0x8
 2035 0a54 63723200 		.ascii	"cr2\000"
 2036 0a58 11       		.byte	0x11
 2037 0a59 F401     		.2byte	0x1f4
 2038 0a5b B8000000 		.4byte	0xb8
 2039 0a5f 1A       		.byte	0x1a
 2040 0a60 08       		.uleb128 0x8
 2041 0a61 63723300 		.ascii	"cr3\000"
 2042 0a65 11       		.byte	0x11
 2043 0a66 F801     		.2byte	0x1f8
 2044 0a68 B8000000 		.4byte	0xb8
ARM GAS  /tmp/ccgqwmVH.s 			page 37


 2045 0a6c 1C       		.byte	0x1c
 2046 0a6d 00       		.byte	0
 2047 0a6e 11       		.uleb128 0x11
 2048 0a6f CB000000 		.4byte	.LASF153
 2049 0a73 11       		.byte	0x11
 2050 0a74 F901     		.2byte	0x1f9
 2051 0a76 EF090000 		.4byte	0x9ef
 2052 0a7a 0A       		.uleb128 0xa
 2053 0a7b 04       		.byte	0x4
 2054 0a7c 800A0000 		.4byte	0xa80
 2055 0a80 16       		.uleb128 0x16
 2056 0a81 6E0A0000 		.4byte	0xa6e
 2057 0a85 0A       		.uleb128 0xa
 2058 0a86 04       		.byte	0x4
 2059 0a87 5C050000 		.4byte	0x55c
 2060 0a8b 1B       		.uleb128 0x1b
 2061 0a8c 9F070000 		.4byte	.LASF157
 2062 0a90 02       		.byte	0x2
 2063 0a91 2002     		.2byte	0x220
 2064 0a93 03       		.byte	0x3
 2065 0a94 A50A0000 		.4byte	0xaa5
 2066 0a98 1C       		.uleb128 0x1c
 2067 0a99 4F030000 		.4byte	.LASF185
 2068 0a9d 02       		.byte	0x2
 2069 0a9e 2002     		.2byte	0x220
 2070 0aa0 CE000000 		.4byte	0xce
 2071 0aa4 00       		.byte	0
 2072 0aa5 1D       		.uleb128 0x1d
 2073 0aa6 82000000 		.4byte	.LASF154
 2074 0aaa 0B       		.byte	0xb
 2075 0aab BC01     		.2byte	0x1bc
 2076 0aad 03       		.byte	0x3
 2077 0aae 1D       		.uleb128 0x1d
 2078 0aaf 5D010000 		.4byte	.LASF155
 2079 0ab3 0B       		.byte	0xb
 2080 0ab4 CA01     		.2byte	0x1ca
 2081 0ab6 03       		.byte	0x3
 2082 0ab7 1D       		.uleb128 0x1d
 2083 0ab8 92060000 		.4byte	.LASF156
 2084 0abc 12       		.byte	0x12
 2085 0abd 5A01     		.2byte	0x15a
 2086 0abf 03       		.byte	0x3
 2087 0ac0 1B       		.uleb128 0x1b
 2088 0ac1 AC080000 		.4byte	.LASF158
 2089 0ac5 12       		.byte	0x12
 2090 0ac6 6601     		.2byte	0x166
 2091 0ac8 03       		.byte	0x3
 2092 0ac9 DB0A0000 		.4byte	0xadb
 2093 0acd 1E       		.uleb128 0x1e
 2094 0ace 89060000 		.4byte	.LASF166
 2095 0ad2 EB0A0000 		.4byte	0xaeb
 2096 0ad6 AC080000 		.4byte	.LASF158
 2097 0ada 00       		.byte	0
 2098 0adb 17       		.uleb128 0x17
 2099 0adc CE070000 		.4byte	0x7ce
 2100 0ae0 EB0A0000 		.4byte	0xaeb
 2101 0ae4 18       		.uleb128 0x18
ARM GAS  /tmp/ccgqwmVH.s 			page 38


 2102 0ae5 8F040000 		.4byte	0x48f
 2103 0ae9 0B       		.byte	0xb
 2104 0aea 00       		.byte	0
 2105 0aeb 16       		.uleb128 0x16
 2106 0aec DB0A0000 		.4byte	0xadb
 2107 0af0 1D       		.uleb128 0x1d
 2108 0af1 3B030000 		.4byte	.LASF159
 2109 0af5 13       		.byte	0x13
 2110 0af6 EB01     		.2byte	0x1eb
 2111 0af8 03       		.byte	0x3
 2112 0af9 1D       		.uleb128 0x1d
 2113 0afa 9C060000 		.4byte	.LASF160
 2114 0afe 13       		.byte	0x13
 2115 0aff F601     		.2byte	0x1f6
 2116 0b01 03       		.byte	0x3
 2117 0b02 1F       		.uleb128 0x1f
 2118 0b03 3C010000 		.4byte	.LASF161
 2119 0b07 01       		.byte	0x1
 2120 0b08 38       		.byte	0x38
 2121 0b09 00000000 		.4byte	.LFB256
 2122 0b0d 04000000 		.4byte	.LFE256-.LFB256
 2123 0b11 01       		.uleb128 0x1
 2124 0b12 9C       		.byte	0x9c
 2125 0b13 210B0000 		.4byte	0xb21
 2126 0b17 20       		.uleb128 0x20
 2127 0b18 04000000 		.4byte	.LVL0
 2128 0b1c 6F130000 		.4byte	0x136f
 2129 0b20 00       		.byte	0
 2130 0b21 1F       		.uleb128 0x1f
 2131 0b22 5A000000 		.4byte	.LASF162
 2132 0b26 01       		.byte	0x1
 2133 0b27 44       		.byte	0x44
 2134 0b28 00000000 		.4byte	.LFB257
 2135 0b2c 0E000000 		.4byte	.LFE257-.LFB257
 2136 0b30 01       		.uleb128 0x1
 2137 0b31 9C       		.byte	0x9c
 2138 0b32 440B0000 		.4byte	0xb44
 2139 0b36 21       		.uleb128 0x21
 2140 0b37 25040000 		.4byte	.LASF164
 2141 0b3b 01       		.byte	0x1
 2142 0b3c 44       		.byte	0x44
 2143 0b3d A5090000 		.4byte	0x9a5
 2144 0b41 01       		.uleb128 0x1
 2145 0b42 50       		.byte	0x50
 2146 0b43 00       		.byte	0
 2147 0b44 1F       		.uleb128 0x1f
 2148 0b45 45050000 		.4byte	.LASF163
 2149 0b49 01       		.byte	0x1
 2150 0b4a 58       		.byte	0x58
 2151 0b4b 00000000 		.4byte	.LFB258
 2152 0b4f 1C000000 		.4byte	.LFE258-.LFB258
 2153 0b53 01       		.uleb128 0x1
 2154 0b54 9C       		.byte	0x9c
 2155 0b55 3A0C0000 		.4byte	0xc3a
 2156 0b59 22       		.uleb128 0x22
 2157 0b5a 25040000 		.4byte	.LASF164
 2158 0b5e 01       		.byte	0x1
ARM GAS  /tmp/ccgqwmVH.s 			page 39


 2159 0b5f 58       		.byte	0x58
 2160 0b60 A5090000 		.4byte	0x9a5
 2161 0b64 00000000 		.4byte	.LLST0
 2162 0b68 22       		.uleb128 0x22
 2163 0b69 47070000 		.4byte	.LASF138
 2164 0b6d 01       		.byte	0x1
 2165 0b6e 58       		.byte	0x58
 2166 0b6f 7A0A0000 		.4byte	0xa7a
 2167 0b73 1E000000 		.4byte	.LLST1
 2168 0b77 23       		.uleb128 0x23
 2169 0b78 89060000 		.4byte	.LASF166
 2170 0b7c 4A0C0000 		.4byte	0xc4a
 2171 0b80 24       		.uleb128 0x24
 2172 0b81 F00A0000 		.4byte	0xaf0
 2173 0b85 02000000 		.4byte	.LBB102
 2174 0b89 00000000 		.4byte	.Ldebug_ranges0+0
 2175 0b8d 01       		.byte	0x1
 2176 0b8e 5C       		.byte	0x5c
 2177 0b8f CD0B0000 		.4byte	0xbcd
 2178 0b93 25       		.uleb128 0x25
 2179 0b94 B70A0000 		.4byte	0xab7
 2180 0b98 02000000 		.4byte	.LBB103
 2181 0b9c 00000000 		.4byte	.Ldebug_ranges0+0
 2182 0ba0 13       		.byte	0x13
 2183 0ba1 ED01     		.2byte	0x1ed
 2184 0ba3 25       		.uleb128 0x25
 2185 0ba4 A50A0000 		.4byte	0xaa5
 2186 0ba8 02000000 		.4byte	.LBB104
 2187 0bac 00000000 		.4byte	.Ldebug_ranges0+0
 2188 0bb0 12       		.byte	0x12
 2189 0bb1 5C01     		.2byte	0x15c
 2190 0bb3 25       		.uleb128 0x25
 2191 0bb4 8B0A0000 		.4byte	0xa8b
 2192 0bb8 02000000 		.4byte	.LBB105
 2193 0bbc 00000000 		.4byte	.Ldebug_ranges0+0
 2194 0bc0 0B       		.byte	0xb
 2195 0bc1 BF01     		.2byte	0x1bf
 2196 0bc3 26       		.uleb128 0x26
 2197 0bc4 980A0000 		.4byte	0xa98
 2198 0bc8 20       		.byte	0x20
 2199 0bc9 00       		.byte	0
 2200 0bca 00       		.byte	0
 2201 0bcb 00       		.byte	0
 2202 0bcc 00       		.byte	0
 2203 0bcd 27       		.uleb128 0x27
 2204 0bce F90A0000 		.4byte	0xaf9
 2205 0bd2 14000000 		.4byte	.LBB112
 2206 0bd6 08000000 		.4byte	.LBE112-.LBB112
 2207 0bda 01       		.byte	0x1
 2208 0bdb 63       		.byte	0x63
 2209 0bdc 290C0000 		.4byte	0xc29
 2210 0be0 28       		.uleb128 0x28
 2211 0be1 C00A0000 		.4byte	0xac0
 2212 0be5 14000000 		.4byte	.LBB113
 2213 0be9 08000000 		.4byte	.LBE113-.LBB113
 2214 0bed 13       		.byte	0x13
 2215 0bee F801     		.2byte	0x1f8
ARM GAS  /tmp/ccgqwmVH.s 			page 40


 2216 0bf0 29       		.uleb128 0x29
 2217 0bf1 14000000 		.4byte	.LBB114
 2218 0bf5 08000000 		.4byte	.LBE114-.LBB114
 2219 0bf9 2A       		.uleb128 0x2a
 2220 0bfa CD0A0000 		.4byte	0xacd
 2221 0bfe 28       		.uleb128 0x28
 2222 0bff AE0A0000 		.4byte	0xaae
 2223 0c03 14000000 		.4byte	.LBB115
 2224 0c07 08000000 		.4byte	.LBE115-.LBB115
 2225 0c0b 12       		.byte	0x12
 2226 0c0c 7301     		.2byte	0x173
 2227 0c0e 28       		.uleb128 0x28
 2228 0c0f 8B0A0000 		.4byte	0xa8b
 2229 0c13 14000000 		.4byte	.LBB116
 2230 0c17 08000000 		.4byte	.LBE116-.LBB116
 2231 0c1b 0B       		.byte	0xb
 2232 0c1c CD01     		.2byte	0x1cd
 2233 0c1e 26       		.uleb128 0x26
 2234 0c1f 980A0000 		.4byte	0xa98
 2235 0c23 00       		.byte	0
 2236 0c24 00       		.byte	0
 2237 0c25 00       		.byte	0
 2238 0c26 00       		.byte	0
 2239 0c27 00       		.byte	0
 2240 0c28 00       		.byte	0
 2241 0c29 2B       		.uleb128 0x2b
 2242 0c2a 10000000 		.4byte	.LVL3
 2243 0c2e 77130000 		.4byte	0x1377
 2244 0c32 2C       		.uleb128 0x2c
 2245 0c33 01       		.uleb128 0x1
 2246 0c34 50       		.byte	0x50
 2247 0c35 02       		.uleb128 0x2
 2248 0c36 74       		.byte	0x74
 2249 0c37 00       		.sleb128 0
 2250 0c38 00       		.byte	0
 2251 0c39 00       		.byte	0
 2252 0c3a 17       		.uleb128 0x17
 2253 0c3b CE070000 		.4byte	0x7ce
 2254 0c3f 4A0C0000 		.4byte	0xc4a
 2255 0c43 18       		.uleb128 0x18
 2256 0c44 8F040000 		.4byte	0x48f
 2257 0c48 09       		.byte	0x9
 2258 0c49 00       		.byte	0
 2259 0c4a 16       		.uleb128 0x16
 2260 0c4b 3A0C0000 		.4byte	0xc3a
 2261 0c4f 1F       		.uleb128 0x1f
 2262 0c50 18070000 		.4byte	.LASF165
 2263 0c54 01       		.byte	0x1
 2264 0c55 6D       		.byte	0x6d
 2265 0c56 00000000 		.4byte	.LFB259
 2266 0c5a 1E000000 		.4byte	.LFE259-.LFB259
 2267 0c5e 01       		.uleb128 0x1
 2268 0c5f 9C       		.byte	0x9c
 2269 0c60 360D0000 		.4byte	0xd36
 2270 0c64 22       		.uleb128 0x22
 2271 0c65 25040000 		.4byte	.LASF164
 2272 0c69 01       		.byte	0x1
ARM GAS  /tmp/ccgqwmVH.s 			page 41


 2273 0c6a 6D       		.byte	0x6d
 2274 0c6b A5090000 		.4byte	0x9a5
 2275 0c6f 3F000000 		.4byte	.LLST2
 2276 0c73 23       		.uleb128 0x23
 2277 0c74 89060000 		.4byte	.LASF166
 2278 0c78 460D0000 		.4byte	0xd46
 2279 0c7c 24       		.uleb128 0x24
 2280 0c7d F00A0000 		.4byte	0xaf0
 2281 0c81 02000000 		.4byte	.LBB118
 2282 0c85 18000000 		.4byte	.Ldebug_ranges0+0x18
 2283 0c89 01       		.byte	0x1
 2284 0c8a 71       		.byte	0x71
 2285 0c8b C90C0000 		.4byte	0xcc9
 2286 0c8f 25       		.uleb128 0x25
 2287 0c90 B70A0000 		.4byte	0xab7
 2288 0c94 02000000 		.4byte	.LBB119
 2289 0c98 18000000 		.4byte	.Ldebug_ranges0+0x18
 2290 0c9c 13       		.byte	0x13
 2291 0c9d ED01     		.2byte	0x1ed
 2292 0c9f 25       		.uleb128 0x25
 2293 0ca0 A50A0000 		.4byte	0xaa5
 2294 0ca4 02000000 		.4byte	.LBB120
 2295 0ca8 18000000 		.4byte	.Ldebug_ranges0+0x18
 2296 0cac 12       		.byte	0x12
 2297 0cad 5C01     		.2byte	0x15c
 2298 0caf 25       		.uleb128 0x25
 2299 0cb0 8B0A0000 		.4byte	0xa8b
 2300 0cb4 02000000 		.4byte	.LBB121
 2301 0cb8 18000000 		.4byte	.Ldebug_ranges0+0x18
 2302 0cbc 0B       		.byte	0xb
 2303 0cbd BF01     		.2byte	0x1bf
 2304 0cbf 26       		.uleb128 0x26
 2305 0cc0 980A0000 		.4byte	0xa98
 2306 0cc4 20       		.byte	0x20
 2307 0cc5 00       		.byte	0
 2308 0cc6 00       		.byte	0
 2309 0cc7 00       		.byte	0
 2310 0cc8 00       		.byte	0
 2311 0cc9 27       		.uleb128 0x27
 2312 0cca F90A0000 		.4byte	0xaf9
 2313 0cce 18000000 		.4byte	.LBB128
 2314 0cd2 06000000 		.4byte	.LBE128-.LBB128
 2315 0cd6 01       		.byte	0x1
 2316 0cd7 79       		.byte	0x79
 2317 0cd8 250D0000 		.4byte	0xd25
 2318 0cdc 28       		.uleb128 0x28
 2319 0cdd C00A0000 		.4byte	0xac0
 2320 0ce1 18000000 		.4byte	.LBB129
 2321 0ce5 06000000 		.4byte	.LBE129-.LBB129
 2322 0ce9 13       		.byte	0x13
 2323 0cea F801     		.2byte	0x1f8
 2324 0cec 29       		.uleb128 0x29
 2325 0ced 18000000 		.4byte	.LBB130
 2326 0cf1 06000000 		.4byte	.LBE130-.LBB130
 2327 0cf5 2A       		.uleb128 0x2a
 2328 0cf6 CD0A0000 		.4byte	0xacd
 2329 0cfa 28       		.uleb128 0x28
ARM GAS  /tmp/ccgqwmVH.s 			page 42


 2330 0cfb AE0A0000 		.4byte	0xaae
 2331 0cff 18000000 		.4byte	.LBB131
 2332 0d03 06000000 		.4byte	.LBE131-.LBB131
 2333 0d07 12       		.byte	0x12
 2334 0d08 7301     		.2byte	0x173
 2335 0d0a 28       		.uleb128 0x28
 2336 0d0b 8B0A0000 		.4byte	0xa8b
 2337 0d0f 18000000 		.4byte	.LBB132
 2338 0d13 06000000 		.4byte	.LBE132-.LBB132
 2339 0d17 0B       		.byte	0xb
 2340 0d18 CD01     		.2byte	0x1cd
 2341 0d1a 26       		.uleb128 0x26
 2342 0d1b 980A0000 		.4byte	0xa98
 2343 0d1f 00       		.byte	0
 2344 0d20 00       		.byte	0
 2345 0d21 00       		.byte	0
 2346 0d22 00       		.byte	0
 2347 0d23 00       		.byte	0
 2348 0d24 00       		.byte	0
 2349 0d25 2B       		.uleb128 0x2b
 2350 0d26 0E000000 		.4byte	.LVL6
 2351 0d2a 89130000 		.4byte	0x1389
 2352 0d2e 2C       		.uleb128 0x2c
 2353 0d2f 01       		.uleb128 0x1
 2354 0d30 50       		.byte	0x50
 2355 0d31 02       		.uleb128 0x2
 2356 0d32 74       		.byte	0x74
 2357 0d33 00       		.sleb128 0
 2358 0d34 00       		.byte	0
 2359 0d35 00       		.byte	0
 2360 0d36 17       		.uleb128 0x17
 2361 0d37 CE070000 		.4byte	0x7ce
 2362 0d3b 460D0000 		.4byte	0xd46
 2363 0d3f 18       		.uleb128 0x18
 2364 0d40 8F040000 		.4byte	0x48f
 2365 0d44 08       		.byte	0x8
 2366 0d45 00       		.byte	0
 2367 0d46 16       		.uleb128 0x16
 2368 0d47 360D0000 		.4byte	0xd36
 2369 0d4b 1F       		.uleb128 0x1f
 2370 0d4c CD010000 		.4byte	.LASF167
 2371 0d50 01       		.byte	0x1
 2372 0d51 87       		.byte	0x87
 2373 0d52 00000000 		.4byte	.LFB260
 2374 0d56 1A000000 		.4byte	.LFE260-.LFB260
 2375 0d5a 01       		.uleb128 0x1
 2376 0d5b 9C       		.byte	0x9c
 2377 0d5c 5C0E0000 		.4byte	0xe5c
 2378 0d60 22       		.uleb128 0x22
 2379 0d61 25040000 		.4byte	.LASF164
 2380 0d65 01       		.byte	0x1
 2381 0d66 87       		.byte	0x87
 2382 0d67 A5090000 		.4byte	0x9a5
 2383 0d6b 5D000000 		.4byte	.LLST3
 2384 0d6f 2D       		.uleb128 0x2d
 2385 0d70 6E00     		.ascii	"n\000"
 2386 0d72 01       		.byte	0x1
ARM GAS  /tmp/ccgqwmVH.s 			page 43


 2387 0d73 87       		.byte	0x87
 2388 0d74 2C000000 		.4byte	0x2c
 2389 0d78 7B000000 		.4byte	.LLST4
 2390 0d7c 22       		.uleb128 0x22
 2391 0d7d AE030000 		.4byte	.LASF168
 2392 0d81 01       		.byte	0x1
 2393 0d82 87       		.byte	0x87
 2394 0d83 5C0E0000 		.4byte	0xe5c
 2395 0d87 9C000000 		.4byte	.LLST5
 2396 0d8b 23       		.uleb128 0x23
 2397 0d8c 89060000 		.4byte	.LASF166
 2398 0d90 730E0000 		.4byte	0xe73
 2399 0d94 24       		.uleb128 0x24
 2400 0d95 F00A0000 		.4byte	0xaf0
 2401 0d99 02000000 		.4byte	.LBB134
 2402 0d9d 30000000 		.4byte	.Ldebug_ranges0+0x30
 2403 0da1 01       		.byte	0x1
 2404 0da2 8B       		.byte	0x8b
 2405 0da3 E10D0000 		.4byte	0xde1
 2406 0da7 25       		.uleb128 0x25
 2407 0da8 B70A0000 		.4byte	0xab7
 2408 0dac 02000000 		.4byte	.LBB135
 2409 0db0 30000000 		.4byte	.Ldebug_ranges0+0x30
 2410 0db4 13       		.byte	0x13
 2411 0db5 ED01     		.2byte	0x1ed
 2412 0db7 25       		.uleb128 0x25
 2413 0db8 A50A0000 		.4byte	0xaa5
 2414 0dbc 02000000 		.4byte	.LBB136
 2415 0dc0 30000000 		.4byte	.Ldebug_ranges0+0x30
 2416 0dc4 12       		.byte	0x12
 2417 0dc5 5C01     		.2byte	0x15c
 2418 0dc7 25       		.uleb128 0x25
 2419 0dc8 8B0A0000 		.4byte	0xa8b
 2420 0dcc 02000000 		.4byte	.LBB137
 2421 0dd0 30000000 		.4byte	.Ldebug_ranges0+0x30
 2422 0dd4 0B       		.byte	0xb
 2423 0dd5 BF01     		.2byte	0x1bf
 2424 0dd7 26       		.uleb128 0x26
 2425 0dd8 980A0000 		.4byte	0xa98
 2426 0ddc 20       		.byte	0x20
 2427 0ddd 00       		.byte	0
 2428 0dde 00       		.byte	0
 2429 0ddf 00       		.byte	0
 2430 0de0 00       		.byte	0
 2431 0de1 27       		.uleb128 0x27
 2432 0de2 F90A0000 		.4byte	0xaf9
 2433 0de6 12000000 		.4byte	.LBB144
 2434 0dea 08000000 		.4byte	.LBE144-.LBB144
 2435 0dee 01       		.byte	0x1
 2436 0def 91       		.byte	0x91
 2437 0df0 3D0E0000 		.4byte	0xe3d
 2438 0df4 28       		.uleb128 0x28
 2439 0df5 C00A0000 		.4byte	0xac0
 2440 0df9 12000000 		.4byte	.LBB145
 2441 0dfd 08000000 		.4byte	.LBE145-.LBB145
 2442 0e01 13       		.byte	0x13
 2443 0e02 F801     		.2byte	0x1f8
ARM GAS  /tmp/ccgqwmVH.s 			page 44


 2444 0e04 29       		.uleb128 0x29
 2445 0e05 12000000 		.4byte	.LBB146
 2446 0e09 08000000 		.4byte	.LBE146-.LBB146
 2447 0e0d 2A       		.uleb128 0x2a
 2448 0e0e CD0A0000 		.4byte	0xacd
 2449 0e12 28       		.uleb128 0x28
 2450 0e13 AE0A0000 		.4byte	0xaae
 2451 0e17 12000000 		.4byte	.LBB147
 2452 0e1b 08000000 		.4byte	.LBE147-.LBB147
 2453 0e1f 12       		.byte	0x12
 2454 0e20 7301     		.2byte	0x173
 2455 0e22 28       		.uleb128 0x28
 2456 0e23 8B0A0000 		.4byte	0xa8b
 2457 0e27 12000000 		.4byte	.LBB148
 2458 0e2b 08000000 		.4byte	.LBE148-.LBB148
 2459 0e2f 0B       		.byte	0xb
 2460 0e30 CD01     		.2byte	0x1cd
 2461 0e32 26       		.uleb128 0x26
 2462 0e33 980A0000 		.4byte	0xa98
 2463 0e37 00       		.byte	0
 2464 0e38 00       		.byte	0
 2465 0e39 00       		.byte	0
 2466 0e3a 00       		.byte	0
 2467 0e3b 00       		.byte	0
 2468 0e3c 00       		.byte	0
 2469 0e3d 2B       		.uleb128 0x2b
 2470 0e3e 0E000000 		.4byte	.LVL9
 2471 0e42 9B130000 		.4byte	0x139b
 2472 0e46 2C       		.uleb128 0x2c
 2473 0e47 01       		.uleb128 0x1
 2474 0e48 52       		.byte	0x52
 2475 0e49 03       		.uleb128 0x3
 2476 0e4a F3       		.byte	0xf3
 2477 0e4b 01       		.uleb128 0x1
 2478 0e4c 52       		.byte	0x52
 2479 0e4d 2C       		.uleb128 0x2c
 2480 0e4e 01       		.uleb128 0x1
 2481 0e4f 51       		.byte	0x51
 2482 0e50 03       		.uleb128 0x3
 2483 0e51 F3       		.byte	0xf3
 2484 0e52 01       		.uleb128 0x1
 2485 0e53 51       		.byte	0x51
 2486 0e54 2C       		.uleb128 0x2c
 2487 0e55 01       		.uleb128 0x1
 2488 0e56 50       		.byte	0x50
 2489 0e57 02       		.uleb128 0x2
 2490 0e58 74       		.byte	0x74
 2491 0e59 00       		.sleb128 0
 2492 0e5a 00       		.byte	0
 2493 0e5b 00       		.byte	0
 2494 0e5c 0A       		.uleb128 0xa
 2495 0e5d 04       		.byte	0x4
 2496 0e5e 620E0000 		.4byte	0xe62
 2497 0e62 2E       		.uleb128 0x2e
 2498 0e63 17       		.uleb128 0x17
 2499 0e64 CE070000 		.4byte	0x7ce
 2500 0e68 730E0000 		.4byte	0xe73
ARM GAS  /tmp/ccgqwmVH.s 			page 45


 2501 0e6c 18       		.uleb128 0x18
 2502 0e6d 8F040000 		.4byte	0x48f
 2503 0e71 0D       		.byte	0xd
 2504 0e72 00       		.byte	0
 2505 0e73 16       		.uleb128 0x16
 2506 0e74 630E0000 		.4byte	0xe63
 2507 0e78 1F       		.uleb128 0x1f
 2508 0e79 44080000 		.4byte	.LASF169
 2509 0e7d 01       		.byte	0x1
 2510 0e7e A0       		.byte	0xa0
 2511 0e7f 00000000 		.4byte	.LFB261
 2512 0e83 0E000000 		.4byte	.LFE261-.LFB261
 2513 0e87 01       		.uleb128 0x1
 2514 0e88 9C       		.byte	0x9c
 2515 0e89 E00E0000 		.4byte	0xee0
 2516 0e8d 22       		.uleb128 0x22
 2517 0e8e 25040000 		.4byte	.LASF164
 2518 0e92 01       		.byte	0x1
 2519 0e93 A0       		.byte	0xa0
 2520 0e94 A5090000 		.4byte	0x9a5
 2521 0e98 BD000000 		.4byte	.LLST6
 2522 0e9c 2D       		.uleb128 0x2d
 2523 0e9d 6E00     		.ascii	"n\000"
 2524 0e9f 01       		.byte	0x1
 2525 0ea0 A0       		.byte	0xa0
 2526 0ea1 2C000000 		.4byte	0x2c
 2527 0ea5 DB000000 		.4byte	.LLST7
 2528 0ea9 22       		.uleb128 0x22
 2529 0eaa AE030000 		.4byte	.LASF168
 2530 0eae 01       		.byte	0x1
 2531 0eaf A0       		.byte	0xa0
 2532 0eb0 5C0E0000 		.4byte	0xe5c
 2533 0eb4 FC000000 		.4byte	.LLST8
 2534 0eb8 23       		.uleb128 0x23
 2535 0eb9 89060000 		.4byte	.LASF166
 2536 0ebd F00E0000 		.4byte	0xef0
 2537 0ec1 2B       		.uleb128 0x2b
 2538 0ec2 08000000 		.4byte	.LVL12
 2539 0ec6 9B130000 		.4byte	0x139b
 2540 0eca 2C       		.uleb128 0x2c
 2541 0ecb 01       		.uleb128 0x1
 2542 0ecc 52       		.byte	0x52
 2543 0ecd 03       		.uleb128 0x3
 2544 0ece F3       		.byte	0xf3
 2545 0ecf 01       		.uleb128 0x1
 2546 0ed0 52       		.byte	0x52
 2547 0ed1 2C       		.uleb128 0x2c
 2548 0ed2 01       		.uleb128 0x1
 2549 0ed3 51       		.byte	0x51
 2550 0ed4 03       		.uleb128 0x3
 2551 0ed5 F3       		.byte	0xf3
 2552 0ed6 01       		.uleb128 0x1
 2553 0ed7 51       		.byte	0x51
 2554 0ed8 2C       		.uleb128 0x2c
 2555 0ed9 01       		.uleb128 0x1
 2556 0eda 50       		.byte	0x50
 2557 0edb 02       		.uleb128 0x2
ARM GAS  /tmp/ccgqwmVH.s 			page 46


 2558 0edc 74       		.byte	0x74
 2559 0edd 00       		.sleb128 0
 2560 0ede 00       		.byte	0
 2561 0edf 00       		.byte	0
 2562 0ee0 17       		.uleb128 0x17
 2563 0ee1 CE070000 		.4byte	0x7ce
 2564 0ee5 F00E0000 		.4byte	0xef0
 2565 0ee9 18       		.uleb128 0x18
 2566 0eea 8F040000 		.4byte	0x48f
 2567 0eee 0E       		.byte	0xe
 2568 0eef 00       		.byte	0
 2569 0ef0 16       		.uleb128 0x16
 2570 0ef1 E00E0000 		.4byte	0xee0
 2571 0ef5 2F       		.uleb128 0x2f
 2572 0ef6 FE040000 		.4byte	.LASF170
 2573 0efa 01       		.byte	0x1
 2574 0efb B7       		.byte	0xb7
 2575 0efc 2C000000 		.4byte	0x2c
 2576 0f00 00000000 		.4byte	.LFB262
 2577 0f04 2A000000 		.4byte	.LFE262-.LFB262
 2578 0f08 01       		.uleb128 0x1
 2579 0f09 9C       		.byte	0x9c
 2580 0f0a E50F0000 		.4byte	0xfe5
 2581 0f0e 22       		.uleb128 0x22
 2582 0f0f 25040000 		.4byte	.LASF164
 2583 0f13 01       		.byte	0x1
 2584 0f14 B7       		.byte	0xb7
 2585 0f15 A5090000 		.4byte	0x9a5
 2586 0f19 1D010000 		.4byte	.LLST9
 2587 0f1d 30       		.uleb128 0x30
 2588 0f1e 6E00     		.ascii	"n\000"
 2589 0f20 01       		.byte	0x1
 2590 0f21 B8       		.byte	0xb8
 2591 0f22 2C000000 		.4byte	0x2c
 2592 0f26 51010000 		.4byte	.LLST10
 2593 0f2a 23       		.uleb128 0x23
 2594 0f2b 89060000 		.4byte	.LASF166
 2595 0f2f F50F0000 		.4byte	0xff5
 2596 0f33 24       		.uleb128 0x24
 2597 0f34 F00A0000 		.4byte	0xaf0
 2598 0f38 02000000 		.4byte	.LBB150
 2599 0f3c 48000000 		.4byte	.Ldebug_ranges0+0x48
 2600 0f40 01       		.byte	0x1
 2601 0f41 BC       		.byte	0xbc
 2602 0f42 800F0000 		.4byte	0xf80
 2603 0f46 25       		.uleb128 0x25
 2604 0f47 B70A0000 		.4byte	0xab7
 2605 0f4b 02000000 		.4byte	.LBB151
 2606 0f4f 48000000 		.4byte	.Ldebug_ranges0+0x48
 2607 0f53 13       		.byte	0x13
 2608 0f54 ED01     		.2byte	0x1ed
 2609 0f56 25       		.uleb128 0x25
 2610 0f57 A50A0000 		.4byte	0xaa5
 2611 0f5b 02000000 		.4byte	.LBB152
 2612 0f5f 48000000 		.4byte	.Ldebug_ranges0+0x48
 2613 0f63 12       		.byte	0x12
 2614 0f64 5C01     		.2byte	0x15c
ARM GAS  /tmp/ccgqwmVH.s 			page 47


 2615 0f66 25       		.uleb128 0x25
 2616 0f67 8B0A0000 		.4byte	0xa8b
 2617 0f6b 02000000 		.4byte	.LBB153
 2618 0f6f 48000000 		.4byte	.Ldebug_ranges0+0x48
 2619 0f73 0B       		.byte	0xb
 2620 0f74 BF01     		.2byte	0x1bf
 2621 0f76 26       		.uleb128 0x26
 2622 0f77 980A0000 		.4byte	0xa98
 2623 0f7b 20       		.byte	0x20
 2624 0f7c 00       		.byte	0
 2625 0f7d 00       		.byte	0
 2626 0f7e 00       		.byte	0
 2627 0f7f 00       		.byte	0
 2628 0f80 24       		.uleb128 0x24
 2629 0f81 F90A0000 		.4byte	0xaf9
 2630 0f85 12000000 		.4byte	.LBB160
 2631 0f89 60000000 		.4byte	.Ldebug_ranges0+0x60
 2632 0f8d 01       		.byte	0x1
 2633 0f8e C6       		.byte	0xc6
 2634 0f8f DB0F0000 		.4byte	0xfdb
 2635 0f93 25       		.uleb128 0x25
 2636 0f94 C00A0000 		.4byte	0xac0
 2637 0f98 12000000 		.4byte	.LBB161
 2638 0f9c 60000000 		.4byte	.Ldebug_ranges0+0x60
 2639 0fa0 13       		.byte	0x13
 2640 0fa1 F801     		.2byte	0x1f8
 2641 0fa3 31       		.uleb128 0x31
 2642 0fa4 60000000 		.4byte	.Ldebug_ranges0+0x60
 2643 0fa8 2A       		.uleb128 0x2a
 2644 0fa9 CD0A0000 		.4byte	0xacd
 2645 0fad 25       		.uleb128 0x25
 2646 0fae AE0A0000 		.4byte	0xaae
 2647 0fb2 12000000 		.4byte	.LBB163
 2648 0fb6 60000000 		.4byte	.Ldebug_ranges0+0x60
 2649 0fba 12       		.byte	0x12
 2650 0fbb 7301     		.2byte	0x173
 2651 0fbd 25       		.uleb128 0x25
 2652 0fbe 8B0A0000 		.4byte	0xa8b
 2653 0fc2 12000000 		.4byte	.LBB164
 2654 0fc6 60000000 		.4byte	.Ldebug_ranges0+0x60
 2655 0fca 0B       		.byte	0xb
 2656 0fcb CD01     		.2byte	0x1cd
 2657 0fcd 32       		.uleb128 0x32
 2658 0fce 980A0000 		.4byte	0xa98
 2659 0fd2 6F010000 		.4byte	.LLST11
 2660 0fd6 00       		.byte	0
 2661 0fd7 00       		.byte	0
 2662 0fd8 00       		.byte	0
 2663 0fd9 00       		.byte	0
 2664 0fda 00       		.byte	0
 2665 0fdb 33       		.uleb128 0x33
 2666 0fdc 1E000000 		.4byte	.LVL16
 2667 0fe0 B7130000 		.4byte	0x13b7
 2668 0fe4 00       		.byte	0
 2669 0fe5 17       		.uleb128 0x17
 2670 0fe6 CE070000 		.4byte	0x7ce
 2671 0fea F50F0000 		.4byte	0xff5
ARM GAS  /tmp/ccgqwmVH.s 			page 48


 2672 0fee 18       		.uleb128 0x18
 2673 0fef 8F040000 		.4byte	0x48f
 2674 0ff3 0C       		.byte	0xc
 2675 0ff4 00       		.byte	0
 2676 0ff5 16       		.uleb128 0x16
 2677 0ff6 E50F0000 		.4byte	0xfe5
 2678 0ffa 2F       		.uleb128 0x2f
 2679 0ffb A0040000 		.4byte	.LASF171
 2680 0fff 01       		.byte	0x1
 2681 1000 D8       		.byte	0xd8
 2682 1001 2C000000 		.4byte	0x2c
 2683 1005 00000000 		.4byte	.LFB263
 2684 1009 18000000 		.4byte	.LFE263-.LFB263
 2685 100d 01       		.uleb128 0x1
 2686 100e 9C       		.byte	0x9c
 2687 100f 4A100000 		.4byte	0x104a
 2688 1013 22       		.uleb128 0x22
 2689 1014 25040000 		.4byte	.LASF164
 2690 1018 01       		.byte	0x1
 2691 1019 D8       		.byte	0xd8
 2692 101a A5090000 		.4byte	0x9a5
 2693 101e 8F010000 		.4byte	.LLST12
 2694 1022 23       		.uleb128 0x23
 2695 1023 89060000 		.4byte	.LASF166
 2696 1027 4A100000 		.4byte	0x104a
 2697 102b 29       		.uleb128 0x29
 2698 102c 0E000000 		.4byte	.LBB172
 2699 1030 0A000000 		.4byte	.LBE172-.LBB172
 2700 1034 34       		.uleb128 0x34
 2701 1035 6E00     		.ascii	"n\000"
 2702 1037 01       		.byte	0x1
 2703 1038 DF       		.byte	0xdf
 2704 1039 2C000000 		.4byte	0x2c
 2705 103d 01       		.uleb128 0x1
 2706 103e 50       		.byte	0x50
 2707 103f 33       		.uleb128 0x33
 2708 1040 12000000 		.4byte	.LVL21
 2709 1044 B7130000 		.4byte	0x13b7
 2710 1048 00       		.byte	0
 2711 1049 00       		.byte	0
 2712 104a 16       		.uleb128 0x16
 2713 104b 630E0000 		.4byte	0xe63
 2714 104f 1F       		.uleb128 0x1f
 2715 1050 BE080000 		.4byte	.LASF172
 2716 1054 01       		.byte	0x1
 2717 1055 F1       		.byte	0xf1
 2718 1056 00000000 		.4byte	.LFB264
 2719 105a 1A000000 		.4byte	.LFE264-.LFB264
 2720 105e 01       		.uleb128 0x1
 2721 105f 9C       		.byte	0x9c
 2722 1060 60110000 		.4byte	0x1160
 2723 1064 22       		.uleb128 0x22
 2724 1065 25040000 		.4byte	.LASF164
 2725 1069 01       		.byte	0x1
 2726 106a F1       		.byte	0xf1
 2727 106b A5090000 		.4byte	0x9a5
 2728 106f C3010000 		.4byte	.LLST13
ARM GAS  /tmp/ccgqwmVH.s 			page 49


 2729 1073 2D       		.uleb128 0x2d
 2730 1074 6E00     		.ascii	"n\000"
 2731 1076 01       		.byte	0x1
 2732 1077 F1       		.byte	0xf1
 2733 1078 2C000000 		.4byte	0x2c
 2734 107c E1010000 		.4byte	.LLST14
 2735 1080 22       		.uleb128 0x22
 2736 1081 7C000000 		.4byte	.LASF143
 2737 1085 01       		.byte	0x1
 2738 1086 F1       		.byte	0xf1
 2739 1087 59030000 		.4byte	0x359
 2740 108b 02020000 		.4byte	.LLST15
 2741 108f 23       		.uleb128 0x23
 2742 1090 89060000 		.4byte	.LASF166
 2743 1094 70110000 		.4byte	0x1170
 2744 1098 24       		.uleb128 0x24
 2745 1099 F00A0000 		.4byte	0xaf0
 2746 109d 02000000 		.4byte	.LBB173
 2747 10a1 78000000 		.4byte	.Ldebug_ranges0+0x78
 2748 10a5 01       		.byte	0x1
 2749 10a6 F5       		.byte	0xf5
 2750 10a7 E5100000 		.4byte	0x10e5
 2751 10ab 25       		.uleb128 0x25
 2752 10ac B70A0000 		.4byte	0xab7
 2753 10b0 02000000 		.4byte	.LBB174
 2754 10b4 78000000 		.4byte	.Ldebug_ranges0+0x78
 2755 10b8 13       		.byte	0x13
 2756 10b9 ED01     		.2byte	0x1ed
 2757 10bb 25       		.uleb128 0x25
 2758 10bc A50A0000 		.4byte	0xaa5
 2759 10c0 02000000 		.4byte	.LBB175
 2760 10c4 78000000 		.4byte	.Ldebug_ranges0+0x78
 2761 10c8 12       		.byte	0x12
 2762 10c9 5C01     		.2byte	0x15c
 2763 10cb 25       		.uleb128 0x25
 2764 10cc 8B0A0000 		.4byte	0xa8b
 2765 10d0 02000000 		.4byte	.LBB176
 2766 10d4 78000000 		.4byte	.Ldebug_ranges0+0x78
 2767 10d8 0B       		.byte	0xb
 2768 10d9 BF01     		.2byte	0x1bf
 2769 10db 26       		.uleb128 0x26
 2770 10dc 980A0000 		.4byte	0xa98
 2771 10e0 20       		.byte	0x20
 2772 10e1 00       		.byte	0
 2773 10e2 00       		.byte	0
 2774 10e3 00       		.byte	0
 2775 10e4 00       		.byte	0
 2776 10e5 27       		.uleb128 0x27
 2777 10e6 F90A0000 		.4byte	0xaf9
 2778 10ea 12000000 		.4byte	.LBB183
 2779 10ee 08000000 		.4byte	.LBE183-.LBB183
 2780 10f2 01       		.byte	0x1
 2781 10f3 FB       		.byte	0xfb
 2782 10f4 41110000 		.4byte	0x1141
 2783 10f8 28       		.uleb128 0x28
 2784 10f9 C00A0000 		.4byte	0xac0
 2785 10fd 12000000 		.4byte	.LBB184
ARM GAS  /tmp/ccgqwmVH.s 			page 50


 2786 1101 08000000 		.4byte	.LBE184-.LBB184
 2787 1105 13       		.byte	0x13
 2788 1106 F801     		.2byte	0x1f8
 2789 1108 29       		.uleb128 0x29
 2790 1109 12000000 		.4byte	.LBB185
 2791 110d 08000000 		.4byte	.LBE185-.LBB185
 2792 1111 2A       		.uleb128 0x2a
 2793 1112 CD0A0000 		.4byte	0xacd
 2794 1116 28       		.uleb128 0x28
 2795 1117 AE0A0000 		.4byte	0xaae
 2796 111b 12000000 		.4byte	.LBB186
 2797 111f 08000000 		.4byte	.LBE186-.LBB186
 2798 1123 12       		.byte	0x12
 2799 1124 7301     		.2byte	0x173
 2800 1126 28       		.uleb128 0x28
 2801 1127 8B0A0000 		.4byte	0xa8b
 2802 112b 12000000 		.4byte	.LBB187
 2803 112f 08000000 		.4byte	.LBE187-.LBB187
 2804 1133 0B       		.byte	0xb
 2805 1134 CD01     		.2byte	0x1cd
 2806 1136 26       		.uleb128 0x26
 2807 1137 980A0000 		.4byte	0xa98
 2808 113b 00       		.byte	0
 2809 113c 00       		.byte	0
 2810 113d 00       		.byte	0
 2811 113e 00       		.byte	0
 2812 113f 00       		.byte	0
 2813 1140 00       		.byte	0
 2814 1141 2B       		.uleb128 0x2b
 2815 1142 0E000000 		.4byte	.LVL23
 2816 1146 CD130000 		.4byte	0x13cd
 2817 114a 2C       		.uleb128 0x2c
 2818 114b 01       		.uleb128 0x1
 2819 114c 52       		.byte	0x52
 2820 114d 03       		.uleb128 0x3
 2821 114e F3       		.byte	0xf3
 2822 114f 01       		.uleb128 0x1
 2823 1150 52       		.byte	0x52
 2824 1151 2C       		.uleb128 0x2c
 2825 1152 01       		.uleb128 0x1
 2826 1153 51       		.byte	0x51
 2827 1154 03       		.uleb128 0x3
 2828 1155 F3       		.byte	0xf3
 2829 1156 01       		.uleb128 0x1
 2830 1157 51       		.byte	0x51
 2831 1158 2C       		.uleb128 0x2c
 2832 1159 01       		.uleb128 0x1
 2833 115a 50       		.byte	0x50
 2834 115b 02       		.uleb128 0x2
 2835 115c 74       		.byte	0x74
 2836 115d 00       		.sleb128 0
 2837 115e 00       		.byte	0
 2838 115f 00       		.byte	0
 2839 1160 17       		.uleb128 0x17
 2840 1161 CE070000 		.4byte	0x7ce
 2841 1165 70110000 		.4byte	0x1170
 2842 1169 18       		.uleb128 0x18
ARM GAS  /tmp/ccgqwmVH.s 			page 51


 2843 116a 8F040000 		.4byte	0x48f
 2844 116e 10       		.byte	0x10
 2845 116f 00       		.byte	0
 2846 1170 16       		.uleb128 0x16
 2847 1171 60110000 		.4byte	0x1160
 2848 1175 35       		.uleb128 0x35
 2849 1176 DE050000 		.4byte	.LASF173
 2850 117a 01       		.byte	0x1
 2851 117b 0A01     		.2byte	0x10a
 2852 117d 00000000 		.4byte	.LFB265
 2853 1181 0E000000 		.4byte	.LFE265-.LFB265
 2854 1185 01       		.uleb128 0x1
 2855 1186 9C       		.byte	0x9c
 2856 1187 E1110000 		.4byte	0x11e1
 2857 118b 36       		.uleb128 0x36
 2858 118c 25040000 		.4byte	.LASF164
 2859 1190 01       		.byte	0x1
 2860 1191 0A01     		.2byte	0x10a
 2861 1193 A5090000 		.4byte	0x9a5
 2862 1197 23020000 		.4byte	.LLST16
 2863 119b 37       		.uleb128 0x37
 2864 119c 6E00     		.ascii	"n\000"
 2865 119e 01       		.byte	0x1
 2866 119f 0A01     		.2byte	0x10a
 2867 11a1 2C000000 		.4byte	0x2c
 2868 11a5 41020000 		.4byte	.LLST17
 2869 11a9 36       		.uleb128 0x36
 2870 11aa 7C000000 		.4byte	.LASF143
 2871 11ae 01       		.byte	0x1
 2872 11af 0A01     		.2byte	0x10a
 2873 11b1 59030000 		.4byte	0x359
 2874 11b5 62020000 		.4byte	.LLST18
 2875 11b9 23       		.uleb128 0x23
 2876 11ba 89060000 		.4byte	.LASF166
 2877 11be F1110000 		.4byte	0x11f1
 2878 11c2 2B       		.uleb128 0x2b
 2879 11c3 08000000 		.4byte	.LVL26
 2880 11c7 CD130000 		.4byte	0x13cd
 2881 11cb 2C       		.uleb128 0x2c
 2882 11cc 01       		.uleb128 0x1
 2883 11cd 52       		.byte	0x52
 2884 11ce 03       		.uleb128 0x3
 2885 11cf F3       		.byte	0xf3
 2886 11d0 01       		.uleb128 0x1
 2887 11d1 52       		.byte	0x52
 2888 11d2 2C       		.uleb128 0x2c
 2889 11d3 01       		.uleb128 0x1
 2890 11d4 51       		.byte	0x51
 2891 11d5 03       		.uleb128 0x3
 2892 11d6 F3       		.byte	0xf3
 2893 11d7 01       		.uleb128 0x1
 2894 11d8 51       		.byte	0x51
 2895 11d9 2C       		.uleb128 0x2c
 2896 11da 01       		.uleb128 0x1
 2897 11db 50       		.byte	0x50
 2898 11dc 02       		.uleb128 0x2
 2899 11dd 74       		.byte	0x74
ARM GAS  /tmp/ccgqwmVH.s 			page 52


 2900 11de 00       		.sleb128 0
 2901 11df 00       		.byte	0
 2902 11e0 00       		.byte	0
 2903 11e1 17       		.uleb128 0x17
 2904 11e2 CE070000 		.4byte	0x7ce
 2905 11e6 F1110000 		.4byte	0x11f1
 2906 11ea 18       		.uleb128 0x18
 2907 11eb 8F040000 		.4byte	0x48f
 2908 11ef 11       		.byte	0x11
 2909 11f0 00       		.byte	0
 2910 11f1 16       		.uleb128 0x16
 2911 11f2 E1110000 		.4byte	0x11e1
 2912 11f6 38       		.uleb128 0x38
 2913 11f7 A6010000 		.4byte	.LASF174
 2914 11fb 01       		.byte	0x1
 2915 11fc 2101     		.2byte	0x121
 2916 11fe 2C000000 		.4byte	0x2c
 2917 1202 00000000 		.4byte	.LFB266
 2918 1206 2A000000 		.4byte	.LFE266-.LFB266
 2919 120a 01       		.uleb128 0x1
 2920 120b 9C       		.byte	0x9c
 2921 120c EB120000 		.4byte	0x12eb
 2922 1210 36       		.uleb128 0x36
 2923 1211 25040000 		.4byte	.LASF164
 2924 1215 01       		.byte	0x1
 2925 1216 2101     		.2byte	0x121
 2926 1218 A5090000 		.4byte	0x9a5
 2927 121c 83020000 		.4byte	.LLST19
 2928 1220 39       		.uleb128 0x39
 2929 1221 6E00     		.ascii	"n\000"
 2930 1223 01       		.byte	0x1
 2931 1224 2201     		.2byte	0x122
 2932 1226 2C000000 		.4byte	0x2c
 2933 122a B7020000 		.4byte	.LLST20
 2934 122e 23       		.uleb128 0x23
 2935 122f 89060000 		.4byte	.LASF166
 2936 1233 FB120000 		.4byte	0x12fb
 2937 1237 3A       		.uleb128 0x3a
 2938 1238 F00A0000 		.4byte	0xaf0
 2939 123c 02000000 		.4byte	.LBB189
 2940 1240 90000000 		.4byte	.Ldebug_ranges0+0x90
 2941 1244 01       		.byte	0x1
 2942 1245 2601     		.2byte	0x126
 2943 1247 85120000 		.4byte	0x1285
 2944 124b 25       		.uleb128 0x25
 2945 124c B70A0000 		.4byte	0xab7
 2946 1250 02000000 		.4byte	.LBB190
 2947 1254 90000000 		.4byte	.Ldebug_ranges0+0x90
 2948 1258 13       		.byte	0x13
 2949 1259 ED01     		.2byte	0x1ed
 2950 125b 25       		.uleb128 0x25
 2951 125c A50A0000 		.4byte	0xaa5
 2952 1260 02000000 		.4byte	.LBB191
 2953 1264 90000000 		.4byte	.Ldebug_ranges0+0x90
 2954 1268 12       		.byte	0x12
 2955 1269 5C01     		.2byte	0x15c
 2956 126b 25       		.uleb128 0x25
ARM GAS  /tmp/ccgqwmVH.s 			page 53


 2957 126c 8B0A0000 		.4byte	0xa8b
 2958 1270 02000000 		.4byte	.LBB192
 2959 1274 90000000 		.4byte	.Ldebug_ranges0+0x90
 2960 1278 0B       		.byte	0xb
 2961 1279 BF01     		.2byte	0x1bf
 2962 127b 26       		.uleb128 0x26
 2963 127c 980A0000 		.4byte	0xa98
 2964 1280 20       		.byte	0x20
 2965 1281 00       		.byte	0
 2966 1282 00       		.byte	0
 2967 1283 00       		.byte	0
 2968 1284 00       		.byte	0
 2969 1285 3A       		.uleb128 0x3a
 2970 1286 F90A0000 		.4byte	0xaf9
 2971 128a 12000000 		.4byte	.LBB199
 2972 128e A8000000 		.4byte	.Ldebug_ranges0+0xa8
 2973 1292 01       		.byte	0x1
 2974 1293 3001     		.2byte	0x130
 2975 1295 E1120000 		.4byte	0x12e1
 2976 1299 25       		.uleb128 0x25
 2977 129a C00A0000 		.4byte	0xac0
 2978 129e 12000000 		.4byte	.LBB200
 2979 12a2 A8000000 		.4byte	.Ldebug_ranges0+0xa8
 2980 12a6 13       		.byte	0x13
 2981 12a7 F801     		.2byte	0x1f8
 2982 12a9 31       		.uleb128 0x31
 2983 12aa A8000000 		.4byte	.Ldebug_ranges0+0xa8
 2984 12ae 2A       		.uleb128 0x2a
 2985 12af CD0A0000 		.4byte	0xacd
 2986 12b3 25       		.uleb128 0x25
 2987 12b4 AE0A0000 		.4byte	0xaae
 2988 12b8 12000000 		.4byte	.LBB202
 2989 12bc A8000000 		.4byte	.Ldebug_ranges0+0xa8
 2990 12c0 12       		.byte	0x12
 2991 12c1 7301     		.2byte	0x173
 2992 12c3 25       		.uleb128 0x25
 2993 12c4 8B0A0000 		.4byte	0xa8b
 2994 12c8 12000000 		.4byte	.LBB203
 2995 12cc A8000000 		.4byte	.Ldebug_ranges0+0xa8
 2996 12d0 0B       		.byte	0xb
 2997 12d1 CD01     		.2byte	0x1cd
 2998 12d3 32       		.uleb128 0x32
 2999 12d4 980A0000 		.4byte	0xa98
 3000 12d8 D5020000 		.4byte	.LLST21
 3001 12dc 00       		.byte	0
 3002 12dd 00       		.byte	0
 3003 12de 00       		.byte	0
 3004 12df 00       		.byte	0
 3005 12e0 00       		.byte	0
 3006 12e1 33       		.uleb128 0x33
 3007 12e2 1E000000 		.4byte	.LVL30
 3008 12e6 E9130000 		.4byte	0x13e9
 3009 12ea 00       		.byte	0
 3010 12eb 17       		.uleb128 0x17
 3011 12ec CE070000 		.4byte	0x7ce
 3012 12f0 FB120000 		.4byte	0x12fb
 3013 12f4 18       		.uleb128 0x18
ARM GAS  /tmp/ccgqwmVH.s 			page 54


 3014 12f5 8F040000 		.4byte	0x48f
 3015 12f9 0F       		.byte	0xf
 3016 12fa 00       		.byte	0
 3017 12fb 16       		.uleb128 0x16
 3018 12fc EB120000 		.4byte	0x12eb
 3019 1300 38       		.uleb128 0x38
 3020 1301 8C010000 		.4byte	.LASF175
 3021 1305 01       		.byte	0x1
 3022 1306 4201     		.2byte	0x142
 3023 1308 2C000000 		.4byte	0x2c
 3024 130c 00000000 		.4byte	.LFB267
 3025 1310 18000000 		.4byte	.LFE267-.LFB267
 3026 1314 01       		.uleb128 0x1
 3027 1315 9C       		.byte	0x9c
 3028 1316 53130000 		.4byte	0x1353
 3029 131a 36       		.uleb128 0x36
 3030 131b 25040000 		.4byte	.LASF164
 3031 131f 01       		.byte	0x1
 3032 1320 4201     		.2byte	0x142
 3033 1322 A5090000 		.4byte	0x9a5
 3034 1326 F5020000 		.4byte	.LLST22
 3035 132a 23       		.uleb128 0x23
 3036 132b 89060000 		.4byte	.LASF166
 3037 132f 53130000 		.4byte	0x1353
 3038 1333 29       		.uleb128 0x29
 3039 1334 0E000000 		.4byte	.LBB211
 3040 1338 0A000000 		.4byte	.LBE211-.LBB211
 3041 133c 3B       		.uleb128 0x3b
 3042 133d 6E00     		.ascii	"n\000"
 3043 133f 01       		.byte	0x1
 3044 1340 4901     		.2byte	0x149
 3045 1342 2C000000 		.4byte	0x2c
 3046 1346 01       		.uleb128 0x1
 3047 1347 50       		.byte	0x50
 3048 1348 33       		.uleb128 0x33
 3049 1349 12000000 		.4byte	.LVL35
 3050 134d E9130000 		.4byte	0x13e9
 3051 1351 00       		.byte	0
 3052 1352 00       		.byte	0
 3053 1353 16       		.uleb128 0x16
 3054 1354 60110000 		.4byte	0x1160
 3055 1358 3C       		.uleb128 0x3c
 3056 1359 D6000000 		.4byte	.LASF176
 3057 135d 14       		.byte	0x14
 3058 135e A706     		.2byte	0x6a7
 3059 1360 E9000000 		.4byte	0xe9
 3060 1364 3D       		.uleb128 0x3d
 3061 1365 636800   		.ascii	"ch\000"
 3062 1368 08       		.byte	0x8
 3063 1369 0902     		.2byte	0x209
 3064 136b 28040000 		.4byte	0x428
 3065 136f 3E       		.uleb128 0x3e
 3066 1370 BF010000 		.4byte	.LASF186
 3067 1374 11       		.byte	0x11
 3068 1375 4C02     		.2byte	0x24c
 3069 1377 3F       		.uleb128 0x3f
 3070 1378 33070000 		.4byte	.LASF177
ARM GAS  /tmp/ccgqwmVH.s 			page 55


 3071 137c 11       		.byte	0x11
 3072 137d 4D02     		.2byte	0x24d
 3073 137f 89130000 		.4byte	0x1389
 3074 1383 0D       		.uleb128 0xd
 3075 1384 A5090000 		.4byte	0x9a5
 3076 1388 00       		.byte	0
 3077 1389 3F       		.uleb128 0x3f
 3078 138a C8050000 		.4byte	.LASF178
 3079 138e 11       		.byte	0x11
 3080 138f 4E02     		.2byte	0x24e
 3081 1391 9B130000 		.4byte	0x139b
 3082 1395 0D       		.uleb128 0xd
 3083 1396 A5090000 		.4byte	0x9a5
 3084 139a 00       		.byte	0
 3085 139b 3F       		.uleb128 0x3f
 3086 139c 98080000 		.4byte	.LASF179
 3087 13a0 11       		.byte	0x11
 3088 13a1 4F02     		.2byte	0x24f
 3089 13a3 B7130000 		.4byte	0x13b7
 3090 13a7 0D       		.uleb128 0xd
 3091 13a8 A5090000 		.4byte	0x9a5
 3092 13ac 0D       		.uleb128 0xd
 3093 13ad 2C000000 		.4byte	0x2c
 3094 13b1 0D       		.uleb128 0xd
 3095 13b2 5C0E0000 		.4byte	0xe5c
 3096 13b6 00       		.byte	0
 3097 13b7 40       		.uleb128 0x40
 3098 13b8 28060000 		.4byte	.LASF187
 3099 13bc 11       		.byte	0x11
 3100 13bd 5002     		.2byte	0x250
 3101 13bf 2C000000 		.4byte	0x2c
 3102 13c3 CD130000 		.4byte	0x13cd
 3103 13c7 0D       		.uleb128 0xd
 3104 13c8 A5090000 		.4byte	0x9a5
 3105 13cc 00       		.byte	0
 3106 13cd 3F       		.uleb128 0x3f
 3107 13ce 00000000 		.4byte	.LASF180
 3108 13d2 11       		.byte	0x11
 3109 13d3 5102     		.2byte	0x251
 3110 13d5 E9130000 		.4byte	0x13e9
 3111 13d9 0D       		.uleb128 0xd
 3112 13da A5090000 		.4byte	0x9a5
 3113 13de 0D       		.uleb128 0xd
 3114 13df 2C000000 		.4byte	0x2c
 3115 13e3 0D       		.uleb128 0xd
 3116 13e4 59030000 		.4byte	0x359
 3117 13e8 00       		.byte	0
 3118 13e9 41       		.uleb128 0x41
 3119 13ea 03010000 		.4byte	.LASF181
 3120 13ee 11       		.byte	0x11
 3121 13ef 5202     		.2byte	0x252
 3122 13f1 2C000000 		.4byte	0x2c
 3123 13f5 0D       		.uleb128 0xd
 3124 13f6 A5090000 		.4byte	0x9a5
 3125 13fa 00       		.byte	0
 3126 13fb 00       		.byte	0
 3127              		.section	.debug_abbrev,"",%progbits
ARM GAS  /tmp/ccgqwmVH.s 			page 56


 3128              	.Ldebug_abbrev0:
 3129 0000 01       		.uleb128 0x1
 3130 0001 11       		.uleb128 0x11
 3131 0002 01       		.byte	0x1
 3132 0003 25       		.uleb128 0x25
 3133 0004 0E       		.uleb128 0xe
 3134 0005 13       		.uleb128 0x13
 3135 0006 0B       		.uleb128 0xb
 3136 0007 03       		.uleb128 0x3
 3137 0008 0E       		.uleb128 0xe
 3138 0009 1B       		.uleb128 0x1b
 3139 000a 0E       		.uleb128 0xe
 3140 000b 55       		.uleb128 0x55
 3141 000c 17       		.uleb128 0x17
 3142 000d 11       		.uleb128 0x11
 3143 000e 01       		.uleb128 0x1
 3144 000f 10       		.uleb128 0x10
 3145 0010 17       		.uleb128 0x17
 3146 0011 00       		.byte	0
 3147 0012 00       		.byte	0
 3148 0013 02       		.uleb128 0x2
 3149 0014 24       		.uleb128 0x24
 3150 0015 00       		.byte	0
 3151 0016 0B       		.uleb128 0xb
 3152 0017 0B       		.uleb128 0xb
 3153 0018 3E       		.uleb128 0x3e
 3154 0019 0B       		.uleb128 0xb
 3155 001a 03       		.uleb128 0x3
 3156 001b 08       		.uleb128 0x8
 3157 001c 00       		.byte	0
 3158 001d 00       		.byte	0
 3159 001e 03       		.uleb128 0x3
 3160 001f 16       		.uleb128 0x16
 3161 0020 00       		.byte	0
 3162 0021 03       		.uleb128 0x3
 3163 0022 0E       		.uleb128 0xe
 3164 0023 3A       		.uleb128 0x3a
 3165 0024 0B       		.uleb128 0xb
 3166 0025 3B       		.uleb128 0x3b
 3167 0026 0B       		.uleb128 0xb
 3168 0027 49       		.uleb128 0x49
 3169 0028 13       		.uleb128 0x13
 3170 0029 00       		.byte	0
 3171 002a 00       		.byte	0
 3172 002b 04       		.uleb128 0x4
 3173 002c 24       		.uleb128 0x24
 3174 002d 00       		.byte	0
 3175 002e 0B       		.uleb128 0xb
 3176 002f 0B       		.uleb128 0xb
 3177 0030 3E       		.uleb128 0x3e
 3178 0031 0B       		.uleb128 0xb
 3179 0032 03       		.uleb128 0x3
 3180 0033 0E       		.uleb128 0xe
 3181 0034 00       		.byte	0
 3182 0035 00       		.byte	0
 3183 0036 05       		.uleb128 0x5
 3184 0037 35       		.uleb128 0x35
ARM GAS  /tmp/ccgqwmVH.s 			page 57


 3185 0038 00       		.byte	0
 3186 0039 49       		.uleb128 0x49
 3187 003a 13       		.uleb128 0x13
 3188 003b 00       		.byte	0
 3189 003c 00       		.byte	0
 3190 003d 06       		.uleb128 0x6
 3191 003e 13       		.uleb128 0x13
 3192 003f 01       		.byte	0x1
 3193 0040 03       		.uleb128 0x3
 3194 0041 0E       		.uleb128 0xe
 3195 0042 0B       		.uleb128 0xb
 3196 0043 0B       		.uleb128 0xb
 3197 0044 3A       		.uleb128 0x3a
 3198 0045 0B       		.uleb128 0xb
 3199 0046 3B       		.uleb128 0x3b
 3200 0047 0B       		.uleb128 0xb
 3201 0048 01       		.uleb128 0x1
 3202 0049 13       		.uleb128 0x13
 3203 004a 00       		.byte	0
 3204 004b 00       		.byte	0
 3205 004c 07       		.uleb128 0x7
 3206 004d 0D       		.uleb128 0xd
 3207 004e 00       		.byte	0
 3208 004f 03       		.uleb128 0x3
 3209 0050 0E       		.uleb128 0xe
 3210 0051 3A       		.uleb128 0x3a
 3211 0052 0B       		.uleb128 0xb
 3212 0053 3B       		.uleb128 0x3b
 3213 0054 0B       		.uleb128 0xb
 3214 0055 49       		.uleb128 0x49
 3215 0056 13       		.uleb128 0x13
 3216 0057 38       		.uleb128 0x38
 3217 0058 0B       		.uleb128 0xb
 3218 0059 00       		.byte	0
 3219 005a 00       		.byte	0
 3220 005b 08       		.uleb128 0x8
 3221 005c 0D       		.uleb128 0xd
 3222 005d 00       		.byte	0
 3223 005e 03       		.uleb128 0x3
 3224 005f 08       		.uleb128 0x8
 3225 0060 3A       		.uleb128 0x3a
 3226 0061 0B       		.uleb128 0xb
 3227 0062 3B       		.uleb128 0x3b
 3228 0063 05       		.uleb128 0x5
 3229 0064 49       		.uleb128 0x49
 3230 0065 13       		.uleb128 0x13
 3231 0066 38       		.uleb128 0x38
 3232 0067 0B       		.uleb128 0xb
 3233 0068 00       		.byte	0
 3234 0069 00       		.byte	0
 3235 006a 09       		.uleb128 0x9
 3236 006b 0D       		.uleb128 0xd
 3237 006c 00       		.byte	0
 3238 006d 03       		.uleb128 0x3
 3239 006e 0E       		.uleb128 0xe
 3240 006f 3A       		.uleb128 0x3a
 3241 0070 0B       		.uleb128 0xb
ARM GAS  /tmp/ccgqwmVH.s 			page 58


 3242 0071 3B       		.uleb128 0x3b
 3243 0072 05       		.uleb128 0x5
 3244 0073 49       		.uleb128 0x49
 3245 0074 13       		.uleb128 0x13
 3246 0075 38       		.uleb128 0x38
 3247 0076 0B       		.uleb128 0xb
 3248 0077 00       		.byte	0
 3249 0078 00       		.byte	0
 3250 0079 0A       		.uleb128 0xa
 3251 007a 0F       		.uleb128 0xf
 3252 007b 00       		.byte	0
 3253 007c 0B       		.uleb128 0xb
 3254 007d 0B       		.uleb128 0xb
 3255 007e 49       		.uleb128 0x49
 3256 007f 13       		.uleb128 0x13
 3257 0080 00       		.byte	0
 3258 0081 00       		.byte	0
 3259 0082 0B       		.uleb128 0xb
 3260 0083 13       		.uleb128 0x13
 3261 0084 01       		.byte	0x1
 3262 0085 03       		.uleb128 0x3
 3263 0086 0E       		.uleb128 0xe
 3264 0087 0B       		.uleb128 0xb
 3265 0088 0B       		.uleb128 0xb
 3266 0089 3A       		.uleb128 0x3a
 3267 008a 0B       		.uleb128 0xb
 3268 008b 3B       		.uleb128 0x3b
 3269 008c 05       		.uleb128 0x5
 3270 008d 01       		.uleb128 0x1
 3271 008e 13       		.uleb128 0x13
 3272 008f 00       		.byte	0
 3273 0090 00       		.byte	0
 3274 0091 0C       		.uleb128 0xc
 3275 0092 15       		.uleb128 0x15
 3276 0093 01       		.byte	0x1
 3277 0094 27       		.uleb128 0x27
 3278 0095 19       		.uleb128 0x19
 3279 0096 01       		.uleb128 0x1
 3280 0097 13       		.uleb128 0x13
 3281 0098 00       		.byte	0
 3282 0099 00       		.byte	0
 3283 009a 0D       		.uleb128 0xd
 3284 009b 05       		.uleb128 0x5
 3285 009c 00       		.byte	0
 3286 009d 49       		.uleb128 0x49
 3287 009e 13       		.uleb128 0x13
 3288 009f 00       		.byte	0
 3289 00a0 00       		.byte	0
 3290 00a1 0E       		.uleb128 0xe
 3291 00a2 0F       		.uleb128 0xf
 3292 00a3 00       		.byte	0
 3293 00a4 0B       		.uleb128 0xb
 3294 00a5 0B       		.uleb128 0xb
 3295 00a6 00       		.byte	0
 3296 00a7 00       		.byte	0
 3297 00a8 0F       		.uleb128 0xf
 3298 00a9 13       		.uleb128 0x13
ARM GAS  /tmp/ccgqwmVH.s 			page 59


 3299 00aa 01       		.byte	0x1
 3300 00ab 03       		.uleb128 0x3
 3301 00ac 0E       		.uleb128 0xe
 3302 00ad 0B       		.uleb128 0xb
 3303 00ae 05       		.uleb128 0x5
 3304 00af 3A       		.uleb128 0x3a
 3305 00b0 0B       		.uleb128 0xb
 3306 00b1 3B       		.uleb128 0x3b
 3307 00b2 05       		.uleb128 0x5
 3308 00b3 01       		.uleb128 0x1
 3309 00b4 13       		.uleb128 0x13
 3310 00b5 00       		.byte	0
 3311 00b6 00       		.byte	0
 3312 00b7 10       		.uleb128 0x10
 3313 00b8 13       		.uleb128 0x13
 3314 00b9 01       		.byte	0x1
 3315 00ba 0B       		.uleb128 0xb
 3316 00bb 0B       		.uleb128 0xb
 3317 00bc 3A       		.uleb128 0x3a
 3318 00bd 0B       		.uleb128 0xb
 3319 00be 3B       		.uleb128 0x3b
 3320 00bf 05       		.uleb128 0x5
 3321 00c0 01       		.uleb128 0x1
 3322 00c1 13       		.uleb128 0x13
 3323 00c2 00       		.byte	0
 3324 00c3 00       		.byte	0
 3325 00c4 11       		.uleb128 0x11
 3326 00c5 16       		.uleb128 0x16
 3327 00c6 00       		.byte	0
 3328 00c7 03       		.uleb128 0x3
 3329 00c8 0E       		.uleb128 0xe
 3330 00c9 3A       		.uleb128 0x3a
 3331 00ca 0B       		.uleb128 0xb
 3332 00cb 3B       		.uleb128 0x3b
 3333 00cc 05       		.uleb128 0x5
 3334 00cd 49       		.uleb128 0x49
 3335 00ce 13       		.uleb128 0x13
 3336 00cf 00       		.byte	0
 3337 00d0 00       		.byte	0
 3338 00d1 12       		.uleb128 0x12
 3339 00d2 0D       		.uleb128 0xd
 3340 00d3 00       		.byte	0
 3341 00d4 03       		.uleb128 0x3
 3342 00d5 08       		.uleb128 0x8
 3343 00d6 3A       		.uleb128 0x3a
 3344 00d7 0B       		.uleb128 0xb
 3345 00d8 3B       		.uleb128 0x3b
 3346 00d9 0B       		.uleb128 0xb
 3347 00da 49       		.uleb128 0x49
 3348 00db 13       		.uleb128 0x13
 3349 00dc 38       		.uleb128 0x38
 3350 00dd 0B       		.uleb128 0xb
 3351 00de 00       		.byte	0
 3352 00df 00       		.byte	0
 3353 00e0 13       		.uleb128 0x13
 3354 00e1 13       		.uleb128 0x13
 3355 00e2 01       		.byte	0x1
ARM GAS  /tmp/ccgqwmVH.s 			page 60


 3356 00e3 0B       		.uleb128 0xb
 3357 00e4 0B       		.uleb128 0xb
 3358 00e5 3A       		.uleb128 0x3a
 3359 00e6 0B       		.uleb128 0xb
 3360 00e7 3B       		.uleb128 0x3b
 3361 00e8 0B       		.uleb128 0xb
 3362 00e9 01       		.uleb128 0x1
 3363 00ea 13       		.uleb128 0x13
 3364 00eb 00       		.byte	0
 3365 00ec 00       		.byte	0
 3366 00ed 14       		.uleb128 0x14
 3367 00ee 17       		.uleb128 0x17
 3368 00ef 01       		.byte	0x1
 3369 00f0 0B       		.uleb128 0xb
 3370 00f1 0B       		.uleb128 0xb
 3371 00f2 3A       		.uleb128 0x3a
 3372 00f3 0B       		.uleb128 0xb
 3373 00f4 3B       		.uleb128 0x3b
 3374 00f5 0B       		.uleb128 0xb
 3375 00f6 01       		.uleb128 0x1
 3376 00f7 13       		.uleb128 0x13
 3377 00f8 00       		.byte	0
 3378 00f9 00       		.byte	0
 3379 00fa 15       		.uleb128 0x15
 3380 00fb 0D       		.uleb128 0xd
 3381 00fc 00       		.byte	0
 3382 00fd 03       		.uleb128 0x3
 3383 00fe 0E       		.uleb128 0xe
 3384 00ff 3A       		.uleb128 0x3a
 3385 0100 0B       		.uleb128 0xb
 3386 0101 3B       		.uleb128 0x3b
 3387 0102 05       		.uleb128 0x5
 3388 0103 49       		.uleb128 0x49
 3389 0104 13       		.uleb128 0x13
 3390 0105 00       		.byte	0
 3391 0106 00       		.byte	0
 3392 0107 16       		.uleb128 0x16
 3393 0108 26       		.uleb128 0x26
 3394 0109 00       		.byte	0
 3395 010a 49       		.uleb128 0x49
 3396 010b 13       		.uleb128 0x13
 3397 010c 00       		.byte	0
 3398 010d 00       		.byte	0
 3399 010e 17       		.uleb128 0x17
 3400 010f 01       		.uleb128 0x1
 3401 0110 01       		.byte	0x1
 3402 0111 49       		.uleb128 0x49
 3403 0112 13       		.uleb128 0x13
 3404 0113 01       		.uleb128 0x1
 3405 0114 13       		.uleb128 0x13
 3406 0115 00       		.byte	0
 3407 0116 00       		.byte	0
 3408 0117 18       		.uleb128 0x18
 3409 0118 21       		.uleb128 0x21
 3410 0119 00       		.byte	0
 3411 011a 49       		.uleb128 0x49
 3412 011b 13       		.uleb128 0x13
ARM GAS  /tmp/ccgqwmVH.s 			page 61


 3413 011c 2F       		.uleb128 0x2f
 3414 011d 0B       		.uleb128 0xb
 3415 011e 00       		.byte	0
 3416 011f 00       		.byte	0
 3417 0120 19       		.uleb128 0x19
 3418 0121 04       		.uleb128 0x4
 3419 0122 01       		.byte	0x1
 3420 0123 0B       		.uleb128 0xb
 3421 0124 0B       		.uleb128 0xb
 3422 0125 3A       		.uleb128 0x3a
 3423 0126 0B       		.uleb128 0xb
 3424 0127 3B       		.uleb128 0x3b
 3425 0128 0B       		.uleb128 0xb
 3426 0129 01       		.uleb128 0x1
 3427 012a 13       		.uleb128 0x13
 3428 012b 00       		.byte	0
 3429 012c 00       		.byte	0
 3430 012d 1A       		.uleb128 0x1a
 3431 012e 28       		.uleb128 0x28
 3432 012f 00       		.byte	0
 3433 0130 03       		.uleb128 0x3
 3434 0131 0E       		.uleb128 0xe
 3435 0132 1C       		.uleb128 0x1c
 3436 0133 0D       		.uleb128 0xd
 3437 0134 00       		.byte	0
 3438 0135 00       		.byte	0
 3439 0136 1B       		.uleb128 0x1b
 3440 0137 2E       		.uleb128 0x2e
 3441 0138 01       		.byte	0x1
 3442 0139 03       		.uleb128 0x3
 3443 013a 0E       		.uleb128 0xe
 3444 013b 3A       		.uleb128 0x3a
 3445 013c 0B       		.uleb128 0xb
 3446 013d 3B       		.uleb128 0x3b
 3447 013e 05       		.uleb128 0x5
 3448 013f 27       		.uleb128 0x27
 3449 0140 19       		.uleb128 0x19
 3450 0141 20       		.uleb128 0x20
 3451 0142 0B       		.uleb128 0xb
 3452 0143 01       		.uleb128 0x1
 3453 0144 13       		.uleb128 0x13
 3454 0145 00       		.byte	0
 3455 0146 00       		.byte	0
 3456 0147 1C       		.uleb128 0x1c
 3457 0148 05       		.uleb128 0x5
 3458 0149 00       		.byte	0
 3459 014a 03       		.uleb128 0x3
 3460 014b 0E       		.uleb128 0xe
 3461 014c 3A       		.uleb128 0x3a
 3462 014d 0B       		.uleb128 0xb
 3463 014e 3B       		.uleb128 0x3b
 3464 014f 05       		.uleb128 0x5
 3465 0150 49       		.uleb128 0x49
 3466 0151 13       		.uleb128 0x13
 3467 0152 00       		.byte	0
 3468 0153 00       		.byte	0
 3469 0154 1D       		.uleb128 0x1d
ARM GAS  /tmp/ccgqwmVH.s 			page 62


 3470 0155 2E       		.uleb128 0x2e
 3471 0156 00       		.byte	0
 3472 0157 03       		.uleb128 0x3
 3473 0158 0E       		.uleb128 0xe
 3474 0159 3A       		.uleb128 0x3a
 3475 015a 0B       		.uleb128 0xb
 3476 015b 3B       		.uleb128 0x3b
 3477 015c 05       		.uleb128 0x5
 3478 015d 27       		.uleb128 0x27
 3479 015e 19       		.uleb128 0x19
 3480 015f 20       		.uleb128 0x20
 3481 0160 0B       		.uleb128 0xb
 3482 0161 00       		.byte	0
 3483 0162 00       		.byte	0
 3484 0163 1E       		.uleb128 0x1e
 3485 0164 34       		.uleb128 0x34
 3486 0165 00       		.byte	0
 3487 0166 03       		.uleb128 0x3
 3488 0167 0E       		.uleb128 0xe
 3489 0168 49       		.uleb128 0x49
 3490 0169 13       		.uleb128 0x13
 3491 016a 34       		.uleb128 0x34
 3492 016b 19       		.uleb128 0x19
 3493 016c 1C       		.uleb128 0x1c
 3494 016d 0E       		.uleb128 0xe
 3495 016e 00       		.byte	0
 3496 016f 00       		.byte	0
 3497 0170 1F       		.uleb128 0x1f
 3498 0171 2E       		.uleb128 0x2e
 3499 0172 01       		.byte	0x1
 3500 0173 3F       		.uleb128 0x3f
 3501 0174 19       		.uleb128 0x19
 3502 0175 03       		.uleb128 0x3
 3503 0176 0E       		.uleb128 0xe
 3504 0177 3A       		.uleb128 0x3a
 3505 0178 0B       		.uleb128 0xb
 3506 0179 3B       		.uleb128 0x3b
 3507 017a 0B       		.uleb128 0xb
 3508 017b 27       		.uleb128 0x27
 3509 017c 19       		.uleb128 0x19
 3510 017d 11       		.uleb128 0x11
 3511 017e 01       		.uleb128 0x1
 3512 017f 12       		.uleb128 0x12
 3513 0180 06       		.uleb128 0x6
 3514 0181 40       		.uleb128 0x40
 3515 0182 18       		.uleb128 0x18
 3516 0183 9742     		.uleb128 0x2117
 3517 0185 19       		.uleb128 0x19
 3518 0186 01       		.uleb128 0x1
 3519 0187 13       		.uleb128 0x13
 3520 0188 00       		.byte	0
 3521 0189 00       		.byte	0
 3522 018a 20       		.uleb128 0x20
 3523 018b 898201   		.uleb128 0x4109
 3524 018e 00       		.byte	0
 3525 018f 11       		.uleb128 0x11
 3526 0190 01       		.uleb128 0x1
ARM GAS  /tmp/ccgqwmVH.s 			page 63


 3527 0191 9542     		.uleb128 0x2115
 3528 0193 19       		.uleb128 0x19
 3529 0194 31       		.uleb128 0x31
 3530 0195 13       		.uleb128 0x13
 3531 0196 00       		.byte	0
 3532 0197 00       		.byte	0
 3533 0198 21       		.uleb128 0x21
 3534 0199 05       		.uleb128 0x5
 3535 019a 00       		.byte	0
 3536 019b 03       		.uleb128 0x3
 3537 019c 0E       		.uleb128 0xe
 3538 019d 3A       		.uleb128 0x3a
 3539 019e 0B       		.uleb128 0xb
 3540 019f 3B       		.uleb128 0x3b
 3541 01a0 0B       		.uleb128 0xb
 3542 01a1 49       		.uleb128 0x49
 3543 01a2 13       		.uleb128 0x13
 3544 01a3 02       		.uleb128 0x2
 3545 01a4 18       		.uleb128 0x18
 3546 01a5 00       		.byte	0
 3547 01a6 00       		.byte	0
 3548 01a7 22       		.uleb128 0x22
 3549 01a8 05       		.uleb128 0x5
 3550 01a9 00       		.byte	0
 3551 01aa 03       		.uleb128 0x3
 3552 01ab 0E       		.uleb128 0xe
 3553 01ac 3A       		.uleb128 0x3a
 3554 01ad 0B       		.uleb128 0xb
 3555 01ae 3B       		.uleb128 0x3b
 3556 01af 0B       		.uleb128 0xb
 3557 01b0 49       		.uleb128 0x49
 3558 01b1 13       		.uleb128 0x13
 3559 01b2 02       		.uleb128 0x2
 3560 01b3 17       		.uleb128 0x17
 3561 01b4 00       		.byte	0
 3562 01b5 00       		.byte	0
 3563 01b6 23       		.uleb128 0x23
 3564 01b7 34       		.uleb128 0x34
 3565 01b8 00       		.byte	0
 3566 01b9 03       		.uleb128 0x3
 3567 01ba 0E       		.uleb128 0xe
 3568 01bb 49       		.uleb128 0x49
 3569 01bc 13       		.uleb128 0x13
 3570 01bd 34       		.uleb128 0x34
 3571 01be 19       		.uleb128 0x19
 3572 01bf 00       		.byte	0
 3573 01c0 00       		.byte	0
 3574 01c1 24       		.uleb128 0x24
 3575 01c2 1D       		.uleb128 0x1d
 3576 01c3 01       		.byte	0x1
 3577 01c4 31       		.uleb128 0x31
 3578 01c5 13       		.uleb128 0x13
 3579 01c6 52       		.uleb128 0x52
 3580 01c7 01       		.uleb128 0x1
 3581 01c8 55       		.uleb128 0x55
 3582 01c9 17       		.uleb128 0x17
 3583 01ca 58       		.uleb128 0x58
ARM GAS  /tmp/ccgqwmVH.s 			page 64


 3584 01cb 0B       		.uleb128 0xb
 3585 01cc 59       		.uleb128 0x59
 3586 01cd 0B       		.uleb128 0xb
 3587 01ce 01       		.uleb128 0x1
 3588 01cf 13       		.uleb128 0x13
 3589 01d0 00       		.byte	0
 3590 01d1 00       		.byte	0
 3591 01d2 25       		.uleb128 0x25
 3592 01d3 1D       		.uleb128 0x1d
 3593 01d4 01       		.byte	0x1
 3594 01d5 31       		.uleb128 0x31
 3595 01d6 13       		.uleb128 0x13
 3596 01d7 52       		.uleb128 0x52
 3597 01d8 01       		.uleb128 0x1
 3598 01d9 55       		.uleb128 0x55
 3599 01da 17       		.uleb128 0x17
 3600 01db 58       		.uleb128 0x58
 3601 01dc 0B       		.uleb128 0xb
 3602 01dd 59       		.uleb128 0x59
 3603 01de 05       		.uleb128 0x5
 3604 01df 00       		.byte	0
 3605 01e0 00       		.byte	0
 3606 01e1 26       		.uleb128 0x26
 3607 01e2 05       		.uleb128 0x5
 3608 01e3 00       		.byte	0
 3609 01e4 31       		.uleb128 0x31
 3610 01e5 13       		.uleb128 0x13
 3611 01e6 1C       		.uleb128 0x1c
 3612 01e7 0B       		.uleb128 0xb
 3613 01e8 00       		.byte	0
 3614 01e9 00       		.byte	0
 3615 01ea 27       		.uleb128 0x27
 3616 01eb 1D       		.uleb128 0x1d
 3617 01ec 01       		.byte	0x1
 3618 01ed 31       		.uleb128 0x31
 3619 01ee 13       		.uleb128 0x13
 3620 01ef 11       		.uleb128 0x11
 3621 01f0 01       		.uleb128 0x1
 3622 01f1 12       		.uleb128 0x12
 3623 01f2 06       		.uleb128 0x6
 3624 01f3 58       		.uleb128 0x58
 3625 01f4 0B       		.uleb128 0xb
 3626 01f5 59       		.uleb128 0x59
 3627 01f6 0B       		.uleb128 0xb
 3628 01f7 01       		.uleb128 0x1
 3629 01f8 13       		.uleb128 0x13
 3630 01f9 00       		.byte	0
 3631 01fa 00       		.byte	0
 3632 01fb 28       		.uleb128 0x28
 3633 01fc 1D       		.uleb128 0x1d
 3634 01fd 01       		.byte	0x1
 3635 01fe 31       		.uleb128 0x31
 3636 01ff 13       		.uleb128 0x13
 3637 0200 11       		.uleb128 0x11
 3638 0201 01       		.uleb128 0x1
 3639 0202 12       		.uleb128 0x12
 3640 0203 06       		.uleb128 0x6
ARM GAS  /tmp/ccgqwmVH.s 			page 65


 3641 0204 58       		.uleb128 0x58
 3642 0205 0B       		.uleb128 0xb
 3643 0206 59       		.uleb128 0x59
 3644 0207 05       		.uleb128 0x5
 3645 0208 00       		.byte	0
 3646 0209 00       		.byte	0
 3647 020a 29       		.uleb128 0x29
 3648 020b 0B       		.uleb128 0xb
 3649 020c 01       		.byte	0x1
 3650 020d 11       		.uleb128 0x11
 3651 020e 01       		.uleb128 0x1
 3652 020f 12       		.uleb128 0x12
 3653 0210 06       		.uleb128 0x6
 3654 0211 00       		.byte	0
 3655 0212 00       		.byte	0
 3656 0213 2A       		.uleb128 0x2a
 3657 0214 34       		.uleb128 0x34
 3658 0215 00       		.byte	0
 3659 0216 31       		.uleb128 0x31
 3660 0217 13       		.uleb128 0x13
 3661 0218 00       		.byte	0
 3662 0219 00       		.byte	0
 3663 021a 2B       		.uleb128 0x2b
 3664 021b 898201   		.uleb128 0x4109
 3665 021e 01       		.byte	0x1
 3666 021f 11       		.uleb128 0x11
 3667 0220 01       		.uleb128 0x1
 3668 0221 31       		.uleb128 0x31
 3669 0222 13       		.uleb128 0x13
 3670 0223 00       		.byte	0
 3671 0224 00       		.byte	0
 3672 0225 2C       		.uleb128 0x2c
 3673 0226 8A8201   		.uleb128 0x410a
 3674 0229 00       		.byte	0
 3675 022a 02       		.uleb128 0x2
 3676 022b 18       		.uleb128 0x18
 3677 022c 9142     		.uleb128 0x2111
 3678 022e 18       		.uleb128 0x18
 3679 022f 00       		.byte	0
 3680 0230 00       		.byte	0
 3681 0231 2D       		.uleb128 0x2d
 3682 0232 05       		.uleb128 0x5
 3683 0233 00       		.byte	0
 3684 0234 03       		.uleb128 0x3
 3685 0235 08       		.uleb128 0x8
 3686 0236 3A       		.uleb128 0x3a
 3687 0237 0B       		.uleb128 0xb
 3688 0238 3B       		.uleb128 0x3b
 3689 0239 0B       		.uleb128 0xb
 3690 023a 49       		.uleb128 0x49
 3691 023b 13       		.uleb128 0x13
 3692 023c 02       		.uleb128 0x2
 3693 023d 17       		.uleb128 0x17
 3694 023e 00       		.byte	0
 3695 023f 00       		.byte	0
 3696 0240 2E       		.uleb128 0x2e
 3697 0241 26       		.uleb128 0x26
ARM GAS  /tmp/ccgqwmVH.s 			page 66


 3698 0242 00       		.byte	0
 3699 0243 00       		.byte	0
 3700 0244 00       		.byte	0
 3701 0245 2F       		.uleb128 0x2f
 3702 0246 2E       		.uleb128 0x2e
 3703 0247 01       		.byte	0x1
 3704 0248 3F       		.uleb128 0x3f
 3705 0249 19       		.uleb128 0x19
 3706 024a 03       		.uleb128 0x3
 3707 024b 0E       		.uleb128 0xe
 3708 024c 3A       		.uleb128 0x3a
 3709 024d 0B       		.uleb128 0xb
 3710 024e 3B       		.uleb128 0x3b
 3711 024f 0B       		.uleb128 0xb
 3712 0250 27       		.uleb128 0x27
 3713 0251 19       		.uleb128 0x19
 3714 0252 49       		.uleb128 0x49
 3715 0253 13       		.uleb128 0x13
 3716 0254 11       		.uleb128 0x11
 3717 0255 01       		.uleb128 0x1
 3718 0256 12       		.uleb128 0x12
 3719 0257 06       		.uleb128 0x6
 3720 0258 40       		.uleb128 0x40
 3721 0259 18       		.uleb128 0x18
 3722 025a 9742     		.uleb128 0x2117
 3723 025c 19       		.uleb128 0x19
 3724 025d 01       		.uleb128 0x1
 3725 025e 13       		.uleb128 0x13
 3726 025f 00       		.byte	0
 3727 0260 00       		.byte	0
 3728 0261 30       		.uleb128 0x30
 3729 0262 34       		.uleb128 0x34
 3730 0263 00       		.byte	0
 3731 0264 03       		.uleb128 0x3
 3732 0265 08       		.uleb128 0x8
 3733 0266 3A       		.uleb128 0x3a
 3734 0267 0B       		.uleb128 0xb
 3735 0268 3B       		.uleb128 0x3b
 3736 0269 0B       		.uleb128 0xb
 3737 026a 49       		.uleb128 0x49
 3738 026b 13       		.uleb128 0x13
 3739 026c 02       		.uleb128 0x2
 3740 026d 17       		.uleb128 0x17
 3741 026e 00       		.byte	0
 3742 026f 00       		.byte	0
 3743 0270 31       		.uleb128 0x31
 3744 0271 0B       		.uleb128 0xb
 3745 0272 01       		.byte	0x1
 3746 0273 55       		.uleb128 0x55
 3747 0274 17       		.uleb128 0x17
 3748 0275 00       		.byte	0
 3749 0276 00       		.byte	0
 3750 0277 32       		.uleb128 0x32
 3751 0278 05       		.uleb128 0x5
 3752 0279 00       		.byte	0
 3753 027a 31       		.uleb128 0x31
 3754 027b 13       		.uleb128 0x13
ARM GAS  /tmp/ccgqwmVH.s 			page 67


 3755 027c 02       		.uleb128 0x2
 3756 027d 17       		.uleb128 0x17
 3757 027e 00       		.byte	0
 3758 027f 00       		.byte	0
 3759 0280 33       		.uleb128 0x33
 3760 0281 898201   		.uleb128 0x4109
 3761 0284 00       		.byte	0
 3762 0285 11       		.uleb128 0x11
 3763 0286 01       		.uleb128 0x1
 3764 0287 31       		.uleb128 0x31
 3765 0288 13       		.uleb128 0x13
 3766 0289 00       		.byte	0
 3767 028a 00       		.byte	0
 3768 028b 34       		.uleb128 0x34
 3769 028c 34       		.uleb128 0x34
 3770 028d 00       		.byte	0
 3771 028e 03       		.uleb128 0x3
 3772 028f 08       		.uleb128 0x8
 3773 0290 3A       		.uleb128 0x3a
 3774 0291 0B       		.uleb128 0xb
 3775 0292 3B       		.uleb128 0x3b
 3776 0293 0B       		.uleb128 0xb
 3777 0294 49       		.uleb128 0x49
 3778 0295 13       		.uleb128 0x13
 3779 0296 02       		.uleb128 0x2
 3780 0297 18       		.uleb128 0x18
 3781 0298 00       		.byte	0
 3782 0299 00       		.byte	0
 3783 029a 35       		.uleb128 0x35
 3784 029b 2E       		.uleb128 0x2e
 3785 029c 01       		.byte	0x1
 3786 029d 3F       		.uleb128 0x3f
 3787 029e 19       		.uleb128 0x19
 3788 029f 03       		.uleb128 0x3
 3789 02a0 0E       		.uleb128 0xe
 3790 02a1 3A       		.uleb128 0x3a
 3791 02a2 0B       		.uleb128 0xb
 3792 02a3 3B       		.uleb128 0x3b
 3793 02a4 05       		.uleb128 0x5
 3794 02a5 27       		.uleb128 0x27
 3795 02a6 19       		.uleb128 0x19
 3796 02a7 11       		.uleb128 0x11
 3797 02a8 01       		.uleb128 0x1
 3798 02a9 12       		.uleb128 0x12
 3799 02aa 06       		.uleb128 0x6
 3800 02ab 40       		.uleb128 0x40
 3801 02ac 18       		.uleb128 0x18
 3802 02ad 9742     		.uleb128 0x2117
 3803 02af 19       		.uleb128 0x19
 3804 02b0 01       		.uleb128 0x1
 3805 02b1 13       		.uleb128 0x13
 3806 02b2 00       		.byte	0
 3807 02b3 00       		.byte	0
 3808 02b4 36       		.uleb128 0x36
 3809 02b5 05       		.uleb128 0x5
 3810 02b6 00       		.byte	0
 3811 02b7 03       		.uleb128 0x3
ARM GAS  /tmp/ccgqwmVH.s 			page 68


 3812 02b8 0E       		.uleb128 0xe
 3813 02b9 3A       		.uleb128 0x3a
 3814 02ba 0B       		.uleb128 0xb
 3815 02bb 3B       		.uleb128 0x3b
 3816 02bc 05       		.uleb128 0x5
 3817 02bd 49       		.uleb128 0x49
 3818 02be 13       		.uleb128 0x13
 3819 02bf 02       		.uleb128 0x2
 3820 02c0 17       		.uleb128 0x17
 3821 02c1 00       		.byte	0
 3822 02c2 00       		.byte	0
 3823 02c3 37       		.uleb128 0x37
 3824 02c4 05       		.uleb128 0x5
 3825 02c5 00       		.byte	0
 3826 02c6 03       		.uleb128 0x3
 3827 02c7 08       		.uleb128 0x8
 3828 02c8 3A       		.uleb128 0x3a
 3829 02c9 0B       		.uleb128 0xb
 3830 02ca 3B       		.uleb128 0x3b
 3831 02cb 05       		.uleb128 0x5
 3832 02cc 49       		.uleb128 0x49
 3833 02cd 13       		.uleb128 0x13
 3834 02ce 02       		.uleb128 0x2
 3835 02cf 17       		.uleb128 0x17
 3836 02d0 00       		.byte	0
 3837 02d1 00       		.byte	0
 3838 02d2 38       		.uleb128 0x38
 3839 02d3 2E       		.uleb128 0x2e
 3840 02d4 01       		.byte	0x1
 3841 02d5 3F       		.uleb128 0x3f
 3842 02d6 19       		.uleb128 0x19
 3843 02d7 03       		.uleb128 0x3
 3844 02d8 0E       		.uleb128 0xe
 3845 02d9 3A       		.uleb128 0x3a
 3846 02da 0B       		.uleb128 0xb
 3847 02db 3B       		.uleb128 0x3b
 3848 02dc 05       		.uleb128 0x5
 3849 02dd 27       		.uleb128 0x27
 3850 02de 19       		.uleb128 0x19
 3851 02df 49       		.uleb128 0x49
 3852 02e0 13       		.uleb128 0x13
 3853 02e1 11       		.uleb128 0x11
 3854 02e2 01       		.uleb128 0x1
 3855 02e3 12       		.uleb128 0x12
 3856 02e4 06       		.uleb128 0x6
 3857 02e5 40       		.uleb128 0x40
 3858 02e6 18       		.uleb128 0x18
 3859 02e7 9742     		.uleb128 0x2117
 3860 02e9 19       		.uleb128 0x19
 3861 02ea 01       		.uleb128 0x1
 3862 02eb 13       		.uleb128 0x13
 3863 02ec 00       		.byte	0
 3864 02ed 00       		.byte	0
 3865 02ee 39       		.uleb128 0x39
 3866 02ef 34       		.uleb128 0x34
 3867 02f0 00       		.byte	0
 3868 02f1 03       		.uleb128 0x3
ARM GAS  /tmp/ccgqwmVH.s 			page 69


 3869 02f2 08       		.uleb128 0x8
 3870 02f3 3A       		.uleb128 0x3a
 3871 02f4 0B       		.uleb128 0xb
 3872 02f5 3B       		.uleb128 0x3b
 3873 02f6 05       		.uleb128 0x5
 3874 02f7 49       		.uleb128 0x49
 3875 02f8 13       		.uleb128 0x13
 3876 02f9 02       		.uleb128 0x2
 3877 02fa 17       		.uleb128 0x17
 3878 02fb 00       		.byte	0
 3879 02fc 00       		.byte	0
 3880 02fd 3A       		.uleb128 0x3a
 3881 02fe 1D       		.uleb128 0x1d
 3882 02ff 01       		.byte	0x1
 3883 0300 31       		.uleb128 0x31
 3884 0301 13       		.uleb128 0x13
 3885 0302 52       		.uleb128 0x52
 3886 0303 01       		.uleb128 0x1
 3887 0304 55       		.uleb128 0x55
 3888 0305 17       		.uleb128 0x17
 3889 0306 58       		.uleb128 0x58
 3890 0307 0B       		.uleb128 0xb
 3891 0308 59       		.uleb128 0x59
 3892 0309 05       		.uleb128 0x5
 3893 030a 01       		.uleb128 0x1
 3894 030b 13       		.uleb128 0x13
 3895 030c 00       		.byte	0
 3896 030d 00       		.byte	0
 3897 030e 3B       		.uleb128 0x3b
 3898 030f 34       		.uleb128 0x34
 3899 0310 00       		.byte	0
 3900 0311 03       		.uleb128 0x3
 3901 0312 08       		.uleb128 0x8
 3902 0313 3A       		.uleb128 0x3a
 3903 0314 0B       		.uleb128 0xb
 3904 0315 3B       		.uleb128 0x3b
 3905 0316 05       		.uleb128 0x5
 3906 0317 49       		.uleb128 0x49
 3907 0318 13       		.uleb128 0x13
 3908 0319 02       		.uleb128 0x2
 3909 031a 18       		.uleb128 0x18
 3910 031b 00       		.byte	0
 3911 031c 00       		.byte	0
 3912 031d 3C       		.uleb128 0x3c
 3913 031e 34       		.uleb128 0x34
 3914 031f 00       		.byte	0
 3915 0320 03       		.uleb128 0x3
 3916 0321 0E       		.uleb128 0xe
 3917 0322 3A       		.uleb128 0x3a
 3918 0323 0B       		.uleb128 0xb
 3919 0324 3B       		.uleb128 0x3b
 3920 0325 05       		.uleb128 0x5
 3921 0326 49       		.uleb128 0x49
 3922 0327 13       		.uleb128 0x13
 3923 0328 3F       		.uleb128 0x3f
 3924 0329 19       		.uleb128 0x19
 3925 032a 3C       		.uleb128 0x3c
ARM GAS  /tmp/ccgqwmVH.s 			page 70


 3926 032b 19       		.uleb128 0x19
 3927 032c 00       		.byte	0
 3928 032d 00       		.byte	0
 3929 032e 3D       		.uleb128 0x3d
 3930 032f 34       		.uleb128 0x34
 3931 0330 00       		.byte	0
 3932 0331 03       		.uleb128 0x3
 3933 0332 08       		.uleb128 0x8
 3934 0333 3A       		.uleb128 0x3a
 3935 0334 0B       		.uleb128 0xb
 3936 0335 3B       		.uleb128 0x3b
 3937 0336 05       		.uleb128 0x5
 3938 0337 49       		.uleb128 0x49
 3939 0338 13       		.uleb128 0x13
 3940 0339 3F       		.uleb128 0x3f
 3941 033a 19       		.uleb128 0x19
 3942 033b 3C       		.uleb128 0x3c
 3943 033c 19       		.uleb128 0x19
 3944 033d 00       		.byte	0
 3945 033e 00       		.byte	0
 3946 033f 3E       		.uleb128 0x3e
 3947 0340 2E       		.uleb128 0x2e
 3948 0341 00       		.byte	0
 3949 0342 3F       		.uleb128 0x3f
 3950 0343 19       		.uleb128 0x19
 3951 0344 03       		.uleb128 0x3
 3952 0345 0E       		.uleb128 0xe
 3953 0346 3A       		.uleb128 0x3a
 3954 0347 0B       		.uleb128 0xb
 3955 0348 3B       		.uleb128 0x3b
 3956 0349 05       		.uleb128 0x5
 3957 034a 27       		.uleb128 0x27
 3958 034b 19       		.uleb128 0x19
 3959 034c 3C       		.uleb128 0x3c
 3960 034d 19       		.uleb128 0x19
 3961 034e 00       		.byte	0
 3962 034f 00       		.byte	0
 3963 0350 3F       		.uleb128 0x3f
 3964 0351 2E       		.uleb128 0x2e
 3965 0352 01       		.byte	0x1
 3966 0353 3F       		.uleb128 0x3f
 3967 0354 19       		.uleb128 0x19
 3968 0355 03       		.uleb128 0x3
 3969 0356 0E       		.uleb128 0xe
 3970 0357 3A       		.uleb128 0x3a
 3971 0358 0B       		.uleb128 0xb
 3972 0359 3B       		.uleb128 0x3b
 3973 035a 05       		.uleb128 0x5
 3974 035b 27       		.uleb128 0x27
 3975 035c 19       		.uleb128 0x19
 3976 035d 3C       		.uleb128 0x3c
 3977 035e 19       		.uleb128 0x19
 3978 035f 01       		.uleb128 0x1
 3979 0360 13       		.uleb128 0x13
 3980 0361 00       		.byte	0
 3981 0362 00       		.byte	0
 3982 0363 40       		.uleb128 0x40
ARM GAS  /tmp/ccgqwmVH.s 			page 71


 3983 0364 2E       		.uleb128 0x2e
 3984 0365 01       		.byte	0x1
 3985 0366 3F       		.uleb128 0x3f
 3986 0367 19       		.uleb128 0x19
 3987 0368 03       		.uleb128 0x3
 3988 0369 0E       		.uleb128 0xe
 3989 036a 3A       		.uleb128 0x3a
 3990 036b 0B       		.uleb128 0xb
 3991 036c 3B       		.uleb128 0x3b
 3992 036d 05       		.uleb128 0x5
 3993 036e 27       		.uleb128 0x27
 3994 036f 19       		.uleb128 0x19
 3995 0370 49       		.uleb128 0x49
 3996 0371 13       		.uleb128 0x13
 3997 0372 3C       		.uleb128 0x3c
 3998 0373 19       		.uleb128 0x19
 3999 0374 01       		.uleb128 0x1
 4000 0375 13       		.uleb128 0x13
 4001 0376 00       		.byte	0
 4002 0377 00       		.byte	0
 4003 0378 41       		.uleb128 0x41
 4004 0379 2E       		.uleb128 0x2e
 4005 037a 01       		.byte	0x1
 4006 037b 3F       		.uleb128 0x3f
 4007 037c 19       		.uleb128 0x19
 4008 037d 03       		.uleb128 0x3
 4009 037e 0E       		.uleb128 0xe
 4010 037f 3A       		.uleb128 0x3a
 4011 0380 0B       		.uleb128 0xb
 4012 0381 3B       		.uleb128 0x3b
 4013 0382 05       		.uleb128 0x5
 4014 0383 27       		.uleb128 0x27
 4015 0384 19       		.uleb128 0x19
 4016 0385 49       		.uleb128 0x49
 4017 0386 13       		.uleb128 0x13
 4018 0387 3C       		.uleb128 0x3c
 4019 0388 19       		.uleb128 0x19
 4020 0389 00       		.byte	0
 4021 038a 00       		.byte	0
 4022 038b 00       		.byte	0
 4023              		.section	.debug_loc,"",%progbits
 4024              	.Ldebug_loc0:
 4025              	.LLST0:
 4026 0000 00000000 		.4byte	.LVL2
 4027 0004 0F000000 		.4byte	.LVL3-1
 4028 0008 0100     		.2byte	0x1
 4029 000a 50       		.byte	0x50
 4030 000b 0F000000 		.4byte	.LVL3-1
 4031 000f 1C000000 		.4byte	.LFE258
 4032 0013 0100     		.2byte	0x1
 4033 0015 54       		.byte	0x54
 4034 0016 00000000 		.4byte	0
 4035 001a 00000000 		.4byte	0
 4036              	.LLST1:
 4037 001e 00000000 		.4byte	.LVL2
 4038 0022 0F000000 		.4byte	.LVL3-1
 4039 0026 0100     		.2byte	0x1
ARM GAS  /tmp/ccgqwmVH.s 			page 72


 4040 0028 51       		.byte	0x51
 4041 0029 0F000000 		.4byte	.LVL3-1
 4042 002d 1C000000 		.4byte	.LFE258
 4043 0031 0400     		.2byte	0x4
 4044 0033 F3       		.byte	0xf3
 4045 0034 01       		.uleb128 0x1
 4046 0035 51       		.byte	0x51
 4047 0036 9F       		.byte	0x9f
 4048 0037 00000000 		.4byte	0
 4049 003b 00000000 		.4byte	0
 4050              	.LLST2:
 4051 003f 00000000 		.4byte	.LVL5
 4052 0043 0D000000 		.4byte	.LVL6-1
 4053 0047 0100     		.2byte	0x1
 4054 0049 50       		.byte	0x50
 4055 004a 0D000000 		.4byte	.LVL6-1
 4056 004e 1E000000 		.4byte	.LFE259
 4057 0052 0100     		.2byte	0x1
 4058 0054 54       		.byte	0x54
 4059 0055 00000000 		.4byte	0
 4060 0059 00000000 		.4byte	0
 4061              	.LLST3:
 4062 005d 00000000 		.4byte	.LVL8
 4063 0061 0D000000 		.4byte	.LVL9-1
 4064 0065 0100     		.2byte	0x1
 4065 0067 50       		.byte	0x50
 4066 0068 0D000000 		.4byte	.LVL9-1
 4067 006c 1A000000 		.4byte	.LFE260
 4068 0070 0100     		.2byte	0x1
 4069 0072 54       		.byte	0x54
 4070 0073 00000000 		.4byte	0
 4071 0077 00000000 		.4byte	0
 4072              	.LLST4:
 4073 007b 00000000 		.4byte	.LVL8
 4074 007f 0D000000 		.4byte	.LVL9-1
 4075 0083 0100     		.2byte	0x1
 4076 0085 51       		.byte	0x51
 4077 0086 0D000000 		.4byte	.LVL9-1
 4078 008a 1A000000 		.4byte	.LFE260
 4079 008e 0400     		.2byte	0x4
 4080 0090 F3       		.byte	0xf3
 4081 0091 01       		.uleb128 0x1
 4082 0092 51       		.byte	0x51
 4083 0093 9F       		.byte	0x9f
 4084 0094 00000000 		.4byte	0
 4085 0098 00000000 		.4byte	0
 4086              	.LLST5:
 4087 009c 00000000 		.4byte	.LVL8
 4088 00a0 0D000000 		.4byte	.LVL9-1
 4089 00a4 0100     		.2byte	0x1
 4090 00a6 52       		.byte	0x52
 4091 00a7 0D000000 		.4byte	.LVL9-1
 4092 00ab 1A000000 		.4byte	.LFE260
 4093 00af 0400     		.2byte	0x4
 4094 00b1 F3       		.byte	0xf3
 4095 00b2 01       		.uleb128 0x1
 4096 00b3 52       		.byte	0x52
ARM GAS  /tmp/ccgqwmVH.s 			page 73


 4097 00b4 9F       		.byte	0x9f
 4098 00b5 00000000 		.4byte	0
 4099 00b9 00000000 		.4byte	0
 4100              	.LLST6:
 4101 00bd 00000000 		.4byte	.LVL11
 4102 00c1 07000000 		.4byte	.LVL12-1
 4103 00c5 0100     		.2byte	0x1
 4104 00c7 50       		.byte	0x50
 4105 00c8 07000000 		.4byte	.LVL12-1
 4106 00cc 0E000000 		.4byte	.LFE261
 4107 00d0 0100     		.2byte	0x1
 4108 00d2 54       		.byte	0x54
 4109 00d3 00000000 		.4byte	0
 4110 00d7 00000000 		.4byte	0
 4111              	.LLST7:
 4112 00db 00000000 		.4byte	.LVL11
 4113 00df 07000000 		.4byte	.LVL12-1
 4114 00e3 0100     		.2byte	0x1
 4115 00e5 51       		.byte	0x51
 4116 00e6 07000000 		.4byte	.LVL12-1
 4117 00ea 0E000000 		.4byte	.LFE261
 4118 00ee 0400     		.2byte	0x4
 4119 00f0 F3       		.byte	0xf3
 4120 00f1 01       		.uleb128 0x1
 4121 00f2 51       		.byte	0x51
 4122 00f3 9F       		.byte	0x9f
 4123 00f4 00000000 		.4byte	0
 4124 00f8 00000000 		.4byte	0
 4125              	.LLST8:
 4126 00fc 00000000 		.4byte	.LVL11
 4127 0100 07000000 		.4byte	.LVL12-1
 4128 0104 0100     		.2byte	0x1
 4129 0106 52       		.byte	0x52
 4130 0107 07000000 		.4byte	.LVL12-1
 4131 010b 0E000000 		.4byte	.LFE261
 4132 010f 0400     		.2byte	0x4
 4133 0111 F3       		.byte	0xf3
 4134 0112 01       		.uleb128 0x1
 4135 0113 52       		.byte	0x52
 4136 0114 9F       		.byte	0x9f
 4137 0115 00000000 		.4byte	0
 4138 0119 00000000 		.4byte	0
 4139              	.LLST9:
 4140 011d 00000000 		.4byte	.LVL13
 4141 0121 12000000 		.4byte	.LVL14
 4142 0125 0100     		.2byte	0x1
 4143 0127 50       		.byte	0x50
 4144 0128 12000000 		.4byte	.LVL14
 4145 012c 1A000000 		.4byte	.LVL15
 4146 0130 0100     		.2byte	0x1
 4147 0132 54       		.byte	0x54
 4148 0133 1A000000 		.4byte	.LVL15
 4149 0137 1D000000 		.4byte	.LVL16-1
 4150 013b 0100     		.2byte	0x1
 4151 013d 50       		.byte	0x50
 4152 013e 1D000000 		.4byte	.LVL16-1
 4153 0142 2A000000 		.4byte	.LFE262
ARM GAS  /tmp/ccgqwmVH.s 			page 74


 4154 0146 0100     		.2byte	0x1
 4155 0148 54       		.byte	0x54
 4156 0149 00000000 		.4byte	0
 4157 014d 00000000 		.4byte	0
 4158              	.LLST10:
 4159 0151 12000000 		.4byte	.LVL14
 4160 0155 1A000000 		.4byte	.LVL15
 4161 0159 0100     		.2byte	0x1
 4162 015b 50       		.byte	0x50
 4163 015c 1E000000 		.4byte	.LVL16
 4164 0160 2A000000 		.4byte	.LFE262
 4165 0164 0100     		.2byte	0x1
 4166 0166 50       		.byte	0x50
 4167 0167 00000000 		.4byte	0
 4168 016b 00000000 		.4byte	0
 4169              	.LLST11:
 4170 016f 12000000 		.4byte	.LVL14
 4171 0173 1A000000 		.4byte	.LVL15
 4172 0177 0200     		.2byte	0x2
 4173 0179 30       		.byte	0x30
 4174 017a 9F       		.byte	0x9f
 4175 017b 22000000 		.4byte	.LVL17
 4176 017f 2A000000 		.4byte	.LFE262
 4177 0183 0200     		.2byte	0x2
 4178 0185 30       		.byte	0x30
 4179 0186 9F       		.byte	0x9f
 4180 0187 00000000 		.4byte	0
 4181 018b 00000000 		.4byte	0
 4182              	.LLST12:
 4183 018f 00000000 		.4byte	.LVL18
 4184 0193 0C000000 		.4byte	.LVL19
 4185 0197 0100     		.2byte	0x1
 4186 0199 50       		.byte	0x50
 4187 019a 0C000000 		.4byte	.LVL19
 4188 019e 0E000000 		.4byte	.LVL20
 4189 01a2 0100     		.2byte	0x1
 4190 01a4 54       		.byte	0x54
 4191 01a5 0E000000 		.4byte	.LVL20
 4192 01a9 11000000 		.4byte	.LVL21-1
 4193 01ad 0100     		.2byte	0x1
 4194 01af 50       		.byte	0x50
 4195 01b0 11000000 		.4byte	.LVL21-1
 4196 01b4 18000000 		.4byte	.LFE263
 4197 01b8 0100     		.2byte	0x1
 4198 01ba 54       		.byte	0x54
 4199 01bb 00000000 		.4byte	0
 4200 01bf 00000000 		.4byte	0
 4201              	.LLST13:
 4202 01c3 00000000 		.4byte	.LVL22
 4203 01c7 0D000000 		.4byte	.LVL23-1
 4204 01cb 0100     		.2byte	0x1
 4205 01cd 50       		.byte	0x50
 4206 01ce 0D000000 		.4byte	.LVL23-1
 4207 01d2 1A000000 		.4byte	.LFE264
 4208 01d6 0100     		.2byte	0x1
 4209 01d8 54       		.byte	0x54
 4210 01d9 00000000 		.4byte	0
ARM GAS  /tmp/ccgqwmVH.s 			page 75


 4211 01dd 00000000 		.4byte	0
 4212              	.LLST14:
 4213 01e1 00000000 		.4byte	.LVL22
 4214 01e5 0D000000 		.4byte	.LVL23-1
 4215 01e9 0100     		.2byte	0x1
 4216 01eb 51       		.byte	0x51
 4217 01ec 0D000000 		.4byte	.LVL23-1
 4218 01f0 1A000000 		.4byte	.LFE264
 4219 01f4 0400     		.2byte	0x4
 4220 01f6 F3       		.byte	0xf3
 4221 01f7 01       		.uleb128 0x1
 4222 01f8 51       		.byte	0x51
 4223 01f9 9F       		.byte	0x9f
 4224 01fa 00000000 		.4byte	0
 4225 01fe 00000000 		.4byte	0
 4226              	.LLST15:
 4227 0202 00000000 		.4byte	.LVL22
 4228 0206 0D000000 		.4byte	.LVL23-1
 4229 020a 0100     		.2byte	0x1
 4230 020c 52       		.byte	0x52
 4231 020d 0D000000 		.4byte	.LVL23-1
 4232 0211 1A000000 		.4byte	.LFE264
 4233 0215 0400     		.2byte	0x4
 4234 0217 F3       		.byte	0xf3
 4235 0218 01       		.uleb128 0x1
 4236 0219 52       		.byte	0x52
 4237 021a 9F       		.byte	0x9f
 4238 021b 00000000 		.4byte	0
 4239 021f 00000000 		.4byte	0
 4240              	.LLST16:
 4241 0223 00000000 		.4byte	.LVL25
 4242 0227 07000000 		.4byte	.LVL26-1
 4243 022b 0100     		.2byte	0x1
 4244 022d 50       		.byte	0x50
 4245 022e 07000000 		.4byte	.LVL26-1
 4246 0232 0E000000 		.4byte	.LFE265
 4247 0236 0100     		.2byte	0x1
 4248 0238 54       		.byte	0x54
 4249 0239 00000000 		.4byte	0
 4250 023d 00000000 		.4byte	0
 4251              	.LLST17:
 4252 0241 00000000 		.4byte	.LVL25
 4253 0245 07000000 		.4byte	.LVL26-1
 4254 0249 0100     		.2byte	0x1
 4255 024b 51       		.byte	0x51
 4256 024c 07000000 		.4byte	.LVL26-1
 4257 0250 0E000000 		.4byte	.LFE265
 4258 0254 0400     		.2byte	0x4
 4259 0256 F3       		.byte	0xf3
 4260 0257 01       		.uleb128 0x1
 4261 0258 51       		.byte	0x51
 4262 0259 9F       		.byte	0x9f
 4263 025a 00000000 		.4byte	0
 4264 025e 00000000 		.4byte	0
 4265              	.LLST18:
 4266 0262 00000000 		.4byte	.LVL25
 4267 0266 07000000 		.4byte	.LVL26-1
ARM GAS  /tmp/ccgqwmVH.s 			page 76


 4268 026a 0100     		.2byte	0x1
 4269 026c 52       		.byte	0x52
 4270 026d 07000000 		.4byte	.LVL26-1
 4271 0271 0E000000 		.4byte	.LFE265
 4272 0275 0400     		.2byte	0x4
 4273 0277 F3       		.byte	0xf3
 4274 0278 01       		.uleb128 0x1
 4275 0279 52       		.byte	0x52
 4276 027a 9F       		.byte	0x9f
 4277 027b 00000000 		.4byte	0
 4278 027f 00000000 		.4byte	0
 4279              	.LLST19:
 4280 0283 00000000 		.4byte	.LVL27
 4281 0287 12000000 		.4byte	.LVL28
 4282 028b 0100     		.2byte	0x1
 4283 028d 50       		.byte	0x50
 4284 028e 12000000 		.4byte	.LVL28
 4285 0292 1A000000 		.4byte	.LVL29
 4286 0296 0100     		.2byte	0x1
 4287 0298 54       		.byte	0x54
 4288 0299 1A000000 		.4byte	.LVL29
 4289 029d 1D000000 		.4byte	.LVL30-1
 4290 02a1 0100     		.2byte	0x1
 4291 02a3 50       		.byte	0x50
 4292 02a4 1D000000 		.4byte	.LVL30-1
 4293 02a8 2A000000 		.4byte	.LFE266
 4294 02ac 0100     		.2byte	0x1
 4295 02ae 54       		.byte	0x54
 4296 02af 00000000 		.4byte	0
 4297 02b3 00000000 		.4byte	0
 4298              	.LLST20:
 4299 02b7 12000000 		.4byte	.LVL28
 4300 02bb 1A000000 		.4byte	.LVL29
 4301 02bf 0100     		.2byte	0x1
 4302 02c1 50       		.byte	0x50
 4303 02c2 1E000000 		.4byte	.LVL30
 4304 02c6 2A000000 		.4byte	.LFE266
 4305 02ca 0100     		.2byte	0x1
 4306 02cc 50       		.byte	0x50
 4307 02cd 00000000 		.4byte	0
 4308 02d1 00000000 		.4byte	0
 4309              	.LLST21:
 4310 02d5 12000000 		.4byte	.LVL28
 4311 02d9 1A000000 		.4byte	.LVL29
 4312 02dd 0200     		.2byte	0x2
 4313 02df 30       		.byte	0x30
 4314 02e0 9F       		.byte	0x9f
 4315 02e1 22000000 		.4byte	.LVL31
 4316 02e5 2A000000 		.4byte	.LFE266
 4317 02e9 0200     		.2byte	0x2
 4318 02eb 30       		.byte	0x30
 4319 02ec 9F       		.byte	0x9f
 4320 02ed 00000000 		.4byte	0
 4321 02f1 00000000 		.4byte	0
 4322              	.LLST22:
 4323 02f5 00000000 		.4byte	.LVL32
 4324 02f9 0C000000 		.4byte	.LVL33
ARM GAS  /tmp/ccgqwmVH.s 			page 77


 4325 02fd 0100     		.2byte	0x1
 4326 02ff 50       		.byte	0x50
 4327 0300 0C000000 		.4byte	.LVL33
 4328 0304 0E000000 		.4byte	.LVL34
 4329 0308 0100     		.2byte	0x1
 4330 030a 54       		.byte	0x54
 4331 030b 0E000000 		.4byte	.LVL34
 4332 030f 11000000 		.4byte	.LVL35-1
 4333 0313 0100     		.2byte	0x1
 4334 0315 50       		.byte	0x50
 4335 0316 11000000 		.4byte	.LVL35-1
 4336 031a 18000000 		.4byte	.LFE267
 4337 031e 0100     		.2byte	0x1
 4338 0320 54       		.byte	0x54
 4339 0321 00000000 		.4byte	0
 4340 0325 00000000 		.4byte	0
 4341              		.section	.debug_aranges,"",%progbits
 4342 0000 74000000 		.4byte	0x74
 4343 0004 0200     		.2byte	0x2
 4344 0006 00000000 		.4byte	.Ldebug_info0
 4345 000a 04       		.byte	0x4
 4346 000b 00       		.byte	0
 4347 000c 0000     		.2byte	0
 4348 000e 0000     		.2byte	0
 4349 0010 00000000 		.4byte	.LFB256
 4350 0014 04000000 		.4byte	.LFE256-.LFB256
 4351 0018 00000000 		.4byte	.LFB257
 4352 001c 0E000000 		.4byte	.LFE257-.LFB257
 4353 0020 00000000 		.4byte	.LFB258
 4354 0024 1C000000 		.4byte	.LFE258-.LFB258
 4355 0028 00000000 		.4byte	.LFB259
 4356 002c 1E000000 		.4byte	.LFE259-.LFB259
 4357 0030 00000000 		.4byte	.LFB260
 4358 0034 1A000000 		.4byte	.LFE260-.LFB260
 4359 0038 00000000 		.4byte	.LFB261
 4360 003c 0E000000 		.4byte	.LFE261-.LFB261
 4361 0040 00000000 		.4byte	.LFB262
 4362 0044 2A000000 		.4byte	.LFE262-.LFB262
 4363 0048 00000000 		.4byte	.LFB263
 4364 004c 18000000 		.4byte	.LFE263-.LFB263
 4365 0050 00000000 		.4byte	.LFB264
 4366 0054 1A000000 		.4byte	.LFE264-.LFB264
 4367 0058 00000000 		.4byte	.LFB265
 4368 005c 0E000000 		.4byte	.LFE265-.LFB265
 4369 0060 00000000 		.4byte	.LFB266
 4370 0064 2A000000 		.4byte	.LFE266-.LFB266
 4371 0068 00000000 		.4byte	.LFB267
 4372 006c 18000000 		.4byte	.LFE267-.LFB267
 4373 0070 00000000 		.4byte	0
 4374 0074 00000000 		.4byte	0
 4375              		.section	.debug_ranges,"",%progbits
 4376              	.Ldebug_ranges0:
 4377 0000 02000000 		.4byte	.LBB102
 4378 0004 04000000 		.4byte	.LBE102
 4379 0008 06000000 		.4byte	.LBB111
 4380 000c 0A000000 		.4byte	.LBE111
 4381 0010 00000000 		.4byte	0
ARM GAS  /tmp/ccgqwmVH.s 			page 78


 4382 0014 00000000 		.4byte	0
 4383 0018 02000000 		.4byte	.LBB118
 4384 001c 04000000 		.4byte	.LBE118
 4385 0020 06000000 		.4byte	.LBB127
 4386 0024 0A000000 		.4byte	.LBE127
 4387 0028 00000000 		.4byte	0
 4388 002c 00000000 		.4byte	0
 4389 0030 02000000 		.4byte	.LBB134
 4390 0034 04000000 		.4byte	.LBE134
 4391 0038 06000000 		.4byte	.LBB143
 4392 003c 0A000000 		.4byte	.LBE143
 4393 0040 00000000 		.4byte	0
 4394 0044 00000000 		.4byte	0
 4395 0048 02000000 		.4byte	.LBB150
 4396 004c 04000000 		.4byte	.LBE150
 4397 0050 06000000 		.4byte	.LBB159
 4398 0054 0A000000 		.4byte	.LBE159
 4399 0058 00000000 		.4byte	0
 4400 005c 00000000 		.4byte	0
 4401 0060 12000000 		.4byte	.LBB160
 4402 0064 18000000 		.4byte	.LBE160
 4403 0068 22000000 		.4byte	.LBB171
 4404 006c 28000000 		.4byte	.LBE171
 4405 0070 00000000 		.4byte	0
 4406 0074 00000000 		.4byte	0
 4407 0078 02000000 		.4byte	.LBB173
 4408 007c 04000000 		.4byte	.LBE173
 4409 0080 06000000 		.4byte	.LBB182
 4410 0084 0A000000 		.4byte	.LBE182
 4411 0088 00000000 		.4byte	0
 4412 008c 00000000 		.4byte	0
 4413 0090 02000000 		.4byte	.LBB189
 4414 0094 04000000 		.4byte	.LBE189
 4415 0098 06000000 		.4byte	.LBB198
 4416 009c 0A000000 		.4byte	.LBE198
 4417 00a0 00000000 		.4byte	0
 4418 00a4 00000000 		.4byte	0
 4419 00a8 12000000 		.4byte	.LBB199
 4420 00ac 18000000 		.4byte	.LBE199
 4421 00b0 22000000 		.4byte	.LBB210
 4422 00b4 28000000 		.4byte	.LBE210
 4423 00b8 00000000 		.4byte	0
 4424 00bc 00000000 		.4byte	0
 4425 00c0 00000000 		.4byte	.LFB256
 4426 00c4 04000000 		.4byte	.LFE256
 4427 00c8 00000000 		.4byte	.LFB257
 4428 00cc 0E000000 		.4byte	.LFE257
 4429 00d0 00000000 		.4byte	.LFB258
 4430 00d4 1C000000 		.4byte	.LFE258
 4431 00d8 00000000 		.4byte	.LFB259
 4432 00dc 1E000000 		.4byte	.LFE259
 4433 00e0 00000000 		.4byte	.LFB260
 4434 00e4 1A000000 		.4byte	.LFE260
 4435 00e8 00000000 		.4byte	.LFB261
 4436 00ec 0E000000 		.4byte	.LFE261
 4437 00f0 00000000 		.4byte	.LFB262
 4438 00f4 2A000000 		.4byte	.LFE262
ARM GAS  /tmp/ccgqwmVH.s 			page 79


 4439 00f8 00000000 		.4byte	.LFB263
 4440 00fc 18000000 		.4byte	.LFE263
 4441 0100 00000000 		.4byte	.LFB264
 4442 0104 1A000000 		.4byte	.LFE264
 4443 0108 00000000 		.4byte	.LFB265
 4444 010c 0E000000 		.4byte	.LFE265
 4445 0110 00000000 		.4byte	.LFB266
 4446 0114 2A000000 		.4byte	.LFE266
 4447 0118 00000000 		.4byte	.LFB267
 4448 011c 18000000 		.4byte	.LFE267
 4449 0120 00000000 		.4byte	0
 4450 0124 00000000 		.4byte	0
 4451              		.section	.debug_line,"",%progbits
 4452              	.Ldebug_line0:
 4453 0000 9A040000 		.section	.debug_str,"MS",%progbits,1
 4453      0200C902 
 4453      00000201 
 4453      FB0E0D00 
 4453      01010101 
 4454              	.LASF180:
 4455 0000 75617274 		.ascii	"uart_lld_start_receive\000"
 4455      5F6C6C64 
 4455      5F737461 
 4455      72745F72 
 4455      65636569 
 4456              	.LASF141:
 4457 0017 646D6172 		.ascii	"dmarx\000"
 4457      7800
 4458              	.LASF56:
 4459 001d 72656164 		.ascii	"ready_list_t\000"
 4459      795F6C69 
 4459      73745F74 
 4459      00
 4460              	.LASF86:
 4461 002a 4D304152 		.ascii	"M0AR\000"
 4461      00
 4462              	.LASF2:
 4463 002f 73697A65 		.ascii	"size_t\000"
 4463      5F7400
 4464              	.LASF150:
 4465 0036 72786368 		.ascii	"rxchar_cb\000"
 4465      61725F63 
 4465      6200
 4466              	.LASF97:
 4467 0040 7264796D 		.ascii	"rdymsg\000"
 4467      736700
 4468              	.LASF19:
 4469 0047 75696E74 		.ascii	"uint64_t\000"
 4469      36345F74 
 4469      00
 4470              	.LASF3:
 4471 0050 5F5F7569 		.ascii	"__uint8_t\000"
 4471      6E74385F 
 4471      7400
 4472              	.LASF162:
 4473 005a 75617274 		.ascii	"uartObjectInit\000"
 4473      4F626A65 
ARM GAS  /tmp/ccgqwmVH.s 			page 80


 4473      6374496E 
 4473      697400
 4474              	.LASF94:
 4475 0069 706F7274 		.ascii	"port_intctx\000"
 4475      5F696E74 
 4475      63747800 
 4476              	.LASF81:
 4477 0075 76746C69 		.ascii	"vtlist\000"
 4477      737400
 4478              	.LASF143:
 4479 007c 72786275 		.ascii	"rxbuf\000"
 4479      6600
 4480              	.LASF154:
 4481 0082 706F7274 		.ascii	"port_lock\000"
 4481      5F6C6F63 
 4481      6B00
 4482              	.LASF14:
 4483 008c 6C6F6E67 		.ascii	"long long unsigned int\000"
 4483      206C6F6E 
 4483      6720756E 
 4483      7369676E 
 4483      65642069 
 4484              	.LASF119:
 4485 00a3 76656374 		.ascii	"vector\000"
 4485      6F7200
 4486              	.LASF82:
 4487 00aa 6D61696E 		.ascii	"mainthread\000"
 4487      74687265 
 4487      616400
 4488              	.LASF72:
 4489 00b5 76697274 		.ascii	"virtual_timers_list_t\000"
 4489      75616C5F 
 4489      74696D65 
 4489      72735F6C 
 4489      6973745F 
 4490              	.LASF153:
 4491 00cb 55415254 		.ascii	"UARTConfig\000"
 4491      436F6E66 
 4491      696700
 4492              	.LASF176:
 4493 00d6 49544D5F 		.ascii	"ITM_RxBuffer\000"
 4493      52784275 
 4493      66666572 
 4493      00
 4494              	.LASF55:
 4495 00e3 63685F74 		.ascii	"ch_threads_queue\000"
 4495      68726561 
 4495      64735F71 
 4495      75657565 
 4495      00
 4496              	.LASF33:
 4497 00f4 705F7072 		.ascii	"p_prio\000"
 4497      696F00
 4498              	.LASF136:
 4499 00fb 74787374 		.ascii	"txstate\000"
 4499      61746500 
 4500              	.LASF181:
ARM GAS  /tmp/ccgqwmVH.s 			page 81


 4501 0103 75617274 		.ascii	"uart_lld_stop_receive\000"
 4501      5F6C6C64 
 4501      5F73746F 
 4501      705F7265 
 4501      63656976 
 4502              	.LASF12:
 4503 0119 6C6F6E67 		.ascii	"long long int\000"
 4503      206C6F6E 
 4503      6720696E 
 4503      7400
 4504              	.LASF1:
 4505 0127 7369676E 		.ascii	"signed char\000"
 4505      65642063 
 4505      68617200 
 4506              	.LASF144:
 4507 0133 75617274 		.ascii	"uartcb_t\000"
 4507      63625F74 
 4507      00
 4508              	.LASF161:
 4509 013c 75617274 		.ascii	"uartInit\000"
 4509      496E6974 
 4509      00
 4510              	.LASF49:
 4511 0145 705F6D70 		.ascii	"p_mpool\000"
 4511      6F6F6C00 
 4512              	.LASF137:
 4513 014d 72787374 		.ascii	"rxstate\000"
 4513      61746500 
 4514              	.LASF108:
 4515 0155 6D5F7175 		.ascii	"m_queue\000"
 4515      65756500 
 4516              	.LASF155:
 4517 015d 706F7274 		.ascii	"port_unlock\000"
 4517      5F756E6C 
 4517      6F636B00 
 4518              	.LASF24:
 4519 0169 74736C69 		.ascii	"tslices_t\000"
 4519      6365735F 
 4519      7400
 4520              	.LASF135:
 4521 0173 73746174 		.ascii	"state\000"
 4521      6500
 4522              	.LASF79:
 4523 0179 63685F73 		.ascii	"ch_system\000"
 4523      79737465 
 4523      6D00
 4524              	.LASF9:
 4525 0183 6C6F6E67 		.ascii	"long int\000"
 4525      20696E74 
 4525      00
 4526              	.LASF175:
 4527 018c 75617274 		.ascii	"uartStopReceiveI\000"
 4527      53746F70 
 4527      52656365 
 4527      69766549 
 4527      00
 4528              	.LASF22:
ARM GAS  /tmp/ccgqwmVH.s 			page 82


 4529 019d 74737461 		.ascii	"tstate_t\000"
 4529      74655F74 
 4529      00
 4530              	.LASF174:
 4531 01a6 75617274 		.ascii	"uartStopReceive\000"
 4531      53746F70 
 4531      52656365 
 4531      69766500 
 4532              	.LASF16:
 4533 01b6 75696E74 		.ascii	"uint16_t\000"
 4533      31365F74 
 4533      00
 4534              	.LASF186:
 4535 01bf 75617274 		.ascii	"uart_lld_init\000"
 4535      5F6C6C64 
 4535      5F696E69 
 4535      7400
 4536              	.LASF167:
 4537 01cd 75617274 		.ascii	"uartStartSend\000"
 4537      53746172 
 4537      7453656E 
 4537      6400
 4538              	.LASF35:
 4539 01db 705F6E65 		.ascii	"p_newer\000"
 4539      77657200 
 4540              	.LASF105:
 4541 01e3 735F7175 		.ascii	"s_queue\000"
 4541      65756500 
 4542              	.LASF132:
 4543 01eb 75617274 		.ascii	"uartrxstate_t\000"
 4543      72787374 
 4543      6174655F 
 4543      7400
 4544              	.LASF142:
 4545 01f9 646D6174 		.ascii	"dmatx\000"
 4545      7800
 4546              	.LASF134:
 4547 01ff 55415254 		.ascii	"UARTDriver\000"
 4547      44726976 
 4547      657200
 4548              	.LASF61:
 4549 020a 725F6E65 		.ascii	"r_newer\000"
 4549      77657200 
 4550              	.LASF68:
 4551 0212 76745F70 		.ascii	"vt_prev\000"
 4551      72657600 
 4552              	.LASF182:
 4553 021a 474E5520 		.ascii	"GNU C 4.8.4 20141219 (release) -mcpu=cortex-m4 -mfl"
 4553      4320342E 
 4553      382E3420 
 4553      32303134 
 4553      31323139 
 4554 024d 6F61742D 		.ascii	"oat-abi=hard -mfpu=fpv4-sp-d16 -mno-thumb-interwork"
 4554      6162693D 
 4554      68617264 
 4554      202D6D66 
 4554      70753D66 
ARM GAS  /tmp/ccgqwmVH.s 			page 83


 4555 0280 202D6D74 		.ascii	" -mthumb -ggdb -O2 -std=gnu99 -fomit-frame-pointer "
 4555      68756D62 
 4555      202D6767 
 4555      6462202D 
 4555      4F32202D 
 4556 02b3 2D66616C 		.ascii	"-falign-functions=16 -ffunction-sections -fdata-sec"
 4556      69676E2D 
 4556      66756E63 
 4556      74696F6E 
 4556      733D3136 
 4557 02e6 74696F6E 		.ascii	"tions -fno-common -fsingle-precision-constant\000"
 4557      73202D66 
 4557      6E6F2D63 
 4557      6F6D6D6F 
 4557      6E202D66 
 4558              	.LASF184:
 4559 0314 2F686F6D 		.ascii	"/home/taylor/Programming/VESC/firmware\000"
 4559      652F7461 
 4559      796C6F72 
 4559      2F50726F 
 4559      6772616D 
 4560              	.LASF159:
 4561 033b 6F73616C 		.ascii	"osalSysLock\000"
 4561      5379734C 
 4561      6F636B00 
 4562              	.LASF112:
 4563 0347 6D757465 		.ascii	"mutex_t\000"
 4563      785F7400 
 4564              	.LASF185:
 4565 034f 76616C75 		.ascii	"value\000"
 4565      6500
 4566              	.LASF83:
 4567 0355 69646C65 		.ascii	"idle_thread_wa\000"
 4567      5F746872 
 4567      6561645F 
 4567      776100
 4568              	.LASF126:
 4569 0364 55415254 		.ascii	"UART_TX_ACTIVE\000"
 4569      5F54585F 
 4569      41435449 
 4569      564500
 4570              	.LASF183:
 4571 0373 43686962 		.ascii	"ChibiOS_3.0.2/os/hal/src/uart.c\000"
 4571      694F535F 
 4571      332E302E 
 4571      322F6F73 
 4571      2F68616C 
 4572              	.LASF139:
 4573 0393 75736172 		.ascii	"usart\000"
 4573      7400
 4574              	.LASF0:
 4575 0399 756E7369 		.ascii	"unsigned int\000"
 4575      676E6564 
 4575      20696E74 
 4575      00
 4576              	.LASF67:
 4577 03a6 76745F6E 		.ascii	"vt_next\000"
ARM GAS  /tmp/ccgqwmVH.s 			page 84


 4577      65787400 
 4578              	.LASF168:
 4579 03ae 74786275 		.ascii	"txbuf\000"
 4579      6600
 4580              	.LASF101:
 4581 03b4 77747365 		.ascii	"wtsemp\000"
 4581      6D7000
 4582              	.LASF69:
 4583 03bb 76745F64 		.ascii	"vt_delta\000"
 4583      656C7461 
 4583      00
 4584              	.LASF75:
 4585 03c4 73797374 		.ascii	"system_debug_t\000"
 4585      656D5F64 
 4585      65627567 
 4585      5F7400
 4586              	.LASF146:
 4587 03d3 75617274 		.ascii	"uartecb_t\000"
 4587      6563625F 
 4587      7400
 4588              	.LASF117:
 4589 03dd 69736869 		.ascii	"ishift\000"
 4589      667400
 4590              	.LASF106:
 4591 03e4 735F636E 		.ascii	"s_cnt\000"
 4591      7400
 4592              	.LASF93:
 4593 03ea 636F6E74 		.ascii	"context\000"
 4593      65787400 
 4594              	.LASF7:
 4595 03f2 73686F72 		.ascii	"short unsigned int\000"
 4595      7420756E 
 4595      7369676E 
 4595      65642069 
 4595      6E7400
 4596              	.LASF121:
 4597 0405 55415254 		.ascii	"UART_UNINIT\000"
 4597      5F554E49 
 4597      4E495400 
 4598              	.LASF122:
 4599 0411 55415254 		.ascii	"UART_STOP\000"
 4599      5F53544F 
 4599      5000
 4600              	.LASF52:
 4601 041b 63685F74 		.ascii	"ch_thread\000"
 4601      68726561 
 4601      6400
 4602              	.LASF164:
 4603 0425 75617274 		.ascii	"uartp\000"
 4603      7000
 4604              	.LASF26:
 4605 042b 6D73675F 		.ascii	"msg_t\000"
 4605      7400
 4606              	.LASF78:
 4607 0431 63685F73 		.ascii	"ch_system_t\000"
 4607      79737465 
 4607      6D5F7400 
ARM GAS  /tmp/ccgqwmVH.s 			page 85


 4608              	.LASF90:
 4609 043d 55534152 		.ascii	"USART_TypeDef\000"
 4609      545F5479 
 4609      70654465 
 4609      6600
 4610              	.LASF98:
 4611 044b 65786974 		.ascii	"exitcode\000"
 4611      636F6465 
 4611      00
 4612              	.LASF21:
 4613 0454 746D6F64 		.ascii	"tmode_t\000"
 4613      655F7400 
 4614              	.LASF148:
 4615 045c 7478656E 		.ascii	"txend2_cb\000"
 4615      64325F63 
 4615      6200
 4616              	.LASF57:
 4617 0466 63685F72 		.ascii	"ch_ready_list\000"
 4617      65616479 
 4617      5F6C6973 
 4617      7400
 4618              	.LASF27:
 4619 0474 6576656E 		.ascii	"eventmask_t\000"
 4619      746D6173 
 4619      6B5F7400 
 4620              	.LASF8:
 4621 0480 5F5F696E 		.ascii	"__int32_t\000"
 4621      7433325F 
 4621      7400
 4622              	.LASF92:
 4623 048a 73746B61 		.ascii	"stkalign_t\000"
 4623      6C69676E 
 4623      5F7400
 4624              	.LASF123:
 4625 0495 55415254 		.ascii	"UART_READY\000"
 4625      5F524541 
 4625      445900
 4626              	.LASF171:
 4627 04a0 75617274 		.ascii	"uartStopSendI\000"
 4627      53746F70 
 4627      53656E64 
 4627      4900
 4628              	.LASF131:
 4629 04ae 55415254 		.ascii	"UART_RX_COMPLETE\000"
 4629      5F52585F 
 4629      434F4D50 
 4629      4C455445 
 4629      00
 4630              	.LASF130:
 4631 04bf 55415254 		.ascii	"UART_RX_ACTIVE\000"
 4631      5F52585F 
 4631      41435449 
 4631      564500
 4632              	.LASF50:
 4633 04ce 74687265 		.ascii	"thread_reference_t\000"
 4633      61645F72 
 4633      65666572 
ARM GAS  /tmp/ccgqwmVH.s 			page 86


 4633      656E6365 
 4633      5F7400
 4634              	.LASF73:
 4635 04e1 63685F76 		.ascii	"ch_virtual_timers_list\000"
 4635      69727475 
 4635      616C5F74 
 4635      696D6572 
 4635      735F6C69 
 4636              	.LASF100:
 4637 04f8 77747472 		.ascii	"wttrp\000"
 4637      7000
 4638              	.LASF170:
 4639 04fe 75617274 		.ascii	"uartStopSend\000"
 4639      53746F70 
 4639      53656E64 
 4639      00
 4640              	.LASF28:
 4641 050b 636E745F 		.ascii	"cnt_t\000"
 4641      7400
 4642              	.LASF151:
 4643 0511 72786572 		.ascii	"rxerr_cb\000"
 4643      725F6362 
 4643      00
 4644              	.LASF96:
 4645 051a 746D5F63 		.ascii	"tm_calibration_t\000"
 4645      616C6962 
 4645      72617469 
 4645      6F6E5F74 
 4645      00
 4646              	.LASF36:
 4647 052b 705F6F6C 		.ascii	"p_older\000"
 4647      64657200 
 4648              	.LASF60:
 4649 0533 725F6374 		.ascii	"r_ctx\000"
 4649      7800
 4650              	.LASF133:
 4651 0539 75617274 		.ascii	"uartflags_t\000"
 4651      666C6167 
 4651      735F7400 
 4652              	.LASF163:
 4653 0545 75617274 		.ascii	"uartStart\000"
 4653      53746172 
 4653      7400
 4654              	.LASF149:
 4655 054f 7278656E 		.ascii	"rxend_cb\000"
 4655      645F6362 
 4655      00
 4656              	.LASF70:
 4657 0558 76745F66 		.ascii	"vt_func\000"
 4657      756E6300 
 4658              	.LASF128:
 4659 0560 75617274 		.ascii	"uarttxstate_t\000"
 4659      74787374 
 4659      6174655F 
 4659      7400
 4660              	.LASF63:
 4661 056e 725F6375 		.ascii	"r_current\000"
ARM GAS  /tmp/ccgqwmVH.s 			page 87


 4661      7272656E 
 4661      7400
 4662              	.LASF62:
 4663 0578 725F6F6C 		.ascii	"r_older\000"
 4663      64657200 
 4664              	.LASF89:
 4665 0580 47545052 		.ascii	"GTPR\000"
 4665      00
 4666              	.LASF13:
 4667 0585 5F5F7569 		.ascii	"__uint64_t\000"
 4667      6E743634 
 4667      5F7400
 4668              	.LASF113:
 4669 0590 666C6F61 		.ascii	"float\000"
 4669      7400
 4670              	.LASF23:
 4671 0596 74726566 		.ascii	"trefs_t\000"
 4671      735F7400 
 4672              	.LASF65:
 4673 059e 76697274 		.ascii	"virtual_timer_t\000"
 4673      75616C5F 
 4673      74696D65 
 4673      725F7400 
 4674              	.LASF32:
 4675 05ae 705F7072 		.ascii	"p_prev\000"
 4675      657600
 4676              	.LASF120:
 4677 05b5 73746D33 		.ascii	"stm32_dma_stream_t\000"
 4677      325F646D 
 4677      615F7374 
 4677      7265616D 
 4677      5F7400
 4678              	.LASF178:
 4679 05c8 75617274 		.ascii	"uart_lld_stop\000"
 4679      5F6C6C64 
 4679      5F73746F 
 4679      7000
 4680              	.LASF25:
 4681 05d6 74707269 		.ascii	"tprio_t\000"
 4681      6F5F7400 
 4682              	.LASF173:
 4683 05de 75617274 		.ascii	"uartStartReceiveI\000"
 4683      53746172 
 4683      74526563 
 4683      65697665 
 4683      4900
 4684              	.LASF115:
 4685 05f0 73747265 		.ascii	"stream\000"
 4685      616D00
 4686              	.LASF85:
 4687 05f7 4E445452 		.ascii	"NDTR\000"
 4687      00
 4688              	.LASF76:
 4689 05fc 63685F73 		.ascii	"ch_system_debug\000"
 4689      79737465 
 4689      6D5F6465 
 4689      62756700 
ARM GAS  /tmp/ccgqwmVH.s 			page 88


 4690              	.LASF114:
 4691 060c 5F426F6F 		.ascii	"_Bool\000"
 4691      6C00
 4692              	.LASF17:
 4693 0612 696E7433 		.ascii	"int32_t\000"
 4693      325F7400 
 4694              	.LASF4:
 4695 061a 756E7369 		.ascii	"unsigned char\000"
 4695      676E6564 
 4695      20636861 
 4695      7200
 4696              	.LASF187:
 4697 0628 75617274 		.ascii	"uart_lld_stop_send\000"
 4697      5F6C6C64 
 4697      5F73746F 
 4697      705F7365 
 4697      6E6400
 4698              	.LASF47:
 4699 063b 705F6D74 		.ascii	"p_mtxlist\000"
 4699      786C6973 
 4699      7400
 4700              	.LASF5:
 4701 0645 73686F72 		.ascii	"short int\000"
 4701      7420696E 
 4701      7400
 4702              	.LASF38:
 4703 064f 705F7374 		.ascii	"p_state\000"
 4703      61746500 
 4704              	.LASF41:
 4705 0657 705F7072 		.ascii	"p_preempt\000"
 4705      65656D70 
 4705      7400
 4706              	.LASF59:
 4707 0661 725F7072 		.ascii	"r_prio\000"
 4707      696F00
 4708              	.LASF99:
 4709 0668 77746F62 		.ascii	"wtobjp\000"
 4709      6A7000
 4710              	.LASF103:
 4711 066f 65776D61 		.ascii	"ewmask\000"
 4711      736B00
 4712              	.LASF31:
 4713 0676 705F6E65 		.ascii	"p_next\000"
 4713      787400
 4714              	.LASF124:
 4715 067d 75617274 		.ascii	"uartstate_t\000"
 4715      73746174 
 4715      655F7400 
 4716              	.LASF166:
 4717 0689 5F5F6675 		.ascii	"__func__\000"
 4717      6E635F5F 
 4717      00
 4718              	.LASF156:
 4719 0692 63685379 		.ascii	"chSysLock\000"
 4719      734C6F63 
 4719      6B00
 4720              	.LASF160:
ARM GAS  /tmp/ccgqwmVH.s 			page 89


 4721 069c 6F73616C 		.ascii	"osalSysUnlock\000"
 4721      53797355 
 4721      6E6C6F63 
 4721      6B00
 4722              	.LASF127:
 4723 06aa 55415254 		.ascii	"UART_TX_COMPLETE\000"
 4723      5F54585F 
 4723      434F4D50 
 4723      4C455445 
 4723      00
 4724              	.LASF104:
 4725 06bb 63685F73 		.ascii	"ch_semaphore\000"
 4725      656D6170 
 4725      686F7265 
 4725      00
 4726              	.LASF46:
 4727 06c8 705F6570 		.ascii	"p_epending\000"
 4727      656E6469 
 4727      6E6700
 4728              	.LASF116:
 4729 06d3 69666372 		.ascii	"ifcr\000"
 4729      00
 4730              	.LASF147:
 4731 06d8 7478656E 		.ascii	"txend1_cb\000"
 4731      64315F63 
 4731      6200
 4732              	.LASF91:
 4733 06e2 72656761 		.ascii	"regarm_t\000"
 4733      726D5F74 
 4733      00
 4734              	.LASF58:
 4735 06eb 725F7175 		.ascii	"r_queue\000"
 4735      65756500 
 4736              	.LASF74:
 4737 06f3 76745F73 		.ascii	"vt_systime\000"
 4737      79737469 
 4737      6D6500
 4738              	.LASF53:
 4739 06fe 63685F74 		.ascii	"ch_threads_list\000"
 4739      68726561 
 4739      64735F6C 
 4739      69737400 
 4740              	.LASF145:
 4741 070e 75617274 		.ascii	"uartccb_t\000"
 4741      6363625F 
 4741      7400
 4742              	.LASF165:
 4743 0718 75617274 		.ascii	"uartStop\000"
 4743      53746F70 
 4743      00
 4744              	.LASF11:
 4745 0721 6C6F6E67 		.ascii	"long unsigned int\000"
 4745      20756E73 
 4745      69676E65 
 4745      6420696E 
 4745      7400
 4746              	.LASF177:
ARM GAS  /tmp/ccgqwmVH.s 			page 90


 4747 0733 75617274 		.ascii	"uart_lld_start\000"
 4747      5F6C6C64 
 4747      5F737461 
 4747      727400
 4748              	.LASF111:
 4749 0742 63686172 		.ascii	"char\000"
 4749      00
 4750              	.LASF138:
 4751 0747 636F6E66 		.ascii	"config\000"
 4751      696700
 4752              	.LASF129:
 4753 074e 55415254 		.ascii	"UART_RX_IDLE\000"
 4753      5F52585F 
 4753      49444C45 
 4753      00
 4754              	.LASF6:
 4755 075b 5F5F7569 		.ascii	"__uint16_t\000"
 4755      6E743136 
 4755      5F7400
 4756              	.LASF30:
 4757 0766 74687265 		.ascii	"thread_t\000"
 4757      61645F74 
 4757      00
 4758              	.LASF110:
 4759 076f 6D5F6E65 		.ascii	"m_next\000"
 4759      787400
 4760              	.LASF29:
 4761 0776 73797374 		.ascii	"systime_t\000"
 4761      696D655F 
 4761      7400
 4762              	.LASF48:
 4763 0780 705F7265 		.ascii	"p_realprio\000"
 4763      616C7072 
 4763      696F00
 4764              	.LASF64:
 4765 078b 76746675 		.ascii	"vtfunc_t\000"
 4765      6E635F74 
 4765      00
 4766              	.LASF10:
 4767 0794 5F5F7569 		.ascii	"__uint32_t\000"
 4767      6E743332 
 4767      5F7400
 4768              	.LASF157:
 4769 079f 5F5F7365 		.ascii	"__set_BASEPRI\000"
 4769      745F4241 
 4769      53455052 
 4769      4900
 4770              	.LASF125:
 4771 07ad 55415254 		.ascii	"UART_TX_IDLE\000"
 4771      5F54585F 
 4771      49444C45 
 4771      00
 4772              	.LASF102:
 4773 07ba 77746D74 		.ascii	"wtmtxp\000"
 4773      787000
 4774              	.LASF77:
 4775 07c1 70616E69 		.ascii	"panic_msg\000"
ARM GAS  /tmp/ccgqwmVH.s 			page 91


 4775      635F6D73 
 4775      6700
 4776              	.LASF95:
 4777 07cb 6F666673 		.ascii	"offset\000"
 4777      657400
 4778              	.LASF88:
 4779 07d2 444D415F 		.ascii	"DMA_Stream_TypeDef\000"
 4779      53747265 
 4779      616D5F54 
 4779      79706544 
 4779      656600
 4780              	.LASF42:
 4781 07e5 705F7469 		.ascii	"p_time\000"
 4781      6D6500
 4782              	.LASF66:
 4783 07ec 63685F76 		.ascii	"ch_virtual_timer\000"
 4783      69727475 
 4783      616C5F74 
 4783      696D6572 
 4783      00
 4784              	.LASF20:
 4785 07fd 7274636E 		.ascii	"rtcnt_t\000"
 4785      745F7400 
 4786              	.LASF44:
 4787 0805 705F6D73 		.ascii	"p_msgqueue\000"
 4787      67717565 
 4787      756500
 4788              	.LASF87:
 4789 0810 4D314152 		.ascii	"M1AR\000"
 4789      00
 4790              	.LASF118:
 4791 0815 73656C66 		.ascii	"selfindex\000"
 4791      696E6465 
 4791      7800
 4792              	.LASF71:
 4793 081f 76745F70 		.ascii	"vt_par\000"
 4793      617200
 4794              	.LASF54:
 4795 0826 74687265 		.ascii	"threads_queue_t\000"
 4795      6164735F 
 4795      71756575 
 4795      655F7400 
 4796              	.LASF37:
 4797 0836 705F6E61 		.ascii	"p_name\000"
 4797      6D6500
 4798              	.LASF40:
 4799 083d 705F7265 		.ascii	"p_refs\000"
 4799      667300
 4800              	.LASF169:
 4801 0844 75617274 		.ascii	"uartStartSendI\000"
 4801      53746172 
 4801      7453656E 
 4801      644900
 4802              	.LASF80:
 4803 0853 726C6973 		.ascii	"rlist\000"
 4803      7400
 4804              	.LASF15:
ARM GAS  /tmp/ccgqwmVH.s 			page 92


 4805 0859 75696E74 		.ascii	"uint8_t\000"
 4805      385F7400 
 4806              	.LASF84:
 4807 0861 73697A65 		.ascii	"sizetype\000"
 4807      74797065 
 4807      00
 4808              	.LASF140:
 4809 086a 646D616D 		.ascii	"dmamode\000"
 4809      6F646500 
 4810              	.LASF107:
 4811 0872 63685F6D 		.ascii	"ch_mutex\000"
 4811      75746578 
 4811      00
 4812              	.LASF152:
 4813 087b 73706565 		.ascii	"speed\000"
 4813      6400
 4814              	.LASF51:
 4815 0881 74687265 		.ascii	"threads_list_t\000"
 4815      6164735F 
 4815      6C697374 
 4815      5F7400
 4816              	.LASF39:
 4817 0890 705F666C 		.ascii	"p_flags\000"
 4817      61677300 
 4818              	.LASF179:
 4819 0898 75617274 		.ascii	"uart_lld_start_send\000"
 4819      5F6C6C64 
 4819      5F737461 
 4819      72745F73 
 4819      656E6400 
 4820              	.LASF158:
 4821 08ac 63685379 		.ascii	"chSysUnlock\000"
 4821      73556E6C 
 4821      6F636B00 
 4822              	.LASF45:
 4823 08b8 705F6D73 		.ascii	"p_msg\000"
 4823      6700
 4824              	.LASF172:
 4825 08be 75617274 		.ascii	"uartStartReceive\000"
 4825      53746172 
 4825      74526563 
 4825      65697665 
 4825      00
 4826              	.LASF109:
 4827 08cf 6D5F6F77 		.ascii	"m_owner\000"
 4827      6E657200 
 4828              	.LASF18:
 4829 08d7 75696E74 		.ascii	"uint32_t\000"
 4829      33325F74 
 4829      00
 4830              	.LASF34:
 4831 08e0 705F6374 		.ascii	"p_ctx\000"
 4831      7800
 4832              	.LASF43:
 4833 08e6 705F7761 		.ascii	"p_waiting\000"
 4833      6974696E 
 4833      6700
ARM GAS  /tmp/ccgqwmVH.s 			page 93


 4834              		.ident	"GCC: (4.8.4-1+11-1) 4.8.4 20141219 (release)"
ARM GAS  /tmp/ccgqwmVH.s 			page 94


DEFINED SYMBOLS
                            *ABS*:0000000000000000 uart.c
     /tmp/ccgqwmVH.s:21     .text.uartInit:0000000000000000 $t
     /tmp/ccgqwmVH.s:27     .text.uartInit:0000000000000000 uartInit
     /tmp/ccgqwmVH.s:42     .text.uartObjectInit:0000000000000000 $t
     /tmp/ccgqwmVH.s:48     .text.uartObjectInit:0000000000000000 uartObjectInit
     /tmp/ccgqwmVH.s:72     .text.uartStart:0000000000000000 $t
     /tmp/ccgqwmVH.s:78     .text.uartStart:0000000000000000 uartStart
     /tmp/ccgqwmVH.s:151    .text.uartStop:0000000000000000 $t
     /tmp/ccgqwmVH.s:157    .text.uartStop:0000000000000000 uartStop
     /tmp/ccgqwmVH.s:232    .text.uartStartSend:0000000000000000 $t
     /tmp/ccgqwmVH.s:238    .text.uartStartSend:0000000000000000 uartStartSend
     /tmp/ccgqwmVH.s:308    .text.uartStartSendI:0000000000000000 $t
     /tmp/ccgqwmVH.s:314    .text.uartStartSendI:0000000000000000 uartStartSendI
     /tmp/ccgqwmVH.s:338    .text.uartStopSend:0000000000000000 $t
     /tmp/ccgqwmVH.s:344    .text.uartStopSend:0000000000000000 uartStopSend
     /tmp/ccgqwmVH.s:444    .text.uartStopSendI:0000000000000000 $t
     /tmp/ccgqwmVH.s:450    .text.uartStopSendI:0000000000000000 uartStopSendI
     /tmp/ccgqwmVH.s:490    .text.uartStartReceive:0000000000000000 $t
     /tmp/ccgqwmVH.s:496    .text.uartStartReceive:0000000000000000 uartStartReceive
     /tmp/ccgqwmVH.s:566    .text.uartStartReceiveI:0000000000000000 $t
     /tmp/ccgqwmVH.s:572    .text.uartStartReceiveI:0000000000000000 uartStartReceiveI
     /tmp/ccgqwmVH.s:596    .text.uartStopReceive:0000000000000000 $t
     /tmp/ccgqwmVH.s:602    .text.uartStopReceive:0000000000000000 uartStopReceive
     /tmp/ccgqwmVH.s:702    .text.uartStopReceiveI:0000000000000000 $t
     /tmp/ccgqwmVH.s:708    .text.uartStopReceiveI:0000000000000000 uartStopReceiveI
                     .debug_frame:0000000000000010 $d

UNDEFINED SYMBOLS
uart_lld_init
uart_lld_start
uart_lld_stop
uart_lld_start_send
uart_lld_stop_send
uart_lld_start_receive
uart_lld_stop_receive
