ARM GAS  /tmp/ccGa35Ej.s 			page 1


   1              		.syntax unified
   2              		.cpu cortex-m4
   3              		.eabi_attribute 27, 3
   4              		.eabi_attribute 28, 1
   5              		.fpu fpv4-sp-d16
   6              		.eabi_attribute 20, 1
   7              		.eabi_attribute 21, 1
   8              		.eabi_attribute 23, 3
   9              		.eabi_attribute 24, 1
  10              		.eabi_attribute 25, 1
  11              		.eabi_attribute 26, 1
  12              		.eabi_attribute 30, 2
  13              		.eabi_attribute 34, 1
  14              		.eabi_attribute 18, 4
  15              		.thumb
  16              		.file	"uart_lld.c"
  17              		.text
  18              	.Ltext0:
  19              		.cfi_sections	.debug_frame
  20              		.section	.text.usart_stop,"ax",%progbits
  21              		.align	2
  22              		.p2align 4,,15
  23              		.thumb
  24              		.thumb_func
  25              		.type	usart_stop, %function
  26              	usart_stop:
  27              	.LFB258:
  28              		.file 1 "ChibiOS_3.0.2/os/hal/ports/STM32/LLD/USARTv1/uart_lld.c"
  29              		.loc 1 180 0
  30              		.cfi_startproc
  31              		@ args = 0, pretend = 0, frame = 0
  32              		@ frame_needed = 0, uses_anonymous_args = 0
  33              		@ link register save eliminated.
  34              	.LVL0:
  35 0000 30B4     		push	{r4, r5}
  36              		.cfi_def_cfa_offset 8
  37              		.cfi_offset 4, -8
  38              		.cfi_offset 5, -4
  39              		.loc 1 183 0
  40 0002 0469     		ldr	r4, [r0, #16]
  41 0004 2268     		ldr	r2, [r4]
  42 0006 1368     		ldr	r3, [r2]
  43 0008 23F01F03 		bic	r3, r3, #31
  44 000c 1360     		str	r3, [r2]
  45              	.L3:
  46              		.loc 1 183 0 is_stmt 0 discriminator 1
  47 000e 1368     		ldr	r3, [r2]
  48 0010 DB07     		lsls	r3, r3, #31
  49 0012 FCD4     		bmi	.L3
  50              		.loc 1 183 0 discriminator 2
  51 0014 257A     		ldrb	r5, [r4, #8]	@ zero_extendqisi2
  52              		.loc 1 184 0 is_stmt 1 discriminator 2
  53 0016 4169     		ldr	r1, [r0, #20]
  54              		.loc 1 183 0 discriminator 2
  55 0018 6368     		ldr	r3, [r4, #4]
  56              		.loc 1 184 0 discriminator 2
  57 001a 0A68     		ldr	r2, [r1]
ARM GAS  /tmp/ccGa35Ej.s 			page 2


  58              		.loc 1 183 0 discriminator 2
  59 001c 3D24     		movs	r4, #61
  60 001e AC40     		lsls	r4, r4, r5
  61 0020 1C60     		str	r4, [r3]
  62              		.loc 1 184 0 discriminator 2
  63 0022 1368     		ldr	r3, [r2]
  64 0024 23F01F03 		bic	r3, r3, #31
  65 0028 1360     		str	r3, [r2]
  66              	.L5:
  67              		.loc 1 184 0 is_stmt 0 discriminator 1
  68 002a 1368     		ldr	r3, [r2]
  69 002c 13F00103 		ands	r3, r3, #1
  70 0030 FBD1     		bne	.L5
  71              		.loc 1 184 0 discriminator 2
  72 0032 0C7A     		ldrb	r4, [r1, #8]	@ zero_extendqisi2
  73              		.loc 1 187 0 is_stmt 1 discriminator 2
  74 0034 8268     		ldr	r2, [r0, #8]
  75              		.loc 1 184 0 discriminator 2
  76 0036 4968     		ldr	r1, [r1, #4]
  77 0038 3D20     		movs	r0, #61
  78              	.LVL1:
  79 003a A040     		lsls	r0, r0, r4
  80 003c 0860     		str	r0, [r1]
  81              		.loc 1 190 0 discriminator 2
  82 003e 30BC     		pop	{r4, r5}
  83              		.loc 1 187 0 discriminator 2
  84 0040 D360     		str	r3, [r2, #12]
  85              		.loc 1 188 0 discriminator 2
  86 0042 1361     		str	r3, [r2, #16]
  87              		.loc 1 189 0 discriminator 2
  88 0044 5361     		str	r3, [r2, #20]
  89              		.loc 1 190 0 discriminator 2
  90 0046 7047     		bx	lr
  91              		.cfi_endproc
  92              	.LFE258:
  93              		.size	usart_stop, .-usart_stop
  94 0048 AFF30080 		.section	.text.serve_usart_irq,"ax",%progbits
  94      AFF30080 
  95              		.align	2
  96              		.p2align 4,,15
  97              		.thumb
  98              		.thumb_func
  99              		.type	serve_usart_irq, %function
 100              	serve_usart_irq:
 101              	.LFB262:
 102              		.loc 1 310 0
 103              		.cfi_startproc
 104              		@ args = 0, pretend = 0, frame = 0
 105              		@ frame_needed = 0, uses_anonymous_args = 0
 106              	.LVL2:
 107 0000 F8B5     		push	{r3, r4, r5, r6, r7, lr}
 108              		.cfi_def_cfa_offset 24
 109              		.cfi_offset 3, -24
 110              		.cfi_offset 4, -20
 111              		.cfi_offset 5, -16
 112              		.cfi_offset 6, -12
 113              		.cfi_offset 7, -8
ARM GAS  /tmp/ccGa35Ej.s 			page 3


 114              		.cfi_offset 14, -4
 115              		.loc 1 312 0
 116 0002 8468     		ldr	r4, [r0, #8]
 117              	.LVL3:
 118              		.loc 1 313 0
 119 0004 E768     		ldr	r7, [r4, #12]
 120              	.LVL4:
 121              		.loc 1 315 0
 122 0006 2668     		ldr	r6, [r4]
 123              	.LVL5:
 124              		.loc 1 316 0
 125 0008 6268     		ldr	r2, [r4, #4]
 126              		.loc 1 318 0
 127 000a 40F20F13 		movw	r3, #271
 128 000e 3340     		ands	r3, r3, r6
 129              		.loc 1 310 0
 130 0010 0546     		mov	r5, r0
 131              		.loc 1 318 0
 132 0012 EBB1     		cbz	r3, .L9
 133              		.loc 1 321 0
 134 0014 4368     		ldr	r3, [r0, #4]
 135 0016 1A69     		ldr	r2, [r3, #16]
 136              		.loc 1 320 0
 137 0018 6FF48073 		mvn	r3, #256
 138 001c 2360     		str	r3, [r4]
 139              		.loc 1 321 0
 140 001e BAB1     		cbz	r2, .L9
 141              		.loc 1 315 0
 142 0020 B3B2     		uxth	r3, r6
 143              	.LVL6:
 144              	.LBB18:
 145              	.LBB19:
 146              		.loc 1 139 0
 147 0022 13F0080F 		tst	r3, #8
 148 0026 14BF     		ite	ne
 149 0028 1021     		movne	r1, #16
 150 002a 0021     		moveq	r1, #0
 151              	.LVL7:
 152              		.loc 1 143 0
 153 002c D807     		lsls	r0, r3, #31
 154              	.LVL8:
 155              		.loc 1 144 0
 156 002e 48BF     		it	mi
 157 0030 41F00401 		orrmi	r1, r1, #4
 158              	.LVL9:
 159              		.loc 1 145 0
 160 0034 9807     		lsls	r0, r3, #30
 161              		.loc 1 146 0
 162 0036 48BF     		it	mi
 163 0038 41F00801 		orrmi	r1, r1, #8
 164              	.LVL10:
 165              		.loc 1 147 0
 166 003c 5807     		lsls	r0, r3, #29
 167              		.loc 1 148 0
 168 003e 48BF     		it	mi
 169 0040 41F02001 		orrmi	r1, r1, #32
 170              	.LVL11:
ARM GAS  /tmp/ccGa35Ej.s 			page 4


 171              		.loc 1 149 0
 172 0044 D805     		lsls	r0, r3, #23
 173              		.loc 1 150 0
 174 0046 48BF     		it	mi
 175 0048 41F04001 		orrmi	r1, r1, #64
 176              	.LVL12:
 177              	.LBE19:
 178              	.LBE18:
 179              		.loc 1 322 0
 180 004c 2846     		mov	r0, r5
 181 004e 9047     		blx	r2
 182              	.LVL13:
 183              	.L9:
 184              		.loc 1 325 0
 185 0050 7206     		lsls	r2, r6, #25
 186 0052 0CD5     		bpl	.L7
 187              		.loc 1 325 0 is_stmt 0 discriminator 1
 188 0054 7B06     		lsls	r3, r7, #25
 189 0056 0AD5     		bpl	.L7
 190              		.loc 1 331 0 is_stmt 1
 191 0058 6B68     		ldr	r3, [r5, #4]
 192 005a 5B68     		ldr	r3, [r3, #4]
 193              		.loc 1 328 0
 194 005c 27F04007 		bic	r7, r7, #64
 195              	.LVL14:
 196              		.loc 1 327 0
 197 0060 6FF04002 		mvn	r2, #64
 198 0064 2260     		str	r2, [r4]
 199              		.loc 1 328 0
 200 0066 E760     		str	r7, [r4, #12]
 201              		.loc 1 331 0
 202 0068 0BB1     		cbz	r3, .L7
 203              		.loc 1 332 0
 204 006a 2846     		mov	r0, r5
 205 006c 9847     		blx	r3
 206              	.LVL15:
 207              	.L7:
 208 006e F8BD     		pop	{r3, r4, r5, r6, r7, pc}
 209              		.cfi_endproc
 210              	.LFE262:
 211              		.size	serve_usart_irq, .-serve_usart_irq
 212              		.section	.text.uart_lld_serve_tx_end_irq,"ax",%progbits
 213              		.align	2
 214              		.p2align 4,,15
 215              		.thumb
 216              		.thumb_func
 217              		.type	uart_lld_serve_tx_end_irq, %function
 218              	uart_lld_serve_tx_end_irq:
 219              	.LFB261:
 220              		.loc 1 281 0
 221              		.cfi_startproc
 222              		@ args = 0, pretend = 0, frame = 0
 223              		@ frame_needed = 0, uses_anonymous_args = 0
 224              	.LVL16:
 225              		.loc 1 285 0
 226 0000 11F00C0F 		tst	r1, #12
 227              		.loc 1 281 0
ARM GAS  /tmp/ccGa35Ej.s 			page 5


 228 0004 10B5     		push	{r4, lr}
 229              		.cfi_def_cfa_offset 8
 230              		.cfi_offset 4, -8
 231              		.cfi_offset 14, -4
 232              		.loc 1 281 0
 233 0006 0446     		mov	r4, r0
 234              		.loc 1 285 0
 235 0008 1BD1     		bne	.L54
 236              	.LVL17:
 237              	.L42:
 238              		.loc 1 292 0
 239 000a 6169     		ldr	r1, [r4, #20]
 240 000c 0A68     		ldr	r2, [r1]
 241 000e 1368     		ldr	r3, [r2]
 242 0010 23F01F03 		bic	r3, r3, #31
 243 0014 1360     		str	r3, [r2]
 244              	.L44:
 245              		.loc 1 292 0 is_stmt 0 discriminator 1
 246 0016 1368     		ldr	r3, [r2]
 247 0018 DB07     		lsls	r3, r3, #31
 248 001a FCD4     		bmi	.L44
 249              		.loc 1 296 0 is_stmt 1 discriminator 2
 250 001c 6368     		ldr	r3, [r4, #4]
 251              		.loc 1 292 0 discriminator 2
 252 001e 0A7A     		ldrb	r2, [r1, #8]	@ zero_extendqisi2
 253              		.loc 1 296 0 discriminator 2
 254 0020 1B68     		ldr	r3, [r3]
 255              		.loc 1 292 0 discriminator 2
 256 0022 4968     		ldr	r1, [r1, #4]
 257 0024 3D20     		movs	r0, #61
 258 0026 9040     		lsls	r0, r0, r2
 259              		.loc 1 295 0 discriminator 2
 260 0028 0222     		movs	r2, #2
 261              		.loc 1 292 0 discriminator 2
 262 002a 0860     		str	r0, [r1]
 263              		.loc 1 295 0 discriminator 2
 264 002c 6270     		strb	r2, [r4, #1]
 265              		.loc 1 296 0 discriminator 2
 266 002e 2BB1     		cbz	r3, .L47
 267              		.loc 1 297 0
 268 0030 2046     		mov	r0, r4
 269 0032 9847     		blx	r3
 270              	.LVL18:
 271              		.loc 1 301 0
 272 0034 6378     		ldrb	r3, [r4, #1]	@ zero_extendqisi2
 273 0036 022B     		cmp	r3, #2
 274 0038 00D0     		beq	.L47
 275 003a 10BD     		pop	{r4, pc}
 276              	.LVL19:
 277              	.L47:
 278              		.loc 1 302 0
 279 003c 0023     		movs	r3, #0
 280 003e 6370     		strb	r3, [r4, #1]
 281 0040 10BD     		pop	{r4, pc}
 282              	.LVL20:
 283              	.L54:
 284              	.LBB20:
ARM GAS  /tmp/ccGa35Ej.s 			page 6


 285              	.LBB21:
 286              		.file 2 "ChibiOS_3.0.2/os/hal/osal/rt/osal.h"
 287              		.loc 2 462 0
 288 0042 0248     		ldr	r0, .L55
 289              	.LVL21:
 290 0044 FFF7FEFF 		bl	chSysHalt
 291              	.LVL22:
 292 0048 DFE7     		b	.L42
 293              	.L56:
 294 004a 00BF     		.align	2
 295              	.L55:
 296 004c 00000000 		.word	.LC0
 297              	.LBE21:
 298              	.LBE20:
 299              		.cfi_endproc
 300              	.LFE261:
 301              		.size	uart_lld_serve_tx_end_irq, .-uart_lld_serve_tx_end_irq
 302              		.section	.text.uart_lld_serve_rx_end_irq,"ax",%progbits
 303              		.align	2
 304              		.p2align 4,,15
 305              		.thumb
 306              		.thumb_func
 307              		.type	uart_lld_serve_rx_end_irq, %function
 308              	uart_lld_serve_rx_end_irq:
 309              	.LFB260:
 310              		.loc 1 241 0
 311              		.cfi_startproc
 312              		@ args = 0, pretend = 0, frame = 0
 313              		@ frame_needed = 0, uses_anonymous_args = 0
 314              	.LVL23:
 315              		.loc 1 245 0
 316 0000 11F00C0F 		tst	r1, #12
 317              		.loc 1 241 0
 318 0004 70B5     		push	{r4, r5, r6, lr}
 319              		.cfi_def_cfa_offset 16
 320              		.cfi_offset 4, -16
 321              		.cfi_offset 5, -12
 322              		.cfi_offset 6, -8
 323              		.cfi_offset 14, -4
 324              		.loc 1 241 0
 325 0006 0446     		mov	r4, r0
 326              		.loc 1 245 0
 327 0008 3BD1     		bne	.L72
 328              	.LVL24:
 329              	.L58:
 330              		.loc 1 252 0
 331 000a A378     		ldrb	r3, [r4, #2]	@ zero_extendqisi2
 332 000c 43B9     		cbnz	r3, .L59
 333              		.loc 1 255 0
 334 000e 6368     		ldr	r3, [r4, #4]
 335 0010 DB68     		ldr	r3, [r3, #12]
 336 0012 002B     		cmp	r3, #0
 337 0014 34D0     		beq	.L57
 338              		.loc 1 256 0
 339 0016 218B     		ldrh	r1, [r4, #24]
 340 0018 2046     		mov	r0, r4
 341 001a 89B2     		uxth	r1, r1
ARM GAS  /tmp/ccGa35Ej.s 			page 7


 342 001c 9847     		blx	r3
 343              	.LVL25:
 344 001e 70BD     		pop	{r4, r5, r6, pc}
 345              	.LVL26:
 346              	.L59:
 347              	.LBB30:
 348              	.LBB31:
 349              		.loc 1 261 0
 350 0020 2169     		ldr	r1, [r4, #16]
 351 0022 0A68     		ldr	r2, [r1]
 352 0024 1368     		ldr	r3, [r2]
 353 0026 23F01F03 		bic	r3, r3, #31
 354 002a 1360     		str	r3, [r2]
 355              	.L63:
 356 002c 1368     		ldr	r3, [r2]
 357 002e DB07     		lsls	r3, r3, #31
 358 0030 FCD4     		bmi	.L63
 359              		.loc 1 263 0
 360 0032 6068     		ldr	r0, [r4, #4]
 361              		.loc 1 261 0
 362 0034 0E7A     		ldrb	r6, [r1, #8]	@ zero_extendqisi2
 363 0036 4D68     		ldr	r5, [r1, #4]
 364              		.loc 1 263 0
 365 0038 8368     		ldr	r3, [r0, #8]
 366              		.loc 1 261 0
 367 003a 3D21     		movs	r1, #61
 368 003c 01FA06F6 		lsl	r6, r1, r6
 369              		.loc 1 262 0
 370 0040 0221     		movs	r1, #2
 371              		.loc 1 261 0
 372 0042 2E60     		str	r6, [r5]
 373              		.loc 1 262 0
 374 0044 A170     		strb	r1, [r4, #2]
 375              		.loc 1 263 0
 376 0046 3BB1     		cbz	r3, .L64
 377              		.loc 1 264 0
 378 0048 2046     		mov	r0, r4
 379 004a 9847     		blx	r3
 380              	.LVL27:
 381              		.loc 1 268 0
 382 004c A378     		ldrb	r3, [r4, #2]	@ zero_extendqisi2
 383 004e 022B     		cmp	r3, #2
 384 0050 16D1     		bne	.L57
 385 0052 2369     		ldr	r3, [r4, #16]
 386 0054 6068     		ldr	r0, [r4, #4]
 387 0056 1A68     		ldr	r2, [r3]
 388              	.L64:
 389              	.LBB32:
 390              	.LBB33:
 391              		.loc 1 164 0
 392 0058 C168     		ldr	r1, [r0, #12]
 393              		.loc 1 170 0
 394 005a E368     		ldr	r3, [r4, #12]
 395              		.loc 1 165 0
 396 005c 0029     		cmp	r1, #0
 397 005e 14BF     		ite	ne
 398 0060 4FF48871 		movne	r1, #272
ARM GAS  /tmp/ccGa35Ej.s 			page 8


 399 0064 4FF48071 		moveq	r1, #256
 400              		.loc 1 170 0
 401 0068 0B43     		orrs	r3, r3, r1
 402              	.LBE33:
 403              	.LBE32:
 404              		.loc 1 269 0
 405 006a 0025     		movs	r5, #0
 406              	.LBB36:
 407              	.LBB34:
 408              		.loc 1 169 0
 409 006c 0121     		movs	r1, #1
 410              		.loc 1 168 0
 411 006e 04F11800 		add	r0, r4, #24
 412              	.LBE34:
 413              	.LBE36:
 414              		.loc 1 269 0
 415 0072 A570     		strb	r5, [r4, #2]
 416              	.LVL28:
 417              	.LBB37:
 418              	.LBB35:
 419              		.loc 1 168 0
 420 0074 D060     		str	r0, [r2, #12]
 421              		.loc 1 169 0
 422 0076 5160     		str	r1, [r2, #4]
 423              		.loc 1 170 0
 424 0078 1360     		str	r3, [r2]
 425              		.loc 1 171 0
 426 007a 1368     		ldr	r3, [r2]
 427 007c 0B43     		orrs	r3, r3, r1
 428 007e 1360     		str	r3, [r2]
 429              	.LVL29:
 430              	.L57:
 431 0080 70BD     		pop	{r4, r5, r6, pc}
 432              	.LVL30:
 433              	.L72:
 434              	.LBE35:
 435              	.LBE37:
 436              	.LBE31:
 437              	.LBE30:
 438              	.LBB38:
 439              	.LBB39:
 440              		.loc 2 462 0
 441 0082 0248     		ldr	r0, .L73
 442              	.LVL31:
 443 0084 FFF7FEFF 		bl	chSysHalt
 444              	.LVL32:
 445 0088 BFE7     		b	.L58
 446              	.L74:
 447 008a 00BF     		.align	2
 448              	.L73:
 449 008c 00000000 		.word	.LC0
 450              	.LBE39:
 451              	.LBE38:
 452              		.cfi_endproc
 453              	.LFE260:
 454              		.size	uart_lld_serve_rx_end_irq, .-uart_lld_serve_rx_end_irq
 455              		.section	.text.VectorDC,"ax",%progbits
ARM GAS  /tmp/ccGa35Ej.s 			page 9


 456              		.align	2
 457              		.p2align 4,,15
 458              		.global	VectorDC
 459              		.thumb
 460              		.thumb_func
 461              		.type	VectorDC, %function
 462              	VectorDC:
 463              	.LFB263:
 464              		.loc 1 387 0
 465              		.cfi_startproc
 466              		@ args = 0, pretend = 0, frame = 0
 467              		@ frame_needed = 0, uses_anonymous_args = 0
 468 0000 08B5     		push	{r3, lr}
 469              		.cfi_def_cfa_offset 8
 470              		.cfi_offset 3, -8
 471              		.cfi_offset 14, -4
 472              		.loc 1 391 0
 473 0002 0348     		ldr	r0, .L76
 474 0004 FFF7FEFF 		bl	serve_usart_irq
 475              	.LVL33:
 476              		.loc 1 394 0
 477 0008 BDE80840 		pop	{r3, lr}
 478              		.loc 1 393 0
 479 000c FFF7FEBF 		b	_port_irq_epilogue
 480              	.LVL34:
 481              	.L77:
 482              		.align	2
 483              	.L76:
 484 0010 00000000 		.word	.LANCHOR0
 485              		.cfi_endproc
 486              	.LFE263:
 487              		.size	VectorDC, .-VectorDC
 488 0014 AFF30080 		.section	.text.Vector15C,"ax",%progbits
 488      AFF30080 
 488      AFF30080 
 489              		.align	2
 490              		.p2align 4,,15
 491              		.global	Vector15C
 492              		.thumb
 493              		.thumb_func
 494              		.type	Vector15C, %function
 495              	Vector15C:
 496              	.LFB264:
 497              		.loc 1 444 0
 498              		.cfi_startproc
 499              		@ args = 0, pretend = 0, frame = 0
 500              		@ frame_needed = 0, uses_anonymous_args = 0
 501 0000 08B5     		push	{r3, lr}
 502              		.cfi_def_cfa_offset 8
 503              		.cfi_offset 3, -8
 504              		.cfi_offset 14, -4
 505              		.loc 1 448 0
 506 0002 0348     		ldr	r0, .L79
 507 0004 FFF7FEFF 		bl	serve_usart_irq
 508              	.LVL35:
 509              		.loc 1 451 0
 510 0008 BDE80840 		pop	{r3, lr}
ARM GAS  /tmp/ccGa35Ej.s 			page 10


 511              		.loc 1 450 0
 512 000c FFF7FEBF 		b	_port_irq_epilogue
 513              	.LVL36:
 514              	.L80:
 515              		.align	2
 516              	.L79:
 517 0010 00000000 		.word	.LANCHOR1
 518              		.cfi_endproc
 519              	.LFE264:
 520              		.size	Vector15C, .-Vector15C
 521 0014 AFF30080 		.section	.text.uart_lld_init,"ax",%progbits
 521      AFF30080 
 521      AFF30080 
 522              		.align	2
 523              		.p2align 4,,15
 524              		.global	uart_lld_init
 525              		.thumb
 526              		.thumb_func
 527              		.type	uart_lld_init, %function
 528              	uart_lld_init:
 529              	.LFB265:
 530              		.loc 1 463 0
 531              		.cfi_startproc
 532              		@ args = 0, pretend = 0, frame = 0
 533              		@ frame_needed = 0, uses_anonymous_args = 0
 534 0000 70B5     		push	{r4, r5, r6, lr}
 535              		.cfi_def_cfa_offset 16
 536              		.cfi_offset 4, -16
 537              		.cfi_offset 5, -12
 538              		.cfi_offset 6, -8
 539              		.cfi_offset 14, -4
 540              		.loc 1 482 0
 541 0002 0C4C     		ldr	r4, .L82
 542              		.loc 1 485 0
 543 0004 0C4E     		ldr	r6, .L82+4
 544              		.loc 1 506 0
 545 0006 0D4D     		ldr	r5, .L82+8
 546              		.loc 1 482 0
 547 0008 2046     		mov	r0, r4
 548 000a FFF7FEFF 		bl	uartObjectInit
 549              	.LVL37:
 550              		.loc 1 483 0
 551 000e 0C4B     		ldr	r3, .L82+12
 552 0010 A360     		str	r3, [r4, #8]
 553              		.loc 1 484 0
 554 0012 0622     		movs	r2, #6
 555              		.loc 1 486 0
 556 0014 06F11803 		add	r3, r6, #24
 557              		.loc 1 506 0
 558 0018 2846     		mov	r0, r5
 559              		.loc 1 485 0
 560 001a 2661     		str	r6, [r4, #16]
 561              		.loc 1 486 0
 562 001c 6361     		str	r3, [r4, #20]
 563              		.loc 1 484 0
 564 001e E260     		str	r2, [r4, #12]
 565              		.loc 1 506 0
ARM GAS  /tmp/ccGa35Ej.s 			page 11


 566 0020 FFF7FEFF 		bl	uartObjectInit
 567              	.LVL38:
 568              		.loc 1 507 0
 569 0024 074B     		ldr	r3, .L82+16
 570 0026 AB60     		str	r3, [r5, #8]
 571              		.loc 1 508 0
 572 0028 06F16C03 		add	r3, r6, #108
 573              		.loc 1 509 0
 574 002c A836     		adds	r6, r6, #168
 575              		.loc 1 508 0
 576 002e 2B61     		str	r3, [r5, #16]
 577              		.loc 1 509 0
 578 0030 6E61     		str	r6, [r5, #20]
 579 0032 70BD     		pop	{r4, r5, r6, pc}
 580              	.L83:
 581              		.align	2
 582              	.L82:
 583 0034 00000000 		.word	.LANCHOR0
 584 0038 0C000000 		.word	_stm32_dma_streams+12
 585 003c 00000000 		.word	.LANCHOR1
 586 0040 00480040 		.word	1073760256
 587 0044 00140140 		.word	1073812480
 588              		.cfi_endproc
 589              	.LFE265:
 590              		.size	uart_lld_init, .-uart_lld_init
 591 0048 AFF30080 		.section	.text.uart_lld_start,"ax",%progbits
 591      AFF30080 
 592              		.align	2
 593              		.p2align 4,,15
 594              		.global	uart_lld_start
 595              		.thumb
 596              		.thumb_func
 597              		.type	uart_lld_start, %function
 598              	uart_lld_start:
 599              	.LFB266:
 600              		.loc 1 520 0
 601              		.cfi_startproc
 602              		@ args = 0, pretend = 0, frame = 0
 603              		@ frame_needed = 0, uses_anonymous_args = 0
 604              	.LVL39:
 605              		.loc 1 522 0
 606 0000 0378     		ldrb	r3, [r0]	@ zero_extendqisi2
 607 0002 012B     		cmp	r3, #1
 608              		.loc 1 520 0
 609 0004 2DE9F041 		push	{r4, r5, r6, r7, r8, lr}
 610              		.cfi_def_cfa_offset 24
 611              		.cfi_offset 4, -24
 612              		.cfi_offset 5, -20
 613              		.cfi_offset 6, -16
 614              		.cfi_offset 7, -12
 615              		.cfi_offset 8, -8
 616              		.cfi_offset 14, -4
 617              		.loc 1 520 0
 618 0008 0446     		mov	r4, r0
 619              		.loc 1 522 0
 620 000a 43D0     		beq	.L85
 621 000c 8568     		ldr	r5, [r0, #8]
ARM GAS  /tmp/ccGa35Ej.s 			page 12


 622              	.LVL40:
 623              	.L86:
 624              		.loc 1 664 0
 625 000e 0023     		movs	r3, #0
 626 0010 A370     		strb	r3, [r4, #2]
 627              		.loc 1 665 0
 628 0012 6370     		strb	r3, [r4, #1]
 629              	.LVL41:
 630              	.LBB46:
 631              	.LBB47:
 632              		.loc 1 203 0
 633 0014 2046     		mov	r0, r4
 634 0016 FFF7FEFF 		bl	usart_stop
 635              	.LVL42:
 636              		.loc 1 207 0
 637 001a A368     		ldr	r3, [r4, #8]
 638 001c 494A     		ldr	r2, .L98
 639 001e 9342     		cmp	r3, r2
 640 0020 50D0     		beq	.L90
 641 0022 02F58062 		add	r2, r2, #1024
 642 0026 9342     		cmp	r3, r2
 643 0028 4CD0     		beq	.L90
 644              		.loc 1 213 0
 645 002a 6368     		ldr	r3, [r4, #4]
 646 002c 4649     		ldr	r1, .L98+4
 647 002e 5A69     		ldr	r2, [r3, #20]
 648 0030 B1FBF2F2 		udiv	r2, r1, r2
 649 0034 AA60     		str	r2, [r5, #8]
 650              	.L92:
 651              		.loc 1 229 0
 652 0036 1A8B     		ldrh	r2, [r3, #24]
 653              	.LBB48:
 654              	.LBB49:
 655              		.loc 1 164 0
 656 0038 D868     		ldr	r0, [r3, #12]
 657              	.LBE49:
 658              	.LBE48:
 659              		.loc 1 222 0
 660 003a 5F8B     		ldrh	r7, [r3, #26]
 661              		.loc 1 223 0
 662 003c 9E8B     		ldrh	r6, [r3, #28]
 663              	.LBB57:
 664              	.LBB50:
 665              		.loc 1 168 0
 666 003e 2369     		ldr	r3, [r4, #16]
 667              	.LBE50:
 668              	.LBE57:
 669              		.loc 1 216 0
 670 0040 2968     		ldr	r1, [r5]
 671              	.LBB58:
 672              	.LBB51:
 673              		.loc 1 168 0
 674 0042 1B68     		ldr	r3, [r3]
 675              	.LBE51:
 676              	.LBE58:
 677              		.loc 1 217 0
 678 0044 6968     		ldr	r1, [r5, #4]
ARM GAS  /tmp/ccGa35Ej.s 			page 13


 679              		.loc 1 229 0
 680 0046 42F40452 		orr	r2, r2, #8448
 681 004a 42F00C02 		orr	r2, r2, #12
 682 004e 1FFA82F8 		uxth	r8, r2
 683              	.LBB59:
 684              	.LBB52:
 685              		.loc 1 164 0
 686 0052 0028     		cmp	r0, #0
 687              		.loc 1 170 0
 688 0054 E268     		ldr	r2, [r4, #12]
 689              		.loc 1 165 0
 690 0056 14BF     		ite	ne
 691 0058 4FF48870 		movne	r0, #272
 692 005c 4FF48070 		moveq	r0, #256
 693              	.LBE52:
 694              	.LBE59:
 695              		.loc 1 222 0
 696 0060 47F04007 		orr	r7, r7, #64
 697              		.loc 1 223 0
 698 0064 46F0C106 		orr	r6, r6, #193
 699              	.LBB60:
 700              	.LBB53:
 701              		.loc 1 170 0
 702 0068 40EA0201 		orr	r1, r0, r2
 703              	.LBE53:
 704              	.LBE60:
 705              		.loc 1 222 0
 706 006c BFB2     		uxth	r7, r7
 707              	.LBB61:
 708              	.LBB54:
 709              		.loc 1 169 0
 710 006e 0120     		movs	r0, #1
 711              	.LBE54:
 712              	.LBE61:
 713              		.loc 1 218 0
 714 0070 4FF0000C 		mov	ip, #0
 715              		.loc 1 223 0
 716 0074 B6B2     		uxth	r6, r6
 717              	.LBB62:
 718              	.LBB55:
 719              		.loc 1 168 0
 720 0076 1834     		adds	r4, r4, #24
 721              	.LVL43:
 722              	.LBE55:
 723              	.LBE62:
 724              		.loc 1 218 0
 725 0078 C5F800C0 		str	ip, [r5]
 726              		.loc 1 222 0
 727 007c 2F61     		str	r7, [r5, #16]
 728              		.loc 1 223 0
 729 007e 6E61     		str	r6, [r5, #20]
 730              	.LVL44:
 731              		.loc 1 229 0
 732 0080 C5F80C80 		str	r8, [r5, #12]
 733              	.LVL45:
 734              	.LBB63:
 735              	.LBB56:
ARM GAS  /tmp/ccGa35Ej.s 			page 14


 736              		.loc 1 168 0
 737 0084 DC60     		str	r4, [r3, #12]
 738              		.loc 1 169 0
 739 0086 5860     		str	r0, [r3, #4]
 740              		.loc 1 170 0
 741 0088 1960     		str	r1, [r3]
 742              		.loc 1 171 0
 743 008a 1A68     		ldr	r2, [r3]
 744 008c 0243     		orrs	r2, r2, r0
 745 008e 1A60     		str	r2, [r3]
 746 0090 BDE8F081 		pop	{r4, r5, r6, r7, r8, pc}
 747              	.LVL46:
 748              	.L85:
 749              	.LBE56:
 750              	.LBE63:
 751              	.LBE47:
 752              	.LBE46:
 753              		.loc 1 564 0
 754 0094 2D4B     		ldr	r3, .L98+8
 755 0096 9842     		cmp	r0, r3
 756 0098 3AD0     		beq	.L95
 757              		.loc 1 636 0
 758 009a 2D4B     		ldr	r3, .L98+12
 759 009c 9842     		cmp	r0, r3
 760 009e 1DD0     		beq	.L96
 761              	.LVL47:
 762              	.L88:
 763              		.loc 1 657 0
 764 00a0 6368     		ldr	r3, [r4, #4]
 765 00a2 1B8B     		ldrh	r3, [r3, #24]
 766 00a4 03F4A053 		and	r3, r3, #5120
 767 00a8 B3F5805F 		cmp	r3, #4096
 768 00ac 11D0     		beq	.L97
 769              	.L89:
 770              		.loc 1 659 0
 771 00ae 2269     		ldr	r2, [r4, #16]
 772              		.loc 1 660 0
 773 00b0 6369     		ldr	r3, [r4, #20]
 774              		.loc 1 659 0
 775 00b2 A568     		ldr	r5, [r4, #8]
 776 00b4 1068     		ldr	r0, [r2]
 777              		.loc 1 660 0
 778 00b6 1968     		ldr	r1, [r3]
 779              		.loc 1 661 0
 780 00b8 0022     		movs	r2, #0
 781              		.loc 1 659 0
 782 00ba 2B1D     		adds	r3, r5, #4
 783 00bc 8360     		str	r3, [r0, #8]
 784              		.loc 1 660 0
 785 00be 8B60     		str	r3, [r1, #8]
 786              		.loc 1 661 0
 787 00c0 2283     		strh	r2, [r4, #24]	@ movhi
 788 00c2 A4E7     		b	.L86
 789              	.LVL48:
 790              	.L90:
 791              	.LBB65:
 792              	.LBB64:
ARM GAS  /tmp/ccGa35Ej.s 			page 15


 793              		.loc 1 211 0
 794 00c4 6368     		ldr	r3, [r4, #4]
 795 00c6 2349     		ldr	r1, .L98+16
 796 00c8 5A69     		ldr	r2, [r3, #20]
 797 00ca B1FBF2F2 		udiv	r2, r1, r2
 798 00ce AA60     		str	r2, [r5, #8]
 799 00d0 B1E7     		b	.L92
 800              	.LVL49:
 801              	.L97:
 802              	.LBE64:
 803              	.LBE65:
 804              		.loc 1 658 0
 805 00d2 E368     		ldr	r3, [r4, #12]
 806 00d4 43F42053 		orr	r3, r3, #10240
 807 00d8 E360     		str	r3, [r4, #12]
 808 00da E8E7     		b	.L89
 809              	.LVL50:
 810              	.L96:
 811              	.LBB66:
 812              		.loc 1 638 0
 813 00dc 1E4A     		ldr	r2, .L98+20
 814 00de 0069     		ldr	r0, [r0, #16]
 815              	.LVL51:
 816 00e0 0C21     		movs	r1, #12
 817 00e2 2346     		mov	r3, r4
 818 00e4 FFF7FEFF 		bl	dmaStreamAllocate
 819              	.LVL52:
 820              		.loc 1 643 0
 821 00e8 1C4A     		ldr	r2, .L98+24
 822 00ea 6069     		ldr	r0, [r4, #20]
 823 00ec 0C21     		movs	r1, #12
 824 00ee 2346     		mov	r3, r4
 825 00f0 FFF7FEFF 		bl	dmaStreamAllocate
 826              	.LVL53:
 827              		.loc 1 648 0
 828 00f4 1A4B     		ldr	r3, .L98+28
 829 00f6 5A6C     		ldr	r2, [r3, #68]
 830 00f8 42F02002 		orr	r2, r2, #32
 831 00fc 5A64     		str	r2, [r3, #68]
 832              		.loc 1 649 0
 833 00fe 4720     		movs	r0, #71
 834 0100 0C21     		movs	r1, #12
 835 0102 FFF7FEFF 		bl	nvicEnableVector
 836              	.LVL54:
 837              		.loc 1 650 0
 838 0106 E368     		ldr	r3, [r4, #12]
 839 0108 43F02063 		orr	r3, r3, #167772160
 840 010c E360     		str	r3, [r4, #12]
 841 010e C7E7     		b	.L88
 842              	.LVL55:
 843              	.L95:
 844              	.LBE66:
 845              	.LBB67:
 846              		.loc 1 566 0
 847 0110 114A     		ldr	r2, .L98+20
 848 0112 0069     		ldr	r0, [r0, #16]
 849              	.LVL56:
ARM GAS  /tmp/ccGa35Ej.s 			page 16


 850 0114 0C21     		movs	r1, #12
 851 0116 2346     		mov	r3, r4
 852 0118 FFF7FEFF 		bl	dmaStreamAllocate
 853              	.LVL57:
 854              		.loc 1 571 0
 855 011c 0F4A     		ldr	r2, .L98+24
 856 011e 6069     		ldr	r0, [r4, #20]
 857 0120 0C21     		movs	r1, #12
 858 0122 2346     		mov	r3, r4
 859 0124 FFF7FEFF 		bl	dmaStreamAllocate
 860              	.LVL58:
 861              		.loc 1 576 0
 862 0128 0D4B     		ldr	r3, .L98+28
 863 012a 1A6C     		ldr	r2, [r3, #64]
 864 012c 42F48022 		orr	r2, r2, #262144
 865 0130 1A64     		str	r2, [r3, #64]
 866              		.loc 1 577 0
 867 0132 2720     		movs	r0, #39
 868 0134 0C21     		movs	r1, #12
 869 0136 FFF7FEFF 		bl	nvicEnableVector
 870              	.LVL59:
 871              		.loc 1 578 0
 872 013a E368     		ldr	r3, [r4, #12]
 873 013c 43F00063 		orr	r3, r3, #134217728
 874 0140 E360     		str	r3, [r4, #12]
 875 0142 ADE7     		b	.L88
 876              	.L99:
 877              		.align	2
 878              	.L98:
 879 0144 00100140 		.word	1073811456
 880 0148 80DE8002 		.word	42000000
 881 014c 00000000 		.word	.LANCHOR0
 882 0150 00000000 		.word	.LANCHOR1
 883 0154 00BD0105 		.word	84000000
 884 0158 00000000 		.word	uart_lld_serve_rx_end_irq
 885 015c 00000000 		.word	uart_lld_serve_tx_end_irq
 886 0160 00380240 		.word	1073887232
 887              	.LBE67:
 888              		.cfi_endproc
 889              	.LFE266:
 890              		.size	uart_lld_start, .-uart_lld_start
 891 0164 AFF30080 		.section	.text.uart_lld_stop,"ax",%progbits
 891      AFF30080 
 891      AFF30080 
 892              		.align	2
 893              		.p2align 4,,15
 894              		.global	uart_lld_stop
 895              		.thumb
 896              		.thumb_func
 897              		.type	uart_lld_stop, %function
 898              	uart_lld_stop:
 899              	.LFB267:
 900              		.loc 1 676 0
 901              		.cfi_startproc
 902              		@ args = 0, pretend = 0, frame = 0
 903              		@ frame_needed = 0, uses_anonymous_args = 0
 904              	.LVL60:
ARM GAS  /tmp/ccGa35Ej.s 			page 17


 905              		.loc 1 678 0
 906 0000 0378     		ldrb	r3, [r0]	@ zero_extendqisi2
 907 0002 022B     		cmp	r3, #2
 908              		.loc 1 676 0
 909 0004 10B5     		push	{r4, lr}
 910              		.cfi_def_cfa_offset 8
 911              		.cfi_offset 4, -8
 912              		.cfi_offset 14, -4
 913              		.loc 1 676 0
 914 0006 0446     		mov	r4, r0
 915              		.loc 1 678 0
 916 0008 00D0     		beq	.L105
 917              	.LVL61:
 918              	.L100:
 919 000a 10BD     		pop	{r4, pc}
 920              	.LVL62:
 921              	.L105:
 922              		.loc 1 679 0
 923 000c FFF7FEFF 		bl	usart_stop
 924              	.LVL63:
 925              		.loc 1 680 0
 926 0010 2069     		ldr	r0, [r4, #16]
 927 0012 FFF7FEFF 		bl	dmaStreamRelease
 928              	.LVL64:
 929              		.loc 1 681 0
 930 0016 6069     		ldr	r0, [r4, #20]
 931 0018 FFF7FEFF 		bl	dmaStreamRelease
 932              	.LVL65:
 933              		.loc 1 700 0
 934 001c 0B4B     		ldr	r3, .L107
 935 001e 9C42     		cmp	r4, r3
 936 0020 0BD0     		beq	.L106
 937              		.loc 1 724 0
 938 0022 0B4B     		ldr	r3, .L107+4
 939 0024 9C42     		cmp	r4, r3
 940 0026 F0D1     		bne	.L100
 941              		.loc 1 725 0
 942 0028 4720     		movs	r0, #71
 943 002a FFF7FEFF 		bl	nvicDisableVector
 944              	.LVL66:
 945              		.loc 1 726 0
 946 002e 094B     		ldr	r3, .L107+8
 947 0030 5A6C     		ldr	r2, [r3, #68]
 948 0032 22F02002 		bic	r2, r2, #32
 949 0036 5A64     		str	r2, [r3, #68]
 950              		.loc 1 727 0
 951 0038 E7E7     		b	.L100
 952              	.L106:
 953              		.loc 1 701 0
 954 003a 2720     		movs	r0, #39
 955 003c FFF7FEFF 		bl	nvicDisableVector
 956              	.LVL67:
 957              		.loc 1 702 0
 958 0040 044B     		ldr	r3, .L107+8
 959 0042 1A6C     		ldr	r2, [r3, #64]
 960 0044 22F48022 		bic	r2, r2, #262144
 961 0048 1A64     		str	r2, [r3, #64]
ARM GAS  /tmp/ccGa35Ej.s 			page 18


 962              		.loc 1 703 0
 963 004a 10BD     		pop	{r4, pc}
 964              	.LVL68:
 965              	.L108:
 966              		.align	2
 967              	.L107:
 968 004c 00000000 		.word	.LANCHOR0
 969 0050 00000000 		.word	.LANCHOR1
 970 0054 00380240 		.word	1073887232
 971              		.cfi_endproc
 972              	.LFE267:
 973              		.size	uart_lld_stop, .-uart_lld_stop
 974 0058 AFF30080 		.section	.text.uart_lld_start_send,"ax",%progbits
 974      AFF30080 
 975              		.align	2
 976              		.p2align 4,,15
 977              		.global	uart_lld_start_send
 978              		.thumb
 979              		.thumb_func
 980              		.type	uart_lld_start_send, %function
 981              	uart_lld_start_send:
 982              	.LFB268:
 983              		.loc 1 744 0
 984              		.cfi_startproc
 985              		@ args = 0, pretend = 0, frame = 0
 986              		@ frame_needed = 0, uses_anonymous_args = 0
 987              		@ link register save eliminated.
 988              	.LVL69:
 989 0000 30B4     		push	{r4, r5}
 990              		.cfi_def_cfa_offset 8
 991              		.cfi_offset 4, -8
 992              		.cfi_offset 5, -4
 993              		.loc 1 747 0
 994 0002 4369     		ldr	r3, [r0, #20]
 995              		.loc 1 754 0
 996 0004 4468     		ldr	r4, [r0, #4]
 997              		.loc 1 749 0
 998 0006 C568     		ldr	r5, [r0, #12]
 999              		.loc 1 747 0
 1000 0008 1B68     		ldr	r3, [r3]
 1001              		.loc 1 754 0
 1002 000a 6468     		ldr	r4, [r4, #4]
 1003              		.loc 1 747 0
 1004 000c DA60     		str	r2, [r3, #12]
 1005              		.loc 1 749 0
 1006 000e 45F48A65 		orr	r5, r5, #1104
 1007              		.loc 1 748 0
 1008 0012 5960     		str	r1, [r3, #4]
 1009              		.loc 1 749 0
 1010 0014 1D60     		str	r5, [r3]
 1011              		.loc 1 754 0
 1012 0016 3CB1     		cbz	r4, .L110
 1013              		.loc 1 755 0
 1014 0018 8268     		ldr	r2, [r0, #8]
 1015              	.LVL70:
 1016 001a 6FF04001 		mvn	r1, #64
 1017              	.LVL71:
ARM GAS  /tmp/ccGa35Ej.s 			page 19


 1018 001e 1160     		str	r1, [r2]
 1019              		.loc 1 756 0
 1020 0020 D168     		ldr	r1, [r2, #12]
 1021 0022 41F04001 		orr	r1, r1, #64
 1022 0026 D160     		str	r1, [r2, #12]
 1023              	.L110:
 1024              		.loc 1 760 0
 1025 0028 1A68     		ldr	r2, [r3]
 1026 002a 42F00102 		orr	r2, r2, #1
 1027 002e 1A60     		str	r2, [r3]
 1028              		.loc 1 761 0
 1029 0030 30BC     		pop	{r4, r5}
 1030 0032 7047     		bx	lr
 1031              		.cfi_endproc
 1032              	.LFE268:
 1033              		.size	uart_lld_start_send, .-uart_lld_start_send
 1034 0034 AFF30080 		.section	.text.uart_lld_stop_send,"ax",%progbits
 1034      AFF30080 
 1034      AFF30080 
 1035              		.align	2
 1036              		.p2align 4,,15
 1037              		.global	uart_lld_stop_send
 1038              		.thumb
 1039              		.thumb_func
 1040              		.type	uart_lld_stop_send, %function
 1041              	uart_lld_stop_send:
 1042              	.LFB269:
 1043              		.loc 1 774 0
 1044              		.cfi_startproc
 1045              		@ args = 0, pretend = 0, frame = 0
 1046              		@ frame_needed = 0, uses_anonymous_args = 0
 1047              		@ link register save eliminated.
 1048              	.LVL72:
 1049              		.loc 1 776 0
 1050 0000 4169     		ldr	r1, [r0, #20]
 1051 0002 0A68     		ldr	r2, [r1]
 1052 0004 1368     		ldr	r3, [r2]
 1053 0006 23F01F03 		bic	r3, r3, #31
 1054 000a 1360     		str	r3, [r2]
 1055              	.L116:
 1056              		.loc 1 776 0 is_stmt 0 discriminator 1
 1057 000c 1368     		ldr	r3, [r2]
 1058 000e DB07     		lsls	r3, r3, #31
 1059 0010 FCD4     		bmi	.L116
 1060              		.loc 1 776 0 discriminator 2
 1061 0012 087A     		ldrb	r0, [r1, #8]	@ zero_extendqisi2
 1062              	.LVL73:
 1063 0014 4B68     		ldr	r3, [r1, #4]
 1064 0016 3D21     		movs	r1, #61
 1065 0018 8140     		lsls	r1, r1, r0
 1066 001a 1960     		str	r1, [r3]
 1067              		.loc 1 778 0 is_stmt 1 discriminator 2
 1068 001c 5068     		ldr	r0, [r2, #4]
 1069              		.loc 1 779 0 discriminator 2
 1070 001e 7047     		bx	lr
 1071              		.cfi_endproc
 1072              	.LFE269:
ARM GAS  /tmp/ccGa35Ej.s 			page 20


 1073              		.size	uart_lld_stop_send, .-uart_lld_stop_send
 1074              		.section	.text.uart_lld_start_receive,"ax",%progbits
 1075              		.align	2
 1076              		.p2align 4,,15
 1077              		.global	uart_lld_start_receive
 1078              		.thumb
 1079              		.thumb_func
 1080              		.type	uart_lld_start_receive, %function
 1081              	uart_lld_start_receive:
 1082              	.LFB270:
 1083              		.loc 1 792 0
 1084              		.cfi_startproc
 1085              		@ args = 0, pretend = 0, frame = 0
 1086              		@ frame_needed = 0, uses_anonymous_args = 0
 1087              		@ link register save eliminated.
 1088              	.LVL74:
 1089 0000 70B4     		push	{r4, r5, r6}
 1090              		.cfi_def_cfa_offset 12
 1091              		.cfi_offset 4, -12
 1092              		.cfi_offset 5, -8
 1093              		.cfi_offset 6, -4
 1094              		.loc 1 795 0
 1095 0002 0569     		ldr	r5, [r0, #16]
 1096 0004 2C68     		ldr	r4, [r5]
 1097 0006 2368     		ldr	r3, [r4]
 1098 0008 23F01F03 		bic	r3, r3, #31
 1099 000c 2360     		str	r3, [r4]
 1100              	.L119:
 1101              		.loc 1 795 0 is_stmt 0 discriminator 1
 1102 000e 2368     		ldr	r3, [r4]
 1103 0010 DB07     		lsls	r3, r3, #31
 1104 0012 FCD4     		bmi	.L119
 1105              		.loc 1 795 0 discriminator 2
 1106 0014 2E7A     		ldrb	r6, [r5, #8]	@ zero_extendqisi2
 1107 0016 6B68     		ldr	r3, [r5, #4]
 1108 0018 3D25     		movs	r5, #61
 1109 001a B540     		lsls	r5, r5, r6
 1110 001c 1D60     		str	r5, [r3]
 1111              		.loc 1 800 0 is_stmt 1 discriminator 2
 1112 001e C368     		ldr	r3, [r0, #12]
 1113              		.loc 1 798 0 discriminator 2
 1114 0020 E260     		str	r2, [r4, #12]
 1115              		.loc 1 800 0 discriminator 2
 1116 0022 43F48263 		orr	r3, r3, #1040
 1117              		.loc 1 799 0 discriminator 2
 1118 0026 6160     		str	r1, [r4, #4]
 1119              		.loc 1 800 0 discriminator 2
 1120 0028 2360     		str	r3, [r4]
 1121              		.loc 1 804 0 discriminator 2
 1122 002a 2368     		ldr	r3, [r4]
 1123 002c 43F00103 		orr	r3, r3, #1
 1124 0030 2360     		str	r3, [r4]
 1125              		.loc 1 805 0 discriminator 2
 1126 0032 70BC     		pop	{r4, r5, r6}
 1127 0034 7047     		bx	lr
 1128              		.cfi_endproc
 1129              	.LFE270:
ARM GAS  /tmp/ccGa35Ej.s 			page 21


 1130              		.size	uart_lld_start_receive, .-uart_lld_start_receive
 1131 0036 00BFAFF3 		.section	.text.uart_lld_stop_receive,"ax",%progbits
 1131      0080AFF3 
 1131      0080
 1132              		.align	2
 1133              		.p2align 4,,15
 1134              		.global	uart_lld_stop_receive
 1135              		.thumb
 1136              		.thumb_func
 1137              		.type	uart_lld_stop_receive, %function
 1138              	uart_lld_stop_receive:
 1139              	.LFB271:
 1140              		.loc 1 818 0
 1141              		.cfi_startproc
 1142              		@ args = 0, pretend = 0, frame = 0
 1143              		@ frame_needed = 0, uses_anonymous_args = 0
 1144              		@ link register save eliminated.
 1145              	.LVL75:
 1146 0000 0146     		mov	r1, r0
 1147              		.loc 1 821 0
 1148 0002 0069     		ldr	r0, [r0, #16]
 1149              	.LVL76:
 1150 0004 0268     		ldr	r2, [r0]
 1151 0006 1368     		ldr	r3, [r2]
 1152 0008 23F01F03 		bic	r3, r3, #31
 1153              		.loc 1 818 0
 1154 000c 30B4     		push	{r4, r5}
 1155              		.cfi_def_cfa_offset 8
 1156              		.cfi_offset 4, -8
 1157              		.cfi_offset 5, -4
 1158              		.loc 1 821 0
 1159 000e 1360     		str	r3, [r2]
 1160              	.L122:
 1161              		.loc 1 821 0 is_stmt 0 discriminator 1
 1162 0010 1368     		ldr	r3, [r2]
 1163 0012 DB07     		lsls	r3, r3, #31
 1164 0014 FCD4     		bmi	.L122
 1165              	.LBB68:
 1166              	.LBB69:
 1167              		.loc 1 164 0 is_stmt 1 discriminator 2
 1168 0016 4B68     		ldr	r3, [r1, #4]
 1169              	.LBE69:
 1170              	.LBE68:
 1171              		.loc 1 821 0 discriminator 2
 1172 0018 057A     		ldrb	r5, [r0, #8]	@ zero_extendqisi2
 1173              	.LBB73:
 1174              	.LBB70:
 1175              		.loc 1 164 0 discriminator 2
 1176 001a DC68     		ldr	r4, [r3, #12]
 1177              	.LBE70:
 1178              	.LBE73:
 1179              		.loc 1 821 0 discriminator 2
 1180 001c 4068     		ldr	r0, [r0, #4]
 1181 001e 3D23     		movs	r3, #61
 1182 0020 AB40     		lsls	r3, r3, r5
 1183 0022 0360     		str	r3, [r0]
 1184              	.LBB74:
ARM GAS  /tmp/ccGa35Ej.s 			page 22


 1185              	.LBB71:
 1186              		.loc 1 170 0 discriminator 2
 1187 0024 CB68     		ldr	r3, [r1, #12]
 1188              	.LBE71:
 1189              	.LBE74:
 1190              		.loc 1 822 0 discriminator 2
 1191 0026 5068     		ldr	r0, [r2, #4]
 1192              	.LVL77:
 1193              	.LBB75:
 1194              	.LBB72:
 1195              		.loc 1 165 0 discriminator 2
 1196 0028 002C     		cmp	r4, #0
 1197 002a 14BF     		ite	ne
 1198 002c 4FF48874 		movne	r4, #272
 1199 0030 4FF48074 		moveq	r4, #256
 1200              	.LVL78:
 1201              		.loc 1 170 0 discriminator 2
 1202 0034 2343     		orrs	r3, r3, r4
 1203              		.loc 1 168 0 discriminator 2
 1204 0036 1831     		adds	r1, r1, #24
 1205              	.LVL79:
 1206              		.loc 1 169 0 discriminator 2
 1207 0038 0124     		movs	r4, #1
 1208              	.LVL80:
 1209              		.loc 1 168 0 discriminator 2
 1210 003a D160     		str	r1, [r2, #12]
 1211              		.loc 1 169 0 discriminator 2
 1212 003c 5460     		str	r4, [r2, #4]
 1213              		.loc 1 170 0 discriminator 2
 1214 003e 1360     		str	r3, [r2]
 1215              		.loc 1 171 0 discriminator 2
 1216 0040 1368     		ldr	r3, [r2]
 1217 0042 2343     		orrs	r3, r3, r4
 1218 0044 1360     		str	r3, [r2]
 1219              	.LBE72:
 1220              	.LBE75:
 1221              		.loc 1 826 0 discriminator 2
 1222 0046 30BC     		pop	{r4, r5}
 1223 0048 7047     		bx	lr
 1224              		.cfi_endproc
 1225              	.LFE271:
 1226              		.size	uart_lld_stop_receive, .-uart_lld_stop_receive
 1227              		.global	UARTD6
 1228              		.global	UARTD3
 1229 004a 00BFAFF3 		.section	.rodata.str1.4,"aMS",%progbits,1
 1229      0080
 1230              		.align	2
 1231              	.LC0:
 1232 0000 444D4120 		.ascii	"DMA failure\000"
 1232      6661696C 
 1232      75726500 
 1233              		.section	.bss.UARTD3,"aw",%nobits
 1234              		.align	2
 1235              		.set	.LANCHOR0,. + 0
 1236              		.type	UARTD3, %object
 1237              		.size	UARTD3, 28
 1238              	UARTD3:
ARM GAS  /tmp/ccGa35Ej.s 			page 23


 1239 0000 00000000 		.space	28
 1239      00000000 
 1239      00000000 
 1239      00000000 
 1239      00000000 
 1240              		.section	.bss.UARTD6,"aw",%nobits
 1241              		.align	2
 1242              		.set	.LANCHOR1,. + 0
 1243              		.type	UARTD6, %object
 1244              		.size	UARTD6, 28
 1245              	UARTD6:
 1246 0000 00000000 		.space	28
 1246      00000000 
 1246      00000000 
 1246      00000000 
 1246      00000000 
 1247              		.text
 1248              	.Letext0:
 1249              		.file 3 "/usr/lib/gcc/arm-none-eabi/4.8/include/stddef.h"
 1250              		.file 4 "/usr/include/newlib/machine/_default_types.h"
 1251              		.file 5 "/usr/include/newlib/stdint.h"
 1252              		.file 6 "ChibiOS_3.0.2/os/rt/ports/ARMCMx/compilers/GCC/chtypes.h"
 1253              		.file 7 "ChibiOS_3.0.2/os/rt/include/chsystypes.h"
 1254              		.file 8 "ChibiOS_3.0.2/os/rt/include/chschd.h"
 1255              		.file 9 "ChibiOS_3.0.2/os/ext/CMSIS/ST/stm32f407xx.h"
 1256              		.file 10 "ChibiOS_3.0.2/os/rt/ports/ARMCMx/chcore.h"
 1257              		.file 11 "ChibiOS_3.0.2/os/rt/ports/ARMCMx/chcore_v7m.h"
 1258              		.file 12 "ChibiOS_3.0.2/os/rt/include/chtm.h"
 1259              		.file 13 "ChibiOS_3.0.2/os/rt/include/chsem.h"
 1260              		.file 14 "ChibiOS_3.0.2/os/rt/include/chmtx.h"
 1261              		.file 15 "ChibiOS_3.0.2/os/hal/ports/STM32/STM32F4xx/stm32_dma.h"
 1262              		.file 16 "ChibiOS_3.0.2/os/hal/include/uart.h"
 1263              		.file 17 "ChibiOS_3.0.2/os/hal/ports/STM32/LLD/USARTv1/uart_lld.h"
 1264              		.file 18 "ChibiOS_3.0.2/os/ext/CMSIS/include/core_cm4.h"
 1265              		.file 19 "ChibiOS_3.0.2/os/rt/include/chsys.h"
 1266              		.file 20 "ChibiOS_3.0.2/os/hal/ports/common/ARMCMx/nvic.h"