ARM GAS  /tmp/ccgqwmVH.s 			page 1


   1              		.syntax unified
   2              		.cpu cortex-m4
   3              		.eabi_attribute 27, 3
   4              		.eabi_attribute 28, 1
   5              		.fpu fpv4-sp-d16
   6              		.eabi_attribute 20, 1
   7              		.eabi_attribute 21, 1
   8              		.eabi_attribute 23, 3
   9              		.eabi_attribute 24, 1
  10              		.eabi_attribute 25, 1
  11              		.eabi_attribute 26, 1
  12              		.eabi_attribute 30, 2
  13              		.eabi_attribute 34, 1
  14              		.eabi_attribute 18, 4
  15              		.thumb
  16              		.file	"uart.c"
  17              		.text
  18              	.Ltext0:
  19              		.cfi_sections	.debug_frame
  20              		.section	.text.uartInit,"ax",%progbits
  21              		.align	2
  22              		.p2align 4,,15
  23              		.global	uartInit
  24              		.thumb
  25              		.thumb_func
  26              		.type	uartInit, %function
  27              	uartInit:
  28              	.LFB256:
  29              		.file 1 "ChibiOS_3.0.2/os/hal/src/uart.c"
  30              		.loc 1 56 0
  31              		.cfi_startproc
  32              		@ args = 0, pretend = 0, frame = 0
  33              		@ frame_needed = 0, uses_anonymous_args = 0
  34              		@ link register save eliminated.
  35              		.loc 1 58 0
  36 0000 FFF7FEBF 		b	uart_lld_init
  37              	.LVL0:
  38              		.cfi_endproc
  39              	.LFE256:
  40              		.size	uartInit, .-uartInit
  41 0004 AFF30080 		.section	.text.uartObjectInit,"ax",%progbits
  41      AFF30080 
  41      AFF30080 
  42              		.align	2
  43              		.p2align 4,,15
  44              		.global	uartObjectInit
  45              		.thumb
  46              		.thumb_func
  47              		.type	uartObjectInit, %function
  48              	uartObjectInit:
  49              	.LFB257:
  50              		.loc 1 68 0
  51              		.cfi_startproc
  52              		@ args = 0, pretend = 0, frame = 0
  53              		@ frame_needed = 0, uses_anonymous_args = 0
  54              		@ link register save eliminated.
  55              	.LVL1:
ARM GAS  /tmp/ccgqwmVH.s 			page 2


  56              		.loc 1 71 0
  57 0000 0023     		movs	r3, #0
  58              		.loc 1 70 0
  59 0002 0122     		movs	r2, #1
  60 0004 0270     		strb	r2, [r0]
  61              		.loc 1 71 0
  62 0006 4370     		strb	r3, [r0, #1]
  63              		.loc 1 72 0
  64 0008 8370     		strb	r3, [r0, #2]
  65              		.loc 1 73 0
  66 000a 4360     		str	r3, [r0, #4]
  67 000c 7047     		bx	lr
  68              		.cfi_endproc
  69              	.LFE257:
  70              		.size	uartObjectInit, .-uartObjectInit
  71 000e 00BF     		.section	.text.uartStart,"ax",%progbits
  72              		.align	2
  73              		.p2align 4,,15
  74              		.global	uartStart
  75              		.thumb
  76              		.thumb_func
  77              		.type	uartStart, %function
  78              	uartStart:
  79              	.LFB258:
  80              		.loc 1 88 0
  81              		.cfi_startproc
  82              		@ args = 0, pretend = 0, frame = 0
  83              		@ frame_needed = 0, uses_anonymous_args = 0
  84              	.LVL2:
  85 0000 10B5     		push	{r4, lr}
  86              		.cfi_def_cfa_offset 8
  87              		.cfi_offset 4, -8
  88              		.cfi_offset 14, -4
  89              	.LBB102:
  90              	.LBB103:
  91              	.LBB104:
  92              	.LBB105:
  93              	.LBB106:
  94              		.file 2 "ChibiOS_3.0.2/os/ext/CMSIS/include/core_cmFunc.h"
  95              		.loc 2 546 0
  96 0002 2023     		movs	r3, #32
  97              	.LBE106:
  98              	.LBE105:
  99              	.LBE104:
 100              	.LBE103:
 101              	.LBE102:
 102              		.loc 1 88 0
 103 0004 0446     		mov	r4, r0
 104              	.LBB111:
 105              	.LBB110:
 106              	.LBB109:
 107              	.LBB108:
 108              	.LBB107:
 109              		.loc 2 546 0
 110              	@ 546 "ChibiOS_3.0.2/os/ext/CMSIS/include/core_cmFunc.h" 1
 111 0006 83F31188 		MSR basepri, r3
 112              	@ 0 "" 2
ARM GAS  /tmp/ccgqwmVH.s 			page 3


 113              		.thumb
 114              	.LBE107:
 115              	.LBE108:
 116              	.LBE109:
 117              	.LBE110:
 118              	.LBE111:
 119              		.loc 1 96 0
 120 000a 4160     		str	r1, [r0, #4]
 121              		.loc 1 97 0
 122 000c FFF7FEFF 		bl	uart_lld_start
 123              	.LVL3:
 124              		.loc 1 98 0
 125 0010 0223     		movs	r3, #2
 126 0012 2370     		strb	r3, [r4]
 127              	.LVL4:
 128              	.LBB112:
 129              	.LBB113:
 130              	.LBB114:
 131              	.LBB115:
 132              	.LBB116:
 133              	.LBB117:
 134              		.loc 2 546 0
 135 0014 0023     		movs	r3, #0
 136              	@ 546 "ChibiOS_3.0.2/os/ext/CMSIS/include/core_cmFunc.h" 1
 137 0016 83F31188 		MSR basepri, r3
 138              	@ 0 "" 2
 139              		.thumb
 140 001a 10BD     		pop	{r4, pc}
 141              	.LBE117:
 142              	.LBE116:
 143              	.LBE115:
 144              	.LBE114:
 145              	.LBE113:
 146              	.LBE112:
 147              		.cfi_endproc
 148              	.LFE258:
 149              		.size	uartStart, .-uartStart
 150 001c AFF30080 		.section	.text.uartStop,"ax",%progbits
 151              		.align	2
 152              		.p2align 4,,15
 153              		.global	uartStop
 154              		.thumb
 155              		.thumb_func
 156              		.type	uartStop, %function
 157              	uartStop:
 158              	.LFB259:
 159              		.loc 1 109 0
 160              		.cfi_startproc
 161              		@ args = 0, pretend = 0, frame = 0
 162              		@ frame_needed = 0, uses_anonymous_args = 0
 163              	.LVL5:
 164 0000 10B5     		push	{r4, lr}
 165              		.cfi_def_cfa_offset 8
 166              		.cfi_offset 4, -8
 167              		.cfi_offset 14, -4
 168              	.LBB118:
 169              	.LBB119:
ARM GAS  /tmp/ccgqwmVH.s 			page 4


 170              	.LBB120:
 171              	.LBB121:
 172              	.LBB122:
 173              		.loc 2 546 0
 174 0002 2023     		movs	r3, #32
 175              	.LBE122:
 176              	.LBE121:
 177              	.LBE120:
 178              	.LBE119:
 179              	.LBE118:
 180              		.loc 1 109 0
 181 0004 0446     		mov	r4, r0
 182              	.LBB127:
 183              	.LBB126:
 184              	.LBB125:
 185              	.LBB124:
 186              	.LBB123:
 187              		.loc 2 546 0
 188              	@ 546 "ChibiOS_3.0.2/os/ext/CMSIS/include/core_cmFunc.h" 1
 189 0006 83F31188 		MSR basepri, r3
 190              	@ 0 "" 2
 191              		.thumb
 192              	.LBE123:
 193              	.LBE124:
 194              	.LBE125:
 195              	.LBE126:
 196              	.LBE127:
 197              		.loc 1 117 0
 198 000a FFF7FEFF 		bl	uart_lld_stop
 199              	.LVL6:
 200              		.loc 1 119 0
 201 000e 0023     		movs	r3, #0
 202              		.loc 1 118 0
 203 0010 0122     		movs	r2, #1
 204 0012 2270     		strb	r2, [r4]
 205              		.loc 1 119 0
 206 0014 6370     		strb	r3, [r4, #1]
 207              		.loc 1 120 0
 208 0016 A370     		strb	r3, [r4, #2]
 209              	.LVL7:
 210              	.LBB128:
 211              	.LBB129:
 212              	.LBB130:
 213              	.LBB131:
 214              	.LBB132:
 215              	.LBB133:
 216              		.loc 2 546 0
 217              	@ 546 "ChibiOS_3.0.2/os/ext/CMSIS/include/core_cmFunc.h" 1
 218 0018 83F31188 		MSR basepri, r3
 219              	@ 0 "" 2
 220              		.thumb
 221 001c 10BD     		pop	{r4, pc}
 222              	.LBE133:
 223              	.LBE132:
 224              	.LBE131:
 225              	.LBE130:
 226              	.LBE129:
ARM GAS  /tmp/ccgqwmVH.s 			page 5


 227              	.LBE128:
 228              		.cfi_endproc
 229              	.LFE259:
 230              		.size	uartStop, .-uartStop
 231 001e 00BF     		.section	.text.uartStartSend,"ax",%progbits
 232              		.align	2
 233              		.p2align 4,,15
 234              		.global	uartStartSend
 235              		.thumb
 236              		.thumb_func
 237              		.type	uartStartSend, %function
 238              	uartStartSend:
 239              	.LFB260:
 240              		.loc 1 135 0
 241              		.cfi_startproc
 242              		@ args = 0, pretend = 0, frame = 0
 243              		@ frame_needed = 0, uses_anonymous_args = 0
 244              	.LVL8:
 245 0000 10B5     		push	{r4, lr}
 246              		.cfi_def_cfa_offset 8
 247              		.cfi_offset 4, -8
 248              		.cfi_offset 14, -4
 249              	.LBB134:
 250              	.LBB135:
 251              	.LBB136:
 252              	.LBB137:
 253              	.LBB138:
 254              		.loc 2 546 0
 255 0002 2023     		movs	r3, #32
 256              	.LBE138:
 257              	.LBE137:
 258              	.LBE136:
 259              	.LBE135:
 260              	.LBE134:
 261              		.loc 1 135 0
 262 0004 0446     		mov	r4, r0
 263              	.LBB143:
 264              	.LBB142:
 265              	.LBB141:
 266              	.LBB140:
 267              	.LBB139:
 268              		.loc 2 546 0
 269              	@ 546 "ChibiOS_3.0.2/os/ext/CMSIS/include/core_cmFunc.h" 1
 270 0006 83F31188 		MSR basepri, r3
 271              	@ 0 "" 2
 272              		.thumb
 273              	.LBE139:
 274              	.LBE140:
 275              	.LBE141:
 276              	.LBE142:
 277              	.LBE143:
 278              		.loc 1 143 0
 279 000a FFF7FEFF 		bl	uart_lld_start_send
 280              	.LVL9:
 281              		.loc 1 144 0
 282 000e 0123     		movs	r3, #1
 283 0010 6370     		strb	r3, [r4, #1]
ARM GAS  /tmp/ccgqwmVH.s 			page 6


 284              	.LVL10:
 285              	.LBB144:
 286              	.LBB145:
 287              	.LBB146:
 288              	.LBB147:
 289              	.LBB148:
 290              	.LBB149:
 291              		.loc 2 546 0
 292 0012 0023     		movs	r3, #0
 293              	@ 546 "ChibiOS_3.0.2/os/ext/CMSIS/include/core_cmFunc.h" 1
 294 0014 83F31188 		MSR basepri, r3
 295              	@ 0 "" 2
 296              		.thumb
 297 0018 10BD     		pop	{r4, pc}
 298              	.LBE149:
 299              	.LBE148:
 300              	.LBE147:
 301              	.LBE146:
 302              	.LBE145:
 303              	.LBE144:
 304              		.cfi_endproc
 305              	.LFE260:
 306              		.size	uartStartSend, .-uartStartSend
 307 001a 00BFAFF3 		.section	.text.uartStartSendI,"ax",%progbits
 307      0080
 308              		.align	2
 309              		.p2align 4,,15
 310              		.global	uartStartSendI
 311              		.thumb
 312              		.thumb_func
 313              		.type	uartStartSendI, %function
 314              	uartStartSendI:
 315              	.LFB261:
 316              		.loc 1 160 0
 317              		.cfi_startproc
 318              		@ args = 0, pretend = 0, frame = 0
 319              		@ frame_needed = 0, uses_anonymous_args = 0
 320              	.LVL11:
 321 0000 10B5     		push	{r4, lr}
 322              		.cfi_def_cfa_offset 8
 323              		.cfi_offset 4, -8
 324              		.cfi_offset 14, -4
 325              		.loc 1 160 0
 326 0002 0446     		mov	r4, r0
 327              		.loc 1 167 0
 328 0004 FFF7FEFF 		bl	uart_lld_start_send
 329              	.LVL12:
 330              		.loc 1 168 0
 331 0008 0123     		movs	r3, #1
 332 000a 6370     		strb	r3, [r4, #1]
 333 000c 10BD     		pop	{r4, pc}
 334              		.cfi_endproc
 335              	.LFE261:
 336              		.size	uartStartSendI, .-uartStartSendI
 337 000e 00BF     		.section	.text.uartStopSend,"ax",%progbits
 338              		.align	2
 339              		.p2align 4,,15
ARM GAS  /tmp/ccgqwmVH.s 			page 7


 340              		.global	uartStopSend
 341              		.thumb
 342              		.thumb_func
 343              		.type	uartStopSend, %function
 344              	uartStopSend:
 345              	.LFB262:
 346              		.loc 1 183 0
 347              		.cfi_startproc
 348              		@ args = 0, pretend = 0, frame = 0
 349              		@ frame_needed = 0, uses_anonymous_args = 0
 350              	.LVL13:
 351 0000 10B5     		push	{r4, lr}
 352              		.cfi_def_cfa_offset 8
 353              		.cfi_offset 4, -8
 354              		.cfi_offset 14, -4
 355              	.LBB150:
 356              	.LBB151:
 357              	.LBB152:
 358              	.LBB153:
 359              	.LBB154:
 360              		.loc 2 546 0
 361 0002 2023     		movs	r3, #32
 362              	.LBE154:
 363              	.LBE153:
 364              	.LBE152:
 365              	.LBE151:
 366              	.LBE150:
 367              		.loc 1 183 0
 368 0004 0446     		mov	r4, r0
 369              	.LBB159:
 370              	.LBB158:
 371              	.LBB157:
 372              	.LBB156:
 373              	.LBB155:
 374              		.loc 2 546 0
 375              	@ 546 "ChibiOS_3.0.2/os/ext/CMSIS/include/core_cmFunc.h" 1
 376 0006 83F31188 		MSR basepri, r3
 377              	@ 0 "" 2
 378              		.thumb
 379              	.LBE155:
 380              	.LBE156:
 381              	.LBE157:
 382              	.LBE158:
 383              	.LBE159:
 384              		.loc 1 191 0
 385 000a 4378     		ldrb	r3, [r0, #1]	@ zero_extendqisi2
 386 000c 012B     		cmp	r3, #1
 387 000e 04D0     		beq	.L11
 388              		.loc 1 196 0
 389 0010 0020     		movs	r0, #0
 390              	.LVL14:
 391              	.LBB160:
 392              	.LBB161:
 393              	.LBB162:
 394              	.LBB163:
 395              	.LBB164:
 396              	.LBB165:
ARM GAS  /tmp/ccgqwmVH.s 			page 8


 397              		.loc 2 546 0
 398 0012 0023     		movs	r3, #0
 399              	@ 546 "ChibiOS_3.0.2/os/ext/CMSIS/include/core_cmFunc.h" 1
 400 0014 83F31188 		MSR basepri, r3
 401              	@ 0 "" 2
 402              		.thumb
 403              	.LBE165:
 404              	.LBE164:
 405              	.LBE163:
 406              	.LBE162:
 407              	.LBE161:
 408              	.LBE160:
 409              		.loc 1 201 0
 410 0018 10BD     		pop	{r4, pc}
 411              	.LVL15:
 412              	.L11:
 413              		.loc 1 192 0
 414 001a FFF7FEFF 		bl	uart_lld_stop_send
 415              	.LVL16:
 416              		.loc 1 193 0
 417 001e 0023     		movs	r3, #0
 418 0020 6370     		strb	r3, [r4, #1]
 419              	.LVL17:
 420              	.LBB171:
 421              	.LBB170:
 422              	.LBB169:
 423              	.LBB168:
 424              	.LBB167:
 425              	.LBB166:
 426              		.loc 2 546 0
 427 0022 0023     		movs	r3, #0
 428              	@ 546 "ChibiOS_3.0.2/os/ext/CMSIS/include/core_cmFunc.h" 1
 429 0024 83F31188 		MSR basepri, r3
 430              	@ 0 "" 2
 431              		.thumb
 432              	.LBE166:
 433              	.LBE167:
 434              	.LBE168:
 435              	.LBE169:
 436              	.LBE170:
 437              	.LBE171:
 438              		.loc 1 201 0
 439 0028 10BD     		pop	{r4, pc}
 440              		.cfi_endproc
 441              	.LFE262:
 442              		.size	uartStopSend, .-uartStopSend
 443 002a 00BFAFF3 		.section	.text.uartStopSendI,"ax",%progbits
 443      0080
 444              		.align	2
 445              		.p2align 4,,15
 446              		.global	uartStopSendI
 447              		.thumb
 448              		.thumb_func
 449              		.type	uartStopSendI, %function
 450              	uartStopSendI:
 451              	.LFB263:
 452              		.loc 1 216 0
ARM GAS  /tmp/ccgqwmVH.s 			page 9


 453              		.cfi_startproc
 454              		@ args = 0, pretend = 0, frame = 0
 455              		@ frame_needed = 0, uses_anonymous_args = 0
 456              	.LVL18:
 457              		.loc 1 222 0
 458 0000 4378     		ldrb	r3, [r0, #1]	@ zero_extendqisi2
 459 0002 012B     		cmp	r3, #1
 460              		.loc 1 216 0
 461 0004 10B5     		push	{r4, lr}
 462              		.cfi_def_cfa_offset 8
 463              		.cfi_offset 4, -8
 464              		.cfi_offset 14, -4
 465              		.loc 1 216 0
 466 0006 0446     		mov	r4, r0
 467              		.loc 1 222 0
 468 0008 01D0     		beq	.L15
 469              		.loc 1 227 0
 470 000a 0020     		movs	r0, #0
 471              	.LVL19:
 472              		.loc 1 228 0
 473 000c 10BD     		pop	{r4, pc}
 474              	.LVL20:
 475              	.L15:
 476              	.LBB172:
 477              		.loc 1 223 0
 478 000e FFF7FEFF 		bl	uart_lld_stop_send
 479              	.LVL21:
 480              		.loc 1 224 0
 481 0012 0023     		movs	r3, #0
 482 0014 6370     		strb	r3, [r4, #1]
 483              		.loc 1 225 0
 484 0016 10BD     		pop	{r4, pc}
 485              	.LBE172:
 486              		.cfi_endproc
 487              	.LFE263:
 488              		.size	uartStopSendI, .-uartStopSendI
 489 0018 AFF30080 		.section	.text.uartStartReceive,"ax",%progbits
 489      AFF30080 
 490              		.align	2
 491              		.p2align 4,,15
 492              		.global	uartStartReceive
 493              		.thumb
 494              		.thumb_func
 495              		.type	uartStartReceive, %function
 496              	uartStartReceive:
 497              	.LFB264:
 498              		.loc 1 241 0
 499              		.cfi_startproc
 500              		@ args = 0, pretend = 0, frame = 0
 501              		@ frame_needed = 0, uses_anonymous_args = 0
 502              	.LVL22:
 503 0000 10B5     		push	{r4, lr}
 504              		.cfi_def_cfa_offset 8
 505              		.cfi_offset 4, -8
 506              		.cfi_offset 14, -4
 507              	.LBB173:
 508              	.LBB174:
ARM GAS  /tmp/ccgqwmVH.s 			page 10


 509              	.LBB175:
 510              	.LBB176:
 511              	.LBB177:
 512              		.loc 2 546 0
 513 0002 2023     		movs	r3, #32
 514              	.LBE177:
 515              	.LBE176:
 516              	.LBE175:
 517              	.LBE174:
 518              	.LBE173:
 519              		.loc 1 241 0
 520 0004 0446     		mov	r4, r0
 521              	.LBB182:
 522              	.LBB181:
 523              	.LBB180:
 524              	.LBB179:
 525              	.LBB178:
 526              		.loc 2 546 0
 527              	@ 546 "ChibiOS_3.0.2/os/ext/CMSIS/include/core_cmFunc.h" 1
 528 0006 83F31188 		MSR basepri, r3
 529              	@ 0 "" 2
 530              		.thumb
 531              	.LBE178:
 532              	.LBE179:
 533              	.LBE180:
 534              	.LBE181:
 535              	.LBE182:
 536              		.loc 1 249 0
 537 000a FFF7FEFF 		bl	uart_lld_start_receive
 538              	.LVL23:
 539              		.loc 1 250 0
 540 000e 0123     		movs	r3, #1
 541 0010 A370     		strb	r3, [r4, #2]
 542              	.LVL24:
 543              	.LBB183:
 544              	.LBB184:
 545              	.LBB185:
 546              	.LBB186:
 547              	.LBB187:
 548              	.LBB188:
 549              		.loc 2 546 0
 550 0012 0023     		movs	r3, #0
 551              	@ 546 "ChibiOS_3.0.2/os/ext/CMSIS/include/core_cmFunc.h" 1
 552 0014 83F31188 		MSR basepri, r3
 553              	@ 0 "" 2
 554              		.thumb
 555 0018 10BD     		pop	{r4, pc}
 556              	.LBE188:
 557              	.LBE187:
 558              	.LBE186:
 559              	.LBE185:
 560              	.LBE184:
 561              	.LBE183:
 562              		.cfi_endproc
 563              	.LFE264:
 564              		.size	uartStartReceive, .-uartStartReceive
 565 001a 00BFAFF3 		.section	.text.uartStartReceiveI,"ax",%progbits
ARM GAS  /tmp/ccgqwmVH.s 			page 11


 565      0080
 566              		.align	2
 567              		.p2align 4,,15
 568              		.global	uartStartReceiveI
 569              		.thumb
 570              		.thumb_func
 571              		.type	uartStartReceiveI, %function
 572              	uartStartReceiveI:
 573              	.LFB265:
 574              		.loc 1 266 0
 575              		.cfi_startproc
 576              		@ args = 0, pretend = 0, frame = 0
 577              		@ frame_needed = 0, uses_anonymous_args = 0
 578              	.LVL25:
 579 0000 10B5     		push	{r4, lr}
 580              		.cfi_def_cfa_offset 8
 581              		.cfi_offset 4, -8
 582              		.cfi_offset 14, -4
 583              		.loc 1 266 0
 584 0002 0446     		mov	r4, r0
 585              		.loc 1 273 0
 586 0004 FFF7FEFF 		bl	uart_lld_start_receive
 587              	.LVL26:
 588              		.loc 1 274 0
 589 0008 0123     		movs	r3, #1
 590 000a A370     		strb	r3, [r4, #2]
 591 000c 10BD     		pop	{r4, pc}
 592              		.cfi_endproc
 593              	.LFE265:
 594              		.size	uartStartReceiveI, .-uartStartReceiveI
 595 000e 00BF     		.section	.text.uartStopReceive,"ax",%progbits
 596              		.align	2
 597              		.p2align 4,,15
 598              		.global	uartStopReceive
 599              		.thumb
 600              		.thumb_func
 601              		.type	uartStopReceive, %function
 602              	uartStopReceive:
 603              	.LFB266:
 604              		.loc 1 289 0
 605              		.cfi_startproc
 606              		@ args = 0, pretend = 0, frame = 0
 607              		@ frame_needed = 0, uses_anonymous_args = 0
 608              	.LVL27:
 609 0000 10B5     		push	{r4, lr}
 610              		.cfi_def_cfa_offset 8
 611              		.cfi_offset 4, -8
 612              		.cfi_offset 14, -4
 613              	.LBB189:
 614              	.LBB190:
 615              	.LBB191:
 616              	.LBB192:
 617              	.LBB193:
 618              		.loc 2 546 0
 619 0002 2023     		movs	r3, #32
 620              	.LBE193:
 621              	.LBE192:
ARM GAS  /tmp/ccgqwmVH.s 			page 12


 622              	.LBE191:
 623              	.LBE190:
 624              	.LBE189:
 625              		.loc 1 289 0
 626 0004 0446     		mov	r4, r0
 627              	.LBB198:
 628              	.LBB197:
 629              	.LBB196:
 630              	.LBB195:
 631              	.LBB194:
 632              		.loc 2 546 0
 633              	@ 546 "ChibiOS_3.0.2/os/ext/CMSIS/include/core_cmFunc.h" 1
 634 0006 83F31188 		MSR basepri, r3
 635              	@ 0 "" 2
 636              		.thumb
 637              	.LBE194:
 638              	.LBE195:
 639              	.LBE196:
 640              	.LBE197:
 641              	.LBE198:
 642              		.loc 1 297 0
 643 000a 8378     		ldrb	r3, [r0, #2]	@ zero_extendqisi2
 644 000c 012B     		cmp	r3, #1
 645 000e 04D0     		beq	.L21
 646              		.loc 1 302 0
 647 0010 0020     		movs	r0, #0
 648              	.LVL28:
 649              	.LBB199:
 650              	.LBB200:
 651              	.LBB201:
 652              	.LBB202:
 653              	.LBB203:
 654              	.LBB204:
 655              		.loc 2 546 0
 656 0012 0023     		movs	r3, #0
 657              	@ 546 "ChibiOS_3.0.2/os/ext/CMSIS/include/core_cmFunc.h" 1
 658 0014 83F31188 		MSR basepri, r3
 659              	@ 0 "" 2
 660              		.thumb
 661              	.LBE204:
 662              	.LBE203:
 663              	.LBE202:
 664              	.LBE201:
 665              	.LBE200:
 666              	.LBE199:
 667              		.loc 1 307 0
 668 0018 10BD     		pop	{r4, pc}
 669              	.LVL29:
 670              	.L21:
 671              		.loc 1 298 0
 672 001a FFF7FEFF 		bl	uart_lld_stop_receive
 673              	.LVL30:
 674              		.loc 1 299 0
 675 001e 0023     		movs	r3, #0
 676 0020 A370     		strb	r3, [r4, #2]
 677              	.LVL31:
 678              	.LBB210:
ARM GAS  /tmp/ccgqwmVH.s 			page 13


 679              	.LBB209:
 680              	.LBB208:
 681              	.LBB207:
 682              	.LBB206:
 683              	.LBB205:
 684              		.loc 2 546 0
 685 0022 0023     		movs	r3, #0
 686              	@ 546 "ChibiOS_3.0.2/os/ext/CMSIS/include/core_cmFunc.h" 1
 687 0024 83F31188 		MSR basepri, r3
 688              	@ 0 "" 2
 689              		.thumb
 690              	.LBE205:
 691              	.LBE206:
 692              	.LBE207:
 693              	.LBE208:
 694              	.LBE209:
 695              	.LBE210:
 696              		.loc 1 307 0
 697 0028 10BD     		pop	{r4, pc}
 698              		.cfi_endproc
 699              	.LFE266:
 700              		.size	uartStopReceive, .-uartStopReceive
 701 002a 00BFAFF3 		.section	.text.uartStopReceiveI,"ax",%progbits
 701      0080
 702              		.align	2
 703              		.p2align 4,,15
 704              		.global	uartStopReceiveI
 705              		.thumb
 706              		.thumb_func
 707              		.type	uartStopReceiveI, %function
 708              	uartStopReceiveI:
 709              	.LFB267:
 710              		.loc 1 322 0
 711              		.cfi_startproc
 712              		@ args = 0, pretend = 0, frame = 0
 713              		@ frame_needed = 0, uses_anonymous_args = 0
 714              	.LVL32:
 715              		.loc 1 328 0
 716 0000 8378     		ldrb	r3, [r0, #2]	@ zero_extendqisi2
 717 0002 012B     		cmp	r3, #1
 718              		.loc 1 322 0
 719 0004 10B5     		push	{r4, lr}
 720              		.cfi_def_cfa_offset 8
 721              		.cfi_offset 4, -8
 722              		.cfi_offset 14, -4
 723              		.loc 1 322 0
 724 0006 0446     		mov	r4, r0
 725              		.loc 1 328 0
 726 0008 01D0     		beq	.L25
 727              		.loc 1 333 0
 728 000a 0020     		movs	r0, #0
 729              	.LVL33:
 730              		.loc 1 334 0
 731 000c 10BD     		pop	{r4, pc}
 732              	.LVL34:
 733              	.L25:
 734              	.LBB211:
ARM GAS  /tmp/ccgqwmVH.s 			page 14


 735              		.loc 1 329 0
 736 000e FFF7FEFF 		bl	uart_lld_stop_receive
 737              	.LVL35:
 738              		.loc 1 330 0
 739 0012 0023     		movs	r3, #0
 740 0014 A370     		strb	r3, [r4, #2]
 741              		.loc 1 331 0
 742 0016 10BD     		pop	{r4, pc}
 743              	.LBE211:
 744              		.cfi_endproc
 745              	.LFE267:
 746              		.size	uartStopReceiveI, .-uartStopReceiveI
 747 0018 AFF30080 		.text
 747      AFF30080 
 748              	.Letext0:
 749              		.file 3 "/usr/lib/gcc/arm-none-eabi/4.8/include/stddef.h"
 750              		.file 4 "/usr/include/newlib/machine/_default_types.h"
 751              		.file 5 "/usr/include/newlib/stdint.h"
 752              		.file 6 "ChibiOS_3.0.2/os/rt/ports/ARMCMx/compilers/GCC/chtypes.h"
 753              		.file 7 "ChibiOS_3.0.2/os/rt/include/chsystypes.h"
 754              		.file 8 "ChibiOS_3.0.2/os/rt/include/chschd.h"
 755              		.file 9 "ChibiOS_3.0.2/os/ext/CMSIS/ST/stm32f407xx.h"
 756              		.file 10 "ChibiOS_3.0.2/os/rt/ports/ARMCMx/chcore.h"
 757              		.file 11 "ChibiOS_3.0.2/os/rt/ports/ARMCMx/chcore_v7m.h"
 758              		.file 12 "ChibiOS_3.0.2/os/rt/include/chtm.h"
 759              		.file 13 "ChibiOS_3.0.2/os/rt/include/chsem.h"
 760              		.file 14 "ChibiOS_3.0.2/os/rt/include/chmtx.h"
 761              		.file 15 "ChibiOS_3.0.2/os/hal/ports/STM32/STM32F4xx/stm32_dma.h"
 762              		.file 16 "ChibiOS_3.0.2/os/hal/include/uart.h"
 763              		.file 17 "ChibiOS_3.0.2/os/hal/ports/STM32/LLD/USARTv1/uart_lld.h"
 764              		.file 18 "ChibiOS_3.0.2/os/rt/include/chsys.h"
 765              		.file 19 "ChibiOS_3.0.2/os/hal/osal/rt/osal.h"
 766              		.file 20 "ChibiOS_3.0.2/os/ext/CMSIS/include/core_cm4.h"