ARM GAS  /tmp/ccua4LHO.s 			page 1


   1              		.syntax unified
   2              		.cpu cortex-m4
   3              		.eabi_attribute 27, 3
   4              		.eabi_attribute 28, 1
   5              		.fpu fpv4-sp-d16
   6              		.eabi_attribute 20, 1
   7              		.eabi_attribute 21, 1
   8              		.eabi_attribute 23, 3
   9              		.eabi_attribute 24, 1
  10              		.eabi_attribute 25, 1
  11              		.eabi_attribute 26, 1
  12              		.eabi_attribute 30, 2
  13              		.eabi_attribute 34, 1
  14              		.eabi_attribute 18, 4
  15              		.thumb
  16              		.file	"usb.c"
  17              		.text
  18              	.Ltext0:
  19              		.cfi_sections	.debug_frame
  20              		.section	.text.usbInit,"ax",%progbits
  21              		.align	2
  22              		.p2align 4,,15
  23              		.global	usbInit
  24              		.thumb
  25              		.thumb_func
  26              		.type	usbInit, %function
  27              	usbInit:
  28              	.LFB259:
  29              		.file 1 "ChibiOS_3.0.2/os/hal/src/usb.c"
  30              		.loc 1 254 0
  31              		.cfi_startproc
  32              		@ args = 0, pretend = 0, frame = 0
  33              		@ frame_needed = 0, uses_anonymous_args = 0
  34              		@ link register save eliminated.
  35              		.loc 1 256 0
  36 0000 FFF7FEBF 		b	usb_lld_init
  37              	.LVL0:
  38              		.cfi_endproc
  39              	.LFE259:
  40              		.size	usbInit, .-usbInit
  41 0004 AFF30080 		.section	.text.usbObjectInit,"ax",%progbits
  41      AFF30080 
  41      AFF30080 
  42              		.align	2
  43              		.p2align 4,,15
  44              		.global	usbObjectInit
  45              		.thumb
  46              		.thumb_func
  47              		.type	usbObjectInit, %function
  48              	usbObjectInit:
  49              	.LFB260:
  50              		.loc 1 266 0
  51              		.cfi_startproc
  52              		@ args = 0, pretend = 0, frame = 0
  53              		@ frame_needed = 0, uses_anonymous_args = 0
  54              		@ link register save eliminated.
  55              	.LVL1:
ARM GAS  /tmp/ccua4LHO.s 			page 2


  56              		.loc 1 270 0
  57 0000 0023     		movs	r3, #0
  58              		.loc 1 269 0
  59 0002 0122     		movs	r2, #1
  60 0004 0270     		strb	r2, [r0]
  61              		.loc 1 270 0
  62 0006 4360     		str	r3, [r0, #4]
  63              	.LVL2:
  64              		.loc 1 272 0
  65 0008 C361     		str	r3, [r0, #28]
  66              		.loc 1 273 0
  67 000a 8362     		str	r3, [r0, #40]
  68              	.LVL3:
  69              		.loc 1 272 0
  70 000c 0362     		str	r3, [r0, #32]
  71              		.loc 1 273 0
  72 000e C362     		str	r3, [r0, #44]
  73              	.LVL4:
  74              		.loc 1 272 0
  75 0010 4362     		str	r3, [r0, #36]
  76              		.loc 1 273 0
  77 0012 0363     		str	r3, [r0, #48]
  78              	.LVL5:
  79              		.loc 1 275 0
  80 0014 0381     		strh	r3, [r0, #8]	@ movhi
  81              		.loc 1 276 0
  82 0016 4381     		strh	r3, [r0, #10]	@ movhi
  83 0018 7047     		bx	lr
  84              		.cfi_endproc
  85              	.LFE260:
  86              		.size	usbObjectInit, .-usbObjectInit
  87 001a 00BFAFF3 		.section	.text.usbStart,"ax",%progbits
  87      0080
  88              		.align	2
  89              		.p2align 4,,15
  90              		.global	usbStart
  91              		.thumb
  92              		.thumb_func
  93              		.type	usbStart, %function
  94              	usbStart:
  95              	.LFB261:
  96              		.loc 1 287 0
  97              		.cfi_startproc
  98              		@ args = 0, pretend = 0, frame = 0
  99              		@ frame_needed = 0, uses_anonymous_args = 0
 100              	.LVL6:
 101 0000 38B5     		push	{r3, r4, r5, lr}
 102              		.cfi_def_cfa_offset 16
 103              		.cfi_offset 3, -16
 104              		.cfi_offset 4, -12
 105              		.cfi_offset 5, -8
 106              		.cfi_offset 14, -4
 107              		.loc 1 287 0
 108 0002 0446     		mov	r4, r0
 109              	.LBB198:
 110              	.LBB199:
 111              	.LBB200:
ARM GAS  /tmp/ccua4LHO.s 			page 3


 112              	.LBB201:
 113              	.LBB202:
 114              		.file 2 "ChibiOS_3.0.2/os/ext/CMSIS/include/core_cmFunc.h"
 115              		.loc 2 546 0
 116 0004 2023     		movs	r3, #32
 117              	@ 546 "ChibiOS_3.0.2/os/ext/CMSIS/include/core_cmFunc.h" 1
 118 0006 83F31188 		MSR basepri, r3
 119              	@ 0 "" 2
 120              		.thumb
 121              	.LBE202:
 122              	.LBE201:
 123              	.LBE200:
 124              	.LBE199:
 125              	.LBE198:
 126              		.loc 1 297 0
 127 000a 0025     		movs	r5, #0
 128              		.loc 1 295 0
 129 000c 4160     		str	r1, [r0, #4]
 130              	.LVL7:
 131              		.loc 1 297 0
 132 000e C560     		str	r5, [r0, #12]
 133              	.LVL8:
 134 0010 0561     		str	r5, [r0, #16]
 135              	.LVL9:
 136 0012 4561     		str	r5, [r0, #20]
 137              	.LVL10:
 138 0014 8561     		str	r5, [r0, #24]
 139              	.LVL11:
 140              		.loc 1 299 0
 141 0016 FFF7FEFF 		bl	usb_lld_start
 142              	.LVL12:
 143              		.loc 1 300 0
 144 001a 0223     		movs	r3, #2
 145 001c 2370     		strb	r3, [r4]
 146              	.LVL13:
 147              	.LBB203:
 148              	.LBB204:
 149              	.LBB205:
 150              	.LBB206:
 151              	.LBB207:
 152              	.LBB208:
 153              		.loc 2 546 0
 154              	@ 546 "ChibiOS_3.0.2/os/ext/CMSIS/include/core_cmFunc.h" 1
 155 001e 85F31188 		MSR basepri, r5
 156              	@ 0 "" 2
 157              		.thumb
 158 0022 38BD     		pop	{r3, r4, r5, pc}
 159              	.LBE208:
 160              	.LBE207:
 161              	.LBE206:
 162              	.LBE205:
 163              	.LBE204:
 164              	.LBE203:
 165              		.cfi_endproc
 166              	.LFE261:
 167              		.size	usbStart, .-usbStart
 168 0024 AFF30080 		.section	.text.usbStop,"ax",%progbits
ARM GAS  /tmp/ccua4LHO.s 			page 4


 168      AFF30080 
 168      AFF30080 
 169              		.align	2
 170              		.p2align 4,,15
 171              		.global	usbStop
 172              		.thumb
 173              		.thumb_func
 174              		.type	usbStop, %function
 175              	usbStop:
 176              	.LFB262:
 177              		.loc 1 311 0
 178              		.cfi_startproc
 179              		@ args = 0, pretend = 0, frame = 0
 180              		@ frame_needed = 0, uses_anonymous_args = 0
 181              	.LVL14:
 182 0000 10B5     		push	{r4, lr}
 183              		.cfi_def_cfa_offset 8
 184              		.cfi_offset 4, -8
 185              		.cfi_offset 14, -4
 186              	.LBB209:
 187              	.LBB210:
 188              	.LBB211:
 189              	.LBB212:
 190              	.LBB213:
 191              		.loc 2 546 0
 192 0002 2023     		movs	r3, #32
 193              	.LBE213:
 194              	.LBE212:
 195              	.LBE211:
 196              	.LBE210:
 197              	.LBE209:
 198              		.loc 1 311 0
 199 0004 0446     		mov	r4, r0
 200              	.LBB218:
 201              	.LBB217:
 202              	.LBB216:
 203              	.LBB215:
 204              	.LBB214:
 205              		.loc 2 546 0
 206              	@ 546 "ChibiOS_3.0.2/os/ext/CMSIS/include/core_cmFunc.h" 1
 207 0006 83F31188 		MSR basepri, r3
 208              	@ 0 "" 2
 209              		.thumb
 210              	.LBE214:
 211              	.LBE215:
 212              	.LBE216:
 213              	.LBE217:
 214              	.LBE218:
 215              		.loc 1 319 0
 216 000a FFF7FEFF 		bl	usb_lld_stop
 217              	.LVL15:
 218              		.loc 1 320 0
 219 000e 0123     		movs	r3, #1
 220 0010 2370     		strb	r3, [r4]
 221              	.LVL16:
 222              	.LBB219:
 223              	.LBB220:
ARM GAS  /tmp/ccua4LHO.s 			page 5


 224              	.LBB221:
 225              	.LBB222:
 226              	.LBB223:
 227              	.LBB224:
 228              		.loc 2 546 0
 229 0012 0023     		movs	r3, #0
 230              	@ 546 "ChibiOS_3.0.2/os/ext/CMSIS/include/core_cmFunc.h" 1
 231 0014 83F31188 		MSR basepri, r3
 232              	@ 0 "" 2
 233              		.thumb
 234 0018 10BD     		pop	{r4, pc}
 235              	.LBE224:
 236              	.LBE223:
 237              	.LBE222:
 238              	.LBE221:
 239              	.LBE220:
 240              	.LBE219:
 241              		.cfi_endproc
 242              	.LFE262:
 243              		.size	usbStop, .-usbStop
 244 001a 00BFAFF3 		.section	.text.usbInitEndpointI,"ax",%progbits
 244      0080
 245              		.align	2
 246              		.p2align 4,,15
 247              		.global	usbInitEndpointI
 248              		.thumb
 249              		.thumb_func
 250              		.type	usbInitEndpointI, %function
 251              	usbInitEndpointI:
 252              	.LFB263:
 253              		.loc 1 338 0
 254              		.cfi_startproc
 255              		@ args = 0, pretend = 0, frame = 0
 256              		@ frame_needed = 0, uses_anonymous_args = 0
 257              	.LVL17:
 258 0000 70B5     		push	{r4, r5, r6, lr}
 259              		.cfi_def_cfa_offset 16
 260              		.cfi_offset 4, -16
 261              		.cfi_offset 5, -12
 262              		.cfi_offset 6, -8
 263              		.cfi_offset 14, -4
 264              		.loc 1 338 0
 265 0002 0646     		mov	r6, r0
 266              		.loc 1 347 0
 267 0004 5069     		ldr	r0, [r2, #20]
 268              	.LVL18:
 269              		.loc 1 338 0
 270 0006 1446     		mov	r4, r2
 271 0008 0D46     		mov	r5, r1
 272              		.loc 1 347 0
 273 000a 18B1     		cbz	r0, .L6
 274              		.loc 1 348 0
 275 000c 0021     		movs	r1, #0
 276              	.LVL19:
 277 000e 1422     		movs	r2, #20
 278              	.LVL20:
 279 0010 FFF7FEFF 		bl	memset
ARM GAS  /tmp/ccua4LHO.s 			page 6


 280              	.LVL21:
 281              	.L6:
 282              		.loc 1 350 0
 283 0014 A069     		ldr	r0, [r4, #24]
 284 0016 18B1     		cbz	r0, .L7
 285              		.loc 1 351 0
 286 0018 0021     		movs	r1, #0
 287 001a 1422     		movs	r2, #20
 288 001c FFF7FEFF 		bl	memset
 289              	.LVL22:
 290              	.L7:
 291              		.loc 1 354 0
 292 0020 06EB8503 		add	r3, r6, r5, lsl #2
 293              		.loc 1 357 0
 294 0024 3046     		mov	r0, r6
 295              		.loc 1 354 0
 296 0026 DC60     		str	r4, [r3, #12]
 297              		.loc 1 357 0
 298 0028 2946     		mov	r1, r5
 299              		.loc 1 358 0
 300 002a BDE87040 		pop	{r4, r5, r6, lr}
 301              	.LVL23:
 302              		.loc 1 357 0
 303 002e FFF7FEBF 		b	usb_lld_init_endpoint
 304              	.LVL24:
 305              		.cfi_endproc
 306              	.LFE263:
 307              		.size	usbInitEndpointI, .-usbInitEndpointI
 308 0032 00BFAFF3 		.section	.text.usbDisableEndpointsI,"ax",%progbits
 308      0080AFF3 
 308      0080AFF3 
 308      0080
 309              		.align	2
 310              		.p2align 4,,15
 311              		.global	usbDisableEndpointsI
 312              		.thumb
 313              		.thumb_func
 314              		.type	usbDisableEndpointsI, %function
 315              	usbDisableEndpointsI:
 316              	.LFB264:
 317              		.loc 1 371 0
 318              		.cfi_startproc
 319              		@ args = 0, pretend = 0, frame = 0
 320              		@ frame_needed = 0, uses_anonymous_args = 0
 321              		@ link register save eliminated.
 322              	.LVL25:
 323 0000 10B4     		push	{r4}
 324              		.cfi_def_cfa_offset 4
 325              		.cfi_offset 4, -4
 326              		.loc 1 379 0
 327 0002 4189     		ldrh	r1, [r0, #10]
 328              		.loc 1 378 0
 329 0004 0489     		ldrh	r4, [r0, #8]
 330              		.loc 1 381 0
 331 0006 0022     		movs	r2, #0
 332              		.loc 1 378 0
 333 0008 24F00104 		bic	r4, r4, #1
ARM GAS  /tmp/ccua4LHO.s 			page 7


 334              		.loc 1 379 0
 335 000c 21F00101 		bic	r1, r1, #1
 336              		.loc 1 378 0
 337 0010 0481     		strh	r4, [r0, #8]	@ movhi
 338              		.loc 1 381 0
 339 0012 0261     		str	r2, [r0, #16]
 340              		.loc 1 379 0
 341 0014 4181     		strh	r1, [r0, #10]	@ movhi
 342              	.LVL26:
 343              		.loc 1 381 0
 344 0016 4261     		str	r2, [r0, #20]
 345              	.LVL27:
 346 0018 8261     		str	r2, [r0, #24]
 347              	.LVL28:
 348              		.loc 1 386 0
 349 001a 5DF8044B 		ldr	r4, [sp], #4
 350              		.loc 1 385 0
 351 001e FFF7FEBF 		b	usb_lld_disable_endpoints
 352              	.LVL29:
 353              		.cfi_endproc
 354              	.LFE264:
 355              		.size	usbDisableEndpointsI, .-usbDisableEndpointsI
 356 0022 00BFAFF3 		.section	.text.usbPrepareReceive,"ax",%progbits
 356      0080AFF3 
 356      0080AFF3 
 356      0080
 357              		.align	2
 358              		.p2align 4,,15
 359              		.global	usbPrepareReceive
 360              		.thumb
 361              		.thumb_func
 362              		.type	usbPrepareReceive, %function
 363              	usbPrepareReceive:
 364              	.LFB265:
 365              		.loc 1 400 0
 366              		.cfi_startproc
 367              		@ args = 0, pretend = 0, frame = 0
 368              		@ frame_needed = 0, uses_anonymous_args = 0
 369              		@ link register save eliminated.
 370              	.LVL30:
 371 0000 30B4     		push	{r4, r5}
 372              		.cfi_def_cfa_offset 8
 373              		.cfi_offset 4, -8
 374              		.cfi_offset 5, -4
 375              		.loc 1 401 0
 376 0002 00EB8104 		add	r4, r0, r1, lsl #2
 377              		.loc 1 403 0
 378 0006 0025     		movs	r5, #0
 379              		.loc 1 401 0
 380 0008 E468     		ldr	r4, [r4, #12]
 381 000a A469     		ldr	r4, [r4, #24]
 382              	.LVL31:
 383              		.loc 1 404 0
 384 000c E260     		str	r2, [r4, #12]
 385              		.loc 1 405 0
 386 000e 6360     		str	r3, [r4, #4]
 387              		.loc 1 403 0
ARM GAS  /tmp/ccua4LHO.s 			page 8


 388 0010 2570     		strb	r5, [r4]
 389              		.loc 1 406 0
 390 0012 A560     		str	r5, [r4, #8]
 391              		.loc 1 409 0
 392 0014 30BC     		pop	{r4, r5}
 393              	.LVL32:
 394              		.loc 1 408 0
 395 0016 FFF7FEBF 		b	usb_lld_prepare_receive
 396              	.LVL33:
 397              		.cfi_endproc
 398              	.LFE265:
 399              		.size	usbPrepareReceive, .-usbPrepareReceive
 400 001a 00BFAFF3 		.section	.text.usbPrepareTransmit,"ax",%progbits
 400      0080
 401              		.align	2
 402              		.p2align 4,,15
 403              		.global	usbPrepareTransmit
 404              		.thumb
 405              		.thumb_func
 406              		.type	usbPrepareTransmit, %function
 407              	usbPrepareTransmit:
 408              	.LFB266:
 409              		.loc 1 426 0
 410              		.cfi_startproc
 411              		@ args = 0, pretend = 0, frame = 0
 412              		@ frame_needed = 0, uses_anonymous_args = 0
 413              		@ link register save eliminated.
 414              	.LVL34:
 415 0000 30B4     		push	{r4, r5}
 416              		.cfi_def_cfa_offset 8
 417              		.cfi_offset 4, -8
 418              		.cfi_offset 5, -4
 419              		.loc 1 427 0
 420 0002 00EB8104 		add	r4, r0, r1, lsl #2
 421              		.loc 1 429 0
 422 0006 0025     		movs	r5, #0
 423              		.loc 1 427 0
 424 0008 E468     		ldr	r4, [r4, #12]
 425 000a 6469     		ldr	r4, [r4, #20]
 426              	.LVL35:
 427              		.loc 1 430 0
 428 000c E260     		str	r2, [r4, #12]
 429              		.loc 1 431 0
 430 000e 6360     		str	r3, [r4, #4]
 431              		.loc 1 429 0
 432 0010 2570     		strb	r5, [r4]
 433              		.loc 1 432 0
 434 0012 A560     		str	r5, [r4, #8]
 435              		.loc 1 435 0
 436 0014 30BC     		pop	{r4, r5}
 437              	.LVL36:
 438              		.loc 1 434 0
 439 0016 FFF7FEBF 		b	usb_lld_prepare_transmit
 440              	.LVL37:
 441              		.cfi_endproc
 442              	.LFE266:
 443              		.size	usbPrepareTransmit, .-usbPrepareTransmit
ARM GAS  /tmp/ccua4LHO.s 			page 9


 444 001a 00BFAFF3 		.section	.text.usbPrepareQueuedReceive,"ax",%progbits
 444      0080
 445              		.align	2
 446              		.p2align 4,,15
 447              		.global	usbPrepareQueuedReceive
 448              		.thumb
 449              		.thumb_func
 450              		.type	usbPrepareQueuedReceive, %function
 451              	usbPrepareQueuedReceive:
 452              	.LFB267:
 453              		.loc 1 455 0
 454              		.cfi_startproc
 455              		@ args = 0, pretend = 0, frame = 0
 456              		@ frame_needed = 0, uses_anonymous_args = 0
 457              		@ link register save eliminated.
 458              	.LVL38:
 459 0000 70B4     		push	{r4, r5, r6}
 460              		.cfi_def_cfa_offset 12
 461              		.cfi_offset 4, -12
 462              		.cfi_offset 5, -8
 463              		.cfi_offset 6, -4
 464              		.loc 1 456 0
 465 0002 00EB8104 		add	r4, r0, r1, lsl #2
 466              		.loc 1 458 0
 467 0006 0126     		movs	r6, #1
 468              		.loc 1 456 0
 469 0008 E468     		ldr	r4, [r4, #12]
 470 000a A469     		ldr	r4, [r4, #24]
 471              	.LVL39:
 472              		.loc 1 461 0
 473 000c 0025     		movs	r5, #0
 474              		.loc 1 459 0
 475 000e E260     		str	r2, [r4, #12]
 476              		.loc 1 460 0
 477 0010 6360     		str	r3, [r4, #4]
 478              		.loc 1 458 0
 479 0012 2670     		strb	r6, [r4]
 480              		.loc 1 461 0
 481 0014 A560     		str	r5, [r4, #8]
 482              		.loc 1 464 0
 483 0016 70BC     		pop	{r4, r5, r6}
 484              	.LVL40:
 485              		.loc 1 463 0
 486 0018 FFF7FEBF 		b	usb_lld_prepare_receive
 487              	.LVL41:
 488              		.cfi_endproc
 489              	.LFE267:
 490              		.size	usbPrepareQueuedReceive, .-usbPrepareQueuedReceive
 491 001c AFF30080 		.section	.text.usbPrepareQueuedTransmit,"ax",%progbits
 492              		.align	2
 493              		.p2align 4,,15
 494              		.global	usbPrepareQueuedTransmit
 495              		.thumb
 496              		.thumb_func
 497              		.type	usbPrepareQueuedTransmit, %function
 498              	usbPrepareQueuedTransmit:
 499              	.LFB268:
ARM GAS  /tmp/ccua4LHO.s 			page 10


 500              		.loc 1 481 0
 501              		.cfi_startproc
 502              		@ args = 0, pretend = 0, frame = 0
 503              		@ frame_needed = 0, uses_anonymous_args = 0
 504              		@ link register save eliminated.
 505              	.LVL42:
 506 0000 70B4     		push	{r4, r5, r6}
 507              		.cfi_def_cfa_offset 12
 508              		.cfi_offset 4, -12
 509              		.cfi_offset 5, -8
 510              		.cfi_offset 6, -4
 511              		.loc 1 482 0
 512 0002 00EB8104 		add	r4, r0, r1, lsl #2
 513              		.loc 1 484 0
 514 0006 0126     		movs	r6, #1
 515              		.loc 1 482 0
 516 0008 E468     		ldr	r4, [r4, #12]
 517 000a 6469     		ldr	r4, [r4, #20]
 518              	.LVL43:
 519              		.loc 1 487 0
 520 000c 0025     		movs	r5, #0
 521              		.loc 1 485 0
 522 000e E260     		str	r2, [r4, #12]
 523              		.loc 1 486 0
 524 0010 6360     		str	r3, [r4, #4]
 525              		.loc 1 484 0
 526 0012 2670     		strb	r6, [r4]
 527              		.loc 1 487 0
 528 0014 A560     		str	r5, [r4, #8]
 529              		.loc 1 490 0
 530 0016 70BC     		pop	{r4, r5, r6}
 531              	.LVL44:
 532              		.loc 1 489 0
 533 0018 FFF7FEBF 		b	usb_lld_prepare_transmit
 534              	.LVL45:
 535              		.cfi_endproc
 536              	.LFE268:
 537              		.size	usbPrepareQueuedTransmit, .-usbPrepareQueuedTransmit
 538 001c AFF30080 		.section	.text.usbStartReceiveI,"ax",%progbits
 539              		.align	2
 540              		.p2align 4,,15
 541              		.global	usbStartReceiveI
 542              		.thumb
 543              		.thumb_func
 544              		.type	usbStartReceiveI, %function
 545              	usbStartReceiveI:
 546              	.LFB269:
 547              		.loc 1 506 0
 548              		.cfi_startproc
 549              		@ args = 0, pretend = 0, frame = 0
 550              		@ frame_needed = 0, uses_anonymous_args = 0
 551              	.LVL46:
 552 0000 70B5     		push	{r4, r5, r6, lr}
 553              		.cfi_def_cfa_offset 16
 554              		.cfi_offset 4, -16
 555              		.cfi_offset 5, -12
 556              		.cfi_offset 6, -8
ARM GAS  /tmp/ccua4LHO.s 			page 11


 557              		.cfi_offset 14, -4
 558              		.loc 1 511 0
 559 0002 0124     		movs	r4, #1
 560 0004 04FA01F2 		lsl	r2, r4, r1
 561 0008 4389     		ldrh	r3, [r0, #10]
 562 000a 92B2     		uxth	r2, r2
 563 000c 12EA0306 		ands	r6, r2, r3
 564 0010 01D0     		beq	.L23
 565              		.loc 1 512 0
 566 0012 2046     		mov	r0, r4
 567              	.LVL47:
 568              		.loc 1 518 0
 569 0014 70BD     		pop	{r4, r5, r6, pc}
 570              	.LVL48:
 571              	.L23:
 572              		.loc 1 515 0
 573 0016 1343     		orrs	r3, r3, r2
 574 0018 4381     		strh	r3, [r0, #10]	@ movhi
 575              		.loc 1 516 0
 576 001a FFF7FEFF 		bl	usb_lld_start_out
 577              	.LVL49:
 578              		.loc 1 517 0
 579 001e 3046     		mov	r0, r6
 580 0020 70BD     		pop	{r4, r5, r6, pc}
 581              		.cfi_endproc
 582              	.LFE269:
 583              		.size	usbStartReceiveI, .-usbStartReceiveI
 584 0022 00BFAFF3 		.section	.text.usbStartTransmitI,"ax",%progbits
 584      0080AFF3 
 584      0080AFF3 
 584      0080
 585              		.align	2
 586              		.p2align 4,,15
 587              		.global	usbStartTransmitI
 588              		.thumb
 589              		.thumb_func
 590              		.type	usbStartTransmitI, %function
 591              	usbStartTransmitI:
 592              	.LFB270:
 593              		.loc 1 534 0
 594              		.cfi_startproc
 595              		@ args = 0, pretend = 0, frame = 0
 596              		@ frame_needed = 0, uses_anonymous_args = 0
 597              	.LVL50:
 598 0000 70B5     		push	{r4, r5, r6, lr}
 599              		.cfi_def_cfa_offset 16
 600              		.cfi_offset 4, -16
 601              		.cfi_offset 5, -12
 602              		.cfi_offset 6, -8
 603              		.cfi_offset 14, -4
 604              		.loc 1 539 0
 605 0002 0124     		movs	r4, #1
 606 0004 04FA01F2 		lsl	r2, r4, r1
 607 0008 0389     		ldrh	r3, [r0, #8]
 608 000a 92B2     		uxth	r2, r2
 609 000c 12EA0306 		ands	r6, r2, r3
 610 0010 01D0     		beq	.L27
ARM GAS  /tmp/ccua4LHO.s 			page 12


 611              		.loc 1 540 0
 612 0012 2046     		mov	r0, r4
 613              	.LVL51:
 614              		.loc 1 546 0
 615 0014 70BD     		pop	{r4, r5, r6, pc}
 616              	.LVL52:
 617              	.L27:
 618              		.loc 1 543 0
 619 0016 1343     		orrs	r3, r3, r2
 620 0018 0381     		strh	r3, [r0, #8]	@ movhi
 621              		.loc 1 544 0
 622 001a FFF7FEFF 		bl	usb_lld_start_in
 623              	.LVL53:
 624              		.loc 1 545 0
 625 001e 3046     		mov	r0, r6
 626 0020 70BD     		pop	{r4, r5, r6, pc}
 627              		.cfi_endproc
 628              	.LFE270:
 629              		.size	usbStartTransmitI, .-usbStartTransmitI
 630 0022 00BFAFF3 		.section	.text.usbStallReceiveI,"ax",%progbits
 630      0080AFF3 
 630      0080AFF3 
 630      0080
 631              		.align	2
 632              		.p2align 4,,15
 633              		.global	usbStallReceiveI
 634              		.thumb
 635              		.thumb_func
 636              		.type	usbStallReceiveI, %function
 637              	usbStallReceiveI:
 638              	.LFB271:
 639              		.loc 1 560 0
 640              		.cfi_startproc
 641              		@ args = 0, pretend = 0, frame = 0
 642              		@ frame_needed = 0, uses_anonymous_args = 0
 643              	.LVL54:
 644 0000 38B5     		push	{r3, r4, r5, lr}
 645              		.cfi_def_cfa_offset 16
 646              		.cfi_offset 3, -16
 647              		.cfi_offset 4, -12
 648              		.cfi_offset 5, -8
 649              		.cfi_offset 14, -4
 650              		.loc 1 565 0
 651 0002 0124     		movs	r4, #1
 652 0004 4389     		ldrh	r3, [r0, #10]
 653 0006 04FA01F2 		lsl	r2, r4, r1
 654 000a 12EA0305 		ands	r5, r2, r3
 655 000e 01D0     		beq	.L31
 656              		.loc 1 566 0
 657 0010 2046     		mov	r0, r4
 658              	.LVL55:
 659              		.loc 1 571 0
 660 0012 38BD     		pop	{r3, r4, r5, pc}
 661              	.LVL56:
 662              	.L31:
 663              		.loc 1 569 0
 664 0014 FFF7FEFF 		bl	usb_lld_stall_out
ARM GAS  /tmp/ccua4LHO.s 			page 13


 665              	.LVL57:
 666              		.loc 1 570 0
 667 0018 2846     		mov	r0, r5
 668 001a 38BD     		pop	{r3, r4, r5, pc}
 669              		.cfi_endproc
 670              	.LFE271:
 671              		.size	usbStallReceiveI, .-usbStallReceiveI
 672 001c AFF30080 		.section	.text.usbStallTransmitI,"ax",%progbits
 673              		.align	2
 674              		.p2align 4,,15
 675              		.global	usbStallTransmitI
 676              		.thumb
 677              		.thumb_func
 678              		.type	usbStallTransmitI, %function
 679              	usbStallTransmitI:
 680              	.LFB272:
 681              		.loc 1 585 0
 682              		.cfi_startproc
 683              		@ args = 0, pretend = 0, frame = 0
 684              		@ frame_needed = 0, uses_anonymous_args = 0
 685              	.LVL58:
 686 0000 38B5     		push	{r3, r4, r5, lr}
 687              		.cfi_def_cfa_offset 16
 688              		.cfi_offset 3, -16
 689              		.cfi_offset 4, -12
 690              		.cfi_offset 5, -8
 691              		.cfi_offset 14, -4
 692              		.loc 1 590 0
 693 0002 0124     		movs	r4, #1
 694 0004 0389     		ldrh	r3, [r0, #8]
 695 0006 04FA01F2 		lsl	r2, r4, r1
 696 000a 12EA0305 		ands	r5, r2, r3
 697 000e 01D0     		beq	.L35
 698              		.loc 1 591 0
 699 0010 2046     		mov	r0, r4
 700              	.LVL59:
 701              		.loc 1 596 0
 702 0012 38BD     		pop	{r3, r4, r5, pc}
 703              	.LVL60:
 704              	.L35:
 705              		.loc 1 594 0
 706 0014 FFF7FEFF 		bl	usb_lld_stall_in
 707              	.LVL61:
 708              		.loc 1 595 0
 709 0018 2846     		mov	r0, r5
 710 001a 38BD     		pop	{r3, r4, r5, pc}
 711              		.cfi_endproc
 712              	.LFE272:
 713              		.size	usbStallTransmitI, .-usbStallTransmitI
 714 001c AFF30080 		.section	.text._usb_reset,"ax",%progbits
 715              		.align	2
 716              		.p2align 4,,15
 717              		.global	_usb_reset
 718              		.thumb
 719              		.thumb_func
 720              		.type	_usb_reset, %function
 721              	_usb_reset:
ARM GAS  /tmp/ccua4LHO.s 			page 14


 722              	.LFB273:
 723              		.loc 1 607 0
 724              		.cfi_startproc
 725              		@ args = 0, pretend = 0, frame = 0
 726              		@ frame_needed = 0, uses_anonymous_args = 0
 727              		@ link register save eliminated.
 728              	.LVL62:
 729              		.loc 1 611 0
 730 0000 0022     		movs	r2, #0
 731              		.loc 1 610 0
 732 0002 0221     		movs	r1, #2
 733 0004 0170     		strb	r1, [r0]
 734              		.loc 1 611 0
 735 0006 A0F84C20 		strh	r2, [r0, #76]	@ movhi
 736              		.loc 1 612 0
 737 000a 80F84E20 		strb	r2, [r0, #78]
 738              		.loc 1 613 0
 739 000e 80F84F20 		strb	r2, [r0, #79]
 740              		.loc 1 614 0
 741 0012 0281     		strh	r2, [r0, #8]	@ movhi
 742              		.loc 1 615 0
 743 0014 4281     		strh	r2, [r0, #10]	@ movhi
 744              	.LVL63:
 745              		.loc 1 619 0
 746 0016 C260     		str	r2, [r0, #12]
 747              	.LVL64:
 748 0018 0261     		str	r2, [r0, #16]
 749              	.LVL65:
 750 001a 4261     		str	r2, [r0, #20]
 751              	.LVL66:
 752 001c 8261     		str	r2, [r0, #24]
 753              	.LVL67:
 754              		.loc 1 623 0
 755 001e 80F83420 		strb	r2, [r0, #52]
 756              		.loc 1 626 0
 757 0022 FFF7FEBF 		b	usb_lld_reset
 758              	.LVL68:
 759              		.cfi_endproc
 760              	.LFE273:
 761              		.size	_usb_reset, .-_usb_reset
 762 0026 00BFAFF3 		.section	.text._usb_ep0setup,"ax",%progbits
 762      0080AFF3 
 762      0080
 763              		.align	2
 764              		.p2align 4,,15
 765              		.global	_usb_ep0setup
 766              		.thumb
 767              		.thumb_func
 768              		.type	_usb_ep0setup, %function
 769              	_usb_ep0setup:
 770              	.LFB274:
 771              		.loc 1 639 0
 772              		.cfi_startproc
 773              		@ args = 0, pretend = 0, frame = 0
 774              		@ frame_needed = 0, uses_anonymous_args = 0
 775              	.LVL69:
 776 0000 F8B5     		push	{r3, r4, r5, r6, r7, lr}
ARM GAS  /tmp/ccua4LHO.s 			page 15


 777              		.cfi_def_cfa_offset 24
 778              		.cfi_offset 3, -24
 779              		.cfi_offset 4, -20
 780              		.cfi_offset 5, -16
 781              		.cfi_offset 6, -12
 782              		.cfi_offset 7, -8
 783              		.cfi_offset 14, -4
 784              		.loc 1 642 0
 785 0002 0023     		movs	r3, #0
 786              		.loc 1 639 0
 787 0004 0446     		mov	r4, r0
 788              		.loc 1 642 0
 789 0006 80F83430 		strb	r3, [r0, #52]
 790              		.loc 1 643 0
 791 000a 00F14402 		add	r2, r0, #68
 792 000e FFF7FEFF 		bl	usb_lld_read_setup
 793              	.LVL70:
 794              		.loc 1 648 0
 795 0012 6368     		ldr	r3, [r4, #4]
 796 0014 9B68     		ldr	r3, [r3, #8]
 797 0016 63B3     		cbz	r3, .L42
 798              		.loc 1 649 0 discriminator 1
 799 0018 2046     		mov	r0, r4
 800 001a 9847     		blx	r3
 801              	.LVL71:
 802              		.loc 1 648 0 discriminator 1
 803 001c 48B3     		cbz	r0, .L42
 804 001e E56B     		ldr	r5, [r4, #60]
 805 0020 94F84430 		ldrb	r3, [r4, #68]	@ zero_extendqisi2
 806              	.L81:
 807              	.LVL72:
 808              	.LBB289:
 809              	.LBB290:
 810              		.loc 1 55 0
 811 0024 94F84B10 		ldrb	r1, [r4, #75]	@ zero_extendqisi2
 812 0028 94F84A20 		ldrb	r2, [r4, #74]	@ zero_extendqisi2
 813              	.LBE290:
 814              	.LBE289:
 815              		.loc 1 676 0
 816 002c 42EA0122 		orr	r2, r2, r1, lsl #8
 817              	.LVL73:
 818              		.loc 1 678 0
 819 0030 AA42     		cmp	r2, r5
 820              		.loc 1 679 0
 821 0032 3CBF     		itt	cc
 822 0034 E263     		strcc	r2, [r4, #60]
 823 0036 1546     		movcc	r5, r2
 824              		.loc 1 681 0
 825 0038 13F0800F 		tst	r3, #128
 826              	.LBB291:
 827              	.LBB292:
 828              		.loc 1 427 0
 829 003c E368     		ldr	r3, [r4, #12]
 830              	.LBE292:
 831              	.LBE291:
 832              		.loc 1 681 0
 833 003e 40F08880 		bne	.L105
ARM GAS  /tmp/ccua4LHO.s 			page 16


 834              		.loc 1 707 0
 835 0042 002D     		cmp	r5, #0
 836 0044 6DD1     		bne	.L106
 837              	.LBB296:
 838              	.LBB297:
 839              		.loc 1 427 0
 840 0046 5B69     		ldr	r3, [r3, #20]
 841              	.LBE297:
 842              	.LBE296:
 843              		.loc 1 718 0
 844 0048 0522     		movs	r2, #5
 845              	.LVL74:
 846 004a 84F83420 		strb	r2, [r4, #52]
 847              	.LVL75:
 848              	.LBB299:
 849              	.LBB298:
 850              		.loc 1 434 0
 851 004e 2046     		mov	r0, r4
 852              		.loc 1 429 0
 853 0050 1D70     		strb	r5, [r3]
 854              	.LVL76:
 855              		.loc 1 430 0
 856 0052 DD60     		str	r5, [r3, #12]
 857              		.loc 1 431 0
 858 0054 5D60     		str	r5, [r3, #4]
 859              		.loc 1 432 0
 860 0056 9D60     		str	r5, [r3, #8]
 861              		.loc 1 434 0
 862 0058 2946     		mov	r1, r5
 863 005a FFF7FEFF 		bl	usb_lld_prepare_transmit
 864              	.LVL77:
 865              	.LBE298:
 866              	.LBE299:
 867              	.LBB300:
 868              	.LBB301:
 869              	.LBB302:
 870              	.LBB303:
 871              	.LBB304:
 872              	.LBB305:
 873              		.loc 2 546 0
 874 005e 2023     		movs	r3, #32
 875              	@ 546 "ChibiOS_3.0.2/os/ext/CMSIS/include/core_cmFunc.h" 1
 876 0060 83F31188 		MSR basepri, r3
 877              	@ 0 "" 2
 878              		.thumb
 879              	.LBE305:
 880              	.LBE304:
 881              	.LBE303:
 882              	.LBE302:
 883              	.LBE301:
 884              	.LBE300:
 885              		.loc 1 722 0
 886 0064 2046     		mov	r0, r4
 887 0066 2946     		mov	r1, r5
 888 0068 FFF7FEFF 		bl	usbStartTransmitI
 889              	.LVL78:
 890              	.LBB306:
ARM GAS  /tmp/ccua4LHO.s 			page 17


 891              	.LBB307:
 892              	.LBB308:
 893              	.LBB309:
 894              	.LBB310:
 895              	.LBB311:
 896              		.loc 2 546 0
 897              	@ 546 "ChibiOS_3.0.2/os/ext/CMSIS/include/core_cmFunc.h" 1
 898 006c 85F31188 		MSR basepri, r5
 899              	@ 0 "" 2
 900              		.thumb
 901 0070 F8BD     		pop	{r3, r4, r5, r6, r7, pc}
 902              	.LVL79:
 903              	.L42:
 904              	.LBE311:
 905              	.LBE310:
 906              	.LBE309:
 907              	.LBE308:
 908              	.LBE307:
 909              	.LBE306:
 910              		.loc 1 654 0
 911 0072 94F84430 		ldrb	r3, [r4, #68]	@ zero_extendqisi2
 912 0076 13F06007 		ands	r7, r3, #96
 913 007a 11D0     		beq	.L107
 914              	.L39:
 915              		.loc 1 660 0
 916 007c 2046     		mov	r0, r4
 917 007e 0021     		movs	r1, #0
 918 0080 FFF7FEFF 		bl	usb_lld_stall_in
 919              	.LVL80:
 920              		.loc 1 661 0
 921 0084 2046     		mov	r0, r4
 922 0086 0021     		movs	r1, #0
 923 0088 FFF7FEFF 		bl	usb_lld_stall_out
 924              	.LVL81:
 925              		.loc 1 662 0
 926 008c 6368     		ldr	r3, [r4, #4]
 927 008e 1B68     		ldr	r3, [r3]
 928 0090 13B1     		cbz	r3, .L75
 929              		.loc 1 662 0 is_stmt 0 discriminator 1
 930 0092 2046     		mov	r0, r4
 931 0094 0521     		movs	r1, #5
 932 0096 9847     		blx	r3
 933              	.LVL82:
 934              	.L75:
 935              		.loc 1 663 0 is_stmt 1
 936 0098 0623     		movs	r3, #6
 937 009a 84F83430 		strb	r3, [r4, #52]
 938              		.loc 1 664 0
 939 009e F8BD     		pop	{r3, r4, r5, r6, r7, pc}
 940              	.LVL83:
 941              	.L107:
 942              	.LBB312:
 943              	.LBB313:
 944              		.loc 1 90 0
 945 00a0 94F84560 		ldrb	r6, [r4, #69]	@ zero_extendqisi2
 946              		.loc 1 88 0
 947 00a4 03F07F02 		and	r2, r3, #127
ARM GAS  /tmp/ccua4LHO.s 			page 18


 948              		.loc 1 89 0
 949 00a8 42EA0626 		orr	r6, r2, r6, lsl #8
 950              		.loc 1 88 0
 951 00ac B6F5407F 		cmp	r6, #768
 952 00b0 00F00081 		beq	.L44
 953 00b4 17D9     		bls	.L108
 954 00b6 B6F5C06F 		cmp	r6, #1536
 955 00ba 00F0E280 		beq	.L52
 956 00be 77D9     		bls	.L109
 957 00c0 B6F5106F 		cmp	r6, #2304
 958 00c4 00F08780 		beq	.L56
 959 00c8 40F60242 		movw	r2, #3074
 960 00cc 9642     		cmp	r6, r2
 961 00ce 00F00481 		beq	.L49
 962 00d2 B6F5006F 		cmp	r6, #2048
 963 00d6 D1D1     		bne	.L39
 964              		.loc 1 141 0
 965 00d8 04F14F02 		add	r2, r4, #79
 966 00dc 0125     		movs	r5, #1
 967 00de 2764     		str	r7, [r4, #64]
 968 00e0 A263     		str	r2, [r4, #56]
 969 00e2 E563     		str	r5, [r4, #60]
 970 00e4 9EE7     		b	.L81
 971              	.L108:
 972              		.loc 1 88 0
 973 00e6 022E     		cmp	r6, #2
 974 00e8 00F0B480 		beq	.L46
 975 00ec 40F2A980 		bls	.L110
 976 00f0 B6F5807F 		cmp	r6, #256
 977 00f4 00F09580 		beq	.L50
 978 00f8 B6F5817F 		cmp	r6, #258
 979 00fc BED1     		bne	.L39
 980              		.loc 1 201 0
 981 00fe 94F84620 		ldrb	r2, [r4, #70]	@ zero_extendqisi2
 982 0102 002A     		cmp	r2, #0
 983 0104 BAD1     		bne	.L39
 984              		.loc 1 205 0
 985 0106 94F84820 		ldrb	r2, [r4, #72]	@ zero_extendqisi2
 986 010a 12F00F01 		ands	r1, r2, #15
 987 010e 5DD0     		beq	.L73
 988              		.loc 1 206 0
 989 0110 1206     		lsls	r2, r2, #24
 990              		.loc 1 207 0
 991 0112 2046     		mov	r0, r4
 992              		.loc 1 206 0
 993 0114 00F10981 		bmi	.L111
 994              	.LVL84:
 995              		.loc 1 210 0
 996 0118 FFF7FEFF 		bl	usb_lld_clear_out
 997              	.LVL85:
 998 011c 94F84430 		ldrb	r3, [r4, #68]	@ zero_extendqisi2
 999 0120 54E0     		b	.L73
 1000              	.LVL86:
 1001              	.L106:
 1002              	.LBE313:
 1003              	.LBE312:
 1004              	.LBB319:
ARM GAS  /tmp/ccua4LHO.s 			page 19


 1005              	.LBB320:
 1006              		.loc 1 401 0
 1007 0122 9B69     		ldr	r3, [r3, #24]
 1008              	.LBE320:
 1009              	.LBE319:
 1010              		.loc 1 710 0
 1011 0124 A26B     		ldr	r2, [r4, #56]
 1012              	.LVL87:
 1013              	.LBB323:
 1014              	.LBB321:
 1015              		.loc 1 403 0
 1016 0126 0026     		movs	r6, #0
 1017              	.LBE321:
 1018              	.LBE323:
 1019              		.loc 1 709 0
 1020 0128 0421     		movs	r1, #4
 1021              	.LVL88:
 1022 012a 84F83410 		strb	r1, [r4, #52]
 1023              	.LBB324:
 1024              	.LBB322:
 1025              		.loc 1 408 0
 1026 012e 2046     		mov	r0, r4
 1027              		.loc 1 404 0
 1028 0130 DA60     		str	r2, [r3, #12]
 1029              	.LVL89:
 1030              		.loc 1 405 0
 1031 0132 5D60     		str	r5, [r3, #4]
 1032              		.loc 1 403 0
 1033 0134 1E70     		strb	r6, [r3]
 1034              		.loc 1 406 0
 1035 0136 9E60     		str	r6, [r3, #8]
 1036              		.loc 1 408 0
 1037 0138 3146     		mov	r1, r6
 1038 013a FFF7FEFF 		bl	usb_lld_prepare_receive
 1039              	.LVL90:
 1040              	.LBE322:
 1041              	.LBE324:
 1042              	.LBB325:
 1043              	.LBB326:
 1044              	.LBB327:
 1045              	.LBB328:
 1046              	.LBB329:
 1047              	.LBB330:
 1048              		.loc 2 546 0
 1049 013e 2023     		movs	r3, #32
 1050              	@ 546 "ChibiOS_3.0.2/os/ext/CMSIS/include/core_cmFunc.h" 1
 1051 0140 83F31188 		MSR basepri, r3
 1052              	@ 0 "" 2
 1053              		.thumb
 1054              	.LBE330:
 1055              	.LBE329:
 1056              	.LBE328:
 1057              	.LBE327:
 1058              	.LBE326:
 1059              	.LBE325:
 1060              		.loc 1 712 0
 1061 0144 2046     		mov	r0, r4
ARM GAS  /tmp/ccua4LHO.s 			page 20


 1062 0146 3146     		mov	r1, r6
 1063 0148 FFF7FEFF 		bl	usbStartReceiveI
 1064              	.LVL91:
 1065              	.LBB331:
 1066              	.LBB332:
 1067              	.LBB333:
 1068              	.LBB334:
 1069              	.LBB335:
 1070              	.LBB336:
 1071              		.loc 2 546 0
 1072              	@ 546 "ChibiOS_3.0.2/os/ext/CMSIS/include/core_cmFunc.h" 1
 1073 014c 86F31188 		MSR basepri, r6
 1074              	@ 0 "" 2
 1075              		.thumb
 1076 0150 F8BD     		pop	{r3, r4, r5, r6, r7, pc}
 1077              	.LVL92:
 1078              	.L105:
 1079              	.LBE336:
 1080              	.LBE335:
 1081              	.LBE334:
 1082              	.LBE333:
 1083              	.LBE332:
 1084              	.LBE331:
 1085              		.loc 1 683 0
 1086 0152 BDB1     		cbz	r5, .L79
 1087              	.LBB337:
 1088              	.LBB293:
 1089              		.loc 1 427 0
 1090 0154 5B69     		ldr	r3, [r3, #20]
 1091              	.LBE293:
 1092              	.LBE337:
 1093              		.loc 1 686 0
 1094 0156 A26B     		ldr	r2, [r4, #56]
 1095              	.LVL93:
 1096              	.LBB338:
 1097              	.LBB294:
 1098              		.loc 1 429 0
 1099 0158 0026     		movs	r6, #0
 1100              	.LBE294:
 1101              	.LBE338:
 1102              		.loc 1 685 0
 1103 015a 0121     		movs	r1, #1
 1104              	.LVL94:
 1105 015c 84F83410 		strb	r1, [r4, #52]
 1106              	.LBB339:
 1107              	.LBB295:
 1108              		.loc 1 434 0
 1109 0160 2046     		mov	r0, r4
 1110              		.loc 1 430 0
 1111 0162 DA60     		str	r2, [r3, #12]
 1112              	.LVL95:
 1113              		.loc 1 431 0
 1114 0164 5D60     		str	r5, [r3, #4]
 1115              		.loc 1 429 0
 1116 0166 1E70     		strb	r6, [r3]
 1117              		.loc 1 432 0
 1118 0168 9E60     		str	r6, [r3, #8]
ARM GAS  /tmp/ccua4LHO.s 			page 21


 1119              		.loc 1 434 0
 1120 016a 3146     		mov	r1, r6
 1121 016c FFF7FEFF 		bl	usb_lld_prepare_transmit
 1122              	.LVL96:
 1123              	.LBE295:
 1124              	.LBE339:
 1125              	.LBB340:
 1126              	.LBB341:
 1127              	.LBB342:
 1128              	.LBB343:
 1129              	.LBB344:
 1130              	.LBB345:
 1131              		.loc 2 546 0
 1132 0170 2023     		movs	r3, #32
 1133              	@ 546 "ChibiOS_3.0.2/os/ext/CMSIS/include/core_cmFunc.h" 1
 1134 0172 83F31188 		MSR basepri, r3
 1135              	@ 0 "" 2
 1136              		.thumb
 1137              	.LBE345:
 1138              	.LBE344:
 1139              	.LBE343:
 1140              	.LBE342:
 1141              	.LBE341:
 1142              	.LBE340:
 1143              		.loc 1 688 0
 1144 0176 2046     		mov	r0, r4
 1145 0178 3146     		mov	r1, r6
 1146 017a FFF7FEFF 		bl	usbStartTransmitI
 1147              	.LVL97:
 1148              	.LBB346:
 1149              	.LBB347:
 1150              	.LBB348:
 1151              	.LBB349:
 1152              	.LBB350:
 1153              	.LBB351:
 1154              		.loc 2 546 0
 1155              	@ 546 "ChibiOS_3.0.2/os/ext/CMSIS/include/core_cmFunc.h" 1
 1156 017e 86F31188 		MSR basepri, r6
 1157              	@ 0 "" 2
 1158              		.thumb
 1159 0182 F8BD     		pop	{r3, r4, r5, r6, r7, pc}
 1160              	.LVL98:
 1161              	.L79:
 1162              	.LBE351:
 1163              	.LBE350:
 1164              	.LBE349:
 1165              	.LBE348:
 1166              	.LBE347:
 1167              	.LBE346:
 1168              	.LBB352:
 1169              	.LBB353:
 1170              		.loc 1 401 0
 1171 0184 9B69     		ldr	r3, [r3, #24]
 1172              	.LBE353:
 1173              	.LBE352:
 1174              		.loc 1 694 0
 1175 0186 0322     		movs	r2, #3
ARM GAS  /tmp/ccua4LHO.s 			page 22


 1176              	.LVL99:
 1177 0188 84F83420 		strb	r2, [r4, #52]
 1178              	.LVL100:
 1179              	.LBB355:
 1180              	.LBB354:
 1181              		.loc 1 408 0
 1182 018c 2046     		mov	r0, r4
 1183              		.loc 1 403 0
 1184 018e 1D70     		strb	r5, [r3]
 1185              	.LVL101:
 1186              		.loc 1 404 0
 1187 0190 DD60     		str	r5, [r3, #12]
 1188              		.loc 1 405 0
 1189 0192 5D60     		str	r5, [r3, #4]
 1190              		.loc 1 406 0
 1191 0194 9D60     		str	r5, [r3, #8]
 1192              		.loc 1 408 0
 1193 0196 2946     		mov	r1, r5
 1194 0198 FFF7FEFF 		bl	usb_lld_prepare_receive
 1195              	.LVL102:
 1196              	.LBE354:
 1197              	.LBE355:
 1198              	.LBB356:
 1199              	.LBB357:
 1200              	.LBB358:
 1201              	.LBB359:
 1202              	.LBB360:
 1203              	.LBB361:
 1204              		.loc 2 546 0
 1205 019c 2023     		movs	r3, #32
 1206              	@ 546 "ChibiOS_3.0.2/os/ext/CMSIS/include/core_cmFunc.h" 1
 1207 019e 83F31188 		MSR basepri, r3
 1208              	@ 0 "" 2
 1209              		.thumb
 1210              	.LBE361:
 1211              	.LBE360:
 1212              	.LBE359:
 1213              	.LBE358:
 1214              	.LBE357:
 1215              	.LBE356:
 1216              		.loc 1 698 0
 1217 01a2 2046     		mov	r0, r4
 1218 01a4 2946     		mov	r1, r5
 1219 01a6 FFF7FEFF 		bl	usbStartReceiveI
 1220              	.LVL103:
 1221              	.LBB362:
 1222              	.LBB363:
 1223              	.LBB364:
 1224              	.LBB365:
 1225              	.LBB366:
 1226              	.LBB367:
 1227              		.loc 2 546 0
 1228              	@ 546 "ChibiOS_3.0.2/os/ext/CMSIS/include/core_cmFunc.h" 1
 1229 01aa 85F31188 		MSR basepri, r5
 1230              	@ 0 "" 2
 1231              		.thumb
 1232 01ae F8BD     		pop	{r3, r4, r5, r6, r7, pc}
ARM GAS  /tmp/ccua4LHO.s 			page 23


 1233              	.LVL104:
 1234              	.L109:
 1235              	.LBE367:
 1236              	.LBE366:
 1237              	.LBE365:
 1238              	.LBE364:
 1239              	.LBE363:
 1240              	.LBE362:
 1241              	.LBB368:
 1242              	.LBB318:
 1243              		.loc 1 88 0
 1244 01b0 40F20232 		movw	r2, #770
 1245 01b4 9642     		cmp	r6, r2
 1246 01b6 21D0     		beq	.L54
 1247 01b8 B6F5A06F 		cmp	r6, #1280
 1248 01bc 7FF45EAF 		bne	.L39
 1249              		.loc 1 118 0
 1250 01c0 B4F84420 		ldrh	r2, [r4, #68]
 1251 01c4 B2F5A06F 		cmp	r2, #1280
 1252 01c8 00F09D80 		beq	.L112
 1253              	.L73:
 1254              		.loc 1 229 0
 1255 01cc 0025     		movs	r5, #0
 1256 01ce A563     		str	r5, [r4, #56]
 1257 01d0 E563     		str	r5, [r4, #60]
 1258 01d2 2564     		str	r5, [r4, #64]
 1259 01d4 26E7     		b	.L81
 1260              	.L56:
 1261              		.loc 1 145 0
 1262 01d6 94F84620 		ldrb	r2, [r4, #70]	@ zero_extendqisi2
 1263 01da 84F84F20 		strb	r2, [r4, #79]
 1264              		.loc 1 146 0
 1265 01de 002A     		cmp	r2, #0
 1266 01e0 40F08280 		bne	.L63
 1267              		.loc 1 147 0
 1268 01e4 0322     		movs	r2, #3
 1269 01e6 2270     		strb	r2, [r4]
 1270              	.L64:
 1271              		.loc 1 152 0
 1272 01e8 6268     		ldr	r2, [r4, #4]
 1273 01ea 1268     		ldr	r2, [r2]
 1274 01ec 002A     		cmp	r2, #0
 1275 01ee EDD0     		beq	.L73
 1276 01f0 2046     		mov	r0, r4
 1277 01f2 0221     		movs	r1, #2
 1278 01f4 9047     		blx	r2
 1279              	.LVL105:
 1280 01f6 94F84430 		ldrb	r3, [r4, #68]	@ zero_extendqisi2
 1281 01fa E7E7     		b	.L73
 1282              	.L54:
 1283              		.loc 1 217 0
 1284 01fc 94F84620 		ldrb	r2, [r4, #70]	@ zero_extendqisi2
 1285 0200 002A     		cmp	r2, #0
 1286 0202 7FF43BAF 		bne	.L39
 1287              		.loc 1 221 0
 1288 0206 94F84820 		ldrb	r2, [r4, #72]	@ zero_extendqisi2
 1289 020a 12F00F01 		ands	r1, r2, #15
ARM GAS  /tmp/ccua4LHO.s 			page 24


 1290 020e DDD0     		beq	.L73
 1291              		.loc 1 222 0
 1292 0210 1306     		lsls	r3, r2, #24
 1293              		.loc 1 223 0
 1294 0212 2046     		mov	r0, r4
 1295              		.loc 1 222 0
 1296 0214 00F18E80 		bmi	.L113
 1297              	.LVL106:
 1298              		.loc 1 226 0
 1299 0218 FFF7FEFF 		bl	usb_lld_stall_out
 1300              	.LVL107:
 1301 021c 94F84430 		ldrb	r3, [r4, #68]	@ zero_extendqisi2
 1302 0220 D4E7     		b	.L73
 1303              	.L50:
 1304              		.loc 1 98 0
 1305 0222 94F84620 		ldrb	r2, [r4, #70]	@ zero_extendqisi2
 1306 0226 012A     		cmp	r2, #1
 1307 0228 7FF428AF 		bne	.L39
 1308              		.loc 1 99 0
 1309 022c B4F84C20 		ldrh	r2, [r4, #76]
 1310              		.loc 1 100 0
 1311 0230 A763     		str	r7, [r4, #56]
 1312              		.loc 1 99 0
 1313 0232 22F00202 		bic	r2, r2, #2
 1314              		.loc 1 100 0
 1315 0236 E763     		str	r7, [r4, #60]
 1316 0238 2764     		str	r7, [r4, #64]
 1317 023a 3D46     		mov	r5, r7
 1318              		.loc 1 99 0
 1319 023c A4F84C20 		strh	r2, [r4, #76]	@ movhi
 1320 0240 F0E6     		b	.L81
 1321              	.L110:
 1322              		.loc 1 88 0
 1323 0242 002E     		cmp	r6, #0
 1324 0244 46D1     		bne	.L114
 1325              		.loc 1 93 0
 1326 0246 04F14C02 		add	r2, r4, #76
 1327 024a 0225     		movs	r5, #2
 1328 024c 2664     		str	r6, [r4, #64]
 1329 024e A263     		str	r2, [r4, #56]
 1330 0250 E563     		str	r5, [r4, #60]
 1331 0252 E7E6     		b	.L81
 1332              	.L46:
 1333              		.loc 1 165 0
 1334 0254 94F84810 		ldrb	r1, [r4, #72]	@ zero_extendqisi2
 1335 0258 11F0800F 		tst	r1, #128
 1336              		.loc 1 166 0
 1337 025c 2046     		mov	r0, r4
 1338 025e 01F00F01 		and	r1, r1, #15
 1339              		.loc 1 165 0
 1340 0262 44D1     		bne	.L115
 1341              	.LVL108:
 1342              		.loc 1 183 0
 1343 0264 FFF7FEFF 		bl	usb_lld_get_status_out
 1344              	.LVL109:
 1345 0268 0128     		cmp	r0, #1
 1346 026a 44D0     		beq	.L69
ARM GAS  /tmp/ccua4LHO.s 			page 25


 1347              	.L104:
 1348 026c 0228     		cmp	r0, #2
 1349 026e 7FF405AF 		bne	.L39
 1350              		.loc 1 191 0
 1351 0272 334B     		ldr	r3, .L116
 1352 0274 A363     		str	r3, [r4, #56]
 1353 0276 E063     		str	r0, [r4, #60]
 1354 0278 2764     		str	r7, [r4, #64]
 1355 027a 0546     		mov	r5, r0
 1356 027c 94F84430 		ldrb	r3, [r4, #68]	@ zero_extendqisi2
 1357 0280 D0E6     		b	.L81
 1358              	.L52:
 1359              	.LVL110:
 1360              		.loc 1 129 0
 1361 0282 6268     		ldr	r2, [r4, #4]
 1362              	.LBB314:
 1363              	.LBB315:
 1364              		.loc 1 55 0
 1365 0284 94F84900 		ldrb	r0, [r4, #73]	@ zero_extendqisi2
 1366 0288 94F84830 		ldrb	r3, [r4, #72]	@ zero_extendqisi2
 1367              	.LBE315:
 1368              	.LBE314:
 1369              		.loc 1 129 0
 1370 028c 5568     		ldr	r5, [r2, #4]
 1371 028e 94F84710 		ldrb	r1, [r4, #71]	@ zero_extendqisi2
 1372 0292 94F84620 		ldrb	r2, [r4, #70]	@ zero_extendqisi2
 1373 0296 43EA0023 		orr	r3, r3, r0, lsl #8
 1374 029a 2046     		mov	r0, r4
 1375 029c A847     		blx	r5
 1376              	.LVL111:
 1377              		.loc 1 132 0
 1378 029e 0028     		cmp	r0, #0
 1379 02a0 3FF4ECAE 		beq	.L39
 1380              		.loc 1 136 0
 1381 02a4 4368     		ldr	r3, [r0, #4]
 1382 02a6 0568     		ldr	r5, [r0]
 1383 02a8 E563     		str	r5, [r4, #60]
 1384 02aa A363     		str	r3, [r4, #56]
 1385 02ac 2764     		str	r7, [r4, #64]
 1386 02ae 94F84430 		ldrb	r3, [r4, #68]	@ zero_extendqisi2
 1387 02b2 B7E6     		b	.L81
 1388              	.LVL112:
 1389              	.L44:
 1390              		.loc 1 107 0
 1391 02b4 94F84620 		ldrb	r2, [r4, #70]	@ zero_extendqisi2
 1392 02b8 012A     		cmp	r2, #1
 1393 02ba 7FF4DFAE 		bne	.L39
 1394              		.loc 1 108 0
 1395 02be B4F84C20 		ldrh	r2, [r4, #76]
 1396              		.loc 1 109 0
 1397 02c2 A763     		str	r7, [r4, #56]
 1398              		.loc 1 108 0
 1399 02c4 42F00202 		orr	r2, r2, #2
 1400              		.loc 1 109 0
 1401 02c8 E763     		str	r7, [r4, #60]
 1402 02ca 2764     		str	r7, [r4, #64]
 1403 02cc 3D46     		mov	r5, r7
ARM GAS  /tmp/ccua4LHO.s 			page 26


 1404              		.loc 1 108 0
 1405 02ce A4F84C20 		strh	r2, [r4, #76]	@ movhi
 1406 02d2 A7E6     		b	.L81
 1407              	.L114:
 1408              		.loc 1 88 0
 1409 02d4 012E     		cmp	r6, #1
 1410 02d6 7FF4D1AE 		bne	.L39
 1411              	.L49:
 1412              		.loc 1 160 0
 1413 02da 1A4A     		ldr	r2, .L116+4
 1414 02dc A263     		str	r2, [r4, #56]
 1415 02de 0225     		movs	r5, #2
 1416 02e0 0022     		movs	r2, #0
 1417 02e2 E563     		str	r5, [r4, #60]
 1418 02e4 2264     		str	r2, [r4, #64]
 1419 02e6 9DE6     		b	.L81
 1420              	.L63:
 1421              		.loc 1 150 0
 1422 02e8 0422     		movs	r2, #4
 1423 02ea 2270     		strb	r2, [r4]
 1424 02ec 7CE7     		b	.L64
 1425              	.LVL113:
 1426              	.L115:
 1427              		.loc 1 166 0
 1428 02ee FFF7FEFF 		bl	usb_lld_get_status_in
 1429              	.LVL114:
 1430 02f2 0128     		cmp	r0, #1
 1431 02f4 BAD1     		bne	.L104
 1432              	.L69:
 1433              		.loc 1 186 0
 1434 02f6 144B     		ldr	r3, .L116+8
 1435 02f8 A363     		str	r3, [r4, #56]
 1436 02fa E663     		str	r6, [r4, #60]
 1437 02fc 2764     		str	r7, [r4, #64]
 1438 02fe 3546     		mov	r5, r6
 1439 0300 94F84430 		ldrb	r3, [r4, #68]	@ zero_extendqisi2
 1440 0304 8EE6     		b	.L81
 1441              	.L112:
 1442              	.LVL115:
 1443              	.LBB316:
 1444              	.LBB317:
 1445              		.loc 1 66 0
 1446 0306 94F84630 		ldrb	r3, [r4, #70]	@ zero_extendqisi2
 1447 030a 84F84E30 		strb	r3, [r4, #78]
 1448              		.loc 1 67 0
 1449 030e 2046     		mov	r0, r4
 1450 0310 FFF7FEFF 		bl	usb_lld_set_address
 1451              	.LVL116:
 1452              		.loc 1 68 0
 1453 0314 6368     		ldr	r3, [r4, #4]
 1454 0316 1B68     		ldr	r3, [r3]
 1455 0318 13B1     		cbz	r3, .L62
 1456 031a 2046     		mov	r0, r4
 1457 031c 0121     		movs	r1, #1
 1458 031e 9847     		blx	r3
 1459              	.LVL117:
 1460              	.L62:
ARM GAS  /tmp/ccua4LHO.s 			page 27


 1461              		.loc 1 69 0
 1462 0320 0322     		movs	r2, #3
 1463 0322 94F84430 		ldrb	r3, [r4, #68]	@ zero_extendqisi2
 1464 0326 2270     		strb	r2, [r4]
 1465 0328 50E7     		b	.L73
 1466              	.LVL118:
 1467              	.L111:
 1468              	.LBE317:
 1469              	.LBE316:
 1470              		.loc 1 207 0
 1471 032a FFF7FEFF 		bl	usb_lld_clear_in
 1472              	.LVL119:
 1473 032e 94F84430 		ldrb	r3, [r4, #68]	@ zero_extendqisi2
 1474 0332 4BE7     		b	.L73
 1475              	.LVL120:
 1476              	.L113:
 1477              		.loc 1 223 0
 1478 0334 FFF7FEFF 		bl	usb_lld_stall_in
 1479              	.LVL121:
 1480 0338 94F84430 		ldrb	r3, [r4, #68]	@ zero_extendqisi2
 1481 033c 46E7     		b	.L73
 1482              	.L117:
 1483 033e 00BF     		.align	2
 1484              	.L116:
 1485 0340 00000000 		.word	.LANCHOR2
 1486 0344 00000000 		.word	.LANCHOR0
 1487 0348 00000000 		.word	.LANCHOR1
 1488              	.LBE318:
 1489              	.LBE368:
 1490              		.cfi_endproc
 1491              	.LFE274:
 1492              		.size	_usb_ep0setup, .-_usb_ep0setup
 1493 034c AFF30080 		.section	.text._usb_ep0in,"ax",%progbits
 1494              		.align	2
 1495              		.p2align 4,,15
 1496              		.global	_usb_ep0in
 1497              		.thumb
 1498              		.thumb_func
 1499              		.type	_usb_ep0in, %function
 1500              	_usb_ep0in:
 1501              	.LFB275:
 1502              		.loc 1 741 0
 1503              		.cfi_startproc
 1504              		@ args = 0, pretend = 0, frame = 0
 1505              		@ frame_needed = 0, uses_anonymous_args = 0
 1506              	.LVL122:
 1507 0000 38B5     		push	{r3, r4, r5, lr}
 1508              		.cfi_def_cfa_offset 16
 1509              		.cfi_offset 3, -16
 1510              		.cfi_offset 4, -12
 1511              		.cfi_offset 5, -8
 1512              		.cfi_offset 14, -4
 1513              		.loc 1 745 0
 1514 0002 90F83430 		ldrb	r3, [r0, #52]	@ zero_extendqisi2
 1515              		.loc 1 741 0
 1516 0006 0446     		mov	r4, r0
 1517              		.loc 1 745 0
ARM GAS  /tmp/ccua4LHO.s 			page 28


 1518 0008 062B     		cmp	r3, #6
 1519 000a 15D8     		bhi	.L118
 1520 000c DFE803F0 		tbb	[pc, r3]
 1521              	.L121:
 1522 0010 04       		.byte	(.L120-.L121)/2
 1523 0011 34       		.byte	(.L122-.L121)/2
 1524 0012 1C       		.byte	(.L123-.L121)/2
 1525 0013 04       		.byte	(.L120-.L121)/2
 1526 0014 04       		.byte	(.L120-.L121)/2
 1527 0015 15       		.byte	(.L124-.L121)/2
 1528 0016 04       		.byte	(.L120-.L121)/2
 1529 0017 00       		.p2align 1
 1530              	.L120:
 1531              		.loc 1 790 0
 1532 0018 0021     		movs	r1, #0
 1533              	.LVL123:
 1534 001a FFF7FEFF 		bl	usb_lld_stall_in
 1535              	.LVL124:
 1536              		.loc 1 791 0
 1537 001e 2046     		mov	r0, r4
 1538 0020 0021     		movs	r1, #0
 1539 0022 FFF7FEFF 		bl	usb_lld_stall_out
 1540              	.LVL125:
 1541              		.loc 1 792 0
 1542 0026 6368     		ldr	r3, [r4, #4]
 1543 0028 1B68     		ldr	r3, [r3]
 1544 002a 13B1     		cbz	r3, .L128
 1545              		.loc 1 792 0 is_stmt 0 discriminator 1
 1546 002c 2046     		mov	r0, r4
 1547 002e 0521     		movs	r1, #5
 1548 0030 9847     		blx	r3
 1549              	.LVL126:
 1550              	.L128:
 1551              		.loc 1 793 0 is_stmt 1
 1552 0032 0623     		movs	r3, #6
 1553 0034 84F83430 		strb	r3, [r4, #52]
 1554              	.L118:
 1555 0038 38BD     		pop	{r3, r4, r5, pc}
 1556              	.LVL127:
 1557              	.L124:
 1558              		.loc 1 775 0
 1559 003a 036C     		ldr	r3, [r0, #64]
 1560 003c 03B1     		cbz	r3, .L127
 1561              		.loc 1 776 0
 1562 003e 9847     		blx	r3
 1563              	.LVL128:
 1564              	.L127:
 1565              		.loc 1 778 0
 1566 0040 0023     		movs	r3, #0
 1567 0042 84F83430 		strb	r3, [r4, #52]
 1568              		.loc 1 779 0
 1569 0046 38BD     		pop	{r3, r4, r5, pc}
 1570              	.LVL129:
 1571              	.L123:
 1572 0048 C368     		ldr	r3, [r0, #12]
 1573              	.LVL130:
 1574              	.L126:
ARM GAS  /tmp/ccua4LHO.s 			page 29


 1575              	.LBB369:
 1576              	.LBB370:
 1577              		.loc 1 401 0
 1578 004a 9B69     		ldr	r3, [r3, #24]
 1579              		.loc 1 403 0
 1580 004c 0025     		movs	r5, #0
 1581              	.LBE370:
 1582              	.LBE369:
 1583              		.loc 1 763 0
 1584 004e 0322     		movs	r2, #3
 1585 0050 84F83420 		strb	r2, [r4, #52]
 1586              	.LVL131:
 1587              	.LBB372:
 1588              	.LBB371:
 1589              		.loc 1 408 0
 1590 0054 2946     		mov	r1, r5
 1591              		.loc 1 403 0
 1592 0056 1D70     		strb	r5, [r3]
 1593              		.loc 1 404 0
 1594 0058 DD60     		str	r5, [r3, #12]
 1595              		.loc 1 405 0
 1596 005a 5D60     		str	r5, [r3, #4]
 1597              		.loc 1 406 0
 1598 005c 9D60     		str	r5, [r3, #8]
 1599              		.loc 1 408 0
 1600 005e 2046     		mov	r0, r4
 1601              	.LVL132:
 1602 0060 FFF7FEFF 		bl	usb_lld_prepare_receive
 1603              	.LVL133:
 1604              	.LBE371:
 1605              	.LBE372:
 1606              	.LBB373:
 1607              	.LBB374:
 1608              	.LBB375:
 1609              	.LBB376:
 1610              	.LBB377:
 1611              	.LBB378:
 1612              		.loc 2 546 0
 1613 0064 2023     		movs	r3, #32
 1614              	@ 546 "ChibiOS_3.0.2/os/ext/CMSIS/include/core_cmFunc.h" 1
 1615 0066 83F31188 		MSR basepri, r3
 1616              	@ 0 "" 2
 1617              		.thumb
 1618              	.LBE378:
 1619              	.LBE377:
 1620              	.LBE376:
 1621              	.LBE375:
 1622              	.LBE374:
 1623              	.LBE373:
 1624              		.loc 1 767 0
 1625 006a 2046     		mov	r0, r4
 1626 006c 2946     		mov	r1, r5
 1627 006e FFF7FEFF 		bl	usbStartReceiveI
 1628              	.LVL134:
 1629              	.LBB379:
 1630              	.LBB380:
 1631              	.LBB381:
ARM GAS  /tmp/ccua4LHO.s 			page 30


 1632              	.LBB382:
 1633              	.LBB383:
 1634              	.LBB384:
 1635              		.loc 2 546 0
 1636              	@ 546 "ChibiOS_3.0.2/os/ext/CMSIS/include/core_cmFunc.h" 1
 1637 0072 85F31188 		MSR basepri, r5
 1638              	@ 0 "" 2
 1639              		.thumb
 1640 0076 38BD     		pop	{r3, r4, r5, pc}
 1641              	.LVL135:
 1642              	.L122:
 1643              	.LBE384:
 1644              	.LBE383:
 1645              	.LBE382:
 1646              	.LBE381:
 1647              	.LBE380:
 1648              	.LBE379:
 1649              	.LBB385:
 1650              	.LBB386:
 1651              		.loc 1 55 0
 1652 0078 90F84B10 		ldrb	r1, [r0, #75]	@ zero_extendqisi2
 1653              	.LVL136:
 1654 007c 90F84A30 		ldrb	r3, [r0, #74]	@ zero_extendqisi2
 1655              	.LBE386:
 1656              	.LBE385:
 1657              		.loc 1 751 0
 1658 0080 C26B     		ldr	r2, [r0, #60]
 1659              		.loc 1 747 0
 1660 0082 43EA0123 		orr	r3, r3, r1, lsl #8
 1661              		.loc 1 751 0
 1662 0086 9342     		cmp	r3, r2
 1663              		.loc 1 752 0
 1664 0088 C368     		ldr	r3, [r0, #12]
 1665              		.loc 1 751 0
 1666 008a DED9     		bls	.L126
 1667              		.loc 1 752 0 discriminator 1
 1668 008c 198A     		ldrh	r1, [r3, #16]
 1669              	.LVL137:
 1670 008e B2FBF1F5 		udiv	r5, r2, r1
 1671 0092 01FB1525 		mls	r5, r1, r5, r2
 1672              		.loc 1 751 0 discriminator 1
 1673 0096 002D     		cmp	r5, #0
 1674 0098 D7D1     		bne	.L126
 1675              	.LVL138:
 1676              	.LBB387:
 1677              	.LBB388:
 1678              		.loc 1 427 0
 1679 009a 5B69     		ldr	r3, [r3, #20]
 1680              	.LVL139:
 1681              		.loc 1 434 0
 1682 009c 2946     		mov	r1, r5
 1683              		.loc 1 429 0
 1684 009e 1D70     		strb	r5, [r3]
 1685              	.LVL140:
 1686              		.loc 1 430 0
 1687 00a0 DD60     		str	r5, [r3, #12]
 1688              		.loc 1 431 0
ARM GAS  /tmp/ccua4LHO.s 			page 31


 1689 00a2 5D60     		str	r5, [r3, #4]
 1690              		.loc 1 432 0
 1691 00a4 9D60     		str	r5, [r3, #8]
 1692              		.loc 1 434 0
 1693 00a6 FFF7FEFF 		bl	usb_lld_prepare_transmit
 1694              	.LVL141:
 1695              	.LBE388:
 1696              	.LBE387:
 1697              	.LBB389:
 1698              	.LBB390:
 1699              	.LBB391:
 1700              	.LBB392:
 1701              	.LBB393:
 1702              	.LBB394:
 1703              		.loc 2 546 0
 1704 00aa 2023     		movs	r3, #32
 1705              	@ 546 "ChibiOS_3.0.2/os/ext/CMSIS/include/core_cmFunc.h" 1
 1706 00ac 83F31188 		MSR basepri, r3
 1707              	@ 0 "" 2
 1708              		.thumb
 1709              	.LBE394:
 1710              	.LBE393:
 1711              	.LBE392:
 1712              	.LBE391:
 1713              	.LBE390:
 1714              	.LBE389:
 1715              		.loc 1 755 0
 1716 00b0 2046     		mov	r0, r4
 1717 00b2 2946     		mov	r1, r5
 1718 00b4 FFF7FEFF 		bl	usbStartTransmitI
 1719              	.LVL142:
 1720              	.LBB395:
 1721              	.LBB396:
 1722              	.LBB397:
 1723              	.LBB398:
 1724              	.LBB399:
 1725              	.LBB400:
 1726              		.loc 2 546 0
 1727              	@ 546 "ChibiOS_3.0.2/os/ext/CMSIS/include/core_cmFunc.h" 1
 1728 00b8 85F31188 		MSR basepri, r5
 1729              	@ 0 "" 2
 1730              		.thumb
 1731              	.LBE400:
 1732              	.LBE399:
 1733              	.LBE398:
 1734              	.LBE397:
 1735              	.LBE396:
 1736              	.LBE395:
 1737              		.loc 1 757 0
 1738 00bc 0223     		movs	r3, #2
 1739 00be 84F83430 		strb	r3, [r4, #52]
 1740              		.loc 1 758 0
 1741 00c2 38BD     		pop	{r3, r4, r5, pc}
 1742              		.cfi_endproc
 1743              	.LFE275:
 1744              		.size	_usb_ep0in, .-_usb_ep0in
 1745 00c4 AFF30080 		.section	.text._usb_ep0out,"ax",%progbits
ARM GAS  /tmp/ccua4LHO.s 			page 32


 1745      AFF30080 
 1745      AFF30080 
 1746              		.align	2
 1747              		.p2align 4,,15
 1748              		.global	_usb_ep0out
 1749              		.thumb
 1750              		.thumb_func
 1751              		.type	_usb_ep0out, %function
 1752              	_usb_ep0out:
 1753              	.LFB276:
 1754              		.loc 1 810 0
 1755              		.cfi_startproc
 1756              		@ args = 0, pretend = 0, frame = 0
 1757              		@ frame_needed = 0, uses_anonymous_args = 0
 1758              	.LVL143:
 1759 0000 38B5     		push	{r3, r4, r5, lr}
 1760              		.cfi_def_cfa_offset 16
 1761              		.cfi_offset 3, -16
 1762              		.cfi_offset 4, -12
 1763              		.cfi_offset 5, -8
 1764              		.cfi_offset 14, -4
 1765              		.loc 1 813 0
 1766 0002 90F83430 		ldrb	r3, [r0, #52]	@ zero_extendqisi2
 1767 0006 062B     		cmp	r3, #6
 1768              		.loc 1 810 0
 1769 0008 0446     		mov	r4, r0
 1770 000a 0AD8     		bhi	.L135
 1771 000c 0122     		movs	r2, #1
 1772 000e 02FA03F3 		lsl	r3, r2, r3
 1773 0012 13F0670F 		tst	r3, #103
 1774 0016 11D1     		bne	.L137
 1775 0018 13F00805 		ands	r5, r3, #8
 1776 001c 02D1     		bne	.L138
 1777 001e DB06     		lsls	r3, r3, #27
 1778 0020 1DD4     		bmi	.L150
 1779              	.L135:
 1780 0022 38BD     		pop	{r3, r4, r5, pc}
 1781              	.L138:
 1782              		.loc 1 830 0
 1783 0024 C368     		ldr	r3, [r0, #12]
 1784 0026 9B69     		ldr	r3, [r3, #24]
 1785 0028 9B68     		ldr	r3, [r3, #8]
 1786 002a 002B     		cmp	r3, #0
 1787 002c F9D1     		bne	.L135
 1788              		.loc 1 834 0
 1789 002e 036C     		ldr	r3, [r0, #64]
 1790 0030 03B1     		cbz	r3, .L139
 1791              		.loc 1 835 0
 1792 0032 9847     		blx	r3
 1793              	.LVL144:
 1794              	.L139:
 1795              		.loc 1 837 0
 1796 0034 0023     		movs	r3, #0
 1797 0036 84F83430 		strb	r3, [r4, #52]
 1798              		.loc 1 838 0
 1799 003a 38BD     		pop	{r3, r4, r5, pc}
 1800              	.LVL145:
ARM GAS  /tmp/ccua4LHO.s 			page 33


 1801              	.L137:
 1802              		.loc 1 850 0
 1803 003c 0021     		movs	r1, #0
 1804              	.LVL146:
 1805 003e FFF7FEFF 		bl	usb_lld_stall_in
 1806              	.LVL147:
 1807              		.loc 1 851 0
 1808 0042 2046     		mov	r0, r4
 1809 0044 0021     		movs	r1, #0
 1810 0046 FFF7FEFF 		bl	usb_lld_stall_out
 1811              	.LVL148:
 1812              		.loc 1 852 0
 1813 004a 6368     		ldr	r3, [r4, #4]
 1814 004c 1B68     		ldr	r3, [r3]
 1815 004e 13B1     		cbz	r3, .L140
 1816              		.loc 1 852 0 is_stmt 0 discriminator 1
 1817 0050 2046     		mov	r0, r4
 1818 0052 0521     		movs	r1, #5
 1819 0054 9847     		blx	r3
 1820              	.LVL149:
 1821              	.L140:
 1822              		.loc 1 853 0 is_stmt 1
 1823 0056 0623     		movs	r3, #6
 1824 0058 84F83430 		strb	r3, [r4, #52]
 1825 005c 38BD     		pop	{r3, r4, r5, pc}
 1826              	.LVL150:
 1827              	.L150:
 1828              	.LBB401:
 1829              	.LBB402:
 1830              		.loc 1 427 0
 1831 005e C368     		ldr	r3, [r0, #12]
 1832 0060 5B69     		ldr	r3, [r3, #20]
 1833              	.LBE402:
 1834              	.LBE401:
 1835              		.loc 1 816 0
 1836 0062 0522     		movs	r2, #5
 1837 0064 80F83420 		strb	r2, [r0, #52]
 1838              	.LVL151:
 1839              	.LBB404:
 1840              	.LBB403:
 1841              		.loc 1 434 0
 1842 0068 2946     		mov	r1, r5
 1843              	.LVL152:
 1844              		.loc 1 429 0
 1845 006a 1D70     		strb	r5, [r3]
 1846              		.loc 1 430 0
 1847 006c DD60     		str	r5, [r3, #12]
 1848              		.loc 1 431 0
 1849 006e 5D60     		str	r5, [r3, #4]
 1850              		.loc 1 432 0
 1851 0070 9D60     		str	r5, [r3, #8]
 1852              		.loc 1 434 0
 1853 0072 FFF7FEFF 		bl	usb_lld_prepare_transmit
 1854              	.LVL153:
 1855              	.LBE403:
 1856              	.LBE404:
 1857              	.LBB405:
ARM GAS  /tmp/ccua4LHO.s 			page 34


 1858              	.LBB406:
 1859              	.LBB407:
 1860              	.LBB408:
 1861              	.LBB409:
 1862              	.LBB410:
 1863              		.loc 2 546 0
 1864 0076 2023     		movs	r3, #32
 1865              	@ 546 "ChibiOS_3.0.2/os/ext/CMSIS/include/core_cmFunc.h" 1
 1866 0078 83F31188 		MSR basepri, r3
 1867              	@ 0 "" 2
 1868              		.thumb
 1869              	.LBE410:
 1870              	.LBE409:
 1871              	.LBE408:
 1872              	.LBE407:
 1873              	.LBE406:
 1874              	.LBE405:
 1875              		.loc 1 820 0
 1876 007c 2046     		mov	r0, r4
 1877 007e 2946     		mov	r1, r5
 1878 0080 FFF7FEFF 		bl	usbStartTransmitI
 1879              	.LVL154:
 1880              	.LBB411:
 1881              	.LBB412:
 1882              	.LBB413:
 1883              	.LBB414:
 1884              	.LBB415:
 1885              	.LBB416:
 1886              		.loc 2 546 0
 1887              	@ 546 "ChibiOS_3.0.2/os/ext/CMSIS/include/core_cmFunc.h" 1
 1888 0084 85F31188 		MSR basepri, r5
 1889              	@ 0 "" 2
 1890              		.thumb
 1891 0088 38BD     		pop	{r3, r4, r5, pc}
 1892              	.LBE416:
 1893              	.LBE415:
 1894              	.LBE414:
 1895              	.LBE413:
 1896              	.LBE412:
 1897              	.LBE411:
 1898              		.cfi_endproc
 1899              	.LFE276:
 1900              		.size	_usb_ep0out, .-_usb_ep0out
 1901 008a 00BFAFF3 		.section	.rodata.zero_status,"a",%progbits
 1901      0080
 1902              		.align	2
 1903              		.set	.LANCHOR0,. + 0
 1904              		.type	zero_status, %object
 1905              		.size	zero_status, 2
 1906              	zero_status:
 1907 0000 0000     		.space	2
 1908 0002 0000     		.section	.rodata.active_status,"a",%progbits
 1909              		.align	2
 1910              		.set	.LANCHOR2,. + 0
 1911              		.type	active_status, %object
 1912              		.size	active_status, 2
 1913              	active_status:
ARM GAS  /tmp/ccua4LHO.s 			page 35


 1914 0000 0000     		.space	2
 1915 0002 0000     		.section	.rodata.halted_status,"a",%progbits
 1916              		.align	2
 1917              		.set	.LANCHOR1,. + 0
 1918              		.type	halted_status, %object
 1919              		.size	halted_status, 2
 1920              	halted_status:
 1921 0000 01       		.byte	1
 1922 0001 00       		.byte	0
 1923 0002 0000     		.text
 1924              	.Letext0:
 1925              		.file 3 "/usr/lib/gcc/arm-none-eabi/4.8/include/stddef.h"
 1926              		.file 4 "/usr/include/newlib/machine/_default_types.h"
 1927              		.file 5 "/usr/include/newlib/stdint.h"
 1928              		.file 6 "ChibiOS_3.0.2/os/rt/ports/ARMCMx/compilers/GCC/chtypes.h"
 1929              		.file 7 "ChibiOS_3.0.2/os/rt/include/chsystypes.h"
 1930              		.file 8 "ChibiOS_3.0.2/os/rt/include/chschd.h"
 1931              		.file 9 "ChibiOS_3.0.2/os/rt/ports/ARMCMx/chcore.h"
 1932              		.file 10 "ChibiOS_3.0.2/os/rt/ports/ARMCMx/chcore_v7m.h"
 1933              		.file 11 "ChibiOS_3.0.2/os/rt/include/chtm.h"
 1934              		.file 12 "ChibiOS_3.0.2/os/rt/include/chsem.h"
 1935              		.file 13 "ChibiOS_3.0.2/os/rt/include/chmtx.h"
 1936              		.file 14 "ChibiOS_3.0.2/os/rt/include/chqueues.h"
 1937              		.file 15 "ChibiOS_3.0.2/os/hal/include/usb.h"
 1938              		.file 16 "ChibiOS_3.0.2/os/hal/ports/STM32/LLD/OTGv1/usb_lld.h"
 1939              		.file 17 "ChibiOS_3.0.2/os/hal/ports/STM32/LLD/OTGv1/stm32_otg.h"
 1940              		.file 18 "ChibiOS_3.0.2/os/rt/include/chsys.h"
 1941              		.file 19 "ChibiOS_3.0.2/os/hal/osal/rt/osal.h"
 1942              		.file 20 "ChibiOS_3.0.2/os/ext/CMSIS/include/core_cm4.h"