ARM GAS  /tmp/cc6eJU2L.s 			page 1


   1              		.syntax unified
   2              		.cpu cortex-m4
   3              		.eabi_attribute 27, 3
   4              		.eabi_attribute 28, 1
   5              		.fpu fpv4-sp-d16
   6              		.eabi_attribute 20, 1
   7              		.eabi_attribute 21, 1
   8              		.eabi_attribute 23, 3
   9              		.eabi_attribute 24, 1
  10              		.eabi_attribute 25, 1
  11              		.eabi_attribute 26, 1
  12              		.eabi_attribute 30, 2
  13              		.eabi_attribute 34, 1
  14              		.eabi_attribute 18, 4
  15              		.thumb
  16              		.file	"usb_lld.c"
  17              		.text
  18              	.Ltext0:
  19              		.cfi_sections	.debug_frame
  20              		.section	.text.usb_lld_pump,"ax",%progbits
  21              		.align	2
  22              		.p2align 4,,15
  23              		.global	usb_lld_pump
  24              		.thumb
  25              		.thumb_func
  26              		.type	usb_lld_pump, %function
  27              	usb_lld_pump:
  28              	.LFB292:
  29              		.file 1 "ChibiOS_3.0.2/os/hal/ports/STM32/LLD/OTGv1/usb_lld.c"
  30              		.loc 1 1294 0
  31              		.cfi_startproc
  32              		@ args = 0, pretend = 0, frame = 16
  33              		@ frame_needed = 0, uses_anonymous_args = 0
  34              	.LVL0:
  35 0000 2DE9F04F 		push	{r4, r5, r6, r7, r8, r9, r10, fp, lr}
  36              		.cfi_def_cfa_offset 36
  37              		.cfi_offset 4, -36
  38              		.cfi_offset 5, -32
  39              		.cfi_offset 6, -28
  40              		.cfi_offset 7, -24
  41              		.cfi_offset 8, -20
  42              		.cfi_offset 9, -16
  43              		.cfi_offset 10, -12
  44              		.cfi_offset 11, -8
  45              		.cfi_offset 14, -4
  46              	.LBB381:
  47              	.LBB382:
  48              		.file 2 "ChibiOS_3.0.2/os/rt/include/chregistry.h"
  49              		.loc 2 135 0
  50 0004 B04B     		ldr	r3, .L119
  51 0006 B14A     		ldr	r2, .L119+4
  52 0008 9B69     		ldr	r3, [r3, #24]
  53              	.LVL1:
  54              	.LBE382:
  55              	.LBE381:
  56              		.loc 1 1296 0
  57 000a 076D     		ldr	r7, [r0, #80]
ARM GAS  /tmp/cc6eJU2L.s 			page 2


  58              	.LVL2:
  59              	.LBB384:
  60              	.LBB383:
  61              		.loc 2 135 0
  62 000c 9A61     		str	r2, [r3, #24]
  63              	.LVL3:
  64              	.LBE383:
  65              	.LBE384:
  66              		.loc 1 1294 0
  67 000e 85B0     		sub	sp, sp, #20
  68              		.cfi_def_cfa_offset 56
  69              	.LBB385:
  70              	.LBB386:
  71              	.LBB387:
  72              	.LBB388:
  73              	.LBB389:
  74              		.file 3 "ChibiOS_3.0.2/os/ext/CMSIS/include/core_cmFunc.h"
  75              		.loc 3 546 0
  76 0010 2021     		movs	r1, #32
  77              	@ 546 "ChibiOS_3.0.2/os/ext/CMSIS/include/core_cmFunc.h" 1
  78 0012 81F31188 		MSR basepri, r1
  79              	@ 0 "" 2
  80              		.thumb
  81 0016 00F16002 		add	r2, r0, #96
  82 001a BA46     		mov	r10, r7
  83 001c 0392     		str	r2, [sp, #12]
  84 001e 0746     		mov	r7, r0
  85              	.LVL4:
  86              	.L57:
  87              	.LBE389:
  88              	.LBE388:
  89              	.LBE387:
  90              	.LBE386:
  91              	.LBE385:
  92              	.LBB390:
  93              		.loc 1 1307 0
  94 0020 3B78     		ldrb	r3, [r7]	@ zero_extendqisi2
  95 0022 012B     		cmp	r3, #1
  96 0024 05D0     		beq	.L2
  97              		.loc 1 1307 0 is_stmt 0 discriminator 1
  98 0026 FB6D     		ldr	r3, [r7, #92]
  99 0028 63B9     		cbnz	r3, .L3
 100              		.loc 1 1308 0 is_stmt 1
 101 002a DAF81430 		ldr	r3, [r10, #20]
 102 002e DB06     		lsls	r3, r3, #27
 103 0030 08D4     		bmi	.L3
 104              	.L2:
 105              		.loc 1 1309 0
 106 0032 DAF81830 		ldr	r3, [r10, #24]
 107              	.LBB391:
 108              	.LBB392:
 109              		.file 4 "ChibiOS_3.0.2/os/hal/osal/rt/osal.h"
 110              		.loc 4 688 0
 111 0036 0398     		ldr	r0, [sp, #12]
 112              	.LBE392:
 113              	.LBE391:
 114              		.loc 1 1309 0
ARM GAS  /tmp/cc6eJU2L.s 			page 3


 115 0038 43F01003 		orr	r3, r3, #16
 116 003c CAF81830 		str	r3, [r10, #24]
 117              	.LBB394:
 118              	.LBB393:
 119              		.loc 4 688 0
 120 0040 FFF7FEFF 		bl	chThdSuspendS
 121              	.LVL5:
 122              	.L3:
 123              	.LBE393:
 124              	.LBE394:
 125              	.LBB395:
 126              	.LBB396:
 127              	.LBB397:
 128              	.LBB398:
 129              	.LBB399:
 130              	.LBB400:
 131              		.loc 3 546 0
 132 0044 0023     		movs	r3, #0
 133              	@ 546 "ChibiOS_3.0.2/os/ext/CMSIS/include/core_cmFunc.h" 1
 134 0046 83F31188 		MSR basepri, r3
 135              	@ 0 "" 2
 136              	.LVL6:
 137              		.thumb
 138 004a 9846     		mov	r8, r3
 139              	.LVL7:
 140              	.L4:
 141              	.LBE400:
 142              	.LBE399:
 143              	.LBE398:
 144              	.LBE397:
 145              	.LBE396:
 146              	.LBE395:
 147              	.LBB401:
 148              	.LBB402:
 149              	.LBB403:
 150              	.LBB404:
 151              	.LBB405:
 152              	.LBB406:
 153              	.LBB407:
 154              	.LBB408:
 155              	.LBB409:
 156              		.loc 3 546 0 is_stmt 0 discriminator 1
 157 004c 4FF0200B 		mov	fp, #32
 158              	.L8:
 159              	.LBE409:
 160              	.LBE408:
 161              	.LBE407:
 162              	.LBE406:
 163              	.LBE405:
 164              	.LBE404:
 165              	.LBE403:
 166              	.LBE402:
 167              	.LBE401:
 168              		.loc 1 1318 0 is_stmt 1 discriminator 1
 169 0050 DAF81430 		ldr	r3, [r10, #20]
 170 0054 13F01003 		ands	r3, r3, #16
 171 0058 23D0     		beq	.L112
ARM GAS  /tmp/cc6eJU2L.s 			page 4


 172              	.L27:
 173              	.LVL8:
 174              	.LBB439:
 175              	.LBB437:
 176              		.loc 1 437 0
 177 005a 3E6D     		ldr	r6, [r7, #80]
 178 005c 346A     		ldr	r4, [r6, #32]
 179              	.LVL9:
 180              		.loc 1 438 0
 181 005e 04F4F013 		and	r3, r4, #1966080
 182 0062 B3F5802F 		cmp	r3, #262144
 183 0066 2FD0     		beq	.L6
 184 0068 B3F5402F 		cmp	r3, #786432
 185 006c F0D1     		bne	.L8
 186              	.LVL10:
 187              		.loc 1 443 0
 188 006e 04F00F03 		and	r3, r4, #15
 189              	.LVL11:
 190              		.loc 1 444 0
 191 0072 07EB8303 		add	r3, r7, r3, lsl #2
 192              	.LVL12:
 193              		.loc 1 442 0
 194 0076 C4F30A14 		ubfx	r4, r4, #4, #11
 195              	.LVL13:
 196              		.loc 1 444 0
 197 007a DA68     		ldr	r2, [r3, #12]
 198              	.LBB428:
 199              	.LBB429:
 200              		.loc 1 356 0
 201 007c E31C     		adds	r3, r4, #3
 202              		.loc 1 358 0
 203 007e 9B08     		lsrs	r3, r3, #2
 204              	.LBE429:
 205              	.LBE428:
 206              		.loc 1 444 0
 207 0080 106A     		ldr	r0, [r2, #32]
 208              	.LVL14:
 209              	.LBB432:
 210              	.LBB431:
 211              		.loc 1 358 0
 212 0082 E5D0     		beq	.L8
 213 0084 06F58056 		add	r6, r6, #4096
 214              	.LVL15:
 215              		.loc 1 357 0
 216 0088 0222     		movs	r2, #2
 217              	.LVL16:
 218              	.L13:
 219              	.LBB430:
 220              		.loc 1 359 0
 221 008a 3168     		ldr	r1, [r6]
 222              	.LVL17:
 223              		.loc 1 360 0
 224 008c 12B1     		cbz	r2, .L11
 225              		.loc 1 363 0
 226 008e 40F8041B 		str	r1, [r0], #4
 227              	.LVL18:
 228              		.loc 1 365 0
ARM GAS  /tmp/cc6eJU2L.s 			page 5


 229 0092 013A     		subs	r2, r2, #1
 230              	.LVL19:
 231              	.L11:
 232              	.LBE430:
 233              		.loc 1 358 0
 234 0094 013B     		subs	r3, r3, #1
 235              	.LVL20:
 236 0096 F8D1     		bne	.L13
 237              	.LBE431:
 238              	.LBE432:
 239              	.LBE437:
 240              	.LBE439:
 241              		.loc 1 1318 0
 242 0098 DAF81430 		ldr	r3, [r10, #20]
 243              	.LVL21:
 244 009c 13F01003 		ands	r3, r3, #16
 245 00a0 DBD1     		bne	.L27
 246              	.LVL22:
 247              	.L112:
 248              		.loc 1 1322 0
 249 00a2 0121     		movs	r1, #1
 250              		.loc 1 1323 0
 251 00a4 FA6D     		ldr	r2, [r7, #92]
 252              		.loc 1 1322 0
 253 00a6 01FA08F1 		lsl	r1, r1, r8
 254              		.loc 1 1323 0
 255 00aa 1142     		tst	r1, r2
 256              		.loc 1 1322 0
 257 00ac 0291     		str	r1, [sp, #8]
 258              	.LVL23:
 259              		.loc 1 1323 0
 260 00ae 6BD1     		bne	.L105
 261 00b0 08F10108 		add	r8, r8, #1
 262              	.LVL24:
 263              	.L28:
 264              		.loc 1 1315 0
 265 00b4 7B6D     		ldr	r3, [r7, #84]
 266 00b6 9B68     		ldr	r3, [r3, #8]
 267 00b8 5FFA88F8 		uxtb	r8, r8
 268              	.LVL25:
 269 00bc 9845     		cmp	r8, r3
 270 00be C5D9     		bls	.L4
 271              	.LVL26:
 272              	.LBB440:
 273              	.LBB441:
 274              	.LBB442:
 275              	.LBB443:
 276              	.LBB444:
 277              		.loc 3 546 0
 278 00c0 2023     		movs	r3, #32
 279              	@ 546 "ChibiOS_3.0.2/os/ext/CMSIS/include/core_cmFunc.h" 1
 280 00c2 83F31188 		MSR basepri, r3
 281              	@ 0 "" 2
 282              		.thumb
 283 00c6 ABE7     		b	.L57
 284              	.LVL27:
 285              	.L6:
ARM GAS  /tmp/cc6eJU2L.s 			page 6


 286              	.LBE444:
 287              	.LBE443:
 288              	.LBE442:
 289              	.LBE441:
 290              	.LBE440:
 291              	.LBB445:
 292              	.LBB438:
 293              		.loc 1 449 0
 294 00c8 04F00F05 		and	r5, r4, #15
 295 00cc 07EB8505 		add	r5, r7, r5, lsl #2
 296              		.loc 1 448 0
 297 00d0 C4F30A14 		ubfx	r4, r4, #4, #11
 298              	.LVL28:
 299              		.loc 1 450 0
 300 00d4 EB68     		ldr	r3, [r5, #12]
 301 00d6 9969     		ldr	r1, [r3, #24]
 302 00d8 0B78     		ldrb	r3, [r1]	@ zero_extendqisi2
 303 00da E3B9     		cbnz	r3, .L113
 304              		.loc 1 457 0
 305 00dc 0A1D     		adds	r2, r1, #4
 306 00de 92E80C40 		ldmia	r2, {r2, r3, lr}
 307              	.LVL29:
 308 00e2 0332     		adds	r2, r2, #3
 309              	.LVL30:
 310              	.LBB433:
 311              	.LBB434:
 312              		.loc 1 357 0
 313 00e4 D21A     		subs	r2, r2, r3
 314              		.loc 1 356 0
 315 00e6 E31C     		adds	r3, r4, #3
 316              	.LVL31:
 317              		.loc 1 358 0
 318 00e8 9B08     		lsrs	r3, r3, #2
 319              		.loc 1 357 0
 320 00ea 4FEA9202 		lsr	r2, r2, #2
 321              	.LVL32:
 322              		.loc 1 358 0
 323 00ee 09D0     		beq	.L25
 324 00f0 06F58056 		add	r6, r6, #4096
 325              	.LVL33:
 326 00f4 F446     		mov	ip, lr
 327              	.LVL34:
 328              	.L26:
 329              	.LBB435:
 330              		.loc 1 359 0
 331 00f6 3068     		ldr	r0, [r6]
 332              	.LVL35:
 333              		.loc 1 360 0
 334 00f8 12B1     		cbz	r2, .L24
 335              		.loc 1 363 0
 336 00fa 4CF8040B 		str	r0, [ip], #4
 337              	.LVL36:
 338              		.loc 1 365 0
 339 00fe 013A     		subs	r2, r2, #1
 340              	.LVL37:
 341              	.L24:
 342              	.LBE435:
ARM GAS  /tmp/cc6eJU2L.s 			page 7


 343              		.loc 1 358 0
 344 0100 013B     		subs	r3, r3, #1
 345              	.LVL38:
 346 0102 F8D1     		bne	.L26
 347              	.LVL39:
 348              	.L25:
 349              	.LBE434:
 350              	.LBE433:
 351              		.loc 1 462 0
 352 0104 0EEB0400 		add	r0, lr, r4
 353 0108 C860     		str	r0, [r1, #12]
 354              	.LVL40:
 355              	.L22:
 356              		.loc 1 464 0
 357 010a EB68     		ldr	r3, [r5, #12]
 358 010c 9B69     		ldr	r3, [r3, #24]
 359 010e 9A68     		ldr	r2, [r3, #8]
 360 0110 1444     		add	r4, r4, r2
 361              	.LVL41:
 362 0112 9C60     		str	r4, [r3, #8]
 363 0114 9CE7     		b	.L8
 364              	.LVL42:
 365              	.L113:
 366              		.loc 1 452 0
 367 0116 C868     		ldr	r0, [r1, #12]
 368              	.LVL43:
 369              	.LBB436:
 370              	.LBB427:
 371              		.loc 1 386 0
 372 0118 44B3     		cbz	r4, .L15
 373 011a 4269     		ldr	r2, [r0, #20]
 374 011c 06F58056 		add	r6, r6, #4096
 375              	.LVL44:
 376 0120 A646     		mov	lr, r4
 377              	.LVL45:
 378              	.L16:
 379              	.LBB414:
 380              		.loc 1 390 0
 381 0122 BEF1030F 		cmp	lr, #3
 382 0126 07D9     		bls	.L17
 383              	.LVL46:
 384              	.L114:
 385              	.LBB415:
 386              		.loc 1 396 0
 387 0128 0369     		ldr	r3, [r0, #16]
 388 012a 9A42     		cmp	r2, r3
 389 012c 04D3     		bcc	.L17
 390              		.loc 1 397 0
 391 012e C268     		ldr	r2, [r0, #12]
 392              	.LVL47:
 393 0130 4261     		str	r2, [r0, #20]
 394              	.LVL48:
 395              	.LBE415:
 396              		.loc 1 390 0
 397 0132 BEF1030F 		cmp	lr, #3
 398 0136 F7D8     		bhi	.L114
 399              	.LVL49:
ARM GAS  /tmp/cc6eJU2L.s 			page 8


 400              	.L17:
 401              		.loc 1 408 0
 402 0138 D6F800C0 		ldr	ip, [r6]
 403              	.LVL50:
 404 013c 0023     		movs	r3, #0
 405              	.LVL51:
 406              	.L21:
 407              		.loc 1 411 0
 408 013e 02F10109 		add	r9, r2, #1
 409 0142 2CFA03F1 		lsr	r1, ip, r3
 410 0146 C0F81490 		str	r9, [r0, #20]
 411 014a 1170     		strb	r1, [r2]
 412              		.loc 1 412 0
 413 014c 0269     		ldr	r2, [r0, #16]
 414 014e 4169     		ldr	r1, [r0, #20]
 415 0150 9142     		cmp	r1, r2
 416              		.loc 1 413 0
 417 0152 24BF     		itt	cs
 418 0154 C268     		ldrcs	r2, [r0, #12]
 419 0156 4261     		strcs	r2, [r0, #20]
 420              		.loc 1 410 0
 421 0158 BEF1010E 		subs	lr, lr, #1
 422              	.LVL52:
 423 015c 06D0     		beq	.L15
 424 015e 182B     		cmp	r3, #24
 425 0160 02D0     		beq	.L115
 426 0162 0833     		adds	r3, r3, #8
 427 0164 4269     		ldr	r2, [r0, #20]
 428 0166 EAE7     		b	.L21
 429              	.L115:
 430 0168 4269     		ldr	r2, [r0, #20]
 431 016a DAE7     		b	.L16
 432              	.LVL53:
 433              	.L15:
 434              	.LBE414:
 435              	.LBB416:
 436              	.LBB413:
 437              	.LBB412:
 438              	.LBB411:
 439              	.LBB410:
 440              		.loc 3 546 0
 441              	@ 546 "ChibiOS_3.0.2/os/ext/CMSIS/include/core_cmFunc.h" 1
 442 016c 8BF31188 		MSR basepri, fp
 443              	@ 0 "" 2
 444              		.thumb
 445              	.LBE410:
 446              	.LBE411:
 447              	.LBE412:
 448              	.LBE413:
 449              	.LBE416:
 450              		.loc 1 421 0
 451 0170 8368     		ldr	r3, [r0, #8]
 452 0172 2344     		add	r3, r3, r4
 453 0174 8360     		str	r3, [r0, #8]
 454              	.LVL54:
 455              	.LBB417:
 456              	.LBB418:
ARM GAS  /tmp/cc6eJU2L.s 			page 9


 457              		.loc 4 810 0
 458 0176 0021     		movs	r1, #0
 459 0178 FFF7FEFF 		bl	chThdDequeueAllI
 460              	.LVL55:
 461              	.LBE418:
 462              	.LBE417:
 463              	.LBB419:
 464              	.LBB420:
 465              		.loc 4 600 0
 466 017c FFF7FEFF 		bl	chSchRescheduleS
 467              	.LVL56:
 468              	.LBE420:
 469              	.LBE419:
 470              	.LBB421:
 471              	.LBB422:
 472              	.LBB423:
 473              	.LBB424:
 474              	.LBB425:
 475              	.LBB426:
 476              		.loc 3 546 0
 477 0180 0020     		movs	r0, #0
 478              	@ 546 "ChibiOS_3.0.2/os/ext/CMSIS/include/core_cmFunc.h" 1
 479 0182 80F31188 		MSR basepri, r0
 480              	@ 0 "" 2
 481              		.thumb
 482 0186 C0E7     		b	.L22
 483              	.LVL57:
 484              	.L105:
 485              	.LBE426:
 486              	.LBE425:
 487              	.LBE424:
 488              	.LBE423:
 489              	.LBE422:
 490              	.LBE421:
 491              	.LBE427:
 492              	.LBE436:
 493              	.LBE438:
 494              	.LBE445:
 495              	.LBB446:
 496              	.LBB447:
 497              	.LBB448:
 498              	.LBB449:
 499              	.LBB450:
 500              	.LBB451:
 501 0188 2022     		movs	r2, #32
 502              	@ 546 "ChibiOS_3.0.2/os/ext/CMSIS/include/core_cmFunc.h" 1
 503 018a 82F31188 		MSR basepri, r2
 504              	@ 0 "" 2
 505              		.thumb
 506              	.LBE451:
 507              	.LBE450:
 508              	.LBE449:
 509              	.LBE448:
 510              	.LBE447:
 511              		.loc 1 1334 0
 512 018e DAF80810 		ldr	r1, [r10, #8]
 513              	.LVL58:
ARM GAS  /tmp/cc6eJU2L.s 			page 10


 514              		.loc 1 1335 0
 515 0192 FA6D     		ldr	r2, [r7, #92]
 516 0194 029C     		ldr	r4, [sp, #8]
 517              		.loc 1 1334 0
 518 0196 21F00101 		bic	r1, r1, #1
 519              		.loc 1 1335 0
 520 019a 22EA0402 		bic	r2, r2, r4
 521              		.loc 1 1334 0
 522 019e CAF80810 		str	r1, [r10, #8]
 523              		.loc 1 1335 0
 524 01a2 FA65     		str	r2, [r7, #92]
 525              	.LVL59:
 526              	.LBB452:
 527              	.LBB453:
 528              	.LBB454:
 529              	.LBB455:
 530              	.LBB456:
 531              	.LBB457:
 532              		.loc 3 546 0
 533              	@ 546 "ChibiOS_3.0.2/os/ext/CMSIS/include/core_cmFunc.h" 1
 534 01a4 83F31188 		MSR basepri, r3
 535              	@ 0 "" 2
 536              	.LVL60:
 537              		.thumb
 538 01a8 07EB880B 		add	fp, r7, r8, lsl #2
 539              	.LBE457:
 540              	.LBE456:
 541              	.LBE455:
 542              	.LBE454:
 543              	.LBE453:
 544              	.LBE452:
 545              	.LBB458:
 546              	.LBB459:
 547              		.loc 1 488 0
 548 01ac DBF80C10 		ldr	r1, [fp, #12]
 549 01b0 4869     		ldr	r0, [r1, #20]
 550 01b2 8368     		ldr	r3, [r0, #8]
 551 01b4 4268     		ldr	r2, [r0, #4]
 552 01b6 9342     		cmp	r3, r2
 553 01b8 80F0AE80 		bcs	.L116
 554              		.loc 1 498 0
 555 01bc 3D6D     		ldr	r5, [r7, #80]
 556              		.loc 1 493 0
 557 01be 098A     		ldrh	r1, [r1, #16]
 558              		.loc 1 498 0
 559 01c0 4FEA4819 		lsl	r9, r8, #5
 560 01c4 05EB0904 		add	r4, r5, r9
 561              		.loc 1 492 0
 562 01c8 D21A     		subs	r2, r2, r3
 563              	.LVL61:
 564              		.loc 1 498 0
 565 01ca D4F81839 		ldr	r3, [r4, #2328]
 566 01ce 8A42     		cmp	r2, r1
 567 01d0 34BF     		ite	cc
 568 01d2 1646     		movcc	r6, r2
 569 01d4 0E46     		movcs	r6, r1
 570              	.LVL62:
ARM GAS  /tmp/cc6eJU2L.s 			page 11


 571 01d6 9BB2     		uxth	r3, r3
 572 01d8 B6EB830F 		cmp	r6, r3, lsl #2
 573 01dc 08F10108 		add	r8, r8, #1
 574              	.LVL63:
 575 01e0 98BF     		it	ls
 576 01e2 0197     		strls	r7, [sp, #4]
 577 01e4 2AD8     		bhi	.L31
 578              	.LVL64:
 579              	.L32:
 580              		.loc 1 505 0
 581 01e6 0378     		ldrb	r3, [r0]	@ zero_extendqisi2
 582 01e8 002B     		cmp	r3, #0
 583 01ea 3CD1     		bne	.L117
 584              	.LBB460:
 585              	.LBB461:
 586              		.loc 1 256 0
 587 01ec F31C     		adds	r3, r6, #3
 588              	.LBE461:
 589              	.LBE460:
 590              		.loc 1 513 0
 591 01ee C468     		ldr	r4, [r0, #12]
 592              	.LBB468:
 593              	.LBB466:
 594              	.LBB462:
 595              	.LBB463:
 596              		.loc 1 233 0
 597 01f0 9B08     		lsrs	r3, r3, #2
 598              	.LBE463:
 599              	.LBE462:
 600              	.LBE466:
 601              	.LBE468:
 602              		.loc 1 513 0
 603 01f2 05EB0835 		add	r5, r5, r8, lsl #12
 604              	.LVL65:
 605              	.LBB469:
 606              	.LBB467:
 607              	.LBB465:
 608              	.LBB464:
 609              		.loc 1 233 0
 610 01f6 18BF     		it	ne
 611 01f8 2246     		movne	r2, r4
 612 01fa 04D0     		beq	.L50
 613              	.LVL66:
 614              	.L51:
 615              		.loc 1 236 0
 616 01fc 52F8041B 		ldr	r1, [r2], #4
 617              	.LVL67:
 618 0200 2960     		str	r1, [r5]
 619              	.LVL68:
 620              		.loc 1 233 0
 621 0202 013B     		subs	r3, r3, #1
 622              	.LVL69:
 623 0204 FAD1     		bne	.L51
 624              	.LVL70:
 625              	.L50:
 626              	.LBE464:
 627              	.LBE465:
ARM GAS  /tmp/cc6eJU2L.s 			page 12


 628              	.LBE467:
 629              	.LBE469:
 630              		.loc 1 516 0
 631 0206 3444     		add	r4, r4, r6
 632              	.LVL71:
 633 0208 C460     		str	r4, [r0, #12]
 634              	.LVL72:
 635              	.L35:
 636              		.loc 1 521 0
 637 020a DBF80C10 		ldr	r1, [fp, #12]
 638 020e 4869     		ldr	r0, [r1, #20]
 639 0210 8368     		ldr	r3, [r0, #8]
 640              		.loc 1 488 0
 641 0212 4268     		ldr	r2, [r0, #4]
 642              		.loc 1 521 0
 643 0214 3344     		add	r3, r3, r6
 644              		.loc 1 488 0
 645 0216 9A42     		cmp	r2, r3
 646              		.loc 1 521 0
 647 0218 8360     		str	r3, [r0, #8]
 648              		.loc 1 488 0
 649 021a 7AD9     		bls	.L118
 650              		.loc 1 498 0
 651 021c 019C     		ldr	r4, [sp, #4]
 652              		.loc 1 493 0
 653 021e 098A     		ldrh	r1, [r1, #16]
 654              		.loc 1 498 0
 655 0220 256D     		ldr	r5, [r4, #80]
 656 0222 05EB0904 		add	r4, r5, r9
 657              		.loc 1 492 0
 658 0226 D61A     		subs	r6, r2, r3
 659              	.LVL73:
 660              		.loc 1 498 0
 661 0228 D4F81839 		ldr	r3, [r4, #2328]
 662 022c 8E42     		cmp	r6, r1
 663 022e 28BF     		it	cs
 664 0230 0E46     		movcs	r6, r1
 665              	.LVL74:
 666 0232 9BB2     		uxth	r3, r3
 667 0234 B6EB830F 		cmp	r6, r3, lsl #2
 668 0238 D5D9     		bls	.L32
 669 023a 019F     		ldr	r7, [sp, #4]
 670              	.L31:
 671              		.loc 1 499 0
 672 023c 0022     		movs	r2, #0
 673              	.LVL75:
 674              	.L30:
 675              	.LBE459:
 676              	.LBE458:
 677              	.LBB494:
 678              	.LBB495:
 679              	.LBB496:
 680              	.LBB497:
 681              	.LBB498:
 682              		.loc 3 546 0
 683 023e 2023     		movs	r3, #32
 684              	@ 546 "ChibiOS_3.0.2/os/ext/CMSIS/include/core_cmFunc.h" 1
ARM GAS  /tmp/cc6eJU2L.s 			page 13


 685 0240 83F31188 		MSR basepri, r3
 686              	@ 0 "" 2
 687              		.thumb
 688              	.LBE498:
 689              	.LBE497:
 690              	.LBE496:
 691              	.LBE495:
 692              	.LBE494:
 693              		.loc 1 1341 0
 694 0244 DAF80830 		ldr	r3, [r10, #8]
 695 0248 43F00103 		orr	r3, r3, #1
 696 024c CAF80830 		str	r3, [r10, #8]
 697              		.loc 1 1342 0
 698 0250 2AB9     		cbnz	r2, .L54
 699              		.loc 1 1343 0
 700 0252 DAF83438 		ldr	r3, [r10, #2100]
 701 0256 029A     		ldr	r2, [sp, #8]
 702 0258 1343     		orrs	r3, r3, r2
 703 025a CAF83438 		str	r3, [r10, #2100]
 704              	.L54:
 705              	.LVL76:
 706              	.LBB499:
 707              	.LBB500:
 708              	.LBB501:
 709              	.LBB502:
 710              	.LBB503:
 711              	.LBB504:
 712              		.loc 3 546 0
 713 025e 0023     		movs	r3, #0
 714              	@ 546 "ChibiOS_3.0.2/os/ext/CMSIS/include/core_cmFunc.h" 1
 715 0260 83F31188 		MSR basepri, r3
 716              	@ 0 "" 2
 717              		.thumb
 718 0264 26E7     		b	.L28
 719              	.LVL77:
 720              	.L117:
 721              	.LBE504:
 722              	.LBE503:
 723              	.LBE502:
 724              	.LBE501:
 725              	.LBE500:
 726              	.LBE499:
 727              	.LBB505:
 728              	.LBB493:
 729              		.loc 1 507 0
 730 0266 05EB0835 		add	r5, r5, r8, lsl #12
 731 026a C068     		ldr	r0, [r0, #12]
 732              	.LVL78:
 733              	.LBB470:
 734              	.LBB471:
 735              		.loc 1 274 0
 736 026c E6B1     		cbz	r6, .L44
 737 026e D0F810C0 		ldr	ip, [r0, #16]
 738 0272 3246     		mov	r2, r6
 739              	.LVL79:
 740              	.L48:
 741              	.LBB472:
ARM GAS  /tmp/cc6eJU2L.s 			page 14


 742              		.loc 1 278 0
 743 0274 9108     		lsrs	r1, r2, #2
 744              	.LVL80:
 745 0276 2BD1     		bne	.L36
 746 0278 8169     		ldr	r1, [r0, #24]
 747              	.LVL81:
 748              	.L37:
 749              		.loc 1 292 0
 750 027a 0023     		movs	r3, #0
 751 027c 1F46     		mov	r7, r3
 752              	.LVL82:
 753              	.L47:
 754              		.loc 1 299 0
 755 027e 4C1C     		adds	r4, r1, #1
 756 0280 8461     		str	r4, [r0, #24]
 757 0282 0978     		ldrb	r1, [r1]	@ zero_extendqisi2
 758              		.loc 1 300 0
 759 0284 A445     		cmp	ip, r4
 760              		.loc 1 299 0
 761 0286 01FA03F1 		lsl	r1, r1, r3
 762 028a 47EA0107 		orr	r7, r7, r1
 763              	.LVL83:
 764              		.loc 1 301 0
 765 028e 9CBF     		itt	ls
 766 0290 C168     		ldrls	r1, [r0, #12]
 767 0292 8161     		strls	r1, [r0, #24]
 768              		.loc 1 298 0
 769 0294 013A     		subs	r2, r2, #1
 770              	.LVL84:
 771 0296 04D0     		beq	.L46
 772 0298 182B     		cmp	r3, #24
 773 029a 02D0     		beq	.L46
 774 029c 0833     		adds	r3, r3, #8
 775 029e 8169     		ldr	r1, [r0, #24]
 776 02a0 EDE7     		b	.L47
 777              	.L46:
 778              		.loc 1 305 0
 779 02a2 2F60     		str	r7, [r5]
 780              	.LBE472:
 781              		.loc 1 274 0
 782 02a4 002A     		cmp	r2, #0
 783 02a6 E5D1     		bne	.L48
 784              	.LVL85:
 785              	.L44:
 786              	.LBB476:
 787              	.LBB477:
 788              	.LBB478:
 789              	.LBB479:
 790              	.LBB480:
 791              		.loc 3 546 0
 792 02a8 2023     		movs	r3, #32
 793              	@ 546 "ChibiOS_3.0.2/os/ext/CMSIS/include/core_cmFunc.h" 1
 794 02aa 83F31188 		MSR basepri, r3
 795              	@ 0 "" 2
 796              		.thumb
 797              	.LBE480:
 798              	.LBE479:
ARM GAS  /tmp/cc6eJU2L.s 			page 15


 799              	.LBE478:
 800              	.LBE477:
 801              	.LBE476:
 802              		.loc 1 310 0
 803 02ae 8368     		ldr	r3, [r0, #8]
 804 02b0 3344     		add	r3, r3, r6
 805 02b2 8360     		str	r3, [r0, #8]
 806              	.LVL86:
 807              	.LBB481:
 808              	.LBB482:
 809              		.loc 4 810 0
 810 02b4 0021     		movs	r1, #0
 811 02b6 FFF7FEFF 		bl	chThdDequeueAllI
 812              	.LVL87:
 813              	.LBE482:
 814              	.LBE481:
 815              	.LBB483:
 816              	.LBB484:
 817              		.loc 4 600 0
 818 02ba FFF7FEFF 		bl	chSchRescheduleS
 819              	.LVL88:
 820              	.LBE484:
 821              	.LBE483:
 822              	.LBB485:
 823              	.LBB486:
 824              	.LBB487:
 825              	.LBB488:
 826              	.LBB489:
 827              	.LBB490:
 828              		.loc 3 546 0
 829 02be 0020     		movs	r0, #0
 830              	@ 546 "ChibiOS_3.0.2/os/ext/CMSIS/include/core_cmFunc.h" 1
 831 02c0 80F31188 		MSR basepri, r0
 832              	@ 0 "" 2
 833              		.thumb
 834 02c4 A1E7     		b	.L35
 835              	.L120:
 836 02c6 00BF     		.align	2
 837              	.L119:
 838 02c8 00000000 		.word	ch
 839 02cc 00000000 		.word	.LC0
 840              	.LVL89:
 841              	.L36:
 842              	.LBE490:
 843              	.LBE489:
 844              	.LBE488:
 845              	.LBE487:
 846              	.LBE486:
 847              	.LBE485:
 848              	.LBB491:
 849              	.LBB473:
 850              		.loc 1 280 0
 851 02d0 8769     		ldr	r7, [r0, #24]
 852              	.LVL90:
 853 02d2 BCEB0703 		subs	r3, ip, r7
 854 02d6 48BF     		it	mi
 855 02d8 0333     		addmi	r3, r3, #3
ARM GAS  /tmp/cc6eJU2L.s 			page 16


 856 02da 9B10     		asrs	r3, r3, #2
 857              		.loc 1 282 0
 858 02dc 9942     		cmp	r1, r3
 859 02de 38BF     		it	cc
 860 02e0 0B46     		movcc	r3, r1
 861              	.LVL91:
 862 02e2 4FEA830E 		lsl	lr, r3, #2
 863 02e6 CEEB0202 		rsb	r2, lr, r2
 864              	.LVL92:
 865              	.LBB474:
 866              	.LBB475:
 867              		.loc 1 233 0
 868 02ea 33B1     		cbz	r3, .L39
 869 02ec 3946     		mov	r1, r7
 870              	.LVL93:
 871              	.L41:
 872              		.loc 1 236 0
 873 02ee 51F8044B 		ldr	r4, [r1], #4
 874              	.LVL94:
 875 02f2 2C60     		str	r4, [r5]
 876              	.LVL95:
 877              		.loc 1 233 0
 878 02f4 013B     		subs	r3, r3, #1
 879              	.LVL96:
 880 02f6 FAD1     		bne	.L41
 881 02f8 7744     		add	r7, r7, lr
 882              	.LVL97:
 883              	.L39:
 884              	.LBE475:
 885              	.LBE474:
 886              		.loc 1 284 0
 887 02fa 6745     		cmp	r7, ip
 888              		.loc 1 283 0
 889 02fc 8761     		str	r7, [r0, #24]
 890              	.LVL98:
 891              		.loc 1 284 0
 892 02fe 04D3     		bcc	.L42
 893              		.loc 1 285 0
 894 0300 C368     		ldr	r3, [r0, #12]
 895              	.LVL99:
 896 0302 8361     		str	r3, [r0, #24]
 897              	.LBE473:
 898              	.LBE491:
 899              		.loc 1 274 0
 900 0304 002A     		cmp	r2, #0
 901 0306 B5D1     		bne	.L48
 902 0308 CEE7     		b	.L44
 903              	.LVL100:
 904              	.L42:
 905              	.LBB492:
 906              		.loc 1 292 0
 907 030a 002A     		cmp	r2, #0
 908 030c CCD0     		beq	.L44
 909 030e 3946     		mov	r1, r7
 910 0310 B3E7     		b	.L37
 911              	.LVL101:
 912              	.L118:
ARM GAS  /tmp/cc6eJU2L.s 			page 17


 913 0312 019F     		ldr	r7, [sp, #4]
 914              	.LVL102:
 915              	.L52:
 916              	.LBE492:
 917              	.LBE471:
 918              	.LBE470:
 919              		.loc 1 489 0
 920 0314 0122     		movs	r2, #1
 921 0316 92E7     		b	.L30
 922              	.LVL103:
 923              	.L116:
 924 0318 08F10108 		add	r8, r8, #1
 925              	.LVL104:
 926 031c FAE7     		b	.L52
 927              	.LBE493:
 928              	.LBE505:
 929              	.LBE446:
 930              	.LBE390:
 931              		.cfi_endproc
 932              	.LFE292:
 933              		.size	usb_lld_pump, .-usb_lld_pump
 934 031e 00BF     		.section	.text.otg_disable_ep.isra.0,"ax",%progbits
 935              		.align	2
 936              		.p2align 4,,15
 937              		.thumb
 938              		.thumb_func
 939              		.type	otg_disable_ep.isra.0, %function
 940              	otg_disable_ep.isra.0:
 941              	.LFB293:
 942              		.loc 1 132 0
 943              		.cfi_startproc
 944              		@ args = 0, pretend = 0, frame = 0
 945              		@ frame_needed = 0, uses_anonymous_args = 0
 946              		@ link register save eliminated.
 947              	.LVL105:
 948 0000 D1F808C0 		ldr	ip, [r1, #8]
 949              		.loc 1 136 0
 950 0004 0021     		movs	r1, #0
 951              	.LVL106:
 952              		.loc 1 132 0
 953 0006 2DE9F001 		push	{r4, r5, r6, r7, r8}
 954              		.cfi_def_cfa_offset 20
 955              		.cfi_offset 4, -20
 956              		.cfi_offset 5, -16
 957              		.cfi_offset 6, -12
 958              		.cfi_offset 7, -8
 959              		.cfi_offset 8, -4
 960              		.loc 1 147 0
 961 000a 0D46     		mov	r5, r1
 962              		.loc 1 141 0
 963 000c 4FF08048 		mov	r8, #1073741824
 964              		.loc 1 149 0
 965 0010 4FF0FF37 		mov	r7, #-1
 966 0014 14E0     		b	.L129
 967              	.LVL107:
 968              	.L122:
 969              		.loc 1 147 0
ARM GAS  /tmp/cc6eJU2L.s 			page 18


 970 0016 C2F80059 		str	r5, [r2, #2304]
 971              	.L123:
 972              		.loc 1 148 0
 973 001a 0319     		adds	r3, r0, r4
 974 001c C3F81059 		str	r5, [r3, #2320]
 975              		.loc 1 149 0
 976 0020 C3F80879 		str	r7, [r3, #2312]
 977              		.loc 1 155 0
 978 0024 D2F8006B 		ldr	r6, [r2, #2816]
 979 0028 002E     		cmp	r6, #0
 980 002a 17DB     		blt	.L130
 981              		.loc 1 162 0
 982 002c C2F8005B 		str	r5, [r2, #2816]
 983              	.L126:
 984              		.loc 1 163 0
 985 0030 0444     		add	r4, r4, r0
 986              		.loc 1 136 0
 987 0032 0131     		adds	r1, r1, #1
 988              	.LVL108:
 989 0034 6145     		cmp	r1, ip
 990              		.loc 1 163 0
 991 0036 C4F8105B 		str	r5, [r4, #2832]
 992              		.loc 1 164 0
 993 003a C4F8087B 		str	r7, [r4, #2824]
 994              		.loc 1 136 0
 995 003e 15D8     		bhi	.L131
 996              	.LVL109:
 997              	.L129:
 998 0040 4C01     		lsls	r4, r1, #5
 999 0042 0219     		adds	r2, r0, r4
 1000              		.loc 1 140 0
 1001 0044 D2F80039 		ldr	r3, [r2, #2304]
 1002 0048 002B     		cmp	r3, #0
 1003 004a E4DA     		bge	.L122
 1004              		.loc 1 141 0
 1005 004c C2F80089 		str	r8, [r2, #2304]
 1006              		.loc 1 143 0
 1007 0050 1646     		mov	r6, r2
 1008              	.L124:
 1009 0052 D6F80839 		ldr	r3, [r6, #2312]
 1010 0056 9B07     		lsls	r3, r3, #30
 1011 0058 FBD5     		bpl	.L124
 1012 005a DEE7     		b	.L123
 1013              	.L130:
 1014              		.loc 1 156 0
 1015 005c C2F8008B 		str	r8, [r2, #2816]
 1016              		.loc 1 158 0
 1017 0060 1A46     		mov	r2, r3
 1018              	.L127:
 1019 0062 D2F8083B 		ldr	r3, [r2, #2824]
 1020 0066 DB06     		lsls	r3, r3, #27
 1021 0068 FBD5     		bpl	.L127
 1022 006a E1E7     		b	.L126
 1023              	.L131:
 1024              		.loc 1 166 0
 1025 006c 4FF00113 		mov	r3, #65537
 1026 0070 C0F81C38 		str	r3, [r0, #2076]
ARM GAS  /tmp/cc6eJU2L.s 			page 19


 1027              		.loc 1 167 0
 1028 0074 BDE8F001 		pop	{r4, r5, r6, r7, r8}
 1029 0078 7047     		bx	lr
 1030              		.cfi_endproc
 1031              	.LFE293:
 1032              		.size	otg_disable_ep.isra.0, .-otg_disable_ep.isra.0
 1033 007a 00BFAFF3 		.section	.text.usb_lld_init,"ax",%progbits
 1033      0080
 1034              		.align	2
 1035              		.p2align 4,,15
 1036              		.global	usb_lld_init
 1037              		.thumb
 1038              		.thumb_func
 1039              		.type	usb_lld_init, %function
 1040              	usb_lld_init:
 1041              	.LFB274:
 1042              		.loc 1 744 0
 1043              		.cfi_startproc
 1044              		@ args = 0, pretend = 0, frame = 0
 1045              		@ frame_needed = 0, uses_anonymous_args = 0
 1046 0000 10B5     		push	{r4, lr}
 1047              		.cfi_def_cfa_offset 8
 1048              		.cfi_offset 4, -8
 1049              		.cfi_offset 14, -4
 1050              		.loc 1 748 0
 1051 0002 064C     		ldr	r4, .L133
 1052 0004 2046     		mov	r0, r4
 1053 0006 FFF7FEFF 		bl	usbObjectInit
 1054              	.LVL110:
 1055              		.loc 1 750 0
 1056 000a 4FF0A043 		mov	r3, #1342177280
 1057              		.loc 1 751 0
 1058 000e 044A     		ldr	r2, .L133+4
 1059              		.loc 1 750 0
 1060 0010 2365     		str	r3, [r4, #80]
 1061              		.loc 1 749 0
 1062 0012 0023     		movs	r3, #0
 1063              		.loc 1 751 0
 1064 0014 6265     		str	r2, [r4, #84]
 1065              		.loc 1 749 0
 1066 0016 2366     		str	r3, [r4, #96]
 1067              		.loc 1 754 0
 1068 0018 6366     		str	r3, [r4, #100]
 1069 001a 10BD     		pop	{r4, pc}
 1070              	.L134:
 1071              		.align	2
 1072              	.L133:
 1073 001c 00000000 		.word	.LANCHOR0
 1074 0020 00000000 		.word	.LANCHOR1
 1075              		.cfi_endproc
 1076              	.LFE274:
 1077              		.size	usb_lld_init, .-usb_lld_init
 1078 0024 AFF30080 		.section	.text.usb_lld_start,"ax",%progbits
 1078      AFF30080 
 1078      AFF30080 
 1079              		.align	2
 1080              		.p2align 4,,15
ARM GAS  /tmp/cc6eJU2L.s 			page 20


 1081              		.global	usb_lld_start
 1082              		.thumb
 1083              		.thumb_func
 1084              		.type	usb_lld_start, %function
 1085              	usb_lld_start:
 1086              	.LFB275:
 1087              		.loc 1 806 0
 1088              		.cfi_startproc
 1089              		@ args = 0, pretend = 0, frame = 0
 1090              		@ frame_needed = 0, uses_anonymous_args = 0
 1091              	.LVL111:
 1092 0000 70B5     		push	{r4, r5, r6, lr}
 1093              		.cfi_def_cfa_offset 16
 1094              		.cfi_offset 4, -16
 1095              		.cfi_offset 5, -12
 1096              		.cfi_offset 6, -8
 1097              		.cfi_offset 14, -4
 1098              		.loc 1 809 0
 1099 0002 0378     		ldrb	r3, [r0]	@ zero_extendqisi2
 1100              		.loc 1 807 0
 1101 0004 066D     		ldr	r6, [r0, #80]
 1102              	.LVL112:
 1103              		.loc 1 809 0
 1104 0006 012B     		cmp	r3, #1
 1105              		.loc 1 806 0
 1106 0008 82B0     		sub	sp, sp, #8
 1107              		.cfi_def_cfa_offset 24
 1108              		.loc 1 806 0
 1109 000a 0546     		mov	r5, r0
 1110              		.loc 1 809 0
 1111 000c 01D0     		beq	.L145
 1112              		.loc 1 893 0
 1113 000e 02B0     		add	sp, sp, #8
 1114              		@ sp needed
 1115 0010 70BD     		pop	{r4, r5, r6, pc}
 1116              	.LVL113:
 1117              	.L145:
 1118              		.loc 1 812 0
 1119 0012 2F4B     		ldr	r3, .L149
 1120 0014 9842     		cmp	r0, r3
 1121 0016 3BD0     		beq	.L146
 1122              	.LVL114:
 1123              	.L137:
 1124              		.loc 1 836 0
 1125 0018 0023     		movs	r3, #0
 1126              		.loc 1 841 0
 1127 001a 2E48     		ldr	r0, .L149+4
 1128              		.loc 1 844 0
 1129 001c 2E49     		ldr	r1, .L149+8
 1130              		.loc 1 836 0
 1131 001e EB65     		str	r3, [r5, #92]
 1132              		.loc 1 851 0
 1133 0020 4FF43412 		mov	r2, #2949120
 1134              		.loc 1 841 0
 1135 0024 F060     		str	r0, [r6, #12]
 1136              		.loc 1 844 0
 1137 0026 C6F80018 		str	r1, [r6, #2048]
ARM GAS  /tmp/cc6eJU2L.s 			page 21


 1138              		.loc 1 847 0
 1139 002a C6F8003E 		str	r3, [r6, #3584]
 1140              		.loc 1 851 0
 1141 002e B263     		str	r2, [r6, #56]
 1142              		.loc 1 806 0
 1143 0030 2C6D     		ldr	r4, [r5, #80]
 1144              	.LVL115:
 1145              	.LBB514:
 1146              	.LBB515:
 1147              	.LBB516:
 1148              	.LBB517:
 1149              		.loc 4 573 0
 1150 0032 2020     		movs	r0, #32
 1151 0034 FFF7FEFF 		bl	chSysPolledDelayX
 1152              	.LVL116:
 1153              	.LBE517:
 1154              	.LBE516:
 1155              		.loc 1 121 0
 1156 0038 0123     		movs	r3, #1
 1157 003a 2361     		str	r3, [r4, #16]
 1158              	.L139:
 1159              		.loc 1 122 0
 1160 003c 2369     		ldr	r3, [r4, #16]
 1161 003e DB07     		lsls	r3, r3, #31
 1162 0040 FCD4     		bmi	.L139
 1163              	.LVL117:
 1164              	.LBB518:
 1165              	.LBB519:
 1166              		.loc 4 573 0
 1167 0042 0C20     		movs	r0, #12
 1168 0044 FFF7FEFF 		bl	chSysPolledDelayX
 1169              	.LVL118:
 1170              	.L141:
 1171              	.LBE519:
 1172              	.LBE518:
 1173              		.loc 1 128 0
 1174 0048 2369     		ldr	r3, [r4, #16]
 1175 004a 002B     		cmp	r3, #0
 1176 004c FCDA     		bge	.L141
 1177              	.LBE515:
 1178              	.LBE514:
 1179              		.loc 1 861 0
 1180 004e 0024     		movs	r4, #0
 1181              	.LVL119:
 1182 0050 B460     		str	r4, [r6, #8]
 1183              		.loc 1 864 0
 1184 0052 286D     		ldr	r0, [r5, #80]
 1185 0054 696D     		ldr	r1, [r5, #84]
 1186 0056 FFF7FEFF 		bl	otg_disable_ep.isra.0
 1187              	.LVL120:
 1188              		.loc 1 871 0
 1189 005a 6B68     		ldr	r3, [r5, #4]
 1190              		.loc 1 868 0
 1191 005c C6F81048 		str	r4, [r6, #2064]
 1192              		.loc 1 871 0
 1193 0060 DB68     		ldr	r3, [r3, #12]
 1194              		.loc 1 869 0
ARM GAS  /tmp/cc6eJU2L.s 			page 22


 1195 0062 C6F81448 		str	r4, [r6, #2068]
 1196              		.loc 1 870 0
 1197 0066 C6F81C48 		str	r4, [r6, #2076]
 1198              		.loc 1 871 0
 1199 006a 6BB1     		cbz	r3, .L147
 1200              		.loc 1 875 0
 1201 006c 43F20803 		movw	r3, #12296
 1202 0070 B361     		str	r3, [r6, #24]
 1203              	.L143:
 1204              		.loc 1 881 0
 1205 0072 6B6E     		ldr	r3, [r5, #100]
 1206              		.loc 1 877 0
 1207 0074 4FF0FF32 		mov	r2, #-1
 1208 0078 7261     		str	r2, [r6, #20]
 1209              		.loc 1 881 0
 1210 007a CBB1     		cbz	r3, .L148
 1211              	.L144:
 1212              		.loc 1 891 0
 1213 007c B368     		ldr	r3, [r6, #8]
 1214 007e 43F00103 		orr	r3, r3, #1
 1215 0082 B360     		str	r3, [r6, #8]
 1216              		.loc 1 893 0
 1217 0084 02B0     		add	sp, sp, #8
 1218              		@ sp needed
 1219 0086 70BD     		pop	{r4, r5, r6, pc}
 1220              	.LVL121:
 1221              	.L147:
 1222              		.loc 1 872 0
 1223 0088 4FF44053 		mov	r3, #12288
 1224 008c B361     		str	r3, [r6, #24]
 1225 008e F0E7     		b	.L143
 1226              	.LVL122:
 1227              	.L146:
 1228              		.loc 1 814 0
 1229 0090 124B     		ldr	r3, .L149+12
 1230 0092 5A6B     		ldr	r2, [r3, #52]
 1231 0094 42F08002 		orr	r2, r2, #128
 1232 0098 5A63     		str	r2, [r3, #52]
 1233              		.loc 1 815 0
 1234 009a 5969     		ldr	r1, [r3, #20]
 1235 009c 0022     		movs	r2, #0
 1236 009e 41F08001 		orr	r1, r1, #128
 1237 00a2 5961     		str	r1, [r3, #20]
 1238              		.loc 1 818 0
 1239 00a4 4320     		movs	r0, #67
 1240              	.LVL123:
 1241              		.loc 1 815 0
 1242 00a6 5A61     		str	r2, [r3, #20]
 1243              		.loc 1 818 0
 1244 00a8 0E21     		movs	r1, #14
 1245 00aa FFF7FEFF 		bl	nvicEnableVector
 1246              	.LVL124:
 1247 00ae B3E7     		b	.L137
 1248              	.LVL125:
 1249              	.L148:
 1250              		.loc 1 882 0
 1251 00b0 4FF40671 		mov	r1, #536
ARM GAS  /tmp/cc6eJU2L.s 			page 23


 1252 00b4 0222     		movs	r2, #2
 1253 00b6 0A4B     		ldr	r3, .L149+16
 1254 00b8 0095     		str	r5, [sp]
 1255 00ba 05F16800 		add	r0, r5, #104
 1256 00be FFF7FEFF 		bl	chThdCreateI
 1257              	.LVL126:
 1258 00c2 6866     		str	r0, [r5, #100]
 1259              	.LVL127:
 1260              	.LBB520:
 1261              	.LBB521:
 1262              		.file 5 "ChibiOS_3.0.2/os/rt/include/chthreads.h"
 1263              		.loc 5 249 0
 1264 00c4 FFF7FEFF 		bl	chSchReadyI
 1265              	.LVL128:
 1266              	.LBE521:
 1267              	.LBE520:
 1268              		.loc 1 886 0
 1269 00c8 FFF7FEFF 		bl	chSchRescheduleS
 1270              	.LVL129:
 1271 00cc D6E7     		b	.L144
 1272              	.L150:
 1273 00ce 00BF     		.align	2
 1274              	.L149:
 1275 00d0 00000000 		.word	.LANCHOR0
 1276 00d4 40140040 		.word	1073747008
 1277 00d8 03002002 		.word	35651587
 1278 00dc 00380240 		.word	1073887232
 1279 00e0 00000000 		.word	usb_lld_pump
 1280              		.cfi_endproc
 1281              	.LFE275:
 1282              		.size	usb_lld_start, .-usb_lld_start
 1283 00e4 AFF30080 		.section	.text.usb_lld_stop,"ax",%progbits
 1283      AFF30080 
 1283      AFF30080 
 1284              		.align	2
 1285              		.p2align 4,,15
 1286              		.global	usb_lld_stop
 1287              		.thumb
 1288              		.thumb_func
 1289              		.type	usb_lld_stop, %function
 1290              	usb_lld_stop:
 1291              	.LFB276:
 1292              		.loc 1 902 0
 1293              		.cfi_startproc
 1294              		@ args = 0, pretend = 0, frame = 0
 1295              		@ frame_needed = 0, uses_anonymous_args = 0
 1296              	.LVL130:
 1297 0000 38B5     		push	{r3, r4, r5, lr}
 1298              		.cfi_def_cfa_offset 16
 1299              		.cfi_offset 3, -16
 1300              		.cfi_offset 4, -12
 1301              		.cfi_offset 5, -8
 1302              		.cfi_offset 14, -4
 1303              		.loc 1 906 0
 1304 0002 0378     		ldrb	r3, [r0]	@ zero_extendqisi2
 1305              		.loc 1 903 0
 1306 0004 056D     		ldr	r5, [r0, #80]
ARM GAS  /tmp/cc6eJU2L.s 			page 24


 1307              	.LVL131:
 1308              		.loc 1 906 0
 1309 0006 012B     		cmp	r3, #1
 1310              		.loc 1 902 0
 1311 0008 0446     		mov	r4, r0
 1312              		.loc 1 906 0
 1313 000a 0CD0     		beq	.L151
 1314              		.loc 1 910 0
 1315 000c 2846     		mov	r0, r5
 1316              	.LVL132:
 1317 000e 616D     		ldr	r1, [r4, #84]
 1318 0010 FFF7FEFF 		bl	otg_disable_ep.isra.0
 1319              	.LVL133:
 1320              		.loc 1 919 0
 1321 0014 094A     		ldr	r2, .L156
 1322              		.loc 1 912 0
 1323 0016 0023     		movs	r3, #0
 1324              		.loc 1 919 0
 1325 0018 9442     		cmp	r4, r2
 1326              		.loc 1 912 0
 1327 001a E365     		str	r3, [r4, #92]
 1328              		.loc 1 914 0
 1329 001c C5F81C38 		str	r3, [r5, #2076]
 1330              		.loc 1 915 0
 1331 0020 AB60     		str	r3, [r5, #8]
 1332              		.loc 1 916 0
 1333 0022 AB63     		str	r3, [r5, #56]
 1334              		.loc 1 919 0
 1335 0024 00D0     		beq	.L155
 1336              	.L151:
 1337 0026 38BD     		pop	{r3, r4, r5, pc}
 1338              	.LVL134:
 1339              	.L155:
 1340              		.loc 1 920 0
 1341 0028 4320     		movs	r0, #67
 1342 002a FFF7FEFF 		bl	nvicDisableVector
 1343              	.LVL135:
 1344              		.loc 1 921 0
 1345 002e 044B     		ldr	r3, .L156+4
 1346 0030 5A6B     		ldr	r2, [r3, #52]
 1347 0032 22F08002 		bic	r2, r2, #128
 1348 0036 5A63     		str	r2, [r3, #52]
 1349 0038 F5E7     		b	.L151
 1350              	.L157:
 1351 003a 00BF     		.align	2
 1352              	.L156:
 1353 003c 00000000 		.word	.LANCHOR0
 1354 0040 00380240 		.word	1073887232
 1355              		.cfi_endproc
 1356              	.LFE276:
 1357              		.size	usb_lld_stop, .-usb_lld_stop
 1358 0044 AFF30080 		.section	.text.usb_lld_reset,"ax",%progbits
 1358      AFF30080 
 1358      AFF30080 
 1359              		.align	2
 1360              		.p2align 4,,15
 1361              		.global	usb_lld_reset
ARM GAS  /tmp/cc6eJU2L.s 			page 25


 1362              		.thumb
 1363              		.thumb_func
 1364              		.type	usb_lld_reset, %function
 1365              	usb_lld_reset:
 1366              	.LFB277:
 1367              		.loc 1 941 0
 1368              		.cfi_startproc
 1369              		@ args = 0, pretend = 0, frame = 0
 1370              		@ frame_needed = 0, uses_anonymous_args = 0
 1371              	.LVL136:
 1372 0000 F8B5     		push	{r3, r4, r5, r6, r7, lr}
 1373              		.cfi_def_cfa_offset 24
 1374              		.cfi_offset 3, -24
 1375              		.cfi_offset 4, -20
 1376              		.cfi_offset 5, -16
 1377              		.cfi_offset 6, -12
 1378              		.cfi_offset 7, -8
 1379              		.cfi_offset 14, -4
 1380              		.loc 1 943 0
 1381 0002 046D     		ldr	r4, [r0, #80]
 1382              	.LVL137:
 1383              	.LBB522:
 1384              	.LBB523:
 1385              		.loc 1 182 0
 1386 0004 2023     		movs	r3, #32
 1387              	.LBE523:
 1388              	.LBE522:
 1389              		.loc 1 941 0
 1390 0006 0746     		mov	r7, r0
 1391              	.LBB527:
 1392              	.LBB526:
 1393              		.loc 1 182 0
 1394 0008 2361     		str	r3, [r4, #16]
 1395              	.L160:
 1396              		.loc 1 183 0
 1397 000a 2269     		ldr	r2, [r4, #16]
 1398 000c 12F02005 		ands	r5, r2, #32
 1399 0010 FBD1     		bne	.L160
 1400              	.LVL138:
 1401              	.LBB524:
 1402              	.LBB525:
 1403              		.loc 4 573 0
 1404 0012 0C20     		movs	r0, #12
 1405              	.LVL139:
 1406 0014 FFF7FEFF 		bl	chSysPolledDelayX
 1407              	.LVL140:
 1408 0018 7B6D     		ldr	r3, [r7, #84]
 1409 001a 9E68     		ldr	r6, [r3, #8]
 1410              	.LBE525:
 1411              	.LBE524:
 1412              	.LBE526:
 1413              	.LBE527:
 1414              		.loc 1 949 0
 1415 001c 2A46     		mov	r2, r5
 1416              		.loc 1 952 0
 1417 001e FF21     		movs	r1, #255
 1418              		.loc 1 950 0
ARM GAS  /tmp/cc6eJU2L.s 			page 26


 1419 0020 4FF00065 		mov	r5, #134217728
 1420              	.LVL141:
 1421              	.L162:
 1422 0024 04EB4213 		add	r3, r4, r2, lsl #5
 1423              		.loc 1 949 0 discriminator 2
 1424 0028 0132     		adds	r2, r2, #1
 1425              	.LVL142:
 1426 002a B242     		cmp	r2, r6
 1427              		.loc 1 950 0 discriminator 2
 1428 002c C3F80059 		str	r5, [r3, #2304]
 1429              		.loc 1 951 0 discriminator 2
 1430 0030 C3F8005B 		str	r5, [r3, #2816]
 1431              		.loc 1 952 0 discriminator 2
 1432 0034 C3F80819 		str	r1, [r3, #2312]
 1433              		.loc 1 953 0 discriminator 2
 1434 0038 C3F8081B 		str	r1, [r3, #2824]
 1435              		.loc 1 949 0 discriminator 2
 1436 003c F2D9     		bls	.L162
 1437              		.loc 1 957 0
 1438 003e 4FF0FF32 		mov	r2, #-1
 1439              	.LVL143:
 1440              		.loc 1 958 0
 1441 0042 4FF00113 		mov	r3, #65537
 1442              		.loc 1 957 0
 1443 0046 C4F81828 		str	r2, [r4, #2072]
 1444              		.loc 1 958 0
 1445 004a C4F81C38 		str	r3, [r4, #2076]
 1446              		.loc 1 941 0
 1447 004e 7B6D     		ldr	r3, [r7, #84]
 1448              	.LVL144:
 1449              	.LBB528:
 1450              	.LBB529:
 1451              		.loc 1 198 0
 1452 0050 1A68     		ldr	r2, [r3]
 1453 0052 BA65     		str	r2, [r7, #88]
 1454              	.LBE529:
 1455              	.LBE528:
 1456              		.loc 1 964 0
 1457 0054 1B68     		ldr	r3, [r3]
 1458 0056 6362     		str	r3, [r4, #36]
 1459              		.loc 1 941 0
 1460 0058 3A6D     		ldr	r2, [r7, #80]
 1461              	.LVL145:
 1462              	.LBB530:
 1463              	.LBB531:
 1464              		.loc 1 172 0
 1465 005a 1023     		movs	r3, #16
 1466 005c 1361     		str	r3, [r2, #16]
 1467              	.L164:
 1468              		.loc 1 173 0
 1469 005e 1369     		ldr	r3, [r2, #16]
 1470 0060 13F01005 		ands	r5, r3, #16
 1471 0064 FBD1     		bne	.L164
 1472              	.LVL146:
 1473              	.LBB532:
 1474              	.LBB533:
 1475              		.loc 4 573 0
ARM GAS  /tmp/cc6eJU2L.s 			page 27


 1476 0066 0C20     		movs	r0, #12
 1477 0068 FFF7FEFF 		bl	chSysPolledDelayX
 1478              	.LVL147:
 1479              	.LBE533:
 1480              	.LBE532:
 1481              	.LBE531:
 1482              	.LBE530:
 1483              		.loc 1 968 0
 1484 006c D4F80038 		ldr	r3, [r4, #2048]
 1485              		.loc 1 978 0
 1486 0070 104A     		ldr	r2, .L165
 1487              		.loc 1 976 0
 1488 0072 1148     		ldr	r0, .L165+4
 1489              		.loc 1 968 0
 1490 0074 23F4FE63 		bic	r3, r3, #2032
 1491 0078 C4F80038 		str	r3, [r4, #2048]
 1492              		.loc 1 971 0
 1493 007c A369     		ldr	r3, [r4, #24]
 1494 007e 43F44023 		orr	r3, r3, #786432
 1495 0082 43F01003 		orr	r3, r3, #16
 1496              		.loc 1 972 0
 1497 0086 0921     		movs	r1, #9
 1498              		.loc 1 971 0
 1499 0088 A361     		str	r3, [r4, #24]
 1500              		.loc 1 972 0
 1501 008a C4F81018 		str	r1, [r4, #2064]
 1502              		.loc 1 973 0
 1503 008e C4F81418 		str	r1, [r4, #2068]
 1504              		.loc 1 976 0
 1505 0092 F860     		str	r0, [r7, #12]
 1506              		.loc 1 977 0
 1507 0094 C4F8105B 		str	r5, [r4, #2832]
 1508              		.loc 1 978 0
 1509 0098 C4F8002B 		str	r2, [r4, #2816]
 1510              		.loc 1 980 0
 1511 009c C4F81059 		str	r5, [r4, #2320]
 1512              		.loc 1 981 0
 1513 00a0 C4F80029 		str	r2, [r4, #2304]
 1514              	.LVL148:
 1515              	.LBB534:
 1516              	.LBB535:
 1517              		.loc 1 212 0
 1518 00a4 BB6D     		ldr	r3, [r7, #88]
 1519              	.LVL149:
 1520              		.loc 1 213 0
 1521 00a6 03F11002 		add	r2, r3, #16
 1522              	.LBE535:
 1523              	.LBE534:
 1524              		.loc 1 983 0
 1525 00aa 43F48013 		orr	r3, r3, #1048576
 1526              	.LVL150:
 1527              	.LBB537:
 1528              	.LBB536:
 1529              		.loc 1 213 0
 1530 00ae BA65     		str	r2, [r7, #88]
 1531              	.LVL151:
 1532              	.LBE536:
ARM GAS  /tmp/cc6eJU2L.s 			page 28


 1533              	.LBE537:
 1534              		.loc 1 983 0
 1535 00b0 A362     		str	r3, [r4, #40]
 1536 00b2 F8BD     		pop	{r3, r4, r5, r6, r7, pc}
 1537              	.LVL152:
 1538              	.L166:
 1539              		.align	2
 1540              	.L165:
 1541 00b4 40800010 		.word	268468288
 1542 00b8 00000000 		.word	.LANCHOR2
 1543              		.cfi_endproc
 1544              	.LFE277:
 1545              		.size	usb_lld_reset, .-usb_lld_reset
 1546 00bc AFF30080 		.section	.text.usb_lld_set_address,"ax",%progbits
 1547              		.align	2
 1548              		.p2align 4,,15
 1549              		.global	usb_lld_set_address
 1550              		.thumb
 1551              		.thumb_func
 1552              		.type	usb_lld_set_address, %function
 1553              	usb_lld_set_address:
 1554              	.LFB278:
 1555              		.loc 1 995 0
 1556              		.cfi_startproc
 1557              		@ args = 0, pretend = 0, frame = 0
 1558              		@ frame_needed = 0, uses_anonymous_args = 0
 1559              		@ link register save eliminated.
 1560              	.LVL153:
 1561              		.loc 1 996 0
 1562 0000 036D     		ldr	r3, [r0, #80]
 1563              	.LVL154:
 1564              		.loc 1 998 0
 1565 0002 90F84E10 		ldrb	r1, [r0, #78]	@ zero_extendqisi2
 1566 0006 D3F80028 		ldr	r2, [r3, #2048]
 1567 000a 22F4FE62 		bic	r2, r2, #2032
 1568 000e 42EA0112 		orr	r2, r2, r1, lsl #4
 1569 0012 C3F80028 		str	r2, [r3, #2048]
 1570 0016 7047     		bx	lr
 1571              		.cfi_endproc
 1572              	.LFE278:
 1573              		.size	usb_lld_set_address, .-usb_lld_set_address
 1574 0018 AFF30080 		.section	.text.usb_lld_init_endpoint,"ax",%progbits
 1574      AFF30080 
 1575              		.align	2
 1576              		.p2align 4,,15
 1577              		.global	usb_lld_init_endpoint
 1578              		.thumb
 1579              		.thumb_func
 1580              		.type	usb_lld_init_endpoint, %function
 1581              	usb_lld_init_endpoint:
 1582              	.LFB279:
 1583              		.loc 1 1009 0
 1584              		.cfi_startproc
 1585              		@ args = 0, pretend = 0, frame = 0
 1586              		@ frame_needed = 0, uses_anonymous_args = 0
 1587              	.LVL155:
 1588 0000 2DE9F041 		push	{r4, r5, r6, r7, r8, lr}
ARM GAS  /tmp/cc6eJU2L.s 			page 29


 1589              		.cfi_def_cfa_offset 24
 1590              		.cfi_offset 4, -24
 1591              		.cfi_offset 5, -20
 1592              		.cfi_offset 6, -16
 1593              		.cfi_offset 7, -12
 1594              		.cfi_offset 8, -8
 1595              		.cfi_offset 14, -4
 1596 0004 0FFA81F8 		sxth	r8, r1
 1597 0008 00EB8806 		add	r6, r0, r8, lsl #2
 1598              		.loc 1 1009 0
 1599 000c 0D46     		mov	r5, r1
 1600              		.loc 1 1014 0
 1601 000e F368     		ldr	r3, [r6, #12]
 1602              		.loc 1 1011 0
 1603 0010 046D     		ldr	r4, [r0, #80]
 1604              	.LVL156:
 1605              		.loc 1 1014 0
 1606 0012 1A68     		ldr	r2, [r3]
 1607 0014 02F00302 		and	r2, r2, #3
 1608 0018 022A     		cmp	r2, #2
 1609 001a 5ED0     		beq	.L170
 1610 001c 032A     		cmp	r2, #3
 1611 001e 5ED0     		beq	.L171
 1612              		.loc 1 1016 0
 1613 0020 4C4F     		ldr	r7, .L183
 1614 0022 4D49     		ldr	r1, .L183+4
 1615              	.LVL157:
 1616 0024 012A     		cmp	r2, #1
 1617 0026 18BF     		it	ne
 1618 0028 0F46     		movne	r7, r1
 1619              	.L172:
 1620              	.LVL158:
 1621              		.loc 1 1032 0
 1622 002a 6901     		lsls	r1, r5, #5
 1623              		.loc 1 1033 0
 1624 002c DA68     		ldr	r2, [r3, #12]
 1625              		.loc 1 1032 0
 1626 002e 04EB010E 		add	lr, r4, r1
 1627 0032 4FF0000C 		mov	ip, #0
 1628 0036 CEF810CB 		str	ip, [lr, #2832]
 1629              		.loc 1 1033 0
 1630 003a 002A     		cmp	r2, #0
 1631 003c 75D0     		beq	.L173
 1632              		.loc 1 1034 0
 1633 003e B3F812E0 		ldrh	lr, [r3, #18]
 1634 0042 05F15802 		add	r2, r5, #88
 1635 0046 5201     		lsls	r2, r2, #5
 1636 0048 47EA0E0E 		orr	lr, r7, lr
 1637 004c 44F802E0 		str	lr, [r4, r2]
 1638              		.loc 1 1035 0
 1639 0050 4FF0010C 		mov	ip, #1
 1640 0054 D4F81C28 		ldr	r2, [r4, #2076]
 1641 0058 05F1100E 		add	lr, r5, #16
 1642 005c 0CFA0EFE 		lsl	lr, ip, lr
 1643 0060 4EEA0202 		orr	r2, lr, r2
 1644 0064 C4F81C28 		str	r2, [r4, #2076]
 1645              	.L174:
ARM GAS  /tmp/cc6eJU2L.s 			page 30


 1646              		.loc 1 1043 0
 1647 0068 2144     		add	r1, r1, r4
 1648              		.loc 1 1044 0
 1649 006a 9A68     		ldr	r2, [r3, #8]
 1650              		.loc 1 1043 0
 1651 006c 4FF0000E 		mov	lr, #0
 1652 0070 C1F810E9 		str	lr, [r1, #2320]
 1653              		.loc 1 1044 0
 1654 0074 002A     		cmp	r2, #0
 1655 0076 34D0     		beq	.L175
 1656              		.loc 1 1047 0
 1657 0078 9A8B     		ldrh	r2, [r3, #28]
 1658              		.loc 1 1046 0
 1659 007a 198A     		ldrh	r1, [r3, #16]
 1660              		.loc 1 1047 0
 1661 007c 012A     		cmp	r2, #1
 1662              		.loc 1 1046 0
 1663 007e 4FEA9103 		lsr	r3, r1, #2
 1664              	.LVL159:
 1665              		.loc 1 1048 0
 1666 0082 88BF     		it	hi
 1667 0084 5343     		mulhi	r3, r2, r3
 1668              	.LVL160:
 1669              		.loc 1 1049 0
 1670 0086 05F13F01 		add	r1, r5, #63
 1671              	.LBB538:
 1672              	.LBB539:
 1673              		.loc 1 212 0
 1674 008a 826D     		ldr	r2, [r0, #88]
 1675              	.LVL161:
 1676              	.LBE539:
 1677              	.LBE538:
 1678              		.loc 1 1049 0
 1679 008c 04EB8101 		add	r1, r4, r1, lsl #2
 1680              	.LBB542:
 1681              	.LBB540:
 1682              		.loc 1 213 0
 1683 0090 03EB020E 		add	lr, r3, r2
 1684              	.LBE540:
 1685              	.LBE542:
 1686              		.loc 1 1049 0
 1687 0094 42EA0343 		orr	r3, r2, r3, lsl #16
 1688              	.LVL162:
 1689              	.LBB543:
 1690              	.LBB541:
 1691              		.loc 1 213 0
 1692 0098 C0F858E0 		str	lr, [r0, #88]
 1693              	.LBE541:
 1694              	.LBE543:
 1695              		.loc 1 1049 0
 1696 009c 4B60     		str	r3, [r1, #4]
 1697              		.loc 1 1009 0
 1698 009e 026D     		ldr	r2, [r0, #80]
 1699              	.LVL163:
 1700              	.LBB544:
 1701              	.LBB545:
 1702              		.loc 1 182 0
ARM GAS  /tmp/cc6eJU2L.s 			page 31


 1703 00a0 AB01     		lsls	r3, r5, #6
 1704 00a2 43F02003 		orr	r3, r3, #32
 1705 00a6 1361     		str	r3, [r2, #16]
 1706              	.L178:
 1707              		.loc 1 183 0
 1708 00a8 1369     		ldr	r3, [r2, #16]
 1709 00aa 9906     		lsls	r1, r3, #26
 1710 00ac FCD4     		bmi	.L178
 1711              	.LVL164:
 1712              	.LBB546:
 1713              	.LBB547:
 1714              		.loc 4 573 0
 1715 00ae 0C20     		movs	r0, #12
 1716              	.LVL165:
 1717 00b0 FFF7FEFF 		bl	chSysPolledDelayX
 1718              	.LVL166:
 1719              	.LBE547:
 1720              	.LBE546:
 1721              	.LBE545:
 1722              	.LBE544:
 1723              		.loc 1 1055 0
 1724 00b4 F368     		ldr	r3, [r6, #12]
 1725              		.loc 1 1054 0
 1726 00b6 1A8A     		ldrh	r2, [r3, #16]
 1727              		.loc 1 1053 0
 1728 00b8 05F14803 		add	r3, r5, #72
 1729 00bc 42EA8552 		orr	r2, r2, r5, lsl #22
 1730 00c0 5B01     		lsls	r3, r3, #5
 1731              		.loc 1 1054 0
 1732 00c2 1743     		orrs	r7, r7, r2
 1733              	.LVL167:
 1734              		.loc 1 1053 0
 1735 00c4 E750     		str	r7, [r4, r3]
 1736              		.loc 1 1056 0
 1737 00c6 0122     		movs	r2, #1
 1738 00c8 D4F81C38 		ldr	r3, [r4, #2076]
 1739 00cc 02FA05F5 		lsl	r5, r2, r5
 1740              	.LVL168:
 1741 00d0 1D43     		orrs	r5, r5, r3
 1742 00d2 C4F81C58 		str	r5, [r4, #2076]
 1743 00d6 BDE8F081 		pop	{r4, r5, r6, r7, r8, pc}
 1744              	.LVL169:
 1745              	.L170:
 1746              		.loc 1 1022 0
 1747 00da 204F     		ldr	r7, .L183+8
 1748              		.loc 1 1023 0
 1749 00dc A5E7     		b	.L172
 1750              	.LVL170:
 1751              	.L171:
 1752              		.loc 1 1025 0
 1753 00de 204F     		ldr	r7, .L183+12
 1754              		.loc 1 1026 0
 1755 00e0 A3E7     		b	.L172
 1756              	.LVL171:
 1757              	.L175:
 1758              		.loc 1 1059 0
 1759 00e2 05F13F03 		add	r3, r5, #63
ARM GAS  /tmp/cc6eJU2L.s 			page 32


 1760 00e6 04EB8303 		add	r3, r4, r3, lsl #2
 1761 00ea 1E4A     		ldr	r2, .L183+16
 1762 00ec 5A60     		str	r2, [r3, #4]
 1763              		.loc 1 1009 0
 1764 00ee 026D     		ldr	r2, [r0, #80]
 1765              	.LVL172:
 1766              	.LBB548:
 1767              	.LBB549:
 1768              		.loc 1 182 0
 1769 00f0 AB01     		lsls	r3, r5, #6
 1770 00f2 43F02003 		orr	r3, r3, #32
 1771 00f6 1361     		str	r3, [r2, #16]
 1772              	.L181:
 1773              		.loc 1 183 0
 1774 00f8 1369     		ldr	r3, [r2, #16]
 1775 00fa 9B06     		lsls	r3, r3, #26
 1776 00fc FCD4     		bmi	.L181
 1777              	.LVL173:
 1778 00fe 04EB4818 		add	r8, r4, r8, lsl #5
 1779              	.LBB550:
 1780              	.LBB551:
 1781              		.loc 4 573 0
 1782 0102 0C20     		movs	r0, #12
 1783              	.LVL174:
 1784 0104 FFF7FEFF 		bl	chSysPolledDelayX
 1785              	.LVL175:
 1786              	.LBE551:
 1787              	.LBE550:
 1788              	.LBE549:
 1789              	.LBE548:
 1790              		.loc 1 1061 0
 1791 0108 D8F80039 		ldr	r3, [r8, #2304]
 1792 010c 23F40043 		bic	r3, r3, #32768
 1793 0110 C8F80039 		str	r3, [r8, #2304]
 1794              		.loc 1 1062 0
 1795 0114 D4F81C38 		ldr	r3, [r4, #2076]
 1796 0118 0122     		movs	r2, #1
 1797 011a 02FA05F5 		lsl	r5, r2, r5
 1798              	.LVL176:
 1799 011e 23EA0503 		bic	r3, r3, r5
 1800 0122 C4F81C38 		str	r3, [r4, #2076]
 1801 0126 BDE8F081 		pop	{r4, r5, r6, r7, r8, pc}
 1802              	.LVL177:
 1803              	.L173:
 1804 012a 04EB4812 		add	r2, r4, r8, lsl #5
 1805              		.loc 1 1039 0
 1806 012e 05F1100E 		add	lr, r5, #16
 1807              		.loc 1 1038 0
 1808 0132 D2F800CB 		ldr	ip, [r2, #2816]
 1809 0136 2CF4004C 		bic	ip, ip, #32768
 1810 013a C2F800CB 		str	ip, [r2, #2816]
 1811              		.loc 1 1039 0
 1812 013e D4F81C28 		ldr	r2, [r4, #2076]
 1813 0142 4FF0010C 		mov	ip, #1
 1814 0146 0CFA0EFE 		lsl	lr, ip, lr
 1815 014a 22EA0E02 		bic	r2, r2, lr
 1816 014e C4F81C28 		str	r2, [r4, #2076]
ARM GAS  /tmp/cc6eJU2L.s 			page 33


 1817 0152 89E7     		b	.L174
 1818              	.L184:
 1819              		.align	2
 1820              	.L183:
 1821 0154 00800410 		.word	268730368
 1822 0158 00800010 		.word	268468224
 1823 015c 00800810 		.word	268992512
 1824 0160 00800C10 		.word	269254656
 1825 0164 00040002 		.word	33555456
 1826              		.cfi_endproc
 1827              	.LFE279:
 1828              		.size	usb_lld_init_endpoint, .-usb_lld_init_endpoint
 1829 0168 AFF30080 		.section	.text.usb_lld_disable_endpoints,"ax",%progbits
 1829      AFF30080 
 1830              		.align	2
 1831              		.p2align 4,,15
 1832              		.global	usb_lld_disable_endpoints
 1833              		.thumb
 1834              		.thumb_func
 1835              		.type	usb_lld_disable_endpoints, %function
 1836              	usb_lld_disable_endpoints:
 1837              	.LFB280:
 1838              		.loc 1 1073 0
 1839              		.cfi_startproc
 1840              		@ args = 0, pretend = 0, frame = 0
 1841              		@ frame_needed = 0, uses_anonymous_args = 0
 1842              		@ link register save eliminated.
 1843              	.LVL178:
 1844              		.loc 1 1073 0
 1845 0000 416D     		ldr	r1, [r0, #84]
 1846              	.LVL179:
 1847 0002 0346     		mov	r3, r0
 1848              	.LBB552:
 1849              	.LBB553:
 1850              		.loc 1 198 0
 1851 0004 0A68     		ldr	r2, [r1]
 1852              	.LBE553:
 1853              	.LBE552:
 1854              		.loc 1 1079 0
 1855 0006 006D     		ldr	r0, [r0, #80]
 1856              	.LVL180:
 1857              	.LBB555:
 1858              	.LBB554:
 1859              		.loc 1 198 0
 1860 0008 9A65     		str	r2, [r3, #88]
 1861              	.LBE554:
 1862              	.LBE555:
 1863              		.loc 1 1079 0
 1864 000a FFF7FEBF 		b	otg_disable_ep.isra.0
 1865              	.LVL181:
 1866              		.cfi_endproc
 1867              	.LFE280:
 1868              		.size	usb_lld_disable_endpoints, .-usb_lld_disable_endpoints
 1869 000e 00BF     		.section	.text.usb_lld_get_status_out,"ax",%progbits
 1870              		.align	2
 1871              		.p2align 4,,15
 1872              		.global	usb_lld_get_status_out
ARM GAS  /tmp/cc6eJU2L.s 			page 34


 1873              		.thumb
 1874              		.thumb_func
 1875              		.type	usb_lld_get_status_out, %function
 1876              	usb_lld_get_status_out:
 1877              	.LFB281:
 1878              		.loc 1 1094 0
 1879              		.cfi_startproc
 1880              		@ args = 0, pretend = 0, frame = 0
 1881              		@ frame_needed = 0, uses_anonymous_args = 0
 1882              		@ link register save eliminated.
 1883              	.LVL182:
 1884              		.loc 1 1099 0
 1885 0000 5831     		adds	r1, r1, #88
 1886              	.LVL183:
 1887 0002 036D     		ldr	r3, [r0, #80]
 1888 0004 4901     		lsls	r1, r1, #5
 1889 0006 5B58     		ldr	r3, [r3, r1]
 1890              	.LVL184:
 1891              		.loc 1 1100 0
 1892 0008 13F40040 		ands	r0, r3, #32768
 1893              	.LVL185:
 1894 000c 04D0     		beq	.L187
 1895              		.loc 1 1102 0
 1896 000e 13F4001F 		tst	r3, #2097152
 1897              		.loc 1 1103 0
 1898 0012 0CBF     		ite	eq
 1899 0014 0220     		moveq	r0, #2
 1900 0016 0120     		movne	r0, #1
 1901              	.L187:
 1902              		.loc 1 1105 0
 1903 0018 7047     		bx	lr
 1904              		.cfi_endproc
 1905              	.LFE281:
 1906              		.size	usb_lld_get_status_out, .-usb_lld_get_status_out
 1907 001a 00BFAFF3 		.section	.text.usb_lld_get_status_in,"ax",%progbits
 1907      0080
 1908              		.align	2
 1909              		.p2align 4,,15
 1910              		.global	usb_lld_get_status_in
 1911              		.thumb
 1912              		.thumb_func
 1913              		.type	usb_lld_get_status_in, %function
 1914              	usb_lld_get_status_in:
 1915              	.LFB282:
 1916              		.loc 1 1119 0
 1917              		.cfi_startproc
 1918              		@ args = 0, pretend = 0, frame = 0
 1919              		@ frame_needed = 0, uses_anonymous_args = 0
 1920              		@ link register save eliminated.
 1921              	.LVL186:
 1922              		.loc 1 1124 0
 1923 0000 4831     		adds	r1, r1, #72
 1924              	.LVL187:
 1925 0002 036D     		ldr	r3, [r0, #80]
 1926 0004 4901     		lsls	r1, r1, #5
 1927 0006 5B58     		ldr	r3, [r3, r1]
 1928              	.LVL188:
ARM GAS  /tmp/cc6eJU2L.s 			page 35


 1929              		.loc 1 1125 0
 1930 0008 13F40040 		ands	r0, r3, #32768
 1931              	.LVL189:
 1932 000c 04D0     		beq	.L191
 1933              		.loc 1 1127 0
 1934 000e 13F4001F 		tst	r3, #2097152
 1935              		.loc 1 1128 0
 1936 0012 0CBF     		ite	eq
 1937 0014 0220     		moveq	r0, #2
 1938 0016 0120     		movne	r0, #1
 1939              	.L191:
 1940              		.loc 1 1130 0
 1941 0018 7047     		bx	lr
 1942              		.cfi_endproc
 1943              	.LFE282:
 1944              		.size	usb_lld_get_status_in, .-usb_lld_get_status_in
 1945 001a 00BFAFF3 		.section	.text.usb_lld_read_setup,"ax",%progbits
 1945      0080
 1946              		.align	2
 1947              		.p2align 4,,15
 1948              		.global	usb_lld_read_setup
 1949              		.thumb
 1950              		.thumb_func
 1951              		.type	usb_lld_read_setup, %function
 1952              	usb_lld_read_setup:
 1953              	.LFB283:
 1954              		.loc 1 1146 0
 1955              		.cfi_startproc
 1956              		@ args = 0, pretend = 0, frame = 0
 1957              		@ frame_needed = 0, uses_anonymous_args = 0
 1958              		@ link register save eliminated.
 1959              	.LVL190:
 1960              		.loc 1 1148 0
 1961 0000 00EB8101 		add	r1, r0, r1, lsl #2
 1962              	.LVL191:
 1963 0004 CB68     		ldr	r3, [r1, #12]
 1964 0006 1B6A     		ldr	r3, [r3, #32]
 1965 0008 1968     		ldr	r1, [r3]	@ unaligned
 1966 000a 5B68     		ldr	r3, [r3, #4]	@ unaligned
 1967 000c 5360     		str	r3, [r2, #4]	@ unaligned
 1968 000e 1160     		str	r1, [r2]	@ unaligned
 1969 0010 7047     		bx	lr
 1970              		.cfi_endproc
 1971              	.LFE283:
 1972              		.size	usb_lld_read_setup, .-usb_lld_read_setup
 1973 0012 00BFAFF3 		.section	.text.usb_lld_prepare_receive,"ax",%progbits
 1973      0080AFF3 
 1973      0080AFF3 
 1973      0080
 1974              		.align	2
 1975              		.p2align 4,,15
 1976              		.global	usb_lld_prepare_receive
 1977              		.thumb
 1978              		.thumb_func
 1979              		.type	usb_lld_prepare_receive, %function
 1980              	usb_lld_prepare_receive:
 1981              	.LFB284:
ARM GAS  /tmp/cc6eJU2L.s 			page 36


 1982              		.loc 1 1159 0
 1983              		.cfi_startproc
 1984              		@ args = 0, pretend = 0, frame = 0
 1985              		@ frame_needed = 0, uses_anonymous_args = 0
 1986              		@ link register save eliminated.
 1987              	.LVL192:
 1988              		.loc 1 1161 0
 1989 0000 00EB8103 		add	r3, r0, r1, lsl #2
 1990              		.loc 1 1159 0
 1991 0004 30B4     		push	{r4, r5}
 1992              		.cfi_def_cfa_offset 8
 1993              		.cfi_offset 4, -8
 1994              		.cfi_offset 5, -4
 1995              		.loc 1 1161 0
 1996 0006 DC68     		ldr	r4, [r3, #12]
 1997 0008 A269     		ldr	r2, [r4, #24]
 1998              	.LVL193:
 1999              		.loc 1 1164 0
 2000 000a 5368     		ldr	r3, [r2, #4]
 2001 000c 1361     		str	r3, [r2, #16]
 2002              		.loc 1 1165 0
 2003 000e 31B9     		cbnz	r1, .L199
 2004              		.loc 1 1165 0 is_stmt 0 discriminator 1
 2005 0010 402B     		cmp	r3, #64
 2006 0012 04D9     		bls	.L199
 2007              		.loc 1 1166 0 is_stmt 1
 2008 0014 4025     		movs	r5, #64
 2009 0016 5560     		str	r5, [r2, #4]
 2010 0018 094B     		ldr	r3, .L200
 2011 001a 3F25     		movs	r5, #63
 2012 001c 02E0     		b	.L197
 2013              	.L199:
 2014 001e 5D1E     		subs	r5, r3, #1
 2015 0020 43F0C043 		orr	r3, r3, #1610612736
 2016              	.L197:
 2017              		.loc 1 1168 0
 2018 0024 628A     		ldrh	r2, [r4, #18]
 2019              	.LVL194:
 2020              		.loc 1 1170 0
 2021 0026 006D     		ldr	r0, [r0, #80]
 2022              	.LVL195:
 2023              		.loc 1 1168 0
 2024 0028 AC18     		adds	r4, r5, r2
 2025              	.LVL196:
 2026 002a B4FBF2F2 		udiv	r2, r4, r2
 2027              	.LVL197:
 2028              		.loc 1 1170 0
 2029 002e 00EB4111 		add	r1, r0, r1, lsl #5
 2030              	.LVL198:
 2031 0032 43EAC242 		orr	r2, r3, r2, lsl #19
 2032              	.LVL199:
 2033 0036 C1F8102B 		str	r2, [r1, #2832]
 2034              		.loc 1 1173 0
 2035 003a 30BC     		pop	{r4, r5}
 2036 003c 7047     		bx	lr
 2037              	.L201:
 2038 003e 00BF     		.align	2
ARM GAS  /tmp/cc6eJU2L.s 			page 37


 2039              	.L200:
 2040 0040 40000060 		.word	1610612800
 2041              		.cfi_endproc
 2042              	.LFE284:
 2043              		.size	usb_lld_prepare_receive, .-usb_lld_prepare_receive
 2044 0044 AFF30080 		.section	.text.otg_epout_handler,"ax",%progbits
 2044      AFF30080 
 2044      AFF30080 
 2045              		.align	2
 2046              		.p2align 4,,15
 2047              		.thumb
 2048              		.thumb_func
 2049              		.type	otg_epout_handler, %function
 2050              	otg_epout_handler:
 2051              	.LFB271:
 2052              		.loc 1 581 0
 2053              		.cfi_startproc
 2054              		@ args = 0, pretend = 0, frame = 0
 2055              		@ frame_needed = 0, uses_anonymous_args = 0
 2056              	.LVL200:
 2057 0000 F8B5     		push	{r3, r4, r5, r6, r7, lr}
 2058              		.cfi_def_cfa_offset 24
 2059              		.cfi_offset 3, -24
 2060              		.cfi_offset 4, -20
 2061              		.cfi_offset 5, -16
 2062              		.cfi_offset 6, -12
 2063              		.cfi_offset 7, -8
 2064              		.cfi_offset 14, -4
 2065              		.loc 1 582 0
 2066 0002 076D     		ldr	r7, [r0, #80]
 2067              	.LVL201:
 2068              		.loc 1 583 0
 2069 0004 07EB4113 		add	r3, r7, r1, lsl #5
 2070              		.loc 1 581 0
 2071 0008 0546     		mov	r5, r0
 2072              		.loc 1 583 0
 2073 000a D3F8084B 		ldr	r4, [r3, #2824]
 2074              	.LVL202:
 2075              		.loc 1 586 0
 2076 000e C3F8084B 		str	r4, [r3, #2824]
 2077              		.loc 1 588 0
 2078 0012 2207     		lsls	r2, r4, #28
 2079              		.loc 1 581 0
 2080 0014 0E46     		mov	r6, r1
 2081              		.loc 1 588 0
 2082 0016 03D5     		bpl	.L203
 2083              		.loc 1 588 0 is_stmt 0 discriminator 1
 2084 0018 D7F81438 		ldr	r3, [r7, #2068]
 2085 001c 1B07     		lsls	r3, r3, #28
 2086 001e 19D4     		bmi	.L218
 2087              	.LVL203:
 2088              	.L203:
 2089              		.loc 1 594 0 is_stmt 1
 2090 0020 E207     		lsls	r2, r4, #31
 2091 0022 16D5     		bpl	.L202
 2092              		.loc 1 594 0 is_stmt 0 discriminator 1
 2093 0024 D7F81438 		ldr	r3, [r7, #2068]
ARM GAS  /tmp/cc6eJU2L.s 			page 38


 2094 0028 DB07     		lsls	r3, r3, #31
 2095 002a 12D5     		bpl	.L202
 2096              	.LBB556:
 2097              		.loc 1 596 0 is_stmt 1
 2098 002c 05EB8603 		add	r3, r5, r6, lsl #2
 2099 0030 DA68     		ldr	r2, [r3, #12]
 2100 0032 9369     		ldr	r3, [r2, #24]
 2101              	.LVL204:
 2102              		.loc 1 598 0
 2103 0034 5968     		ldr	r1, [r3, #4]
 2104 0036 1869     		ldr	r0, [r3, #16]
 2105 0038 8142     		cmp	r1, r0
 2106 003a 11D3     		bcc	.L219
 2107              		.loc 1 611 0
 2108 003c 6989     		ldrh	r1, [r5, #10]
 2109 003e D368     		ldr	r3, [r2, #12]
 2110              	.LVL205:
 2111 0040 0120     		movs	r0, #1
 2112 0042 00FA06F2 		lsl	r2, r0, r6
 2113              	.LVL206:
 2114 0046 21EA0202 		bic	r2, r1, r2
 2115 004a 6A81     		strh	r2, [r5, #10]	@ movhi
 2116 004c 3146     		mov	r1, r6
 2117 004e 2846     		mov	r0, r5
 2118 0050 9847     		blx	r3
 2119              	.LVL207:
 2120              	.L202:
 2121 0052 F8BD     		pop	{r3, r4, r5, r6, r7, pc}
 2122              	.LVL208:
 2123              	.L218:
 2124              	.LBE556:
 2125              		.loc 1 591 0
 2126 0054 00EB8103 		add	r3, r0, r1, lsl #2
 2127 0058 DB68     		ldr	r3, [r3, #12]
 2128 005a 5B68     		ldr	r3, [r3, #4]
 2129 005c 9847     		blx	r3
 2130              	.LVL209:
 2131 005e DFE7     		b	.L203
 2132              	.LVL210:
 2133              	.L219:
 2134              	.LBB569:
 2135              		.loc 1 602 0
 2136 0060 411A     		subs	r1, r0, r1
 2137              		.loc 1 603 0
 2138 0062 0024     		movs	r4, #0
 2139              	.LVL211:
 2140              		.loc 1 602 0
 2141 0064 5960     		str	r1, [r3, #4]
 2142              		.loc 1 603 0
 2143 0066 9C60     		str	r4, [r3, #8]
 2144              		.loc 1 604 0
 2145 0068 2846     		mov	r0, r5
 2146 006a 3146     		mov	r1, r6
 2147 006c FFF7FEFF 		bl	usb_lld_prepare_receive
 2148              	.LVL212:
 2149              	.LBB557:
 2150              	.LBB558:
ARM GAS  /tmp/cc6eJU2L.s 			page 39


 2151              	.LBB559:
 2152              	.LBB560:
 2153              	.LBB561:
 2154              		.loc 3 546 0
 2155 0070 2023     		movs	r3, #32
 2156              	@ 546 "ChibiOS_3.0.2/os/ext/CMSIS/include/core_cmFunc.h" 1
 2157 0072 83F31188 		MSR basepri, r3
 2158              	@ 0 "" 2
 2159              	.LVL213:
 2160              		.thumb
 2161 0076 2B6D     		ldr	r3, [r5, #80]
 2162 0078 03EB4616 		add	r6, r3, r6, lsl #5
 2163              	.LVL214:
 2164              	.LBE561:
 2165              	.LBE560:
 2166              	.LBE559:
 2167              	.LBE558:
 2168              	.LBE557:
 2169              	.LBB562:
 2170              	.LBB563:
 2171              		.loc 1 1214 0
 2172 007c D6F8003B 		ldr	r3, [r6, #2816]
 2173 0080 43F08063 		orr	r3, r3, #67108864
 2174 0084 C6F8003B 		str	r3, [r6, #2816]
 2175              	.LVL215:
 2176              	.LBE563:
 2177              	.LBE562:
 2178              	.LBB564:
 2179              	.LBB565:
 2180              	.LBB566:
 2181              	.LBB567:
 2182              	.LBB568:
 2183              		.loc 3 546 0
 2184              	@ 546 "ChibiOS_3.0.2/os/ext/CMSIS/include/core_cmFunc.h" 1
 2185 0088 84F31188 		MSR basepri, r4
 2186              	@ 0 "" 2
 2187              		.thumb
 2188 008c F8BD     		pop	{r3, r4, r5, r6, r7, pc}
 2189              	.LBE568:
 2190              	.LBE567:
 2191              	.LBE566:
 2192              	.LBE565:
 2193              	.LBE564:
 2194              	.LBE569:
 2195              		.cfi_endproc
 2196              	.LFE271:
 2197              		.size	otg_epout_handler, .-otg_epout_handler
 2198 008e 00BF     		.section	.text.usb_lld_prepare_transmit,"ax",%progbits
 2199              		.align	2
 2200              		.p2align 4,,15
 2201              		.global	usb_lld_prepare_transmit
 2202              		.thumb
 2203              		.thumb_func
 2204              		.type	usb_lld_prepare_transmit, %function
 2205              	usb_lld_prepare_transmit:
 2206              	.LFB285:
 2207              		.loc 1 1183 0
ARM GAS  /tmp/cc6eJU2L.s 			page 40


 2208              		.cfi_startproc
 2209              		@ args = 0, pretend = 0, frame = 0
 2210              		@ frame_needed = 0, uses_anonymous_args = 0
 2211              		@ link register save eliminated.
 2212              	.LVL216:
 2213              		.loc 1 1184 0
 2214 0000 00EB8103 		add	r3, r0, r1, lsl #2
 2215              		.loc 1 1183 0
 2216 0004 30B4     		push	{r4, r5}
 2217              		.cfi_def_cfa_offset 8
 2218              		.cfi_offset 4, -8
 2219              		.cfi_offset 5, -4
 2220              		.loc 1 1184 0
 2221 0006 DC68     		ldr	r4, [r3, #12]
 2222 0008 6269     		ldr	r2, [r4, #20]
 2223              	.LVL217:
 2224              		.loc 1 1187 0
 2225 000a 5368     		ldr	r3, [r2, #4]
 2226 000c 1361     		str	r3, [r2, #16]
 2227              		.loc 1 1188 0
 2228 000e A3B1     		cbz	r3, .L227
 2229              	.LBB570:
 2230              		.loc 1 1193 0
 2231 0010 69B1     		cbz	r1, .L223
 2232              	.L226:
 2233 0012 5D1E     		subs	r5, r3, #1
 2234              	.L224:
 2235              		.loc 1 1197 0
 2236 0014 228A     		ldrh	r2, [r4, #16]
 2237              	.LVL218:
 2238              		.loc 1 1199 0
 2239 0016 006D     		ldr	r0, [r0, #80]
 2240              	.LVL219:
 2241              		.loc 1 1197 0
 2242 0018 AC18     		adds	r4, r5, r2
 2243              	.LVL220:
 2244 001a B4FBF2F2 		udiv	r2, r4, r2
 2245              	.LVL221:
 2246              		.loc 1 1199 0
 2247 001e 00EB4111 		add	r1, r0, r1, lsl #5
 2248              	.LVL222:
 2249 0022 43EAC243 		orr	r3, r3, r2, lsl #19
 2250 0026 C1F81039 		str	r3, [r1, #2320]
 2251              	.LBE570:
 2252              		.loc 1 1202 0
 2253 002a 30BC     		pop	{r4, r5}
 2254 002c 7047     		bx	lr
 2255              	.LVL223:
 2256              	.L223:
 2257              	.LBB571:
 2258              		.loc 1 1193 0 discriminator 1
 2259 002e 402B     		cmp	r3, #64
 2260 0030 EFD9     		bls	.L226
 2261              		.loc 1 1194 0
 2262 0032 4023     		movs	r3, #64
 2263 0034 5360     		str	r3, [r2, #4]
 2264 0036 3F25     		movs	r5, #63
ARM GAS  /tmp/cc6eJU2L.s 			page 41


 2265 0038 ECE7     		b	.L224
 2266              	.L227:
 2267              	.LBE571:
 2268              		.loc 1 1190 0
 2269 003a 036D     		ldr	r3, [r0, #80]
 2270 003c 03EB4111 		add	r1, r3, r1, lsl #5
 2271              	.LVL224:
 2272 0040 4FF40023 		mov	r3, #524288
 2273 0044 C1F81039 		str	r3, [r1, #2320]
 2274              		.loc 1 1202 0
 2275 0048 30BC     		pop	{r4, r5}
 2276 004a 7047     		bx	lr
 2277              		.cfi_endproc
 2278              	.LFE285:
 2279              		.size	usb_lld_prepare_transmit, .-usb_lld_prepare_transmit
 2280 004c AFF30080 		.section	.text.otg_epin_handler,"ax",%progbits
 2281              		.align	2
 2282              		.p2align 4,,15
 2283              		.thumb
 2284              		.thumb_func
 2285              		.type	otg_epin_handler, %function
 2286              	otg_epin_handler:
 2287              	.LFB270:
 2288              		.loc 1 533 0
 2289              		.cfi_startproc
 2290              		@ args = 0, pretend = 0, frame = 0
 2291              		@ frame_needed = 0, uses_anonymous_args = 0
 2292              	.LVL225:
 2293 0000 2DE9F041 		push	{r4, r5, r6, r7, r8, lr}
 2294              		.cfi_def_cfa_offset 24
 2295              		.cfi_offset 4, -24
 2296              		.cfi_offset 5, -20
 2297              		.cfi_offset 6, -16
 2298              		.cfi_offset 7, -12
 2299              		.cfi_offset 8, -8
 2300              		.cfi_offset 14, -4
 2301              		.loc 1 534 0
 2302 0004 056D     		ldr	r5, [r0, #80]
 2303              	.LVL226:
 2304              		.loc 1 535 0
 2305 0006 05EB4113 		add	r3, r5, r1, lsl #5
 2306              		.loc 1 533 0
 2307 000a 0646     		mov	r6, r0
 2308              		.loc 1 535 0
 2309 000c D3F80849 		ldr	r4, [r3, #2312]
 2310              	.LVL227:
 2311              		.loc 1 537 0
 2312 0010 C3F80849 		str	r4, [r3, #2312]
 2313              		.loc 1 542 0
 2314 0014 E307     		lsls	r3, r4, #31
 2315              		.loc 1 533 0
 2316 0016 0F46     		mov	r7, r1
 2317              		.loc 1 542 0
 2318 0018 03D5     		bpl	.L229
 2319              		.loc 1 542 0 is_stmt 0 discriminator 1
 2320 001a D5F81038 		ldr	r3, [r5, #2064]
 2321 001e DA07     		lsls	r2, r3, #31
ARM GAS  /tmp/cc6eJU2L.s 			page 42


 2322 0020 0AD4     		bmi	.L244
 2323              	.LVL228:
 2324              	.L229:
 2325              		.loc 1 562 0 is_stmt 1
 2326 0022 2306     		lsls	r3, r4, #24
 2327 0024 06D5     		bpl	.L228
 2328              		.loc 1 563 0 discriminator 1
 2329 0026 0122     		movs	r2, #1
 2330 0028 D5F83438 		ldr	r3, [r5, #2100]
 2331 002c 02FA07F7 		lsl	r7, r2, r7
 2332              		.loc 1 562 0 discriminator 1
 2333 0030 1F42     		tst	r7, r3
 2334 0032 2BD1     		bne	.L245
 2335              	.L228:
 2336 0034 BDE8F081 		pop	{r4, r5, r6, r7, r8, pc}
 2337              	.LVL229:
 2338              	.L244:
 2339              	.LBB572:
 2340              		.loc 1 544 0
 2341 0038 00EB8103 		add	r3, r0, r1, lsl #2
 2342 003c DA68     		ldr	r2, [r3, #12]
 2343 003e 5369     		ldr	r3, [r2, #20]
 2344              	.LVL230:
 2345              		.loc 1 546 0
 2346 0040 D3F804E0 		ldr	lr, [r3, #4]
 2347 0044 D3F810C0 		ldr	ip, [r3, #16]
 2348 0048 E645     		cmp	lr, ip
 2349 004a 35D2     		bcs	.L230
 2350              		.loc 1 550 0
 2351 004c CEEB0C02 		rsb	r2, lr, ip
 2352              		.loc 1 551 0
 2353 0050 4FF00008 		mov	r8, #0
 2354              		.loc 1 550 0
 2355 0054 5A60     		str	r2, [r3, #4]
 2356              		.loc 1 551 0
 2357 0056 C3F80880 		str	r8, [r3, #8]
 2358              		.loc 1 552 0
 2359 005a FFF7FEFF 		bl	usb_lld_prepare_transmit
 2360              	.LVL231:
 2361              	.LBB573:
 2362              	.LBB574:
 2363              	.LBB575:
 2364              	.LBB576:
 2365              	.LBB577:
 2366              	.LBB578:
 2367              		.loc 3 546 0
 2368 005e 2023     		movs	r3, #32
 2369              	@ 546 "ChibiOS_3.0.2/os/ext/CMSIS/include/core_cmFunc.h" 1
 2370 0060 83F31188 		MSR basepri, r3
 2371              	@ 0 "" 2
 2372              	.LVL232:
 2373              		.thumb
 2374              	.LBE578:
 2375              	.LBE577:
 2376              	.LBE576:
 2377              	.LBE575:
 2378              	.LBE574:
ARM GAS  /tmp/cc6eJU2L.s 			page 43


 2379              	.LBE573:
 2380              	.LBB579:
 2381              	.LBB580:
 2382              		.loc 1 1227 0
 2383 0064 336D     		ldr	r3, [r6, #80]
 2384 0066 03EB4712 		add	r2, r3, r7, lsl #5
 2385              		.loc 1 1228 0
 2386 006a 0120     		movs	r0, #1
 2387              		.loc 1 1227 0
 2388 006c D2F80019 		ldr	r1, [r2, #2304]
 2389 0070 41F00441 		orr	r1, r1, #-2080374784
 2390 0074 C2F80019 		str	r1, [r2, #2304]
 2391              		.loc 1 1228 0
 2392 0078 D3F83418 		ldr	r1, [r3, #2100]
 2393 007c 00FA07F2 		lsl	r2, r0, r7
 2394 0080 0A43     		orrs	r2, r2, r1
 2395 0082 C3F83428 		str	r2, [r3, #2100]
 2396              	.LVL233:
 2397              	.LBE580:
 2398              	.LBE579:
 2399              	.LBB581:
 2400              	.LBB582:
 2401              	.LBB583:
 2402              	.LBB584:
 2403              	.LBB585:
 2404              	.LBB586:
 2405              		.loc 3 546 0
 2406              	@ 546 "ChibiOS_3.0.2/os/ext/CMSIS/include/core_cmFunc.h" 1
 2407 0086 88F31188 		MSR basepri, r8
 2408              	@ 0 "" 2
 2409              		.thumb
 2410 008a CAE7     		b	.L229
 2411              	.LVL234:
 2412              	.L245:
 2413              	.LBE586:
 2414              	.LBE585:
 2415              	.LBE584:
 2416              	.LBE583:
 2417              	.LBE582:
 2418              	.LBE581:
 2419              	.LBE572:
 2420              	.LBB587:
 2421              	.LBB588:
 2422              	.LBB589:
 2423              	.LBB590:
 2424              	.LBB591:
 2425              	.LBB592:
 2426 008c 2023     		movs	r3, #32
 2427              	@ 546 "ChibiOS_3.0.2/os/ext/CMSIS/include/core_cmFunc.h" 1
 2428 008e 83F31188 		MSR basepri, r3
 2429              	@ 0 "" 2
 2430              		.thumb
 2431              	.LBE592:
 2432              	.LBE591:
 2433              	.LBE590:
 2434              	.LBE589:
 2435              	.LBE588:
ARM GAS  /tmp/cc6eJU2L.s 			page 44


 2436              	.LBE587:
 2437              		.loc 1 566 0
 2438 0092 F36D     		ldr	r3, [r6, #92]
 2439              		.loc 1 567 0
 2440 0094 D5F83428 		ldr	r2, [r5, #2100]
 2441              		.loc 1 566 0
 2442 0098 3B43     		orrs	r3, r3, r7
 2443              		.loc 1 567 0
 2444 009a 22EA0707 		bic	r7, r2, r7
 2445              		.loc 1 566 0
 2446 009e F365     		str	r3, [r6, #92]
 2447              	.LBB593:
 2448              	.LBB594:
 2449              		.loc 4 728 0
 2450 00a0 06F16000 		add	r0, r6, #96
 2451              	.LBE594:
 2452              	.LBE593:
 2453              		.loc 1 567 0
 2454 00a4 C5F83478 		str	r7, [r5, #2100]
 2455              	.LVL235:
 2456              	.LBB596:
 2457              	.LBB595:
 2458              		.loc 4 728 0
 2459 00a8 0021     		movs	r1, #0
 2460 00aa FFF7FEFF 		bl	chThdResumeI
 2461              	.LVL236:
 2462              	.LBE595:
 2463              	.LBE596:
 2464              	.LBB597:
 2465              	.LBB598:
 2466              	.LBB599:
 2467              	.LBB600:
 2468              	.LBB601:
 2469              	.LBB602:
 2470              		.loc 3 546 0
 2471 00ae 0023     		movs	r3, #0
 2472              	@ 546 "ChibiOS_3.0.2/os/ext/CMSIS/include/core_cmFunc.h" 1
 2473 00b0 83F31188 		MSR basepri, r3
 2474              	@ 0 "" 2
 2475              		.thumb
 2476 00b4 BDE8F081 		pop	{r4, r5, r6, r7, r8, pc}
 2477              	.LVL237:
 2478              	.L230:
 2479              	.LBE602:
 2480              	.LBE601:
 2481              	.LBE600:
 2482              	.LBE599:
 2483              	.LBE598:
 2484              	.LBE597:
 2485              	.LBB603:
 2486              		.loc 1 559 0
 2487 00b8 B0F808E0 		ldrh	lr, [r0, #8]
 2488 00bc 9368     		ldr	r3, [r2, #8]
 2489              	.LVL238:
 2490 00be 4FF0010C 		mov	ip, #1
 2491 00c2 0CFA01F2 		lsl	r2, ip, r1
 2492              	.LVL239:
ARM GAS  /tmp/cc6eJU2L.s 			page 45


 2493 00c6 2EEA0202 		bic	r2, lr, r2
 2494 00ca 0281     		strh	r2, [r0, #8]	@ movhi
 2495 00cc 9847     		blx	r3
 2496              	.LVL240:
 2497 00ce A8E7     		b	.L229
 2498              	.LBE603:
 2499              		.cfi_endproc
 2500              	.LFE270:
 2501              		.size	otg_epin_handler, .-otg_epin_handler
 2502              		.section	.text.Vector14C,"ax",%progbits
 2503              		.align	2
 2504              		.p2align 4,,15
 2505              		.global	Vector14C
 2506              		.thumb
 2507              		.thumb_func
 2508              		.type	Vector14C, %function
 2509              	Vector14C:
 2510              	.LFB273:
 2511              		.loc 1 706 0
 2512              		.cfi_startproc
 2513              		@ args = 0, pretend = 0, frame = 0
 2514              		@ frame_needed = 0, uses_anonymous_args = 0
 2515              	.LVL241:
 2516 0000 70B5     		push	{r4, r5, r6, lr}
 2517              		.cfi_def_cfa_offset 16
 2518              		.cfi_offset 4, -16
 2519              		.cfi_offset 5, -12
 2520              		.cfi_offset 6, -8
 2521              		.cfi_offset 14, -4
 2522              	.LBB620:
 2523              	.LBB621:
 2524              		.loc 1 624 0
 2525 0002 3E4E     		ldr	r6, .L314
 2526 0004 356D     		ldr	r5, [r6, #80]
 2527              	.LVL242:
 2528              		.loc 1 627 0
 2529 0006 6B69     		ldr	r3, [r5, #20]
 2530              	.LVL243:
 2531              		.loc 1 628 0
 2532 0008 AC69     		ldr	r4, [r5, #24]
 2533 000a 1C40     		ands	r4, r4, r3
 2534              	.LVL244:
 2535              		.loc 1 632 0
 2536 000c E104     		lsls	r1, r4, #19
 2537              		.loc 1 629 0
 2538 000e 6C61     		str	r4, [r5, #20]
 2539              		.loc 1 632 0
 2540 0010 2ED4     		bmi	.L304
 2541              	.L248:
 2542              		.loc 1 638 0
 2543 0012 A204     		lsls	r2, r4, #18
 2544              		.loc 1 639 0
 2545 0014 48BF     		it	mi
 2546 0016 D5F80838 		ldrmi	r3, [r5, #2056]
 2547              		.loc 1 643 0
 2548 001a 2307     		lsls	r3, r4, #28
 2549 001c 04D5     		bpl	.L251
ARM GAS  /tmp/cc6eJU2L.s 			page 46


 2550              		.loc 1 644 0
 2551 001e 7368     		ldr	r3, [r6, #4]
 2552 0020 DB68     		ldr	r3, [r3, #12]
 2553 0022 0BB1     		cbz	r3, .L251
 2554 0024 3548     		ldr	r0, .L314
 2555 0026 9847     		blx	r3
 2556              	.LVL245:
 2557              	.L251:
 2558              		.loc 1 648 0
 2559 0028 E606     		lsls	r6, r4, #27
 2560 002a 2CD4     		bmi	.L305
 2561              	.L252:
 2562              		.loc 1 659 0
 2563 002c 6003     		lsls	r0, r4, #13
 2564              		.loc 1 658 0
 2565 002e D5F81858 		ldr	r5, [r5, #2072]
 2566              	.LVL246:
 2567              		.loc 1 659 0
 2568 0032 07D5     		bpl	.L254
 2569              		.loc 1 660 0
 2570 0034 E907     		lsls	r1, r5, #31
 2571 0036 49D4     		bmi	.L306
 2572              		.loc 1 662 0
 2573 0038 AA07     		lsls	r2, r5, #30
 2574 003a 4DD4     		bmi	.L307
 2575              	.L256:
 2576              		.loc 1 664 0
 2577 003c 6B07     		lsls	r3, r5, #29
 2578 003e 51D4     		bmi	.L308
 2579              	.L257:
 2580              		.loc 1 666 0
 2581 0040 2E07     		lsls	r6, r5, #28
 2582 0042 55D4     		bmi	.L309
 2583              	.L254:
 2584              		.loc 1 675 0
 2585 0044 2403     		lsls	r4, r4, #12
 2586              	.LVL247:
 2587 0046 07D5     		bpl	.L260
 2588              		.loc 1 676 0
 2589 0048 E803     		lsls	r0, r5, #15
 2590 004a 32D4     		bmi	.L310
 2591              		.loc 1 678 0
 2592 004c A903     		lsls	r1, r5, #14
 2593 004e 36D4     		bmi	.L311
 2594              	.L262:
 2595              		.loc 1 680 0
 2596 0050 6A03     		lsls	r2, r5, #13
 2597 0052 27D4     		bmi	.L312
 2598              	.L263:
 2599              		.loc 1 682 0
 2600 0054 2B03     		lsls	r3, r5, #12
 2601 0056 03D4     		bmi	.L313
 2602              	.L260:
 2603              	.LBE621:
 2604              	.LBE620:
 2605              		.loc 1 713 0
 2606 0058 BDE87040 		pop	{r4, r5, r6, lr}
ARM GAS  /tmp/cc6eJU2L.s 			page 47


 2607              	.LVL248:
 2608              		.loc 1 712 0
 2609 005c FFF7FEBF 		b	_port_irq_epilogue
 2610              	.LVL249:
 2611              	.L313:
 2612              	.LBB640:
 2613              	.LBB638:
 2614              		.loc 1 683 0
 2615 0060 2648     		ldr	r0, .L314
 2616 0062 0321     		movs	r1, #3
 2617 0064 FFF7FEFF 		bl	otg_epout_handler
 2618              	.LVL250:
 2619              	.LBE638:
 2620              	.LBE640:
 2621              		.loc 1 713 0
 2622 0068 BDE87040 		pop	{r4, r5, r6, lr}
 2623              	.LVL251:
 2624              		.loc 1 712 0
 2625 006c FFF7FEBF 		b	_port_irq_epilogue
 2626              	.LVL252:
 2627              	.L304:
 2628              	.LBB641:
 2629              	.LBB639:
 2630              		.loc 1 633 0
 2631 0070 3046     		mov	r0, r6
 2632 0072 FFF7FEFF 		bl	_usb_reset
 2633              	.LVL253:
 2634              		.loc 1 634 0
 2635 0076 7368     		ldr	r3, [r6, #4]
 2636 0078 1B68     		ldr	r3, [r3]
 2637 007a 002B     		cmp	r3, #0
 2638 007c C9D0     		beq	.L248
 2639 007e 3046     		mov	r0, r6
 2640 0080 0021     		movs	r1, #0
 2641 0082 9847     		blx	r3
 2642              	.LVL254:
 2643 0084 C5E7     		b	.L248
 2644              	.L305:
 2645              	.LVL255:
 2646              	.LBB622:
 2647              	.LBB623:
 2648              	.LBB624:
 2649              	.LBB625:
 2650              	.LBB626:
 2651              	.LBB627:
 2652              		.loc 3 546 0
 2653 0086 2023     		movs	r3, #32
 2654              	@ 546 "ChibiOS_3.0.2/os/ext/CMSIS/include/core_cmFunc.h" 1
 2655 0088 83F31188 		MSR basepri, r3
 2656              	@ 0 "" 2
 2657              		.thumb
 2658              	.LBE627:
 2659              	.LBE626:
 2660              	.LBE625:
 2661              	.LBE624:
 2662              	.LBE623:
 2663              	.LBE622:
ARM GAS  /tmp/cc6eJU2L.s 			page 48


 2664              		.loc 1 652 0
 2665 008c AB69     		ldr	r3, [r5, #24]
 2666              	.LBB628:
 2667              	.LBB629:
 2668              		.loc 4 728 0
 2669 008e 1C48     		ldr	r0, .L314+4
 2670              	.LBE629:
 2671              	.LBE628:
 2672              		.loc 1 652 0
 2673 0090 23F01003 		bic	r3, r3, #16
 2674 0094 AB61     		str	r3, [r5, #24]
 2675              	.LVL256:
 2676              	.LBB631:
 2677              	.LBB630:
 2678              		.loc 4 728 0
 2679 0096 0021     		movs	r1, #0
 2680 0098 FFF7FEFF 		bl	chThdResumeI
 2681              	.LVL257:
 2682              	.LBE630:
 2683              	.LBE631:
 2684              	.LBB632:
 2685              	.LBB633:
 2686              	.LBB634:
 2687              	.LBB635:
 2688              	.LBB636:
 2689              	.LBB637:
 2690              		.loc 3 546 0
 2691 009c 0023     		movs	r3, #0
 2692              	@ 546 "ChibiOS_3.0.2/os/ext/CMSIS/include/core_cmFunc.h" 1
 2693 009e 83F31188 		MSR basepri, r3
 2694              	@ 0 "" 2
 2695              		.thumb
 2696 00a2 C3E7     		b	.L252
 2697              	.LVL258:
 2698              	.L312:
 2699              	.LBE637:
 2700              	.LBE636:
 2701              	.LBE635:
 2702              	.LBE634:
 2703              	.LBE633:
 2704              	.LBE632:
 2705              		.loc 1 681 0
 2706 00a4 1548     		ldr	r0, .L314
 2707 00a6 0221     		movs	r1, #2
 2708 00a8 FFF7FEFF 		bl	otg_epout_handler
 2709              	.LVL259:
 2710              		.loc 1 682 0
 2711 00ac 2B03     		lsls	r3, r5, #12
 2712 00ae D3D5     		bpl	.L260
 2713 00b0 D6E7     		b	.L313
 2714              	.L310:
 2715              		.loc 1 677 0
 2716 00b2 0021     		movs	r1, #0
 2717 00b4 1148     		ldr	r0, .L314
 2718 00b6 FFF7FEFF 		bl	otg_epout_handler
 2719              	.LVL260:
 2720              		.loc 1 678 0
ARM GAS  /tmp/cc6eJU2L.s 			page 49


 2721 00ba A903     		lsls	r1, r5, #14
 2722 00bc C8D5     		bpl	.L262
 2723              	.L311:
 2724              		.loc 1 679 0
 2725 00be 0F48     		ldr	r0, .L314
 2726 00c0 0121     		movs	r1, #1
 2727 00c2 FFF7FEFF 		bl	otg_epout_handler
 2728              	.LVL261:
 2729              		.loc 1 680 0
 2730 00c6 6A03     		lsls	r2, r5, #13
 2731 00c8 C4D5     		bpl	.L263
 2732 00ca EBE7     		b	.L312
 2733              	.LVL262:
 2734              	.L306:
 2735              		.loc 1 661 0
 2736 00cc 0B48     		ldr	r0, .L314
 2737 00ce 0021     		movs	r1, #0
 2738 00d0 FFF7FEFF 		bl	otg_epin_handler
 2739              	.LVL263:
 2740              		.loc 1 662 0
 2741 00d4 AA07     		lsls	r2, r5, #30
 2742 00d6 B1D5     		bpl	.L256
 2743              	.L307:
 2744              		.loc 1 663 0
 2745 00d8 0848     		ldr	r0, .L314
 2746 00da 0121     		movs	r1, #1
 2747 00dc FFF7FEFF 		bl	otg_epin_handler
 2748              	.LVL264:
 2749              		.loc 1 664 0
 2750 00e0 6B07     		lsls	r3, r5, #29
 2751 00e2 ADD5     		bpl	.L257
 2752              	.L308:
 2753              		.loc 1 665 0
 2754 00e4 0548     		ldr	r0, .L314
 2755 00e6 0221     		movs	r1, #2
 2756 00e8 FFF7FEFF 		bl	otg_epin_handler
 2757              	.LVL265:
 2758              		.loc 1 666 0
 2759 00ec 2E07     		lsls	r6, r5, #28
 2760 00ee A9D5     		bpl	.L254
 2761              	.L309:
 2762              		.loc 1 667 0
 2763 00f0 0248     		ldr	r0, .L314
 2764 00f2 0321     		movs	r1, #3
 2765 00f4 FFF7FEFF 		bl	otg_epin_handler
 2766              	.LVL266:
 2767 00f8 A4E7     		b	.L254
 2768              	.L315:
 2769 00fa 00BF     		.align	2
 2770              	.L314:
 2771 00fc 00000000 		.word	.LANCHOR0
 2772 0100 60000000 		.word	.LANCHOR0+96
 2773              	.LBE639:
 2774              	.LBE641:
 2775              		.cfi_endproc
 2776              	.LFE273:
 2777              		.size	Vector14C, .-Vector14C
ARM GAS  /tmp/cc6eJU2L.s 			page 50


 2778 0104 AFF30080 		.section	.text.usb_lld_start_out,"ax",%progbits
 2778      AFF30080 
 2778      AFF30080 
 2779              		.align	2
 2780              		.p2align 4,,15
 2781              		.global	usb_lld_start_out
 2782              		.thumb
 2783              		.thumb_func
 2784              		.type	usb_lld_start_out, %function
 2785              	usb_lld_start_out:
 2786              	.LFB286:
 2787              		.loc 1 1212 0
 2788              		.cfi_startproc
 2789              		@ args = 0, pretend = 0, frame = 0
 2790              		@ frame_needed = 0, uses_anonymous_args = 0
 2791              		@ link register save eliminated.
 2792              	.LVL267:
 2793 0000 036D     		ldr	r3, [r0, #80]
 2794 0002 03EB4111 		add	r1, r3, r1, lsl #5
 2795              	.LVL268:
 2796              		.loc 1 1214 0
 2797 0006 D1F8003B 		ldr	r3, [r1, #2816]
 2798 000a 43F08063 		orr	r3, r3, #67108864
 2799 000e C1F8003B 		str	r3, [r1, #2816]
 2800 0012 7047     		bx	lr
 2801              		.cfi_endproc
 2802              	.LFE286:
 2803              		.size	usb_lld_start_out, .-usb_lld_start_out
 2804 0014 AFF30080 		.section	.text.usb_lld_start_in,"ax",%progbits
 2804      AFF30080 
 2804      AFF30080 
 2805              		.align	2
 2806              		.p2align 4,,15
 2807              		.global	usb_lld_start_in
 2808              		.thumb
 2809              		.thumb_func
 2810              		.type	usb_lld_start_in, %function
 2811              	usb_lld_start_in:
 2812              	.LFB287:
 2813              		.loc 1 1225 0
 2814              		.cfi_startproc
 2815              		@ args = 0, pretend = 0, frame = 0
 2816              		@ frame_needed = 0, uses_anonymous_args = 0
 2817              		@ link register save eliminated.
 2818              	.LVL269:
 2819              		.loc 1 1227 0
 2820 0000 036D     		ldr	r3, [r0, #80]
 2821 0002 03EB4112 		add	r2, r3, r1, lsl #5
 2822              		.loc 1 1225 0
 2823 0006 10B4     		push	{r4}
 2824              		.cfi_def_cfa_offset 4
 2825              		.cfi_offset 4, -4
 2826              		.loc 1 1227 0
 2827 0008 D2F80049 		ldr	r4, [r2, #2304]
 2828 000c 44F00444 		orr	r4, r4, #-2080374784
 2829 0010 C2F80049 		str	r4, [r2, #2304]
 2830              		.loc 1 1228 0
ARM GAS  /tmp/cc6eJU2L.s 			page 51


 2831 0014 D3F83428 		ldr	r2, [r3, #2100]
 2832              		.loc 1 1229 0
 2833 0018 5DF8044B 		ldr	r4, [sp], #4
 2834              		.loc 1 1228 0
 2835 001c 0120     		movs	r0, #1
 2836              	.LVL270:
 2837 001e 00FA01F1 		lsl	r1, r0, r1
 2838              	.LVL271:
 2839 0022 1143     		orrs	r1, r1, r2
 2840 0024 C3F83418 		str	r1, [r3, #2100]
 2841              		.loc 1 1229 0
 2842 0028 7047     		bx	lr
 2843              		.cfi_endproc
 2844              	.LFE287:
 2845              		.size	usb_lld_start_in, .-usb_lld_start_in
 2846 002a 00BFAFF3 		.section	.text.usb_lld_stall_out,"ax",%progbits
 2846      0080
 2847              		.align	2
 2848              		.p2align 4,,15
 2849              		.global	usb_lld_stall_out
 2850              		.thumb
 2851              		.thumb_func
 2852              		.type	usb_lld_stall_out, %function
 2853              	usb_lld_stall_out:
 2854              	.LFB288:
 2855              		.loc 1 1239 0
 2856              		.cfi_startproc
 2857              		@ args = 0, pretend = 0, frame = 0
 2858              		@ frame_needed = 0, uses_anonymous_args = 0
 2859              		@ link register save eliminated.
 2860              	.LVL272:
 2861 0000 036D     		ldr	r3, [r0, #80]
 2862 0002 03EB4111 		add	r1, r3, r1, lsl #5
 2863              	.LVL273:
 2864              		.loc 1 1241 0
 2865 0006 D1F8003B 		ldr	r3, [r1, #2816]
 2866 000a 43F40013 		orr	r3, r3, #2097152
 2867 000e C1F8003B 		str	r3, [r1, #2816]
 2868 0012 7047     		bx	lr
 2869              		.cfi_endproc
 2870              	.LFE288:
 2871              		.size	usb_lld_stall_out, .-usb_lld_stall_out
 2872 0014 AFF30080 		.section	.text.usb_lld_stall_in,"ax",%progbits
 2872      AFF30080 
 2872      AFF30080 
 2873              		.align	2
 2874              		.p2align 4,,15
 2875              		.global	usb_lld_stall_in
 2876              		.thumb
 2877              		.thumb_func
 2878              		.type	usb_lld_stall_in, %function
 2879              	usb_lld_stall_in:
 2880              	.LFB289:
 2881              		.loc 1 1252 0
 2882              		.cfi_startproc
 2883              		@ args = 0, pretend = 0, frame = 0
 2884              		@ frame_needed = 0, uses_anonymous_args = 0
ARM GAS  /tmp/cc6eJU2L.s 			page 52


 2885              		@ link register save eliminated.
 2886              	.LVL274:
 2887 0000 036D     		ldr	r3, [r0, #80]
 2888 0002 03EB4111 		add	r1, r3, r1, lsl #5
 2889              	.LVL275:
 2890              		.loc 1 1254 0
 2891 0006 D1F80039 		ldr	r3, [r1, #2304]
 2892 000a 43F40013 		orr	r3, r3, #2097152
 2893 000e C1F80039 		str	r3, [r1, #2304]
 2894 0012 7047     		bx	lr
 2895              		.cfi_endproc
 2896              	.LFE289:
 2897              		.size	usb_lld_stall_in, .-usb_lld_stall_in
 2898 0014 AFF30080 		.section	.text.usb_lld_clear_out,"ax",%progbits
 2898      AFF30080 
 2898      AFF30080 
 2899              		.align	2
 2900              		.p2align 4,,15
 2901              		.global	usb_lld_clear_out
 2902              		.thumb
 2903              		.thumb_func
 2904              		.type	usb_lld_clear_out, %function
 2905              	usb_lld_clear_out:
 2906              	.LFB290:
 2907              		.loc 1 1265 0
 2908              		.cfi_startproc
 2909              		@ args = 0, pretend = 0, frame = 0
 2910              		@ frame_needed = 0, uses_anonymous_args = 0
 2911              		@ link register save eliminated.
 2912              	.LVL276:
 2913 0000 036D     		ldr	r3, [r0, #80]
 2914 0002 03EB4111 		add	r1, r3, r1, lsl #5
 2915              	.LVL277:
 2916              		.loc 1 1267 0
 2917 0006 D1F8003B 		ldr	r3, [r1, #2816]
 2918 000a 23F40013 		bic	r3, r3, #2097152
 2919 000e C1F8003B 		str	r3, [r1, #2816]
 2920 0012 7047     		bx	lr
 2921              		.cfi_endproc
 2922              	.LFE290:
 2923              		.size	usb_lld_clear_out, .-usb_lld_clear_out
 2924 0014 AFF30080 		.section	.text.usb_lld_clear_in,"ax",%progbits
 2924      AFF30080 
 2924      AFF30080 
 2925              		.align	2
 2926              		.p2align 4,,15
 2927              		.global	usb_lld_clear_in
 2928              		.thumb
 2929              		.thumb_func
 2930              		.type	usb_lld_clear_in, %function
 2931              	usb_lld_clear_in:
 2932              	.LFB291:
 2933              		.loc 1 1278 0
 2934              		.cfi_startproc
 2935              		@ args = 0, pretend = 0, frame = 0
 2936              		@ frame_needed = 0, uses_anonymous_args = 0
 2937              		@ link register save eliminated.
ARM GAS  /tmp/cc6eJU2L.s 			page 53


 2938              	.LVL278:
 2939 0000 036D     		ldr	r3, [r0, #80]
 2940 0002 03EB4111 		add	r1, r3, r1, lsl #5
 2941              	.LVL279:
 2942              		.loc 1 1280 0
 2943 0006 D1F80039 		ldr	r3, [r1, #2304]
 2944 000a 23F40013 		bic	r3, r3, #2097152
 2945 000e C1F80039 		str	r3, [r1, #2304]
 2946 0012 7047     		bx	lr
 2947              		.cfi_endproc
 2948              	.LFE291:
 2949              		.size	usb_lld_clear_in, .-usb_lld_clear_in
 2950              		.global	USBD1
 2951 0014 AFF30080 		.section	.rodata.fsparams,"a",%progbits
 2951      AFF30080 
 2951      AFF30080 
 2952              		.align	2
 2953              		.set	.LANCHOR1,. + 0
 2954              		.type	fsparams, %object
 2955              		.size	fsparams, 12
 2956              	fsparams:
 2957 0000 80000000 		.word	128
 2958 0004 40010000 		.word	320
 2959 0008 03000000 		.word	3
 2960              		.section	.bss.USBD1,"aw",%nobits
 2961              		.align	3
 2962              		.set	.LANCHOR0,. + 0
 2963              		.type	USBD1, %object
 2964              		.size	USBD1, 640
 2965              	USBD1:
 2966 0000 00000000 		.space	640
 2966      00000000 
 2966      00000000 
 2966      00000000 
 2966      00000000 
 2967              		.section	.rodata.str1.4,"aMS",%progbits,1
 2968              		.align	2
 2969              	.LC0:
 2970 0000 7573625F 		.ascii	"usb_lld_pump\000"
 2970      6C6C645F 
 2970      70756D70 
 2970      00
 2971 000d 000000   		.section	.rodata.ep0config,"a",%progbits
 2972              		.align	2
 2973              		.set	.LANCHOR2,. + 0
 2974              		.type	ep0config, %object
 2975              		.size	ep0config, 36
 2976              	ep0config:
 2977 0000 00000000 		.word	0
 2978 0004 00000000 		.word	_usb_ep0setup
 2979 0008 00000000 		.word	_usb_ep0in
 2980 000c 00000000 		.word	_usb_ep0out
 2981 0010 4000     		.short	64
 2982 0012 4000     		.short	64
 2983 0014 00000000 		.word	ep0_state
 2984 0018 00000000 		.word	ep0_state
 2985 001c 0100     		.short	1
ARM GAS  /tmp/cc6eJU2L.s 			page 54


 2986 001e 0000     		.space	2
 2987 0020 00000000 		.word	ep0setup_buffer
 2988              		.section	.bss.ep0_state,"aw",%nobits
 2989              		.align	2
 2990              		.type	ep0_state, %object
 2991              		.size	ep0_state, 20
 2992              	ep0_state:
 2993 0000 00000000 		.space	20
 2993      00000000 
 2993      00000000 
 2993      00000000 
 2993      00000000 
 2994              		.section	.bss.ep0setup_buffer,"aw",%nobits
 2995              		.align	2
 2996              		.type	ep0setup_buffer, %object
 2997              		.size	ep0setup_buffer, 8
 2998              	ep0setup_buffer:
 2999 0000 00000000 		.space	8
 2999      00000000 
 3000              		.text
 3001              	.Letext0:
 3002              		.file 6 "/usr/lib/gcc/arm-none-eabi/4.8/include/stddef.h"
 3003              		.file 7 "/usr/include/newlib/machine/_default_types.h"
 3004              		.file 8 "/usr/include/newlib/stdint.h"
 3005              		.file 9 "ChibiOS_3.0.2/os/rt/ports/ARMCMx/compilers/GCC/chtypes.h"
 3006              		.file 10 "ChibiOS_3.0.2/os/rt/include/chsystypes.h"
 3007              		.file 11 "ChibiOS_3.0.2/os/rt/include/chschd.h"
 3008              		.file 12 "ChibiOS_3.0.2/os/ext/CMSIS/ST/stm32f407xx.h"
 3009              		.file 13 "ChibiOS_3.0.2/os/rt/ports/ARMCMx/chcore.h"
 3010              		.file 14 "ChibiOS_3.0.2/os/rt/ports/ARMCMx/chcore_v7m.h"
 3011              		.file 15 "ChibiOS_3.0.2/os/rt/include/chtm.h"
 3012              		.file 16 "ChibiOS_3.0.2/os/rt/include/chsem.h"
 3013              		.file 17 "ChibiOS_3.0.2/os/rt/include/chmtx.h"
 3014              		.file 18 "ChibiOS_3.0.2/os/rt/include/chqueues.h"
 3015              		.file 19 "ChibiOS_3.0.2/os/hal/include/usb.h"
 3016              		.file 20 "ChibiOS_3.0.2/os/hal/ports/STM32/LLD/OTGv1/usb_lld.h"
 3017              		.file 21 "ChibiOS_3.0.2/os/hal/ports/STM32/LLD/OTGv1/stm32_otg.h"
 3018              		.file 22 "ChibiOS_3.0.2/os/rt/include/chsys.h"
 3019              		.file 23 "ChibiOS_3.0.2/os/ext/CMSIS/include/core_cm4.h"
 3020              		.file 24 "ChibiOS_3.0.2/os/hal/ports/common/ARMCMx/nvic.h"