ARM GAS  /tmp/cczSItzL.s 			page 1


   1              		.syntax unified
   2              		.cpu cortex-m4
   3              		.eabi_attribute 27, 3
   4              		.eabi_attribute 28, 1
   5              		.fpu fpv4-sp-d16
   6              		.eabi_attribute 20, 1
   7              		.eabi_attribute 21, 1
   8              		.eabi_attribute 23, 3
   9              		.eabi_attribute 24, 1
  10              		.eabi_attribute 25, 1
  11              		.eabi_attribute 26, 1
  12              		.eabi_attribute 30, 2
  13              		.eabi_attribute 34, 1
  14              		.eabi_attribute 18, 4
  15              		.thumb
  16              		.file	"utils.c"
  17              		.text
  18              	.Ltext0:
  19              		.cfi_sections	.debug_frame
  20              		.section	.text.utils_step_towards,"ax",%progbits
  21              		.align	2
  22              		.p2align 4,,15
  23              		.global	utils_step_towards
  24              		.thumb
  25              		.thumb_func
  26              		.type	utils_step_towards, %function
  27              	utils_step_towards:
  28              	.LFB256:
  29              		.file 1 "utils.c"
  30              		.loc 1 29 0
  31              		.cfi_startproc
  32              		@ args = 0, pretend = 0, frame = 0
  33              		@ frame_needed = 0, uses_anonymous_args = 0
  34              		@ link register save eliminated.
  35              	.LVL0:
  36              		.loc 1 30 0
  37 0000 D0ED007A 		flds	s15, [r0]
  38 0004 F4EEC07A 		fcmpes	s15, s0
  39 0008 F1EE10FA 		fmstat
  40 000c 09D5     		bpl	.L13
  41              		.loc 1 31 0
  42 000e 77EEA07A 		fadds	s15, s15, s1
  43 0012 B4EEE70A 		fcmpes	s0, s15
  44 0016 F1EE10FA 		fmstat
  45 001a 0ADD     		ble	.L4
  46              	.L14:
  47              		.loc 1 38 0
  48 001c C0ED007A 		fsts	s15, [r0]
  49              	.L1:
  50 0020 7047     		bx	lr
  51              	.L13:
  52              		.loc 1 36 0
  53 0022 FDDD     		ble	.L1
  54              		.loc 1 37 0
  55 0024 77EEE07A 		fsubs	s15, s15, s1
  56 0028 B4EEE70A 		fcmpes	s0, s15
  57 002c F1EE10FA 		fmstat
ARM GAS  /tmp/cczSItzL.s 			page 2


  58 0030 F4D4     		bmi	.L14
  59              	.L4:
  60              		.loc 1 34 0
  61 0032 80ED000A 		fsts	s0, [r0]
  62 0036 7047     		bx	lr
  63              		.cfi_endproc
  64              	.LFE256:
  65              		.size	utils_step_towards, .-utils_step_towards
  66 0038 AFF30080 		.section	.text.utils_calc_ratio,"ax",%progbits
  66      AFF30080 
  67              		.align	2
  68              		.p2align 4,,15
  69              		.global	utils_calc_ratio
  70              		.thumb
  71              		.thumb_func
  72              		.type	utils_calc_ratio, %function
  73              	utils_calc_ratio:
  74              	.LFB257:
  75              		.loc 1 45 0
  76              		.cfi_startproc
  77              		@ args = 0, pretend = 0, frame = 0
  78              		@ frame_needed = 0, uses_anonymous_args = 0
  79              		@ link register save eliminated.
  80              	.LVL1:
  81              		.loc 1 46 0
  82 0000 31EE401A 		fsubs	s2, s2, s0
  83              	.LVL2:
  84 0004 30EEC00A 		fsubs	s0, s1, s0
  85              	.LVL3:
  86              		.loc 1 47 0
  87 0008 81EE000A 		fdivs	s0, s2, s0
  88 000c 7047     		bx	lr
  89              		.cfi_endproc
  90              	.LFE257:
  91              		.size	utils_calc_ratio, .-utils_calc_ratio
  92              		.section	.text.utils_norm_angle,"ax",%progbits
  93              		.align	2
  94              		.p2align 4,,15
  95              		.global	utils_norm_angle
  96              		.thumb
  97              		.thumb_func
  98              		.type	utils_norm_angle, %function
  99              	utils_norm_angle:
 100              	.LFB258:
 101              		.loc 1 55 0
 102              		.cfi_startproc
 103              		@ args = 0, pretend = 0, frame = 0
 104              		@ frame_needed = 0, uses_anonymous_args = 0
 105              	.LVL4:
 106 0000 10B5     		push	{r4, lr}
 107              		.cfi_def_cfa_offset 8
 108              		.cfi_offset 4, -8
 109              		.cfi_offset 14, -4
 110 0002 2DED028B 		fstmfdd	sp!, {d8}
 111              		.cfi_def_cfa_offset 16
 112              		.cfi_offset 80, -16
 113              		.loc 1 56 0
ARM GAS  /tmp/cczSItzL.s 			page 3


 114 0006 9FED0A8A 		flds	s16, .L21
 115 000a 90ED000A 		flds	s0, [r0]
 116 000e F0EE480A 		fcpys	s1, s16
 117              		.loc 1 55 0
 118 0012 0446     		mov	r4, r0
 119              		.loc 1 56 0
 120 0014 FFF7FEFF 		bl	fmodf
 121              	.LVL5:
 122              		.loc 1 58 0
 123 0018 B5EEC00A 		fcmpezs	s0
 124 001c F1EE10FA 		fmstat
 125              		.loc 1 59 0
 126 0020 48BF     		it	mi
 127 0022 30EE080A 		faddsmi	s0, s0, s16
 128              		.loc 1 61 0
 129 0026 BDEC028B 		fldmfdd	sp!, {d8}
 130              		.loc 1 59 0
 131 002a 84ED000A 		fsts	s0, [r4]
 132              		.loc 1 61 0
 133 002e 10BD     		pop	{r4, pc}
 134              	.LVL6:
 135              	.L22:
 136              		.align	2
 137              	.L21:
 138 0030 0000B443 		.word	1135869952
 139              		.cfi_endproc
 140              	.LFE258:
 141              		.size	utils_norm_angle, .-utils_norm_angle
 142 0034 AFF30080 		.section	.text.utils_norm_angle_rad,"ax",%progbits
 142      AFF30080 
 142      AFF30080 
 143              		.align	2
 144              		.p2align 4,,15
 145              		.global	utils_norm_angle_rad
 146              		.thumb
 147              		.thumb_func
 148              		.type	utils_norm_angle_rad, %function
 149              	utils_norm_angle_rad:
 150              	.LFB259:
 151              		.loc 1 72 0
 152              		.cfi_startproc
 153              		@ args = 0, pretend = 0, frame = 0
 154              		@ frame_needed = 0, uses_anonymous_args = 0
 155              		@ link register save eliminated.
 156              	.LVL7:
 157              		.loc 1 73 0
 158 0000 D0ED007A 		flds	s15, [r0]
 159 0004 DFED126A 		flds	s13, .L35
 160 0008 F4EEE67A 		fcmpes	s15, s13
 161 000c F1EE10FA 		fmstat
 162 0010 0AD5     		bpl	.L24
 163              		.loc 1 74 0
 164 0012 9FED107A 		flds	s14, .L35+4
 165              	.L28:
 166 0016 77EE877A 		fadds	s15, s15, s14
 167              		.loc 1 73 0
 168 001a F4EEE67A 		fcmpes	s15, s13
ARM GAS  /tmp/cczSItzL.s 			page 4


 169 001e F1EE10FA 		fmstat
 170 0022 F8D4     		bmi	.L28
 171 0024 C0ED007A 		fsts	s15, [r0]
 172              	.L24:
 173              		.loc 1 77 0 discriminator 1
 174 0028 DFED0B6A 		flds	s13, .L35+8
 175 002c F4EEE67A 		fcmpes	s15, s13
 176 0030 F1EE10FA 		fmstat
 177 0034 0ADD     		ble	.L23
 178              		.loc 1 78 0
 179 0036 9FED077A 		flds	s14, .L35+4
 180              	.L32:
 181 003a 77EEC77A 		fsubs	s15, s15, s14
 182              		.loc 1 77 0
 183 003e F4EEE67A 		fcmpes	s15, s13
 184 0042 F1EE10FA 		fmstat
 185 0046 F8DC     		bgt	.L32
 186 0048 C0ED007A 		fsts	s15, [r0]
 187              	.L23:
 188 004c 7047     		bx	lr
 189              	.L36:
 190 004e 00BF     		.align	2
 191              	.L35:
 192 0050 DB0F49C0 		.word	3226013659
 193 0054 DB0FC940 		.word	1086918619
 194 0058 DB0F4940 		.word	1078530011
 195              		.cfi_endproc
 196              	.LFE259:
 197              		.size	utils_norm_angle_rad, .-utils_norm_angle_rad
 198 005c AFF30080 		.section	.text.utils_truncate_number,"ax",%progbits
 199              		.align	2
 200              		.p2align 4,,15
 201              		.global	utils_truncate_number
 202              		.thumb
 203              		.thumb_func
 204              		.type	utils_truncate_number, %function
 205              	utils_truncate_number:
 206              	.LFB260:
 207              		.loc 1 82 0
 208              		.cfi_startproc
 209              		@ args = 0, pretend = 0, frame = 0
 210              		@ frame_needed = 0, uses_anonymous_args = 0
 211              		@ link register save eliminated.
 212              	.LVL8:
 213              		.loc 1 85 0
 214 0000 D0ED007A 		flds	s15, [r0]
 215 0004 F4EEE07A 		fcmpes	s15, s1
 216 0008 F1EE10FA 		fmstat
 217 000c 09DC     		bgt	.L47
 218              		.loc 1 88 0
 219 000e F4EEC07A 		fcmpes	s15, s0
 220 0012 F1EE10FA 		fmstat
 221              		.loc 1 89 0
 222 0016 46BF     		itte	mi
 223 0018 80ED000A 		fstsmi	s0, [r0]
 224              	.LVL9:
 225              		.loc 1 90 0
ARM GAS  /tmp/cczSItzL.s 			page 5


 226 001c 0120     		movmi	r0, #1
 227              	.LVL10:
 228              		.loc 1 83 0
 229 001e 0020     		movpl	r0, #0
 230              	.LVL11:
 231              		.loc 1 94 0
 232 0020 7047     		bx	lr
 233              	.LVL12:
 234              	.L47:
 235              		.loc 1 86 0
 236 0022 C0ED000A 		fsts	s1, [r0]
 237              	.LVL13:
 238              		.loc 1 87 0
 239 0026 0120     		movs	r0, #1
 240              	.LVL14:
 241 0028 7047     		bx	lr
 242              		.cfi_endproc
 243              	.LFE260:
 244              		.size	utils_truncate_number, .-utils_truncate_number
 245 002a 00BFAFF3 		.section	.text.utils_truncate_number_int,"ax",%progbits
 245      0080
 246              		.align	2
 247              		.p2align 4,,15
 248              		.global	utils_truncate_number_int
 249              		.thumb
 250              		.thumb_func
 251              		.type	utils_truncate_number_int, %function
 252              	utils_truncate_number_int:
 253              	.LFB261:
 254              		.loc 1 96 0
 255              		.cfi_startproc
 256              		@ args = 0, pretend = 0, frame = 0
 257              		@ frame_needed = 0, uses_anonymous_args = 0
 258              		@ link register save eliminated.
 259              	.LVL15:
 260              		.loc 1 99 0
 261 0000 0368     		ldr	r3, [r0]
 262 0002 9342     		cmp	r3, r2
 263 0004 05DC     		bgt	.L52
 264              		.loc 1 102 0
 265 0006 8B42     		cmp	r3, r1
 266              		.loc 1 103 0
 267 0008 BABF     		itte	lt
 268 000a 0160     		strlt	r1, [r0]
 269              	.LVL16:
 270              		.loc 1 104 0
 271 000c 0120     		movlt	r0, #1
 272              	.LVL17:
 273              		.loc 1 97 0
 274 000e 0020     		movge	r0, #0
 275              	.LVL18:
 276              		.loc 1 108 0
 277 0010 7047     		bx	lr
 278              	.LVL19:
 279              	.L52:
 280              		.loc 1 100 0
 281 0012 0260     		str	r2, [r0]
ARM GAS  /tmp/cczSItzL.s 			page 6


 282              	.LVL20:
 283              		.loc 1 101 0
 284 0014 0120     		movs	r0, #1
 285              	.LVL21:
 286 0016 7047     		bx	lr
 287              		.cfi_endproc
 288              	.LFE261:
 289              		.size	utils_truncate_number_int, .-utils_truncate_number_int
 290 0018 AFF30080 		.section	.text.utils_truncate_number_abs,"ax",%progbits
 290      AFF30080 
 291              		.align	2
 292              		.p2align 4,,15
 293              		.global	utils_truncate_number_abs
 294              		.thumb
 295              		.thumb_func
 296              		.type	utils_truncate_number_abs, %function
 297              	utils_truncate_number_abs:
 298              	.LFB262:
 299              		.loc 1 110 0
 300              		.cfi_startproc
 301              		@ args = 0, pretend = 0, frame = 0
 302              		@ frame_needed = 0, uses_anonymous_args = 0
 303              		@ link register save eliminated.
 304              	.LVL22:
 305              		.loc 1 113 0
 306 0000 D0ED007A 		flds	s15, [r0]
 307 0004 F4EEC07A 		fcmpes	s15, s0
 308 0008 F1EE10FA 		fmstat
 309 000c 06DC     		bgt	.L63
 310              		.loc 1 116 0
 311 000e B1EE400A 		fnegs	s0, s0
 312              	.LVL23:
 313 0012 F4EEC07A 		fcmpes	s15, s0
 314 0016 F1EE10FA 		fmstat
 315 001a 03D5     		bpl	.L62
 316              	.L63:
 317              		.loc 1 117 0
 318 001c 80ED000A 		fsts	s0, [r0]
 319              	.LVL24:
 320              		.loc 1 118 0
 321 0020 0120     		movs	r0, #1
 322              	.LVL25:
 323 0022 7047     		bx	lr
 324              	.LVL26:
 325              	.L62:
 326              		.loc 1 111 0
 327 0024 0020     		movs	r0, #0
 328              	.LVL27:
 329              		.loc 1 122 0
 330 0026 7047     		bx	lr
 331              		.cfi_endproc
 332              	.LFE262:
 333              		.size	utils_truncate_number_abs, .-utils_truncate_number_abs
 334 0028 AFF30080 		.section	.text.utils_map,"ax",%progbits
 334      AFF30080 
 335              		.align	2
 336              		.p2align 4,,15
ARM GAS  /tmp/cczSItzL.s 			page 7


 337              		.global	utils_map
 338              		.thumb
 339              		.thumb_func
 340              		.type	utils_map, %function
 341              	utils_map:
 342              	.LFB263:
 343              		.loc 1 124 0
 344              		.cfi_startproc
 345              		@ args = 0, pretend = 0, frame = 0
 346              		@ frame_needed = 0, uses_anonymous_args = 0
 347              		@ link register save eliminated.
 348              	.LVL28:
 349              		.loc 1 125 0
 350 0000 30EE600A 		fsubs	s0, s0, s1
 351              	.LVL29:
 352 0004 32EE612A 		fsubs	s4, s4, s3
 353              	.LVL30:
 354 0008 31EE601A 		fsubs	s2, s2, s1
 355              	.LVL31:
 356 000c 20EE020A 		fmuls	s0, s0, s4
 357 0010 80EE010A 		fdivs	s0, s0, s2
 358              		.loc 1 126 0
 359 0014 30EE210A 		fadds	s0, s0, s3
 360 0018 7047     		bx	lr
 361              		.cfi_endproc
 362              	.LFE263:
 363              		.size	utils_map, .-utils_map
 364 001a 00BFAFF3 		.section	.text.utils_map_int,"ax",%progbits
 364      0080
 365              		.align	2
 366              		.p2align 4,,15
 367              		.global	utils_map_int
 368              		.thumb
 369              		.thumb_func
 370              		.type	utils_map_int, %function
 371              	utils_map_int:
 372              	.LFB264:
 373              		.loc 1 128 0
 374              		.cfi_startproc
 375              		@ args = 4, pretend = 0, frame = 0
 376              		@ frame_needed = 0, uses_anonymous_args = 0
 377              		@ link register save eliminated.
 378              	.LVL32:
 379 0000 10B4     		push	{r4}
 380              		.cfi_def_cfa_offset 4
 381              		.cfi_offset 4, -4
 382              		.loc 1 128 0
 383 0002 019C     		ldr	r4, [sp, #4]
 384              		.loc 1 129 0
 385 0004 401A     		subs	r0, r0, r1
 386              	.LVL33:
 387 0006 E41A     		subs	r4, r4, r3
 388 0008 04FB00F0 		mul	r0, r4, r0
 389 000c 521A     		subs	r2, r2, r1
 390              	.LVL34:
 391 000e 90FBF2F0 		sdiv	r0, r0, r2
 392              		.loc 1 130 0
ARM GAS  /tmp/cczSItzL.s 			page 8


 393 0012 1844     		add	r0, r0, r3
 394 0014 5DF8044B 		ldr	r4, [sp], #4
 395 0018 7047     		bx	lr
 396              		.cfi_endproc
 397              	.LFE264:
 398              		.size	utils_map_int, .-utils_map_int
 399 001a 00BFAFF3 		.section	.text.utils_deadband,"ax",%progbits
 399      0080
 400              		.align	2
 401              		.p2align 4,,15
 402              		.global	utils_deadband
 403              		.thumb
 404              		.thumb_func
 405              		.type	utils_deadband, %function
 406              	utils_deadband:
 407              	.LFB265:
 408              		.loc 1 136 0
 409              		.cfi_startproc
 410              		@ args = 0, pretend = 0, frame = 0
 411              		@ frame_needed = 0, uses_anonymous_args = 0
 412              		@ link register save eliminated.
 413              	.LVL35:
 414              		.loc 1 137 0
 415 0000 D0ED007A 		flds	s15, [r0]
 416 0004 B0EEE77A 		fabss	s14, s15
 417 0008 B4EEC07A 		fcmpes	s14, s0
 418 000c F1EE10FA 		fmstat
 419 0010 17D4     		bmi	.L76
 420              	.LBB24:
 421              		.loc 1 140 0
 422 0012 30EEC00A 		fsubs	s0, s1, s0
 423              	.LVL36:
 424              		.loc 1 142 0
 425 0016 B7EE007A 		fconsts	s14, #112
 426              		.loc 1 140 0
 427 001a 80EE800A 		fdivs	s0, s1, s0
 428              	.LVL37:
 429              		.loc 1 141 0
 430 001e F5EEC07A 		fcmpezs	s15
 431              		.loc 1 142 0
 432 0022 37EE407A 		fsubs	s14, s14, s0
 433              		.loc 1 141 0
 434 0026 F1EE10FA 		fmstat
 435              		.loc 1 142 0
 436 002a 67EE200A 		fmuls	s1, s14, s1
 437              	.LVL38:
 438              		.loc 1 144 0
 439 002e D6BF     		itet	le
 440 0030 E7EEC00A 		vfmsle.f32	s1, s15, s0
 441              		.loc 1 142 0
 442 0034 E7EE800A 		vfmagt.f32	s1, s15, s0
 443              		.loc 1 144 0
 444 0038 F1EE600A 		fnegsle	s1, s1
 445 003c C0ED000A 		fsts	s1, [r0]
 446 0040 7047     		bx	lr
 447              	.LVL39:
 448              	.L76:
ARM GAS  /tmp/cczSItzL.s 			page 9


 449              	.LBE24:
 450              		.loc 1 138 0
 451 0042 0023     		movs	r3, #0
 452 0044 0360     		str	r3, [r0]	@ float
 453 0046 7047     		bx	lr
 454              		.cfi_endproc
 455              	.LFE265:
 456              		.size	utils_deadband, .-utils_deadband
 457 0048 AFF30080 		.section	.text.utils_angle_difference,"ax",%progbits
 457      AFF30080 
 458              		.align	2
 459              		.p2align 4,,15
 460              		.global	utils_angle_difference
 461              		.thumb
 462              		.thumb_func
 463              		.type	utils_angle_difference, %function
 464              	utils_angle_difference:
 465              	.LFB266:
 466              		.loc 1 159 0
 467              		.cfi_startproc
 468              		@ args = 0, pretend = 0, frame = 0
 469              		@ frame_needed = 0, uses_anonymous_args = 0
 470              		@ link register save eliminated.
 471              	.LVL40:
 472              		.loc 1 174 0
 473 0000 30EE600A 		fsubs	s0, s0, s1
 474              	.LVL41:
 475              		.loc 1 175 0
 476 0004 9FED107A 		flds	s14, .L90
 477 0008 B4EEC70A 		fcmpes	s0, s14
 478 000c F1EE10FA 		fmstat
 479 0010 08D5     		bpl	.L78
 480 0012 DFED0E7A 		flds	s15, .L90+4
 481              	.L81:
 482              		.loc 1 175 0 is_stmt 0 discriminator 2
 483 0016 30EE270A 		fadds	s0, s0, s15
 484              	.LVL42:
 485 001a B4EEC70A 		fcmpes	s0, s14
 486 001e F1EE10FA 		fmstat
 487 0022 F8D4     		bmi	.L81
 488              	.L78:
 489              		.loc 1 176 0 is_stmt 1 discriminator 1
 490 0024 9FED0A7A 		flds	s14, .L90+8
 491 0028 B4EEC70A 		fcmpes	s0, s14
 492 002c F1EE10FA 		fmstat
 493 0030 08DD     		ble	.L82
 494              		.loc 1 176 0 is_stmt 0
 495 0032 DFED067A 		flds	s15, .L90+4
 496              	.L85:
 497              		.loc 1 176 0 discriminator 2
 498 0036 30EE670A 		fsubs	s0, s0, s15
 499              	.LVL43:
 500 003a B4EEC70A 		fcmpes	s0, s14
 501 003e F1EE10FA 		fmstat
 502 0042 F8DC     		bgt	.L85
 503              	.L82:
 504              		.loc 1 178 0 is_stmt 1
ARM GAS  /tmp/cczSItzL.s 			page 10


 505 0044 7047     		bx	lr
 506              	.L91:
 507 0046 00BF     		.align	2
 508              	.L90:
 509 0048 000034C3 		.word	3274964992
 510 004c 0000B443 		.word	1135869952
 511 0050 00003443 		.word	1127481344
 512              		.cfi_endproc
 513              	.LFE266:
 514              		.size	utils_angle_difference, .-utils_angle_difference
 515 0054 AFF30080 		.section	.text.utils_angle_difference_rad,"ax",%progbits
 515      AFF30080 
 515      AFF30080 
 516              		.align	2
 517              		.p2align 4,,15
 518              		.global	utils_angle_difference_rad
 519              		.thumb
 520              		.thumb_func
 521              		.type	utils_angle_difference_rad, %function
 522              	utils_angle_difference_rad:
 523              	.LFB267:
 524              		.loc 1 189 0
 525              		.cfi_startproc
 526              		@ args = 0, pretend = 0, frame = 0
 527              		@ frame_needed = 0, uses_anonymous_args = 0
 528              		@ link register save eliminated.
 529              	.LVL44:
 530              		.loc 1 190 0
 531 0000 30EE600A 		fsubs	s0, s0, s1
 532              	.LVL45:
 533              		.loc 1 191 0
 534 0004 9FED107A 		flds	s14, .L105
 535 0008 B4EEC70A 		fcmpes	s0, s14
 536 000c F1EE10FA 		fmstat
 537 0010 08D5     		bpl	.L93
 538 0012 DFED0E7A 		flds	s15, .L105+4
 539              	.L96:
 540              		.loc 1 191 0 is_stmt 0 discriminator 2
 541 0016 30EE270A 		fadds	s0, s0, s15
 542              	.LVL46:
 543 001a B4EEC70A 		fcmpes	s0, s14
 544 001e F1EE10FA 		fmstat
 545 0022 F8D4     		bmi	.L96
 546              	.L93:
 547              		.loc 1 192 0 is_stmt 1 discriminator 1
 548 0024 9FED0A7A 		flds	s14, .L105+8
 549 0028 B4EEC70A 		fcmpes	s0, s14
 550 002c F1EE10FA 		fmstat
 551 0030 08DD     		ble	.L97
 552              		.loc 1 192 0 is_stmt 0
 553 0032 DFED067A 		flds	s15, .L105+4
 554              	.L100:
 555              		.loc 1 192 0 discriminator 2
 556 0036 30EE670A 		fsubs	s0, s0, s15
 557              	.LVL47:
 558 003a B4EEC70A 		fcmpes	s0, s14
 559 003e F1EE10FA 		fmstat
ARM GAS  /tmp/cczSItzL.s 			page 11


 560 0042 F8DC     		bgt	.L100
 561              	.L97:
 562              		.loc 1 194 0 is_stmt 1
 563 0044 7047     		bx	lr
 564              	.L106:
 565 0046 00BF     		.align	2
 566              	.L105:
 567 0048 DB0F49C0 		.word	3226013659
 568 004c DB0FC940 		.word	1086918619
 569 0050 DB0F4940 		.word	1078530011
 570              		.cfi_endproc
 571              	.LFE267:
 572              		.size	utils_angle_difference_rad, .-utils_angle_difference_rad
 573 0054 AFF30080 		.section	.text.utils_middle_of_3,"ax",%progbits
 573      AFF30080 
 573      AFF30080 
 574              		.align	2
 575              		.p2align 4,,15
 576              		.global	utils_middle_of_3
 577              		.thumb
 578              		.thumb_func
 579              		.type	utils_middle_of_3, %function
 580              	utils_middle_of_3:
 581              	.LFB269:
 582              		.loc 1 240 0
 583              		.cfi_startproc
 584              		@ args = 0, pretend = 0, frame = 0
 585              		@ frame_needed = 0, uses_anonymous_args = 0
 586              		@ link register save eliminated.
 587              	.LVL48:
 588              		.loc 1 243 0
 589 0000 B4EEE00A 		fcmpes	s0, s1
 590 0004 F1EE10FA 		fmstat
 591 0008 0ED8     		bhi	.L108
 592              		.loc 1 243 0 is_stmt 0 discriminator 1
 593 000a B4EEC10A 		fcmpes	s0, s2
 594 000e F1EE10FA 		fmstat
 595 0012 09D8     		bhi	.L108
 596              		.loc 1 244 0 is_stmt 1
 597 0014 F4EEC10A 		fcmpes	s1, s2
 598 0018 F1EE10FA 		fmstat
 599 001c 88BF     		it	hi
 600 001e F0EE410A 		fcpyshi	s1, s2
 601              	.LVL49:
 602              		.loc 1 251 0
 603 0022 B0EE600A 		fcpys	s0, s1
 604              	.LVL50:
 605 0026 7047     		bx	lr
 606              	.LVL51:
 607              	.L108:
 608              		.loc 1 245 0
 609 0028 B4EEE00A 		fcmpes	s0, s1
 610 002c F1EE10FA 		fmstat
 611 0030 09DA     		bge	.L122
 612              	.L112:
 613              		.loc 1 246 0
 614 0032 B4EE600A 		fcmps	s0, s1
ARM GAS  /tmp/cczSItzL.s 			page 12


 615 0036 F1EE10FA 		fmstat
 616 003a 98BF     		it	ls
 617 003c F0EE400A 		fcpysls	s1, s0
 618              	.LVL52:
 619              		.loc 1 251 0
 620 0040 B0EE600A 		fcpys	s0, s1
 621              	.LVL53:
 622 0044 7047     		bx	lr
 623              	.LVL54:
 624              	.L122:
 625              		.loc 1 245 0 discriminator 1
 626 0046 F4EEC10A 		fcmpes	s1, s2
 627 004a F1EE10FA 		fmstat
 628 004e F0D8     		bhi	.L112
 629              		.loc 1 246 0
 630 0050 B4EEC10A 		fcmpes	s0, s2
 631 0054 F1EE10FA 		fmstat
 632              		.loc 1 244 0
 633 0058 8CBF     		ite	hi
 634 005a F0EE410A 		fcpyshi	s1, s2
 635 005e F0EE400A 		fcpysls	s1, s0
 636              	.LVL55:
 637              		.loc 1 251 0
 638 0062 B0EE600A 		fcpys	s0, s1
 639              	.LVL56:
 640 0066 7047     		bx	lr
 641              		.cfi_endproc
 642              	.LFE269:
 643              		.size	utils_middle_of_3, .-utils_middle_of_3
 644 0068 AFF30080 		.section	.text.utils_middle_of_3_int,"ax",%progbits
 644      AFF30080 
 645              		.align	2
 646              		.p2align 4,,15
 647              		.global	utils_middle_of_3_int
 648              		.thumb
 649              		.thumb_func
 650              		.type	utils_middle_of_3_int, %function
 651              	utils_middle_of_3_int:
 652              	.LFB270:
 653              		.loc 1 268 0
 654              		.cfi_startproc
 655              		@ args = 0, pretend = 0, frame = 0
 656              		@ frame_needed = 0, uses_anonymous_args = 0
 657              		@ link register save eliminated.
 658              	.LVL57:
 659              		.loc 1 271 0
 660 0000 8842     		cmp	r0, r1
 661 0002 05DD     		ble	.L129
 662              	.L124:
 663              		.loc 1 273 0 discriminator 1
 664 0004 9142     		cmp	r1, r2
 665 0006 0BDD     		ble	.L130
 666              		.loc 1 276 0
 667 0008 8842     		cmp	r0, r1
 668 000a A8BF     		it	ge
 669 000c 0846     		movge	r0, r1
 670              	.LVL58:
ARM GAS  /tmp/cczSItzL.s 			page 13


 671              		.loc 1 279 0
 672 000e 7047     		bx	lr
 673              	.LVL59:
 674              	.L129:
 675              		.loc 1 271 0 discriminator 1
 676 0010 9042     		cmp	r0, r2
 677 0012 09DD     		ble	.L131
 678              		.loc 1 273 0
 679 0014 8842     		cmp	r0, r1
 680 0016 F5DA     		bge	.L124
 681              		.loc 1 276 0
 682 0018 8842     		cmp	r0, r1
 683 001a A8BF     		it	ge
 684 001c 0846     		movge	r0, r1
 685              	.LVL60:
 686              		.loc 1 279 0
 687 001e 7047     		bx	lr
 688              	.LVL61:
 689              	.L130:
 690              		.loc 1 274 0
 691 0020 9042     		cmp	r0, r2
 692 0022 A8BF     		it	ge
 693 0024 1046     		movge	r0, r2
 694              	.LVL62:
 695 0026 7047     		bx	lr
 696              	.LVL63:
 697              	.L131:
 698              		.loc 1 272 0
 699 0028 9142     		cmp	r1, r2
 700 002a B4BF     		ite	lt
 701 002c 0846     		movlt	r0, r1
 702 002e 1046     		movge	r0, r2
 703              	.LVL64:
 704 0030 7047     		bx	lr
 705              		.cfi_endproc
 706              	.LFE270:
 707              		.size	utils_middle_of_3_int, .-utils_middle_of_3_int
 708 0032 00BFAFF3 		.section	.text.utils_fast_inv_sqrt,"ax",%progbits
 708      0080AFF3 
 708      0080AFF3 
 708      0080
 709              		.align	2
 710              		.p2align 4,,15
 711              		.global	utils_fast_inv_sqrt
 712              		.thumb
 713              		.thumb_func
 714              		.type	utils_fast_inv_sqrt, %function
 715              	utils_fast_inv_sqrt:
 716              	.LFB271:
 717              		.loc 1 283 0
 718              		.cfi_startproc
 719              		@ args = 0, pretend = 0, frame = 0
 720              		@ frame_needed = 0, uses_anonymous_args = 0
 721              		@ link register save eliminated.
 722              	.LVL65:
 723              		.loc 1 292 0
 724 0000 10EE102A 		fmrs	r2, s0	@ int
ARM GAS  /tmp/cczSItzL.s 			page 14


 725              		.loc 1 291 0
 726 0004 084B     		ldr	r3, .L133
 727              		.loc 1 289 0
 728 0006 B6EE007A 		fconsts	s14, #96
 729              		.loc 1 292 0
 730 000a A3EB6203 		sub	r3, r3, r2, asr #1
 731              		.loc 1 289 0
 732 000e 20EE077A 		fmuls	s14, s0, s14
 733              	.LVL66:
 734              		.loc 1 292 0
 735 0012 00EE103A 		fmsr	s0, r3	@ int
 736              	.LVL67:
 737 0016 20EE077A 		fmuls	s14, s0, s14
 738              	.LVL68:
 739 001a F7EE087A 		fconsts	s15, #120
 740 001e E0EE477A 		vfms.f32	s15, s0, s14
 741              		.loc 1 294 0
 742 0022 20EE270A 		fmuls	s0, s0, s15
 743 0026 7047     		bx	lr
 744              	.L134:
 745              		.align	2
 746              	.L133:
 747 0028 DF59375F 		.word	1597463007
 748              		.cfi_endproc
 749              	.LFE271:
 750              		.size	utils_fast_inv_sqrt, .-utils_fast_inv_sqrt
 751 002c AFF30080 		.section	.text.utils_fast_atan2,"ax",%progbits
 752              		.align	2
 753              		.p2align 4,,15
 754              		.global	utils_fast_atan2
 755              		.thumb
 756              		.thumb_func
 757              		.type	utils_fast_atan2, %function
 758              	utils_fast_atan2:
 759              	.LFB272:
 760              		.loc 1 310 0
 761              		.cfi_startproc
 762              		@ args = 0, pretend = 0, frame = 0
 763              		@ frame_needed = 0, uses_anonymous_args = 0
 764              		@ link register save eliminated.
 765              	.LVL69:
 766              		.loc 1 311 0
 767 0000 DFED1C7A 		flds	s15, .L146
 768              		.loc 1 314 0
 769 0004 F5EEC00A 		fcmpezs	s1
 770              		.loc 1 311 0
 771 0008 B0EEC07A 		fabss	s14, s0
 772              		.loc 1 314 0
 773 000c F1EE10FA 		fmstat
 774              		.loc 1 311 0
 775 0010 77EE277A 		fadds	s15, s14, s15
 776              	.LVL70:
 777              		.loc 1 314 0
 778 0014 1BDB     		blt	.L144
 779              	.LBB25:
 780              		.loc 1 315 0
 781 0016 30EEE76A 		fsubs	s12, s1, s15
ARM GAS  /tmp/cczSItzL.s 			page 15


 782 001a 70EEA70A 		fadds	s1, s1, s15
 783              	.LVL71:
 784              		.loc 1 317 0
 785 001e DFED166A 		flds	s13, .L146+4
 786 0022 9FED167A 		flds	s14, .L146+8
 787 0026 DFED167A 		flds	s15, .L146+12
 788              	.LVL72:
 789              		.loc 1 315 0
 790 002a C6EE200A 		fdivs	s1, s12, s1
 791              	.LVL73:
 792              		.loc 1 316 0
 793 002e 20EEA06A 		fmuls	s12, s1, s1
 794              	.LVL74:
 795              		.loc 1 317 0
 796 0032 A6EE267A 		vfma.f32	s14, s12, s13
 797 0036 E7EE207A 		vfma.f32	s15, s14, s1
 798              	.LVL75:
 799              	.L138:
 800              	.LBE25:
 801              		.loc 1 324 0
 802 003a B5EEC00A 		fcmpezs	s0
 803 003e F1EE10FA 		fmstat
 804              		.loc 1 325 0
 805 0042 4CBF     		ite	mi
 806 0044 B1EE670A 		fnegsmi	s0, s15
 807              	.LVL76:
 808              		.loc 1 327 0
 809 0048 B0EE670A 		fcpyspl	s0, s15
 810              		.loc 1 329 0
 811 004c 7047     		bx	lr
 812              	.LVL77:
 813              	.L144:
 814              	.LBB26:
 815              		.loc 1 319 0
 816 004e 30EEA76A 		fadds	s12, s1, s15
 817 0052 77EEE00A 		fsubs	s1, s15, s1
 818              	.LVL78:
 819              		.loc 1 321 0
 820 0056 DFED086A 		flds	s13, .L146+4
 821 005a 9FED087A 		flds	s14, .L146+8
 822 005e DFED097A 		flds	s15, .L146+16
 823              	.LVL79:
 824              		.loc 1 319 0
 825 0062 C6EE200A 		fdivs	s1, s12, s1
 826              	.LVL80:
 827              		.loc 1 320 0
 828 0066 20EEA06A 		fmuls	s12, s1, s1
 829              	.LVL81:
 830              		.loc 1 321 0
 831 006a A6EE267A 		vfma.f32	s14, s12, s13
 832 006e E7EE207A 		vfma.f32	s15, s14, s1
 833              	.LVL82:
 834 0072 E2E7     		b	.L138
 835              	.L147:
 836              		.align	2
 837              	.L146:
 838 0074 08E53C1E 		.word	507307272
ARM GAS  /tmp/cczSItzL.s 			page 16


 839 0078 DE02493E 		.word	1044972254
 840 007c B1507BBF 		.word	3212529841
 841 0080 DB0F493F 		.word	1061752795
 842 0084 E4CB1640 		.word	1075235812
 843              	.LBE26:
 844              		.cfi_endproc
 845              	.LFE272:
 846              		.size	utils_fast_atan2, .-utils_fast_atan2
 847 0088 AFF30080 		.section	.text.utils_saturate_vector_2d,"ax",%progbits
 847      AFF30080 
 848              		.align	2
 849              		.p2align 4,,15
 850              		.global	utils_saturate_vector_2d
 851              		.thumb
 852              		.thumb_func
 853              		.type	utils_saturate_vector_2d, %function
 854              	utils_saturate_vector_2d:
 855              	.LFB273:
 856              		.loc 1 346 0
 857              		.cfi_startproc
 858              		@ args = 0, pretend = 0, frame = 8
 859              		@ frame_needed = 0, uses_anonymous_args = 0
 860              	.LVL83:
 861              		.loc 1 348 0
 862 0000 91ED007A 		flds	s14, [r1]
 863 0004 D0ED007A 		flds	s15, [r0]
 864 0008 27EE077A 		fmuls	s14, s14, s14
 865              		.loc 1 346 0
 866 000c 10B5     		push	{r4, lr}
 867              		.cfi_def_cfa_offset 8
 868              		.cfi_offset 4, -8
 869              		.cfi_offset 14, -4
 870              		.loc 1 348 0
 871 000e A7EEA77A 		vfma.f32	s14, s15, s15
 872              		.loc 1 346 0
 873 0012 0446     		mov	r4, r0
 874 0014 2DED028B 		fstmfdd	sp!, {d8}
 875              		.cfi_def_cfa_offset 16
 876              		.cfi_offset 80, -16
 877              		.loc 1 348 0
 878 0018 F1EEC77A 		fsqrts	s15, s14
 879              		.loc 1 346 0
 880 001c 82B0     		sub	sp, sp, #8
 881              		.cfi_def_cfa_offset 24
 882              		.loc 1 346 0
 883 001e B0EE408A 		fcpys	s16, s0
 884              		.loc 1 348 0
 885 0022 F4EE677A 		fcmps	s15, s15
 886 0026 F1EE10FA 		fmstat
 887 002a 27D1     		bne	.L157
 888              	.LVL84:
 889              	.L149:
 890              		.loc 1 351 0
 891 002c 9FED187A 		flds	s14, .L158
 892              		.loc 1 352 0
 893 0030 F4EE477A 		fcmps	s15, s14
 894 0034 F1EE10FA 		fmstat
ARM GAS  /tmp/cczSItzL.s 			page 17


 895 0038 48BF     		it	mi
 896 003a F0EE477A 		fcpysmi	s15, s14
 897              	.LVL85:
 898              		.loc 1 349 0
 899 003e B0EEC80A 		fabss	s0, s16
 900              	.LVL86:
 901              		.loc 1 355 0
 902 0042 F4EEC07A 		fcmpes	s15, s0
 903 0046 F1EE10FA 		fmstat
 904 004a 12DD     		ble	.L156
 905              	.LBB27:
 906              		.loc 1 356 0
 907 004c C0EE277A 		fdivs	s15, s0, s15
 908              	.LVL87:
 909              		.loc 1 359 0
 910 0050 0120     		movs	r0, #1
 911              		.loc 1 357 0
 912 0052 94ED007A 		flds	s14, [r4]
 913 0056 27EE277A 		fmuls	s14, s14, s15
 914 005a 84ED007A 		fsts	s14, [r4]
 915              		.loc 1 358 0
 916 005e 91ED000A 		flds	s0, [r1]
 917              	.LVL88:
 918 0062 60EE277A 		fmuls	s15, s0, s15
 919              	.LVL89:
 920 0066 C1ED007A 		fsts	s15, [r1]
 921              	.LVL90:
 922              	.LBE27:
 923              		.loc 1 363 0
 924 006a 02B0     		add	sp, sp, #8
 925              		@ sp needed
 926 006c BDEC028B 		fldmfdd	sp!, {d8}
 927              	.LVL91:
 928 0070 10BD     		pop	{r4, pc}
 929              	.LVL92:
 930              	.L156:
 931              		.loc 1 347 0
 932 0072 0020     		movs	r0, #0
 933              	.LVL93:
 934              		.loc 1 363 0
 935 0074 02B0     		add	sp, sp, #8
 936              		@ sp needed
 937 0076 BDEC028B 		fldmfdd	sp!, {d8}
 938 007a 10BD     		pop	{r4, pc}
 939              	.LVL94:
 940              	.L157:
 941              		.loc 1 348 0
 942 007c B0EE470A 		fcpys	s0, s14
 943              	.LVL95:
 944 0080 0191     		str	r1, [sp, #4]
 945 0082 FFF7FEFF 		bl	sqrtf
 946              	.LVL96:
 947 0086 0199     		ldr	r1, [sp, #4]
 948 0088 F0EE407A 		fcpys	s15, s0
 949 008c CEE7     		b	.L149
 950              	.L159:
 951 008e 00BF     		.align	2
ARM GAS  /tmp/cczSItzL.s 			page 18


 952              	.L158:
 953 0090 FFE6DB2E 		.word	786163455
 954              		.cfi_endproc
 955              	.LFE273:
 956              		.size	utils_saturate_vector_2d, .-utils_saturate_vector_2d
 957 0094 AFF30080 		.section	.text.utils_fast_sincos,"ax",%progbits
 957      AFF30080 
 957      AFF30080 
 958              		.align	2
 959              		.p2align 4,,15
 960              		.global	utils_fast_sincos
 961              		.thumb
 962              		.thumb_func
 963              		.type	utils_fast_sincos, %function
 964              	utils_fast_sincos:
 965              	.LFB274:
 966              		.loc 1 380 0
 967              		.cfi_startproc
 968              		@ args = 0, pretend = 0, frame = 0
 969              		@ frame_needed = 0, uses_anonymous_args = 0
 970              		@ link register save eliminated.
 971              	.LVL97:
 972              		.loc 1 382 0
 973 0000 9FED2A7A 		flds	s14, .L186
 974 0004 B4EEC70A 		fcmpes	s0, s14
 975 0008 F1EE10FA 		fmstat
 976 000c 08D5     		bpl	.L161
 977              		.loc 1 383 0
 978 000e DFED287A 		flds	s15, .L186+4
 979              	.L164:
 980 0012 30EE270A 		fadds	s0, s0, s15
 981              	.LVL98:
 982              		.loc 1 382 0
 983 0016 B4EEC70A 		fcmpes	s0, s14
 984 001a F1EE10FA 		fmstat
 985 001e F8D4     		bmi	.L164
 986              	.L161:
 987              		.loc 1 386 0 discriminator 1
 988 0020 9FED247A 		flds	s14, .L186+8
 989 0024 B4EEC70A 		fcmpes	s0, s14
 990 0028 F1EE10FA 		fmstat
 991 002c 08DD     		ble	.L165
 992              		.loc 1 387 0
 993 002e DFED207A 		flds	s15, .L186+4
 994              	.L168:
 995 0032 30EE670A 		fsubs	s0, s0, s15
 996              	.LVL99:
 997              		.loc 1 386 0
 998 0036 B4EEC70A 		fcmpes	s0, s14
 999 003a F1EE10FA 		fmstat
 1000 003e F8DC     		bgt	.L168
 1001              	.L165:
 1002              		.loc 1 392 0
 1003 0040 DFED1D7A 		flds	s15, .L186+12
 1004 0044 9FED1D7A 		flds	s14, .L186+16
 1005 0048 60EE277A 		fmuls	s15, s0, s15
 1006              		.loc 1 391 0
ARM GAS  /tmp/cczSItzL.s 			page 19


 1007 004c B5EEC00A 		fcmpezs	s0
 1008 0050 F1EE10FA 		fmstat
 1009              		.loc 1 392 0
 1010 0054 4CBF     		ite	mi
 1011 0056 67EE807A 		fmulsmi	s15, s15, s0
 1012 005a 60EE677A 		fnmulspl	s15, s0, s15
 1013              		.loc 1 394 0
 1014 005e E0EE077A 		vfma.f32	s15, s0, s14
 1015              		.loc 1 398 0
 1016 0062 9FED177A 		flds	s14, .L186+20
 1017              		.loc 1 394 0
 1018 0066 C0ED007A 		fsts	s15, [r0]
 1019              		.loc 1 398 0
 1020 006a 30EE070A 		fadds	s0, s0, s14
 1021              	.LVL100:
 1022              		.loc 1 400 0
 1023 006e DFED117A 		flds	s15, .L186+8
 1024              		.loc 1 405 0
 1025 0072 9FED127A 		flds	s14, .L186+16
 1026              		.loc 1 400 0
 1027 0076 B4EEE70A 		fcmpes	s0, s15
 1028 007a F1EE10FA 		fmstat
 1029              		.loc 1 401 0
 1030 007e C4BF     		itt	gt
 1031 0080 DFED0B7A 		fldsgt	s15, .L186+4
 1032 0084 30EE670A 		fsubsgt	s0, s0, s15
 1033              	.LVL101:
 1034              		.loc 1 405 0
 1035 0088 DFED0B7A 		flds	s15, .L186+12
 1036              		.loc 1 404 0
 1037 008c B5EEC00A 		fcmpezs	s0
 1038              		.loc 1 405 0
 1039 0090 60EE277A 		fmuls	s15, s0, s15
 1040              		.loc 1 404 0
 1041 0094 F1EE10FA 		fmstat
 1042              		.loc 1 405 0
 1043 0098 4CBF     		ite	mi
 1044 009a 67EE807A 		fmulsmi	s15, s15, s0
 1045 009e 60EE677A 		fnmulspl	s15, s0, s15
 1046              		.loc 1 407 0
 1047 00a2 E0EE077A 		vfma.f32	s15, s0, s14
 1048 00a6 C1ED007A 		fsts	s15, [r1]
 1049 00aa 7047     		bx	lr
 1050              	.L187:
 1051              		.align	2
 1052              	.L186:
 1053 00ac DB0F49C0 		.word	3226013659
 1054 00b0 DB0FC940 		.word	1086918619
 1055 00b4 DB0F4940 		.word	1078530011
 1056 00b8 7B81CF3E 		.word	1053786491
 1057 00bc 83F9A23F 		.word	1067645315
 1058 00c0 DB0FC93F 		.word	1070141403
 1059              		.cfi_endproc
 1060              	.LFE274:
 1061              		.size	utils_fast_sincos, .-utils_fast_sincos
 1062 00c4 AFF30080 		.section	.text.utils_fast_sincos_better,"ax",%progbits
 1062      AFF30080 
ARM GAS  /tmp/cczSItzL.s 			page 20


 1062      AFF30080 
 1063              		.align	2
 1064              		.p2align 4,,15
 1065              		.global	utils_fast_sincos_better
 1066              		.thumb
 1067              		.thumb_func
 1068              		.type	utils_fast_sincos_better, %function
 1069              	utils_fast_sincos_better:
 1070              	.LFB275:
 1071              		.loc 1 426 0
 1072              		.cfi_startproc
 1073              		@ args = 0, pretend = 0, frame = 0
 1074              		@ frame_needed = 0, uses_anonymous_args = 0
 1075              		@ link register save eliminated.
 1076              	.LVL102:
 1077              		.loc 1 428 0
 1078 0000 9FED447A 		flds	s14, .L238
 1079 0004 B4EEC70A 		fcmpes	s0, s14
 1080 0008 F1EE10FA 		fmstat
 1081 000c 08D5     		bpl	.L189
 1082              		.loc 1 429 0
 1083 000e DFED427A 		flds	s15, .L238+4
 1084              	.L192:
 1085 0012 30EE270A 		fadds	s0, s0, s15
 1086              	.LVL103:
 1087              		.loc 1 428 0
 1088 0016 B4EEC70A 		fcmpes	s0, s14
 1089 001a F1EE10FA 		fmstat
 1090 001e F8D4     		bmi	.L192
 1091              	.L189:
 1092              		.loc 1 432 0 discriminator 1
 1093 0020 9FED3E7A 		flds	s14, .L238+8
 1094 0024 B4EEC70A 		fcmpes	s0, s14
 1095 0028 F1EE10FA 		fmstat
 1096 002c 08DD     		ble	.L193
 1097              		.loc 1 433 0
 1098 002e DFED3A7A 		flds	s15, .L238+4
 1099              	.L196:
 1100 0032 30EE670A 		fsubs	s0, s0, s15
 1101              	.LVL104:
 1102              		.loc 1 432 0
 1103 0036 B4EEC70A 		fcmpes	s0, s14
 1104 003a F1EE10FA 		fmstat
 1105 003e F8DC     		bgt	.L196
 1106              	.L193:
 1107              		.loc 1 438 0
 1108 0040 DFED377A 		flds	s15, .L238+12
 1109 0044 9FED377A 		flds	s14, .L238+16
 1110 0048 60EE277A 		fmuls	s15, s0, s15
 1111              		.loc 1 437 0
 1112 004c B5EEC00A 		fcmpezs	s0
 1113 0050 F1EE10FA 		fmstat
 1114              		.loc 1 438 0
 1115 0054 4CBF     		ite	mi
 1116 0056 67EE807A 		fmulsmi	s15, s15, s0
 1117 005a 60EE677A 		fnmulspl	s15, s0, s15
 1118              		.loc 1 446 0
ARM GAS  /tmp/cczSItzL.s 			page 21


 1119 005e E0EE077A 		vfma.f32	s15, s0, s14
 1120              		.loc 1 448 0
 1121 0062 F5EEC07A 		fcmpezs	s15
 1122 0066 F1EE10FA 		fmstat
 1123              		.loc 1 446 0
 1124 006a C0ED007A 		fsts	s15, [r0]
 1125              		.loc 1 448 0
 1126 006e 3BD4     		bmi	.L236
 1127              		.loc 1 451 0
 1128 0070 F0EE676A 		fcpys	s13, s15
 1129 0074 D7EEA76A 		vfnms.f32	s13, s15, s15
 1130 0078 9FED2B7A 		flds	s14, .L238+20
 1131 007c E6EE877A 		vfma.f32	s15, s13, s14
 1132 0080 C0ED007A 		fsts	s15, [r0]
 1133              	.L201:
 1134              		.loc 1 456 0
 1135 0084 9FED297A 		flds	s14, .L238+24
 1136              		.loc 1 457 0
 1137 0088 DFED247A 		flds	s15, .L238+8
 1138              		.loc 1 456 0
 1139 008c 30EE070A 		fadds	s0, s0, s14
 1140              	.LVL105:
 1141              		.loc 1 462 0
 1142 0090 9FED247A 		flds	s14, .L238+16
 1143              		.loc 1 457 0
 1144 0094 B4EEE70A 		fcmpes	s0, s15
 1145 0098 F1EE10FA 		fmstat
 1146              		.loc 1 458 0
 1147 009c C4BF     		itt	gt
 1148 009e DFED1E7A 		fldsgt	s15, .L238+4
 1149 00a2 30EE670A 		fsubsgt	s0, s0, s15
 1150              	.LVL106:
 1151              		.loc 1 462 0
 1152 00a6 DFED1E7A 		flds	s15, .L238+12
 1153              		.loc 1 461 0
 1154 00aa B5EEC00A 		fcmpezs	s0
 1155              		.loc 1 462 0
 1156 00ae 60EE277A 		fmuls	s15, s0, s15
 1157              		.loc 1 461 0
 1158 00b2 F1EE10FA 		fmstat
 1159              		.loc 1 462 0
 1160 00b6 4CBF     		ite	mi
 1161 00b8 67EE807A 		fmulsmi	s15, s15, s0
 1162 00bc 60EE677A 		fnmulspl	s15, s0, s15
 1163              		.loc 1 470 0
 1164 00c0 E0EE077A 		vfma.f32	s15, s0, s14
 1165              		.loc 1 472 0
 1166 00c4 F5EEC07A 		fcmpezs	s15
 1167 00c8 F1EE10FA 		fmstat
 1168              		.loc 1 470 0
 1169 00cc C1ED007A 		fsts	s15, [r1]
 1170              		.loc 1 472 0
 1171 00d0 15D4     		bmi	.L237
 1172              		.loc 1 475 0
 1173 00d2 F0EE676A 		fcpys	s13, s15
 1174 00d6 D7EEA76A 		vfnms.f32	s13, s15, s15
 1175 00da 9FED137A 		flds	s14, .L238+20
ARM GAS  /tmp/cczSItzL.s 			page 22


 1176 00de E6EE877A 		vfma.f32	s15, s13, s14
 1177 00e2 C1ED007A 		fsts	s15, [r1]
 1178 00e6 7047     		bx	lr
 1179              	.L236:
 1180 00e8 B1EE677A 		fnegs	s14, s15
 1181              		.loc 1 449 0
 1182 00ec A7EE877A 		vfma.f32	s14, s15, s14
 1183 00f0 DFED0D6A 		flds	s13, .L238+20
 1184 00f4 E7EE267A 		vfma.f32	s15, s14, s13
 1185 00f8 C0ED007A 		fsts	s15, [r0]
 1186 00fc C2E7     		b	.L201
 1187              	.L237:
 1188 00fe B1EE677A 		fnegs	s14, s15
 1189              		.loc 1 473 0
 1190 0102 A7EE877A 		vfma.f32	s14, s15, s14
 1191 0106 DFED086A 		flds	s13, .L238+20
 1192 010a E7EE267A 		vfma.f32	s15, s14, s13
 1193 010e C1ED007A 		fsts	s15, [r1]
 1194 0112 7047     		bx	lr
 1195              	.L239:
 1196              		.align	2
 1197              	.L238:
 1198 0114 DB0F49C0 		.word	3226013659
 1199 0118 DB0FC940 		.word	1086918619
 1200 011c DB0F4940 		.word	1078530011
 1201 0120 7B81CF3E 		.word	1053786491
 1202 0124 83F9A23F 		.word	1067645315
 1203 0128 6666663E 		.word	1046898278
 1204 012c DB0FC93F 		.word	1070141403
 1205              		.cfi_endproc
 1206              	.LFE275:
 1207              		.size	utils_fast_sincos_better, .-utils_fast_sincos_better
 1208              		.section	.text.utils_avg_angles_rad_fast,"ax",%progbits
 1209              		.align	2
 1210              		.p2align 4,,15
 1211              		.global	utils_avg_angles_rad_fast
 1212              		.thumb
 1213              		.thumb_func
 1214              		.type	utils_avg_angles_rad_fast, %function
 1215              	utils_avg_angles_rad_fast:
 1216              	.LFB268:
 1217              		.loc 1 211 0
 1218              		.cfi_startproc
 1219              		@ args = 0, pretend = 0, frame = 8
 1220              		@ frame_needed = 0, uses_anonymous_args = 0
 1221              	.LVL107:
 1222 0000 F0B5     		push	{r4, r5, r6, r7, lr}
 1223              		.cfi_def_cfa_offset 20
 1224              		.cfi_offset 4, -20
 1225              		.cfi_offset 5, -16
 1226              		.cfi_offset 6, -12
 1227              		.cfi_offset 7, -8
 1228              		.cfi_offset 14, -4
 1229 0002 2DED028B 		fstmfdd	sp!, {d8}
 1230              		.cfi_def_cfa_offset 28
 1231              		.cfi_offset 80, -28
 1232              		.loc 1 213 0
ARM GAS  /tmp/cczSItzL.s 			page 23


 1233 0006 9FED148A 		flds	s16, .L244
 1234              	.LBB28:
 1235              		.loc 1 215 0
 1236 000a 171E     		subs	r7, r2, #0
 1237              	.LBE28:
 1238              		.loc 1 211 0
 1239 000c 83B0     		sub	sp, sp, #12
 1240              		.cfi_def_cfa_offset 40
 1241              		.loc 1 212 0
 1242 000e F0EE488A 		fcpys	s17, s16
 1243              	.LBB32:
 1244              		.loc 1 215 0
 1245 0012 15DD     		ble	.L241
 1246 0014 0646     		mov	r6, r0
 1247 0016 0D46     		mov	r5, r1
 1248 0018 0024     		movs	r4, #0
 1249              	.LVL108:
 1250              	.L242:
 1251              	.LBB29:
 1252              		.loc 1 217 0 discriminator 2
 1253 001a B6EC010A 		fldmias	r6!, {s0}
 1254 001e 6846     		mov	r0, sp
 1255 0020 01A9     		add	r1, sp, #4
 1256 0022 FFF7FEFF 		bl	utils_fast_sincos_better
 1257              	.LVL109:
 1258              	.LBE29:
 1259              		.loc 1 215 0 discriminator 2
 1260 0026 0134     		adds	r4, r4, #1
 1261              	.LVL110:
 1262              	.LBB30:
 1263              		.loc 1 218 0 discriminator 2
 1264 0028 F5EC017A 		fldmias	r5!, {s15}
 1265 002c DDED006A 		flds	s13, [sp]
 1266              		.loc 1 219 0 discriminator 2
 1267 0030 9DED017A 		flds	s14, [sp, #4]
 1268              	.LBE30:
 1269              		.loc 1 215 0 discriminator 2
 1270 0034 BC42     		cmp	r4, r7
 1271              	.LBB31:
 1272              		.loc 1 218 0 discriminator 2
 1273 0036 E7EEA68A 		vfma.f32	s17, s15, s13
 1274              	.LVL111:
 1275              		.loc 1 219 0 discriminator 2
 1276 003a A7EE878A 		vfma.f32	s16, s15, s14
 1277              	.LVL112:
 1278              	.LBE31:
 1279              		.loc 1 215 0 discriminator 2
 1280 003e ECD1     		bne	.L242
 1281              	.LVL113:
 1282              	.L241:
 1283              	.LBE32:
 1284              		.loc 1 222 0
 1285 0040 B0EE680A 		fcpys	s0, s17
 1286 0044 F0EE480A 		fcpys	s1, s16
 1287              		.loc 1 223 0
 1288 0048 03B0     		add	sp, sp, #12
 1289              		@ sp needed
ARM GAS  /tmp/cczSItzL.s 			page 24


 1290 004a BDEC028B 		fldmfdd	sp!, {d8}
 1291 004e BDE8F040 		pop	{r4, r5, r6, r7, lr}
 1292              	.LVL114:
 1293              		.loc 1 222 0
 1294 0052 FFF7FEBF 		b	utils_fast_atan2
 1295              	.LVL115:
 1296              	.L245:
 1297 0056 00BF     		.align	2
 1298              	.L244:
 1299 0058 00000000 		.word	0
 1300              		.cfi_endproc
 1301              	.LFE268:
 1302              		.size	utils_avg_angles_rad_fast, .-utils_avg_angles_rad_fast
 1303 005c AFF30080 		.section	.text.utils_min_abs,"ax",%progbits
 1304              		.align	2
 1305              		.p2align 4,,15
 1306              		.global	utils_min_abs
 1307              		.thumb
 1308              		.thumb_func
 1309              		.type	utils_min_abs, %function
 1310              	utils_min_abs:
 1311              	.LFB276:
 1312              		.loc 1 492 0
 1313              		.cfi_startproc
 1314              		@ args = 0, pretend = 0, frame = 0
 1315              		@ frame_needed = 0, uses_anonymous_args = 0
 1316              		@ link register save eliminated.
 1317              	.LVL116:
 1318              		.loc 1 494 0
 1319 0000 B0EEC07A 		fabss	s14, s0
 1320 0004 F0EEE07A 		fabss	s15, s1
 1321 0008 B4EEE77A 		fcmpes	s14, s15
 1322 000c F1EE10FA 		fmstat
 1323              	.LVL117:
 1324              		.loc 1 501 0
 1325 0010 58BF     		it	pl
 1326 0012 B0EE600A 		fcpyspl	s0, s1
 1327              	.LVL118:
 1328 0016 7047     		bx	lr
 1329              		.cfi_endproc
 1330              	.LFE276:
 1331              		.size	utils_min_abs, .-utils_min_abs
 1332 0018 AFF30080 		.section	.text.utils_max_abs,"ax",%progbits
 1332      AFF30080 
 1333              		.align	2
 1334              		.p2align 4,,15
 1335              		.global	utils_max_abs
 1336              		.thumb
 1337              		.thumb_func
 1338              		.type	utils_max_abs, %function
 1339              	utils_max_abs:
 1340              	.LFB277:
 1341              		.loc 1 515 0
 1342              		.cfi_startproc
 1343              		@ args = 0, pretend = 0, frame = 0
 1344              		@ frame_needed = 0, uses_anonymous_args = 0
 1345              		@ link register save eliminated.
ARM GAS  /tmp/cczSItzL.s 			page 25


 1346              	.LVL119:
 1347              		.loc 1 517 0
 1348 0000 B0EEC07A 		fabss	s14, s0
 1349 0004 F0EEE07A 		fabss	s15, s1
 1350 0008 B4EEE77A 		fcmpes	s14, s15
 1351 000c F1EE10FA 		fmstat
 1352              	.LVL120:
 1353              		.loc 1 524 0
 1354 0010 D8BF     		it	le
 1355 0012 B0EE600A 		fcpysle	s0, s1
 1356              	.LVL121:
 1357 0016 7047     		bx	lr
 1358              		.cfi_endproc
 1359              	.LFE277:
 1360              		.size	utils_max_abs, .-utils_max_abs
 1361 0018 AFF30080 		.section	.text.utils_byte_to_binary,"ax",%progbits
 1361      AFF30080 
 1362              		.align	2
 1363              		.p2align 4,,15
 1364              		.global	utils_byte_to_binary
 1365              		.thumb
 1366              		.thumb_func
 1367              		.type	utils_byte_to_binary, %function
 1368              	utils_byte_to_binary:
 1369              	.LFB278:
 1370              		.loc 1 535 0
 1371              		.cfi_startproc
 1372              		@ args = 0, pretend = 0, frame = 0
 1373              		@ frame_needed = 0, uses_anonymous_args = 0
 1374              	.LVL122:
 1375 0000 2DE9F843 		push	{r3, r4, r5, r6, r7, r8, r9, lr}
 1376              		.cfi_def_cfa_offset 32
 1377              		.cfi_offset 3, -32
 1378              		.cfi_offset 4, -28
 1379              		.cfi_offset 5, -24
 1380              		.cfi_offset 6, -20
 1381              		.cfi_offset 7, -16
 1382              		.cfi_offset 8, -12
 1383              		.cfi_offset 9, -8
 1384              		.cfi_offset 14, -4
 1385              		.loc 1 536 0
 1386 0004 0023     		movs	r3, #0
 1387              		.loc 1 540 0
 1388 0006 DFF83490 		ldr	r9, .L259
 1389 000a DFF83480 		ldr	r8, .L259+4
 1390              		.loc 1 536 0
 1391 000e 0B70     		strb	r3, [r1]
 1392              	.LVL123:
 1393              		.loc 1 535 0
 1394 0010 0E46     		mov	r6, r1
 1395 0012 0746     		mov	r7, r0
 1396              		.loc 1 536 0
 1397 0014 0825     		movs	r5, #8
 1398              		.loc 1 539 0
 1399 0016 8024     		movs	r4, #128
 1400              	.LVL124:
 1401              	.L257:
ARM GAS  /tmp/cczSItzL.s 			page 26


 1402              		.loc 1 540 0
 1403 0018 3046     		mov	r0, r6
 1404 001a FFF7FEFF 		bl	strlen
 1405              	.LVL125:
 1406 001e 04EA0703 		and	r3, r4, r7
 1407 0022 A342     		cmp	r3, r4
 1408 0024 14BF     		ite	ne
 1409 0026 4B46     		movne	r3, r9
 1410 0028 4346     		moveq	r3, r8
 1411              		.loc 1 539 0
 1412 002a 013D     		subs	r5, r5, #1
 1413              		.loc 1 540 0
 1414 002c 1B88     		ldrh	r3, [r3]	@ unaligned
 1415 002e 3352     		strh	r3, [r6, r0]	@ unaligned
 1416              		.loc 1 539 0
 1417 0030 4FEA6404 		asr	r4, r4, #1
 1418              	.LVL126:
 1419 0034 F0D1     		bne	.L257
 1420              		.loc 1 542 0
 1421 0036 BDE8F883 		pop	{r3, r4, r5, r6, r7, r8, r9, pc}
 1422              	.LVL127:
 1423              	.L260:
 1424 003a 00BF     		.align	2
 1425              	.L259:
 1426 003c 04000000 		.word	.LC1
 1427 0040 00000000 		.word	.LC0
 1428              		.cfi_endproc
 1429              	.LFE278:
 1430              		.size	utils_byte_to_binary, .-utils_byte_to_binary
 1431 0044 AFF30080 		.section	.text.utils_throttle_curve,"ax",%progbits
 1431      AFF30080 
 1431      AFF30080 
 1432              		.align	2
 1433              		.p2align 4,,15
 1434              		.global	utils_throttle_curve
 1435              		.thumb
 1436              		.thumb_func
 1437              		.type	utils_throttle_curve, %function
 1438              	utils_throttle_curve:
 1439              	.LFB279:
 1440              		.loc 1 544 0
 1441              		.cfi_startproc
 1442              		@ args = 0, pretend = 0, frame = 0
 1443              		@ frame_needed = 0, uses_anonymous_args = 0
 1444              	.LVL128:
 1445 0000 08B5     		push	{r3, lr}
 1446              		.cfi_def_cfa_offset 8
 1447              		.cfi_offset 3, -8
 1448              		.cfi_offset 14, -4
 1449              		.loc 1 547 0
 1450 0002 FFEE007A 		fconsts	s15, #240
 1451 0006 B4EEE70A 		fcmpes	s0, s15
 1452 000a F1EE10FA 		fmstat
 1453              		.loc 1 544 0
 1454 000e 2DED048B 		fstmfdd	sp!, {d8, d9}
 1455              		.cfi_def_cfa_offset 24
 1456              		.cfi_offset 80, -24
ARM GAS  /tmp/cczSItzL.s 			page 27


 1457              		.cfi_offset 82, -16
 1458              		.loc 1 544 0
 1459 0012 B0EE408A 		fcpys	s16, s0
 1460 0016 F0EE608A 		fcpys	s17, s1
 1461              		.loc 1 547 0
 1462 001a 39D4     		bmi	.L275
 1463              		.loc 1 551 0
 1464 001c B7EE000A 		fconsts	s0, #112
 1465              	.LVL129:
 1466 0020 B4EEC08A 		fcmpes	s16, s0
 1467 0024 F1EE10FA 		fmstat
 1468              		.loc 1 552 0
 1469 0028 C8BF     		it	gt
 1470 002a B0EE408A 		fcpysgt	s16, s0
 1471              	.LVL130:
 1472              		.loc 1 551 0
 1473 002e 7EDD     		ble	.L285
 1474              	.LVL131:
 1475              	.L262:
 1476              		.loc 1 566 0
 1477 0030 C0B9     		cbnz	r0, .L264
 1478              		.loc 1 567 0
 1479 0032 F5EEC08A 		fcmpezs	s17
 1480 0036 F1EE10FA 		fmstat
 1481 003a 55DB     		blt	.L282
 1482              		.loc 1 568 0
 1483 003c B7EE009A 		fconsts	s18, #112
 1484 0040 39EE400A 		fsubs	s0, s18, s0
 1485 0044 78EE890A 		fadds	s1, s17, s18
 1486              	.LVL132:
 1487 0048 FFF7FEFF 		bl	powf
 1488              	.LVL133:
 1489 004c 39EE400A 		fsubs	s0, s18, s0
 1490              	.LVL134:
 1491              	.L267:
 1492              		.loc 1 592 0
 1493 0050 B5EEC08A 		fcmpezs	s16
 1494              		.loc 1 597 0
 1495 0054 BDEC048B 		fldmfdd	sp!, {d8-d9}
 1496              		.loc 1 592 0
 1497 0058 F1EE10FA 		fmstat
 1498              		.loc 1 593 0
 1499 005c 48BF     		it	mi
 1500 005e B1EE400A 		fnegsmi	s0, s0
 1501              	.LVL135:
 1502              		.loc 1 597 0
 1503 0062 08BD     		pop	{r3, pc}
 1504              	.LVL136:
 1505              	.L264:
 1506              		.loc 1 572 0
 1507 0064 0128     		cmp	r0, #1
 1508 0066 1AD0     		beq	.L286
 1509              		.loc 1 582 0
 1510 0068 0228     		cmp	r0, #2
 1511 006a F1D1     		bne	.L267
 1512              		.loc 1 583 0
 1513 006c F5EEC08A 		fcmpezs	s17
ARM GAS  /tmp/cczSItzL.s 			page 28


 1514 0070 F1EE10FA 		fmstat
 1515              		.loc 1 584 0
 1516 0074 F7EE007A 		fconsts	s15, #112
 1517              		.loc 1 583 0
 1518 0078 3DDB     		blt	.L284
 1519              		.loc 1 584 0
 1520 007a B0EE677A 		fcpys	s14, s15
 1521 007e A8EE807A 		vfma.f32	s14, s17, s0
 1522 0082 37EEC00A 		fsubs	s0, s15, s0
 1523 0086 80EE070A 		fdivs	s0, s0, s14
 1524 008a 37EEC00A 		fsubs	s0, s15, s0
 1525              	.LVL137:
 1526 008e DFE7     		b	.L267
 1527              	.LVL138:
 1528              	.L275:
 1529              		.loc 1 561 0
 1530 0090 F0EE418A 		fcpys	s17, s2
 1531              		.loc 1 548 0
 1532 0094 B0EE678A 		fcpys	s16, s15
 1533 0098 B7EE000A 		fconsts	s0, #112
 1534              	.LVL139:
 1535 009c C8E7     		b	.L262
 1536              	.LVL140:
 1537              	.L286:
 1538              		.loc 1 573 0
 1539 009e DFED297A 		flds	s15, .L287
 1540 00a2 B0EEE87A 		fabss	s14, s17
 1541 00a6 B4EEE77A 		fcmpes	s14, s15
 1542 00aa F1EE10FA 		fmstat
 1543 00ae CFD4     		bmi	.L267
 1544              		.loc 1 576 0
 1545 00b0 F5EEC08A 		fcmpezs	s17
 1546 00b4 F1EE10FA 		fmstat
 1547 00b8 24DB     		blt	.L283
 1548              		.loc 1 577 0
 1549 00ba B7EE009A 		fconsts	s18, #112
 1550 00be 39EE400A 		fsubs	s0, s18, s0
 1551 00c2 20EE280A 		fmuls	s0, s0, s17
 1552 00c6 FFF7FEFF 		bl	expf
 1553              	.LVL141:
 1554 00ca F0EE409A 		fcpys	s19, s0
 1555 00ce B0EE680A 		fcpys	s0, s17
 1556 00d2 FFF7FEFF 		bl	expf
 1557              	.LVL142:
 1558 00d6 79EEC99A 		fsubs	s19, s19, s18
 1559 00da 30EE490A 		fsubs	s0, s0, s18
 1560 00de C9EE809A 		fdivs	s19, s19, s0
 1561 00e2 39EE690A 		fsubs	s0, s18, s19
 1562              	.LVL143:
 1563 00e6 B3E7     		b	.L267
 1564              	.LVL144:
 1565              	.L282:
 1566              		.loc 1 570 0
 1567 00e8 F7EE000A 		fconsts	s1, #112
 1568              	.LVL145:
 1569 00ec 70EEE80A 		fsubs	s1, s1, s17
 1570 00f0 FFF7FEFF 		bl	powf
ARM GAS  /tmp/cczSItzL.s 			page 29


 1571              	.LVL146:
 1572 00f4 ACE7     		b	.L267
 1573              	.LVL147:
 1574              	.L284:
 1575              		.loc 1 586 0
 1576 00f6 37EEC07A 		fsubs	s14, s15, s0
 1577 00fa E7EE687A 		vfms.f32	s15, s14, s17
 1578 00fe 80EE270A 		fdivs	s0, s0, s15
 1579              	.LVL148:
 1580 0102 A5E7     		b	.L267
 1581              	.LVL149:
 1582              	.L283:
 1583              		.loc 1 579 0
 1584 0104 F1EE688A 		fnegs	s17, s17
 1585              	.LVL150:
 1586 0108 28EE800A 		fmuls	s0, s17, s0
 1587 010c FFF7FEFF 		bl	expf
 1588              	.LVL151:
 1589 0110 B0EE409A 		fcpys	s18, s0
 1590 0114 B0EE680A 		fcpys	s0, s17
 1591 0118 FFF7FEFF 		bl	expf
 1592              	.LVL152:
 1593 011c F7EE007A 		fconsts	s15, #112
 1594 0120 30EE670A 		fsubs	s0, s0, s15
 1595 0124 79EE677A 		fsubs	s15, s18, s15
 1596 0128 87EE800A 		fdivs	s0, s15, s0
 1597              	.LVL153:
 1598 012c 90E7     		b	.L267
 1599              	.LVL154:
 1600              	.L285:
 1601              		.loc 1 561 0
 1602 012e B5EEC08A 		fcmpezs	s16
 1603 0132 F1EE10FA 		fmstat
 1604 0136 B8BF     		it	lt
 1605 0138 F0EE418A 		fcpyslt	s17, s2
 1606 013c B0EEC80A 		fabss	s0, s16
 1607              	.LVL155:
 1608 0140 76E7     		b	.L262
 1609              	.L288:
 1610 0142 00BF     		.align	2
 1611              	.L287:
 1612 0144 FFE6DB2E 		.word	786163455
 1613              		.cfi_endproc
 1614              	.LFE279:
 1615              		.size	utils_throttle_curve, .-utils_throttle_curve
 1616 0148 AFF30080 		.section	.text.utils_sys_lock_cnt,"ax",%progbits
 1616      AFF30080 
 1617              		.align	2
 1618              		.p2align 4,,15
 1619              		.global	utils_sys_lock_cnt
 1620              		.thumb
 1621              		.thumb_func
 1622              		.type	utils_sys_lock_cnt, %function
 1623              	utils_sys_lock_cnt:
 1624              	.LFB280:
 1625              		.loc 1 605 0
 1626              		.cfi_startproc
ARM GAS  /tmp/cczSItzL.s 			page 30


 1627              		@ args = 0, pretend = 0, frame = 0
 1628              		@ frame_needed = 0, uses_anonymous_args = 0
 1629              		@ link register save eliminated.
 1630              		.loc 1 606 0
 1631 0000 044B     		ldr	r3, .L291
 1632 0002 1A68     		ldr	r2, [r3]
 1633 0004 12B9     		cbnz	r2, .L290
 1634              	.LVL156:
 1635              	.LBB33:
 1636              	.LBB34:
 1637              	.LBB35:
 1638              	.LBB36:
 1639              		.file 2 "ChibiOS_3.0.2/os/ext/CMSIS/include/core_cmFunc.h"
 1640              		.loc 2 546 0
 1641 0006 2022     		movs	r2, #32
 1642              	@ 546 "ChibiOS_3.0.2/os/ext/CMSIS/include/core_cmFunc.h" 1
 1643 0008 82F31188 		MSR basepri, r2
 1644              	@ 0 "" 2
 1645              	.LVL157:
 1646              		.thumb
 1647              	.L290:
 1648              	.LBE36:
 1649              	.LBE35:
 1650              	.LBE34:
 1651              	.LBE33:
 1652              		.loc 1 609 0
 1653 000c 1A68     		ldr	r2, [r3]
 1654 000e 0132     		adds	r2, r2, #1
 1655 0010 1A60     		str	r2, [r3]
 1656 0012 7047     		bx	lr
 1657              	.L292:
 1658              		.align	2
 1659              	.L291:
 1660 0014 00000000 		.word	.LANCHOR0
 1661              		.cfi_endproc
 1662              	.LFE280:
 1663              		.size	utils_sys_lock_cnt, .-utils_sys_lock_cnt
 1664 0018 AFF30080 		.section	.text.utils_sys_unlock_cnt,"ax",%progbits
 1664      AFF30080 
 1665              		.align	2
 1666              		.p2align 4,,15
 1667              		.global	utils_sys_unlock_cnt
 1668              		.thumb
 1669              		.thumb_func
 1670              		.type	utils_sys_unlock_cnt, %function
 1671              	utils_sys_unlock_cnt:
 1672              	.LFB281:
 1673              		.loc 1 618 0
 1674              		.cfi_startproc
 1675              		@ args = 0, pretend = 0, frame = 0
 1676              		@ frame_needed = 0, uses_anonymous_args = 0
 1677              		@ link register save eliminated.
 1678              		.loc 1 619 0
 1679 0000 054B     		ldr	r3, .L297
 1680 0002 1A68     		ldr	r2, [r3]
 1681 0004 32B1     		cbz	r2, .L293
 1682              		.loc 1 620 0
ARM GAS  /tmp/cczSItzL.s 			page 31


 1683 0006 1A68     		ldr	r2, [r3]
 1684 0008 013A     		subs	r2, r2, #1
 1685 000a 1A60     		str	r2, [r3]
 1686              		.loc 1 621 0
 1687 000c 1B68     		ldr	r3, [r3]
 1688 000e 0BB9     		cbnz	r3, .L293
 1689              	.LVL158:
 1690              	.LBB37:
 1691              	.LBB38:
 1692              	.LBB39:
 1693              	.LBB40:
 1694              	.LBB41:
 1695              		.loc 2 546 0
 1696              	@ 546 "ChibiOS_3.0.2/os/ext/CMSIS/include/core_cmFunc.h" 1
 1697 0010 83F31188 		MSR basepri, r3
 1698              	@ 0 "" 2
 1699              	.LVL159:
 1700              		.thumb
 1701              	.L293:
 1702 0014 7047     		bx	lr
 1703              	.L298:
 1704 0016 00BF     		.align	2
 1705              	.L297:
 1706 0018 00000000 		.word	.LANCHOR0
 1707              	.LBE41:
 1708              	.LBE40:
 1709              	.LBE39:
 1710              	.LBE38:
 1711              	.LBE37:
 1712              		.cfi_endproc
 1713              	.LFE281:
 1714              		.size	utils_sys_unlock_cnt, .-utils_sys_unlock_cnt
 1715 001c AFF30080 		.section	.rodata.str1.4,"aMS",%progbits,1
 1716              		.align	2
 1717              	.LC0:
 1718 0000 3100     		.ascii	"1\000"
 1719 0002 0000     		.space	2
 1720              	.LC1:
 1721 0004 3000     		.ascii	"0\000"
 1722 0006 0000     		.section	.bss.sys_lock_cnt,"aw",%nobits
 1723              		.align	2
 1724              		.set	.LANCHOR0,. + 0
 1725              		.type	sys_lock_cnt, %object
 1726              		.size	sys_lock_cnt, 4
 1727              	sys_lock_cnt:
 1728 0000 00000000 		.space	4
 1729              		.text
 1730              	.Letext0:
 1731              		.file 3 "/usr/lib/gcc/arm-none-eabi/4.8/include/stddef.h"
 1732              		.file 4 "/usr/include/newlib/machine/_default_types.h"
 1733              		.file 5 "/usr/include/newlib/stdint.h"
 1734              		.file 6 "ChibiOS_3.0.2/os/rt/ports/ARMCMx/compilers/GCC/chtypes.h"
 1735              		.file 7 "ChibiOS_3.0.2/os/rt/include/chsystypes.h"
 1736              		.file 8 "ChibiOS_3.0.2/os/rt/include/chschd.h"
 1737              		.file 9 "ChibiOS_3.0.2/os/rt/ports/ARMCMx/chcore.h"
 1738              		.file 10 "ChibiOS_3.0.2/os/rt/ports/ARMCMx/chcore_v7m.h"
 1739              		.file 11 "ChibiOS_3.0.2/os/rt/include/chtm.h"
ARM GAS  /tmp/cczSItzL.s 			page 32


 1740              		.file 12 "ChibiOS_3.0.2/os/rt/include/chsem.h"
 1741              		.file 13 "ChibiOS_3.0.2/os/rt/include/chmtx.h"
 1742              		.file 14 "ChibiOS_3.0.2/os/rt/include/chsys.h"
 1743              		.file 15 "/usr/include/newlib/math.h"
 1744              		.file 16 "ChibiOS_3.0.2/os/ext/CMSIS/include/core_cm4.h"
 1745              		.file 17 "<built-in>"