ARM GAS  /tmp/ccH7LH8v.s 			page 1


   1              		.syntax unified
   2              		.cpu cortex-m4
   3              		.eabi_attribute 27, 3
   4              		.eabi_attribute 28, 1
   5              		.fpu fpv4-sp-d16
   6              		.eabi_attribute 20, 1
   7              		.eabi_attribute 21, 1
   8              		.eabi_attribute 23, 3
   9              		.eabi_attribute 24, 1
  10              		.eabi_attribute 25, 1
  11              		.eabi_attribute 26, 1
  12              		.eabi_attribute 30, 2
  13              		.eabi_attribute 34, 1
  14              		.eabi_attribute 18, 4
  15              		.thumb
  16              		.file	"ws2811.c"
  17              		.text
  18              	.Ltext0:
  19              		.cfi_sections	.debug_frame
  20              		.section	.text.rgb_to_local,"ax",%progbits
  21              		.align	2
  22              		.p2align 4,,15
  23              		.thumb
  24              		.thumb_func
  25              		.type	rgb_to_local, %function
  26              	rgb_to_local:
  27              	.LFB263:
  28              		.file 1 "ws2811.c"
  29              		.loc 1 239 0
  30              		.cfi_startproc
  31              		@ args = 0, pretend = 0, frame = 0
  32              		@ frame_needed = 0, uses_anonymous_args = 0
  33              		@ link register save eliminated.
  34              	.LVL0:
  35              		.loc 1 244 0
  36 0000 104B     		ldr	r3, .L2
  37 0002 114A     		ldr	r2, .L2+4
  38 0004 1968     		ldr	r1, [r3]
  39              		.loc 1 248 0
  40 0006 114B     		ldr	r3, .L2+8
  41              	.LVL1:
  42              		.loc 1 239 0
  43 0008 70B4     		push	{r4, r5, r6}
  44              		.cfi_def_cfa_offset 12
  45              		.cfi_offset 4, -12
  46              		.cfi_offset 5, -8
  47              		.cfi_offset 6, -4
  48              		.loc 1 240 0
  49 000a C0F30745 		ubfx	r5, r0, #16, #8
  50              		.loc 1 244 0
  51 000e 01FB05F5 		mul	r5, r1, r5
  52              	.LVL2:
  53              		.loc 1 241 0
  54 0012 C0F30724 		ubfx	r4, r0, #8, #8
  55              		.loc 1 244 0
  56 0016 A2FB0565 		umull	r6, r5, r2, r5
  57              	.LVL3:
ARM GAS  /tmp/ccH7LH8v.s 			page 2


  58              		.loc 1 242 0
  59 001a C0B2     		uxtb	r0, r0
  60              	.LVL4:
  61              		.loc 1 245 0
  62 001c 01FB04F4 		mul	r4, r1, r4
  63              	.LVL5:
  64 0020 A2FB0464 		umull	r6, r4, r2, r4
  65              	.LVL6:
  66              		.loc 1 244 0
  67 0024 6D09     		lsrs	r5, r5, #5
  68              		.loc 1 246 0
  69 0026 01FB00F1 		mul	r1, r1, r0
  70              	.LVL7:
  71 002a A2FB0102 		umull	r0, r2, r2, r1
  72              		.loc 1 245 0
  73 002e 6409     		lsrs	r4, r4, #5
  74              		.loc 1 248 0
  75 0030 585D     		ldrb	r0, [r3, r5]	@ zero_extendqisi2
  76              	.LVL8:
  77              		.loc 1 249 0
  78 0032 1C5D     		ldrb	r4, [r3, r4]	@ zero_extendqisi2
  79              	.LVL9:
  80              		.loc 1 246 0
  81 0034 5209     		lsrs	r2, r2, #5
  82              		.loc 1 252 0
  83 0036 0002     		lsls	r0, r0, #8
  84              	.LVL10:
  85              		.loc 1 250 0
  86 0038 9B5C     		ldrb	r3, [r3, r2]	@ zero_extendqisi2
  87              	.LVL11:
  88              		.loc 1 252 0
  89 003a 40EA0440 		orr	r0, r0, r4, lsl #16
  90              		.loc 1 253 0
  91 003e 1843     		orrs	r0, r0, r3
  92 0040 70BC     		pop	{r4, r5, r6}
  93              	.LVL12:
  94 0042 7047     		bx	lr
  95              	.L3:
  96              		.align	2
  97              	.L2:
  98 0044 00000000 		.word	.LANCHOR0
  99 0048 1F85EB51 		.word	1374389535
 100 004c 00000000 		.word	.LANCHOR1
 101              		.cfi_endproc
 102              	.LFE263:
 103              		.size	rgb_to_local, .-rgb_to_local
 104              		.section	.text.ws2811_init,"ax",%progbits
 105              		.align	2
 106              		.p2align 4,,15
 107              		.global	ws2811_init
 108              		.thumb
 109              		.thumb_func
 110              		.type	ws2811_init, %function
 111              	ws2811_init:
 112              	.LFB256:
 113              		.loc 1 43 0
 114              		.cfi_startproc
ARM GAS  /tmp/ccH7LH8v.s 			page 3


 115              		@ args = 0, pretend = 0, frame = 96
 116              		@ frame_needed = 0, uses_anonymous_args = 0
 117 0000 2DE9F04F 		push	{r4, r5, r6, r7, r8, r9, r10, fp, lr}
 118              		.cfi_def_cfa_offset 36
 119              		.cfi_offset 4, -36
 120              		.cfi_offset 5, -32
 121              		.cfi_offset 6, -28
 122              		.cfi_offset 7, -24
 123              		.cfi_offset 8, -20
 124              		.cfi_offset 9, -16
 125              		.cfi_offset 10, -12
 126              		.cfi_offset 11, -8
 127              		.cfi_offset 14, -4
 128 0004 2DED028B 		fstmfdd	sp!, {d8}
 129              		.cfi_def_cfa_offset 44
 130              		.cfi_offset 80, -44
 131              		.loc 1 48 0
 132 0008 604B     		ldr	r3, .L21
 133 000a DFF8A4B1 		ldr	fp, .L21+36
 134 000e 6422     		movs	r2, #100
 135 0010 1A60     		str	r2, [r3]
 136              	.LVL13:
 137              		.loc 1 43 0
 138 0012 99B0     		sub	sp, sp, #100
 139              		.cfi_def_cfa_offset 144
 140              		.loc 1 48 0
 141 0014 ABF17403 		sub	r3, fp, #116
 142              		.loc 1 54 0
 143 0018 0022     		movs	r2, #0
 144              	.LVL14:
 145              	.L6:
 146              		.loc 1 54 0 is_stmt 0 discriminator 2
 147 001a 43F8042F 		str	r2, [r3, #4]!
 148              		.loc 1 53 0 is_stmt 1 discriminator 2
 149 001e 5B45     		cmp	r3, fp
 150 0020 FBD1     		bne	.L6
 151 0022 5B4E     		ldr	r6, .L21+4
 152              		.loc 1 53 0 is_stmt 0
 153 0024 DFF88CA1 		ldr	r10, .L21+40
 154 0028 06F13008 		add	r8, r6, #48
 155 002c 4FF00009 		mov	r9, #0
 156              	.LBB5:
 157              		.loc 1 64 0 is_stmt 1
 158 0030 1425     		movs	r5, #20
 159              		.loc 1 62 0
 160 0032 5324     		movs	r4, #83
 161              	.L12:
 162              		.loc 1 58 0
 163 0034 5AF8040F 		ldr	r0, [r10, #4]!
 164 0038 554F     		ldr	r7, .L21+4
 165 003a FFF7FEFF 		bl	rgb_to_local
 166              	.LVL15:
 167 003e 08EB0902 		add	r2, r8, r9
 168 0042 06EB0903 		add	r3, r6, r9
 169              	.LVL16:
 170              	.L10:
 171              		.loc 1 61 0
ARM GAS  /tmp/ccH7LH8v.s 			page 4


 172 0046 0102     		lsls	r1, r0, #8
 173              		.loc 1 62 0
 174 0048 4CBF     		ite	mi
 175 004a 1C80     		strhmi	r4, [r3]	@ movhi
 176              		.loc 1 64 0
 177 004c 1D80     		strhpl	r5, [r3]	@ movhi
 178 004e 0233     		adds	r3, r3, #2
 179              		.loc 1 60 0
 180 0050 9342     		cmp	r3, r2
 181              		.loc 1 66 0
 182 0052 4FEA4000 		lsl	r0, r0, #1
 183              	.LVL17:
 184              		.loc 1 60 0
 185 0056 F6D1     		bne	.L10
 186              	.LBE5:
 187              		.loc 1 57 0
 188 0058 D345     		cmp	fp, r10
 189 005a 09F13009 		add	r9, r9, #48
 190 005e E9D1     		bne	.L12
 191 0060 4C4B     		ldr	r3, .L21+8
 192              		.loc 1 73 0
 193 0062 0021     		movs	r1, #0
 194 0064 03F16402 		add	r2, r3, #100
 195              	.L14:
 196              		.loc 1 73 0 is_stmt 0 discriminator 2
 197 0068 23F8021F 		strh	r1, [r3, #2]!	@ movhi
 198              		.loc 1 72 0 is_stmt 1 discriminator 2
 199 006c 9342     		cmp	r3, r2
 200 006e FBD1     		bne	.L14
 201 0070 494D     		ldr	r5, .L21+12
 202              	.LBB6:
 203              		.loc 1 78 0
 204 0072 9FED4A8A 		flds	s16, .L21+16
 205              	.LBE6:
 206              		.loc 1 72 0
 207 0076 0024     		movs	r4, #0
 208              	.LVL18:
 209              	.L16:
 210              	.LBB7:
 211              		.loc 1 78 0 discriminator 2
 212 0078 07EE904A 		fmsr	s15, r4	@ int
 213 007c B8EEE70A 		fsitos	s0, s15
 214 0080 DFED470A 		flds	s1, .L21+20
 215 0084 80EE080A 		fdivs	s0, s0, s16
 216 0088 FFF7FEFF 		bl	powf
 217              	.LVL19:
 218 008c 20EE080A 		fmuls	s0, s0, s16
 219 0090 FFF7FEFF 		bl	roundf
 220              	.LVL20:
 221 0094 BDEEC00A 		ftosizs	s0, s0
 222 0098 10EE103A 		fmrs	r3, s0	@ int
 223 009c 2B55     		strb	r3, [r5, r4]
 224              		.loc 1 77 0 discriminator 2
 225 009e 0134     		adds	r4, r4, #1
 226              	.LVL21:
 227 00a0 B4F5807F 		cmp	r4, #256
 228 00a4 E8D1     		bne	.L16
ARM GAS  /tmp/ccH7LH8v.s 			page 5


 229              	.LBE7:
 230              		.loc 1 82 0
 231 00a6 4FF48772 		mov	r2, #270
 232 00aa 3E48     		ldr	r0, .L21+24
 233              		.loc 1 98 0
 234 00ac DFF808A1 		ldr	r10, .L21+44
 235              		.loc 1 82 0
 236 00b0 8021     		movs	r1, #128
 237 00b2 FFF7FEFF 		bl	_pal_lld_setgroupmode
 238              	.LVL22:
 239              		.loc 1 94 0
 240 00b6 0121     		movs	r1, #1
 241 00b8 4FF40010 		mov	r0, #2097152
 242 00bc FFF7FEFF 		bl	RCC_AHB1PeriphClockCmd
 243              	.LVL23:
 244              		.loc 1 97 0
 245 00c0 3948     		ldr	r0, .L21+28
 246 00c2 FFF7FEFF 		bl	DMA_DeInit
 247              	.LVL24:
 248              		.loc 1 107 0
 249 00c6 0025     		movs	r5, #0
 250              		.loc 1 109 0
 251 00c8 4FF4006C 		mov	ip, #2048
 252              		.loc 1 110 0
 253 00cc 4FF4005E 		mov	lr, #8192
 254              		.loc 1 112 0
 255 00d0 4FF40032 		mov	r2, #131072
 256              		.loc 1 114 0
 257 00d4 0323     		movs	r3, #3
 258              		.loc 1 104 0
 259 00d6 0B97     		str	r7, [sp, #44]
 260              		.loc 1 119 0
 261 00d8 09A9     		add	r1, sp, #36
 262              		.loc 1 108 0
 263 00da 4FF48067 		mov	r7, #1024
 264              		.loc 1 119 0
 265 00de 3248     		ldr	r0, .L21+28
 266              		.loc 1 109 0
 267 00e0 CDF840C0 		str	ip, [sp, #64]
 268              		.loc 1 103 0
 269 00e4 4FF0806B 		mov	fp, #67108864
 270              		.loc 1 105 0
 271 00e8 4FF04009 		mov	r9, #64
 272              		.loc 1 106 0
 273 00ec 40F2EA28 		movw	r8, #746
 274              		.loc 1 110 0
 275 00f0 CDF844E0 		str	lr, [sp, #68]
 276              		.loc 1 112 0
 277 00f4 1392     		str	r2, [sp, #76]
 278              		.loc 1 114 0
 279 00f6 1593     		str	r3, [sp, #84]
 280              		.loc 1 111 0
 281 00f8 1294     		str	r4, [sp, #72]
 282              		.loc 1 98 0
 283 00fa CDF828A0 		str	r10, [sp, #40]
 284              		.loc 1 103 0
 285 00fe CDF824B0 		str	fp, [sp, #36]
ARM GAS  /tmp/ccH7LH8v.s 			page 6


 286              		.loc 1 105 0
 287 0102 CDF83090 		str	r9, [sp, #48]
 288              		.loc 1 106 0
 289 0106 CDF83480 		str	r8, [sp, #52]
 290              		.loc 1 107 0
 291 010a 0E95     		str	r5, [sp, #56]
 292              		.loc 1 113 0
 293 010c 1495     		str	r5, [sp, #80]
 294              		.loc 1 115 0
 295 010e 1695     		str	r5, [sp, #88]
 296              		.loc 1 116 0
 297 0110 1795     		str	r5, [sp, #92]
 298              		.loc 1 108 0
 299 0112 0F97     		str	r7, [sp, #60]
 300              		.loc 1 119 0
 301 0114 FFF7FEFF 		bl	DMA_Init
 302              	.LVL25:
 303              		.loc 1 124 0
 304 0118 0420     		movs	r0, #4
 305 011a 0121     		movs	r1, #1
 306 011c FFF7FEFF 		bl	RCC_APB1PeriphClockCmd
 307              	.LVL26:
 308              		.loc 1 129 0
 309 0120 6823     		movs	r3, #104
 310              		.loc 1 133 0
 311 0122 01A9     		add	r1, sp, #4
 312 0124 2148     		ldr	r0, .L21+32
 313              		.loc 1 129 0
 314 0126 0293     		str	r3, [sp, #8]
 315              		.loc 1 137 0
 316 0128 0124     		movs	r4, #1
 317              	.LVL27:
 318              		.loc 1 127 0
 319 012a ADF80450 		strh	r5, [sp, #4]	@ movhi
 320              		.loc 1 128 0
 321 012e ADF80650 		strh	r5, [sp, #6]	@ movhi
 322              		.loc 1 130 0
 323 0132 ADF80C50 		strh	r5, [sp, #12]	@ movhi
 324              		.loc 1 131 0
 325 0136 8DF80E50 		strb	r5, [sp, #14]
 326              		.loc 1 133 0
 327 013a FFF7FEFF 		bl	TIM_TimeBaseInit
 328              	.LVL28:
 329              		.loc 1 136 0
 330 013e 6023     		movs	r3, #96
 331              		.loc 1 138 0
 332 0140 3288     		ldrh	r2, [r6]
 333              		.loc 1 142 0
 334 0142 1A48     		ldr	r0, .L21+32
 335              		.loc 1 136 0
 336 0144 ADF81030 		strh	r3, [sp, #16]	@ movhi
 337              		.loc 1 142 0
 338 0148 04A9     		add	r1, sp, #16
 339              		.loc 1 138 0
 340 014a 0692     		str	r2, [sp, #24]
 341              		.loc 1 139 0
 342 014c ADF81C50 		strh	r5, [sp, #28]	@ movhi
ARM GAS  /tmp/ccH7LH8v.s 			page 7


 343              		.loc 1 137 0
 344 0150 ADF81240 		strh	r4, [sp, #18]	@ movhi
 345              		.loc 1 142 0
 346 0154 FFF7FEFF 		bl	TIM_OC2Init
 347              	.LVL29:
 348              		.loc 1 143 0
 349 0158 1448     		ldr	r0, .L21+32
 350 015a 0821     		movs	r1, #8
 351 015c FFF7FEFF 		bl	TIM_OC2PreloadConfig
 352              	.LVL30:
 353              		.loc 1 150 0
 354 0160 2146     		mov	r1, r4
 355 0162 1248     		ldr	r0, .L21+32
 356 0164 FFF7FEFF 		bl	TIM_Cmd
 357              	.LVL31:
 358              		.loc 1 154 0
 359 0168 2146     		mov	r1, r4
 360 016a 0F48     		ldr	r0, .L21+28
 361 016c FFF7FEFF 		bl	DMA_Cmd
 362              	.LVL32:
 363              		.loc 1 161 0
 364 0170 3946     		mov	r1, r7
 365 0172 2246     		mov	r2, r4
 366 0174 0D48     		ldr	r0, .L21+32
 367 0176 FFF7FEFF 		bl	TIM_DMACmd
 368              	.LVL33:
 369              		.loc 1 167 0
 370 017a 2146     		mov	r1, r4
 371 017c 0B48     		ldr	r0, .L21+32
 372 017e FFF7FEFF 		bl	TIM_CtrlPWMOutputs
 373              	.LVL34:
 374              		.loc 1 168 0
 375 0182 19B0     		add	sp, sp, #100
 376              		@ sp needed
 377 0184 BDEC028B 		fldmfdd	sp!, {d8}
 378 0188 BDE8F08F 		pop	{r4, r5, r6, r7, r8, r9, r10, fp, pc}
 379              	.L22:
 380              		.align	2
 381              	.L21:
 382 018c 00000000 		.word	.LANCHOR0
 383 0190 00000000 		.word	.LANCHOR3
 384 0194 6C050000 		.word	.LANCHOR3+1388
 385 0198 00000000 		.word	.LANCHOR1
 386 019c 00007F43 		.word	1132396544
 387 01a0 E4380E40 		.word	1074673892
 388 01a4 00040240 		.word	1073873920
 389 01a8 58600240 		.word	1073897560
 390 01ac 00080040 		.word	1073743872
 391 01b0 70000000 		.word	.LANCHOR2+112
 392 01b4 FCFFFFFF 		.word	.LANCHOR2-4
 393 01b8 38080040 		.word	1073743928
 394              		.cfi_endproc
 395              	.LFE256:
 396              		.size	ws2811_init, .-ws2811_init
 397 01bc AFF30080 		.section	.text.ws2811_set_led_color,"ax",%progbits
 398              		.align	2
 399              		.p2align 4,,15
ARM GAS  /tmp/ccH7LH8v.s 			page 8


 400              		.global	ws2811_set_led_color
 401              		.thumb
 402              		.thumb_func
 403              		.type	ws2811_set_led_color, %function
 404              	ws2811_set_led_color:
 405              	.LFB257:
 406              		.loc 1 170 0
 407              		.cfi_startproc
 408              		@ args = 0, pretend = 0, frame = 0
 409              		@ frame_needed = 0, uses_anonymous_args = 0
 410              	.LVL35:
 411              		.loc 1 171 0
 412 0000 1B28     		cmp	r0, #27
 413              		.loc 1 170 0
 414 0002 F8B5     		push	{r3, r4, r5, r6, r7, lr}
 415              		.cfi_def_cfa_offset 24
 416              		.cfi_offset 3, -24
 417              		.cfi_offset 4, -20
 418              		.cfi_offset 5, -16
 419              		.cfi_offset 6, -12
 420              		.cfi_offset 7, -8
 421              		.cfi_offset 14, -4
 422              		.loc 1 170 0
 423 0004 0446     		mov	r4, r0
 424              		.loc 1 171 0
 425 0006 1FD8     		bhi	.L23
 426              	.LBB8:
 427              		.loc 1 172 0
 428 0008 104B     		ldr	r3, .L30
 429              		.loc 1 174 0
 430 000a 0846     		mov	r0, r1
 431              	.LVL36:
 432              		.loc 1 172 0
 433 000c 43F82410 		str	r1, [r3, r4, lsl #2]
 434              		.loc 1 174 0
 435 0010 FFF7FEFF 		bl	rgb_to_local
 436              	.LVL37:
 437 0014 0E4B     		ldr	r3, .L30+4
 438              		.loc 1 179 0
 439 0016 04EB4404 		add	r4, r4, r4, lsl #1
 440              	.LVL38:
 441 001a 2501     		lsls	r5, r4, #4
 442              		.loc 1 174 0
 443 001c 0246     		mov	r2, r0
 444              	.LVL39:
 445 001e 03F13000 		add	r0, r3, #48
 446              	.LVL40:
 447 0022 6C42     		negs	r4, r5
 448 0024 2B44     		add	r3, r3, r5
 449 0026 2844     		add	r0, r0, r5
 450              		.loc 1 181 0
 451 0028 1427     		movs	r7, #20
 452              		.loc 1 179 0
 453 002a 5326     		movs	r6, #83
 454              	.LVL41:
 455              	.L28:
 456              		.loc 1 178 0
ARM GAS  /tmp/ccH7LH8v.s 			page 9


 457 002c 12F4000F 		tst	r2, #8388608
 458 0030 03EB0401 		add	r1, r3, r4
 459              		.loc 1 179 0
 460 0034 18BF     		it	ne
 461 0036 1E80     		strhne	r6, [r3]	@ movhi
 462 0038 03F10203 		add	r3, r3, #2
 463              		.loc 1 181 0
 464 003c 08BF     		it	eq
 465 003e 4F53     		strheq	r7, [r1, r5]	@ movhi
 466              		.loc 1 177 0
 467 0040 8342     		cmp	r3, r0
 468              		.loc 1 183 0
 469 0042 4FEA4202 		lsl	r2, r2, #1
 470              	.LVL42:
 471              		.loc 1 177 0
 472 0046 F1D1     		bne	.L28
 473              	.LVL43:
 474              	.L23:
 475 0048 F8BD     		pop	{r3, r4, r5, r6, r7, pc}
 476              	.L31:
 477 004a 00BF     		.align	2
 478              	.L30:
 479 004c 00000000 		.word	.LANCHOR2
 480 0050 00000000 		.word	.LANCHOR3
 481              	.LBE8:
 482              		.cfi_endproc
 483              	.LFE257:
 484              		.size	ws2811_set_led_color, .-ws2811_set_led_color
 485 0054 AFF30080 		.section	.text.ws2811_get_led_color,"ax",%progbits
 485      AFF30080 
 485      AFF30080 
 486              		.align	2
 487              		.p2align 4,,15
 488              		.global	ws2811_get_led_color
 489              		.thumb
 490              		.thumb_func
 491              		.type	ws2811_get_led_color, %function
 492              	ws2811_get_led_color:
 493              	.LFB258:
 494              		.loc 1 188 0
 495              		.cfi_startproc
 496              		@ args = 0, pretend = 0, frame = 0
 497              		@ frame_needed = 0, uses_anonymous_args = 0
 498              		@ link register save eliminated.
 499              	.LVL44:
 500              		.loc 1 189 0
 501 0000 1B28     		cmp	r0, #27
 502              		.loc 1 190 0
 503 0002 9ABF     		itte	ls
 504 0004 024B     		ldrls	r3, .L35
 505 0006 53F82000 		ldrls	r0, [r3, r0, lsl #2]
 506              	.LVL45:
 507              		.loc 1 193 0
 508 000a 0020     		movhi	r0, #0
 509              		.loc 1 194 0
 510 000c 7047     		bx	lr
 511              	.L36:
ARM GAS  /tmp/ccH7LH8v.s 			page 10


 512 000e 00BF     		.align	2
 513              	.L35:
 514 0010 00000000 		.word	.LANCHOR2
 515              		.cfi_endproc
 516              	.LFE258:
 517              		.size	ws2811_get_led_color, .-ws2811_get_led_color
 518 0014 AFF30080 		.section	.text.ws2811_all_off,"ax",%progbits
 518      AFF30080 
 518      AFF30080 
 519              		.align	2
 520              		.p2align 4,,15
 521              		.global	ws2811_all_off
 522              		.thumb
 523              		.thumb_func
 524              		.type	ws2811_all_off, %function
 525              	ws2811_all_off:
 526              	.LFB259:
 527              		.loc 1 196 0
 528              		.cfi_startproc
 529              		@ args = 0, pretend = 0, frame = 0
 530              		@ frame_needed = 0, uses_anonymous_args = 0
 531              		@ link register save eliminated.
 532              	.LVL46:
 533 0000 084B     		ldr	r3, .L44
 534              		.loc 1 200 0
 535 0002 0021     		movs	r1, #0
 536 0004 03F17002 		add	r2, r3, #112
 537              	.LVL47:
 538              	.L39:
 539              		.loc 1 200 0 is_stmt 0 discriminator 2
 540 0008 43F8041F 		str	r1, [r3, #4]!
 541              		.loc 1 199 0 is_stmt 1 discriminator 2
 542 000c 9342     		cmp	r3, r2
 543 000e FBD1     		bne	.L39
 544 0010 054B     		ldr	r3, .L44+4
 545              		.loc 1 204 0
 546 0012 1421     		movs	r1, #20
 547 0014 03F5A862 		add	r2, r3, #1344
 548              	.L41:
 549              		.loc 1 204 0 is_stmt 0 discriminator 2
 550 0018 23F8021F 		strh	r1, [r3, #2]!	@ movhi
 551              		.loc 1 203 0 is_stmt 1 discriminator 2
 552 001c 9342     		cmp	r3, r2
 553 001e FBD1     		bne	.L41
 554              		.loc 1 206 0
 555 0020 7047     		bx	lr
 556              	.L45:
 557 0022 00BF     		.align	2
 558              	.L44:
 559 0024 FCFFFFFF 		.word	.LANCHOR2-4
 560 0028 FEFFFFFF 		.word	.LANCHOR3-2
 561              		.cfi_endproc
 562              	.LFE259:
 563              		.size	ws2811_all_off, .-ws2811_all_off
 564 002c AFF30080 		.section	.text.ws2811_set_all,"ax",%progbits
 565              		.align	2
 566              		.p2align 4,,15
ARM GAS  /tmp/ccH7LH8v.s 			page 11


 567              		.global	ws2811_set_all
 568              		.thumb
 569              		.thumb_func
 570              		.type	ws2811_set_all, %function
 571              	ws2811_set_all:
 572              	.LFB260:
 573              		.loc 1 208 0
 574              		.cfi_startproc
 575              		@ args = 0, pretend = 0, frame = 0
 576              		@ frame_needed = 0, uses_anonymous_args = 0
 577              	.LVL48:
 578 0000 2DE9F84F 		push	{r3, r4, r5, r6, r7, r8, r9, r10, fp, lr}
 579              		.cfi_def_cfa_offset 40
 580              		.cfi_offset 3, -40
 581              		.cfi_offset 4, -36
 582              		.cfi_offset 5, -32
 583              		.cfi_offset 6, -28
 584              		.cfi_offset 7, -24
 585              		.cfi_offset 8, -20
 586              		.cfi_offset 9, -16
 587              		.cfi_offset 10, -12
 588              		.cfi_offset 11, -8
 589              		.cfi_offset 14, -4
 590 0004 DFF848A0 		ldr	r10, .L54+4
 591 0008 104E     		ldr	r6, .L54
 592              		.loc 1 208 0
 593 000a 8346     		mov	fp, r0
 594 000c 0AF17008 		add	r8, r10, #112
 595 0010 06F13007 		add	r7, r6, #48
 596 0014 4FF00009 		mov	r9, #0
 597              	.LBB9:
 598              		.loc 1 220 0
 599 0018 1425     		movs	r5, #20
 600              		.loc 1 218 0
 601 001a 5324     		movs	r4, #83
 602              	.LVL49:
 603              	.L52:
 604              		.loc 1 214 0
 605 001c 5846     		mov	r0, fp
 606              		.loc 1 212 0
 607 001e 4AF804BF 		str	fp, [r10, #4]!
 608              		.loc 1 214 0
 609 0022 FFF7FEFF 		bl	rgb_to_local
 610              	.LVL50:
 611 0026 07EB0902 		add	r2, r7, r9
 612 002a 06EB0903 		add	r3, r6, r9
 613              	.LVL51:
 614              	.L50:
 615              		.loc 1 217 0
 616 002e 0102     		lsls	r1, r0, #8
 617              		.loc 1 218 0
 618 0030 4CBF     		ite	mi
 619 0032 1C80     		strhmi	r4, [r3]	@ movhi
 620              		.loc 1 220 0
 621 0034 1D80     		strhpl	r5, [r3]	@ movhi
 622 0036 0233     		adds	r3, r3, #2
 623              		.loc 1 216 0
ARM GAS  /tmp/ccH7LH8v.s 			page 12


 624 0038 9342     		cmp	r3, r2
 625              		.loc 1 222 0
 626 003a 4FEA4000 		lsl	r0, r0, #1
 627              	.LVL52:
 628              		.loc 1 216 0
 629 003e F6D1     		bne	.L50
 630              	.LBE9:
 631              		.loc 1 211 0
 632 0040 C245     		cmp	r10, r8
 633 0042 09F13009 		add	r9, r9, #48
 634 0046 E9D1     		bne	.L52
 635              		.loc 1 225 0
 636 0048 BDE8F88F 		pop	{r3, r4, r5, r6, r7, r8, r9, r10, fp, pc}
 637              	.LVL53:
 638              	.L55:
 639              		.align	2
 640              	.L54:
 641 004c 00000000 		.word	.LANCHOR3
 642 0050 FCFFFFFF 		.word	.LANCHOR2-4
 643              		.cfi_endproc
 644              	.LFE260:
 645              		.size	ws2811_set_all, .-ws2811_set_all
 646 0054 AFF30080 		.section	.text.ws2811_set_brightness,"ax",%progbits
 646      AFF30080 
 646      AFF30080 
 647              		.align	2
 648              		.p2align 4,,15
 649              		.global	ws2811_set_brightness
 650              		.thumb
 651              		.thumb_func
 652              		.type	ws2811_set_brightness, %function
 653              	ws2811_set_brightness:
 654              	.LFB261:
 655              		.loc 1 227 0
 656              		.cfi_startproc
 657              		@ args = 0, pretend = 0, frame = 0
 658              		@ frame_needed = 0, uses_anonymous_args = 0
 659              	.LVL54:
 660 0000 38B5     		push	{r3, r4, r5, lr}
 661              		.cfi_def_cfa_offset 16
 662              		.cfi_offset 3, -16
 663              		.cfi_offset 4, -12
 664              		.cfi_offset 5, -8
 665              		.cfi_offset 14, -4
 666              		.loc 1 228 0
 667 0002 064B     		ldr	r3, .L59
 668 0004 064D     		ldr	r5, .L59+4
 669 0006 1860     		str	r0, [r3]
 670              	.LVL55:
 671              	.LBB10:
 672              		.loc 1 230 0
 673 0008 0024     		movs	r4, #0
 674              	.LVL56:
 675              	.L58:
 676              		.loc 1 231 0
 677 000a 2046     		mov	r0, r4
 678 000c 55F8041F 		ldr	r1, [r5, #4]!
ARM GAS  /tmp/ccH7LH8v.s 			page 13


 679              		.loc 1 230 0
 680 0010 0134     		adds	r4, r4, #1
 681              	.LVL57:
 682              		.loc 1 231 0
 683 0012 FFF7FEFF 		bl	ws2811_set_led_color
 684              	.LVL58:
 685              		.loc 1 230 0
 686 0016 1C2C     		cmp	r4, #28
 687 0018 F7D1     		bne	.L58
 688              	.LBE10:
 689              		.loc 1 233 0
 690 001a 38BD     		pop	{r3, r4, r5, pc}
 691              	.LVL59:
 692              	.L60:
 693              		.align	2
 694              	.L59:
 695 001c 00000000 		.word	.LANCHOR0
 696 0020 FCFFFFFF 		.word	.LANCHOR2-4
 697              		.cfi_endproc
 698              	.LFE261:
 699              		.size	ws2811_set_brightness, .-ws2811_set_brightness
 700 0024 AFF30080 		.section	.text.ws2811_get_brightness,"ax",%progbits
 700      AFF30080 
 700      AFF30080 
 701              		.align	2
 702              		.p2align 4,,15
 703              		.global	ws2811_get_brightness
 704              		.thumb
 705              		.thumb_func
 706              		.type	ws2811_get_brightness, %function
 707              	ws2811_get_brightness:
 708              	.LFB262:
 709              		.loc 1 235 0
 710              		.cfi_startproc
 711              		@ args = 0, pretend = 0, frame = 0
 712              		@ frame_needed = 0, uses_anonymous_args = 0
 713              		@ link register save eliminated.
 714              		.loc 1 236 0
 715 0000 014B     		ldr	r3, .L62
 716              		.loc 1 237 0
 717 0002 1868     		ldr	r0, [r3]
 718 0004 7047     		bx	lr
 719              	.L63:
 720 0006 00BF     		.align	2
 721              	.L62:
 722 0008 00000000 		.word	.LANCHOR0
 723              		.cfi_endproc
 724              	.LFE262:
 725              		.size	ws2811_get_brightness, .-ws2811_get_brightness
 726 000c AFF30080 		.section	.bss.brightness,"aw",%nobits
 727              		.align	2
 728              		.set	.LANCHOR0,. + 0
 729              		.type	brightness, %object
 730              		.size	brightness, 4
 731              	brightness:
 732 0000 00000000 		.space	4
 733              		.section	.bss.bitbuffer,"aw",%nobits
ARM GAS  /tmp/ccH7LH8v.s 			page 14


 734              		.align	2
 735              		.set	.LANCHOR3,. + 0
 736              		.type	bitbuffer, %object
 737              		.size	bitbuffer, 1492
 738              	bitbuffer:
 739 0000 00000000 		.space	1492
 739      00000000 
 739      00000000 
 739      00000000 
 739      00000000 
 740              		.section	.bss.RGBdata,"aw",%nobits
 741              		.align	2
 742              		.set	.LANCHOR2,. + 0
 743              		.type	RGBdata, %object
 744              		.size	RGBdata, 116
 745              	RGBdata:
 746 0000 00000000 		.space	116
 746      00000000 
 746      00000000 
 746      00000000 
 746      00000000 
 747              		.section	.bss.gamma_table,"aw",%nobits
 748              		.align	2
 749              		.set	.LANCHOR1,. + 0
 750              		.type	gamma_table, %object
 751              		.size	gamma_table, 256
 752              	gamma_table:
 753 0000 00000000 		.space	256
 753      00000000 
 753      00000000 
 753      00000000 
 753      00000000 
 754              		.text
 755              	.Letext0:
 756              		.file 2 "/usr/lib/gcc/arm-none-eabi/4.8/include/stddef.h"
 757              		.file 3 "/usr/include/newlib/machine/_default_types.h"
 758              		.file 4 "/usr/include/newlib/stdint.h"
 759              		.file 5 "ChibiOS_3.0.2/os/rt/ports/ARMCMx/compilers/GCC/chtypes.h"
 760              		.file 6 "ChibiOS_3.0.2/os/rt/include/chsystypes.h"
 761              		.file 7 "ChibiOS_3.0.2/os/rt/include/chschd.h"
 762              		.file 8 "ChibiOS_3.0.2/os/ext/CMSIS/ST/stm32f407xx.h"
 763              		.file 9 "ChibiOS_3.0.2/os/ext/CMSIS/ST/stm32f4xx.h"
 764              		.file 10 "ChibiOS_3.0.2/os/rt/ports/ARMCMx/chcore.h"
 765              		.file 11 "ChibiOS_3.0.2/os/rt/ports/ARMCMx/chcore_v7m.h"
 766              		.file 12 "ChibiOS_3.0.2/os/rt/include/chtm.h"
 767              		.file 13 "ChibiOS_3.0.2/os/rt/include/chsem.h"
 768              		.file 14 "ChibiOS_3.0.2/os/rt/include/chmtx.h"
 769              		.file 15 "ChibiOS_3.0.2/ext/stdperiph_stm32f4/inc/stm32f4xx_dma.h"
 770              		.file 16 "ChibiOS_3.0.2/ext/stdperiph_stm32f4/inc/stm32f4xx_tim.h"
 771              		.file 17 "ChibiOS_3.0.2/os/hal/ports/STM32/LLD/GPIOv2/pal_lld.h"
 772              		.file 18 "/usr/include/newlib/math.h"
 773              		.file 19 "ChibiOS_3.0.2/ext/stdperiph_stm32f4/inc/stm32f4xx_rcc.h"
 774              		.file 20 "ChibiOS_3.0.2/os/ext/CMSIS/include/core_cm4.h"