Archive member included to satisfy reference by file (symbol)

/usr/lib/gcc/arm-none-eabi/4.8/../../../arm-none-eabi/lib/armv7e-m/fpu/libm.a(lib_a-sf_cos.o)
                              build/obj/digital_filter.o (cosf)
/usr/lib/gcc/arm-none-eabi/4.8/../../../arm-none-eabi/lib/armv7e-m/fpu/libm.a(lib_a-sf_floor.o)
                              build/obj/mcpwm_foc.o (floorf)
/usr/lib/gcc/arm-none-eabi/4.8/../../../arm-none-eabi/lib/armv7e-m/fpu/libm.a(lib_a-sf_frexp.o)
                              build/obj/buffer.o (frexpf)
/usr/lib/gcc/arm-none-eabi/4.8/../../../arm-none-eabi/lib/armv7e-m/fpu/libm.a(lib_a-sf_ldexp.o)
                              build/obj/buffer.o (ldexpf)
/usr/lib/gcc/arm-none-eabi/4.8/../../../arm-none-eabi/lib/armv7e-m/fpu/libm.a(lib_a-sf_round.o)
                              build/obj/ledpwm.o (roundf)
/usr/lib/gcc/arm-none-eabi/4.8/../../../arm-none-eabi/lib/armv7e-m/fpu/libm.a(lib_a-sf_scalbn.o)
                              /usr/lib/gcc/arm-none-eabi/4.8/../../../arm-none-eabi/lib/armv7e-m/fpu/libm.a(lib_a-sf_ldexp.o) (scalbnf)
/usr/lib/gcc/arm-none-eabi/4.8/../../../arm-none-eabi/lib/armv7e-m/fpu/libm.a(lib_a-sf_sin.o)
                              build/obj/digital_filter.o (sinf)
/usr/lib/gcc/arm-none-eabi/4.8/../../../arm-none-eabi/lib/armv7e-m/fpu/libm.a(lib_a-wf_asin.o)
                              build/obj/mcpwm.o (asinf)
/usr/lib/gcc/arm-none-eabi/4.8/../../../arm-none-eabi/lib/armv7e-m/fpu/libm.a(lib_a-wf_atan2.o)
                              build/obj/mcpwm_foc.o (atan2f)
/usr/lib/gcc/arm-none-eabi/4.8/../../../arm-none-eabi/lib/armv7e-m/fpu/libm.a(lib_a-wf_exp.o)
                              build/obj/utils.o (expf)
/usr/lib/gcc/arm-none-eabi/4.8/../../../arm-none-eabi/lib/armv7e-m/fpu/libm.a(lib_a-wf_fmod.o)
                              build/obj/utils.o (fmodf)
/usr/lib/gcc/arm-none-eabi/4.8/../../../arm-none-eabi/lib/armv7e-m/fpu/libm.a(lib_a-wf_log.o)
                              build/obj/mc_interface.o (logf)
/usr/lib/gcc/arm-none-eabi/4.8/../../../arm-none-eabi/lib/armv7e-m/fpu/libm.a(lib_a-wf_pow.o)
                              build/obj/ledpwm.o (powf)
/usr/lib/gcc/arm-none-eabi/4.8/../../../arm-none-eabi/lib/armv7e-m/fpu/libm.a(lib_a-wf_sincos.o)
                              build/obj/mcpwm_foc.o (sincosf)
/usr/lib/gcc/arm-none-eabi/4.8/../../../arm-none-eabi/lib/armv7e-m/fpu/libm.a(lib_a-wf_sqrt.o)
                              build/obj/mcpwm.o (sqrtf)
/usr/lib/gcc/arm-none-eabi/4.8/../../../arm-none-eabi/lib/armv7e-m/fpu/libm.a(lib_a-w_sqrt.o)
                              build/obj/digital_filter.o (sqrt)
/usr/lib/gcc/arm-none-eabi/4.8/../../../arm-none-eabi/lib/armv7e-m/fpu/libm.a(lib_a-ef_asin.o)
                              /usr/lib/gcc/arm-none-eabi/4.8/../../../arm-none-eabi/lib/armv7e-m/fpu/libm.a(lib_a-wf_asin.o) (__ieee754_asinf)
/usr/lib/gcc/arm-none-eabi/4.8/../../../arm-none-eabi/lib/armv7e-m/fpu/libm.a(lib_a-ef_atan2.o)
                              /usr/lib/gcc/arm-none-eabi/4.8/../../../arm-none-eabi/lib/armv7e-m/fpu/libm.a(lib_a-wf_atan2.o) (__ieee754_atan2f)
/usr/lib/gcc/arm-none-eabi/4.8/../../../arm-none-eabi/lib/armv7e-m/fpu/libm.a(lib_a-ef_exp.o)
                              /usr/lib/gcc/arm-none-eabi/4.8/../../../arm-none-eabi/lib/armv7e-m/fpu/libm.a(lib_a-wf_exp.o) (__ieee754_expf)
/usr/lib/gcc/arm-none-eabi/4.8/../../../arm-none-eabi/lib/armv7e-m/fpu/libm.a(lib_a-ef_fmod.o)
                              /usr/lib/gcc/arm-none-eabi/4.8/../../../arm-none-eabi/lib/armv7e-m/fpu/libm.a(lib_a-wf_fmod.o) (__ieee754_fmodf)
/usr/lib/gcc/arm-none-eabi/4.8/../../../arm-none-eabi/lib/armv7e-m/fpu/libm.a(lib_a-ef_log.o)
                              /usr/lib/gcc/arm-none-eabi/4.8/../../../arm-none-eabi/lib/armv7e-m/fpu/libm.a(lib_a-wf_log.o) (__ieee754_logf)
/usr/lib/gcc/arm-none-eabi/4.8/../../../arm-none-eabi/lib/armv7e-m/fpu/libm.a(lib_a-ef_pow.o)
                              /usr/lib/gcc/arm-none-eabi/4.8/../../../arm-none-eabi/lib/armv7e-m/fpu/libm.a(lib_a-wf_pow.o) (__ieee754_powf)
/usr/lib/gcc/arm-none-eabi/4.8/../../../arm-none-eabi/lib/armv7e-m/fpu/libm.a(lib_a-ef_rem_pio2.o)
                              /usr/lib/gcc/arm-none-eabi/4.8/../../../arm-none-eabi/lib/armv7e-m/fpu/libm.a(lib_a-sf_cos.o) (__ieee754_rem_pio2f)
/usr/lib/gcc/arm-none-eabi/4.8/../../../arm-none-eabi/lib/armv7e-m/fpu/libm.a(lib_a-ef_sqrt.o)
                              /usr/lib/gcc/arm-none-eabi/4.8/../../../arm-none-eabi/lib/armv7e-m/fpu/libm.a(lib_a-wf_sqrt.o) (__ieee754_sqrtf)
/usr/lib/gcc/arm-none-eabi/4.8/../../../arm-none-eabi/lib/armv7e-m/fpu/libm.a(lib_a-e_sqrt.o)
                              /usr/lib/gcc/arm-none-eabi/4.8/../../../arm-none-eabi/lib/armv7e-m/fpu/libm.a(lib_a-w_sqrt.o) (__ieee754_sqrt)
/usr/lib/gcc/arm-none-eabi/4.8/../../../arm-none-eabi/lib/armv7e-m/fpu/libm.a(lib_a-kf_cos.o)
                              /usr/lib/gcc/arm-none-eabi/4.8/../../../arm-none-eabi/lib/armv7e-m/fpu/libm.a(lib_a-sf_cos.o) (__kernel_cosf)
/usr/lib/gcc/arm-none-eabi/4.8/../../../arm-none-eabi/lib/armv7e-m/fpu/libm.a(lib_a-kf_rem_pio2.o)
                              /usr/lib/gcc/arm-none-eabi/4.8/../../../arm-none-eabi/lib/armv7e-m/fpu/libm.a(lib_a-ef_rem_pio2.o) (__kernel_rem_pio2f)
/usr/lib/gcc/arm-none-eabi/4.8/../../../arm-none-eabi/lib/armv7e-m/fpu/libm.a(lib_a-kf_sin.o)
                              /usr/lib/gcc/arm-none-eabi/4.8/../../../arm-none-eabi/lib/armv7e-m/fpu/libm.a(lib_a-sf_cos.o) (__kernel_sinf)
/usr/lib/gcc/arm-none-eabi/4.8/../../../arm-none-eabi/lib/armv7e-m/fpu/libm.a(lib_a-sf_atan.o)
                              /usr/lib/gcc/arm-none-eabi/4.8/../../../arm-none-eabi/lib/armv7e-m/fpu/libm.a(lib_a-ef_atan2.o) (atanf)
/usr/lib/gcc/arm-none-eabi/4.8/../../../arm-none-eabi/lib/armv7e-m/fpu/libm.a(lib_a-sf_copysign.o)
                              /usr/lib/gcc/arm-none-eabi/4.8/../../../arm-none-eabi/lib/armv7e-m/fpu/libm.a(lib_a-sf_scalbn.o) (copysignf)
/usr/lib/gcc/arm-none-eabi/4.8/../../../arm-none-eabi/lib/armv7e-m/fpu/libm.a(lib_a-sf_fabs.o)
                              /usr/lib/gcc/arm-none-eabi/4.8/../../../arm-none-eabi/lib/armv7e-m/fpu/libm.a(lib_a-wf_asin.o) (fabsf)
/usr/lib/gcc/arm-none-eabi/4.8/../../../arm-none-eabi/lib/armv7e-m/fpu/libm.a(lib_a-sf_finite.o)
                              /usr/lib/gcc/arm-none-eabi/4.8/../../../arm-none-eabi/lib/armv7e-m/fpu/libm.a(lib_a-sf_ldexp.o) (finitef)
/usr/lib/gcc/arm-none-eabi/4.8/../../../arm-none-eabi/lib/armv7e-m/fpu/libm.a(lib_a-sf_fpclassify.o)
                              /usr/lib/gcc/arm-none-eabi/4.8/../../../arm-none-eabi/lib/armv7e-m/fpu/libm.a(lib_a-wf_asin.o) (__fpclassifyf)
/usr/lib/gcc/arm-none-eabi/4.8/../../../arm-none-eabi/lib/armv7e-m/fpu/libm.a(lib_a-sf_nan.o)
                              /usr/lib/gcc/arm-none-eabi/4.8/../../../arm-none-eabi/lib/armv7e-m/fpu/libm.a(lib_a-ef_pow.o) (nanf)
/usr/lib/gcc/arm-none-eabi/4.8/../../../arm-none-eabi/lib/armv7e-m/fpu/libm.a(lib_a-s_fpclassify.o)
                              /usr/lib/gcc/arm-none-eabi/4.8/../../../arm-none-eabi/lib/armv7e-m/fpu/libm.a(lib_a-w_sqrt.o) (__fpclassifyd)
/usr/lib/gcc/arm-none-eabi/4.8/../../../arm-none-eabi/lib/armv7e-m/fpu/libm.a(lib_a-s_lib_ver.o)
                              /usr/lib/gcc/arm-none-eabi/4.8/../../../arm-none-eabi/lib/armv7e-m/fpu/libm.a(lib_a-wf_asin.o) (__fdlib_version)
/usr/lib/gcc/arm-none-eabi/4.8/../../../arm-none-eabi/lib/armv7e-m/fpu/libm.a(lib_a-s_matherr.o)
                              /usr/lib/gcc/arm-none-eabi/4.8/../../../arm-none-eabi/lib/armv7e-m/fpu/libm.a(lib_a-wf_asin.o) (matherr)
/usr/lib/gcc/arm-none-eabi/4.8/../../../arm-none-eabi/lib/armv7e-m/fpu/libm.a(lib_a-s_nan.o)
                              /usr/lib/gcc/arm-none-eabi/4.8/../../../arm-none-eabi/lib/armv7e-m/fpu/libm.a(lib_a-wf_asin.o) (nan)
/usr/lib/gcc/arm-none-eabi/4.8/../../../arm-none-eabi/lib/armv7e-m/fpu/libm.a(lib_a-s_rint.o)
                              /usr/lib/gcc/arm-none-eabi/4.8/../../../arm-none-eabi/lib/armv7e-m/fpu/libm.a(lib_a-wf_pow.o) (rint)
/usr/lib/gcc/arm-none-eabi/4.8/armv7e-m/fpu/libgcc.a(_arm_addsubdf3.o)
                              build/obj/chprintf.o (__aeabi_dsub)
/usr/lib/gcc/arm-none-eabi/4.8/armv7e-m/fpu/libgcc.a(_arm_muldivdf3.o)
                              build/obj/chprintf.o (__aeabi_dmul)
/usr/lib/gcc/arm-none-eabi/4.8/armv7e-m/fpu/libgcc.a(_arm_cmpdf2.o)
                              /usr/lib/gcc/arm-none-eabi/4.8/../../../arm-none-eabi/lib/armv7e-m/fpu/libm.a(lib_a-wf_pow.o) (__aeabi_dcmpeq)
/usr/lib/gcc/arm-none-eabi/4.8/armv7e-m/fpu/libgcc.a(_arm_fixdfsi.o)
                              build/obj/chprintf.o (__aeabi_d2iz)
/usr/lib/gcc/arm-none-eabi/4.8/armv7e-m/fpu/libgcc.a(_arm_truncdfsf2.o)
                              build/obj/chprintf.o (__aeabi_d2f)
/usr/lib/gcc/arm-none-eabi/4.8/../../../arm-none-eabi/lib/armv7e-m/fpu/libg.a(lib_a-errno.o)
                              /usr/lib/gcc/arm-none-eabi/4.8/../../../arm-none-eabi/lib/armv7e-m/fpu/libm.a(lib_a-sf_ldexp.o) (__errno)
/usr/lib/gcc/arm-none-eabi/4.8/../../../arm-none-eabi/lib/armv7e-m/fpu/libg.a(lib_a-impure.o)
                              /usr/lib/gcc/arm-none-eabi/4.8/../../../arm-none-eabi/lib/armv7e-m/fpu/libg.a(lib_a-errno.o) (_impure_ptr)
/usr/lib/gcc/arm-none-eabi/4.8/../../../arm-none-eabi/lib/armv7e-m/fpu/libg.a(lib_a-memcmp.o)
                              build/obj/rfhelp.o (memcmp)
/usr/lib/gcc/arm-none-eabi/4.8/../../../arm-none-eabi/lib/armv7e-m/fpu/libg.a(lib_a-memcpy.o)
                              build/obj/packet.o (memcpy)
/usr/lib/gcc/arm-none-eabi/4.8/../../../arm-none-eabi/lib/armv7e-m/fpu/libg.a(lib_a-memset.o)
                              build/obj/usb.o (memset)
/usr/lib/gcc/arm-none-eabi/4.8/../../../arm-none-eabi/lib/armv7e-m/fpu/libg.a(lib_a-sscanf.o)
                              build/obj/terminal.o (sscanf)
/usr/lib/gcc/arm-none-eabi/4.8/../../../arm-none-eabi/lib/armv7e-m/fpu/libg.a(lib_a-stdio.o)
                              /usr/lib/gcc/arm-none-eabi/4.8/../../../arm-none-eabi/lib/armv7e-m/fpu/libg.a(lib_a-sscanf.o) (__seofread)
/usr/lib/gcc/arm-none-eabi/4.8/../../../arm-none-eabi/lib/armv7e-m/fpu/libg.a(lib_a-strcmp.o)
                              build/obj/terminal.o (strcmp)
/usr/lib/gcc/arm-none-eabi/4.8/../../../arm-none-eabi/lib/armv7e-m/fpu/libg.a(lib_a-strlen.o)
                              build/obj/utils.o (strlen)
/usr/lib/gcc/arm-none-eabi/4.8/../../../arm-none-eabi/lib/armv7e-m/fpu/libg.a(lib_a-strtok.o)
                              build/obj/terminal.o (strtok)
/usr/lib/gcc/arm-none-eabi/4.8/../../../arm-none-eabi/lib/armv7e-m/fpu/libg.a(lib_a-strtok_r.o)
                              /usr/lib/gcc/arm-none-eabi/4.8/../../../arm-none-eabi/lib/armv7e-m/fpu/libg.a(lib_a-strtok.o) (__strtok_r)
/usr/lib/gcc/arm-none-eabi/4.8/../../../arm-none-eabi/lib/armv7e-m/fpu/libg.a(lib_a-svfscanf.o)
                              /usr/lib/gcc/arm-none-eabi/4.8/../../../arm-none-eabi/lib/armv7e-m/fpu/libg.a(lib_a-sscanf.o) (__ssvfscanf_r)
/usr/lib/gcc/arm-none-eabi/4.8/../../../arm-none-eabi/lib/armv7e-m/fpu/libg.a(lib_a-vsnprintf.o)
                              build/obj/commands.o (vsnprintf)
/usr/lib/gcc/arm-none-eabi/4.8/../../../arm-none-eabi/lib/armv7e-m/fpu/libg.a(lib_a-ctype_.o)
                              /usr/lib/gcc/arm-none-eabi/4.8/../../../arm-none-eabi/lib/armv7e-m/fpu/libg.a(lib_a-svfscanf.o) (__ctype_ptr__)
/usr/lib/gcc/arm-none-eabi/4.8/../../../arm-none-eabi/lib/armv7e-m/fpu/libg.a(lib_a-iswspace.o)
                              /usr/lib/gcc/arm-none-eabi/4.8/../../../arm-none-eabi/lib/armv7e-m/fpu/libg.a(lib_a-svfscanf.o) (iswspace)
/usr/lib/gcc/arm-none-eabi/4.8/../../../arm-none-eabi/lib/armv7e-m/fpu/libg.a(lib_a-locale.o)
                              /usr/lib/gcc/arm-none-eabi/4.8/../../../arm-none-eabi/lib/armv7e-m/fpu/libg.a(lib_a-svfscanf.o) (__locale_mb_cur_max)
/usr/lib/gcc/arm-none-eabi/4.8/../../../arm-none-eabi/lib/armv7e-m/fpu/libg.a(lib_a-mbrtowc.o)
                              /usr/lib/gcc/arm-none-eabi/4.8/../../../arm-none-eabi/lib/armv7e-m/fpu/libg.a(lib_a-svfscanf.o) (_mbrtowc_r)
/usr/lib/gcc/arm-none-eabi/4.8/../../../arm-none-eabi/lib/armv7e-m/fpu/libg.a(lib_a-mbtowc_r.o)
                              /usr/lib/gcc/arm-none-eabi/4.8/../../../arm-none-eabi/lib/armv7e-m/fpu/libg.a(lib_a-mbrtowc.o) (__mbtowc)
/usr/lib/gcc/arm-none-eabi/4.8/../../../arm-none-eabi/lib/armv7e-m/fpu/libg.a(lib_a-sccl.o)
                              /usr/lib/gcc/arm-none-eabi/4.8/../../../arm-none-eabi/lib/armv7e-m/fpu/libg.a(lib_a-svfscanf.o) (__sccl)
/usr/lib/gcc/arm-none-eabi/4.8/../../../arm-none-eabi/lib/armv7e-m/fpu/libg.a(lib_a-sprintf.o)
                              /usr/lib/gcc/arm-none-eabi/4.8/../../../arm-none-eabi/lib/armv7e-m/fpu/libg.a(lib_a-svfscanf.o) (sprintf)
/usr/lib/gcc/arm-none-eabi/4.8/../../../arm-none-eabi/lib/armv7e-m/fpu/libg.a(lib_a-strtod.o)
                              /usr/lib/gcc/arm-none-eabi/4.8/../../../arm-none-eabi/lib/armv7e-m/fpu/libg.a(lib_a-svfscanf.o) (_strtod_r)
/usr/lib/gcc/arm-none-eabi/4.8/../../../arm-none-eabi/lib/armv7e-m/fpu/libg.a(lib_a-strtoll_r.o)
                              /usr/lib/gcc/arm-none-eabi/4.8/../../../arm-none-eabi/lib/armv7e-m/fpu/libg.a(lib_a-svfscanf.o) (_strtoll_r)
/usr/lib/gcc/arm-none-eabi/4.8/../../../arm-none-eabi/lib/armv7e-m/fpu/libg.a(lib_a-strtol.o)
                              /usr/lib/gcc/arm-none-eabi/4.8/../../../arm-none-eabi/lib/armv7e-m/fpu/libg.a(lib_a-svfscanf.o) (_strtol_r)
/usr/lib/gcc/arm-none-eabi/4.8/../../../arm-none-eabi/lib/armv7e-m/fpu/libg.a(lib_a-strtoull_r.o)
                              /usr/lib/gcc/arm-none-eabi/4.8/../../../arm-none-eabi/lib/armv7e-m/fpu/libg.a(lib_a-svfscanf.o) (_strtoull_r)
/usr/lib/gcc/arm-none-eabi/4.8/../../../arm-none-eabi/lib/armv7e-m/fpu/libg.a(lib_a-strtoul.o)
                              /usr/lib/gcc/arm-none-eabi/4.8/../../../arm-none-eabi/lib/armv7e-m/fpu/libg.a(lib_a-svfscanf.o) (_strtoul_r)
/usr/lib/gcc/arm-none-eabi/4.8/../../../arm-none-eabi/lib/armv7e-m/fpu/libg.a(lib_a-svfiscanf.o)
                              /usr/lib/gcc/arm-none-eabi/4.8/../../../arm-none-eabi/lib/armv7e-m/fpu/libg.a(lib_a-svfscanf.o) (_sungetc_r)
/usr/lib/gcc/arm-none-eabi/4.8/../../../arm-none-eabi/lib/armv7e-m/fpu/libg.a(lib_a-svfprintf.o)
                              /usr/lib/gcc/arm-none-eabi/4.8/../../../arm-none-eabi/lib/armv7e-m/fpu/libg.a(lib_a-vsnprintf.o) (_svfprintf_r)
/usr/lib/gcc/arm-none-eabi/4.8/../../../arm-none-eabi/lib/armv7e-m/fpu/libg.a(lib_a-ungetc.o)
                              /usr/lib/gcc/arm-none-eabi/4.8/../../../arm-none-eabi/lib/armv7e-m/fpu/libg.a(lib_a-svfiscanf.o) (__submore)
/usr/lib/gcc/arm-none-eabi/4.8/../../../arm-none-eabi/lib/armv7e-m/fpu/libg.a(lib_a-dtoa.o)
                              /usr/lib/gcc/arm-none-eabi/4.8/../../../arm-none-eabi/lib/armv7e-m/fpu/libg.a(lib_a-svfprintf.o) (_dtoa_r)
/usr/lib/gcc/arm-none-eabi/4.8/../../../arm-none-eabi/lib/armv7e-m/fpu/libg.a(lib_a-fflush.o)
                              /usr/lib/gcc/arm-none-eabi/4.8/../../../arm-none-eabi/lib/armv7e-m/fpu/libg.a(lib_a-ungetc.o) (_fflush_r)
/usr/lib/gcc/arm-none-eabi/4.8/../../../arm-none-eabi/lib/armv7e-m/fpu/libg.a(lib_a-findfp.o)
                              /usr/lib/gcc/arm-none-eabi/4.8/../../../arm-none-eabi/lib/armv7e-m/fpu/libg.a(lib_a-ungetc.o) (__sinit)
/usr/lib/gcc/arm-none-eabi/4.8/../../../arm-none-eabi/lib/armv7e-m/fpu/libg.a(lib_a-freer.o)
                              /usr/lib/gcc/arm-none-eabi/4.8/../../../arm-none-eabi/lib/armv7e-m/fpu/libg.a(lib_a-svfiscanf.o) (_free_r)
/usr/lib/gcc/arm-none-eabi/4.8/../../../arm-none-eabi/lib/armv7e-m/fpu/libg.a(lib_a-fwalk.o)
                              /usr/lib/gcc/arm-none-eabi/4.8/../../../arm-none-eabi/lib/armv7e-m/fpu/libg.a(lib_a-findfp.o) (_fwalk)
/usr/lib/gcc/arm-none-eabi/4.8/../../../arm-none-eabi/lib/armv7e-m/fpu/libg.a(lib_a-gdtoa-gethex.o)
                              /usr/lib/gcc/arm-none-eabi/4.8/../../../arm-none-eabi/lib/armv7e-m/fpu/libg.a(lib_a-strtod.o) (__gethex)
/usr/lib/gcc/arm-none-eabi/4.8/../../../arm-none-eabi/lib/armv7e-m/fpu/libg.a(lib_a-gdtoa-hexnan.o)
                              /usr/lib/gcc/arm-none-eabi/4.8/../../../arm-none-eabi/lib/armv7e-m/fpu/libg.a(lib_a-strtod.o) (__hexnan)
/usr/lib/gcc/arm-none-eabi/4.8/../../../arm-none-eabi/lib/armv7e-m/fpu/libg.a(lib_a-mallocr.o)
                              /usr/lib/gcc/arm-none-eabi/4.8/../../../arm-none-eabi/lib/armv7e-m/fpu/libg.a(lib_a-svfprintf.o) (_malloc_r)
/usr/lib/gcc/arm-none-eabi/4.8/../../../arm-none-eabi/lib/armv7e-m/fpu/libg.a(lib_a-memchr-stub.o)
                              /usr/lib/gcc/arm-none-eabi/4.8/../../../arm-none-eabi/lib/armv7e-m/fpu/libg.a(lib_a-svfprintf.o) (memchr)
/usr/lib/gcc/arm-none-eabi/4.8/../../../arm-none-eabi/lib/armv7e-m/fpu/libg.a(lib_a-mlock.o)
                              /usr/lib/gcc/arm-none-eabi/4.8/../../../arm-none-eabi/lib/armv7e-m/fpu/libg.a(lib_a-freer.o) (__malloc_lock)
/usr/lib/gcc/arm-none-eabi/4.8/../../../arm-none-eabi/lib/armv7e-m/fpu/libg.a(lib_a-mprec.o)
                              /usr/lib/gcc/arm-none-eabi/4.8/../../../arm-none-eabi/lib/armv7e-m/fpu/libg.a(lib_a-strtod.o) (_Balloc)
/usr/lib/gcc/arm-none-eabi/4.8/../../../arm-none-eabi/lib/armv7e-m/fpu/libg.a(lib_a-reallocr.o)
                              /usr/lib/gcc/arm-none-eabi/4.8/../../../arm-none-eabi/lib/armv7e-m/fpu/libg.a(lib_a-ungetc.o) (_realloc_r)
/usr/lib/gcc/arm-none-eabi/4.8/../../../arm-none-eabi/lib/armv7e-m/fpu/libg.a(lib_a-strncmp.o)
                              /usr/lib/gcc/arm-none-eabi/4.8/../../../arm-none-eabi/lib/armv7e-m/fpu/libg.a(lib_a-strtod.o) (strncmp)
/usr/lib/gcc/arm-none-eabi/4.8/../../../arm-none-eabi/lib/armv7e-m/fpu/libg.a(lib_a-svfiprintf.o)
                              /usr/lib/gcc/arm-none-eabi/4.8/../../../arm-none-eabi/lib/armv7e-m/fpu/libg.a(lib_a-svfprintf.o) (__ssprint_r)
/usr/lib/gcc/arm-none-eabi/4.8/../../../arm-none-eabi/lib/armv7e-m/fpu/libg.a(lib_a-callocr.o)
                              /usr/lib/gcc/arm-none-eabi/4.8/../../../arm-none-eabi/lib/armv7e-m/fpu/libg.a(lib_a-mprec.o) (_calloc_r)
/usr/lib/gcc/arm-none-eabi/4.8/../../../arm-none-eabi/lib/armv7e-m/fpu/libg.a(lib_a-fclose.o)
                              /usr/lib/gcc/arm-none-eabi/4.8/../../../arm-none-eabi/lib/armv7e-m/fpu/libg.a(lib_a-findfp.o) (_fclose_r)
/usr/lib/gcc/arm-none-eabi/4.8/../../../arm-none-eabi/lib/armv7e-m/fpu/libg.a(lib_a-memmove.o)
                              /usr/lib/gcc/arm-none-eabi/4.8/../../../arm-none-eabi/lib/armv7e-m/fpu/libg.a(lib_a-reallocr.o) (memmove)
/usr/lib/gcc/arm-none-eabi/4.8/armv7e-m/fpu/libgcc.a(_arm_fixunsdfsi.o)
                              /usr/lib/gcc/arm-none-eabi/4.8/../../../arm-none-eabi/lib/armv7e-m/fpu/libg.a(lib_a-strtod.o) (__aeabi_d2uiz)
/usr/lib/gcc/arm-none-eabi/4.8/armv7e-m/fpu/libgcc.a(_aeabi_uldivmod.o)
                              /usr/lib/gcc/arm-none-eabi/4.8/../../../arm-none-eabi/lib/armv7e-m/fpu/libg.a(lib_a-strtoll_r.o) (__aeabi_uldivmod)
/usr/lib/gcc/arm-none-eabi/4.8/armv7e-m/fpu/libgcc.a(bpabi.o)
                              /usr/lib/gcc/arm-none-eabi/4.8/armv7e-m/fpu/libgcc.a(_aeabi_uldivmod.o) (__gnu_uldivmod_helper)
/usr/lib/gcc/arm-none-eabi/4.8/armv7e-m/fpu/libgcc.a(_dvmd_tls.o)
                              /usr/lib/gcc/arm-none-eabi/4.8/armv7e-m/fpu/libgcc.a(_aeabi_uldivmod.o) (__aeabi_ldiv0)
/usr/lib/gcc/arm-none-eabi/4.8/armv7e-m/fpu/libgcc.a(_divdi3.o)
                              /usr/lib/gcc/arm-none-eabi/4.8/armv7e-m/fpu/libgcc.a(bpabi.o) (__divdi3)
/usr/lib/gcc/arm-none-eabi/4.8/armv7e-m/fpu/libgcc.a(_udivdi3.o)
                              /usr/lib/gcc/arm-none-eabi/4.8/armv7e-m/fpu/libgcc.a(bpabi.o) (__udivdi3)

Discarded input sections

 .data          0x0000000000000000        0x0 build/obj/crt0_v7m.o
 .bss           0x0000000000000000        0x0 build/obj/crt0_v7m.o
 .data          0x0000000000000000        0x0 build/obj/chcoreasm_v7m.o
 .bss           0x0000000000000000        0x0 build/obj/chcoreasm_v7m.o
 .text          0x0000000000000000        0x0 build/obj/crt1.o
 .data          0x0000000000000000        0x0 build/obj/crt1.o
 .bss           0x0000000000000000        0x0 build/obj/crt1.o
 .text.__early_init
                0x0000000000000000       0x10 build/obj/crt1.o
 .text          0x0000000000000000        0x0 build/obj/vectors.o
 .data          0x0000000000000000        0x0 build/obj/vectors.o
 .bss           0x0000000000000000        0x0 build/obj/vectors.o
 .text          0x0000000000000000        0x0 build/obj/chsys.o
 .data          0x0000000000000000        0x0 build/obj/chsys.o
 .bss           0x0000000000000000        0x0 build/obj/chsys.o
 .text.chSysIntegrityCheckI
                0x0000000000000000       0xb0 build/obj/chsys.o
 .text.chSysGetStatusAndLockX
                0x0000000000000000       0x20 build/obj/chsys.o
 .text.chSysRestoreStatusX
                0x0000000000000000       0x20 build/obj/chsys.o
 .text.chSysIsCounterWithinX
                0x0000000000000000       0x10 build/obj/chsys.o
 .text          0x0000000000000000        0x0 build/obj/chdebug.o
 .data          0x0000000000000000        0x0 build/obj/chdebug.o
 .bss           0x0000000000000000        0x0 build/obj/chdebug.o
 .debug_info    0x0000000000000000      0x719 build/obj/chdebug.o
 .debug_abbrev  0x0000000000000000      0x125 build/obj/chdebug.o
 .debug_aranges
                0x0000000000000000       0x18 build/obj/chdebug.o
 .debug_line    0x0000000000000000      0x16f build/obj/chdebug.o
 .debug_str     0x0000000000000000      0x575 build/obj/chdebug.o
 .comment       0x0000000000000000       0x2e build/obj/chdebug.o
 .ARM.attributes
                0x0000000000000000       0x39 build/obj/chdebug.o
 .text          0x0000000000000000        0x0 build/obj/chvt.o
 .data          0x0000000000000000        0x0 build/obj/chvt.o
 .bss           0x0000000000000000        0x0 build/obj/chvt.o
 .text          0x0000000000000000        0x0 build/obj/chschd.o
 .data          0x0000000000000000        0x0 build/obj/chschd.o
 .bss           0x0000000000000000        0x0 build/obj/chschd.o
 .text          0x0000000000000000        0x0 build/obj/chthreads.o
 .data          0x0000000000000000        0x0 build/obj/chthreads.o
 .bss           0x0000000000000000        0x0 build/obj/chthreads.o
 .text.chThdStart
                0x0000000000000000       0x20 build/obj/chthreads.o
 .text.chThdSetPriority
                0x0000000000000000       0x30 build/obj/chthreads.o
 .text.chThdTerminate
                0x0000000000000000       0x20 build/obj/chthreads.o
 .text.chThdSleepUntil
                0x0000000000000000       0x30 build/obj/chthreads.o
 .text.chThdSleepUntilWindowed
                0x0000000000000000       0x30 build/obj/chthreads.o
 .text.chThdYield
                0x0000000000000000       0x30 build/obj/chthreads.o
 .text.chThdWait
                0x0000000000000000       0x40 build/obj/chthreads.o
 .text.chThdResumeS
                0x0000000000000000       0x10 build/obj/chthreads.o
 .text.chThdResume
                0x0000000000000000       0x20 build/obj/chthreads.o
 .text.chThdDequeueNextI
                0x0000000000000000       0x30 build/obj/chthreads.o
 .text          0x0000000000000000        0x0 build/obj/chtm.o
 .data          0x0000000000000000        0x0 build/obj/chtm.o
 .bss           0x0000000000000000        0x0 build/obj/chtm.o
 .text.chTMObjectInit
                0x0000000000000000       0x20 build/obj/chtm.o
 .text.chTMChainMeasurementToX
                0x0000000000000000       0x40 build/obj/chtm.o
 .text          0x0000000000000000        0x0 build/obj/chdynamic.o
 .data          0x0000000000000000        0x0 build/obj/chdynamic.o
 .bss           0x0000000000000000        0x0 build/obj/chdynamic.o
 .text.chThdAddRef
                0x0000000000000000       0x20 build/obj/chdynamic.o
 .text.chThdCreateFromHeap
                0x0000000000000000       0x40 build/obj/chdynamic.o
 .text.chThdCreateFromMemoryPool
                0x0000000000000000       0x40 build/obj/chdynamic.o
 .text          0x0000000000000000        0x0 build/obj/chregistry.o
 .data          0x0000000000000000        0x0 build/obj/chregistry.o
 .bss           0x0000000000000000        0x0 build/obj/chregistry.o
 .text          0x0000000000000000        0x0 build/obj/chsem.o
 .data          0x0000000000000000        0x0 build/obj/chsem.o
 .bss           0x0000000000000000        0x0 build/obj/chsem.o
 .text.chSemObjectInit
                0x0000000000000000       0x10 build/obj/chsem.o
 .text.chSemResetI
                0x0000000000000000       0x30 build/obj/chsem.o
 .text.chSemReset
                0x0000000000000000       0x20 build/obj/chsem.o
 .text.chSemWaitS
                0x0000000000000000       0x40 build/obj/chsem.o
 .text.chSemWait
                0x0000000000000000       0x20 build/obj/chsem.o
 .text.chSemWaitTimeoutS
                0x0000000000000000       0x40 build/obj/chsem.o
 .text.chSemWaitTimeout
                0x0000000000000000       0x20 build/obj/chsem.o
 .text.chSemSignal
                0x0000000000000000       0x40 build/obj/chsem.o
 .text.chSemSignalI
                0x0000000000000000       0x20 build/obj/chsem.o
 .text.chSemAddCounterI
                0x0000000000000000       0x30 build/obj/chsem.o
 .text.chSemSignalWait
                0x0000000000000000       0x70 build/obj/chsem.o
 .debug_info    0x0000000000000000     0x1098 build/obj/chsem.o
 .debug_abbrev  0x0000000000000000      0x3da build/obj/chsem.o
 .debug_loc     0x0000000000000000      0x4fc build/obj/chsem.o
 .debug_aranges
                0x0000000000000000       0x70 build/obj/chsem.o
 .debug_ranges  0x0000000000000000      0x120 build/obj/chsem.o
 .debug_line    0x0000000000000000      0x3e4 build/obj/chsem.o
 .debug_str     0x0000000000000000      0x6ef build/obj/chsem.o
 .comment       0x0000000000000000       0x2e build/obj/chsem.o
 .debug_frame   0x0000000000000000      0x130 build/obj/chsem.o
 .ARM.attributes
                0x0000000000000000       0x39 build/obj/chsem.o
 .text          0x0000000000000000        0x0 build/obj/chmtx.o
 .data          0x0000000000000000        0x0 build/obj/chmtx.o
 .bss           0x0000000000000000        0x0 build/obj/chmtx.o
 .text.chMtxTryLock
                0x0000000000000000       0x30 build/obj/chmtx.o
 .text.chMtxTryLockS
                0x0000000000000000       0x20 build/obj/chmtx.o
 .text.chMtxUnlockS
                0x0000000000000000       0x50 build/obj/chmtx.o
 .text.chMtxUnlockAll
                0x0000000000000000       0x60 build/obj/chmtx.o
 .text          0x0000000000000000        0x0 build/obj/chcond.o
 .data          0x0000000000000000        0x0 build/obj/chcond.o
 .bss           0x0000000000000000        0x0 build/obj/chcond.o
 .text.chCondObjectInit
                0x0000000000000000       0x10 build/obj/chcond.o
 .text.chCondSignal
                0x0000000000000000       0x30 build/obj/chcond.o
 .text.chCondSignalI
                0x0000000000000000       0x20 build/obj/chcond.o
 .text.chCondBroadcastI
                0x0000000000000000       0x30 build/obj/chcond.o
 .text.chCondBroadcast
                0x0000000000000000       0x20 build/obj/chcond.o
 .text.chCondWaitS
                0x0000000000000000       0x50 build/obj/chcond.o
 .text.chCondWait
                0x0000000000000000       0x20 build/obj/chcond.o
 .text.chCondWaitTimeoutS
                0x0000000000000000       0x60 build/obj/chcond.o
 .text.chCondWaitTimeout
                0x0000000000000000       0x20 build/obj/chcond.o
 .debug_info    0x0000000000000000      0xffb build/obj/chcond.o
 .debug_abbrev  0x0000000000000000      0x3da build/obj/chcond.o
 .debug_loc     0x0000000000000000      0x36c build/obj/chcond.o
 .debug_aranges
                0x0000000000000000       0x60 build/obj/chcond.o
 .debug_ranges  0x0000000000000000       0xf0 build/obj/chcond.o
 .debug_line    0x0000000000000000      0x3b3 build/obj/chcond.o
 .debug_str     0x0000000000000000      0x745 build/obj/chcond.o
 .comment       0x0000000000000000       0x2e build/obj/chcond.o
 .debug_frame   0x0000000000000000      0x108 build/obj/chcond.o
 .ARM.attributes
                0x0000000000000000       0x39 build/obj/chcond.o
 .text          0x0000000000000000        0x0 build/obj/chevents.o
 .data          0x0000000000000000        0x0 build/obj/chevents.o
 .bss           0x0000000000000000        0x0 build/obj/chevents.o
 .text.chEvtGetAndClearEvents
                0x0000000000000000       0x20 build/obj/chevents.o
 .text.chEvtAddEvents
                0x0000000000000000       0x20 build/obj/chevents.o
 .text.chEvtGetAndClearFlags
                0x0000000000000000       0x20 build/obj/chevents.o
 .text.chEvtBroadcastFlags
                0x0000000000000000       0x20 build/obj/chevents.o
 .text.chEvtGetAndClearFlagsI
                0x0000000000000000       0x10 build/obj/chevents.o
 .text.chEvtDispatch
                0x0000000000000000       0x40 build/obj/chevents.o
 .text.chEvtWaitOne
                0x0000000000000000       0x40 build/obj/chevents.o
 .text.chEvtWaitAll
                0x0000000000000000       0x40 build/obj/chevents.o
 .text.chEvtWaitOneTimeout
                0x0000000000000000       0x50 build/obj/chevents.o
 .text.chEvtWaitAllTimeout
                0x0000000000000000       0x50 build/obj/chevents.o
 .text          0x0000000000000000        0x0 build/obj/chmsg.o
 .data          0x0000000000000000        0x0 build/obj/chmsg.o
 .bss           0x0000000000000000        0x0 build/obj/chmsg.o
 .text.chMsgSend
                0x0000000000000000       0x40 build/obj/chmsg.o
 .text.chMsgWait
                0x0000000000000000       0x40 build/obj/chmsg.o
 .text.chMsgRelease
                0x0000000000000000       0x20 build/obj/chmsg.o
 .debug_info    0x0000000000000000      0xb97 build/obj/chmsg.o
 .debug_abbrev  0x0000000000000000      0x31f build/obj/chmsg.o
 .debug_loc     0x0000000000000000      0x179 build/obj/chmsg.o
 .debug_aranges
                0x0000000000000000       0x30 build/obj/chmsg.o
 .debug_ranges  0x0000000000000000       0x80 build/obj/chmsg.o
 .debug_line    0x0000000000000000      0x286 build/obj/chmsg.o
 .debug_str     0x0000000000000000      0x647 build/obj/chmsg.o
 .comment       0x0000000000000000       0x2e build/obj/chmsg.o
 .debug_frame   0x0000000000000000       0x68 build/obj/chmsg.o
 .ARM.attributes
                0x0000000000000000       0x39 build/obj/chmsg.o
 .text          0x0000000000000000        0x0 build/obj/chmboxes.o
 .data          0x0000000000000000        0x0 build/obj/chmboxes.o
 .bss           0x0000000000000000        0x0 build/obj/chmboxes.o
 .text.chMBObjectInit
                0x0000000000000000       0x30 build/obj/chmboxes.o
 .text.chMBResetI
                0x0000000000000000       0x30 build/obj/chmboxes.o
 .text.chMBReset
                0x0000000000000000       0x20 build/obj/chmboxes.o
 .text.chMBPostS
                0x0000000000000000       0x40 build/obj/chmboxes.o
 .text.chMBPost
                0x0000000000000000       0x20 build/obj/chmboxes.o
 .text.chMBPostI
                0x0000000000000000       0x40 build/obj/chmboxes.o
 .text.chMBPostAheadS
                0x0000000000000000       0x40 build/obj/chmboxes.o
 .text.chMBPostAhead
                0x0000000000000000       0x20 build/obj/chmboxes.o
 .text.chMBPostAheadI
                0x0000000000000000       0x30 build/obj/chmboxes.o
 .text.chMBFetchS
                0x0000000000000000       0x40 build/obj/chmboxes.o
 .text.chMBFetch
                0x0000000000000000       0x20 build/obj/chmboxes.o
 .text.chMBFetchI
                0x0000000000000000       0x40 build/obj/chmboxes.o
 .debug_info    0x0000000000000000     0x10a6 build/obj/chmboxes.o
 .debug_abbrev  0x0000000000000000      0x365 build/obj/chmboxes.o
 .debug_loc     0x0000000000000000      0x574 build/obj/chmboxes.o
 .debug_aranges
                0x0000000000000000       0x78 build/obj/chmboxes.o
 .debug_ranges  0x0000000000000000       0xb0 build/obj/chmboxes.o
 .debug_line    0x0000000000000000      0x391 build/obj/chmboxes.o
 .debug_str     0x0000000000000000      0x715 build/obj/chmboxes.o
 .comment       0x0000000000000000       0x2e build/obj/chmboxes.o
 .debug_frame   0x0000000000000000      0x170 build/obj/chmboxes.o
 .ARM.attributes
                0x0000000000000000       0x39 build/obj/chmboxes.o
 .text          0x0000000000000000        0x0 build/obj/chqueues.o
 .data          0x0000000000000000        0x0 build/obj/chqueues.o
 .bss           0x0000000000000000        0x0 build/obj/chqueues.o
 .text.chIQPutI
                0x0000000000000000       0x40 build/obj/chqueues.o
 .text.chOQGetI
                0x0000000000000000       0x40 build/obj/chqueues.o
 .text          0x0000000000000000        0x0 build/obj/chmemcore.o
 .data          0x0000000000000000        0x0 build/obj/chmemcore.o
 .bss           0x0000000000000000        0x0 build/obj/chmemcore.o
 .text.chCoreAllocI
                0x0000000000000000       0x30 build/obj/chmemcore.o
 .text          0x0000000000000000        0x0 build/obj/chheap.o
 .data          0x0000000000000000        0x0 build/obj/chheap.o
 .bss           0x0000000000000000        0x0 build/obj/chheap.o
 .text.chHeapObjectInit
                0x0000000000000000       0x20 build/obj/chheap.o
 .text.chHeapAlloc
                0x0000000000000000       0x90 build/obj/chheap.o
 .text          0x0000000000000000        0x0 build/obj/chmempools.o
 .data          0x0000000000000000        0x0 build/obj/chmempools.o
 .bss           0x0000000000000000        0x0 build/obj/chmempools.o
 .text.chPoolObjectInit
                0x0000000000000000       0x10 build/obj/chmempools.o
 .text.chPoolLoadArray
                0x0000000000000000       0x30 build/obj/chmempools.o
 .text.chPoolAllocI
                0x0000000000000000       0x20 build/obj/chmempools.o
 .text.chPoolAlloc
                0x0000000000000000       0x30 build/obj/chmempools.o
 .text.chPoolFreeI
                0x0000000000000000       0x10 build/obj/chmempools.o
 .text          0x0000000000000000        0x0 build/obj/chcore.o
 .data          0x0000000000000000        0x0 build/obj/chcore.o
 .bss           0x0000000000000000        0x0 build/obj/chcore.o
 .debug_info    0x0000000000000000      0x719 build/obj/chcore.o
 .debug_abbrev  0x0000000000000000      0x125 build/obj/chcore.o
 .debug_aranges
                0x0000000000000000       0x18 build/obj/chcore.o
 .debug_line    0x0000000000000000      0x16f build/obj/chcore.o
 .debug_str     0x0000000000000000      0x57d build/obj/chcore.o
 .comment       0x0000000000000000       0x2e build/obj/chcore.o
 .ARM.attributes
                0x0000000000000000       0x39 build/obj/chcore.o
 .text          0x0000000000000000        0x0 build/obj/chcore_v7m.o
 .data          0x0000000000000000        0x0 build/obj/chcore_v7m.o
 .bss           0x0000000000000000        0x0 build/obj/chcore_v7m.o
 .text          0x0000000000000000        0x0 build/obj/osal.o
 .data          0x0000000000000000        0x0 build/obj/osal.o
 .bss           0x0000000000000000        0x0 build/obj/osal.o
 .debug_info    0x0000000000000000      0x719 build/obj/osal.o
 .debug_abbrev  0x0000000000000000      0x125 build/obj/osal.o
 .debug_aranges
                0x0000000000000000       0x18 build/obj/osal.o
 .debug_line    0x0000000000000000      0x16f build/obj/osal.o
 .debug_str     0x0000000000000000      0x577 build/obj/osal.o
 .comment       0x0000000000000000       0x2e build/obj/osal.o
 .ARM.attributes
                0x0000000000000000       0x39 build/obj/osal.o
 .text          0x0000000000000000        0x0 build/obj/hal.o
 .data          0x0000000000000000        0x0 build/obj/hal.o
 .bss           0x0000000000000000        0x0 build/obj/hal.o
 .text          0x0000000000000000        0x0 build/obj/st.o
 .data          0x0000000000000000        0x0 build/obj/st.o
 .bss           0x0000000000000000        0x0 build/obj/st.o
 .text.stStartAlarm
                0x0000000000000000       0x10 build/obj/st.o
 .text.stStopAlarm
                0x0000000000000000       0x10 build/obj/st.o
 .text.stSetAlarm
                0x0000000000000000       0x10 build/obj/st.o
 .text.stGetAlarm
                0x0000000000000000       0x10 build/obj/st.o
 .text          0x0000000000000000        0x0 build/obj/hal_queues.o
 .data          0x0000000000000000        0x0 build/obj/hal_queues.o
 .bss           0x0000000000000000        0x0 build/obj/hal_queues.o
 .debug_info    0x0000000000000000      0x727 build/obj/hal_queues.o
 .debug_abbrev  0x0000000000000000      0x125 build/obj/hal_queues.o
 .debug_aranges
                0x0000000000000000       0x18 build/obj/hal_queues.o
 .debug_line    0x0000000000000000      0x16f build/obj/hal_queues.o
 .debug_str     0x0000000000000000      0x585 build/obj/hal_queues.o
 .comment       0x0000000000000000       0x2e build/obj/hal_queues.o
 .ARM.attributes
                0x0000000000000000       0x39 build/obj/hal_queues.o
 .text          0x0000000000000000        0x0 build/obj/hal_mmcsd.o
 .data          0x0000000000000000        0x0 build/obj/hal_mmcsd.o
 .bss           0x0000000000000000        0x0 build/obj/hal_mmcsd.o
 .debug_info    0x0000000000000000      0x727 build/obj/hal_mmcsd.o
 .debug_abbrev  0x0000000000000000      0x125 build/obj/hal_mmcsd.o
 .debug_aranges
                0x0000000000000000       0x18 build/obj/hal_mmcsd.o
 .debug_line    0x0000000000000000      0x16f build/obj/hal_mmcsd.o
 .debug_str     0x0000000000000000      0x584 build/obj/hal_mmcsd.o
 .comment       0x0000000000000000       0x2e build/obj/hal_mmcsd.o
 .ARM.attributes
                0x0000000000000000       0x39 build/obj/hal_mmcsd.o
 .text          0x0000000000000000        0x0 build/obj/can.o
 .data          0x0000000000000000        0x0 build/obj/can.o
 .bss           0x0000000000000000        0x0 build/obj/can.o
 .text.canSleep
                0x0000000000000000       0x40 build/obj/can.o
 .text.canWakeup
                0x0000000000000000       0x40 build/obj/can.o
 .text          0x0000000000000000        0x0 build/obj/i2c.o
 .data          0x0000000000000000        0x0 build/obj/i2c.o
 .bss           0x0000000000000000        0x0 build/obj/i2c.o
 .text.i2cGetErrors
                0x0000000000000000       0x10 build/obj/i2c.o
 .text          0x0000000000000000        0x0 build/obj/icu.o
 .data          0x0000000000000000        0x0 build/obj/icu.o
 .bss           0x0000000000000000        0x0 build/obj/icu.o
 .text.icuWaitCapture
                0x0000000000000000       0x20 build/obj/icu.o
 .text.icuStopCapture
                0x0000000000000000       0x20 build/obj/icu.o
 .text.icuDisableNotifications
                0x0000000000000000       0x20 build/obj/icu.o
 .text          0x0000000000000000        0x0 build/obj/pal.o
 .data          0x0000000000000000        0x0 build/obj/pal.o
 .bss           0x0000000000000000        0x0 build/obj/pal.o
 .text.palReadBus
                0x0000000000000000       0x10 build/obj/pal.o
 .text.palWriteBus
                0x0000000000000000       0x20 build/obj/pal.o
 .text.palSetBusMode
                0x0000000000000000       0x20 build/obj/pal.o
 .debug_info    0x0000000000000000      0x9a8 build/obj/pal.o
 .debug_abbrev  0x0000000000000000      0x1dc build/obj/pal.o
 .debug_loc     0x0000000000000000       0x8f build/obj/pal.o
 .debug_aranges
                0x0000000000000000       0x30 build/obj/pal.o
 .debug_ranges  0x0000000000000000       0x20 build/obj/pal.o
 .debug_line    0x0000000000000000      0x22a build/obj/pal.o
 .debug_str     0x0000000000000000      0x662 build/obj/pal.o
 .comment       0x0000000000000000       0x2e build/obj/pal.o
 .debug_frame   0x0000000000000000       0x54 build/obj/pal.o
 .ARM.attributes
                0x0000000000000000       0x39 build/obj/pal.o
 .text          0x0000000000000000        0x0 build/obj/serial_usb.o
 .data          0x0000000000000000        0x0 build/obj/serial_usb.o
 .bss           0x0000000000000000        0x0 build/obj/serial_usb.o
 .text.sduStop  0x0000000000000000       0x60 build/obj/serial_usb.o
 .text          0x0000000000000000        0x0 build/obj/spi.o
 .data          0x0000000000000000        0x0 build/obj/spi.o
 .bss           0x0000000000000000        0x0 build/obj/spi.o
 .text.spiStart
                0x0000000000000000       0x20 build/obj/spi.o
 .text.spiStop  0x0000000000000000       0x20 build/obj/spi.o
 .text.spiSelect
                0x0000000000000000       0x20 build/obj/spi.o
 .text.spiUnselect
                0x0000000000000000       0x20 build/obj/spi.o
 .text.spiStartIgnore
                0x0000000000000000       0x20 build/obj/spi.o
 .text.spiStartExchange
                0x0000000000000000       0x20 build/obj/spi.o
 .text.spiStartSend
                0x0000000000000000       0x20 build/obj/spi.o
 .text.spiStartReceive
                0x0000000000000000       0x20 build/obj/spi.o
 .text.spiIgnore
                0x0000000000000000       0x30 build/obj/spi.o
 .text.spiExchange
                0x0000000000000000       0x30 build/obj/spi.o
 .text.spiSend  0x0000000000000000       0x30 build/obj/spi.o
 .text.spiReceive
                0x0000000000000000       0x30 build/obj/spi.o
 .text.spiAcquireBus
                0x0000000000000000       0x10 build/obj/spi.o
 .text.spiReleaseBus
                0x0000000000000000       0x10 build/obj/spi.o
 .text          0x0000000000000000        0x0 build/obj/uart.o
 .data          0x0000000000000000        0x0 build/obj/uart.o
 .bss           0x0000000000000000        0x0 build/obj/uart.o
 .text.uartStartSendI
                0x0000000000000000       0x10 build/obj/uart.o
 .text.uartStopSend
                0x0000000000000000       0x30 build/obj/uart.o
 .text.uartStopSendI
                0x0000000000000000       0x20 build/obj/uart.o
 .text.uartStartReceive
                0x0000000000000000       0x20 build/obj/uart.o
 .text.uartStartReceiveI
                0x0000000000000000       0x10 build/obj/uart.o
 .text.uartStopReceive
                0x0000000000000000       0x30 build/obj/uart.o
 .text.uartStopReceiveI
                0x0000000000000000       0x20 build/obj/uart.o
 .text          0x0000000000000000        0x0 build/obj/usb.o
 .data          0x0000000000000000        0x0 build/obj/usb.o
 .bss           0x0000000000000000        0x0 build/obj/usb.o
 .text.usbDisableEndpointsI
                0x0000000000000000       0x30 build/obj/usb.o
 .text.usbPrepareReceive
                0x0000000000000000       0x20 build/obj/usb.o
 .text.usbPrepareTransmit
                0x0000000000000000       0x20 build/obj/usb.o
 .text.usbStallReceiveI
                0x0000000000000000       0x20 build/obj/usb.o
 .text.usbStallTransmitI
                0x0000000000000000       0x20 build/obj/usb.o
 .text          0x0000000000000000        0x0 build/obj/nvic.o
 .data          0x0000000000000000        0x0 build/obj/nvic.o
 .bss           0x0000000000000000        0x0 build/obj/nvic.o
 .text.nvicClearPending
                0x0000000000000000       0x20 build/obj/nvic.o
 .text          0x0000000000000000        0x0 build/obj/stm32_dma.o
 .data          0x0000000000000000        0x0 build/obj/stm32_dma.o
 .bss           0x0000000000000000        0x0 build/obj/stm32_dma.o
 .text          0x0000000000000000        0x0 build/obj/hal_lld.o
 .data          0x0000000000000000        0x0 build/obj/hal_lld.o
 .bss           0x0000000000000000        0x0 build/obj/hal_lld.o
 .data.SystemCoreClock
                0x0000000000000000        0x4 build/obj/hal_lld.o
 .text          0x0000000000000000        0x0 build/obj/st_lld.o
 .data          0x0000000000000000        0x0 build/obj/st_lld.o
 .bss           0x0000000000000000        0x0 build/obj/st_lld.o
 .text          0x0000000000000000        0x0 build/obj/can_lld.o
 .data          0x0000000000000000        0x0 build/obj/can_lld.o
 .bss           0x0000000000000000        0x0 build/obj/can_lld.o
 .text.can_lld_sleep
                0x0000000000000000       0x10 build/obj/can_lld.o
 .text.can_lld_wakeup
                0x0000000000000000       0x10 build/obj/can_lld.o
 .text.canSTM32SetFilters
                0x0000000000000000       0x10 build/obj/can_lld.o
 .text          0x0000000000000000        0x0 build/obj/pal_lld.o
 .data          0x0000000000000000        0x0 build/obj/pal_lld.o
 .bss           0x0000000000000000        0x0 build/obj/pal_lld.o
 .text          0x0000000000000000        0x0 build/obj/i2c_lld.o
 .data          0x0000000000000000        0x0 build/obj/i2c_lld.o
 .bss           0x0000000000000000        0x0 build/obj/i2c_lld.o
 .text          0x0000000000000000        0x0 build/obj/usb_lld.o
 .data          0x0000000000000000        0x0 build/obj/usb_lld.o
 .bss           0x0000000000000000        0x0 build/obj/usb_lld.o
 .text.usb_lld_disable_endpoints
                0x0000000000000000       0x10 build/obj/usb_lld.o
 .text          0x0000000000000000        0x0 build/obj/spi_lld.o
 .data          0x0000000000000000        0x0 build/obj/spi_lld.o
 .bss           0x0000000000000000        0x0 build/obj/spi_lld.o
 .text.spi_lld_serve_tx_interrupt
                0x0000000000000000       0x20 build/obj/spi_lld.o
 .text.spi_lld_serve_rx_interrupt
                0x0000000000000000       0x80 build/obj/spi_lld.o
 .text.spi_lld_start
                0x0000000000000000       0xa0 build/obj/spi_lld.o
 .text.spi_lld_stop
                0x0000000000000000       0x40 build/obj/spi_lld.o
 .text.spi_lld_select
                0x0000000000000000       0x20 build/obj/spi_lld.o
 .text.spi_lld_unselect
                0x0000000000000000       0x20 build/obj/spi_lld.o
 .text.spi_lld_ignore
                0x0000000000000000       0x40 build/obj/spi_lld.o
 .text.spi_lld_exchange
                0x0000000000000000       0x40 build/obj/spi_lld.o
 .text.spi_lld_send
                0x0000000000000000       0x40 build/obj/spi_lld.o
 .text.spi_lld_receive
                0x0000000000000000       0x40 build/obj/spi_lld.o
 .text.spi_lld_polled_exchange
                0x0000000000000000       0x10 build/obj/spi_lld.o
 .rodata.str1.4
                0x0000000000000000        0xc build/obj/spi_lld.o
 .bss.dummyrx   0x0000000000000000        0x2 build/obj/spi_lld.o
 .text          0x0000000000000000        0x0 build/obj/icu_lld.o
 .data          0x0000000000000000        0x0 build/obj/icu_lld.o
 .bss           0x0000000000000000        0x0 build/obj/icu_lld.o
 .text.icu_lld_wait_edge.isra.0
                0x0000000000000000       0x40 build/obj/icu_lld.o
 .text.icu_lld_wait_capture
                0x0000000000000000       0x30 build/obj/icu_lld.o
 .text.icu_lld_stop_capture
                0x0000000000000000       0x10 build/obj/icu_lld.o
 .text.icu_lld_disable_notifications
                0x0000000000000000       0x10 build/obj/icu_lld.o
 .text          0x0000000000000000        0x0 build/obj/uart_lld.o
 .data          0x0000000000000000        0x0 build/obj/uart_lld.o
 .bss           0x0000000000000000        0x0 build/obj/uart_lld.o
 .text.uart_lld_stop_send
                0x0000000000000000       0x20 build/obj/uart_lld.o
 .text.uart_lld_start_receive
                0x0000000000000000       0x40 build/obj/uart_lld.o
 .text.uart_lld_stop_receive
                0x0000000000000000       0x50 build/obj/uart_lld.o
 .text          0x0000000000000000        0x0 build/obj/chprintf.o
 .data          0x0000000000000000        0x0 build/obj/chprintf.o
 .bss           0x0000000000000000        0x0 build/obj/chprintf.o
 .text.long_to_string_with_divisor
                0x0000000000000000       0x50 build/obj/chprintf.o
 .text.chvprintf
                0x0000000000000000      0x3a0 build/obj/chprintf.o
 .text.chsnprintf
                0x0000000000000000       0x60 build/obj/chprintf.o
 .rodata.str1.4
                0x0000000000000000        0x8 build/obj/chprintf.o
 .rodata.pow10  0x0000000000000000       0x24 build/obj/chprintf.o
 .debug_info    0x0000000000000000      0xd96 build/obj/chprintf.o
 .debug_abbrev  0x0000000000000000      0x315 build/obj/chprintf.o
 .debug_loc     0x0000000000000000      0xa5d build/obj/chprintf.o
 .debug_aranges
                0x0000000000000000       0x30 build/obj/chprintf.o
 .debug_ranges  0x0000000000000000       0x50 build/obj/chprintf.o
 .debug_line    0x0000000000000000      0x36f build/obj/chprintf.o
 .debug_str     0x0000000000000000      0x6d0 build/obj/chprintf.o
 .comment       0x0000000000000000       0x2e build/obj/chprintf.o
 .debug_frame   0x0000000000000000       0x94 build/obj/chprintf.o
 .ARM.attributes
                0x0000000000000000       0x39 build/obj/chprintf.o
 .text          0x0000000000000000        0x0 build/obj/syscalls.o
 .data          0x0000000000000000        0x0 build/obj/syscalls.o
 .bss           0x0000000000000000        0x0 build/obj/syscalls.o
 .text._read_r  0x0000000000000000       0x10 build/obj/syscalls.o
 .text._lseek_r
                0x0000000000000000       0x10 build/obj/syscalls.o
 .text._write_r
                0x0000000000000000       0x10 build/obj/syscalls.o
 .text._close_r
                0x0000000000000000       0x10 build/obj/syscalls.o
 .text._fstat_r
                0x0000000000000000       0x20 build/obj/syscalls.o
 .text._isatty_r
                0x0000000000000000       0x10 build/obj/syscalls.o
 .text          0x0000000000000000        0x0 build/obj/board.o
 .data          0x0000000000000000        0x0 build/obj/board.o
 .bss           0x0000000000000000        0x0 build/obj/board.o
 .text          0x0000000000000000        0x0 build/obj/main.o
 .data          0x0000000000000000        0x0 build/obj/main.o
 .bss           0x0000000000000000        0x0 build/obj/main.o
 .text          0x0000000000000000        0x0 build/obj/comm_usb_serial.o
 .data          0x0000000000000000        0x0 build/obj/comm_usb_serial.o
 .bss           0x0000000000000000        0x0 build/obj/comm_usb_serial.o
 .text.comm_usb_serial_is_active
                0x0000000000000000       0x20 build/obj/comm_usb_serial.o
 .text          0x0000000000000000        0x0 build/obj/irq_handlers.o
 .data          0x0000000000000000        0x0 build/obj/irq_handlers.o
 .bss           0x0000000000000000        0x0 build/obj/irq_handlers.o
 .text          0x0000000000000000        0x0 build/obj/buffer.o
 .data          0x0000000000000000        0x0 build/obj/buffer.o
 .bss           0x0000000000000000        0x0 build/obj/buffer.o
 .text.buffer_get_float16
                0x0000000000000000       0x20 build/obj/buffer.o
 .text          0x0000000000000000        0x0 build/obj/comm_usb.o
 .data          0x0000000000000000        0x0 build/obj/comm_usb.o
 .bss           0x0000000000000000        0x0 build/obj/comm_usb.o
 .text          0x0000000000000000        0x0 build/obj/crc.o
 .data          0x0000000000000000        0x0 build/obj/crc.o
 .bss           0x0000000000000000        0x0 build/obj/crc.o
 .text          0x0000000000000000        0x0 build/obj/digital_filter.o
 .data          0x0000000000000000        0x0 build/obj/digital_filter.o
 .bss           0x0000000000000000        0x0 build/obj/digital_filter.o
 .text.filter_dft
                0x0000000000000000      0x180 build/obj/digital_filter.o
 .text.filter_fftshift
                0x0000000000000000       0x30 build/obj/digital_filter.o
 .text.filter_zeroPad
                0x0000000000000000       0x30 build/obj/digital_filter.o
 .text          0x0000000000000000        0x0 build/obj/ledpwm.o
 .data          0x0000000000000000        0x0 build/obj/ledpwm.o
 .bss           0x0000000000000000        0x0 build/obj/ledpwm.o
 .text.ledpwm_led_on
                0x0000000000000000       0x20 build/obj/ledpwm.o
 .text.ledpwm_led_off
                0x0000000000000000       0x20 build/obj/ledpwm.o
 .text          0x0000000000000000        0x0 build/obj/mcpwm.o
 .data          0x0000000000000000        0x0 build/obj/mcpwm.o
 .bss           0x0000000000000000        0x0 build/obj/mcpwm.o
 .text.mcpwm_get_duty_cycle_set
                0x0000000000000000       0x10 build/obj/mcpwm.o
 .text.mcpwm_get_kv
                0x0000000000000000       0x50 build/obj/mcpwm.o
 .text.mcpwm_get_tot_current_in
                0x0000000000000000       0x20 build/obj/mcpwm.o
 .text.mcpwm_set_comm_mode
                0x0000000000000000       0x10 build/obj/mcpwm.o
 .text.mcpwm_get_comm_mode
                0x0000000000000000       0x10 build/obj/mcpwm.o
 .text.mcpwm_set_duty_noramp
                0x0000000000000000       0x40 build/obj/mcpwm.o
 .text          0x0000000000000000        0x0 build/obj/servo_dec.o
 .data          0x0000000000000000        0x0 build/obj/servo_dec.o
 .bss           0x0000000000000000        0x0 build/obj/servo_dec.o
 .text          0x0000000000000000        0x0 build/obj/utils.o
 .data          0x0000000000000000        0x0 build/obj/utils.o
 .bss           0x0000000000000000        0x0 build/obj/utils.o
 .text.utils_calc_ratio
                0x0000000000000000       0x10 build/obj/utils.o
 .text.utils_map_int
                0x0000000000000000       0x20 build/obj/utils.o
 .text.utils_fast_inv_sqrt
                0x0000000000000000       0x30 build/obj/utils.o
 .text.utils_fast_sincos
                0x0000000000000000       0xd0 build/obj/utils.o
 .text.utils_avg_angles_rad_fast
                0x0000000000000000       0x60 build/obj/utils.o
 .text.utils_byte_to_binary
                0x0000000000000000       0x50 build/obj/utils.o
 .rodata.str1.4
                0x0000000000000000        0x8 build/obj/utils.o
 .text          0x0000000000000000        0x0 build/obj/servo.o
 .data          0x0000000000000000        0x0 build/obj/servo.o
 .bss           0x0000000000000000        0x0 build/obj/servo.o
 .debug_info    0x0000000000000000      0x727 build/obj/servo.o
 .debug_abbrev  0x0000000000000000      0x125 build/obj/servo.o
 .debug_aranges
                0x0000000000000000       0x18 build/obj/servo.o
 .debug_line    0x0000000000000000      0x16f build/obj/servo.o
 .debug_str     0x0000000000000000      0x567 build/obj/servo.o
 .comment       0x0000000000000000       0x2e build/obj/servo.o
 .ARM.attributes
                0x0000000000000000       0x39 build/obj/servo.o
 .text          0x0000000000000000        0x0 build/obj/servo_simple.o
 .data          0x0000000000000000        0x0 build/obj/servo_simple.o
 .bss           0x0000000000000000        0x0 build/obj/servo_simple.o
 .debug_info    0x0000000000000000      0x727 build/obj/servo_simple.o
 .debug_abbrev  0x0000000000000000      0x125 build/obj/servo_simple.o
 .debug_aranges
                0x0000000000000000       0x18 build/obj/servo_simple.o
 .debug_line    0x0000000000000000      0x16f build/obj/servo_simple.o
 .debug_str     0x0000000000000000      0x56e build/obj/servo_simple.o
 .comment       0x0000000000000000       0x2e build/obj/servo_simple.o
 .ARM.attributes
                0x0000000000000000       0x39 build/obj/servo_simple.o
 .text          0x0000000000000000        0x0 build/obj/packet.o
 .data          0x0000000000000000        0x0 build/obj/packet.o
 .bss           0x0000000000000000        0x0 build/obj/packet.o
 .text          0x0000000000000000        0x0 build/obj/terminal.o
 .data          0x0000000000000000        0x0 build/obj/terminal.o
 .bss           0x0000000000000000        0x0 build/obj/terminal.o
 .text          0x0000000000000000        0x0 build/obj/conf_general.o
 .data          0x0000000000000000        0x0 build/obj/conf_general.o
 .bss           0x0000000000000000        0x0 build/obj/conf_general.o
 .text          0x0000000000000000        0x0 build/obj/eeprom.o
 .data          0x0000000000000000        0x0 build/obj/eeprom.o
 .bss           0x0000000000000000        0x0 build/obj/eeprom.o
 .text          0x0000000000000000        0x0 build/obj/commands.o
 .data          0x0000000000000000        0x0 build/obj/commands.o
 .bss           0x0000000000000000        0x0 build/obj/commands.o
 .text.commands_send_rotor_pos_counts
                0x0000000000000000       0x30 build/obj/commands.o
 .text.commands_send_experiment_samples
                0x0000000000000000       0x80 build/obj/commands.o
 .text.commands_set_app_data_handler
                0x0000000000000000       0x10 build/obj/commands.o
 .text.commands_send_app_data
                0x0000000000000000       0x30 build/obj/commands.o
 .text          0x0000000000000000        0x0 build/obj/timeout.o
 .data          0x0000000000000000        0x0 build/obj/timeout.o
 .bss           0x0000000000000000        0x0 build/obj/timeout.o
 .text          0x0000000000000000        0x0 build/obj/comm_can.o
 .data          0x0000000000000000        0x0 build/obj/comm_can.o
 .bss           0x0000000000000000        0x0 build/obj/comm_can.o
 .text.comm_can_set_sid_rx_callback
                0x0000000000000000       0x10 build/obj/comm_can.o
 .text.comm_can_set_rpm
                0x0000000000000000       0x30 build/obj/comm_can.o
 .text.comm_can_set_pos
                0x0000000000000000       0x40 build/obj/comm_can.o
 .text.comm_can_set_current_rel
                0x0000000000000000       0x30 build/obj/comm_can.o
 .text.comm_can_set_current_brake_rel
                0x0000000000000000       0x30 build/obj/comm_can.o
 .text.comm_can_get_status_msg_id
                0x0000000000000000       0x30 build/obj/comm_can.o
 .text          0x0000000000000000        0x0 build/obj/ws2811.o
 .data          0x0000000000000000        0x0 build/obj/ws2811.o
 .bss           0x0000000000000000        0x0 build/obj/ws2811.o
 .text.rgb_to_local
                0x0000000000000000       0x50 build/obj/ws2811.o
 .text.ws2811_init
                0x0000000000000000      0x1c0 build/obj/ws2811.o
 .text.ws2811_set_led_color
                0x0000000000000000       0x60 build/obj/ws2811.o
 .text.ws2811_get_led_color
                0x0000000000000000       0x20 build/obj/ws2811.o
 .text.ws2811_all_off
                0x0000000000000000       0x30 build/obj/ws2811.o
 .text.ws2811_set_all
                0x0000000000000000       0x60 build/obj/ws2811.o
 .text.ws2811_set_brightness
                0x0000000000000000       0x30 build/obj/ws2811.o
 .text.ws2811_get_brightness
                0x0000000000000000       0x10 build/obj/ws2811.o
 .bss.brightness
                0x0000000000000000        0x4 build/obj/ws2811.o
 .bss.bitbuffer
                0x0000000000000000      0x5d4 build/obj/ws2811.o
 .bss.RGBdata   0x0000000000000000       0x74 build/obj/ws2811.o
 .bss.gamma_table
                0x0000000000000000      0x100 build/obj/ws2811.o
 .debug_info    0x0000000000000000     0x116c build/obj/ws2811.o
 .debug_abbrev  0x0000000000000000      0x2ca build/obj/ws2811.o
 .debug_loc     0x0000000000000000      0x3fe build/obj/ws2811.o
 .debug_aranges
                0x0000000000000000       0x58 build/obj/ws2811.o
 .debug_ranges  0x0000000000000000       0x60 build/obj/ws2811.o
 .debug_line    0x0000000000000000      0x40a build/obj/ws2811.o
 .debug_str     0x0000000000000000      0xa37 build/obj/ws2811.o
 .comment       0x0000000000000000       0x2e build/obj/ws2811.o
 .debug_frame   0x0000000000000000      0x114 build/obj/ws2811.o
 .ARM.attributes
                0x0000000000000000       0x39 build/obj/ws2811.o
 .text          0x0000000000000000        0x0 build/obj/led_external.o
 .data          0x0000000000000000        0x0 build/obj/led_external.o
 .bss           0x0000000000000000        0x0 build/obj/led_external.o
 .text.wait_for_state_change
                0x0000000000000000       0x40 build/obj/led_external.o
 .text.set_led_wrapper
                0x0000000000000000       0x20 build/obj/led_external.o
 .text.led_thread
                0x0000000000000000      0x3a0 build/obj/led_external.o
 .text.led_external_init
                0x0000000000000000       0x40 build/obj/led_external.o
 .rodata.str1.4
                0x0000000000000000       0x10 build/obj/led_external.o
 .bss.led_thread_wa
                0x0000000000000000      0x598 build/obj/led_external.o
 .text          0x0000000000000000        0x0 build/obj/encoder.o
 .data          0x0000000000000000        0x0 build/obj/encoder.o
 .bss           0x0000000000000000        0x0 build/obj/encoder.o
 .text          0x0000000000000000        0x0 build/obj/flash_helper.o
 .data          0x0000000000000000        0x0 build/obj/flash_helper.o
 .bss           0x0000000000000000        0x0 build/obj/flash_helper.o
 .text          0x0000000000000000        0x0 build/obj/mc_interface.o
 .data          0x0000000000000000        0x0 build/obj/mc_interface.o
 .bss           0x0000000000000000        0x0 build/obj/mc_interface.o
 .text.mc_interface_set_pwm_callback
                0x0000000000000000       0x10 build/obj/mc_interface.o
 .text.mc_interface_get_duty_cycle_set
                0x0000000000000000       0x50 build/obj/mc_interface.o
 .text.mc_interface_get_tot_current_in
                0x0000000000000000       0x30 build/obj/mc_interface.o
 .text.mc_interface_brake_now
                0x0000000000000000       0x10 build/obj/mc_interface.o
 .text.mc_interface_set_duty_noramp
                0x0000000000000000       0x70 build/obj/mc_interface.o
 .text.mc_interface_fault_stop
                0x0000000000000000       0x30 build/obj/mc_interface.o
 .text          0x0000000000000000        0x0 build/obj/mcpwm_foc.o
 .data          0x0000000000000000        0x0 build/obj/mcpwm_foc.o
 .bss           0x0000000000000000        0x0 build/obj/mcpwm_foc.o
 .text.mcpwm_foc_set_duty_noramp
                0x0000000000000000       0x30 build/obj/mcpwm_foc.o
 .text.mcpwm_foc_get_duty_cycle_set
                0x0000000000000000       0x10 build/obj/mcpwm_foc.o
 .text.mcpwm_foc_get_pid_pos_set
                0x0000000000000000       0x10 build/obj/mcpwm_foc.o
 .text.mcpwm_foc_get_switching_frequency_now
                0x0000000000000000       0x10 build/obj/mcpwm_foc.o
 .text.mcpwm_foc_get_abs_motor_voltage
                0x0000000000000000       0x40 build/obj/mcpwm_foc.o
 .text.mcpwm_foc_get_tot_current_in
                0x0000000000000000       0x10 build/obj/mcpwm_foc.o
 .text.mcpwm_foc_get_vd
                0x0000000000000000       0x10 build/obj/mcpwm_foc.o
 .text          0x0000000000000000        0x0 build/obj/hw_40.o
 .data          0x0000000000000000        0x0 build/obj/hw_40.o
 .bss           0x0000000000000000        0x0 build/obj/hw_40.o
 .debug_info    0x0000000000000000      0x727 build/obj/hw_40.o
 .debug_abbrev  0x0000000000000000      0x125 build/obj/hw_40.o
 .debug_aranges
                0x0000000000000000       0x18 build/obj/hw_40.o
 .debug_line    0x0000000000000000      0x16f build/obj/hw_40.o
 .debug_str     0x0000000000000000      0x56e build/obj/hw_40.o
 .comment       0x0000000000000000       0x2e build/obj/hw_40.o
 .ARM.attributes
                0x0000000000000000       0x39 build/obj/hw_40.o
 .text          0x0000000000000000        0x0 build/obj/hw_45.o
 .data          0x0000000000000000        0x0 build/obj/hw_45.o
 .bss           0x0000000000000000        0x0 build/obj/hw_45.o
 .debug_info    0x0000000000000000      0x727 build/obj/hw_45.o
 .debug_abbrev  0x0000000000000000      0x125 build/obj/hw_45.o
 .debug_aranges
                0x0000000000000000       0x18 build/obj/hw_45.o
 .debug_line    0x0000000000000000      0x16f build/obj/hw_45.o
 .debug_str     0x0000000000000000      0x56e build/obj/hw_45.o
 .comment       0x0000000000000000       0x2e build/obj/hw_45.o
 .ARM.attributes
                0x0000000000000000       0x39 build/obj/hw_45.o
 .text          0x0000000000000000        0x0 build/obj/hw_r2.o
 .data          0x0000000000000000        0x0 build/obj/hw_r2.o
 .bss           0x0000000000000000        0x0 build/obj/hw_r2.o
 .debug_info    0x0000000000000000      0x727 build/obj/hw_r2.o
 .debug_abbrev  0x0000000000000000      0x125 build/obj/hw_r2.o
 .debug_aranges
                0x0000000000000000       0x18 build/obj/hw_r2.o
 .debug_line    0x0000000000000000      0x16f build/obj/hw_r2.o
 .debug_str     0x0000000000000000      0x56e build/obj/hw_r2.o
 .comment       0x0000000000000000       0x2e build/obj/hw_r2.o
 .ARM.attributes
                0x0000000000000000       0x39 build/obj/hw_r2.o
 .text          0x0000000000000000        0x0 build/obj/hw_46.o
 .data          0x0000000000000000        0x0 build/obj/hw_46.o
 .bss           0x0000000000000000        0x0 build/obj/hw_46.o
 .debug_info    0x0000000000000000      0x727 build/obj/hw_46.o
 .debug_abbrev  0x0000000000000000      0x125 build/obj/hw_46.o
 .debug_aranges
                0x0000000000000000       0x18 build/obj/hw_46.o
 .debug_line    0x0000000000000000      0x16f build/obj/hw_46.o
 .debug_str     0x0000000000000000      0x56e build/obj/hw_46.o
 .comment       0x0000000000000000       0x2e build/obj/hw_46.o
 .ARM.attributes
                0x0000000000000000       0x39 build/obj/hw_46.o
 .text          0x0000000000000000        0x0 build/obj/hw_48.o
 .data          0x0000000000000000        0x0 build/obj/hw_48.o
 .bss           0x0000000000000000        0x0 build/obj/hw_48.o
 .debug_info    0x0000000000000000      0x727 build/obj/hw_48.o
 .debug_abbrev  0x0000000000000000      0x125 build/obj/hw_48.o
 .debug_aranges
                0x0000000000000000       0x18 build/obj/hw_48.o
 .debug_line    0x0000000000000000      0x16f build/obj/hw_48.o
 .debug_str     0x0000000000000000      0x56e build/obj/hw_48.o
 .comment       0x0000000000000000       0x2e build/obj/hw_48.o
 .ARM.attributes
                0x0000000000000000       0x39 build/obj/hw_48.o
 .text          0x0000000000000000        0x0 build/obj/hw_49.o
 .data          0x0000000000000000        0x0 build/obj/hw_49.o
 .bss           0x0000000000000000        0x0 build/obj/hw_49.o
 .debug_info    0x0000000000000000      0x727 build/obj/hw_49.o
 .debug_abbrev  0x0000000000000000      0x125 build/obj/hw_49.o
 .debug_aranges
                0x0000000000000000       0x18 build/obj/hw_49.o
 .debug_line    0x0000000000000000      0x16f build/obj/hw_49.o
 .debug_str     0x0000000000000000      0x56e build/obj/hw_49.o
 .comment       0x0000000000000000       0x2e build/obj/hw_49.o
 .ARM.attributes
                0x0000000000000000       0x39 build/obj/hw_49.o
 .text          0x0000000000000000        0x0 build/obj/hw_410.o
 .data          0x0000000000000000        0x0 build/obj/hw_410.o
 .bss           0x0000000000000000        0x0 build/obj/hw_410.o
 .text.hw_setup_servo_outputs
                0x0000000000000000       0x30 build/obj/hw_410.o
 .text          0x0000000000000000        0x0 build/obj/hw_60.o
 .data          0x0000000000000000        0x0 build/obj/hw_60.o
 .bss           0x0000000000000000        0x0 build/obj/hw_60.o
 .debug_info    0x0000000000000000      0x727 build/obj/hw_60.o
 .debug_abbrev  0x0000000000000000      0x125 build/obj/hw_60.o
 .debug_aranges
                0x0000000000000000       0x18 build/obj/hw_60.o
 .debug_line    0x0000000000000000      0x16f build/obj/hw_60.o
 .debug_str     0x0000000000000000      0x56e build/obj/hw_60.o
 .comment       0x0000000000000000       0x2e build/obj/hw_60.o
 .ARM.attributes
                0x0000000000000000       0x39 build/obj/hw_60.o
 .text          0x0000000000000000        0x0 build/obj/hw_victor_r1a.o
 .data          0x0000000000000000        0x0 build/obj/hw_victor_r1a.o
 .bss           0x0000000000000000        0x0 build/obj/hw_victor_r1a.o
 .debug_info    0x0000000000000000      0x727 build/obj/hw_victor_r1a.o
 .debug_abbrev  0x0000000000000000      0x125 build/obj/hw_victor_r1a.o
 .debug_aranges
                0x0000000000000000       0x18 build/obj/hw_victor_r1a.o
 .debug_line    0x0000000000000000      0x16f build/obj/hw_victor_r1a.o
 .debug_str     0x0000000000000000      0x576 build/obj/hw_victor_r1a.o
 .comment       0x0000000000000000       0x2e build/obj/hw_victor_r1a.o
 .ARM.attributes
                0x0000000000000000       0x39 build/obj/hw_victor_r1a.o
 .text          0x0000000000000000        0x0 build/obj/hw_das_rs.o
 .data          0x0000000000000000        0x0 build/obj/hw_das_rs.o
 .bss           0x0000000000000000        0x0 build/obj/hw_das_rs.o
 .debug_info    0x0000000000000000      0x727 build/obj/hw_das_rs.o
 .debug_abbrev  0x0000000000000000      0x125 build/obj/hw_das_rs.o
 .debug_aranges
                0x0000000000000000       0x18 build/obj/hw_das_rs.o
 .debug_line    0x0000000000000000      0x16f build/obj/hw_das_rs.o
 .debug_str     0x0000000000000000      0x572 build/obj/hw_das_rs.o
 .comment       0x0000000000000000       0x2e build/obj/hw_das_rs.o
 .ARM.attributes
                0x0000000000000000       0x39 build/obj/hw_das_rs.o
 .text          0x0000000000000000        0x0 build/obj/drv8301.o
 .data          0x0000000000000000        0x0 build/obj/drv8301.o
 .bss           0x0000000000000000        0x0 build/obj/drv8301.o
 .debug_info    0x0000000000000000      0x727 build/obj/drv8301.o
 .debug_abbrev  0x0000000000000000      0x125 build/obj/drv8301.o
 .debug_aranges
                0x0000000000000000       0x18 build/obj/drv8301.o
 .debug_line    0x0000000000000000      0x16f build/obj/drv8301.o
 .debug_str     0x0000000000000000      0x570 build/obj/drv8301.o
 .comment       0x0000000000000000       0x2e build/obj/drv8301.o
 .ARM.attributes
                0x0000000000000000       0x39 build/obj/drv8301.o
 .text          0x0000000000000000        0x0 build/obj/drv8305.o
 .data          0x0000000000000000        0x0 build/obj/drv8305.o
 .bss           0x0000000000000000        0x0 build/obj/drv8305.o
 .debug_info    0x0000000000000000      0x727 build/obj/drv8305.o
 .debug_abbrev  0x0000000000000000      0x125 build/obj/drv8305.o
 .debug_aranges
                0x0000000000000000       0x18 build/obj/drv8305.o
 .debug_line    0x0000000000000000      0x16f build/obj/drv8305.o
 .debug_str     0x0000000000000000      0x570 build/obj/drv8305.o
 .comment       0x0000000000000000       0x2e build/obj/drv8305.o
 .ARM.attributes
                0x0000000000000000       0x39 build/obj/drv8305.o
 .text          0x0000000000000000        0x0 build/obj/hw_palta.o
 .data          0x0000000000000000        0x0 build/obj/hw_palta.o
 .bss           0x0000000000000000        0x0 build/obj/hw_palta.o
 .debug_info    0x0000000000000000      0x727 build/obj/hw_palta.o
 .debug_abbrev  0x0000000000000000      0x125 build/obj/hw_palta.o
 .debug_aranges
                0x0000000000000000       0x18 build/obj/hw_palta.o
 .debug_line    0x0000000000000000      0x16f build/obj/hw_palta.o
 .debug_str     0x0000000000000000      0x571 build/obj/hw_palta.o
 .comment       0x0000000000000000       0x2e build/obj/hw_palta.o
 .ARM.attributes
                0x0000000000000000       0x39 build/obj/hw_palta.o
 .text          0x0000000000000000        0x0 build/obj/hw_rh.o
 .data          0x0000000000000000        0x0 build/obj/hw_rh.o
 .bss           0x0000000000000000        0x0 build/obj/hw_rh.o
 .debug_info    0x0000000000000000      0x727 build/obj/hw_rh.o
 .debug_abbrev  0x0000000000000000      0x125 build/obj/hw_rh.o
 .debug_aranges
                0x0000000000000000       0x18 build/obj/hw_rh.o
 .debug_line    0x0000000000000000      0x16f build/obj/hw_rh.o
 .debug_str     0x0000000000000000      0x56e build/obj/hw_rh.o
 .comment       0x0000000000000000       0x2e build/obj/hw_rh.o
 .ARM.attributes
                0x0000000000000000       0x39 build/obj/hw_rh.o
 .text          0x0000000000000000        0x0 build/obj/hw_tp.o
 .data          0x0000000000000000        0x0 build/obj/hw_tp.o
 .bss           0x0000000000000000        0x0 build/obj/hw_tp.o
 .debug_info    0x0000000000000000      0x727 build/obj/hw_tp.o
 .debug_abbrev  0x0000000000000000      0x125 build/obj/hw_tp.o
 .debug_aranges
                0x0000000000000000       0x18 build/obj/hw_tp.o
 .debug_line    0x0000000000000000      0x16f build/obj/hw_tp.o
 .debug_str     0x0000000000000000      0x56e build/obj/hw_tp.o
 .comment       0x0000000000000000       0x2e build/obj/hw_tp.o
 .ARM.attributes
                0x0000000000000000       0x39 build/obj/hw_tp.o
 .text          0x0000000000000000        0x0 build/obj/app.o
 .data          0x0000000000000000        0x0 build/obj/app.o
 .bss           0x0000000000000000        0x0 build/obj/app.o
 .text          0x0000000000000000        0x0 build/obj/app_ppm.o
 .data          0x0000000000000000        0x0 build/obj/app_ppm.o
 .bss           0x0000000000000000        0x0 build/obj/app_ppm.o
 .text          0x0000000000000000        0x0 build/obj/app_adc.o
 .data          0x0000000000000000        0x0 build/obj/app_adc.o
 .bss           0x0000000000000000        0x0 build/obj/app_adc.o
 .text          0x0000000000000000        0x0 build/obj/app_sten.o
 .data          0x0000000000000000        0x0 build/obj/app_sten.o
 .bss           0x0000000000000000        0x0 build/obj/app_sten.o
 .debug_info    0x0000000000000000      0x727 build/obj/app_sten.o
 .debug_abbrev  0x0000000000000000      0x125 build/obj/app_sten.o
 .debug_aranges
                0x0000000000000000       0x18 build/obj/app_sten.o
 .debug_line    0x0000000000000000      0x16f build/obj/app_sten.o
 .debug_str     0x0000000000000000      0x577 build/obj/app_sten.o
 .comment       0x0000000000000000       0x2e build/obj/app_sten.o
 .ARM.attributes
                0x0000000000000000       0x39 build/obj/app_sten.o
 .text          0x0000000000000000        0x0 build/obj/app_uartcomm.o
 .data          0x0000000000000000        0x0 build/obj/app_uartcomm.o
 .bss           0x0000000000000000        0x0 build/obj/app_uartcomm.o
 .text          0x0000000000000000        0x0 build/obj/app_nunchuk.o
 .data          0x0000000000000000        0x0 build/obj/app_nunchuk.o
 .bss           0x0000000000000000        0x0 build/obj/app_nunchuk.o
 .text          0x0000000000000000        0x0 build/obj/app_custom.o
 .data          0x0000000000000000        0x0 build/obj/app_custom.o
 .bss           0x0000000000000000        0x0 build/obj/app_custom.o
 .debug_info    0x0000000000000000      0x727 build/obj/app_custom.o
 .debug_abbrev  0x0000000000000000      0x125 build/obj/app_custom.o
 .debug_aranges
                0x0000000000000000       0x18 build/obj/app_custom.o
 .debug_line    0x0000000000000000      0x16f build/obj/app_custom.o
 .debug_str     0x0000000000000000      0x579 build/obj/app_custom.o
 .comment       0x0000000000000000       0x2e build/obj/app_custom.o
 .ARM.attributes
                0x0000000000000000       0x39 build/obj/app_custom.o
 .text          0x0000000000000000        0x0 build/obj/spi_sw.o
 .data          0x0000000000000000        0x0 build/obj/spi_sw.o
 .bss           0x0000000000000000        0x0 build/obj/spi_sw.o
 .text.spi_sw_change_pins
                0x0000000000000000       0xe0 build/obj/spi_sw.o
 .text          0x0000000000000000        0x0 build/obj/rf.o
 .data          0x0000000000000000        0x0 build/obj/rf.o
 .bss           0x0000000000000000        0x0 build/obj/rf.o
 .text.rf_write_ack_payload
                0x0000000000000000       0x40 build/obj/rf.o
 .text.rf_clear_tx_irq
                0x0000000000000000       0x20 build/obj/rf.o
 .text.rf_get_frequency
                0x0000000000000000       0x20 build/obj/rf.o
 .text.rf_get_address_width
                0x0000000000000000       0x20 build/obj/rf.o
 .text.rf_fifo_status
                0x0000000000000000       0x20 build/obj/rf.o
 .text.rf_rx_power_detect
                0x0000000000000000       0x20 build/obj/rf.o
 .text.rf_read_reg_byte
                0x0000000000000000       0x20 build/obj/rf.o
 .text          0x0000000000000000        0x0 build/obj/rfhelp.o
 .data          0x0000000000000000        0x0 build/obj/rfhelp.o
 .bss           0x0000000000000000        0x0 build/obj/rfhelp.o
 .text.rfhelp_rf_status
                0x0000000000000000       0x20 build/obj/rfhelp.o
 .text.rfhelp_set_tx_addr
                0x0000000000000000       0x60 build/obj/rfhelp.o
 .text.rfhelp_set_rx_addr
                0x0000000000000000       0x80 build/obj/rfhelp.o
 .text.rfhelp_power_down
                0x0000000000000000       0x20 build/obj/rfhelp.o
 .text          0x0000000000000000        0x0 build/obj/nrf_driver.o
 .data          0x0000000000000000        0x0 build/obj/nrf_driver.o
 .bss           0x0000000000000000        0x0 build/obj/nrf_driver.o
 .text          0x0000000000000000        0x0 build/obj/misc.o
 .data          0x0000000000000000        0x0 build/obj/misc.o
 .bss           0x0000000000000000        0x0 build/obj/misc.o
 .text.NVIC_PriorityGroupConfig
                0x0000000000000000       0x20 build/obj/misc.o
 .text.NVIC_Init
                0x0000000000000000       0x80 build/obj/misc.o
 .text.NVIC_SetVectorTable
                0x0000000000000000       0x20 build/obj/misc.o
 .text.NVIC_SystemLPConfig
                0x0000000000000000       0x20 build/obj/misc.o
 .text.SysTick_CLKSourceConfig
                0x0000000000000000       0x20 build/obj/misc.o
 .debug_info    0x0000000000000000      0x545 build/obj/misc.o
 .debug_abbrev  0x0000000000000000      0x156 build/obj/misc.o
 .debug_loc     0x0000000000000000      0x15d build/obj/misc.o
 .debug_aranges
                0x0000000000000000       0x40 build/obj/misc.o
 .debug_ranges  0x0000000000000000       0x30 build/obj/misc.o
 .debug_line    0x0000000000000000      0x1af build/obj/misc.o
 .debug_str     0x0000000000000000      0x462 build/obj/misc.o
 .comment       0x0000000000000000       0x2e build/obj/misc.o
 .debug_frame   0x0000000000000000       0x70 build/obj/misc.o
 .ARM.attributes
                0x0000000000000000       0x39 build/obj/misc.o
 .text          0x0000000000000000        0x0 build/obj/stm32f4xx_adc.o
 .data          0x0000000000000000        0x0 build/obj/stm32f4xx_adc.o
 .bss           0x0000000000000000        0x0 build/obj/stm32f4xx_adc.o
 .text.ADC_StructInit
                0x0000000000000000       0x20 build/obj/stm32f4xx_adc.o
 .text.ADC_CommonStructInit
                0x0000000000000000       0x10 build/obj/stm32f4xx_adc.o
 .text.ADC_AnalogWatchdogCmd
                0x0000000000000000       0x10 build/obj/stm32f4xx_adc.o
 .text.ADC_AnalogWatchdogThresholdsConfig
                0x0000000000000000       0x10 build/obj/stm32f4xx_adc.o
 .text.ADC_AnalogWatchdogSingleChannelConfig
                0x0000000000000000       0x10 build/obj/stm32f4xx_adc.o
 .text.ADC_VBATCmd
                0x0000000000000000       0x20 build/obj/stm32f4xx_adc.o
 .text.ADC_SoftwareStartConv
                0x0000000000000000       0x10 build/obj/stm32f4xx_adc.o
 .text.ADC_GetSoftwareStartConvStatus
                0x0000000000000000       0x10 build/obj/stm32f4xx_adc.o
 .text.ADC_EOCOnEachRegularChannelCmd
                0x0000000000000000       0x20 build/obj/stm32f4xx_adc.o
 .text.ADC_ContinuousModeCmd
                0x0000000000000000       0x20 build/obj/stm32f4xx_adc.o
 .text.ADC_DiscModeChannelCountConfig
                0x0000000000000000       0x10 build/obj/stm32f4xx_adc.o
 .text.ADC_DiscModeCmd
                0x0000000000000000       0x20 build/obj/stm32f4xx_adc.o
 .text.ADC_GetConversionValue
                0x0000000000000000       0x10 build/obj/stm32f4xx_adc.o
 .text.ADC_GetMultiModeConversionValue
                0x0000000000000000       0x10 build/obj/stm32f4xx_adc.o
 .text.ADC_DMACmd
                0x0000000000000000       0x20 build/obj/stm32f4xx_adc.o
 .text.ADC_DMARequestAfterLastTransferCmd
                0x0000000000000000       0x20 build/obj/stm32f4xx_adc.o
 .text.ADC_SetInjectedOffset
                0x0000000000000000       0x20 build/obj/stm32f4xx_adc.o
 .text.ADC_SoftwareStartInjectedConv
                0x0000000000000000       0x10 build/obj/stm32f4xx_adc.o
 .text.ADC_GetSoftwareStartInjectedConvCmdStatus
                0x0000000000000000       0x10 build/obj/stm32f4xx_adc.o
 .text.ADC_AutoInjectedConvCmd
                0x0000000000000000       0x20 build/obj/stm32f4xx_adc.o
 .text.ADC_InjectedDiscModeCmd
                0x0000000000000000       0x20 build/obj/stm32f4xx_adc.o
 .text.ADC_GetFlagStatus
                0x0000000000000000       0x10 build/obj/stm32f4xx_adc.o
 .text.ADC_ClearFlag
                0x0000000000000000       0x10 build/obj/stm32f4xx_adc.o
 .text.ADC_GetITStatus
                0x0000000000000000       0x20 build/obj/stm32f4xx_adc.o
 .text          0x0000000000000000        0x0 build/obj/stm32f4xx_dma.o
 .data          0x0000000000000000        0x0 build/obj/stm32f4xx_dma.o
 .bss           0x0000000000000000        0x0 build/obj/stm32f4xx_dma.o
 .text.DMA_StructInit
                0x0000000000000000       0x30 build/obj/stm32f4xx_dma.o
 .text.DMA_PeriphIncOffsetSizeConfig
                0x0000000000000000       0x20 build/obj/stm32f4xx_dma.o
 .text.DMA_FlowControllerConfig
                0x0000000000000000       0x20 build/obj/stm32f4xx_dma.o
 .text.DMA_SetCurrDataCounter
                0x0000000000000000       0x10 build/obj/stm32f4xx_dma.o
 .text.DMA_GetCurrDataCounter
                0x0000000000000000       0x10 build/obj/stm32f4xx_dma.o
 .text.DMA_DoubleBufferModeConfig
                0x0000000000000000       0x20 build/obj/stm32f4xx_dma.o
 .text.DMA_DoubleBufferModeCmd
                0x0000000000000000       0x20 build/obj/stm32f4xx_dma.o
 .text.DMA_MemoryTargetConfig
                0x0000000000000000       0x10 build/obj/stm32f4xx_dma.o
 .text.DMA_GetCurrentMemoryTarget
                0x0000000000000000       0x10 build/obj/stm32f4xx_dma.o
 .text.DMA_GetCmdStatus
                0x0000000000000000       0x10 build/obj/stm32f4xx_dma.o
 .text.DMA_GetFIFOStatus
                0x0000000000000000       0x10 build/obj/stm32f4xx_dma.o
 .text.DMA_GetFlagStatus
                0x0000000000000000       0x40 build/obj/stm32f4xx_dma.o
 .text.DMA_ClearFlag
                0x0000000000000000       0x40 build/obj/stm32f4xx_dma.o
 .text.DMA_GetITStatus
                0x0000000000000000       0x60 build/obj/stm32f4xx_dma.o
 .text.DMA_ClearITPendingBit
                0x0000000000000000       0x40 build/obj/stm32f4xx_dma.o
 .text          0x0000000000000000        0x0 build/obj/stm32f4xx_exti.o
 .data          0x0000000000000000        0x0 build/obj/stm32f4xx_exti.o
 .bss           0x0000000000000000        0x0 build/obj/stm32f4xx_exti.o
 .text.EXTI_DeInit
                0x0000000000000000       0x20 build/obj/stm32f4xx_exti.o
 .text.EXTI_StructInit
                0x0000000000000000       0x10 build/obj/stm32f4xx_exti.o
 .text.EXTI_GenerateSWInterrupt
                0x0000000000000000       0x10 build/obj/stm32f4xx_exti.o
 .text.EXTI_GetFlagStatus
                0x0000000000000000       0x20 build/obj/stm32f4xx_exti.o
 .text.EXTI_ClearFlag
                0x0000000000000000       0x10 build/obj/stm32f4xx_exti.o
 .text          0x0000000000000000        0x0 build/obj/stm32f4xx_flash.o
 .data          0x0000000000000000        0x0 build/obj/stm32f4xx_flash.o
 .bss           0x0000000000000000        0x0 build/obj/stm32f4xx_flash.o
 .text.FLASH_SetLatency
                0x0000000000000000       0x10 build/obj/stm32f4xx_flash.o
 .text.FLASH_PrefetchBufferCmd
                0x0000000000000000       0x20 build/obj/stm32f4xx_flash.o
 .text.FLASH_InstructionCacheCmd
                0x0000000000000000       0x20 build/obj/stm32f4xx_flash.o
 .text.FLASH_DataCacheCmd
                0x0000000000000000       0x20 build/obj/stm32f4xx_flash.o
 .text.FLASH_InstructionCacheReset
                0x0000000000000000       0x10 build/obj/stm32f4xx_flash.o
 .text.FLASH_DataCacheReset
                0x0000000000000000       0x10 build/obj/stm32f4xx_flash.o
 .text.FLASH_Lock
                0x0000000000000000       0x10 build/obj/stm32f4xx_flash.o
 .text.FLASH_OB_Unlock
                0x0000000000000000       0x20 build/obj/stm32f4xx_flash.o
 .text.FLASH_OB_Lock
                0x0000000000000000       0x10 build/obj/stm32f4xx_flash.o
 .text.FLASH_OB_PCROPSelectionConfig
                0x0000000000000000       0x20 build/obj/stm32f4xx_flash.o
 .text.FLASH_OB_BootConfig
                0x0000000000000000       0x20 build/obj/stm32f4xx_flash.o
 .text.FLASH_OB_BORConfig
                0x0000000000000000       0x20 build/obj/stm32f4xx_flash.o
 .text.FLASH_OB_GetUser
                0x0000000000000000       0x10 build/obj/stm32f4xx_flash.o
 .text.FLASH_OB_GetWRP
                0x0000000000000000       0x10 build/obj/stm32f4xx_flash.o
 .text.FLASH_OB_GetWRP1
                0x0000000000000000       0x10 build/obj/stm32f4xx_flash.o
 .text.FLASH_OB_GetPCROP
                0x0000000000000000       0x10 build/obj/stm32f4xx_flash.o
 .text.FLASH_OB_GetPCROP1
                0x0000000000000000       0x10 build/obj/stm32f4xx_flash.o
 .text.FLASH_OB_GetRDP
                0x0000000000000000       0x10 build/obj/stm32f4xx_flash.o
 .text.FLASH_OB_GetBOR
                0x0000000000000000       0x10 build/obj/stm32f4xx_flash.o
 .text.FLASH_ITConfig
                0x0000000000000000       0x20 build/obj/stm32f4xx_flash.o
 .text.FLASH_GetFlagStatus
                0x0000000000000000       0x20 build/obj/stm32f4xx_flash.o
 .text.FLASH_EraseAllSectors
                0x0000000000000000       0x60 build/obj/stm32f4xx_flash.o
 .text.FLASH_EraseAllBank1Sectors
                0x0000000000000000       0x60 build/obj/stm32f4xx_flash.o
 .text.FLASH_EraseAllBank2Sectors
                0x0000000000000000       0x60 build/obj/stm32f4xx_flash.o
 .text.FLASH_ProgramDoubleWord
                0x0000000000000000       0x50 build/obj/stm32f4xx_flash.o
 .text.FLASH_ProgramWord
                0x0000000000000000       0x40 build/obj/stm32f4xx_flash.o
 .text.FLASH_OB_WRPConfig
                0x0000000000000000       0x30 build/obj/stm32f4xx_flash.o
 .text.FLASH_OB_WRP1Config
                0x0000000000000000       0x30 build/obj/stm32f4xx_flash.o
 .text.FLASH_OB_PCROPConfig
                0x0000000000000000       0x30 build/obj/stm32f4xx_flash.o
 .text.FLASH_OB_PCROP1Config
                0x0000000000000000       0x30 build/obj/stm32f4xx_flash.o
 .text.FLASH_OB_RDPConfig
                0x0000000000000000       0x20 build/obj/stm32f4xx_flash.o
 .text.FLASH_OB_UserConfig
                0x0000000000000000       0x30 build/obj/stm32f4xx_flash.o
 .text.FLASH_OB_Launch
                0x0000000000000000       0x20 build/obj/stm32f4xx_flash.o
 .text          0x0000000000000000        0x0 build/obj/stm32f4xx_rcc.o
 .data          0x0000000000000000        0x0 build/obj/stm32f4xx_rcc.o
 .bss           0x0000000000000000        0x0 build/obj/stm32f4xx_rcc.o
 .text.RCC_DeInit
                0x0000000000000000       0x40 build/obj/stm32f4xx_rcc.o
 .text.RCC_HSEConfig
                0x0000000000000000       0x10 build/obj/stm32f4xx_rcc.o
 .text.RCC_WaitForHSEStartUp
                0x0000000000000000       0x40 build/obj/stm32f4xx_rcc.o
 .text.RCC_AdjustHSICalibrationValue
                0x0000000000000000       0x20 build/obj/stm32f4xx_rcc.o
 .text.RCC_HSICmd
                0x0000000000000000       0x10 build/obj/stm32f4xx_rcc.o
 .text.RCC_LSEConfig
                0x0000000000000000       0x20 build/obj/stm32f4xx_rcc.o
 .text.RCC_LSICmd
                0x0000000000000000       0x10 build/obj/stm32f4xx_rcc.o
 .text.RCC_PLLCmd
                0x0000000000000000       0x10 build/obj/stm32f4xx_rcc.o
 .text.RCC_PLLI2SCmd
                0x0000000000000000       0x10 build/obj/stm32f4xx_rcc.o
 .text.RCC_PLLSAICmd
                0x0000000000000000       0x10 build/obj/stm32f4xx_rcc.o
 .text.RCC_ClockSecuritySystemCmd
                0x0000000000000000       0x10 build/obj/stm32f4xx_rcc.o
 .text.RCC_MCO1Config
                0x0000000000000000       0x20 build/obj/stm32f4xx_rcc.o
 .text.RCC_MCO2Config
                0x0000000000000000       0x20 build/obj/stm32f4xx_rcc.o
 .text.RCC_SYSCLKConfig
                0x0000000000000000       0x20 build/obj/stm32f4xx_rcc.o
 .text.RCC_GetSYSCLKSource
                0x0000000000000000       0x10 build/obj/stm32f4xx_rcc.o
 .text.RCC_HCLKConfig
                0x0000000000000000       0x20 build/obj/stm32f4xx_rcc.o
 .text.RCC_PCLK1Config
                0x0000000000000000       0x20 build/obj/stm32f4xx_rcc.o
 .text.RCC_PCLK2Config
                0x0000000000000000       0x20 build/obj/stm32f4xx_rcc.o
 .text.RCC_GetClocksFreq
                0x0000000000000000       0x90 build/obj/stm32f4xx_rcc.o
 .text.RCC_RTCCLKConfig
                0x0000000000000000       0x30 build/obj/stm32f4xx_rcc.o
 .text.RCC_RTCCLKCmd
                0x0000000000000000       0x10 build/obj/stm32f4xx_rcc.o
 .text.RCC_BackupResetCmd
                0x0000000000000000       0x10 build/obj/stm32f4xx_rcc.o
 .text.RCC_TIMCLKPresConfig
                0x0000000000000000       0x10 build/obj/stm32f4xx_rcc.o
 .text.RCC_AHB2PeriphClockCmd
                0x0000000000000000       0x20 build/obj/stm32f4xx_rcc.o
 .text.RCC_AHB1PeriphResetCmd
                0x0000000000000000       0x20 build/obj/stm32f4xx_rcc.o
 .text.RCC_AHB2PeriphResetCmd
                0x0000000000000000       0x20 build/obj/stm32f4xx_rcc.o
 .text.RCC_AHB1PeriphClockLPModeCmd
                0x0000000000000000       0x20 build/obj/stm32f4xx_rcc.o
 .text.RCC_AHB2PeriphClockLPModeCmd
                0x0000000000000000       0x20 build/obj/stm32f4xx_rcc.o
 .text.RCC_APB1PeriphClockLPModeCmd
                0x0000000000000000       0x20 build/obj/stm32f4xx_rcc.o
 .text.RCC_APB2PeriphClockLPModeCmd
                0x0000000000000000       0x20 build/obj/stm32f4xx_rcc.o
 .text.RCC_LSEModeConfig
                0x0000000000000000       0x20 build/obj/stm32f4xx_rcc.o
 .text.RCC_ITConfig
                0x0000000000000000       0x20 build/obj/stm32f4xx_rcc.o
 .text.RCC_GetFlagStatus
                0x0000000000000000       0x40 build/obj/stm32f4xx_rcc.o
 .text.RCC_ClearFlag
                0x0000000000000000       0x10 build/obj/stm32f4xx_rcc.o
 .text.RCC_GetITStatus
                0x0000000000000000       0x20 build/obj/stm32f4xx_rcc.o
 .text.RCC_ClearITPendingBit
                0x0000000000000000       0x10 build/obj/stm32f4xx_rcc.o
 .data.APBAHBPrescTable
                0x0000000000000000       0x10 build/obj/stm32f4xx_rcc.o
 .text          0x0000000000000000        0x0 build/obj/stm32f4xx_syscfg.o
 .data          0x0000000000000000        0x0 build/obj/stm32f4xx_syscfg.o
 .bss           0x0000000000000000        0x0 build/obj/stm32f4xx_syscfg.o
 .text.SYSCFG_DeInit
                0x0000000000000000       0x20 build/obj/stm32f4xx_syscfg.o
 .text.SYSCFG_MemoryRemapConfig
                0x0000000000000000       0x10 build/obj/stm32f4xx_syscfg.o
 .text.SYSCFG_MemorySwappingBank
                0x0000000000000000       0x10 build/obj/stm32f4xx_syscfg.o
 .text.SYSCFG_ETH_MediaInterfaceConfig
                0x0000000000000000       0x10 build/obj/stm32f4xx_syscfg.o
 .text.SYSCFG_CompensationCellCmd
                0x0000000000000000       0x10 build/obj/stm32f4xx_syscfg.o
 .text.SYSCFG_GetCompensationCellStatus
                0x0000000000000000       0x10 build/obj/stm32f4xx_syscfg.o
 .text          0x0000000000000000        0x0 build/obj/stm32f4xx_tim.o
 .data          0x0000000000000000        0x0 build/obj/stm32f4xx_tim.o
 .bss           0x0000000000000000        0x0 build/obj/stm32f4xx_tim.o
 .text.TIM_TimeBaseStructInit
                0x0000000000000000       0x20 build/obj/stm32f4xx_tim.o
 .text.TIM_PrescalerConfig
                0x0000000000000000       0x10 build/obj/stm32f4xx_tim.o
 .text.TIM_CounterModeConfig
                0x0000000000000000       0x10 build/obj/stm32f4xx_tim.o
 .text.TIM_SetCounter
                0x0000000000000000       0x10 build/obj/stm32f4xx_tim.o
 .text.TIM_GetCounter
                0x0000000000000000       0x10 build/obj/stm32f4xx_tim.o
 .text.TIM_GetPrescaler
                0x0000000000000000       0x10 build/obj/stm32f4xx_tim.o
 .text.TIM_UpdateDisableConfig
                0x0000000000000000       0x20 build/obj/stm32f4xx_tim.o
 .text.TIM_UpdateRequestConfig
                0x0000000000000000       0x20 build/obj/stm32f4xx_tim.o
 .text.TIM_SelectOnePulseMode
                0x0000000000000000       0x20 build/obj/stm32f4xx_tim.o
 .text.TIM_SetClockDivision
                0x0000000000000000       0x20 build/obj/stm32f4xx_tim.o
 .text.TIM_OCStructInit
                0x0000000000000000       0x20 build/obj/stm32f4xx_tim.o
 .text.TIM_SetCompare1
                0x0000000000000000       0x10 build/obj/stm32f4xx_tim.o
 .text.TIM_SetCompare2
                0x0000000000000000       0x10 build/obj/stm32f4xx_tim.o
 .text.TIM_SetCompare3
                0x0000000000000000       0x10 build/obj/stm32f4xx_tim.o
 .text.TIM_SetCompare4
                0x0000000000000000       0x10 build/obj/stm32f4xx_tim.o
 .text.TIM_ForcedOC1Config
                0x0000000000000000       0x10 build/obj/stm32f4xx_tim.o
 .text.TIM_ForcedOC2Config
                0x0000000000000000       0x20 build/obj/stm32f4xx_tim.o
 .text.TIM_ForcedOC3Config
                0x0000000000000000       0x10 build/obj/stm32f4xx_tim.o
 .text.TIM_ForcedOC4Config
                0x0000000000000000       0x20 build/obj/stm32f4xx_tim.o
 .text.TIM_OC1FastConfig
                0x0000000000000000       0x10 build/obj/stm32f4xx_tim.o
 .text.TIM_OC2FastConfig
                0x0000000000000000       0x20 build/obj/stm32f4xx_tim.o
 .text.TIM_OC3FastConfig
                0x0000000000000000       0x10 build/obj/stm32f4xx_tim.o
 .text.TIM_OC4FastConfig
                0x0000000000000000       0x20 build/obj/stm32f4xx_tim.o
 .text.TIM_ClearOC1Ref
                0x0000000000000000       0x10 build/obj/stm32f4xx_tim.o
 .text.TIM_ClearOC2Ref
                0x0000000000000000       0x10 build/obj/stm32f4xx_tim.o
 .text.TIM_ClearOC3Ref
                0x0000000000000000       0x10 build/obj/stm32f4xx_tim.o
 .text.TIM_ClearOC4Ref
                0x0000000000000000       0x10 build/obj/stm32f4xx_tim.o
 .text.TIM_OC1PolarityConfig
                0x0000000000000000       0x10 build/obj/stm32f4xx_tim.o
 .text.TIM_OC1NPolarityConfig
                0x0000000000000000       0x10 build/obj/stm32f4xx_tim.o
 .text.TIM_OC2PolarityConfig
                0x0000000000000000       0x20 build/obj/stm32f4xx_tim.o
 .text.TIM_OC2NPolarityConfig
                0x0000000000000000       0x20 build/obj/stm32f4xx_tim.o
 .text.TIM_OC3PolarityConfig
                0x0000000000000000       0x20 build/obj/stm32f4xx_tim.o
 .text.TIM_OC3NPolarityConfig
                0x0000000000000000       0x20 build/obj/stm32f4xx_tim.o
 .text.TIM_OC4PolarityConfig
                0x0000000000000000       0x20 build/obj/stm32f4xx_tim.o
 .text.TIM_ICInit
                0x0000000000000000      0x150 build/obj/stm32f4xx_tim.o
 .text.TIM_ICStructInit
                0x0000000000000000       0x10 build/obj/stm32f4xx_tim.o
 .text.TIM_PWMIConfig
                0x0000000000000000      0x150 build/obj/stm32f4xx_tim.o
 .text.TIM_GetCapture1
                0x0000000000000000       0x10 build/obj/stm32f4xx_tim.o
 .text.TIM_GetCapture2
                0x0000000000000000       0x10 build/obj/stm32f4xx_tim.o
 .text.TIM_GetCapture3
                0x0000000000000000       0x10 build/obj/stm32f4xx_tim.o
 .text.TIM_GetCapture4
                0x0000000000000000       0x10 build/obj/stm32f4xx_tim.o
 .text.TIM_SetIC1Prescaler
                0x0000000000000000       0x20 build/obj/stm32f4xx_tim.o
 .text.TIM_SetIC2Prescaler
                0x0000000000000000       0x20 build/obj/stm32f4xx_tim.o
 .text.TIM_SetIC3Prescaler
                0x0000000000000000       0x20 build/obj/stm32f4xx_tim.o
 .text.TIM_SetIC4Prescaler
                0x0000000000000000       0x20 build/obj/stm32f4xx_tim.o
 .text.TIM_BDTRStructInit
                0x0000000000000000       0x20 build/obj/stm32f4xx_tim.o
 .text.TIM_SelectCOM
                0x0000000000000000       0x20 build/obj/stm32f4xx_tim.o
 .text.TIM_GetFlagStatus
                0x0000000000000000       0x10 build/obj/stm32f4xx_tim.o
 .text.TIM_ClearFlag
                0x0000000000000000       0x10 build/obj/stm32f4xx_tim.o
 .text.TIM_DMAConfig
                0x0000000000000000       0x10 build/obj/stm32f4xx_tim.o
 .text.TIM_DMACmd
                0x0000000000000000       0x20 build/obj/stm32f4xx_tim.o
 .text.TIM_SelectCCDMA
                0x0000000000000000       0x20 build/obj/stm32f4xx_tim.o
 .text.TIM_InternalClockConfig
                0x0000000000000000       0x10 build/obj/stm32f4xx_tim.o
 .text.TIM_ITRxExternalClockConfig
                0x0000000000000000       0x20 build/obj/stm32f4xx_tim.o
 .text.TIM_TIxExternalClockConfig
                0x0000000000000000       0x80 build/obj/stm32f4xx_tim.o
 .text.TIM_ETRClockMode1Config
                0x0000000000000000       0x30 build/obj/stm32f4xx_tim.o
 .text.TIM_ETRClockMode2Config
                0x0000000000000000       0x20 build/obj/stm32f4xx_tim.o
 .text.TIM_ETRConfig
                0x0000000000000000       0x20 build/obj/stm32f4xx_tim.o
 .text.TIM_SelectHallSensor
                0x0000000000000000       0x20 build/obj/stm32f4xx_tim.o
 .text.TIM_RemapConfig
                0x0000000000000000       0x10 build/obj/stm32f4xx_tim.o
 .text          0x0000000000000000        0x0 build/obj/stm32f4xx_wwdg.o
 .data          0x0000000000000000        0x0 build/obj/stm32f4xx_wwdg.o
 .bss           0x0000000000000000        0x0 build/obj/stm32f4xx_wwdg.o
 .text.WWDG_EnableIT
                0x0000000000000000       0x10 build/obj/stm32f4xx_wwdg.o
 .text.WWDG_GetFlagStatus
                0x0000000000000000       0x10 build/obj/stm32f4xx_wwdg.o
 .text.WWDG_ClearFlag
                0x0000000000000000       0x10 build/obj/stm32f4xx_wwdg.o
 .text          0x0000000000000000        0x0 /usr/lib/gcc/arm-none-eabi/4.8/../../../arm-none-eabi/lib/armv7e-m/fpu/libm.a(lib_a-sf_cos.o)
 .data          0x0000000000000000        0x0 /usr/lib/gcc/arm-none-eabi/4.8/../../../arm-none-eabi/lib/armv7e-m/fpu/libm.a(lib_a-sf_cos.o)
 .bss           0x0000000000000000        0x0 /usr/lib/gcc/arm-none-eabi/4.8/../../../arm-none-eabi/lib/armv7e-m/fpu/libm.a(lib_a-sf_cos.o)
 .text          0x0000000000000000        0x0 /usr/lib/gcc/arm-none-eabi/4.8/../../../arm-none-eabi/lib/armv7e-m/fpu/libm.a(lib_a-sf_floor.o)
 .data          0x0000000000000000        0x0 /usr/lib/gcc/arm-none-eabi/4.8/../../../arm-none-eabi/lib/armv7e-m/fpu/libm.a(lib_a-sf_floor.o)
 .bss           0x0000000000000000        0x0 /usr/lib/gcc/arm-none-eabi/4.8/../../../arm-none-eabi/lib/armv7e-m/fpu/libm.a(lib_a-sf_floor.o)
 .text          0x0000000000000000        0x0 /usr/lib/gcc/arm-none-eabi/4.8/../../../arm-none-eabi/lib/armv7e-m/fpu/libm.a(lib_a-sf_frexp.o)
 .data          0x0000000000000000        0x0 /usr/lib/gcc/arm-none-eabi/4.8/../../../arm-none-eabi/lib/armv7e-m/fpu/libm.a(lib_a-sf_frexp.o)
 .bss           0x0000000000000000        0x0 /usr/lib/gcc/arm-none-eabi/4.8/../../../arm-none-eabi/lib/armv7e-m/fpu/libm.a(lib_a-sf_frexp.o)
 .text          0x0000000000000000        0x0 /usr/lib/gcc/arm-none-eabi/4.8/../../../arm-none-eabi/lib/armv7e-m/fpu/libm.a(lib_a-sf_ldexp.o)
 .data          0x0000000000000000        0x0 /usr/lib/gcc/arm-none-eabi/4.8/../../../arm-none-eabi/lib/armv7e-m/fpu/libm.a(lib_a-sf_ldexp.o)
 .bss           0x0000000000000000        0x0 /usr/lib/gcc/arm-none-eabi/4.8/../../../arm-none-eabi/lib/armv7e-m/fpu/libm.a(lib_a-sf_ldexp.o)
 .text          0x0000000000000000        0x0 /usr/lib/gcc/arm-none-eabi/4.8/../../../arm-none-eabi/lib/armv7e-m/fpu/libm.a(lib_a-sf_round.o)
 .data          0x0000000000000000        0x0 /usr/lib/gcc/arm-none-eabi/4.8/../../../arm-none-eabi/lib/armv7e-m/fpu/libm.a(lib_a-sf_round.o)
 .bss           0x0000000000000000        0x0 /usr/lib/gcc/arm-none-eabi/4.8/../../../arm-none-eabi/lib/armv7e-m/fpu/libm.a(lib_a-sf_round.o)
 .text          0x0000000000000000        0x0 /usr/lib/gcc/arm-none-eabi/4.8/../../../arm-none-eabi/lib/armv7e-m/fpu/libm.a(lib_a-sf_scalbn.o)
 .data          0x0000000000000000        0x0 /usr/lib/gcc/arm-none-eabi/4.8/../../../arm-none-eabi/lib/armv7e-m/fpu/libm.a(lib_a-sf_scalbn.o)
 .bss           0x0000000000000000        0x0 /usr/lib/gcc/arm-none-eabi/4.8/../../../arm-none-eabi/lib/armv7e-m/fpu/libm.a(lib_a-sf_scalbn.o)
 .text          0x0000000000000000        0x0 /usr/lib/gcc/arm-none-eabi/4.8/../../../arm-none-eabi/lib/armv7e-m/fpu/libm.a(lib_a-sf_sin.o)
 .data          0x0000000000000000        0x0 /usr/lib/gcc/arm-none-eabi/4.8/../../../arm-none-eabi/lib/armv7e-m/fpu/libm.a(lib_a-sf_sin.o)
 .bss           0x0000000000000000        0x0 /usr/lib/gcc/arm-none-eabi/4.8/../../../arm-none-eabi/lib/armv7e-m/fpu/libm.a(lib_a-sf_sin.o)
 .text          0x0000000000000000        0x0 /usr/lib/gcc/arm-none-eabi/4.8/../../../arm-none-eabi/lib/armv7e-m/fpu/libm.a(lib_a-wf_asin.o)
 .data          0x0000000000000000        0x0 /usr/lib/gcc/arm-none-eabi/4.8/../../../arm-none-eabi/lib/armv7e-m/fpu/libm.a(lib_a-wf_asin.o)
 .bss           0x0000000000000000        0x0 /usr/lib/gcc/arm-none-eabi/4.8/../../../arm-none-eabi/lib/armv7e-m/fpu/libm.a(lib_a-wf_asin.o)
 .text          0x0000000000000000        0x0 /usr/lib/gcc/arm-none-eabi/4.8/../../../arm-none-eabi/lib/armv7e-m/fpu/libm.a(lib_a-wf_atan2.o)
 .data          0x0000000000000000        0x0 /usr/lib/gcc/arm-none-eabi/4.8/../../../arm-none-eabi/lib/armv7e-m/fpu/libm.a(lib_a-wf_atan2.o)
 .bss           0x0000000000000000        0x0 /usr/lib/gcc/arm-none-eabi/4.8/../../../arm-none-eabi/lib/armv7e-m/fpu/libm.a(lib_a-wf_atan2.o)
 .text          0x0000000000000000        0x0 /usr/lib/gcc/arm-none-eabi/4.8/../../../arm-none-eabi/lib/armv7e-m/fpu/libm.a(lib_a-wf_exp.o)
 .data          0x0000000000000000        0x0 /usr/lib/gcc/arm-none-eabi/4.8/../../../arm-none-eabi/lib/armv7e-m/fpu/libm.a(lib_a-wf_exp.o)
 .bss           0x0000000000000000        0x0 /usr/lib/gcc/arm-none-eabi/4.8/../../../arm-none-eabi/lib/armv7e-m/fpu/libm.a(lib_a-wf_exp.o)
 .text          0x0000000000000000        0x0 /usr/lib/gcc/arm-none-eabi/4.8/../../../arm-none-eabi/lib/armv7e-m/fpu/libm.a(lib_a-wf_fmod.o)
 .data          0x0000000000000000        0x0 /usr/lib/gcc/arm-none-eabi/4.8/../../../arm-none-eabi/lib/armv7e-m/fpu/libm.a(lib_a-wf_fmod.o)
 .bss           0x0000000000000000        0x0 /usr/lib/gcc/arm-none-eabi/4.8/../../../arm-none-eabi/lib/armv7e-m/fpu/libm.a(lib_a-wf_fmod.o)
 .text          0x0000000000000000        0x0 /usr/lib/gcc/arm-none-eabi/4.8/../../../arm-none-eabi/lib/armv7e-m/fpu/libm.a(lib_a-wf_log.o)
 .data          0x0000000000000000        0x0 /usr/lib/gcc/arm-none-eabi/4.8/../../../arm-none-eabi/lib/armv7e-m/fpu/libm.a(lib_a-wf_log.o)
 .bss           0x0000000000000000        0x0 /usr/lib/gcc/arm-none-eabi/4.8/../../../arm-none-eabi/lib/armv7e-m/fpu/libm.a(lib_a-wf_log.o)
 .text          0x0000000000000000        0x0 /usr/lib/gcc/arm-none-eabi/4.8/../../../arm-none-eabi/lib/armv7e-m/fpu/libm.a(lib_a-wf_pow.o)
 .data          0x0000000000000000        0x0 /usr/lib/gcc/arm-none-eabi/4.8/../../../arm-none-eabi/lib/armv7e-m/fpu/libm.a(lib_a-wf_pow.o)
 .bss           0x0000000000000000        0x0 /usr/lib/gcc/arm-none-eabi/4.8/../../../arm-none-eabi/lib/armv7e-m/fpu/libm.a(lib_a-wf_pow.o)
 .text          0x0000000000000000        0x0 /usr/lib/gcc/arm-none-eabi/4.8/../../../arm-none-eabi/lib/armv7e-m/fpu/libm.a(lib_a-wf_sincos.o)
 .data          0x0000000000000000        0x0 /usr/lib/gcc/arm-none-eabi/4.8/../../../arm-none-eabi/lib/armv7e-m/fpu/libm.a(lib_a-wf_sincos.o)
 .bss           0x0000000000000000        0x0 /usr/lib/gcc/arm-none-eabi/4.8/../../../arm-none-eabi/lib/armv7e-m/fpu/libm.a(lib_a-wf_sincos.o)
 .text          0x0000000000000000        0x0 /usr/lib/gcc/arm-none-eabi/4.8/../../../arm-none-eabi/lib/armv7e-m/fpu/libm.a(lib_a-wf_sqrt.o)
 .data          0x0000000000000000        0x0 /usr/lib/gcc/arm-none-eabi/4.8/../../../arm-none-eabi/lib/armv7e-m/fpu/libm.a(lib_a-wf_sqrt.o)
 .bss           0x0000000000000000        0x0 /usr/lib/gcc/arm-none-eabi/4.8/../../../arm-none-eabi/lib/armv7e-m/fpu/libm.a(lib_a-wf_sqrt.o)
 .text          0x0000000000000000        0x0 /usr/lib/gcc/arm-none-eabi/4.8/../../../arm-none-eabi/lib/armv7e-m/fpu/libm.a(lib_a-w_sqrt.o)
 .data          0x0000000000000000        0x0 /usr/lib/gcc/arm-none-eabi/4.8/../../../arm-none-eabi/lib/armv7e-m/fpu/libm.a(lib_a-w_sqrt.o)
 .bss           0x0000000000000000        0x0 /usr/lib/gcc/arm-none-eabi/4.8/../../../arm-none-eabi/lib/armv7e-m/fpu/libm.a(lib_a-w_sqrt.o)
 .text          0x0000000000000000        0x0 /usr/lib/gcc/arm-none-eabi/4.8/../../../arm-none-eabi/lib/armv7e-m/fpu/libm.a(lib_a-ef_asin.o)
 .data          0x0000000000000000        0x0 /usr/lib/gcc/arm-none-eabi/4.8/../../../arm-none-eabi/lib/armv7e-m/fpu/libm.a(lib_a-ef_asin.o)
 .bss           0x0000000000000000        0x0 /usr/lib/gcc/arm-none-eabi/4.8/../../../arm-none-eabi/lib/armv7e-m/fpu/libm.a(lib_a-ef_asin.o)
 .text          0x0000000000000000        0x0 /usr/lib/gcc/arm-none-eabi/4.8/../../../arm-none-eabi/lib/armv7e-m/fpu/libm.a(lib_a-ef_atan2.o)
 .data          0x0000000000000000        0x0 /usr/lib/gcc/arm-none-eabi/4.8/../../../arm-none-eabi/lib/armv7e-m/fpu/libm.a(lib_a-ef_atan2.o)
 .bss           0x0000000000000000        0x0 /usr/lib/gcc/arm-none-eabi/4.8/../../../arm-none-eabi/lib/armv7e-m/fpu/libm.a(lib_a-ef_atan2.o)
 .text          0x0000000000000000        0x0 /usr/lib/gcc/arm-none-eabi/4.8/../../../arm-none-eabi/lib/armv7e-m/fpu/libm.a(lib_a-ef_exp.o)
 .data          0x0000000000000000        0x0 /usr/lib/gcc/arm-none-eabi/4.8/../../../arm-none-eabi/lib/armv7e-m/fpu/libm.a(lib_a-ef_exp.o)
 .bss           0x0000000000000000        0x0 /usr/lib/gcc/arm-none-eabi/4.8/../../../arm-none-eabi/lib/armv7e-m/fpu/libm.a(lib_a-ef_exp.o)
 .text          0x0000000000000000        0x0 /usr/lib/gcc/arm-none-eabi/4.8/../../../arm-none-eabi/lib/armv7e-m/fpu/libm.a(lib_a-ef_fmod.o)
 .data          0x0000000000000000        0x0 /usr/lib/gcc/arm-none-eabi/4.8/../../../arm-none-eabi/lib/armv7e-m/fpu/libm.a(lib_a-ef_fmod.o)
 .bss           0x0000000000000000        0x0 /usr/lib/gcc/arm-none-eabi/4.8/../../../arm-none-eabi/lib/armv7e-m/fpu/libm.a(lib_a-ef_fmod.o)
 .text          0x0000000000000000        0x0 /usr/lib/gcc/arm-none-eabi/4.8/../../../arm-none-eabi/lib/armv7e-m/fpu/libm.a(lib_a-ef_log.o)
 .data          0x0000000000000000        0x0 /usr/lib/gcc/arm-none-eabi/4.8/../../../arm-none-eabi/lib/armv7e-m/fpu/libm.a(lib_a-ef_log.o)
 .bss           0x0000000000000000        0x0 /usr/lib/gcc/arm-none-eabi/4.8/../../../arm-none-eabi/lib/armv7e-m/fpu/libm.a(lib_a-ef_log.o)
 .text          0x0000000000000000        0x0 /usr/lib/gcc/arm-none-eabi/4.8/../../../arm-none-eabi/lib/armv7e-m/fpu/libm.a(lib_a-ef_pow.o)
 .data          0x0000000000000000        0x0 /usr/lib/gcc/arm-none-eabi/4.8/../../../arm-none-eabi/lib/armv7e-m/fpu/libm.a(lib_a-ef_pow.o)
 .bss           0x0000000000000000        0x0 /usr/lib/gcc/arm-none-eabi/4.8/../../../arm-none-eabi/lib/armv7e-m/fpu/libm.a(lib_a-ef_pow.o)
 .text          0x0000000000000000        0x0 /usr/lib/gcc/arm-none-eabi/4.8/../../../arm-none-eabi/lib/armv7e-m/fpu/libm.a(lib_a-ef_rem_pio2.o)
 .data          0x0000000000000000        0x0 /usr/lib/gcc/arm-none-eabi/4.8/../../../arm-none-eabi/lib/armv7e-m/fpu/libm.a(lib_a-ef_rem_pio2.o)
 .bss           0x0000000000000000        0x0 /usr/lib/gcc/arm-none-eabi/4.8/../../../arm-none-eabi/lib/armv7e-m/fpu/libm.a(lib_a-ef_rem_pio2.o)
 .text          0x0000000000000000        0x0 /usr/lib/gcc/arm-none-eabi/4.8/../../../arm-none-eabi/lib/armv7e-m/fpu/libm.a(lib_a-ef_sqrt.o)
 .data          0x0000000000000000        0x0 /usr/lib/gcc/arm-none-eabi/4.8/../../../arm-none-eabi/lib/armv7e-m/fpu/libm.a(lib_a-ef_sqrt.o)
 .bss           0x0000000000000000        0x0 /usr/lib/gcc/arm-none-eabi/4.8/../../../arm-none-eabi/lib/armv7e-m/fpu/libm.a(lib_a-ef_sqrt.o)
 .text          0x0000000000000000        0x0 /usr/lib/gcc/arm-none-eabi/4.8/../../../arm-none-eabi/lib/armv7e-m/fpu/libm.a(lib_a-e_sqrt.o)
 .data          0x0000000000000000        0x0 /usr/lib/gcc/arm-none-eabi/4.8/../../../arm-none-eabi/lib/armv7e-m/fpu/libm.a(lib_a-e_sqrt.o)
 .bss           0x0000000000000000        0x0 /usr/lib/gcc/arm-none-eabi/4.8/../../../arm-none-eabi/lib/armv7e-m/fpu/libm.a(lib_a-e_sqrt.o)
 .text          0x0000000000000000        0x0 /usr/lib/gcc/arm-none-eabi/4.8/../../../arm-none-eabi/lib/armv7e-m/fpu/libm.a(lib_a-kf_cos.o)
 .data          0x0000000000000000        0x0 /usr/lib/gcc/arm-none-eabi/4.8/../../../arm-none-eabi/lib/armv7e-m/fpu/libm.a(lib_a-kf_cos.o)
 .bss           0x0000000000000000        0x0 /usr/lib/gcc/arm-none-eabi/4.8/../../../arm-none-eabi/lib/armv7e-m/fpu/libm.a(lib_a-kf_cos.o)
 .text          0x0000000000000000        0x0 /usr/lib/gcc/arm-none-eabi/4.8/../../../arm-none-eabi/lib/armv7e-m/fpu/libm.a(lib_a-kf_rem_pio2.o)
 .data          0x0000000000000000        0x0 /usr/lib/gcc/arm-none-eabi/4.8/../../../arm-none-eabi/lib/armv7e-m/fpu/libm.a(lib_a-kf_rem_pio2.o)
 .bss           0x0000000000000000        0x0 /usr/lib/gcc/arm-none-eabi/4.8/../../../arm-none-eabi/lib/armv7e-m/fpu/libm.a(lib_a-kf_rem_pio2.o)
 .text          0x0000000000000000        0x0 /usr/lib/gcc/arm-none-eabi/4.8/../../../arm-none-eabi/lib/armv7e-m/fpu/libm.a(lib_a-kf_sin.o)
 .data          0x0000000000000000        0x0 /usr/lib/gcc/arm-none-eabi/4.8/../../../arm-none-eabi/lib/armv7e-m/fpu/libm.a(lib_a-kf_sin.o)
 .bss           0x0000000000000000        0x0 /usr/lib/gcc/arm-none-eabi/4.8/../../../arm-none-eabi/lib/armv7e-m/fpu/libm.a(lib_a-kf_sin.o)
 .text          0x0000000000000000        0x0 /usr/lib/gcc/arm-none-eabi/4.8/../../../arm-none-eabi/lib/armv7e-m/fpu/libm.a(lib_a-sf_atan.o)
 .data          0x0000000000000000        0x0 /usr/lib/gcc/arm-none-eabi/4.8/../../../arm-none-eabi/lib/armv7e-m/fpu/libm.a(lib_a-sf_atan.o)
 .bss           0x0000000000000000        0x0 /usr/lib/gcc/arm-none-eabi/4.8/../../../arm-none-eabi/lib/armv7e-m/fpu/libm.a(lib_a-sf_atan.o)
 .text          0x0000000000000000        0x0 /usr/lib/gcc/arm-none-eabi/4.8/../../../arm-none-eabi/lib/armv7e-m/fpu/libm.a(lib_a-sf_copysign.o)
 .data          0x0000000000000000        0x0 /usr/lib/gcc/arm-none-eabi/4.8/../../../arm-none-eabi/lib/armv7e-m/fpu/libm.a(lib_a-sf_copysign.o)
 .bss           0x0000000000000000        0x0 /usr/lib/gcc/arm-none-eabi/4.8/../../../arm-none-eabi/lib/armv7e-m/fpu/libm.a(lib_a-sf_copysign.o)
 .text          0x0000000000000000        0x0 /usr/lib/gcc/arm-none-eabi/4.8/../../../arm-none-eabi/lib/armv7e-m/fpu/libm.a(lib_a-sf_fabs.o)
 .data          0x0000000000000000        0x0 /usr/lib/gcc/arm-none-eabi/4.8/../../../arm-none-eabi/lib/armv7e-m/fpu/libm.a(lib_a-sf_fabs.o)
 .bss           0x0000000000000000        0x0 /usr/lib/gcc/arm-none-eabi/4.8/../../../arm-none-eabi/lib/armv7e-m/fpu/libm.a(lib_a-sf_fabs.o)
 .text          0x0000000000000000        0x0 /usr/lib/gcc/arm-none-eabi/4.8/../../../arm-none-eabi/lib/armv7e-m/fpu/libm.a(lib_a-sf_finite.o)
 .data          0x0000000000000000        0x0 /usr/lib/gcc/arm-none-eabi/4.8/../../../arm-none-eabi/lib/armv7e-m/fpu/libm.a(lib_a-sf_finite.o)
 .bss           0x0000000000000000        0x0 /usr/lib/gcc/arm-none-eabi/4.8/../../../arm-none-eabi/lib/armv7e-m/fpu/libm.a(lib_a-sf_finite.o)
 .text          0x0000000000000000        0x0 /usr/lib/gcc/arm-none-eabi/4.8/../../../arm-none-eabi/lib/armv7e-m/fpu/libm.a(lib_a-sf_fpclassify.o)
 .data          0x0000000000000000        0x0 /usr/lib/gcc/arm-none-eabi/4.8/../../../arm-none-eabi/lib/armv7e-m/fpu/libm.a(lib_a-sf_fpclassify.o)
 .bss           0x0000000000000000        0x0 /usr/lib/gcc/arm-none-eabi/4.8/../../../arm-none-eabi/lib/armv7e-m/fpu/libm.a(lib_a-sf_fpclassify.o)
 .text          0x0000000000000000        0x0 /usr/lib/gcc/arm-none-eabi/4.8/../../../arm-none-eabi/lib/armv7e-m/fpu/libm.a(lib_a-sf_nan.o)
 .data          0x0000000000000000        0x0 /usr/lib/gcc/arm-none-eabi/4.8/../../../arm-none-eabi/lib/armv7e-m/fpu/libm.a(lib_a-sf_nan.o)
 .bss           0x0000000000000000        0x0 /usr/lib/gcc/arm-none-eabi/4.8/../../../arm-none-eabi/lib/armv7e-m/fpu/libm.a(lib_a-sf_nan.o)
 .text          0x0000000000000000        0x0 /usr/lib/gcc/arm-none-eabi/4.8/../../../arm-none-eabi/lib/armv7e-m/fpu/libm.a(lib_a-s_fpclassify.o)
 .data          0x0000000000000000        0x0 /usr/lib/gcc/arm-none-eabi/4.8/../../../arm-none-eabi/lib/armv7e-m/fpu/libm.a(lib_a-s_fpclassify.o)
 .bss           0x0000000000000000        0x0 /usr/lib/gcc/arm-none-eabi/4.8/../../../arm-none-eabi/lib/armv7e-m/fpu/libm.a(lib_a-s_fpclassify.o)
 .text          0x0000000000000000        0x0 /usr/lib/gcc/arm-none-eabi/4.8/../../../arm-none-eabi/lib/armv7e-m/fpu/libm.a(lib_a-s_lib_ver.o)
 .data          0x0000000000000000        0x0 /usr/lib/gcc/arm-none-eabi/4.8/../../../arm-none-eabi/lib/armv7e-m/fpu/libm.a(lib_a-s_lib_ver.o)
 .bss           0x0000000000000000        0x0 /usr/lib/gcc/arm-none-eabi/4.8/../../../arm-none-eabi/lib/armv7e-m/fpu/libm.a(lib_a-s_lib_ver.o)
 .text          0x0000000000000000        0x0 /usr/lib/gcc/arm-none-eabi/4.8/../../../arm-none-eabi/lib/armv7e-m/fpu/libm.a(lib_a-s_matherr.o)
 .data          0x0000000000000000        0x0 /usr/lib/gcc/arm-none-eabi/4.8/../../../arm-none-eabi/lib/armv7e-m/fpu/libm.a(lib_a-s_matherr.o)
 .bss           0x0000000000000000        0x0 /usr/lib/gcc/arm-none-eabi/4.8/../../../arm-none-eabi/lib/armv7e-m/fpu/libm.a(lib_a-s_matherr.o)
 .text          0x0000000000000000        0x0 /usr/lib/gcc/arm-none-eabi/4.8/../../../arm-none-eabi/lib/armv7e-m/fpu/libm.a(lib_a-s_nan.o)
 .data          0x0000000000000000        0x0 /usr/lib/gcc/arm-none-eabi/4.8/../../../arm-none-eabi/lib/armv7e-m/fpu/libm.a(lib_a-s_nan.o)
 .bss           0x0000000000000000        0x0 /usr/lib/gcc/arm-none-eabi/4.8/../../../arm-none-eabi/lib/armv7e-m/fpu/libm.a(lib_a-s_nan.o)
 .text          0x0000000000000000        0x0 /usr/lib/gcc/arm-none-eabi/4.8/../../../arm-none-eabi/lib/armv7e-m/fpu/libm.a(lib_a-s_rint.o)
 .data          0x0000000000000000        0x0 /usr/lib/gcc/arm-none-eabi/4.8/../../../arm-none-eabi/lib/armv7e-m/fpu/libm.a(lib_a-s_rint.o)
 .bss           0x0000000000000000        0x0 /usr/lib/gcc/arm-none-eabi/4.8/../../../arm-none-eabi/lib/armv7e-m/fpu/libm.a(lib_a-s_rint.o)
 .data          0x0000000000000000        0x0 /usr/lib/gcc/arm-none-eabi/4.8/armv7e-m/fpu/libgcc.a(_arm_addsubdf3.o)
 .bss           0x0000000000000000        0x0 /usr/lib/gcc/arm-none-eabi/4.8/armv7e-m/fpu/libgcc.a(_arm_addsubdf3.o)
 .data          0x0000000000000000        0x0 /usr/lib/gcc/arm-none-eabi/4.8/armv7e-m/fpu/libgcc.a(_arm_muldivdf3.o)
 .bss           0x0000000000000000        0x0 /usr/lib/gcc/arm-none-eabi/4.8/armv7e-m/fpu/libgcc.a(_arm_muldivdf3.o)
 .data          0x0000000000000000        0x0 /usr/lib/gcc/arm-none-eabi/4.8/armv7e-m/fpu/libgcc.a(_arm_cmpdf2.o)
 .bss           0x0000000000000000        0x0 /usr/lib/gcc/arm-none-eabi/4.8/armv7e-m/fpu/libgcc.a(_arm_cmpdf2.o)
 .data          0x0000000000000000        0x0 /usr/lib/gcc/arm-none-eabi/4.8/armv7e-m/fpu/libgcc.a(_arm_fixdfsi.o)
 .bss           0x0000000000000000        0x0 /usr/lib/gcc/arm-none-eabi/4.8/armv7e-m/fpu/libgcc.a(_arm_fixdfsi.o)
 .data          0x0000000000000000        0x0 /usr/lib/gcc/arm-none-eabi/4.8/armv7e-m/fpu/libgcc.a(_arm_truncdfsf2.o)
 .bss           0x0000000000000000        0x0 /usr/lib/gcc/arm-none-eabi/4.8/armv7e-m/fpu/libgcc.a(_arm_truncdfsf2.o)
 .text          0x0000000000000000        0x0 /usr/lib/gcc/arm-none-eabi/4.8/../../../arm-none-eabi/lib/armv7e-m/fpu/libg.a(lib_a-errno.o)
 .data          0x0000000000000000        0x0 /usr/lib/gcc/arm-none-eabi/4.8/../../../arm-none-eabi/lib/armv7e-m/fpu/libg.a(lib_a-errno.o)
 .bss           0x0000000000000000        0x0 /usr/lib/gcc/arm-none-eabi/4.8/../../../arm-none-eabi/lib/armv7e-m/fpu/libg.a(lib_a-errno.o)
 .text          0x0000000000000000        0x0 /usr/lib/gcc/arm-none-eabi/4.8/../../../arm-none-eabi/lib/armv7e-m/fpu/libg.a(lib_a-impure.o)
 .data          0x0000000000000000        0x0 /usr/lib/gcc/arm-none-eabi/4.8/../../../arm-none-eabi/lib/armv7e-m/fpu/libg.a(lib_a-impure.o)
 .bss           0x0000000000000000        0x0 /usr/lib/gcc/arm-none-eabi/4.8/../../../arm-none-eabi/lib/armv7e-m/fpu/libg.a(lib_a-impure.o)
 .rodata._global_impure_ptr
                0x0000000000000000        0x4 /usr/lib/gcc/arm-none-eabi/4.8/../../../arm-none-eabi/lib/armv7e-m/fpu/libg.a(lib_a-impure.o)
 .text          0x0000000000000000        0x0 /usr/lib/gcc/arm-none-eabi/4.8/../../../arm-none-eabi/lib/armv7e-m/fpu/libg.a(lib_a-memcmp.o)
 .data          0x0000000000000000        0x0 /usr/lib/gcc/arm-none-eabi/4.8/../../../arm-none-eabi/lib/armv7e-m/fpu/libg.a(lib_a-memcmp.o)
 .bss           0x0000000000000000        0x0 /usr/lib/gcc/arm-none-eabi/4.8/../../../arm-none-eabi/lib/armv7e-m/fpu/libg.a(lib_a-memcmp.o)
 .data          0x0000000000000000        0x0 /usr/lib/gcc/arm-none-eabi/4.8/../../../arm-none-eabi/lib/armv7e-m/fpu/libg.a(lib_a-memcpy.o)
 .bss           0x0000000000000000        0x0 /usr/lib/gcc/arm-none-eabi/4.8/../../../arm-none-eabi/lib/armv7e-m/fpu/libg.a(lib_a-memcpy.o)
 .text          0x0000000000000000        0x0 /usr/lib/gcc/arm-none-eabi/4.8/../../../arm-none-eabi/lib/armv7e-m/fpu/libg.a(lib_a-memset.o)
 .data          0x0000000000000000        0x0 /usr/lib/gcc/arm-none-eabi/4.8/../../../arm-none-eabi/lib/armv7e-m/fpu/libg.a(lib_a-memset.o)
 .bss           0x0000000000000000        0x0 /usr/lib/gcc/arm-none-eabi/4.8/../../../arm-none-eabi/lib/armv7e-m/fpu/libg.a(lib_a-memset.o)
 .text          0x0000000000000000        0x0 /usr/lib/gcc/arm-none-eabi/4.8/../../../arm-none-eabi/lib/armv7e-m/fpu/libg.a(lib_a-sscanf.o)
 .data          0x0000000000000000        0x0 /usr/lib/gcc/arm-none-eabi/4.8/../../../arm-none-eabi/lib/armv7e-m/fpu/libg.a(lib_a-sscanf.o)
 .bss           0x0000000000000000        0x0 /usr/lib/gcc/arm-none-eabi/4.8/../../../arm-none-eabi/lib/armv7e-m/fpu/libg.a(lib_a-sscanf.o)
 .text._sscanf_r
                0x0000000000000000       0x54 /usr/lib/gcc/arm-none-eabi/4.8/../../../arm-none-eabi/lib/armv7e-m/fpu/libg.a(lib_a-sscanf.o)
 .text          0x0000000000000000        0x0 /usr/lib/gcc/arm-none-eabi/4.8/../../../arm-none-eabi/lib/armv7e-m/fpu/libg.a(lib_a-stdio.o)
 .data          0x0000000000000000        0x0 /usr/lib/gcc/arm-none-eabi/4.8/../../../arm-none-eabi/lib/armv7e-m/fpu/libg.a(lib_a-stdio.o)
 .bss           0x0000000000000000        0x0 /usr/lib/gcc/arm-none-eabi/4.8/../../../arm-none-eabi/lib/armv7e-m/fpu/libg.a(lib_a-stdio.o)
 .text.__sread  0x0000000000000000       0x24 /usr/lib/gcc/arm-none-eabi/4.8/../../../arm-none-eabi/lib/armv7e-m/fpu/libg.a(lib_a-stdio.o)
 .text.__swrite
                0x0000000000000000       0x38 /usr/lib/gcc/arm-none-eabi/4.8/../../../arm-none-eabi/lib/armv7e-m/fpu/libg.a(lib_a-stdio.o)
 .text.__sseek  0x0000000000000000       0x20 /usr/lib/gcc/arm-none-eabi/4.8/../../../arm-none-eabi/lib/armv7e-m/fpu/libg.a(lib_a-stdio.o)
 .text.__sclose
                0x0000000000000000        0x8 /usr/lib/gcc/arm-none-eabi/4.8/../../../arm-none-eabi/lib/armv7e-m/fpu/libg.a(lib_a-stdio.o)
 .data          0x0000000000000000        0x0 /usr/lib/gcc/arm-none-eabi/4.8/../../../arm-none-eabi/lib/armv7e-m/fpu/libg.a(lib_a-strcmp.o)
 .bss           0x0000000000000000        0x0 /usr/lib/gcc/arm-none-eabi/4.8/../../../arm-none-eabi/lib/armv7e-m/fpu/libg.a(lib_a-strcmp.o)
 .eh_frame      0x0000000000000000       0x70 /usr/lib/gcc/arm-none-eabi/4.8/../../../arm-none-eabi/lib/armv7e-m/fpu/libg.a(lib_a-strcmp.o)
 .text          0x0000000000000000        0x0 /usr/lib/gcc/arm-none-eabi/4.8/../../../arm-none-eabi/lib/armv7e-m/fpu/libg.a(lib_a-strlen.o)
 .data          0x0000000000000000        0x0 /usr/lib/gcc/arm-none-eabi/4.8/../../../arm-none-eabi/lib/armv7e-m/fpu/libg.a(lib_a-strlen.o)
 .bss           0x0000000000000000        0x0 /usr/lib/gcc/arm-none-eabi/4.8/../../../arm-none-eabi/lib/armv7e-m/fpu/libg.a(lib_a-strlen.o)
 .text          0x0000000000000000        0x0 /usr/lib/gcc/arm-none-eabi/4.8/../../../arm-none-eabi/lib/armv7e-m/fpu/libg.a(lib_a-strtok.o)
 .data          0x0000000000000000        0x0 /usr/lib/gcc/arm-none-eabi/4.8/../../../arm-none-eabi/lib/armv7e-m/fpu/libg.a(lib_a-strtok.o)
 .bss           0x0000000000000000        0x0 /usr/lib/gcc/arm-none-eabi/4.8/../../../arm-none-eabi/lib/armv7e-m/fpu/libg.a(lib_a-strtok.o)
 .text          0x0000000000000000        0x0 /usr/lib/gcc/arm-none-eabi/4.8/../../../arm-none-eabi/lib/armv7e-m/fpu/libg.a(lib_a-strtok_r.o)
 .data          0x0000000000000000        0x0 /usr/lib/gcc/arm-none-eabi/4.8/../../../arm-none-eabi/lib/armv7e-m/fpu/libg.a(lib_a-strtok_r.o)
 .bss           0x0000000000000000        0x0 /usr/lib/gcc/arm-none-eabi/4.8/../../../arm-none-eabi/lib/armv7e-m/fpu/libg.a(lib_a-strtok_r.o)
 .text.strtok_r
                0x0000000000000000        0x8 /usr/lib/gcc/arm-none-eabi/4.8/../../../arm-none-eabi/lib/armv7e-m/fpu/libg.a(lib_a-strtok_r.o)
 .text          0x0000000000000000        0x0 /usr/lib/gcc/arm-none-eabi/4.8/../../../arm-none-eabi/lib/armv7e-m/fpu/libg.a(lib_a-svfscanf.o)
 .data          0x0000000000000000        0x0 /usr/lib/gcc/arm-none-eabi/4.8/../../../arm-none-eabi/lib/armv7e-m/fpu/libg.a(lib_a-svfscanf.o)
 .bss           0x0000000000000000        0x0 /usr/lib/gcc/arm-none-eabi/4.8/../../../arm-none-eabi/lib/armv7e-m/fpu/libg.a(lib_a-svfscanf.o)
 .text          0x0000000000000000        0x0 /usr/lib/gcc/arm-none-eabi/4.8/../../../arm-none-eabi/lib/armv7e-m/fpu/libg.a(lib_a-vsnprintf.o)
 .data          0x0000000000000000        0x0 /usr/lib/gcc/arm-none-eabi/4.8/../../../arm-none-eabi/lib/armv7e-m/fpu/libg.a(lib_a-vsnprintf.o)
 .bss           0x0000000000000000        0x0 /usr/lib/gcc/arm-none-eabi/4.8/../../../arm-none-eabi/lib/armv7e-m/fpu/libg.a(lib_a-vsnprintf.o)
 .text          0x0000000000000000        0x0 /usr/lib/gcc/arm-none-eabi/4.8/../../../arm-none-eabi/lib/armv7e-m/fpu/libg.a(lib_a-ctype_.o)
 .data          0x0000000000000000        0x0 /usr/lib/gcc/arm-none-eabi/4.8/../../../arm-none-eabi/lib/armv7e-m/fpu/libg.a(lib_a-ctype_.o)
 .bss           0x0000000000000000        0x0 /usr/lib/gcc/arm-none-eabi/4.8/../../../arm-none-eabi/lib/armv7e-m/fpu/libg.a(lib_a-ctype_.o)
 .text          0x0000000000000000        0x0 /usr/lib/gcc/arm-none-eabi/4.8/../../../arm-none-eabi/lib/armv7e-m/fpu/libg.a(lib_a-iswspace.o)
 .data          0x0000000000000000        0x0 /usr/lib/gcc/arm-none-eabi/4.8/../../../arm-none-eabi/lib/armv7e-m/fpu/libg.a(lib_a-iswspace.o)
 .bss           0x0000000000000000        0x0 /usr/lib/gcc/arm-none-eabi/4.8/../../../arm-none-eabi/lib/armv7e-m/fpu/libg.a(lib_a-iswspace.o)
 .text          0x0000000000000000        0x0 /usr/lib/gcc/arm-none-eabi/4.8/../../../arm-none-eabi/lib/armv7e-m/fpu/libg.a(lib_a-locale.o)
 .data          0x0000000000000000        0x0 /usr/lib/gcc/arm-none-eabi/4.8/../../../arm-none-eabi/lib/armv7e-m/fpu/libg.a(lib_a-locale.o)
 .bss           0x0000000000000000        0x0 /usr/lib/gcc/arm-none-eabi/4.8/../../../arm-none-eabi/lib/armv7e-m/fpu/libg.a(lib_a-locale.o)
 .text._setlocale_r
                0x0000000000000000       0x40 /usr/lib/gcc/arm-none-eabi/4.8/../../../arm-none-eabi/lib/armv7e-m/fpu/libg.a(lib_a-locale.o)
 .text.__locale_msgcharset
                0x0000000000000000        0x8 /usr/lib/gcc/arm-none-eabi/4.8/../../../arm-none-eabi/lib/armv7e-m/fpu/libg.a(lib_a-locale.o)
 .text.__locale_cjk_lang
                0x0000000000000000        0x4 /usr/lib/gcc/arm-none-eabi/4.8/../../../arm-none-eabi/lib/armv7e-m/fpu/libg.a(lib_a-locale.o)
 .text.setlocale
                0x0000000000000000       0x10 /usr/lib/gcc/arm-none-eabi/4.8/../../../arm-none-eabi/lib/armv7e-m/fpu/libg.a(lib_a-locale.o)
 .text.localeconv
                0x0000000000000000        0x8 /usr/lib/gcc/arm-none-eabi/4.8/../../../arm-none-eabi/lib/armv7e-m/fpu/libg.a(lib_a-locale.o)
 .data.lc_message_charset
                0x0000000000000000       0x20 /usr/lib/gcc/arm-none-eabi/4.8/../../../arm-none-eabi/lib/armv7e-m/fpu/libg.a(lib_a-locale.o)
 .bss._PathLocale
                0x0000000000000000        0x4 /usr/lib/gcc/arm-none-eabi/4.8/../../../arm-none-eabi/lib/armv7e-m/fpu/libg.a(lib_a-locale.o)
 .bss.__nlocale_changed
                0x0000000000000000        0x4 /usr/lib/gcc/arm-none-eabi/4.8/../../../arm-none-eabi/lib/armv7e-m/fpu/libg.a(lib_a-locale.o)
 .bss.__mlocale_changed
                0x0000000000000000        0x4 /usr/lib/gcc/arm-none-eabi/4.8/../../../arm-none-eabi/lib/armv7e-m/fpu/libg.a(lib_a-locale.o)
 .text          0x0000000000000000        0x0 /usr/lib/gcc/arm-none-eabi/4.8/../../../arm-none-eabi/lib/armv7e-m/fpu/libg.a(lib_a-mbrtowc.o)
 .data          0x0000000000000000        0x0 /usr/lib/gcc/arm-none-eabi/4.8/../../../arm-none-eabi/lib/armv7e-m/fpu/libg.a(lib_a-mbrtowc.o)
 .bss           0x0000000000000000        0x0 /usr/lib/gcc/arm-none-eabi/4.8/../../../arm-none-eabi/lib/armv7e-m/fpu/libg.a(lib_a-mbrtowc.o)
 .text.mbrtowc  0x0000000000000000       0x60 /usr/lib/gcc/arm-none-eabi/4.8/../../../arm-none-eabi/lib/armv7e-m/fpu/libg.a(lib_a-mbrtowc.o)
 .text          0x0000000000000000        0x0 /usr/lib/gcc/arm-none-eabi/4.8/../../../arm-none-eabi/lib/armv7e-m/fpu/libg.a(lib_a-mbtowc_r.o)
 .data          0x0000000000000000        0x0 /usr/lib/gcc/arm-none-eabi/4.8/../../../arm-none-eabi/lib/armv7e-m/fpu/libg.a(lib_a-mbtowc_r.o)
 .bss           0x0000000000000000        0x0 /usr/lib/gcc/arm-none-eabi/4.8/../../../arm-none-eabi/lib/armv7e-m/fpu/libg.a(lib_a-mbtowc_r.o)
 .text._mbtowc_r
                0x0000000000000000       0x30 /usr/lib/gcc/arm-none-eabi/4.8/../../../arm-none-eabi/lib/armv7e-m/fpu/libg.a(lib_a-mbtowc_r.o)
 .text          0x0000000000000000        0x0 /usr/lib/gcc/arm-none-eabi/4.8/../../../arm-none-eabi/lib/armv7e-m/fpu/libg.a(lib_a-sccl.o)
 .data          0x0000000000000000        0x0 /usr/lib/gcc/arm-none-eabi/4.8/../../../arm-none-eabi/lib/armv7e-m/fpu/libg.a(lib_a-sccl.o)
 .bss           0x0000000000000000        0x0 /usr/lib/gcc/arm-none-eabi/4.8/../../../arm-none-eabi/lib/armv7e-m/fpu/libg.a(lib_a-sccl.o)
 .text          0x0000000000000000        0x0 /usr/lib/gcc/arm-none-eabi/4.8/../../../arm-none-eabi/lib/armv7e-m/fpu/libg.a(lib_a-sprintf.o)
 .data          0x0000000000000000        0x0 /usr/lib/gcc/arm-none-eabi/4.8/../../../arm-none-eabi/lib/armv7e-m/fpu/libg.a(lib_a-sprintf.o)
 .bss           0x0000000000000000        0x0 /usr/lib/gcc/arm-none-eabi/4.8/../../../arm-none-eabi/lib/armv7e-m/fpu/libg.a(lib_a-sprintf.o)
 .text._sprintf_r
                0x0000000000000000       0x44 /usr/lib/gcc/arm-none-eabi/4.8/../../../arm-none-eabi/lib/armv7e-m/fpu/libg.a(lib_a-sprintf.o)
 .text          0x0000000000000000        0x0 /usr/lib/gcc/arm-none-eabi/4.8/../../../arm-none-eabi/lib/armv7e-m/fpu/libg.a(lib_a-strtod.o)
 .data          0x0000000000000000        0x0 /usr/lib/gcc/arm-none-eabi/4.8/../../../arm-none-eabi/lib/armv7e-m/fpu/libg.a(lib_a-strtod.o)
 .bss           0x0000000000000000        0x0 /usr/lib/gcc/arm-none-eabi/4.8/../../../arm-none-eabi/lib/armv7e-m/fpu/libg.a(lib_a-strtod.o)
 .text.strtod   0x0000000000000000       0x10 /usr/lib/gcc/arm-none-eabi/4.8/../../../arm-none-eabi/lib/armv7e-m/fpu/libg.a(lib_a-strtod.o)
 .text.strtof   0x0000000000000000       0x44 /usr/lib/gcc/arm-none-eabi/4.8/../../../arm-none-eabi/lib/armv7e-m/fpu/libg.a(lib_a-strtod.o)
 .text          0x0000000000000000        0x0 /usr/lib/gcc/arm-none-eabi/4.8/../../../arm-none-eabi/lib/armv7e-m/fpu/libg.a(lib_a-strtoll_r.o)
 .data          0x0000000000000000        0x0 /usr/lib/gcc/arm-none-eabi/4.8/../../../arm-none-eabi/lib/armv7e-m/fpu/libg.a(lib_a-strtoll_r.o)
 .bss           0x0000000000000000        0x0 /usr/lib/gcc/arm-none-eabi/4.8/../../../arm-none-eabi/lib/armv7e-m/fpu/libg.a(lib_a-strtoll_r.o)
 .text          0x0000000000000000        0x0 /usr/lib/gcc/arm-none-eabi/4.8/../../../arm-none-eabi/lib/armv7e-m/fpu/libg.a(lib_a-strtol.o)
 .data          0x0000000000000000        0x0 /usr/lib/gcc/arm-none-eabi/4.8/../../../arm-none-eabi/lib/armv7e-m/fpu/libg.a(lib_a-strtol.o)
 .bss           0x0000000000000000        0x0 /usr/lib/gcc/arm-none-eabi/4.8/../../../arm-none-eabi/lib/armv7e-m/fpu/libg.a(lib_a-strtol.o)
 .text.strtol   0x0000000000000000       0x18 /usr/lib/gcc/arm-none-eabi/4.8/../../../arm-none-eabi/lib/armv7e-m/fpu/libg.a(lib_a-strtol.o)
 .text          0x0000000000000000        0x0 /usr/lib/gcc/arm-none-eabi/4.8/../../../arm-none-eabi/lib/armv7e-m/fpu/libg.a(lib_a-strtoull_r.o)
 .data          0x0000000000000000        0x0 /usr/lib/gcc/arm-none-eabi/4.8/../../../arm-none-eabi/lib/armv7e-m/fpu/libg.a(lib_a-strtoull_r.o)
 .bss           0x0000000000000000        0x0 /usr/lib/gcc/arm-none-eabi/4.8/../../../arm-none-eabi/lib/armv7e-m/fpu/libg.a(lib_a-strtoull_r.o)
 .text          0x0000000000000000        0x0 /usr/lib/gcc/arm-none-eabi/4.8/../../../arm-none-eabi/lib/armv7e-m/fpu/libg.a(lib_a-strtoul.o)
 .data          0x0000000000000000        0x0 /usr/lib/gcc/arm-none-eabi/4.8/../../../arm-none-eabi/lib/armv7e-m/fpu/libg.a(lib_a-strtoul.o)
 .bss           0x0000000000000000        0x0 /usr/lib/gcc/arm-none-eabi/4.8/../../../arm-none-eabi/lib/armv7e-m/fpu/libg.a(lib_a-strtoul.o)
 .text.strtoul  0x0000000000000000       0x18 /usr/lib/gcc/arm-none-eabi/4.8/../../../arm-none-eabi/lib/armv7e-m/fpu/libg.a(lib_a-strtoul.o)
 .text          0x0000000000000000        0x0 /usr/lib/gcc/arm-none-eabi/4.8/../../../arm-none-eabi/lib/armv7e-m/fpu/libg.a(lib_a-svfiscanf.o)
 .data          0x0000000000000000        0x0 /usr/lib/gcc/arm-none-eabi/4.8/../../../arm-none-eabi/lib/armv7e-m/fpu/libg.a(lib_a-svfiscanf.o)
 .bss           0x0000000000000000        0x0 /usr/lib/gcc/arm-none-eabi/4.8/../../../arm-none-eabi/lib/armv7e-m/fpu/libg.a(lib_a-svfiscanf.o)
 .text.__ssvfiscanf_r
                0x0000000000000000      0x998 /usr/lib/gcc/arm-none-eabi/4.8/../../../arm-none-eabi/lib/armv7e-m/fpu/libg.a(lib_a-svfiscanf.o)
 .rodata.basefix.6211
                0x0000000000000000       0x24 /usr/lib/gcc/arm-none-eabi/4.8/../../../arm-none-eabi/lib/armv7e-m/fpu/libg.a(lib_a-svfiscanf.o)
 .text          0x0000000000000000        0x0 /usr/lib/gcc/arm-none-eabi/4.8/../../../arm-none-eabi/lib/armv7e-m/fpu/libg.a(lib_a-svfprintf.o)
 .data          0x0000000000000000        0x0 /usr/lib/gcc/arm-none-eabi/4.8/../../../arm-none-eabi/lib/armv7e-m/fpu/libg.a(lib_a-svfprintf.o)
 .bss           0x0000000000000000        0x0 /usr/lib/gcc/arm-none-eabi/4.8/../../../arm-none-eabi/lib/armv7e-m/fpu/libg.a(lib_a-svfprintf.o)
 .text          0x0000000000000000        0x0 /usr/lib/gcc/arm-none-eabi/4.8/../../../arm-none-eabi/lib/armv7e-m/fpu/libg.a(lib_a-ungetc.o)
 .data          0x0000000000000000        0x0 /usr/lib/gcc/arm-none-eabi/4.8/../../../arm-none-eabi/lib/armv7e-m/fpu/libg.a(lib_a-ungetc.o)
 .bss           0x0000000000000000        0x0 /usr/lib/gcc/arm-none-eabi/4.8/../../../arm-none-eabi/lib/armv7e-m/fpu/libg.a(lib_a-ungetc.o)
 .text._ungetc_r
                0x0000000000000000       0xd4 /usr/lib/gcc/arm-none-eabi/4.8/../../../arm-none-eabi/lib/armv7e-m/fpu/libg.a(lib_a-ungetc.o)
 .text.ungetc   0x0000000000000000       0x10 /usr/lib/gcc/arm-none-eabi/4.8/../../../arm-none-eabi/lib/armv7e-m/fpu/libg.a(lib_a-ungetc.o)
 .text          0x0000000000000000        0x0 /usr/lib/gcc/arm-none-eabi/4.8/../../../arm-none-eabi/lib/armv7e-m/fpu/libg.a(lib_a-dtoa.o)
 .data          0x0000000000000000        0x0 /usr/lib/gcc/arm-none-eabi/4.8/../../../arm-none-eabi/lib/armv7e-m/fpu/libg.a(lib_a-dtoa.o)
 .bss           0x0000000000000000        0x0 /usr/lib/gcc/arm-none-eabi/4.8/../../../arm-none-eabi/lib/armv7e-m/fpu/libg.a(lib_a-dtoa.o)
 .text          0x0000000000000000        0x0 /usr/lib/gcc/arm-none-eabi/4.8/../../../arm-none-eabi/lib/armv7e-m/fpu/libg.a(lib_a-fflush.o)
 .data          0x0000000000000000        0x0 /usr/lib/gcc/arm-none-eabi/4.8/../../../arm-none-eabi/lib/armv7e-m/fpu/libg.a(lib_a-fflush.o)
 .bss           0x0000000000000000        0x0 /usr/lib/gcc/arm-none-eabi/4.8/../../../arm-none-eabi/lib/armv7e-m/fpu/libg.a(lib_a-fflush.o)
 .text.__sflush_r
                0x0000000000000000      0x154 /usr/lib/gcc/arm-none-eabi/4.8/../../../arm-none-eabi/lib/armv7e-m/fpu/libg.a(lib_a-fflush.o)
 .text._fflush_r
                0x0000000000000000       0x2c /usr/lib/gcc/arm-none-eabi/4.8/../../../arm-none-eabi/lib/armv7e-m/fpu/libg.a(lib_a-fflush.o)
 .text.fflush   0x0000000000000000       0x24 /usr/lib/gcc/arm-none-eabi/4.8/../../../arm-none-eabi/lib/armv7e-m/fpu/libg.a(lib_a-fflush.o)
 .debug_info    0x0000000000000000      0xab1 /usr/lib/gcc/arm-none-eabi/4.8/../../../arm-none-eabi/lib/armv7e-m/fpu/libg.a(lib_a-fflush.o)
 .debug_abbrev  0x0000000000000000      0x292 /usr/lib/gcc/arm-none-eabi/4.8/../../../arm-none-eabi/lib/armv7e-m/fpu/libg.a(lib_a-fflush.o)
 .debug_loc     0x0000000000000000      0x23a /usr/lib/gcc/arm-none-eabi/4.8/../../../arm-none-eabi/lib/armv7e-m/fpu/libg.a(lib_a-fflush.o)
 .debug_aranges
                0x0000000000000000       0x30 /usr/lib/gcc/arm-none-eabi/4.8/../../../arm-none-eabi/lib/armv7e-m/fpu/libg.a(lib_a-fflush.o)
 .debug_ranges  0x0000000000000000       0x78 /usr/lib/gcc/arm-none-eabi/4.8/../../../arm-none-eabi/lib/armv7e-m/fpu/libg.a(lib_a-fflush.o)
 .debug_line    0x0000000000000000      0x264 /usr/lib/gcc/arm-none-eabi/4.8/../../../arm-none-eabi/lib/armv7e-m/fpu/libg.a(lib_a-fflush.o)
 .debug_str     0x0000000000000000      0x63f /usr/lib/gcc/arm-none-eabi/4.8/../../../arm-none-eabi/lib/armv7e-m/fpu/libg.a(lib_a-fflush.o)
 .comment       0x0000000000000000       0x2c /usr/lib/gcc/arm-none-eabi/4.8/../../../arm-none-eabi/lib/armv7e-m/fpu/libg.a(lib_a-fflush.o)
 .ARM.attributes
                0x0000000000000000       0x34 /usr/lib/gcc/arm-none-eabi/4.8/../../../arm-none-eabi/lib/armv7e-m/fpu/libg.a(lib_a-fflush.o)
 .debug_frame   0x0000000000000000       0x5c /usr/lib/gcc/arm-none-eabi/4.8/../../../arm-none-eabi/lib/armv7e-m/fpu/libg.a(lib_a-fflush.o)
 .text          0x0000000000000000        0x0 /usr/lib/gcc/arm-none-eabi/4.8/../../../arm-none-eabi/lib/armv7e-m/fpu/libg.a(lib_a-findfp.o)
 .data          0x0000000000000000        0x0 /usr/lib/gcc/arm-none-eabi/4.8/../../../arm-none-eabi/lib/armv7e-m/fpu/libg.a(lib_a-findfp.o)
 .bss           0x0000000000000000        0x0 /usr/lib/gcc/arm-none-eabi/4.8/../../../arm-none-eabi/lib/armv7e-m/fpu/libg.a(lib_a-findfp.o)
 .text.__fp_lock
                0x0000000000000000        0x4 /usr/lib/gcc/arm-none-eabi/4.8/../../../arm-none-eabi/lib/armv7e-m/fpu/libg.a(lib_a-findfp.o)
 .text.__fp_unlock
                0x0000000000000000        0x4 /usr/lib/gcc/arm-none-eabi/4.8/../../../arm-none-eabi/lib/armv7e-m/fpu/libg.a(lib_a-findfp.o)
 .text._cleanup_r
                0x0000000000000000        0xc /usr/lib/gcc/arm-none-eabi/4.8/../../../arm-none-eabi/lib/armv7e-m/fpu/libg.a(lib_a-findfp.o)
 .text.__sfmoreglue
                0x0000000000000000       0x30 /usr/lib/gcc/arm-none-eabi/4.8/../../../arm-none-eabi/lib/armv7e-m/fpu/libg.a(lib_a-findfp.o)
 .text._cleanup
                0x0000000000000000       0x14 /usr/lib/gcc/arm-none-eabi/4.8/../../../arm-none-eabi/lib/armv7e-m/fpu/libg.a(lib_a-findfp.o)
 .text.__sinit  0x0000000000000000       0xf4 /usr/lib/gcc/arm-none-eabi/4.8/../../../arm-none-eabi/lib/armv7e-m/fpu/libg.a(lib_a-findfp.o)
 .text.__sfp    0x0000000000000000       0x8c /usr/lib/gcc/arm-none-eabi/4.8/../../../arm-none-eabi/lib/armv7e-m/fpu/libg.a(lib_a-findfp.o)
 .text.__sfp_lock_acquire
                0x0000000000000000        0x4 /usr/lib/gcc/arm-none-eabi/4.8/../../../arm-none-eabi/lib/armv7e-m/fpu/libg.a(lib_a-findfp.o)
 .text.__sfp_lock_release
                0x0000000000000000        0x4 /usr/lib/gcc/arm-none-eabi/4.8/../../../arm-none-eabi/lib/armv7e-m/fpu/libg.a(lib_a-findfp.o)
 .text.__sinit_lock_acquire
                0x0000000000000000        0x4 /usr/lib/gcc/arm-none-eabi/4.8/../../../arm-none-eabi/lib/armv7e-m/fpu/libg.a(lib_a-findfp.o)
 .text.__sinit_lock_release
                0x0000000000000000        0x4 /usr/lib/gcc/arm-none-eabi/4.8/../../../arm-none-eabi/lib/armv7e-m/fpu/libg.a(lib_a-findfp.o)
 .text.__fp_lock_all
                0x0000000000000000       0x14 /usr/lib/gcc/arm-none-eabi/4.8/../../../arm-none-eabi/lib/armv7e-m/fpu/libg.a(lib_a-findfp.o)
 .text.__fp_unlock_all
                0x0000000000000000       0x14 /usr/lib/gcc/arm-none-eabi/4.8/../../../arm-none-eabi/lib/armv7e-m/fpu/libg.a(lib_a-findfp.o)
 .debug_info    0x0000000000000000      0xd70 /usr/lib/gcc/arm-none-eabi/4.8/../../../arm-none-eabi/lib/armv7e-m/fpu/libg.a(lib_a-findfp.o)
 .debug_abbrev  0x0000000000000000      0x32f /usr/lib/gcc/arm-none-eabi/4.8/../../../arm-none-eabi/lib/armv7e-m/fpu/libg.a(lib_a-findfp.o)
 .debug_loc     0x0000000000000000      0x2d7 /usr/lib/gcc/arm-none-eabi/4.8/../../../arm-none-eabi/lib/armv7e-m/fpu/libg.a(lib_a-findfp.o)
 .debug_aranges
                0x0000000000000000       0x80 /usr/lib/gcc/arm-none-eabi/4.8/../../../arm-none-eabi/lib/armv7e-m/fpu/libg.a(lib_a-findfp.o)
 .debug_ranges  0x0000000000000000       0xe0 /usr/lib/gcc/arm-none-eabi/4.8/../../../arm-none-eabi/lib/armv7e-m/fpu/libg.a(lib_a-findfp.o)
 .debug_line    0x0000000000000000      0x307 /usr/lib/gcc/arm-none-eabi/4.8/../../../arm-none-eabi/lib/armv7e-m/fpu/libg.a(lib_a-findfp.o)
 .debug_str     0x0000000000000000      0x6f9 /usr/lib/gcc/arm-none-eabi/4.8/../../../arm-none-eabi/lib/armv7e-m/fpu/libg.a(lib_a-findfp.o)
 .comment       0x0000000000000000       0x2c /usr/lib/gcc/arm-none-eabi/4.8/../../../arm-none-eabi/lib/armv7e-m/fpu/libg.a(lib_a-findfp.o)
 .ARM.attributes
                0x0000000000000000       0x34 /usr/lib/gcc/arm-none-eabi/4.8/../../../arm-none-eabi/lib/armv7e-m/fpu/libg.a(lib_a-findfp.o)
 .debug_frame   0x0000000000000000      0x110 /usr/lib/gcc/arm-none-eabi/4.8/../../../arm-none-eabi/lib/armv7e-m/fpu/libg.a(lib_a-findfp.o)
 .text          0x0000000000000000        0x0 /usr/lib/gcc/arm-none-eabi/4.8/../../../arm-none-eabi/lib/armv7e-m/fpu/libg.a(lib_a-freer.o)
 .data          0x0000000000000000        0x0 /usr/lib/gcc/arm-none-eabi/4.8/../../../arm-none-eabi/lib/armv7e-m/fpu/libg.a(lib_a-freer.o)
 .bss           0x0000000000000000        0x0 /usr/lib/gcc/arm-none-eabi/4.8/../../../arm-none-eabi/lib/armv7e-m/fpu/libg.a(lib_a-freer.o)
 .text          0x0000000000000000        0x0 /usr/lib/gcc/arm-none-eabi/4.8/../../../arm-none-eabi/lib/armv7e-m/fpu/libg.a(lib_a-fwalk.o)
 .data          0x0000000000000000        0x0 /usr/lib/gcc/arm-none-eabi/4.8/../../../arm-none-eabi/lib/armv7e-m/fpu/libg.a(lib_a-fwalk.o)
 .bss           0x0000000000000000        0x0 /usr/lib/gcc/arm-none-eabi/4.8/../../../arm-none-eabi/lib/armv7e-m/fpu/libg.a(lib_a-fwalk.o)
 .text._fwalk   0x0000000000000000       0x4c /usr/lib/gcc/arm-none-eabi/4.8/../../../arm-none-eabi/lib/armv7e-m/fpu/libg.a(lib_a-fwalk.o)
 .text._fwalk_reent
                0x0000000000000000       0x50 /usr/lib/gcc/arm-none-eabi/4.8/../../../arm-none-eabi/lib/armv7e-m/fpu/libg.a(lib_a-fwalk.o)
 .debug_info    0x0000000000000000      0x99c /usr/lib/gcc/arm-none-eabi/4.8/../../../arm-none-eabi/lib/armv7e-m/fpu/libg.a(lib_a-fwalk.o)
 .debug_abbrev  0x0000000000000000      0x1d1 /usr/lib/gcc/arm-none-eabi/4.8/../../../arm-none-eabi/lib/armv7e-m/fpu/libg.a(lib_a-fwalk.o)
 .debug_loc     0x0000000000000000      0x1e3 /usr/lib/gcc/arm-none-eabi/4.8/../../../arm-none-eabi/lib/armv7e-m/fpu/libg.a(lib_a-fwalk.o)
 .debug_aranges
                0x0000000000000000       0x28 /usr/lib/gcc/arm-none-eabi/4.8/../../../arm-none-eabi/lib/armv7e-m/fpu/libg.a(lib_a-fwalk.o)
 .debug_ranges  0x0000000000000000       0x18 /usr/lib/gcc/arm-none-eabi/4.8/../../../arm-none-eabi/lib/armv7e-m/fpu/libg.a(lib_a-fwalk.o)
 .debug_line    0x0000000000000000      0x1ca /usr/lib/gcc/arm-none-eabi/4.8/../../../arm-none-eabi/lib/armv7e-m/fpu/libg.a(lib_a-fwalk.o)
 .debug_str     0x0000000000000000      0x5e4 /usr/lib/gcc/arm-none-eabi/4.8/../../../arm-none-eabi/lib/armv7e-m/fpu/libg.a(lib_a-fwalk.o)
 .comment       0x0000000000000000       0x2c /usr/lib/gcc/arm-none-eabi/4.8/../../../arm-none-eabi/lib/armv7e-m/fpu/libg.a(lib_a-fwalk.o)
 .ARM.attributes
                0x0000000000000000       0x34 /usr/lib/gcc/arm-none-eabi/4.8/../../../arm-none-eabi/lib/armv7e-m/fpu/libg.a(lib_a-fwalk.o)
 .debug_frame   0x0000000000000000       0x54 /usr/lib/gcc/arm-none-eabi/4.8/../../../arm-none-eabi/lib/armv7e-m/fpu/libg.a(lib_a-fwalk.o)
 .text          0x0000000000000000        0x0 /usr/lib/gcc/arm-none-eabi/4.8/../../../arm-none-eabi/lib/armv7e-m/fpu/libg.a(lib_a-gdtoa-gethex.o)
 .data          0x0000000000000000        0x0 /usr/lib/gcc/arm-none-eabi/4.8/../../../arm-none-eabi/lib/armv7e-m/fpu/libg.a(lib_a-gdtoa-gethex.o)
 .bss           0x0000000000000000        0x0 /usr/lib/gcc/arm-none-eabi/4.8/../../../arm-none-eabi/lib/armv7e-m/fpu/libg.a(lib_a-gdtoa-gethex.o)
 .text          0x0000000000000000        0x0 /usr/lib/gcc/arm-none-eabi/4.8/../../../arm-none-eabi/lib/armv7e-m/fpu/libg.a(lib_a-gdtoa-hexnan.o)
 .data          0x0000000000000000        0x0 /usr/lib/gcc/arm-none-eabi/4.8/../../../arm-none-eabi/lib/armv7e-m/fpu/libg.a(lib_a-gdtoa-hexnan.o)
 .bss           0x0000000000000000        0x0 /usr/lib/gcc/arm-none-eabi/4.8/../../../arm-none-eabi/lib/armv7e-m/fpu/libg.a(lib_a-gdtoa-hexnan.o)
 .text          0x0000000000000000        0x0 /usr/lib/gcc/arm-none-eabi/4.8/../../../arm-none-eabi/lib/armv7e-m/fpu/libg.a(lib_a-mallocr.o)
 .data          0x0000000000000000        0x0 /usr/lib/gcc/arm-none-eabi/4.8/../../../arm-none-eabi/lib/armv7e-m/fpu/libg.a(lib_a-mallocr.o)
 .bss           0x0000000000000000        0x0 /usr/lib/gcc/arm-none-eabi/4.8/../../../arm-none-eabi/lib/armv7e-m/fpu/libg.a(lib_a-mallocr.o)
 .text          0x0000000000000000        0x0 /usr/lib/gcc/arm-none-eabi/4.8/../../../arm-none-eabi/lib/armv7e-m/fpu/libg.a(lib_a-memchr-stub.o)
 .data          0x0000000000000000        0x0 /usr/lib/gcc/arm-none-eabi/4.8/../../../arm-none-eabi/lib/armv7e-m/fpu/libg.a(lib_a-memchr-stub.o)
 .bss           0x0000000000000000        0x0 /usr/lib/gcc/arm-none-eabi/4.8/../../../arm-none-eabi/lib/armv7e-m/fpu/libg.a(lib_a-memchr-stub.o)
 .text          0x0000000000000000        0x0 /usr/lib/gcc/arm-none-eabi/4.8/../../../arm-none-eabi/lib/armv7e-m/fpu/libg.a(lib_a-mlock.o)
 .data          0x0000000000000000        0x0 /usr/lib/gcc/arm-none-eabi/4.8/../../../arm-none-eabi/lib/armv7e-m/fpu/libg.a(lib_a-mlock.o)
 .bss           0x0000000000000000        0x0 /usr/lib/gcc/arm-none-eabi/4.8/../../../arm-none-eabi/lib/armv7e-m/fpu/libg.a(lib_a-mlock.o)
 .text          0x0000000000000000        0x0 /usr/lib/gcc/arm-none-eabi/4.8/../../../arm-none-eabi/lib/armv7e-m/fpu/libg.a(lib_a-mprec.o)
 .data          0x0000000000000000        0x0 /usr/lib/gcc/arm-none-eabi/4.8/../../../arm-none-eabi/lib/armv7e-m/fpu/libg.a(lib_a-mprec.o)
 .bss           0x0000000000000000        0x0 /usr/lib/gcc/arm-none-eabi/4.8/../../../arm-none-eabi/lib/armv7e-m/fpu/libg.a(lib_a-mprec.o)
 .text._mprec_log10
                0x0000000000000000       0x38 /usr/lib/gcc/arm-none-eabi/4.8/../../../arm-none-eabi/lib/armv7e-m/fpu/libg.a(lib_a-mprec.o)
 .rodata.__mprec_tinytens
                0x0000000000000000       0x28 /usr/lib/gcc/arm-none-eabi/4.8/../../../arm-none-eabi/lib/armv7e-m/fpu/libg.a(lib_a-mprec.o)
 .text          0x0000000000000000        0x0 /usr/lib/gcc/arm-none-eabi/4.8/../../../arm-none-eabi/lib/armv7e-m/fpu/libg.a(lib_a-reallocr.o)
 .data          0x0000000000000000        0x0 /usr/lib/gcc/arm-none-eabi/4.8/../../../arm-none-eabi/lib/armv7e-m/fpu/libg.a(lib_a-reallocr.o)
 .bss           0x0000000000000000        0x0 /usr/lib/gcc/arm-none-eabi/4.8/../../../arm-none-eabi/lib/armv7e-m/fpu/libg.a(lib_a-reallocr.o)
 .text          0x0000000000000000        0x0 /usr/lib/gcc/arm-none-eabi/4.8/../../../arm-none-eabi/lib/armv7e-m/fpu/libg.a(lib_a-strncmp.o)
 .data          0x0000000000000000        0x0 /usr/lib/gcc/arm-none-eabi/4.8/../../../arm-none-eabi/lib/armv7e-m/fpu/libg.a(lib_a-strncmp.o)
 .bss           0x0000000000000000        0x0 /usr/lib/gcc/arm-none-eabi/4.8/../../../arm-none-eabi/lib/armv7e-m/fpu/libg.a(lib_a-strncmp.o)
 .text          0x0000000000000000        0x0 /usr/lib/gcc/arm-none-eabi/4.8/../../../arm-none-eabi/lib/armv7e-m/fpu/libg.a(lib_a-svfiprintf.o)
 .data          0x0000000000000000        0x0 /usr/lib/gcc/arm-none-eabi/4.8/../../../arm-none-eabi/lib/armv7e-m/fpu/libg.a(lib_a-svfiprintf.o)
 .bss           0x0000000000000000        0x0 /usr/lib/gcc/arm-none-eabi/4.8/../../../arm-none-eabi/lib/armv7e-m/fpu/libg.a(lib_a-svfiprintf.o)
 .text._svfiprintf_r
                0x0000000000000000      0xb3c /usr/lib/gcc/arm-none-eabi/4.8/../../../arm-none-eabi/lib/armv7e-m/fpu/libg.a(lib_a-svfiprintf.o)
 .rodata.blanks.6739
                0x0000000000000000       0x10 /usr/lib/gcc/arm-none-eabi/4.8/../../../arm-none-eabi/lib/armv7e-m/fpu/libg.a(lib_a-svfiprintf.o)
 .rodata.str1.4
                0x0000000000000000       0x30 /usr/lib/gcc/arm-none-eabi/4.8/../../../arm-none-eabi/lib/armv7e-m/fpu/libg.a(lib_a-svfiprintf.o)
 .rodata.zeroes.6740
                0x0000000000000000       0x10 /usr/lib/gcc/arm-none-eabi/4.8/../../../arm-none-eabi/lib/armv7e-m/fpu/libg.a(lib_a-svfiprintf.o)
 .text          0x0000000000000000        0x0 /usr/lib/gcc/arm-none-eabi/4.8/../../../arm-none-eabi/lib/armv7e-m/fpu/libg.a(lib_a-callocr.o)
 .data          0x0000000000000000        0x0 /usr/lib/gcc/arm-none-eabi/4.8/../../../arm-none-eabi/lib/armv7e-m/fpu/libg.a(lib_a-callocr.o)
 .bss           0x0000000000000000        0x0 /usr/lib/gcc/arm-none-eabi/4.8/../../../arm-none-eabi/lib/armv7e-m/fpu/libg.a(lib_a-callocr.o)
 .text          0x0000000000000000        0x0 /usr/lib/gcc/arm-none-eabi/4.8/../../../arm-none-eabi/lib/armv7e-m/fpu/libg.a(lib_a-fclose.o)
 .data          0x0000000000000000        0x0 /usr/lib/gcc/arm-none-eabi/4.8/../../../arm-none-eabi/lib/armv7e-m/fpu/libg.a(lib_a-fclose.o)
 .bss           0x0000000000000000        0x0 /usr/lib/gcc/arm-none-eabi/4.8/../../../arm-none-eabi/lib/armv7e-m/fpu/libg.a(lib_a-fclose.o)
 .text._fclose_r
                0x0000000000000000       0x80 /usr/lib/gcc/arm-none-eabi/4.8/../../../arm-none-eabi/lib/armv7e-m/fpu/libg.a(lib_a-fclose.o)
 .text.fclose   0x0000000000000000       0x10 /usr/lib/gcc/arm-none-eabi/4.8/../../../arm-none-eabi/lib/armv7e-m/fpu/libg.a(lib_a-fclose.o)
 .debug_info    0x0000000000000000      0x9e4 /usr/lib/gcc/arm-none-eabi/4.8/../../../arm-none-eabi/lib/armv7e-m/fpu/libg.a(lib_a-fclose.o)
 .debug_abbrev  0x0000000000000000      0x273 /usr/lib/gcc/arm-none-eabi/4.8/../../../arm-none-eabi/lib/armv7e-m/fpu/libg.a(lib_a-fclose.o)
 .debug_loc     0x0000000000000000       0xfc /usr/lib/gcc/arm-none-eabi/4.8/../../../arm-none-eabi/lib/armv7e-m/fpu/libg.a(lib_a-fclose.o)
 .debug_aranges
                0x0000000000000000       0x28 /usr/lib/gcc/arm-none-eabi/4.8/../../../arm-none-eabi/lib/armv7e-m/fpu/libg.a(lib_a-fclose.o)
 .debug_ranges  0x0000000000000000       0x30 /usr/lib/gcc/arm-none-eabi/4.8/../../../arm-none-eabi/lib/armv7e-m/fpu/libg.a(lib_a-fclose.o)
 .debug_line    0x0000000000000000      0x1d0 /usr/lib/gcc/arm-none-eabi/4.8/../../../arm-none-eabi/lib/armv7e-m/fpu/libg.a(lib_a-fclose.o)
 .debug_str     0x0000000000000000      0x62c /usr/lib/gcc/arm-none-eabi/4.8/../../../arm-none-eabi/lib/armv7e-m/fpu/libg.a(lib_a-fclose.o)
 .comment       0x0000000000000000       0x2c /usr/lib/gcc/arm-none-eabi/4.8/../../../arm-none-eabi/lib/armv7e-m/fpu/libg.a(lib_a-fclose.o)
 .ARM.attributes
                0x0000000000000000       0x34 /usr/lib/gcc/arm-none-eabi/4.8/../../../arm-none-eabi/lib/armv7e-m/fpu/libg.a(lib_a-fclose.o)
 .debug_frame   0x0000000000000000       0x3c /usr/lib/gcc/arm-none-eabi/4.8/../../../arm-none-eabi/lib/armv7e-m/fpu/libg.a(lib_a-fclose.o)
 .text          0x0000000000000000        0x0 /usr/lib/gcc/arm-none-eabi/4.8/../../../arm-none-eabi/lib/armv7e-m/fpu/libg.a(lib_a-memmove.o)
 .data          0x0000000000000000        0x0 /usr/lib/gcc/arm-none-eabi/4.8/../../../arm-none-eabi/lib/armv7e-m/fpu/libg.a(lib_a-memmove.o)
 .bss           0x0000000000000000        0x0 /usr/lib/gcc/arm-none-eabi/4.8/../../../arm-none-eabi/lib/armv7e-m/fpu/libg.a(lib_a-memmove.o)
 .data          0x0000000000000000        0x0 /usr/lib/gcc/arm-none-eabi/4.8/armv7e-m/fpu/libgcc.a(_arm_fixunsdfsi.o)
 .bss           0x0000000000000000        0x0 /usr/lib/gcc/arm-none-eabi/4.8/armv7e-m/fpu/libgcc.a(_arm_fixunsdfsi.o)
 .data          0x0000000000000000        0x0 /usr/lib/gcc/arm-none-eabi/4.8/armv7e-m/fpu/libgcc.a(_aeabi_uldivmod.o)
 .bss           0x0000000000000000        0x0 /usr/lib/gcc/arm-none-eabi/4.8/armv7e-m/fpu/libgcc.a(_aeabi_uldivmod.o)
 .data          0x0000000000000000        0x0 /usr/lib/gcc/arm-none-eabi/4.8/armv7e-m/fpu/libgcc.a(bpabi.o)
 .bss           0x0000000000000000        0x0 /usr/lib/gcc/arm-none-eabi/4.8/armv7e-m/fpu/libgcc.a(bpabi.o)
 .data          0x0000000000000000        0x0 /usr/lib/gcc/arm-none-eabi/4.8/armv7e-m/fpu/libgcc.a(_dvmd_tls.o)
 .bss           0x0000000000000000        0x0 /usr/lib/gcc/arm-none-eabi/4.8/armv7e-m/fpu/libgcc.a(_dvmd_tls.o)
 .data          0x0000000000000000        0x0 /usr/lib/gcc/arm-none-eabi/4.8/armv7e-m/fpu/libgcc.a(_divdi3.o)
 .bss           0x0000000000000000        0x0 /usr/lib/gcc/arm-none-eabi/4.8/armv7e-m/fpu/libgcc.a(_divdi3.o)
 .ARM.extab     0x0000000000000000        0x0 /usr/lib/gcc/arm-none-eabi/4.8/armv7e-m/fpu/libgcc.a(_divdi3.o)
 .data          0x0000000000000000        0x0 /usr/lib/gcc/arm-none-eabi/4.8/armv7e-m/fpu/libgcc.a(_udivdi3.o)
 .bss           0x0000000000000000        0x0 /usr/lib/gcc/arm-none-eabi/4.8/armv7e-m/fpu/libgcc.a(_udivdi3.o)
 .ARM.extab     0x0000000000000000        0x0 /usr/lib/gcc/arm-none-eabi/4.8/armv7e-m/fpu/libgcc.a(_udivdi3.o)

Memory Configuration

Name             Origin             Length             Attributes
flash            0x0000000008000000 0x0000000000004000
flash2           0x000000000800c000 0x0000000000078000
ram0             0x0000000020000000 0x0000000000020000
ram1             0x0000000020000000 0x000000000001c000
ram2             0x000000002001c000 0x0000000000004000
ram3             0x0000000000000000 0x0000000000000000
ram4             0x0000000010000000 0x0000000000010000
ram5             0x0000000040024000 0x0000000000001000
ram6             0x0000000000000000 0x0000000000000000
ram7             0x0000000000000000 0x0000000000000000
*default*        0x0000000000000000 0xffffffffffffffff

Linker script and memory map

LOAD build/obj/crt0_v7m.o
LOAD build/obj/chcoreasm_v7m.o
LOAD build/obj/crt1.o
LOAD build/obj/vectors.o
LOAD build/obj/chsys.o
LOAD build/obj/chdebug.o
LOAD build/obj/chvt.o
LOAD build/obj/chschd.o
LOAD build/obj/chthreads.o
LOAD build/obj/chtm.o
LOAD build/obj/chdynamic.o
LOAD build/obj/chregistry.o
LOAD build/obj/chsem.o
LOAD build/obj/chmtx.o
LOAD build/obj/chcond.o
LOAD build/obj/chevents.o
LOAD build/obj/chmsg.o
LOAD build/obj/chmboxes.o
LOAD build/obj/chqueues.o
LOAD build/obj/chmemcore.o
LOAD build/obj/chheap.o
LOAD build/obj/chmempools.o
LOAD build/obj/chcore.o
LOAD build/obj/chcore_v7m.o
LOAD build/obj/osal.o
LOAD build/obj/hal.o
LOAD build/obj/st.o
LOAD build/obj/hal_queues.o
LOAD build/obj/hal_mmcsd.o
LOAD build/obj/can.o
LOAD build/obj/i2c.o
LOAD build/obj/icu.o
LOAD build/obj/pal.o
LOAD build/obj/serial_usb.o
LOAD build/obj/spi.o
LOAD build/obj/uart.o
LOAD build/obj/usb.o
LOAD build/obj/nvic.o
LOAD build/obj/stm32_dma.o
LOAD build/obj/hal_lld.o
LOAD build/obj/st_lld.o
LOAD build/obj/can_lld.o
LOAD build/obj/pal_lld.o
LOAD build/obj/i2c_lld.o
LOAD build/obj/usb_lld.o
LOAD build/obj/spi_lld.o
LOAD build/obj/icu_lld.o
LOAD build/obj/uart_lld.o
LOAD build/obj/chprintf.o
LOAD build/obj/syscalls.o
LOAD build/obj/board.o
LOAD build/obj/main.o
LOAD build/obj/comm_usb_serial.o
LOAD build/obj/irq_handlers.o
LOAD build/obj/buffer.o
LOAD build/obj/comm_usb.o
LOAD build/obj/crc.o
LOAD build/obj/digital_filter.o
LOAD build/obj/ledpwm.o
LOAD build/obj/mcpwm.o
LOAD build/obj/servo_dec.o
LOAD build/obj/utils.o
LOAD build/obj/servo.o
LOAD build/obj/servo_simple.o
LOAD build/obj/packet.o
LOAD build/obj/terminal.o
LOAD build/obj/conf_general.o
LOAD build/obj/eeprom.o
LOAD build/obj/commands.o
LOAD build/obj/timeout.o
LOAD build/obj/comm_can.o
LOAD build/obj/ws2811.o
LOAD build/obj/led_external.o
LOAD build/obj/encoder.o
LOAD build/obj/flash_helper.o
LOAD build/obj/mc_interface.o
LOAD build/obj/mcpwm_foc.o
LOAD build/obj/hw_40.o
LOAD build/obj/hw_45.o
LOAD build/obj/hw_r2.o
LOAD build/obj/hw_46.o
LOAD build/obj/hw_48.o
LOAD build/obj/hw_49.o
LOAD build/obj/hw_410.o
LOAD build/obj/hw_60.o
LOAD build/obj/hw_victor_r1a.o
LOAD build/obj/hw_das_rs.o
LOAD build/obj/drv8301.o
LOAD build/obj/drv8305.o
LOAD build/obj/hw_palta.o
LOAD build/obj/hw_rh.o
LOAD build/obj/hw_tp.o
LOAD build/obj/app.o
LOAD build/obj/app_ppm.o
LOAD build/obj/app_adc.o
LOAD build/obj/app_sten.o
LOAD build/obj/app_uartcomm.o
LOAD build/obj/app_nunchuk.o
LOAD build/obj/app_custom.o
LOAD build/obj/spi_sw.o
LOAD build/obj/rf.o
LOAD build/obj/rfhelp.o
LOAD build/obj/nrf_driver.o
LOAD build/obj/misc.o
LOAD build/obj/stm32f4xx_adc.o
LOAD build/obj/stm32f4xx_dma.o
LOAD build/obj/stm32f4xx_exti.o
LOAD build/obj/stm32f4xx_flash.o
LOAD build/obj/stm32f4xx_rcc.o
LOAD build/obj/stm32f4xx_syscfg.o
LOAD build/obj/stm32f4xx_tim.o
LOAD build/obj/stm32f4xx_wwdg.o
                0x0000000020000000                __ram0_start__ = ORIGIN (ram0)
                0x0000000000020000                __ram0_size__ = 0x20000
                0x0000000020020000                __ram0_end__ = (__ram0_start__ + __ram0_size__)
                0x0000000020000000                __ram1_start__ = ORIGIN (ram1)
                0x000000000001c000                __ram1_size__ = 0x1c000
                0x000000002001c000                __ram1_end__ = (__ram1_start__ + __ram1_size__)
                0x000000002001c000                __ram2_start__ = ORIGIN (ram2)
                0x0000000000004000                __ram2_size__ = 0x4000
                0x0000000020020000                __ram2_end__ = (__ram2_start__ + __ram2_size__)
                0x0000000000000000                __ram3_start__ = ORIGIN (ram3)
                0x0000000000000000                __ram3_size__ = 0x0
                0x0000000000000000                __ram3_end__ = (__ram3_start__ + __ram3_size__)
                0x0000000010000000                __ram4_start__ = ORIGIN (ram4)
                0x0000000000010000                __ram4_size__ = 0x10000
                0x0000000010010000                __ram4_end__ = (__ram4_start__ + __ram4_size__)
                0x0000000040024000                __ram5_start__ = ORIGIN (ram5)
                0x0000000000001000                __ram5_size__ = 0x1000
                0x0000000040025000                __ram5_end__ = (__ram5_start__ + __ram5_size__)
                0x0000000000000000                __ram6_start__ = ORIGIN (ram6)
                0x0000000000000000                __ram6_size__ = 0x0
                0x0000000000000000                __ram6_end__ = (__ram6_start__ + __ram6_size__)
                0x0000000000000000                __ram7_start__ = ORIGIN (ram7)
                0x0000000000000000                __ram7_size__ = 0x0
                0x0000000000000000                __ram7_end__ = (__ram7_start__ + __ram7_size__)
                0x0000000000000000                . = 0x0
                0x0000000000000000                _text = .

startup         0x0000000008000000      0x1c0
 *(.vectors)
 .vectors       0x0000000008000000      0x1c0 build/obj/vectors.o
                0x0000000008000000                _vectors

constructors    0x000000000800c000        0x0
                0x000000000800c000                PROVIDE (__init_array_start, .)
 *(SORT(.init_array.*))
 *(.init_array)
                0x000000000800c000                PROVIDE (__init_array_end, .)

destructors     0x000000000800c000        0x0
                0x000000000800c000                PROVIDE (__fini_array_start, .)
 *(.fini_array)
 *(SORT(.fini_array.*))
                0x000000000800c000                PROVIDE (__fini_array_end, .)

.text           0x000000000800c000    0x250ec
 *(.text)
 .text          0x000000000800c000      0x108 build/obj/crt0_v7m.o
                0x000000000800c000                Reset_Handler
 *fill*         0x000000000800c108        0x8 
 .text          0x000000000800c110       0x30 build/obj/chcoreasm_v7m.o
                0x000000000800c110                _port_switch
                0x000000000800c128                _port_thread_start
                0x000000000800c138                _port_switch_from_isr
                0x000000000800c13c                _port_exit_from_isr
 .text          0x000000000800c140      0x370 /usr/lib/gcc/arm-none-eabi/4.8/armv7e-m/fpu/libgcc.a(_arm_addsubdf3.o)
                0x000000000800c140                __aeabi_drsub
                0x000000000800c148                __aeabi_dsub
                0x000000000800c148                __subdf3
                0x000000000800c14c                __adddf3
                0x000000000800c14c                __aeabi_dadd
                0x000000000800c3c4                __aeabi_ui2d
                0x000000000800c3c4                __floatunsidf
                0x000000000800c3e4                __floatsidf
                0x000000000800c3e4                __aeabi_i2d
                0x000000000800c408                __extendsfdf2
                0x000000000800c408                __aeabi_f2d
                0x000000000800c444                __aeabi_ul2d
                0x000000000800c444                __floatundidf
                0x000000000800c454                __floatdidf
                0x000000000800c454                __aeabi_l2d
 .text          0x000000000800c4b0      0x424 /usr/lib/gcc/arm-none-eabi/4.8/armv7e-m/fpu/libgcc.a(_arm_muldivdf3.o)
                0x000000000800c4b0                __aeabi_dmul
                0x000000000800c4b0                __muldf3
                0x000000000800c704                __aeabi_ddiv
                0x000000000800c704                __divdf3
 *fill*         0x000000000800c8d4        0xc 
 .text          0x000000000800c8e0      0x110 /usr/lib/gcc/arm-none-eabi/4.8/armv7e-m/fpu/libgcc.a(_arm_cmpdf2.o)
                0x000000000800c8e0                __gtdf2
                0x000000000800c8e0                __gedf2
                0x000000000800c8e8                __ltdf2
                0x000000000800c8e8                __ledf2
                0x000000000800c8f0                __cmpdf2
                0x000000000800c8f0                __eqdf2
                0x000000000800c8f0                __nedf2
                0x000000000800c96c                __aeabi_cdrcmple
                0x000000000800c97c                __aeabi_cdcmple
                0x000000000800c97c                __aeabi_cdcmpeq
                0x000000000800c98c                __aeabi_dcmpeq
                0x000000000800c9a0                __aeabi_dcmplt
                0x000000000800c9b4                __aeabi_dcmple
                0x000000000800c9c8                __aeabi_dcmpge
                0x000000000800c9dc                __aeabi_dcmpgt
 .text          0x000000000800c9f0       0x50 /usr/lib/gcc/arm-none-eabi/4.8/armv7e-m/fpu/libgcc.a(_arm_fixdfsi.o)
                0x000000000800c9f0                __fixdfsi
                0x000000000800c9f0                __aeabi_d2iz
 .text          0x000000000800ca40       0xa0 /usr/lib/gcc/arm-none-eabi/4.8/armv7e-m/fpu/libgcc.a(_arm_truncdfsf2.o)
                0x000000000800ca40                __aeabi_d2f
                0x000000000800ca40                __truncdfsf2
 .text          0x000000000800cae0      0x134 /usr/lib/gcc/arm-none-eabi/4.8/../../../arm-none-eabi/lib/armv7e-m/fpu/libg.a(lib_a-memcpy.o)
                0x000000000800cae0                memcpy
 *fill*         0x000000000800cc14        0xc 
 .text          0x000000000800cc20      0x2e0 /usr/lib/gcc/arm-none-eabi/4.8/../../../arm-none-eabi/lib/armv7e-m/fpu/libg.a(lib_a-strcmp.o)
                0x000000000800cc28                strcmp
 .text          0x000000000800cf00       0x40 /usr/lib/gcc/arm-none-eabi/4.8/armv7e-m/fpu/libgcc.a(_arm_fixunsdfsi.o)
                0x000000000800cf00                __fixunsdfsi
                0x000000000800cf00                __aeabi_d2uiz
 .text          0x000000000800cf40       0x2c /usr/lib/gcc/arm-none-eabi/4.8/armv7e-m/fpu/libgcc.a(_aeabi_uldivmod.o)
                0x000000000800cf40                __aeabi_uldivmod
 *fill*         0x000000000800cf6c        0x4 
 .text          0x000000000800cf70       0x60 /usr/lib/gcc/arm-none-eabi/4.8/armv7e-m/fpu/libgcc.a(bpabi.o)
                0x000000000800cf70                __gnu_ldivmod_helper
                0x000000000800cfa0                __gnu_uldivmod_helper
 .text          0x000000000800cfd0        0x4 /usr/lib/gcc/arm-none-eabi/4.8/armv7e-m/fpu/libgcc.a(_dvmd_tls.o)
                0x000000000800cfd0                __aeabi_ldiv0
                0x000000000800cfd0                __aeabi_idiv0
 *fill*         0x000000000800cfd4        0xc 
 .text          0x000000000800cfe0      0x298 /usr/lib/gcc/arm-none-eabi/4.8/armv7e-m/fpu/libgcc.a(_divdi3.o)
                0x000000000800cfe0                __divdi3
 *fill*         0x000000000800d278        0x8 
 .text          0x000000000800d280      0x284 /usr/lib/gcc/arm-none-eabi/4.8/armv7e-m/fpu/libgcc.a(_udivdi3.o)
                0x000000000800d280                __udivdi3
 *(.text.*)
 *fill*         0x000000000800d504        0xc 
 .text.__core_init
                0x000000000800d510       0x10 build/obj/crt1.o
                0x000000000800d510                __core_init
 .text.__late_init
                0x000000000800d520       0x10 build/obj/crt1.o
                0x000000000800d520                __late_init
 .text.__default_exit
                0x000000000800d530       0x10 build/obj/crt1.o
                0x000000000800d530                __default_exit
 .text._unhandled_exception
                0x000000000800d540       0x10 build/obj/vectors.o
                0x000000000800d540                Vector58
                0x000000000800d540                VectorE8
                0x000000000800d540                Vector9C
                0x000000000800d540                VectorAC
                0x000000000800d540                DebugMon_Handler
                0x000000000800d540                Vector1A0
                0x000000000800d540                Vector5C
                0x000000000800d540                Vector11C
                0x000000000800d540                HardFault_Handler
                0x000000000800d540                Vector1B8
                0x000000000800d540                Vector19C
                0x000000000800d540                PendSV_Handler
                0x000000000800d540                Vector168
                0x000000000800d540                NMI_Handler
                0x000000000800d540                Vector110
                0x000000000800d540                VectorA8
                0x000000000800d540                Vector160
                0x000000000800d540                Vector1B0
                0x000000000800d540                UsageFault_Handler
                0x000000000800d540                VectorEC
                0x000000000800d540                Vector40
                0x000000000800d540                Vector108
                0x000000000800d540                VectorBC
                0x000000000800d540                Vector190
                0x000000000800d540                Vector148
                0x000000000800d540                Vector188
                0x000000000800d540                Vector198
                0x000000000800d540                Vector118
                0x000000000800d540                Vector64
                0x000000000800d540                VectorCC
                0x000000000800d540                Vector54
                0x000000000800d540                VectorD8
                0x000000000800d540                Vector138
                0x000000000800d540                Vector24
                0x000000000800d540                Vector1AC
                0x000000000800d540                Vector178
                0x000000000800d540                Vector1A4
                0x000000000800d540                VectorD0
                0x000000000800d540                Vector1B4
                0x000000000800d540                Vector140
                0x000000000800d540                VectorE4
                0x000000000800d540                VectorC0
                0x000000000800d540                Vector134
                0x000000000800d540                VectorF0
                0x000000000800d540                Vector13C
                0x000000000800d540                Vector100
                0x000000000800d540                VectorF4
                0x000000000800d540                MemManage_Handler
                0x000000000800d540                VectorA0
                0x000000000800d540                Vector180
                0x000000000800d540                VectorB0
                0x000000000800d540                Vector114
                0x000000000800d540                Vector164
                0x000000000800d540                Vector60
                0x000000000800d540                Vector1C
                0x000000000800d540                Vector1BC
                0x000000000800d540                Vector17C
                0x000000000800d540                Vector48
                0x000000000800d540                Vector1A8
                0x000000000800d540                Vector16C
                0x000000000800d540                VectorD4
                0x000000000800d540                Vector4C
                0x000000000800d540                Vector144
                0x000000000800d540                Vector68
                0x000000000800d540                _unhandled_exception
                0x000000000800d540                Vector170
                0x000000000800d540                Vector104
                0x000000000800d540                Vector184
                0x000000000800d540                Vector10C
                0x000000000800d540                BusFault_Handler
                0x000000000800d540                Vector50
                0x000000000800d540                Vector194
                0x000000000800d540                Vector44
                0x000000000800d540                Vector28
                0x000000000800d540                Vector34
                0x000000000800d540                VectorA4
                0x000000000800d540                Vector20
                0x000000000800d540                Vector18C
                0x000000000800d540                Vector174
 .text._idle_thread
                0x000000000800d550       0x10 build/obj/chsys.o
 .text.chSysInit
                0x000000000800d560       0xb0 build/obj/chsys.o
                0x000000000800d560                chSysInit
 .text.chSysHalt
                0x000000000800d610       0x10 build/obj/chsys.o
                0x000000000800d610                chSysHalt
 .text.chSysTimerHandlerI
                0x000000000800d620       0x60 build/obj/chsys.o
                0x000000000800d620                chSysTimerHandlerI
 .text.chSysPolledDelayX
                0x000000000800d680       0x20 build/obj/chsys.o
                0x000000000800d680                chSysPolledDelayX
 .text._vt_init
                0x000000000800d6a0       0x20 build/obj/chvt.o
                0x000000000800d6a0                _vt_init
 .text.chVTDoSetI
                0x000000000800d6c0       0x40 build/obj/chvt.o
                0x000000000800d6c0                chVTDoSetI
 .text.chVTDoResetI
                0x000000000800d700       0x30 build/obj/chvt.o
                0x000000000800d700                chVTDoResetI
 .text.wakeup   0x000000000800d730       0x70 build/obj/chschd.o
 .text._scheduler_init
                0x000000000800d7a0       0x20 build/obj/chschd.o
                0x000000000800d7a0                _scheduler_init
 .text.chSchReadyI
                0x000000000800d7c0       0x30 build/obj/chschd.o
                0x000000000800d7c0                chSchReadyI
 .text.chSchGoSleepS
                0x000000000800d7f0       0x30 build/obj/chschd.o
                0x000000000800d7f0                chSchGoSleepS
 .text.chSchGoSleepTimeoutS
                0x000000000800d820       0x50 build/obj/chschd.o
                0x000000000800d820                chSchGoSleepTimeoutS
 .text.chSchWakeupS
                0x000000000800d870       0x60 build/obj/chschd.o
                0x000000000800d870                chSchWakeupS
 .text.chSchIsPreemptionRequired
                0x000000000800d8d0       0x30 build/obj/chschd.o
                0x000000000800d8d0                chSchIsPreemptionRequired
 .text.chSchDoRescheduleBehind
                0x000000000800d900       0x40 build/obj/chschd.o
                0x000000000800d900                chSchDoRescheduleBehind
 .text.chSchDoRescheduleAhead
                0x000000000800d940       0x40 build/obj/chschd.o
                0x000000000800d940                chSchDoRescheduleAhead
 .text.chSchRescheduleS
                0x000000000800d980       0x20 build/obj/chschd.o
                0x000000000800d980                chSchRescheduleS
 .text.chSchDoReschedule
                0x000000000800d9a0       0x20 build/obj/chschd.o
                0x000000000800d9a0                chSchDoReschedule
 .text._thread_init
                0x000000000800d9c0       0x50 build/obj/chthreads.o
                0x000000000800d9c0                _thread_init
 .text.chThdCreateI
                0x000000000800da10       0x70 build/obj/chthreads.o
                0x000000000800da10                chThdCreateI
 .text.chThdCreateStatic
                0x000000000800da80       0x90 build/obj/chthreads.o
                0x000000000800da80                chThdCreateStatic
 .text.chThdSleep
                0x000000000800db10       0x20 build/obj/chthreads.o
                0x000000000800db10                chThdSleep
 .text.chThdExitS
                0x000000000800db30       0x40 build/obj/chthreads.o
                0x000000000800db30                chThdExitS
 .text.chThdExit
                0x000000000800db70       0x10 build/obj/chthreads.o
                0x000000000800db70                chThdExit
 .text.chThdSuspendS
                0x000000000800db80       0x20 build/obj/chthreads.o
                0x000000000800db80                chThdSuspendS
 .text.chThdSuspendTimeoutS
                0x000000000800dba0       0x20 build/obj/chthreads.o
                0x000000000800dba0                chThdSuspendTimeoutS
 .text.chThdResumeI
                0x000000000800dbc0       0x20 build/obj/chthreads.o
                0x000000000800dbc0                chThdResumeI
 .text.chThdEnqueueTimeoutS
                0x000000000800dbe0       0x30 build/obj/chthreads.o
                0x000000000800dbe0                chThdEnqueueTimeoutS
 .text.chThdDequeueAllI
                0x000000000800dc10       0x30 build/obj/chthreads.o
                0x000000000800dc10                chThdDequeueAllI
 .text.chTMStartMeasurementX
                0x000000000800dc40       0x10 build/obj/chtm.o
                0x000000000800dc40                chTMStartMeasurementX
 .text.chTMStopMeasurementX
                0x000000000800dc50       0x50 build/obj/chtm.o
                0x000000000800dc50                chTMStopMeasurementX
 .text._tm_init
                0x000000000800dca0       0x40 build/obj/chtm.o
                0x000000000800dca0                _tm_init
 .text.chThdRelease
                0x000000000800dce0       0x50 build/obj/chdynamic.o
                0x000000000800dce0                chThdRelease
 .text.chRegFirstThread
                0x000000000800dd30       0x20 build/obj/chregistry.o
                0x000000000800dd30                chRegFirstThread
 .text.chRegNextThread
                0x000000000800dd50       0x30 build/obj/chregistry.o
                0x000000000800dd50                chRegNextThread
 .text.chMtxObjectInit
                0x000000000800dd80       0x10 build/obj/chmtx.o
                0x000000000800dd80                chMtxObjectInit
 .text.chMtxLockS
                0x000000000800dd90       0xd0 build/obj/chmtx.o
                0x000000000800dd90                chMtxLockS
 .text.chMtxLock
                0x000000000800de60       0x20 build/obj/chmtx.o
                0x000000000800de60                chMtxLock
 .text.chMtxUnlock
                0x000000000800de80       0x70 build/obj/chmtx.o
                0x000000000800de80                chMtxUnlock
 .text.chEvtRegisterMaskWithFlags
                0x000000000800def0       0x30 build/obj/chevents.o
                0x000000000800def0                chEvtRegisterMaskWithFlags
 .text.chEvtUnregister
                0x000000000800df20       0x30 build/obj/chevents.o
                0x000000000800df20                chEvtUnregister
 .text.chEvtSignalI
                0x000000000800df50       0x30 build/obj/chevents.o
                0x000000000800df50                chEvtSignalI
 .text.chEvtBroadcastFlagsI
                0x000000000800df80       0x30 build/obj/chevents.o
                0x000000000800df80                chEvtBroadcastFlagsI
 .text.chEvtSignal
                0x000000000800dfb0       0x20 build/obj/chevents.o
                0x000000000800dfb0                chEvtSignal
 .text.chEvtWaitAny
                0x000000000800dfd0       0x40 build/obj/chevents.o
                0x000000000800dfd0                chEvtWaitAny
 .text.chEvtWaitAnyTimeout
                0x000000000800e010       0x50 build/obj/chevents.o
                0x000000000800e010                chEvtWaitAnyTimeout
 .text.chIQObjectInit
                0x000000000800e060       0x20 build/obj/chqueues.o
                0x000000000800e060                chIQObjectInit
 .text.chIQResetI
                0x000000000800e080       0x20 build/obj/chqueues.o
                0x000000000800e080                chIQResetI
 .text.chIQGetTimeout
                0x000000000800e0a0       0x50 build/obj/chqueues.o
                0x000000000800e0a0                chIQGetTimeout
 .text.chIQReadTimeout
                0x000000000800e0f0       0x80 build/obj/chqueues.o
                0x000000000800e0f0                chIQReadTimeout
 .text.chOQObjectInit
                0x000000000800e170       0x20 build/obj/chqueues.o
                0x000000000800e170                chOQObjectInit
 .text.chOQResetI
                0x000000000800e190       0x20 build/obj/chqueues.o
                0x000000000800e190                chOQResetI
 .text.chOQPutTimeout
                0x000000000800e1b0       0x60 build/obj/chqueues.o
                0x000000000800e1b0                chOQPutTimeout
 .text.chOQWriteTimeout
                0x000000000800e210       0x90 build/obj/chqueues.o
                0x000000000800e210                chOQWriteTimeout
 .text._core_init
                0x000000000800e2a0       0x30 build/obj/chmemcore.o
                0x000000000800e2a0                _core_init
 .text.chCoreAlloc
                0x000000000800e2d0       0x40 build/obj/chmemcore.o
                0x000000000800e2d0                chCoreAlloc
 .text.chCoreGetStatusX
                0x000000000800e310       0x20 build/obj/chmemcore.o
                0x000000000800e310                chCoreGetStatusX
 .text._heap_init
                0x000000000800e330       0x20 build/obj/chheap.o
                0x000000000800e330                _heap_init
 .text.chHeapFree
                0x000000000800e350       0xa0 build/obj/chheap.o
                0x000000000800e350                chHeapFree
 .text.chHeapStatus
                0x000000000800e3f0       0x40 build/obj/chheap.o
                0x000000000800e3f0                chHeapStatus
 .text.chPoolFree
                0x000000000800e430       0x20 build/obj/chmempools.o
                0x000000000800e430                chPoolFree
 .text.SVC_Handler
                0x000000000800e450       0x20 build/obj/chcore_v7m.o
                0x000000000800e450                SVC_Handler
 .text._port_irq_epilogue
                0x000000000800e470       0x60 build/obj/chcore_v7m.o
                0x000000000800e470                _port_irq_epilogue
 .text.halInit  0x000000000800e4d0       0x40 build/obj/hal.o
                0x000000000800e4d0                halInit
 .text.stInit   0x000000000800e510       0x10 build/obj/st.o
                0x000000000800e510                stInit
 .text.canInit  0x000000000800e520       0x10 build/obj/can.o
                0x000000000800e520                canInit
 .text.canObjectInit
                0x000000000800e530       0x50 build/obj/can.o
                0x000000000800e530                canObjectInit
 .text.canStart
                0x000000000800e580       0x20 build/obj/can.o
                0x000000000800e580                canStart
 .text.canStop  0x000000000800e5a0       0x40 build/obj/can.o
                0x000000000800e5a0                canStop
 .text.canTransmit
                0x000000000800e5e0       0x50 build/obj/can.o
                0x000000000800e5e0                canTransmit
 .text.canReceive
                0x000000000800e630       0x50 build/obj/can.o
                0x000000000800e630                canReceive
 .text.i2cInit  0x000000000800e680       0x10 build/obj/i2c.o
                0x000000000800e680                i2cInit
 .text.i2cObjectInit
                0x000000000800e690       0x10 build/obj/i2c.o
                0x000000000800e690                i2cObjectInit
 .text.i2cStart
                0x000000000800e6a0       0x20 build/obj/i2c.o
                0x000000000800e6a0                i2cStart
 .text.i2cStop  0x000000000800e6c0       0x20 build/obj/i2c.o
                0x000000000800e6c0                i2cStop
 .text.i2cMasterTransmitTimeout
                0x000000000800e6e0       0x40 build/obj/i2c.o
                0x000000000800e6e0                i2cMasterTransmitTimeout
 .text.i2cMasterReceiveTimeout
                0x000000000800e720       0x30 build/obj/i2c.o
                0x000000000800e720                i2cMasterReceiveTimeout
 .text.i2cAcquireBus
                0x000000000800e750       0x10 build/obj/i2c.o
                0x000000000800e750                i2cAcquireBus
 .text.i2cReleaseBus
                0x000000000800e760       0x10 build/obj/i2c.o
                0x000000000800e760                i2cReleaseBus
 .text.icuInit  0x000000000800e770       0x10 build/obj/icu.o
                0x000000000800e770                icuInit
 .text.icuObjectInit
                0x000000000800e780       0x10 build/obj/icu.o
                0x000000000800e780                icuObjectInit
 .text.icuStart
                0x000000000800e790       0x20 build/obj/icu.o
                0x000000000800e790                icuStart
 .text.icuStop  0x000000000800e7b0       0x20 build/obj/icu.o
                0x000000000800e7b0                icuStop
 .text.icuStartCapture
                0x000000000800e7d0       0x20 build/obj/icu.o
                0x000000000800e7d0                icuStartCapture
 .text.icuEnableNotifications
                0x000000000800e7f0       0x20 build/obj/icu.o
                0x000000000800e7f0                icuEnableNotifications
 .text.onotify  0x000000000800e810       0x60 build/obj/serial_usb.o
 .text.inotify  0x000000000800e870       0x70 build/obj/serial_usb.o
 .text.readt    0x000000000800e8e0       0x10 build/obj/serial_usb.o
 .text.read     0x000000000800e8f0       0x10 build/obj/serial_usb.o
 .text.writet   0x000000000800e900       0x10 build/obj/serial_usb.o
 .text.write    0x000000000800e910       0x10 build/obj/serial_usb.o
 .text.gett     0x000000000800e920       0x10 build/obj/serial_usb.o
 .text.get      0x000000000800e930       0x10 build/obj/serial_usb.o
 .text.putt     0x000000000800e940       0x10 build/obj/serial_usb.o
 .text.put      0x000000000800e950       0x10 build/obj/serial_usb.o
 .text.sduInit  0x000000000800e960       0x10 build/obj/serial_usb.o
                0x000000000800e960                sduInit
 .text.sduObjectInit
                0x000000000800e970       0x50 build/obj/serial_usb.o
                0x000000000800e970                sduObjectInit
 .text.sduStart
                0x000000000800e9c0       0x40 build/obj/serial_usb.o
                0x000000000800e9c0                sduStart
 .text.sduConfigureHookI
                0x000000000800ea00       0x50 build/obj/serial_usb.o
                0x000000000800ea00                sduConfigureHookI
 .text.sduRequestsHook
                0x000000000800ea50       0x40 build/obj/serial_usb.o
                0x000000000800ea50                sduRequestsHook
 .text.sduDataTransmitted
                0x000000000800ea90       0x70 build/obj/serial_usb.o
                0x000000000800ea90                sduDataTransmitted
 .text.sduDataReceived
                0x000000000800eb00       0x70 build/obj/serial_usb.o
                0x000000000800eb00                sduDataReceived
 .text.sduInterruptTransmitted
                0x000000000800eb70       0x10 build/obj/serial_usb.o
                0x000000000800eb70                sduInterruptTransmitted
 .text.spiInit  0x000000000800eb80       0x10 build/obj/spi.o
                0x000000000800eb80                spiInit
 .text.spiObjectInit
                0x000000000800eb90       0x10 build/obj/spi.o
                0x000000000800eb90                spiObjectInit
 .text.uartInit
                0x000000000800eba0       0x10 build/obj/uart.o
                0x000000000800eba0                uartInit
 .text.uartObjectInit
                0x000000000800ebb0       0x10 build/obj/uart.o
                0x000000000800ebb0                uartObjectInit
 .text.uartStart
                0x000000000800ebc0       0x20 build/obj/uart.o
                0x000000000800ebc0                uartStart
 .text.uartStop
                0x000000000800ebe0       0x20 build/obj/uart.o
                0x000000000800ebe0                uartStop
 .text.uartStartSend
                0x000000000800ec00       0x20 build/obj/uart.o
                0x000000000800ec00                uartStartSend
 .text.usbInit  0x000000000800ec20       0x10 build/obj/usb.o
                0x000000000800ec20                usbInit
 .text.usbObjectInit
                0x000000000800ec30       0x20 build/obj/usb.o
                0x000000000800ec30                usbObjectInit
 .text.usbStart
                0x000000000800ec50       0x30 build/obj/usb.o
                0x000000000800ec50                usbStart
 .text.usbStop  0x000000000800ec80       0x20 build/obj/usb.o
                0x000000000800ec80                usbStop
 .text.usbInitEndpointI
                0x000000000800eca0       0x40 build/obj/usb.o
                0x000000000800eca0                usbInitEndpointI
 .text.usbPrepareQueuedReceive
                0x000000000800ece0       0x20 build/obj/usb.o
                0x000000000800ece0                usbPrepareQueuedReceive
 .text.usbPrepareQueuedTransmit
                0x000000000800ed00       0x20 build/obj/usb.o
                0x000000000800ed00                usbPrepareQueuedTransmit
 .text.usbStartReceiveI
                0x000000000800ed20       0x30 build/obj/usb.o
                0x000000000800ed20                usbStartReceiveI
 .text.usbStartTransmitI
                0x000000000800ed50       0x30 build/obj/usb.o
                0x000000000800ed50                usbStartTransmitI
 .text._usb_reset
                0x000000000800ed80       0x30 build/obj/usb.o
                0x000000000800ed80                _usb_reset
 .text._usb_ep0setup
                0x000000000800edb0      0x350 build/obj/usb.o
                0x000000000800edb0                _usb_ep0setup
 .text._usb_ep0in
                0x000000000800f100       0xd0 build/obj/usb.o
                0x000000000800f100                _usb_ep0in
 .text._usb_ep0out
                0x000000000800f1d0       0x90 build/obj/usb.o
                0x000000000800f1d0                _usb_ep0out
 .text.nvicEnableVector
                0x000000000800f260       0x40 build/obj/nvic.o
                0x000000000800f260                nvicEnableVector
 .text.nvicDisableVector
                0x000000000800f2a0       0x30 build/obj/nvic.o
                0x000000000800f2a0                nvicDisableVector
 .text.nvicSetSystemHandlerPriority
                0x000000000800f2d0       0x10 build/obj/nvic.o
                0x000000000800f2d0                nvicSetSystemHandlerPriority
 .text.Vector6C
                0x000000000800f2e0       0x30 build/obj/stm32_dma.o
                0x000000000800f2e0                Vector6C
 .text.Vector70
                0x000000000800f310       0x30 build/obj/stm32_dma.o
                0x000000000800f310                Vector70
 .text.Vector74
                0x000000000800f340       0x30 build/obj/stm32_dma.o
                0x000000000800f340                Vector74
 .text.Vector78
                0x000000000800f370       0x30 build/obj/stm32_dma.o
                0x000000000800f370                Vector78
 .text.Vector7C
                0x000000000800f3a0       0x30 build/obj/stm32_dma.o
                0x000000000800f3a0                Vector7C
 .text.Vector80
                0x000000000800f3d0       0x30 build/obj/stm32_dma.o
                0x000000000800f3d0                Vector80
 .text.Vector84
                0x000000000800f400       0x30 build/obj/stm32_dma.o
                0x000000000800f400                Vector84
 .text.VectorFC
                0x000000000800f430       0x30 build/obj/stm32_dma.o
                0x000000000800f430                VectorFC
 .text.Vector120
                0x000000000800f460       0x30 build/obj/stm32_dma.o
                0x000000000800f460                Vector120
 .text.Vector124
                0x000000000800f490       0x30 build/obj/stm32_dma.o
                0x000000000800f490                Vector124
 .text.Vector128
                0x000000000800f4c0       0x30 build/obj/stm32_dma.o
                0x000000000800f4c0                Vector128
 .text.Vector12C
                0x000000000800f4f0       0x30 build/obj/stm32_dma.o
                0x000000000800f4f0                Vector12C
 .text.Vector130
                0x000000000800f520       0x30 build/obj/stm32_dma.o
                0x000000000800f520                Vector130
 .text.Vector150
                0x000000000800f550       0x30 build/obj/stm32_dma.o
                0x000000000800f550                Vector150
 .text.Vector154
                0x000000000800f580       0x30 build/obj/stm32_dma.o
                0x000000000800f580                Vector154
 .text.Vector158
                0x000000000800f5b0       0x30 build/obj/stm32_dma.o
                0x000000000800f5b0                Vector158
 .text.dmaInit  0x000000000800f5e0       0x50 build/obj/stm32_dma.o
                0x000000000800f5e0                dmaInit
 .text.dmaStreamAllocate
                0x000000000800f630       0xa0 build/obj/stm32_dma.o
                0x000000000800f630                dmaStreamAllocate
 .text.dmaStreamRelease
                0x000000000800f6d0       0x50 build/obj/stm32_dma.o
                0x000000000800f6d0                dmaStreamRelease
 .text.hal_lld_init
                0x000000000800f720       0x70 build/obj/hal_lld.o
                0x000000000800f720                hal_lld_init
 .text.stm32_clock_init
                0x000000000800f790       0xd0 build/obj/hal_lld.o
                0x000000000800f790                stm32_clock_init
 .text.SysTick_Handler
                0x000000000800f860       0x20 build/obj/st_lld.o
                0x000000000800f860                SysTick_Handler
 .text.st_lld_init
                0x000000000800f880       0x20 build/obj/st_lld.o
                0x000000000800f880                st_lld_init
 .text.can_lld_set_filters
                0x000000000800f8a0      0x120 build/obj/can_lld.o
 .text.Vector8C
                0x000000000800f9c0       0x40 build/obj/can_lld.o
                0x000000000800f9c0                Vector8C
 .text.Vector90
                0x000000000800fa00       0x70 build/obj/can_lld.o
                0x000000000800fa00                Vector90
 .text.Vector94
                0x000000000800fa70       0x70 build/obj/can_lld.o
                0x000000000800fa70                Vector94
 .text.Vector98
                0x000000000800fae0       0x80 build/obj/can_lld.o
                0x000000000800fae0                Vector98
 .text.can_lld_init
                0x000000000800fb60       0x30 build/obj/can_lld.o
                0x000000000800fb60                can_lld_init
 .text.can_lld_start
                0x000000000800fb90       0x70 build/obj/can_lld.o
                0x000000000800fb90                can_lld_start
 .text.can_lld_stop
                0x000000000800fc00       0x50 build/obj/can_lld.o
                0x000000000800fc00                can_lld_stop
 .text.can_lld_is_tx_empty
                0x000000000800fc50       0x40 build/obj/can_lld.o
                0x000000000800fc50                can_lld_is_tx_empty
 .text.can_lld_transmit
                0x000000000800fc90       0x80 build/obj/can_lld.o
                0x000000000800fc90                can_lld_transmit
 .text.can_lld_is_rx_nonempty
                0x000000000800fd10       0x40 build/obj/can_lld.o
                0x000000000800fd10                can_lld_is_rx_nonempty
 .text.can_lld_receive
                0x000000000800fd50       0xd0 build/obj/can_lld.o
                0x000000000800fd50                can_lld_receive
 .text._pal_lld_init
                0x000000000800fe20      0x1c0 build/obj/pal_lld.o
                0x000000000800fe20                _pal_lld_init
 .text._pal_lld_setgroupmode
                0x000000000800ffe0       0xd0 build/obj/pal_lld.o
                0x000000000800ffe0                _pal_lld_setgroupmode
 .text.i2c_lld_serve_tx_end_irq
                0x00000000080100b0       0x40 build/obj/i2c_lld.o
 .text.i2c_lld_serve_rx_end_irq
                0x00000000080100f0       0x70 build/obj/i2c_lld.o
 .text.VectorC4
                0x0000000008010160      0x100 build/obj/i2c_lld.o
                0x0000000008010160                VectorC4
 .text.VectorC8
                0x0000000008010260       0xe0 build/obj/i2c_lld.o
                0x0000000008010260                VectorC8
 .text.i2c_lld_init
                0x0000000008010340       0x30 build/obj/i2c_lld.o
                0x0000000008010340                i2c_lld_init
 .text.i2c_lld_start
                0x0000000008010370      0x180 build/obj/i2c_lld.o
                0x0000000008010370                i2c_lld_start
 .text.i2c_lld_stop
                0x00000000080104f0       0x90 build/obj/i2c_lld.o
                0x00000000080104f0                i2c_lld_stop
 .text.i2c_lld_master_receive_timeout
                0x0000000008010580       0x70 build/obj/i2c_lld.o
                0x0000000008010580                i2c_lld_master_receive_timeout
 .text.i2c_lld_master_transmit_timeout
                0x00000000080105f0       0xa0 build/obj/i2c_lld.o
                0x00000000080105f0                i2c_lld_master_transmit_timeout
 .text.usb_lld_pump
                0x0000000008010690      0x320 build/obj/usb_lld.o
                0x0000000008010690                usb_lld_pump
 .text.otg_disable_ep.isra.0
                0x00000000080109b0       0x80 build/obj/usb_lld.o
 .text.usb_lld_init
                0x0000000008010a30       0x30 build/obj/usb_lld.o
                0x0000000008010a30                usb_lld_init
 .text.usb_lld_start
                0x0000000008010a60       0xf0 build/obj/usb_lld.o
                0x0000000008010a60                usb_lld_start
 .text.usb_lld_stop
                0x0000000008010b50       0x50 build/obj/usb_lld.o
                0x0000000008010b50                usb_lld_stop
 .text.usb_lld_reset
                0x0000000008010ba0       0xc0 build/obj/usb_lld.o
                0x0000000008010ba0                usb_lld_reset
 .text.usb_lld_set_address
                0x0000000008010c60       0x20 build/obj/usb_lld.o
                0x0000000008010c60                usb_lld_set_address
 .text.usb_lld_init_endpoint
                0x0000000008010c80      0x170 build/obj/usb_lld.o
                0x0000000008010c80                usb_lld_init_endpoint
 .text.usb_lld_get_status_out
                0x0000000008010df0       0x20 build/obj/usb_lld.o
                0x0000000008010df0                usb_lld_get_status_out
 .text.usb_lld_get_status_in
                0x0000000008010e10       0x20 build/obj/usb_lld.o
                0x0000000008010e10                usb_lld_get_status_in
 .text.usb_lld_read_setup
                0x0000000008010e30       0x20 build/obj/usb_lld.o
                0x0000000008010e30                usb_lld_read_setup
 .text.usb_lld_prepare_receive
                0x0000000008010e50       0x50 build/obj/usb_lld.o
                0x0000000008010e50                usb_lld_prepare_receive
 .text.otg_epout_handler
                0x0000000008010ea0       0x90 build/obj/usb_lld.o
 .text.usb_lld_prepare_transmit
                0x0000000008010f30       0x50 build/obj/usb_lld.o
                0x0000000008010f30                usb_lld_prepare_transmit
 .text.otg_epin_handler
                0x0000000008010f80       0xd0 build/obj/usb_lld.o
 .text.Vector14C
                0x0000000008011050      0x110 build/obj/usb_lld.o
                0x0000000008011050                Vector14C
 .text.usb_lld_start_out
                0x0000000008011160       0x20 build/obj/usb_lld.o
                0x0000000008011160                usb_lld_start_out
 .text.usb_lld_start_in
                0x0000000008011180       0x30 build/obj/usb_lld.o
                0x0000000008011180                usb_lld_start_in
 .text.usb_lld_stall_out
                0x00000000080111b0       0x20 build/obj/usb_lld.o
                0x00000000080111b0                usb_lld_stall_out
 .text.usb_lld_stall_in
                0x00000000080111d0       0x20 build/obj/usb_lld.o
                0x00000000080111d0                usb_lld_stall_in
 .text.usb_lld_clear_out
                0x00000000080111f0       0x20 build/obj/usb_lld.o
                0x00000000080111f0                usb_lld_clear_out
 .text.usb_lld_clear_in
                0x0000000008011210       0x20 build/obj/usb_lld.o
                0x0000000008011210                usb_lld_clear_in
 .text.spi_lld_init
                0x0000000008011230       0x50 build/obj/spi_lld.o
                0x0000000008011230                spi_lld_init
 .text.VectorB4
                0x0000000008011280       0x80 build/obj/icu_lld.o
                0x0000000008011280                VectorB4
 .text.icu_lld_init
                0x0000000008011300       0x20 build/obj/icu_lld.o
                0x0000000008011300                icu_lld_init
 .text.icu_lld_start
                0x0000000008011320       0xc0 build/obj/icu_lld.o
                0x0000000008011320                icu_lld_start
 .text.icu_lld_stop
                0x00000000080113e0       0x40 build/obj/icu_lld.o
                0x00000000080113e0                icu_lld_stop
 .text.icu_lld_start_capture
                0x0000000008011420       0x20 build/obj/icu_lld.o
                0x0000000008011420                icu_lld_start_capture
 .text.icu_lld_enable_notifications
                0x0000000008011440       0x40 build/obj/icu_lld.o
                0x0000000008011440                icu_lld_enable_notifications
 .text.usart_stop
                0x0000000008011480       0x50 build/obj/uart_lld.o
 .text.serve_usart_irq
                0x00000000080114d0       0x70 build/obj/uart_lld.o
 .text.uart_lld_serve_tx_end_irq
                0x0000000008011540       0x50 build/obj/uart_lld.o
 .text.uart_lld_serve_rx_end_irq
                0x0000000008011590       0x90 build/obj/uart_lld.o
 .text.VectorDC
                0x0000000008011620       0x20 build/obj/uart_lld.o
                0x0000000008011620                VectorDC
 .text.Vector15C
                0x0000000008011640       0x20 build/obj/uart_lld.o
                0x0000000008011640                Vector15C
 .text.uart_lld_init
                0x0000000008011660       0x50 build/obj/uart_lld.o
                0x0000000008011660                uart_lld_init
 .text.uart_lld_start
                0x00000000080116b0      0x170 build/obj/uart_lld.o
                0x00000000080116b0                uart_lld_start
 .text.uart_lld_stop
                0x0000000008011820       0x60 build/obj/uart_lld.o
                0x0000000008011820                uart_lld_stop
 .text.uart_lld_start_send
                0x0000000008011880       0x40 build/obj/uart_lld.o
                0x0000000008011880                uart_lld_start_send
 .text._sbrk_r  0x00000000080118c0       0x20 build/obj/syscalls.o
                0x00000000080118c0                _sbrk_r
 .text.__early_init
                0x00000000080118e0       0x10 build/obj/board.o
                0x00000000080118e0                __early_init
 .text.boardInit
                0x00000000080118f0       0x10 build/obj/board.o
                0x00000000080118f0                boardInit
 .text.timer_thread
                0x0000000008011900       0x20 build/obj/main.o
 .text.periodic_thread
                0x0000000008011920      0x130 build/obj/main.o
 .text.startup.main
                0x0000000008011a50       0xa0 build/obj/main.o
                0x0000000008011a50                main
 .text.get_descriptor
                0x0000000008011af0       0x40 build/obj/comm_usb_serial.o
 .text.usb_event
                0x0000000008011b30       0x40 build/obj/comm_usb_serial.o
 .text.comm_usb_serial_init
                0x0000000008011b70       0x70 build/obj/comm_usb_serial.o
                0x0000000008011b70                comm_usb_serial_init
 .text.Vector88
                0x0000000008011be0       0x20 build/obj/irq_handlers.o
                0x0000000008011be0                Vector88
 .text.VectorE0
                0x0000000008011c00       0x20 build/obj/irq_handlers.o
                0x0000000008011c00                VectorE0
 .text.VectorB8
                0x0000000008011c20       0x30 build/obj/irq_handlers.o
                0x0000000008011c20                VectorB8
 .text.VectorF8
                0x0000000008011c50       0x30 build/obj/irq_handlers.o
                0x0000000008011c50                VectorF8
 .text.buffer_append_int16
                0x0000000008011c80       0x20 build/obj/buffer.o
                0x0000000008011c80                buffer_append_int16
 .text.buffer_append_uint16
                0x0000000008011ca0       0x20 build/obj/buffer.o
                0x0000000008011ca0                buffer_append_uint16
 .text.buffer_append_int32
                0x0000000008011cc0       0x30 build/obj/buffer.o
                0x0000000008011cc0                buffer_append_int32
 .text.buffer_append_uint32
                0x0000000008011cf0       0x30 build/obj/buffer.o
                0x0000000008011cf0                buffer_append_uint32
 .text.buffer_append_float16
                0x0000000008011d20       0x30 build/obj/buffer.o
                0x0000000008011d20                buffer_append_float16
 .text.buffer_append_float32
                0x0000000008011d50       0x20 build/obj/buffer.o
                0x0000000008011d50                buffer_append_float32
 .text.buffer_append_float32_auto
                0x0000000008011d70       0x80 build/obj/buffer.o
                0x0000000008011d70                buffer_append_float32_auto
 .text.buffer_get_int16
                0x0000000008011df0       0x20 build/obj/buffer.o
                0x0000000008011df0                buffer_get_int16
 .text.buffer_get_uint16
                0x0000000008011e10       0x20 build/obj/buffer.o
                0x0000000008011e10                buffer_get_uint16
 .text.buffer_get_int32
                0x0000000008011e30       0x30 build/obj/buffer.o
                0x0000000008011e30                buffer_get_int32
 .text.buffer_get_uint32
                0x0000000008011e60       0x30 build/obj/buffer.o
                0x0000000008011e60                buffer_get_uint32
 .text.buffer_get_float32
                0x0000000008011e90       0x20 build/obj/buffer.o
                0x0000000008011e90                buffer_get_float32
 .text.buffer_get_float32_auto
                0x0000000008011eb0       0x50 build/obj/buffer.o
                0x0000000008011eb0                buffer_get_float32_auto
 .text.send_packet
                0x0000000008011f00       0x20 build/obj/comm_usb.o
 .text.serial_process_thread
                0x0000000008011f20       0x70 build/obj/comm_usb.o
 .text.serial_read_thread
                0x0000000008011f90       0x70 build/obj/comm_usb.o
 .text.process_packet
                0x0000000008012000       0x20 build/obj/comm_usb.o
 .text.send_packet_wrapper
                0x0000000008012020       0x30 build/obj/comm_usb.o
 .text.comm_usb_init
                0x0000000008012050       0x60 build/obj/comm_usb.o
                0x0000000008012050                comm_usb_init
 .text.crc16    0x00000000080120b0       0x30 build/obj/crc.o
                0x00000000080120b0                crc16
 .text.filter_fft
                0x00000000080120e0      0x1f0 build/obj/digital_filter.o
                0x00000000080120e0                filter_fft
 .text.filter_hamming
                0x00000000080122d0       0xe0 build/obj/digital_filter.o
                0x00000000080122d0                filter_hamming
 .text.filter_create_fir_lowpass
                0x00000000080123b0       0xc0 build/obj/digital_filter.o
                0x00000000080123b0                filter_create_fir_lowpass
 .text.filter_run_fir_iteration
                0x0000000008012470       0x50 build/obj/digital_filter.o
                0x0000000008012470                filter_run_fir_iteration
 .text.filter_add_sample
                0x00000000080124c0       0x30 build/obj/digital_filter.o
                0x00000000080124c0                filter_add_sample
 .text.ledpwm_init
                0x00000000080124f0       0x60 build/obj/ledpwm.o
                0x00000000080124f0                ledpwm_init
 .text.ledpwm_set_intensity
                0x0000000008012550       0x50 build/obj/ledpwm.o
                0x0000000008012550                ledpwm_set_intensity
 .text.ledpwm_update_pwm
                0x00000000080125a0       0x40 build/obj/ledpwm.o
                0x00000000080125a0                ledpwm_update_pwm
 .text.update_adc_sample_pos
                0x00000000080125e0      0x200 build/obj/mcpwm.o
 .text.update_rpm_tacho
                0x00000000080127e0       0xa0 build/obj/mcpwm.o
 .text.update_sensor_mode
                0x0000000008012880       0x60 build/obj/mcpwm.o
 .text.update_timer_attempt
                0x00000000080128e0       0x80 build/obj/mcpwm.o
 .text.set_next_timer_settings
                0x0000000008012960       0x30 build/obj/mcpwm.o
 .text.set_switching_frequency
                0x0000000008012990       0x60 build/obj/mcpwm.o
 .text.set_duty_cycle_hw
                0x00000000080129f0      0x120 build/obj/mcpwm.o
 .text.set_next_comm_step
                0x0000000008012b10      0x540 build/obj/mcpwm.o
 .text.full_brake_hw
                0x0000000008013050       0x80 build/obj/mcpwm.o
 .text.stop_pwm_hw
                0x00000000080130d0       0x80 build/obj/mcpwm.o
 .text.commutate
                0x0000000008013150      0x100 build/obj/mcpwm.o
 .text.timer_thread
                0x0000000008013250      0x280 build/obj/mcpwm.o
 .text.mcpwm_deinit
                0x00000000080134d0       0x80 build/obj/mcpwm.o
                0x00000000080134d0                mcpwm_deinit
 .text.mcpwm_init_done
                0x0000000008013550       0x10 build/obj/mcpwm.o
                0x0000000008013550                mcpwm_init_done
 .text.mcpwm_init_hall_table
                0x0000000008013560       0x50 build/obj/mcpwm.o
                0x0000000008013560                mcpwm_init_hall_table
 .text.mcpwm_init
                0x00000000080135b0      0x6b0 build/obj/mcpwm.o
                0x00000000080135b0                mcpwm_init
 .text.mcpwm_set_configuration
                0x0000000008013c60       0x50 build/obj/mcpwm.o
                0x0000000008013c60                mcpwm_set_configuration
 .text.mcpwm_set_pid_speed
                0x0000000008013cb0       0x20 build/obj/mcpwm.o
                0x0000000008013cb0                mcpwm_set_pid_speed
 .text.mcpwm_set_brake_current
                0x0000000008013cd0       0xe0 build/obj/mcpwm.o
                0x0000000008013cd0                mcpwm_set_brake_current
 .text.mcpwm_get_comm_step
                0x0000000008013db0       0x10 build/obj/mcpwm.o
                0x0000000008013db0                mcpwm_get_comm_step
 .text.mcpwm_get_duty_cycle_now
                0x0000000008013dc0       0x10 build/obj/mcpwm.o
                0x0000000008013dc0                mcpwm_get_duty_cycle_now
 .text.mcpwm_get_switching_frequency_now
                0x0000000008013dd0       0x10 build/obj/mcpwm.o
                0x0000000008013dd0                mcpwm_get_switching_frequency_now
 .text.mcpwm_get_rpm
                0x0000000008013de0       0x30 build/obj/mcpwm.o
                0x0000000008013de0                mcpwm_get_rpm
 .text.mcpwm_get_state
                0x0000000008013e10       0x10 build/obj/mcpwm.o
                0x0000000008013e10                mcpwm_get_state
 .text.mcpwm_get_kv_filtered
                0x0000000008013e20       0x20 build/obj/mcpwm.o
                0x0000000008013e20                mcpwm_get_kv_filtered
 .text.mcpwm_get_tot_current
                0x0000000008013e40       0x10 build/obj/mcpwm.o
                0x0000000008013e40                mcpwm_get_tot_current
 .text.mcpwm_get_tot_current_filtered
                0x0000000008013e50       0x10 build/obj/mcpwm.o
                0x0000000008013e50                mcpwm_get_tot_current_filtered
 .text.mcpwm_get_tot_current_directional
                0x0000000008013e60       0x30 build/obj/mcpwm.o
                0x0000000008013e60                mcpwm_get_tot_current_directional
 .text.mcpwm_get_tot_current_directional_filtered
                0x0000000008013e90       0x30 build/obj/mcpwm.o
                0x0000000008013e90                mcpwm_get_tot_current_directional_filtered
 .text.mcpwm_get_tot_current_in_filtered
                0x0000000008013ec0       0x20 build/obj/mcpwm.o
                0x0000000008013ec0                mcpwm_get_tot_current_in_filtered
 .text.mcpwm_get_tachometer_value
                0x0000000008013ee0       0x20 build/obj/mcpwm.o
                0x0000000008013ee0                mcpwm_get_tachometer_value
 .text.mcpwm_get_tachometer_abs_value
                0x0000000008013f00       0x20 build/obj/mcpwm.o
                0x0000000008013f00                mcpwm_get_tachometer_abs_value
 .text.mcpwm_stop_pwm
                0x0000000008013f20       0x30 build/obj/mcpwm.o
                0x0000000008013f20                mcpwm_stop_pwm
 .text.mcpwm_adc_inj_int_handler
                0x0000000008013f50      0x460 build/obj/mcpwm.o
                0x0000000008013f50                mcpwm_adc_inj_int_handler
 .text.mcpwm_set_detect
                0x00000000080143b0       0x60 build/obj/mcpwm.o
                0x00000000080143b0                mcpwm_set_detect
 .text.mcpwm_get_detect_pos
                0x0000000008014410      0x110 build/obj/mcpwm.o
                0x0000000008014410                mcpwm_get_detect_pos
 .text.mcpwm_read_reset_avg_cycle_integrator
                0x0000000008014520       0x20 build/obj/mcpwm.o
                0x0000000008014520                mcpwm_read_reset_avg_cycle_integrator
 .text.mcpwm_get_last_adc_isr_duration
                0x0000000008014540       0x10 build/obj/mcpwm.o
                0x0000000008014540                mcpwm_get_last_adc_isr_duration
 .text.mcpwm_get_last_inj_adc_isr_duration
                0x0000000008014550       0x10 build/obj/mcpwm.o
                0x0000000008014550                mcpwm_get_last_inj_adc_isr_duration
 .text.mcpwm_get_rpm_dep
                0x0000000008014560       0x20 build/obj/mcpwm.o
                0x0000000008014560                mcpwm_get_rpm_dep
 .text.mcpwm_is_dccal_done
                0x0000000008014580       0x10 build/obj/mcpwm.o
                0x0000000008014580                mcpwm_is_dccal_done
 .text.mcpwm_switch_comm_mode
                0x0000000008014590       0x10 build/obj/mcpwm.o
                0x0000000008014590                mcpwm_switch_comm_mode
 .text.mcpwm_reset_hall_detect_table
                0x00000000080145a0       0x10 build/obj/mcpwm.o
                0x00000000080145a0                mcpwm_reset_hall_detect_table
 .text.mcpwm_get_hall_detect_result
                0x00000000080145b0       0xc0 build/obj/mcpwm.o
                0x00000000080145b0                mcpwm_get_hall_detect_result
 .text.mcpwm_read_hall_phase
                0x0000000008014670       0x50 build/obj/mcpwm.o
                0x0000000008014670                mcpwm_read_hall_phase
 .text.set_duty_cycle_ll
                0x00000000080146c0      0x1c0 build/obj/mcpwm.o
 .text.set_duty_cycle_hl
                0x0000000008014880      0x110 build/obj/mcpwm.o
 .text.mcpwm_set_duty
                0x0000000008014990       0x10 build/obj/mcpwm.o
                0x0000000008014990                mcpwm_set_duty
 .text.rpm_thread
                0x00000000080149a0      0x3d0 build/obj/mcpwm.o
 .text.mcpwm_set_pid_pos
                0x0000000008014d70       0x40 build/obj/mcpwm.o
                0x0000000008014d70                mcpwm_set_pid_pos
 .text.mcpwm_set_current
                0x0000000008014db0       0xa0 build/obj/mcpwm.o
                0x0000000008014db0                mcpwm_set_current
 .text.mcpwm_adc_int_handler
                0x0000000008014e50      0xc90 build/obj/mcpwm.o
                0x0000000008014e50                mcpwm_adc_int_handler
 .text.icuperiodcb
                0x0000000008015ae0       0x10 build/obj/servo_dec.o
 .text.icuwidthcb
                0x0000000008015af0      0x130 build/obj/servo_dec.o
 .text.servodec_init
                0x0000000008015c20       0x60 build/obj/servo_dec.o
                0x0000000008015c20                servodec_init
 .text.servodec_stop
                0x0000000008015c80       0x60 build/obj/servo_dec.o
                0x0000000008015c80                servodec_stop
 .text.servodec_set_pulse_options
                0x0000000008015ce0       0x20 build/obj/servo_dec.o
                0x0000000008015ce0                servodec_set_pulse_options
 .text.servodec_get_servo
                0x0000000008015d00       0x20 build/obj/servo_dec.o
                0x0000000008015d00                servodec_get_servo
 .text.servodec_get_time_since_update
                0x0000000008015d20       0x20 build/obj/servo_dec.o
                0x0000000008015d20                servodec_get_time_since_update
 .text.servodec_get_last_pulse_len
                0x0000000008015d40       0x20 build/obj/servo_dec.o
                0x0000000008015d40                servodec_get_last_pulse_len
 .text.utils_step_towards
                0x0000000008015d60       0x40 build/obj/utils.o
                0x0000000008015d60                utils_step_towards
 .text.utils_norm_angle
                0x0000000008015da0       0x40 build/obj/utils.o
                0x0000000008015da0                utils_norm_angle
 .text.utils_norm_angle_rad
                0x0000000008015de0       0x60 build/obj/utils.o
                0x0000000008015de0                utils_norm_angle_rad
 .text.utils_truncate_number
                0x0000000008015e40       0x30 build/obj/utils.o
                0x0000000008015e40                utils_truncate_number
 .text.utils_truncate_number_int
                0x0000000008015e70       0x20 build/obj/utils.o
                0x0000000008015e70                utils_truncate_number_int
 .text.utils_truncate_number_abs
                0x0000000008015e90       0x30 build/obj/utils.o
                0x0000000008015e90                utils_truncate_number_abs
 .text.utils_map
                0x0000000008015ec0       0x20 build/obj/utils.o
                0x0000000008015ec0                utils_map
 .text.utils_deadband
                0x0000000008015ee0       0x50 build/obj/utils.o
                0x0000000008015ee0                utils_deadband
 .text.utils_angle_difference
                0x0000000008015f30       0x60 build/obj/utils.o
                0x0000000008015f30                utils_angle_difference
 .text.utils_angle_difference_rad
                0x0000000008015f90       0x60 build/obj/utils.o
                0x0000000008015f90                utils_angle_difference_rad
 .text.utils_middle_of_3
                0x0000000008015ff0       0x70 build/obj/utils.o
                0x0000000008015ff0                utils_middle_of_3
 .text.utils_middle_of_3_int
                0x0000000008016060       0x40 build/obj/utils.o
                0x0000000008016060                utils_middle_of_3_int
 .text.utils_fast_atan2
                0x00000000080160a0       0x90 build/obj/utils.o
                0x00000000080160a0                utils_fast_atan2
 .text.utils_saturate_vector_2d
                0x0000000008016130       0xa0 build/obj/utils.o
                0x0000000008016130                utils_saturate_vector_2d
 .text.utils_fast_sincos_better
                0x00000000080161d0      0x130 build/obj/utils.o
                0x00000000080161d0                utils_fast_sincos_better
 .text.utils_min_abs
                0x0000000008016300       0x20 build/obj/utils.o
                0x0000000008016300                utils_min_abs
 .text.utils_max_abs
                0x0000000008016320       0x20 build/obj/utils.o
                0x0000000008016320                utils_max_abs
 .text.utils_throttle_curve
                0x0000000008016340      0x150 build/obj/utils.o
                0x0000000008016340                utils_throttle_curve
 .text.utils_sys_lock_cnt
                0x0000000008016490       0x20 build/obj/utils.o
                0x0000000008016490                utils_sys_lock_cnt
 .text.utils_sys_unlock_cnt
                0x00000000080164b0       0x20 build/obj/utils.o
                0x00000000080164b0                utils_sys_unlock_cnt
 .text.packet_init
                0x00000000080164d0       0x20 build/obj/packet.o
                0x00000000080164d0                packet_init
 .text.packet_send_packet
                0x00000000080164f0       0x90 build/obj/packet.o
                0x00000000080164f0                packet_send_packet
 .text.packet_timerfunc
                0x0000000008016580       0x50 build/obj/packet.o
                0x0000000008016580                packet_timerfunc
 .text.packet_process_byte
                0x00000000080165d0      0x150 build/obj/packet.o
                0x00000000080165d0                packet_process_byte
 .text.terminal_process_string
                0x0000000008016720     0x1100 build/obj/terminal.o
                0x0000000008016720                terminal_process_string
 .text.terminal_add_fault_data
                0x0000000008017820       0x40 build/obj/terminal.o
                0x0000000008017820                terminal_add_fault_data
 .text.terminal_register_command_callback
                0x0000000008017860       0x90 build/obj/terminal.o
                0x0000000008017860                terminal_register_command_callback
 .text.conf_general_init
                0x00000000080178f0       0x60 build/obj/conf_general.o
                0x00000000080178f0                conf_general_init
 .text.conf_general_get_default_app_configuration
                0x0000000008017950      0x150 build/obj/conf_general.o
                0x0000000008017950                conf_general_get_default_app_configuration
 .text.conf_general_get_default_mc_configuration
                0x0000000008017aa0      0x340 build/obj/conf_general.o
                0x0000000008017aa0                conf_general_get_default_mc_configuration
 .text.conf_general_read_app_configuration
                0x0000000008017de0       0x50 build/obj/conf_general.o
                0x0000000008017de0                conf_general_read_app_configuration
 .text.conf_general_store_app_configuration
                0x0000000008017e30       0x70 build/obj/conf_general.o
                0x0000000008017e30                conf_general_store_app_configuration
 .text.conf_general_read_mc_configuration
                0x0000000008017ea0       0x50 build/obj/conf_general.o
                0x0000000008017ea0                conf_general_read_mc_configuration
 .text.conf_general_store_mc_configuration
                0x0000000008017ef0       0x70 build/obj/conf_general.o
                0x0000000008017ef0                conf_general_store_mc_configuration
 .text.conf_general_detect_motor_param
                0x0000000008017f60      0x330 build/obj/conf_general.o
                0x0000000008017f60                conf_general_detect_motor_param
 .text.conf_general_measure_flux_linkage
                0x0000000008018290      0x2c0 build/obj/conf_general.o
                0x0000000008018290                conf_general_measure_flux_linkage
 .text.EE_VerifyPageFullWriteVariable
                0x0000000008018550       0x80 build/obj/eeprom.o
 .text.EE_EraseSectorIfNotEmpty.constprop.1
                0x00000000080185d0       0x30 build/obj/eeprom.o
 .text.EE_Format
                0x0000000008018600       0x30 build/obj/eeprom.o
 .text.EE_ReadVariable
                0x0000000008018630       0x70 build/obj/eeprom.o
                0x0000000008018630                EE_ReadVariable
 .text.EE_Init  0x00000000080186a0      0x150 build/obj/eeprom.o
                0x00000000080186a0                EE_Init
 .text.EE_WriteVariable
                0x00000000080187f0       0xc0 build/obj/eeprom.o
                0x00000000080187f0                EE_WriteVariable
 .text.detect_thread
                0x00000000080188b0      0x110 build/obj/commands.o
 .text.commands_init
                0x00000000080189c0       0x30 build/obj/commands.o
                0x00000000080189c0                commands_init
 .text.commands_set_send_func
                0x00000000080189f0       0x10 build/obj/commands.o
                0x00000000080189f0                commands_set_send_func
 .text.commands_send_packet
                0x0000000008018a00       0x10 build/obj/commands.o
                0x0000000008018a00                commands_send_packet
 .text.commands_printf
                0x0000000008018a10       0x50 build/obj/commands.o
                0x0000000008018a10                commands_printf
 .text.commands_send_rotor_pos
                0x0000000008018a60       0x40 build/obj/commands.o
                0x0000000008018a60                commands_send_rotor_pos
 .text.commands_get_disp_pos_mode
                0x0000000008018aa0       0x10 build/obj/commands.o
                0x0000000008018aa0                commands_get_disp_pos_mode
 .text.commands_send_appconf
                0x0000000008018ab0      0x2d0 build/obj/commands.o
                0x0000000008018ab0                commands_send_appconf
 .text.commands_process_packet
                0x0000000008018d80     0x1720 build/obj/commands.o
                0x0000000008018d80                commands_process_packet
 .text.timeout_thread
                0x000000000801a4a0       0x80 build/obj/timeout.o
 .text.timeout_init
                0x000000000801a520       0x60 build/obj/timeout.o
                0x000000000801a520                timeout_init
 .text.timeout_configure
                0x000000000801a580       0x20 build/obj/timeout.o
                0x000000000801a580                timeout_configure
 .text.timeout_reset
                0x000000000801a5a0       0x20 build/obj/timeout.o
                0x000000000801a5a0                timeout_reset
 .text.timeout_has_timeout
                0x000000000801a5c0       0x10 build/obj/timeout.o
                0x000000000801a5c0                timeout_has_timeout
 .text.timeout_get_timeout_msec
                0x000000000801a5d0       0x10 build/obj/timeout.o
                0x000000000801a5d0                timeout_get_timeout_msec
 .text.timeout_get_brake_current
                0x000000000801a5e0       0x10 build/obj/timeout.o
                0x000000000801a5e0                timeout_get_brake_current
 .text.cancom_read_thread
                0x000000000801a5f0       0xd0 build/obj/comm_can.o
 .text.comm_can_init
                0x000000000801a6c0       0xb0 build/obj/comm_can.o
                0x000000000801a6c0                comm_can_init
 .text.comm_can_set_baud
                0x000000000801a770       0x60 build/obj/comm_can.o
                0x000000000801a770                comm_can_set_baud
 .text.comm_can_transmit_eid
                0x000000000801a7d0       0x60 build/obj/comm_can.o
                0x000000000801a7d0                comm_can_transmit_eid
 .text.cancom_status_thread
                0x000000000801a830       0xb0 build/obj/comm_can.o
 .text.comm_can_transmit_sid
                0x000000000801a8e0       0x60 build/obj/comm_can.o
                0x000000000801a8e0                comm_can_transmit_sid
 .text.cancom_process_thread
                0x000000000801a940      0x3a0 build/obj/comm_can.o
 .text.comm_can_send_buffer
                0x000000000801ace0      0x160 build/obj/comm_can.o
                0x000000000801ace0                comm_can_send_buffer
 .text.send_packet_wrapper
                0x000000000801ae40       0x20 build/obj/comm_can.o
 .text.comm_can_set_duty
                0x000000000801ae60       0x40 build/obj/comm_can.o
                0x000000000801ae60                comm_can_set_duty
 .text.comm_can_set_current
                0x000000000801aea0       0x40 build/obj/comm_can.o
                0x000000000801aea0                comm_can_set_current
 .text.comm_can_set_current_brake
                0x000000000801aee0       0x40 build/obj/comm_can.o
                0x000000000801aee0                comm_can_set_current_brake
 .text.comm_can_get_status_msg_index
                0x000000000801af20       0x20 build/obj/comm_can.o
                0x000000000801af20                comm_can_get_status_msg_index
 .text.led_external_set_state
                0x000000000801af40       0x10 build/obj/led_external.o
                0x000000000801af40                led_external_set_state
 .text.led_external_set_reversed
                0x000000000801af50       0x10 build/obj/led_external.o
                0x000000000801af50                led_external_set_reversed
 .text.encoder_deinit
                0x000000000801af60       0x80 build/obj/encoder.o
                0x000000000801af60                encoder_deinit
 .text.encoder_init_abi
                0x000000000801afe0       0xc0 build/obj/encoder.o
                0x000000000801afe0                encoder_init_abi
 .text.encoder_init_as5047p_spi
                0x000000000801b0a0       0xa0 build/obj/encoder.o
                0x000000000801b0a0                encoder_init_as5047p_spi
 .text.encoder_is_configured
                0x000000000801b140       0x10 build/obj/encoder.o
                0x000000000801b140                encoder_is_configured
 .text.encoder_read_deg
                0x000000000801b150       0x70 build/obj/encoder.o
                0x000000000801b150                encoder_read_deg
 .text.encoder_cumulative_counts
                0x000000000801b1c0       0x20 build/obj/encoder.o
                0x000000000801b1c0                encoder_cumulative_counts
 .text.encoder_reset
                0x000000000801b1e0       0x80 build/obj/encoder.o
                0x000000000801b1e0                encoder_reset
 .text.encoder_tim_isr
                0x000000000801b260       0xe0 build/obj/encoder.o
                0x000000000801b260                encoder_tim_isr
 .text.encoder_set_counts
                0x000000000801b340       0x30 build/obj/encoder.o
                0x000000000801b340                encoder_set_counts
 .text.encoder_index_found
                0x000000000801b370       0x10 build/obj/encoder.o
                0x000000000801b370                encoder_index_found
 .text.flash_helper_erase_new_app
                0x000000000801b380       0x70 build/obj/flash_helper.o
                0x000000000801b380                flash_helper_erase_new_app
 .text.flash_helper_write_new_app_data
                0x000000000801b3f0       0x60 build/obj/flash_helper.o
                0x000000000801b3f0                flash_helper_write_new_app_data
 .text.flash_helper_jump_to_bootloader
                0x000000000801b450       0x90 build/obj/flash_helper.o
                0x000000000801b450                flash_helper_jump_to_bootloader
 .text.flash_helper_get_sector_address
                0x000000000801b4e0       0x30 build/obj/flash_helper.o
                0x000000000801b4e0                flash_helper_get_sector_address
 .text.sample_send_thread
                0x000000000801b510      0x230 build/obj/mc_interface.o
 .text.mc_interface_init
                0x000000000801b740      0x1c0 build/obj/mc_interface.o
                0x000000000801b740                mc_interface_init
 .text.mc_interface_get_configuration
                0x000000000801b900       0x10 build/obj/mc_interface.o
                0x000000000801b900                mc_interface_get_configuration
 .text.mc_interface_dccal_done
                0x000000000801b910       0x20 build/obj/mc_interface.o
                0x000000000801b910                mc_interface_dccal_done
 .text.mc_interface_lock
                0x000000000801b930       0x10 build/obj/mc_interface.o
                0x000000000801b930                mc_interface_lock
 .text.mc_interface_unlock
                0x000000000801b940       0x10 build/obj/mc_interface.o
                0x000000000801b940                mc_interface_unlock
 .text.mc_interface_lock_override_once
                0x000000000801b950       0x10 build/obj/mc_interface.o
                0x000000000801b950                mc_interface_lock_override_once
 .text.mc_interface_get_fault
                0x000000000801b960       0x10 build/obj/mc_interface.o
                0x000000000801b960                mc_interface_get_fault
 .text.mc_interface_fault_to_string
                0x000000000801b970       0x20 build/obj/mc_interface.o
                0x000000000801b970                mc_interface_fault_to_string
 .text.mc_interface_get_state
                0x000000000801b990       0x20 build/obj/mc_interface.o
                0x000000000801b990                mc_interface_get_state
 .text.mc_interface_get_duty_cycle_now
                0x000000000801b9b0       0x50 build/obj/mc_interface.o
                0x000000000801b9b0                mc_interface_get_duty_cycle_now
 .text.mc_interface_get_sampling_frequency_now
                0x000000000801ba00       0x30 build/obj/mc_interface.o
                0x000000000801ba00                mc_interface_get_sampling_frequency_now
 .text.mc_interface_get_rpm
                0x000000000801ba30       0x50 build/obj/mc_interface.o
                0x000000000801ba30                mc_interface_get_rpm
 .text.mc_interface_get_amp_hours
                0x000000000801ba80       0x20 build/obj/mc_interface.o
                0x000000000801ba80                mc_interface_get_amp_hours
 .text.mc_interface_get_amp_hours_charged
                0x000000000801baa0       0x20 build/obj/mc_interface.o
                0x000000000801baa0                mc_interface_get_amp_hours_charged
 .text.mc_interface_get_watt_hours
                0x000000000801bac0       0x20 build/obj/mc_interface.o
                0x000000000801bac0                mc_interface_get_watt_hours
 .text.mc_interface_get_watt_hours_charged
                0x000000000801bae0       0x20 build/obj/mc_interface.o
                0x000000000801bae0                mc_interface_get_watt_hours_charged
 .text.mc_interface_get_tot_current
                0x000000000801bb00       0x30 build/obj/mc_interface.o
                0x000000000801bb00                mc_interface_get_tot_current
 .text.mc_interface_get_tot_current_filtered
                0x000000000801bb30       0x30 build/obj/mc_interface.o
                0x000000000801bb30                mc_interface_get_tot_current_filtered
 .text.mc_interface_get_tot_current_directional
                0x000000000801bb60       0x50 build/obj/mc_interface.o
                0x000000000801bb60                mc_interface_get_tot_current_directional
 .text.mc_interface_get_tot_current_directional_filtered
                0x000000000801bbb0       0x50 build/obj/mc_interface.o
                0x000000000801bbb0                mc_interface_get_tot_current_directional_filtered
 .text.mc_interface_get_tot_current_in_filtered
                0x000000000801bc00       0x30 build/obj/mc_interface.o
                0x000000000801bc00                mc_interface_get_tot_current_in_filtered
 .text.mc_interface_get_tachometer_value
                0x000000000801bc30       0x60 build/obj/mc_interface.o
                0x000000000801bc30                mc_interface_get_tachometer_value
 .text.mc_interface_fault_stop.part.1
                0x000000000801bc90      0x150 build/obj/mc_interface.o
 .text.update_override_limits.constprop.2
                0x000000000801bde0      0x5e0 build/obj/mc_interface.o
 .text.mc_interface_set_configuration
                0x000000000801c3c0       0xd0 build/obj/mc_interface.o
                0x000000000801c3c0                mc_interface_set_configuration
 .text.timer_thread
                0x000000000801c490       0x50 build/obj/mc_interface.o
 .text.mc_interface_get_tachometer_abs_value
                0x000000000801c4e0       0x20 build/obj/mc_interface.o
                0x000000000801c4e0                mc_interface_get_tachometer_abs_value
 .text.mc_interface_get_last_inj_adc_isr_duration
                0x000000000801c500       0x30 build/obj/mc_interface.o
                0x000000000801c500                mc_interface_get_last_inj_adc_isr_duration
 .text.mc_interface_read_reset_avg_motor_current
                0x000000000801c530       0x20 build/obj/mc_interface.o
                0x000000000801c530                mc_interface_read_reset_avg_motor_current
 .text.mc_interface_read_reset_avg_input_current
                0x000000000801c550       0x20 build/obj/mc_interface.o
                0x000000000801c550                mc_interface_read_reset_avg_input_current
 .text.mc_interface_read_reset_avg_id
                0x000000000801c570       0x40 build/obj/mc_interface.o
                0x000000000801c570                mc_interface_read_reset_avg_id
 .text.mc_interface_read_reset_avg_iq
                0x000000000801c5b0       0x40 build/obj/mc_interface.o
                0x000000000801c5b0                mc_interface_read_reset_avg_iq
 .text.mc_interface_get_pid_pos_set
                0x000000000801c5f0       0x10 build/obj/mc_interface.o
                0x000000000801c5f0                mc_interface_get_pid_pos_set
 .text.mc_interface_get_pid_pos_now
                0x000000000801c600       0x50 build/obj/mc_interface.o
                0x000000000801c600                mc_interface_get_pid_pos_now
 .text.mc_interface_get_last_sample_adc_isr_duration
                0x000000000801c650       0x10 build/obj/mc_interface.o
                0x000000000801c650                mc_interface_get_last_sample_adc_isr_duration
 .text.mc_interface_sample_print_data
                0x000000000801c660       0x60 build/obj/mc_interface.o
                0x000000000801c660                mc_interface_sample_print_data
 .text.mc_interface_temp_fet_filtered
                0x000000000801c6c0       0x10 build/obj/mc_interface.o
                0x000000000801c6c0                mc_interface_temp_fet_filtered
 .text.mc_interface_temp_motor_filtered
                0x000000000801c6d0       0x10 build/obj/mc_interface.o
                0x000000000801c6d0                mc_interface_temp_motor_filtered
 .text.mc_interface_try_input
                0x000000000801c6e0       0x80 build/obj/mc_interface.o
                0x000000000801c6e0                mc_interface_try_input
 .text.mc_interface_set_duty
                0x000000000801c760       0x70 build/obj/mc_interface.o
                0x000000000801c760                mc_interface_set_duty
 .text.mc_interface_set_pid_speed
                0x000000000801c7d0       0x70 build/obj/mc_interface.o
                0x000000000801c7d0                mc_interface_set_pid_speed
 .text.mc_interface_set_pid_pos
                0x000000000801c840       0x90 build/obj/mc_interface.o
                0x000000000801c840                mc_interface_set_pid_pos
 .text.mc_interface_set_current
                0x000000000801c8d0       0x70 build/obj/mc_interface.o
                0x000000000801c8d0                mc_interface_set_current
 .text.mc_interface_set_current_rel
                0x000000000801c940       0x30 build/obj/mc_interface.o
                0x000000000801c940                mc_interface_set_current_rel
 .text.mc_interface_release_motor
                0x000000000801c970       0x10 build/obj/mc_interface.o
                0x000000000801c970                mc_interface_release_motor
 .text.mc_interface_set_brake_current
                0x000000000801c980       0x70 build/obj/mc_interface.o
                0x000000000801c980                mc_interface_set_brake_current
 .text.mc_interface_set_brake_current_rel
                0x000000000801c9f0       0x20 build/obj/mc_interface.o
                0x000000000801c9f0                mc_interface_set_brake_current_rel
 .text.mc_interface_set_handbrake
                0x000000000801ca10       0x50 build/obj/mc_interface.o
                0x000000000801ca10                mc_interface_set_handbrake
 .text.mc_interface_mc_timer_isr
                0x000000000801ca60      0x6e0 build/obj/mc_interface.o
                0x000000000801ca60                mc_interface_mc_timer_isr
 .text.mc_interface_adc_inj_int_handler
                0x000000000801d140       0x20 build/obj/mc_interface.o
                0x000000000801d140                mc_interface_adc_inj_int_handler
 .text.correct_encoder
                0x000000000801d160       0x70 build/obj/mcpwm_foc.o
 .text.start_pwm_hw
                0x000000000801d1d0       0x70 build/obj/mcpwm_foc.o
 .text.stop_pwm_hw
                0x000000000801d240       0x80 build/obj/mcpwm_foc.o
 .text.read_hall
                0x000000000801d2c0       0x70 build/obj/mcpwm_foc.o
 .text.correct_hall
                0x000000000801d330      0x1f0 build/obj/mcpwm_foc.o
 .text.timer_thread
                0x000000000801d520      0x490 build/obj/mcpwm_foc.o
 .text.mcpwm_foc_init
                0x000000000801d9b0      0x5b0 build/obj/mcpwm_foc.o
                0x000000000801d9b0                mcpwm_foc_init
 .text.mcpwm_foc_deinit
                0x000000000801df60       0x70 build/obj/mcpwm_foc.o
                0x000000000801df60                mcpwm_foc_deinit
 .text.mcpwm_foc_init_done
                0x000000000801dfd0       0x10 build/obj/mcpwm_foc.o
                0x000000000801dfd0                mcpwm_foc_init_done
 .text.mcpwm_foc_set_configuration
                0x000000000801dfe0       0x70 build/obj/mcpwm_foc.o
                0x000000000801dfe0                mcpwm_foc_set_configuration
 .text.mcpwm_foc_get_state
                0x000000000801e050       0x10 build/obj/mcpwm_foc.o
                0x000000000801e050                mcpwm_foc_get_state
 .text.mcpwm_foc_is_dccal_done
                0x000000000801e060       0x10 build/obj/mcpwm_foc.o
                0x000000000801e060                mcpwm_foc_is_dccal_done
 .text.mcpwm_foc_set_duty
                0x000000000801e070       0x30 build/obj/mcpwm_foc.o
                0x000000000801e070                mcpwm_foc_set_duty
 .text.mcpwm_foc_set_pid_speed
                0x000000000801e0a0       0x30 build/obj/mcpwm_foc.o
                0x000000000801e0a0                mcpwm_foc_set_pid_speed
 .text.mcpwm_foc_set_pid_pos
                0x000000000801e0d0       0x30 build/obj/mcpwm_foc.o
                0x000000000801e0d0                mcpwm_foc_set_pid_pos
 .text.mcpwm_foc_set_current
                0x000000000801e100       0x50 build/obj/mcpwm_foc.o
                0x000000000801e100                mcpwm_foc_set_current
 .text.mcpwm_foc_stop_pwm
                0x000000000801e150       0x10 build/obj/mcpwm_foc.o
                0x000000000801e150                mcpwm_foc_stop_pwm
 .text.mcpwm_foc_set_brake_current
                0x000000000801e160       0x50 build/obj/mcpwm_foc.o
                0x000000000801e160                mcpwm_foc_set_brake_current
 .text.mcpwm_foc_set_handbrake
                0x000000000801e1b0       0x50 build/obj/mcpwm_foc.o
                0x000000000801e1b0                mcpwm_foc_set_handbrake
 .text.mcpwm_foc_set_openloop
                0x000000000801e200       0xa0 build/obj/mcpwm_foc.o
                0x000000000801e200                mcpwm_foc_set_openloop
 .text.mcpwm_foc_get_duty_cycle_now
                0x000000000801e2a0       0x10 build/obj/mcpwm_foc.o
                0x000000000801e2a0                mcpwm_foc_get_duty_cycle_now
 .text.mcpwm_foc_get_pid_pos_now
                0x000000000801e2b0       0x10 build/obj/mcpwm_foc.o
                0x000000000801e2b0                mcpwm_foc_get_pid_pos_now
 .text.mcpwm_foc_get_sampling_frequency_now
                0x000000000801e2c0       0x20 build/obj/mcpwm_foc.o
                0x000000000801e2c0                mcpwm_foc_get_sampling_frequency_now
 .text.mcpwm_foc_get_rpm
                0x000000000801e2e0       0x20 build/obj/mcpwm_foc.o
                0x000000000801e2e0                mcpwm_foc_get_rpm
 .text.mcpwm_foc_get_tot_current
                0x000000000801e300       0x30 build/obj/mcpwm_foc.o
                0x000000000801e300                mcpwm_foc_get_tot_current
 .text.mcpwm_foc_get_tot_current_filtered
                0x000000000801e330       0x30 build/obj/mcpwm_foc.o
                0x000000000801e330                mcpwm_foc_get_tot_current_filtered
 .text.mcpwm_foc_get_abs_motor_current
                0x000000000801e360       0x10 build/obj/mcpwm_foc.o
                0x000000000801e360                mcpwm_foc_get_abs_motor_current
 .text.mcpwm_foc_get_abs_motor_current_filtered
                0x000000000801e370       0x10 build/obj/mcpwm_foc.o
                0x000000000801e370                mcpwm_foc_get_abs_motor_current_filtered
 .text.mcpwm_foc_get_tot_current_directional
                0x000000000801e380       0x10 build/obj/mcpwm_foc.o
                0x000000000801e380                mcpwm_foc_get_tot_current_directional
 .text.mcpwm_foc_get_tot_current_directional_filtered
                0x000000000801e390       0x10 build/obj/mcpwm_foc.o
                0x000000000801e390                mcpwm_foc_get_tot_current_directional_filtered
 .text.mcpwm_foc_get_id
                0x000000000801e3a0       0x10 build/obj/mcpwm_foc.o
                0x000000000801e3a0                mcpwm_foc_get_id
 .text.mcpwm_foc_get_iq
                0x000000000801e3b0       0x10 build/obj/mcpwm_foc.o
                0x000000000801e3b0                mcpwm_foc_get_iq
 .text.mcpwm_foc_get_tot_current_in_filtered
                0x000000000801e3c0       0x10 build/obj/mcpwm_foc.o
                0x000000000801e3c0                mcpwm_foc_get_tot_current_in_filtered
 .text.mcpwm_foc_get_tachometer_value
                0x000000000801e3d0       0x20 build/obj/mcpwm_foc.o
                0x000000000801e3d0                mcpwm_foc_get_tachometer_value
 .text.mcpwm_foc_get_tachometer_abs_value
                0x000000000801e3f0       0x20 build/obj/mcpwm_foc.o
                0x000000000801e3f0                mcpwm_foc_get_tachometer_abs_value
 .text.mcpwm_foc_get_phase
                0x000000000801e410       0x30 build/obj/mcpwm_foc.o
                0x000000000801e410                mcpwm_foc_get_phase
 .text.mcpwm_foc_get_phase_observer
                0x000000000801e440       0x30 build/obj/mcpwm_foc.o
                0x000000000801e440                mcpwm_foc_get_phase_observer
 .text.mcpwm_foc_get_phase_encoder
                0x000000000801e470       0x30 build/obj/mcpwm_foc.o
                0x000000000801e470                mcpwm_foc_get_phase_encoder
 .text.mcpwm_foc_get_vq
                0x000000000801e4a0       0x10 build/obj/mcpwm_foc.o
                0x000000000801e4a0                mcpwm_foc_get_vq
 .text.mcpwm_foc_encoder_detect
                0x000000000801e4b0      0x5b0 build/obj/mcpwm_foc.o
                0x000000000801e4b0                mcpwm_foc_encoder_detect
 .text.mcpwm_foc_measure_resistance
                0x000000000801ea60      0x120 build/obj/mcpwm_foc.o
                0x000000000801ea60                mcpwm_foc_measure_resistance
 .text.mcpwm_foc_measure_inductance
                0x000000000801eb80      0x110 build/obj/mcpwm_foc.o
                0x000000000801eb80                mcpwm_foc_measure_inductance
 .text.mcpwm_foc_measure_res_ind
                0x000000000801ec90      0x200 build/obj/mcpwm_foc.o
                0x000000000801ec90                mcpwm_foc_measure_res_ind
 .text.mcpwm_foc_hall_detect
                0x000000000801ee90      0x270 build/obj/mcpwm_foc.o
                0x000000000801ee90                mcpwm_foc_hall_detect
 .text.mcpwm_foc_print_state
                0x000000000801f100      0x180 build/obj/mcpwm_foc.o
                0x000000000801f100                mcpwm_foc_print_state
 .text.mcpwm_foc_get_last_inj_adc_isr_duration
                0x000000000801f280       0x10 build/obj/mcpwm_foc.o
                0x000000000801f280                mcpwm_foc_get_last_inj_adc_isr_duration
 .text.mcpwm_foc_tim_sample_int_handler
                0x000000000801f290       0x20 build/obj/mcpwm_foc.o
                0x000000000801f290                mcpwm_foc_tim_sample_int_handler
 .text.observer_update
                0x000000000801f2b0      0x1f0 build/obj/mcpwm_foc.o
                0x000000000801f2b0                observer_update
 .text.mcpwm_foc_adc_int_handler
                0x000000000801f4a0     0x13f0 build/obj/mcpwm_foc.o
                0x000000000801f4a0                mcpwm_foc_adc_int_handler
 .text.hw_init_gpio
                0x0000000008020890      0x160 build/obj/hw_410.o
                0x0000000008020890                hw_init_gpio
 .text.hw_setup_adc_channels
                0x00000000080209f0       0xe0 build/obj/hw_410.o
                0x00000000080209f0                hw_setup_adc_channels
 .text.hw_start_i2c
                0x0000000008020ad0       0x50 build/obj/hw_410.o
                0x0000000008020ad0                hw_start_i2c
 .text.hw_stop_i2c
                0x0000000008020b20       0x50 build/obj/hw_410.o
                0x0000000008020b20                hw_stop_i2c
 .text.hw_try_restore_i2c
                0x0000000008020b70       0xd0 build/obj/hw_410.o
                0x0000000008020b70                hw_try_restore_i2c
 .text.app_get_configuration
                0x0000000008020c40       0x10 build/obj/app.o
                0x0000000008020c40                app_get_configuration
 .text.app_set_configuration
                0x0000000008020c50       0xd0 build/obj/app.o
                0x0000000008020c50                app_set_configuration
 .text.ppm_thread
                0x0000000008020d20      0x630 build/obj/app_ppm.o
 .text.servodec_func
                0x0000000008021350       0x30 build/obj/app_ppm.o
 .text.update   0x0000000008021380       0x50 build/obj/app_ppm.o
 .text.app_ppm_configure
                0x00000000080213d0       0x50 build/obj/app_ppm.o
                0x00000000080213d0                app_ppm_configure
 .text.app_ppm_start
                0x0000000008021420       0x60 build/obj/app_ppm.o
                0x0000000008021420                app_ppm_start
 .text.app_ppm_stop
                0x0000000008021480       0x40 build/obj/app_ppm.o
                0x0000000008021480                app_ppm_stop
 .text.app_ppm_get_decoded_level
                0x00000000080214c0       0x10 build/obj/app_ppm.o
                0x00000000080214c0                app_ppm_get_decoded_level
 .text.adc_thread
                0x00000000080214d0      0xb60 build/obj/app_adc.o
 .text.app_adc_configure
                0x0000000008022030       0x20 build/obj/app_adc.o
                0x0000000008022030                app_adc_configure
 .text.app_adc_start
                0x0000000008022050       0x40 build/obj/app_adc.o
                0x0000000008022050                app_adc_start
 .text.app_adc_stop
                0x0000000008022090       0x30 build/obj/app_adc.o
                0x0000000008022090                app_adc_stop
 .text.app_adc_get_decoded_level
                0x00000000080220c0       0x10 build/obj/app_adc.o
                0x00000000080220c0                app_adc_get_decoded_level
 .text.app_adc_get_voltage
                0x00000000080220d0       0x10 build/obj/app_adc.o
                0x00000000080220d0                app_adc_get_voltage
 .text.app_adc_get_decoded_level2
                0x00000000080220e0       0x10 build/obj/app_adc.o
                0x00000000080220e0                app_adc_get_decoded_level2
 .text.app_adc_get_voltage2
                0x00000000080220f0       0x10 build/obj/app_adc.o
                0x00000000080220f0                app_adc_get_voltage2
 .text.txend1   0x0000000008022100       0x10 build/obj/app_uartcomm.o
 .text.txend2   0x0000000008022110       0x10 build/obj/app_uartcomm.o
 .text.rxerr    0x0000000008022120       0x10 build/obj/app_uartcomm.o
 .text.rxend    0x0000000008022130       0x10 build/obj/app_uartcomm.o
 .text.rxchar   0x0000000008022140       0x40 build/obj/app_uartcomm.o
 .text.packet_process_thread
                0x0000000008022180       0x70 build/obj/app_uartcomm.o
 .text.process_packet
                0x00000000080221f0       0x20 build/obj/app_uartcomm.o
 .text.send_packet_wrapper
                0x0000000008022210       0x10 build/obj/app_uartcomm.o
 .text.send_packet
                0x0000000008022220       0x40 build/obj/app_uartcomm.o
 .text.app_uartcomm_start
                0x0000000008022260       0x90 build/obj/app_uartcomm.o
                0x0000000008022260                app_uartcomm_start
 .text.app_uartcomm_stop
                0x00000000080222f0       0x30 build/obj/app_uartcomm.o
                0x00000000080222f0                app_uartcomm_stop
 .text.app_uartcomm_configure
                0x0000000008022320       0x20 build/obj/app_uartcomm.o
                0x0000000008022320                app_uartcomm_configure
 .text.terminal_cmd_nunchuk_status
                0x0000000008022340       0x40 build/obj/app_nunchuk.o
 .text.output_thread
                0x0000000008022380      0x700 build/obj/app_nunchuk.o
 .text.app_nunchuk_configure
                0x0000000008022a80       0x30 build/obj/app_nunchuk.o
                0x0000000008022a80                app_nunchuk_configure
 .text.app_nunchuk_start
                0x0000000008022ab0       0x40 build/obj/app_nunchuk.o
                0x0000000008022ab0                app_nunchuk_start
 .text.app_nunchuk_stop
                0x0000000008022af0       0x30 build/obj/app_nunchuk.o
                0x0000000008022af0                app_nunchuk_stop
 .text.app_nunchuk_get_decoded_chuk
                0x0000000008022b20       0x30 build/obj/app_nunchuk.o
                0x0000000008022b20                app_nunchuk_get_decoded_chuk
 .text.app_nunchuk_update_output
                0x0000000008022b50       0x80 build/obj/app_nunchuk.o
                0x0000000008022b50                app_nunchuk_update_output
 .text.chuk_thread
                0x0000000008022bd0      0x1e0 build/obj/app_nunchuk.o
 .text.spi_sw_init
                0x0000000008022db0       0xa0 build/obj/spi_sw.o
                0x0000000008022db0                spi_sw_init
 .text.spi_sw_stop
                0x0000000008022e50       0x80 build/obj/spi_sw.o
                0x0000000008022e50                spi_sw_stop
 .text.spi_sw_transfer
                0x0000000008022ed0      0x140 build/obj/spi_sw.o
                0x0000000008022ed0                spi_sw_transfer
 .text.spi_sw_begin
                0x0000000008023010       0x40 build/obj/spi_sw.o
                0x0000000008023010                spi_sw_begin
 .text.spi_sw_end
                0x0000000008023050       0x40 build/obj/spi_sw.o
                0x0000000008023050                spi_sw_end
 .text.rf_init  0x0000000008023090       0x10 build/obj/rf.o
                0x0000000008023090                rf_init
 .text.rf_stop  0x00000000080230a0       0x10 build/obj/rf.o
                0x00000000080230a0                rf_stop
 .text.rf_write_tx_payload
                0x00000000080230b0       0x30 build/obj/rf.o
                0x00000000080230b0                rf_write_tx_payload
 .text.rf_write_tx_payload_no_ack
                0x00000000080230e0       0x30 build/obj/rf.o
                0x00000000080230e0                rf_write_tx_payload_no_ack
 .text.rf_read_rx_payload
                0x0000000008023110       0x30 build/obj/rf.o
                0x0000000008023110                rf_read_rx_payload
 .text.rf_flush_tx
                0x0000000008023140       0x30 build/obj/rf.o
                0x0000000008023140                rf_flush_tx
 .text.rf_flush_rx
                0x0000000008023170       0x30 build/obj/rf.o
                0x0000000008023170                rf_flush_rx
 .text.rf_flush_all
                0x00000000080231a0       0x10 build/obj/rf.o
                0x00000000080231a0                rf_flush_all
 .text.rf_get_payload_width
                0x00000000080231b0       0x40 build/obj/rf.o
                0x00000000080231b0                rf_get_payload_width
 .text.rf_status
                0x00000000080231f0       0x30 build/obj/rf.o
                0x00000000080231f0                rf_status
 .text.rf_write_reg
                0x0000000008023220       0x40 build/obj/rf.o
                0x0000000008023220                rf_write_reg
 .text.rf_set_rx_addr
                0x0000000008023260       0x10 build/obj/rf.o
                0x0000000008023260                rf_set_rx_addr
 .text.rf_set_tx_addr
                0x0000000008023270       0x10 build/obj/rf.o
                0x0000000008023270                rf_set_tx_addr
 .text.rf_set_address_width
                0x0000000008023280       0x20 build/obj/rf.o
                0x0000000008023280                rf_set_address_width
 .text.rf_set_frequency
                0x00000000080232a0       0x20 build/obj/rf.o
                0x00000000080232a0                rf_set_frequency
 .text.rf_clear_irq
                0x00000000080232c0       0x20 build/obj/rf.o
                0x00000000080232c0                rf_clear_irq
 .text.rf_clear_rx_irq
                0x00000000080232e0       0x20 build/obj/rf.o
                0x00000000080232e0                rf_clear_rx_irq
 .text.rf_clear_maxrt_irq
                0x0000000008023300       0x20 build/obj/rf.o
                0x0000000008023300                rf_clear_maxrt_irq
 .text.rf_write_reg_byte
                0x0000000008023320       0x20 build/obj/rf.o
                0x0000000008023320                rf_write_reg_byte
 .text.rf_read_reg
                0x0000000008023340       0x30 build/obj/rf.o
                0x0000000008023340                rf_read_reg
 .text.rf_set_speed
                0x0000000008023370       0x50 build/obj/rf.o
                0x0000000008023370                rf_set_speed
 .text.rf_set_power
                0x00000000080233c0       0x50 build/obj/rf.o
                0x00000000080233c0                rf_set_power
 .text.rf_set_crc_type
                0x0000000008023410       0x50 build/obj/rf.o
                0x0000000008023410                rf_set_crc_type
 .text.rf_set_retr_retries
                0x0000000008023460       0x40 build/obj/rf.o
                0x0000000008023460                rf_set_retr_retries
 .text.rf_set_retr_delay
                0x00000000080234a0       0x40 build/obj/rf.o
                0x00000000080234a0                rf_set_retr_delay
 .text.rf_power_up
                0x00000000080234e0       0x40 build/obj/rf.o
                0x00000000080234e0                rf_power_up
 .text.rf_power_down
                0x0000000008023520       0x40 build/obj/rf.o
                0x0000000008023520                rf_power_down
 .text.rf_mode_tx
                0x0000000008023560       0x40 build/obj/rf.o
                0x0000000008023560                rf_mode_tx
 .text.rf_mode_rx
                0x00000000080235a0       0x40 build/obj/rf.o
                0x00000000080235a0                rf_mode_rx
 .text.rf_enable_pipe_autoack
                0x00000000080235e0       0x40 build/obj/rf.o
                0x00000000080235e0                rf_enable_pipe_autoack
 .text.rf_enable_pipe_address
                0x0000000008023620       0x40 build/obj/rf.o
                0x0000000008023620                rf_enable_pipe_address
 .text.rf_enable_pipe_dlp
                0x0000000008023660       0x40 build/obj/rf.o
                0x0000000008023660                rf_enable_pipe_dlp
 .text.rf_enable_features
                0x00000000080236a0       0x40 build/obj/rf.o
                0x00000000080236a0                rf_enable_features
 .text.rfhelp_init
                0x00000000080236e0       0xe0 build/obj/rfhelp.o
                0x00000000080236e0                rfhelp_init
 .text.rfhelp_stop
                0x00000000080237c0       0x20 build/obj/rfhelp.o
                0x00000000080237c0                rfhelp_stop
 .text.rfhelp_restart
                0x00000000080237e0       0xd0 build/obj/rfhelp.o
                0x00000000080237e0                rfhelp_restart
 .text.rfhelp_update_conf
                0x00000000080238b0       0x30 build/obj/rfhelp.o
                0x00000000080238b0                rfhelp_update_conf
 .text.rfhelp_send_data
                0x00000000080238e0       0xb0 build/obj/rfhelp.o
                0x00000000080238e0                rfhelp_send_data
 .text.rfhelp_send_data_crc
                0x0000000008023990       0x50 build/obj/rfhelp.o
                0x0000000008023990                rfhelp_send_data_crc
 .text.rfhelp_read_rx_data
                0x00000000080239e0       0x70 build/obj/rfhelp.o
                0x00000000080239e0                rfhelp_read_rx_data
 .text.rfhelp_read_rx_data_crc
                0x0000000008023a50       0x50 build/obj/rfhelp.o
                0x0000000008023a50                rfhelp_read_rx_data_crc
 .text.rfhelp_power_up
                0x0000000008023aa0       0x20 build/obj/rfhelp.o
                0x0000000008023aa0                rfhelp_power_up
 .text.tx_thread
                0x0000000008023ac0       0x90 build/obj/nrf_driver.o
 .text.nrf_driver_send_buffer
                0x0000000008023b50      0x1c0 build/obj/nrf_driver.o
                0x0000000008023b50                nrf_driver_send_buffer
 .text.rx_thread
                0x0000000008023d10      0x310 build/obj/nrf_driver.o
 .text.nrf_driver_stop
                0x0000000008024020       0x50 build/obj/nrf_driver.o
                0x0000000008024020                nrf_driver_stop
 .text.nrf_driver_init
                0x0000000008024070       0xc0 build/obj/nrf_driver.o
                0x0000000008024070                nrf_driver_init
 .text.nrf_driver_start_pairing
                0x0000000008024130       0x90 build/obj/nrf_driver.o
                0x0000000008024130                nrf_driver_start_pairing
 .text.ADC_DeInit
                0x00000000080241c0       0x20 build/obj/stm32f4xx_adc.o
                0x00000000080241c0                ADC_DeInit
 .text.ADC_Init
                0x00000000080241e0       0x60 build/obj/stm32f4xx_adc.o
                0x00000000080241e0                ADC_Init
 .text.ADC_CommonInit
                0x0000000008024240       0x30 build/obj/stm32f4xx_adc.o
                0x0000000008024240                ADC_CommonInit
 .text.ADC_Cmd  0x0000000008024270       0x20 build/obj/stm32f4xx_adc.o
                0x0000000008024270                ADC_Cmd
 .text.ADC_TempSensorVrefintCmd
                0x0000000008024290       0x20 build/obj/stm32f4xx_adc.o
                0x0000000008024290                ADC_TempSensorVrefintCmd
 .text.ADC_RegularChannelConfig
                0x00000000080242b0       0xa0 build/obj/stm32f4xx_adc.o
                0x00000000080242b0                ADC_RegularChannelConfig
 .text.ADC_MultiModeDMARequestAfterLastTransferCmd
                0x0000000008024350       0x20 build/obj/stm32f4xx_adc.o
                0x0000000008024350                ADC_MultiModeDMARequestAfterLastTransferCmd
 .text.ADC_InjectedChannelConfig
                0x0000000008024370       0x60 build/obj/stm32f4xx_adc.o
                0x0000000008024370                ADC_InjectedChannelConfig
 .text.ADC_InjectedSequencerLengthConfig
                0x00000000080243d0       0x10 build/obj/stm32f4xx_adc.o
                0x00000000080243d0                ADC_InjectedSequencerLengthConfig
 .text.ADC_ExternalTrigInjectedConvConfig
                0x00000000080243e0       0x10 build/obj/stm32f4xx_adc.o
                0x00000000080243e0                ADC_ExternalTrigInjectedConvConfig
 .text.ADC_ExternalTrigInjectedConvEdgeConfig
                0x00000000080243f0       0x10 build/obj/stm32f4xx_adc.o
                0x00000000080243f0                ADC_ExternalTrigInjectedConvEdgeConfig
 .text.ADC_GetInjectedConversionValue
                0x0000000008024400       0x20 build/obj/stm32f4xx_adc.o
                0x0000000008024400                ADC_GetInjectedConversionValue
 .text.ADC_ITConfig
                0x0000000008024420       0x20 build/obj/stm32f4xx_adc.o
                0x0000000008024420                ADC_ITConfig
 .text.ADC_ClearITPendingBit
                0x0000000008024440       0x10 build/obj/stm32f4xx_adc.o
                0x0000000008024440                ADC_ClearITPendingBit
 .text.DMA_DeInit
                0x0000000008024450      0x130 build/obj/stm32f4xx_dma.o
                0x0000000008024450                DMA_DeInit
 .text.DMA_Init
                0x0000000008024580       0x70 build/obj/stm32f4xx_dma.o
                0x0000000008024580                DMA_Init
 .text.DMA_Cmd  0x00000000080245f0       0x20 build/obj/stm32f4xx_dma.o
                0x00000000080245f0                DMA_Cmd
 .text.DMA_ITConfig
                0x0000000008024610       0x40 build/obj/stm32f4xx_dma.o
                0x0000000008024610                DMA_ITConfig
 .text.EXTI_Init
                0x0000000008024650       0x80 build/obj/stm32f4xx_exti.o
                0x0000000008024650                EXTI_Init
 .text.EXTI_GetITStatus
                0x00000000080246d0       0x20 build/obj/stm32f4xx_exti.o
                0x00000000080246d0                EXTI_GetITStatus
 .text.EXTI_ClearITPendingBit
                0x00000000080246f0       0x10 build/obj/stm32f4xx_exti.o
                0x00000000080246f0                EXTI_ClearITPendingBit
 .text.FLASH_Unlock
                0x0000000008024700       0x20 build/obj/stm32f4xx_flash.o
                0x0000000008024700                FLASH_Unlock
 .text.FLASH_ClearFlag
                0x0000000008024720       0x10 build/obj/stm32f4xx_flash.o
                0x0000000008024720                FLASH_ClearFlag
 .text.FLASH_GetStatus
                0x0000000008024730       0x40 build/obj/stm32f4xx_flash.o
                0x0000000008024730                FLASH_GetStatus
 .text.FLASH_WaitForLastOperation
                0x0000000008024770       0x30 build/obj/stm32f4xx_flash.o
                0x0000000008024770                FLASH_WaitForLastOperation
 .text.FLASH_EraseSector
                0x00000000080247a0       0x80 build/obj/stm32f4xx_flash.o
                0x00000000080247a0                FLASH_EraseSector
 .text.FLASH_ProgramHalfWord
                0x0000000008024820       0x40 build/obj/stm32f4xx_flash.o
                0x0000000008024820                FLASH_ProgramHalfWord
 .text.FLASH_ProgramByte
                0x0000000008024860       0x40 build/obj/stm32f4xx_flash.o
                0x0000000008024860                FLASH_ProgramByte
 .text.RCC_AHB1PeriphClockCmd
                0x00000000080248a0       0x20 build/obj/stm32f4xx_rcc.o
                0x00000000080248a0                RCC_AHB1PeriphClockCmd
 .text.RCC_APB1PeriphClockCmd
                0x00000000080248c0       0x20 build/obj/stm32f4xx_rcc.o
                0x00000000080248c0                RCC_APB1PeriphClockCmd
 .text.RCC_APB2PeriphClockCmd
                0x00000000080248e0       0x20 build/obj/stm32f4xx_rcc.o
                0x00000000080248e0                RCC_APB2PeriphClockCmd
 .text.RCC_APB1PeriphResetCmd
                0x0000000008024900       0x20 build/obj/stm32f4xx_rcc.o
                0x0000000008024900                RCC_APB1PeriphResetCmd
 .text.RCC_APB2PeriphResetCmd
                0x0000000008024920       0x20 build/obj/stm32f4xx_rcc.o
                0x0000000008024920                RCC_APB2PeriphResetCmd
 .text.SYSCFG_EXTILineConfig
                0x0000000008024940       0x30 build/obj/stm32f4xx_syscfg.o
                0x0000000008024940                SYSCFG_EXTILineConfig
 .text.TIM_DeInit
                0x0000000008024970      0x1c0 build/obj/stm32f4xx_tim.o
                0x0000000008024970                TIM_DeInit
 .text.TIM_TimeBaseInit
                0x0000000008024b30       0xa0 build/obj/stm32f4xx_tim.o
                0x0000000008024b30                TIM_TimeBaseInit
 .text.TIM_SetAutoreload
                0x0000000008024bd0       0x10 build/obj/stm32f4xx_tim.o
                0x0000000008024bd0                TIM_SetAutoreload
 .text.TIM_ARRPreloadConfig
                0x0000000008024be0       0x20 build/obj/stm32f4xx_tim.o
                0x0000000008024be0                TIM_ARRPreloadConfig
 .text.TIM_Cmd  0x0000000008024c00       0x20 build/obj/stm32f4xx_tim.o
                0x0000000008024c00                TIM_Cmd
 .text.TIM_OC1Init
                0x0000000008024c20       0x90 build/obj/stm32f4xx_tim.o
                0x0000000008024c20                TIM_OC1Init
 .text.TIM_OC2Init
                0x0000000008024cb0       0xa0 build/obj/stm32f4xx_tim.o
                0x0000000008024cb0                TIM_OC2Init
 .text.TIM_OC3Init
                0x0000000008024d50       0x90 build/obj/stm32f4xx_tim.o
                0x0000000008024d50                TIM_OC3Init
 .text.TIM_OC4Init
                0x0000000008024de0       0x80 build/obj/stm32f4xx_tim.o
                0x0000000008024de0                TIM_OC4Init
 .text.TIM_SelectOCxM
                0x0000000008024e60       0x50 build/obj/stm32f4xx_tim.o
                0x0000000008024e60                TIM_SelectOCxM
 .text.TIM_OC1PreloadConfig
                0x0000000008024eb0       0x10 build/obj/stm32f4xx_tim.o
                0x0000000008024eb0                TIM_OC1PreloadConfig
 .text.TIM_OC2PreloadConfig
                0x0000000008024ec0       0x20 build/obj/stm32f4xx_tim.o
                0x0000000008024ec0                TIM_OC2PreloadConfig
 .text.TIM_OC3PreloadConfig
                0x0000000008024ee0       0x10 build/obj/stm32f4xx_tim.o
                0x0000000008024ee0                TIM_OC3PreloadConfig
 .text.TIM_OC4PreloadConfig
                0x0000000008024ef0       0x20 build/obj/stm32f4xx_tim.o
                0x0000000008024ef0                TIM_OC4PreloadConfig
 .text.TIM_CCxCmd
                0x0000000008024f10       0x20 build/obj/stm32f4xx_tim.o
                0x0000000008024f10                TIM_CCxCmd
 .text.TIM_CCxNCmd
                0x0000000008024f30       0x20 build/obj/stm32f4xx_tim.o
                0x0000000008024f30                TIM_CCxNCmd
 .text.TIM_BDTRConfig
                0x0000000008024f50       0x30 build/obj/stm32f4xx_tim.o
                0x0000000008024f50                TIM_BDTRConfig
 .text.TIM_CtrlPWMOutputs
                0x0000000008024f80       0x20 build/obj/stm32f4xx_tim.o
                0x0000000008024f80                TIM_CtrlPWMOutputs
 .text.TIM_CCPreloadControl
                0x0000000008024fa0       0x20 build/obj/stm32f4xx_tim.o
                0x0000000008024fa0                TIM_CCPreloadControl
 .text.TIM_ITConfig
                0x0000000008024fc0       0x20 build/obj/stm32f4xx_tim.o
                0x0000000008024fc0                TIM_ITConfig
 .text.TIM_GenerateEvent
                0x0000000008024fe0       0x10 build/obj/stm32f4xx_tim.o
                0x0000000008024fe0                TIM_GenerateEvent
 .text.TIM_GetITStatus
                0x0000000008024ff0       0x20 build/obj/stm32f4xx_tim.o
                0x0000000008024ff0                TIM_GetITStatus
 .text.TIM_ClearITPendingBit
                0x0000000008025010       0x10 build/obj/stm32f4xx_tim.o
                0x0000000008025010                TIM_ClearITPendingBit
 .text.TIM_SelectInputTrigger
                0x0000000008025020       0x10 build/obj/stm32f4xx_tim.o
                0x0000000008025020                TIM_SelectInputTrigger
 .text.TIM_SelectOutputTrigger
                0x0000000008025030       0x20 build/obj/stm32f4xx_tim.o
                0x0000000008025030                TIM_SelectOutputTrigger
 .text.TIM_SelectSlaveMode
                0x0000000008025050       0x20 build/obj/stm32f4xx_tim.o
                0x0000000008025050                TIM_SelectSlaveMode
 .text.TIM_SelectMasterSlaveMode
                0x0000000008025070       0x20 build/obj/stm32f4xx_tim.o
                0x0000000008025070                TIM_SelectMasterSlaveMode
 .text.TIM_EncoderInterfaceConfig
                0x0000000008025090       0x40 build/obj/stm32f4xx_tim.o
                0x0000000008025090                TIM_EncoderInterfaceConfig
 .text.WWDG_DeInit
                0x00000000080250d0       0x20 build/obj/stm32f4xx_wwdg.o
                0x00000000080250d0                WWDG_DeInit
 .text.WWDG_SetPrescaler
                0x00000000080250f0       0x20 build/obj/stm32f4xx_wwdg.o
                0x00000000080250f0                WWDG_SetPrescaler
 .text.WWDG_SetWindowValue
                0x0000000008025110       0x30 build/obj/stm32f4xx_wwdg.o
                0x0000000008025110                WWDG_SetWindowValue
 .text.WWDG_SetCounter
                0x0000000008025140       0x10 build/obj/stm32f4xx_wwdg.o
                0x0000000008025140                WWDG_SetCounter
 .text.WWDG_Enable
                0x0000000008025150       0x10 build/obj/stm32f4xx_wwdg.o
                0x0000000008025150                WWDG_Enable
 .text.cosf     0x0000000008025160       0x78 /usr/lib/gcc/arm-none-eabi/4.8/../../../arm-none-eabi/lib/armv7e-m/fpu/libm.a(lib_a-sf_cos.o)
                0x0000000008025160                cosf
 *fill*         0x00000000080251d8        0x8 
 .text.floorf   0x00000000080251e0       0xa0 /usr/lib/gcc/arm-none-eabi/4.8/../../../arm-none-eabi/lib/armv7e-m/fpu/libm.a(lib_a-sf_floor.o)
                0x00000000080251e0                floorf
 .text.frexpf   0x0000000008025280       0x54 /usr/lib/gcc/arm-none-eabi/4.8/../../../arm-none-eabi/lib/armv7e-m/fpu/libm.a(lib_a-sf_frexp.o)
                0x0000000008025280                frexpf
 *fill*         0x00000000080252d4        0xc 
 .text.ldexpf   0x00000000080252e0       0x5c /usr/lib/gcc/arm-none-eabi/4.8/../../../arm-none-eabi/lib/armv7e-m/fpu/libm.a(lib_a-sf_ldexp.o)
                0x00000000080252e0                ldexpf
 *fill*         0x000000000802533c        0x4 
 .text.roundf   0x0000000008025340       0x54 /usr/lib/gcc/arm-none-eabi/4.8/../../../arm-none-eabi/lib/armv7e-m/fpu/libm.a(lib_a-sf_round.o)
                0x0000000008025340                roundf
 *fill*         0x0000000008025394        0xc 
 .text.scalbnf  0x00000000080253a0       0xd8 /usr/lib/gcc/arm-none-eabi/4.8/../../../arm-none-eabi/lib/armv7e-m/fpu/libm.a(lib_a-sf_scalbn.o)
                0x00000000080253a0                scalbnf
 *fill*         0x0000000008025478        0x8 
 .text.sinf     0x0000000008025480       0x7c /usr/lib/gcc/arm-none-eabi/4.8/../../../arm-none-eabi/lib/armv7e-m/fpu/libm.a(lib_a-sf_sin.o)
                0x0000000008025480                sinf
 *fill*         0x00000000080254fc        0x4 
 .text.asinf    0x0000000008025500       0xbc /usr/lib/gcc/arm-none-eabi/4.8/../../../arm-none-eabi/lib/armv7e-m/fpu/libm.a(lib_a-wf_asin.o)
                0x0000000008025500                asinf
 *fill*         0x00000000080255bc        0x4 
 .text.atan2f   0x00000000080255c0        0x4 /usr/lib/gcc/arm-none-eabi/4.8/../../../arm-none-eabi/lib/armv7e-m/fpu/libm.a(lib_a-wf_atan2.o)
                0x00000000080255c0                atan2f
 *fill*         0x00000000080255c4        0xc 
 .text.expf     0x00000000080255d0      0x104 /usr/lib/gcc/arm-none-eabi/4.8/../../../arm-none-eabi/lib/armv7e-m/fpu/libm.a(lib_a-wf_exp.o)
                0x00000000080255d0                expf
 *fill*         0x00000000080256d4        0xc 
 .text.fmodf    0x00000000080256e0       0xcc /usr/lib/gcc/arm-none-eabi/4.8/../../../arm-none-eabi/lib/armv7e-m/fpu/libm.a(lib_a-wf_fmod.o)
                0x00000000080256e0                fmodf
 *fill*         0x00000000080257ac        0x4 
 .text.logf     0x00000000080257b0       0xf0 /usr/lib/gcc/arm-none-eabi/4.8/../../../arm-none-eabi/lib/armv7e-m/fpu/libm.a(lib_a-wf_log.o)
                0x00000000080257b0                logf
 .text.powf     0x00000000080258a0      0x348 /usr/lib/gcc/arm-none-eabi/4.8/../../../arm-none-eabi/lib/armv7e-m/fpu/libm.a(lib_a-wf_pow.o)
                0x00000000080258a0                powf
 *fill*         0x0000000008025be8        0x8 
 .text.sincosf  0x0000000008025bf0       0x28 /usr/lib/gcc/arm-none-eabi/4.8/../../../arm-none-eabi/lib/armv7e-m/fpu/libm.a(lib_a-wf_sincos.o)
                0x0000000008025bf0                sincosf
 *fill*         0x0000000008025c18        0x8 
 .text.sqrtf    0x0000000008025c20       0xb8 /usr/lib/gcc/arm-none-eabi/4.8/../../../arm-none-eabi/lib/armv7e-m/fpu/libm.a(lib_a-wf_sqrt.o)
                0x0000000008025c20                sqrtf
 *fill*         0x0000000008025cd8        0x8 
 .text.sqrt     0x0000000008025ce0       0xbc /usr/lib/gcc/arm-none-eabi/4.8/../../../arm-none-eabi/lib/armv7e-m/fpu/libm.a(lib_a-w_sqrt.o)
                0x0000000008025ce0                sqrt
 *fill*         0x0000000008025d9c        0x4 
 .text.__ieee754_asinf
                0x0000000008025da0      0x210 /usr/lib/gcc/arm-none-eabi/4.8/../../../arm-none-eabi/lib/armv7e-m/fpu/libm.a(lib_a-ef_asin.o)
                0x0000000008025da0                __ieee754_asinf
 .text.__ieee754_atan2f
                0x0000000008025fb0      0x164 /usr/lib/gcc/arm-none-eabi/4.8/../../../arm-none-eabi/lib/armv7e-m/fpu/libm.a(lib_a-ef_atan2.o)
                0x0000000008025fb0                __ieee754_atan2f
 *fill*         0x0000000008026114        0xc 
 .text.__ieee754_expf
                0x0000000008026120      0x1bc /usr/lib/gcc/arm-none-eabi/4.8/../../../arm-none-eabi/lib/armv7e-m/fpu/libm.a(lib_a-ef_exp.o)
                0x0000000008026120                __ieee754_expf
 *fill*         0x00000000080262dc        0x4 
 .text.__ieee754_fmodf
                0x00000000080262e0      0x118 /usr/lib/gcc/arm-none-eabi/4.8/../../../arm-none-eabi/lib/armv7e-m/fpu/libm.a(lib_a-ef_fmod.o)
                0x00000000080262e0                __ieee754_fmodf
 *fill*         0x00000000080263f8        0x8 
 .text.__ieee754_logf
                0x0000000008026400      0x204 /usr/lib/gcc/arm-none-eabi/4.8/../../../arm-none-eabi/lib/armv7e-m/fpu/libm.a(lib_a-ef_log.o)
                0x0000000008026400                __ieee754_logf
 *fill*         0x0000000008026604        0xc 
 .text.__ieee754_powf
                0x0000000008026610      0x5c8 /usr/lib/gcc/arm-none-eabi/4.8/../../../arm-none-eabi/lib/armv7e-m/fpu/libm.a(lib_a-ef_pow.o)
                0x0000000008026610                __ieee754_powf
 *fill*         0x0000000008026bd8        0x8 
 .text.__ieee754_rem_pio2f
                0x0000000008026be0      0x28c /usr/lib/gcc/arm-none-eabi/4.8/../../../arm-none-eabi/lib/armv7e-m/fpu/libm.a(lib_a-ef_rem_pio2.o)
                0x0000000008026be0                __ieee754_rem_pio2f
 *fill*         0x0000000008026e6c        0x4 
 .text.__ieee754_sqrtf
                0x0000000008026e70       0xa4 /usr/lib/gcc/arm-none-eabi/4.8/../../../arm-none-eabi/lib/armv7e-m/fpu/libm.a(lib_a-ef_sqrt.o)
                0x0000000008026e70                __ieee754_sqrtf
 *fill*         0x0000000008026f14        0xc 
 .text.__ieee754_sqrt
                0x0000000008026f20      0x198 /usr/lib/gcc/arm-none-eabi/4.8/../../../arm-none-eabi/lib/armv7e-m/fpu/libm.a(lib_a-e_sqrt.o)
                0x0000000008026f20                __ieee754_sqrt
 *fill*         0x00000000080270b8        0x8 
 .text.__kernel_cosf
                0x00000000080270c0      0x104 /usr/lib/gcc/arm-none-eabi/4.8/../../../arm-none-eabi/lib/armv7e-m/fpu/libm.a(lib_a-kf_cos.o)
                0x00000000080270c0                __kernel_cosf
 *fill*         0x00000000080271c4        0xc 
 .text.__kernel_rem_pio2f
                0x00000000080271d0      0x5cc /usr/lib/gcc/arm-none-eabi/4.8/../../../arm-none-eabi/lib/armv7e-m/fpu/libm.a(lib_a-kf_rem_pio2.o)
                0x00000000080271d0                __kernel_rem_pio2f
 *fill*         0x000000000802779c        0x4 
 .text.__kernel_sinf
                0x00000000080277a0       0x90 /usr/lib/gcc/arm-none-eabi/4.8/../../../arm-none-eabi/lib/armv7e-m/fpu/libm.a(lib_a-kf_sin.o)
                0x00000000080277a0                __kernel_sinf
 .text.atanf    0x0000000008027830      0x1b0 /usr/lib/gcc/arm-none-eabi/4.8/../../../arm-none-eabi/lib/armv7e-m/fpu/libm.a(lib_a-sf_atan.o)
                0x0000000008027830                atanf
 .text.copysignf
                0x00000000080279e0       0x18 /usr/lib/gcc/arm-none-eabi/4.8/../../../arm-none-eabi/lib/armv7e-m/fpu/libm.a(lib_a-sf_copysign.o)
                0x00000000080279e0                copysignf
 *fill*         0x00000000080279f8        0x8 
 .text.fabsf    0x0000000008027a00       0x10 /usr/lib/gcc/arm-none-eabi/4.8/../../../arm-none-eabi/lib/armv7e-m/fpu/libm.a(lib_a-sf_fabs.o)
                0x0000000008027a00                fabsf
 .text.finitef  0x0000000008027a10       0x14 /usr/lib/gcc/arm-none-eabi/4.8/../../../arm-none-eabi/lib/armv7e-m/fpu/libm.a(lib_a-sf_finite.o)
                0x0000000008027a10                finitef
 *fill*         0x0000000008027a24        0xc 
 .text.__fpclassifyf
                0x0000000008027a30       0x38 /usr/lib/gcc/arm-none-eabi/4.8/../../../arm-none-eabi/lib/armv7e-m/fpu/libm.a(lib_a-sf_fpclassify.o)
                0x0000000008027a30                __fpclassifyf
 *fill*         0x0000000008027a68        0x8 
 .text.nanf     0x0000000008027a70        0xc /usr/lib/gcc/arm-none-eabi/4.8/../../../arm-none-eabi/lib/armv7e-m/fpu/libm.a(lib_a-sf_nan.o)
                0x0000000008027a70                nanf
 *fill*         0x0000000008027a7c        0x4 
 .text.__fpclassifyd
                0x0000000008027a80       0x54 /usr/lib/gcc/arm-none-eabi/4.8/../../../arm-none-eabi/lib/armv7e-m/fpu/libm.a(lib_a-s_fpclassify.o)
                0x0000000008027a80                __fpclassifyd
 *fill*         0x0000000008027ad4        0xc 
 .text.matherr  0x0000000008027ae0        0x4 /usr/lib/gcc/arm-none-eabi/4.8/../../../arm-none-eabi/lib/armv7e-m/fpu/libm.a(lib_a-s_matherr.o)
                0x0000000008027ae0                matherr
 *fill*         0x0000000008027ae4        0xc 
 .text.nan      0x0000000008027af0       0x10 /usr/lib/gcc/arm-none-eabi/4.8/../../../arm-none-eabi/lib/armv7e-m/fpu/libm.a(lib_a-s_nan.o)
                0x0000000008027af0                nan
 .text.rint     0x0000000008027b00      0x120 /usr/lib/gcc/arm-none-eabi/4.8/../../../arm-none-eabi/lib/armv7e-m/fpu/libm.a(lib_a-s_rint.o)
                0x0000000008027b00                rint
 .text.__errno  0x0000000008027c20        0xc /usr/lib/gcc/arm-none-eabi/4.8/../../../arm-none-eabi/lib/armv7e-m/fpu/libg.a(lib_a-errno.o)
                0x0000000008027c20                __errno
 *fill*         0x0000000008027c2c        0x4 
 .text.memcmp   0x0000000008027c30       0x68 /usr/lib/gcc/arm-none-eabi/4.8/../../../arm-none-eabi/lib/armv7e-m/fpu/libg.a(lib_a-memcmp.o)
                0x0000000008027c30                memcmp
 *fill*         0x0000000008027c98        0x8 
 .text.memset   0x0000000008027ca0       0x94 /usr/lib/gcc/arm-none-eabi/4.8/../../../arm-none-eabi/lib/armv7e-m/fpu/libg.a(lib_a-memset.o)
                0x0000000008027ca0                memset
 *fill*         0x0000000008027d34        0xc 
 .text.sscanf   0x0000000008027d40       0x58 /usr/lib/gcc/arm-none-eabi/4.8/../../../arm-none-eabi/lib/armv7e-m/fpu/libg.a(lib_a-sscanf.o)
                0x0000000008027d40                sscanf
 *fill*         0x0000000008027d98        0x8 
 .text.__seofread
                0x0000000008027da0        0x4 /usr/lib/gcc/arm-none-eabi/4.8/../../../arm-none-eabi/lib/armv7e-m/fpu/libg.a(lib_a-stdio.o)
                0x0000000008027da0                __seofread
 *fill*         0x0000000008027da4        0xc 
 .text.strlen   0x0000000008027db0       0x5c /usr/lib/gcc/arm-none-eabi/4.8/../../../arm-none-eabi/lib/armv7e-m/fpu/libg.a(lib_a-strlen.o)
                0x0000000008027db0                strlen
 *fill*         0x0000000008027e0c        0x4 
 .text.strtok   0x0000000008027e10       0x10 /usr/lib/gcc/arm-none-eabi/4.8/../../../arm-none-eabi/lib/armv7e-m/fpu/libg.a(lib_a-strtok.o)
                0x0000000008027e10                strtok
 .text.__strtok_r
                0x0000000008027e20       0x64 /usr/lib/gcc/arm-none-eabi/4.8/../../../arm-none-eabi/lib/armv7e-m/fpu/libg.a(lib_a-strtok_r.o)
                0x0000000008027e20                __strtok_r
 *fill*         0x0000000008027e84        0xc 
 .text.__ssvfscanf_r
                0x0000000008027e90      0xe90 /usr/lib/gcc/arm-none-eabi/4.8/../../../arm-none-eabi/lib/armv7e-m/fpu/libg.a(lib_a-svfscanf.o)
                0x0000000008027e90                __ssvfscanf_r
 .text._vsnprintf_r
                0x0000000008028d20       0x54 /usr/lib/gcc/arm-none-eabi/4.8/../../../arm-none-eabi/lib/armv7e-m/fpu/libg.a(lib_a-vsnprintf.o)
                0x0000000008028d20                _vsnprintf_r
 *fill*         0x0000000008028d74        0xc 
 .text.vsnprintf
                0x0000000008028d80       0x20 /usr/lib/gcc/arm-none-eabi/4.8/../../../arm-none-eabi/lib/armv7e-m/fpu/libg.a(lib_a-vsnprintf.o)
                0x0000000008028d80                vsnprintf
 .text.iswspace
                0x0000000008028da0       0x1c /usr/lib/gcc/arm-none-eabi/4.8/../../../arm-none-eabi/lib/armv7e-m/fpu/libg.a(lib_a-iswspace.o)
                0x0000000008028da0                iswspace
 *fill*         0x0000000008028dbc        0x4 
 .text.__locale_charset
                0x0000000008028dc0        0x8 /usr/lib/gcc/arm-none-eabi/4.8/../../../arm-none-eabi/lib/armv7e-m/fpu/libg.a(lib_a-locale.o)
                0x0000000008028dc0                __locale_charset
 *fill*         0x0000000008028dc8        0x8 
 .text.__locale_mb_cur_max
                0x0000000008028dd0        0xc /usr/lib/gcc/arm-none-eabi/4.8/../../../arm-none-eabi/lib/armv7e-m/fpu/libg.a(lib_a-locale.o)
                0x0000000008028dd0                __locale_mb_cur_max
 *fill*         0x0000000008028ddc        0x4 
 .text._localeconv_r
                0x0000000008028de0        0x8 /usr/lib/gcc/arm-none-eabi/4.8/../../../arm-none-eabi/lib/armv7e-m/fpu/libg.a(lib_a-locale.o)
                0x0000000008028de0                _localeconv_r
 *fill*         0x0000000008028de8        0x8 
 .text._mbrtowc_r
                0x0000000008028df0       0x5c /usr/lib/gcc/arm-none-eabi/4.8/../../../arm-none-eabi/lib/armv7e-m/fpu/libg.a(lib_a-mbrtowc.o)
                0x0000000008028df0                _mbrtowc_r
 *fill*         0x0000000008028e4c        0x4 
 .text.__ascii_mbtowc
                0x0000000008028e50       0x2c /usr/lib/gcc/arm-none-eabi/4.8/../../../arm-none-eabi/lib/armv7e-m/fpu/libg.a(lib_a-mbtowc_r.o)
                0x0000000008028e50                __ascii_mbtowc
 *fill*         0x0000000008028e7c        0x4 
 .text.__sccl   0x0000000008028e80       0x70 /usr/lib/gcc/arm-none-eabi/4.8/../../../arm-none-eabi/lib/armv7e-m/fpu/libg.a(lib_a-sccl.o)
                0x0000000008028e80                __sccl
 .text.sprintf  0x0000000008028ef0       0x4c /usr/lib/gcc/arm-none-eabi/4.8/../../../arm-none-eabi/lib/armv7e-m/fpu/libg.a(lib_a-sprintf.o)
                0x0000000008028ef0                sprintf
 *fill*         0x0000000008028f3c        0x4 
 .text.sulp     0x0000000008028f40       0x3c /usr/lib/gcc/arm-none-eabi/4.8/../../../arm-none-eabi/lib/armv7e-m/fpu/libg.a(lib_a-strtod.o)
 *fill*         0x0000000008028f7c        0x4 
 .text._strtod_r
                0x0000000008028f80      0xf70 /usr/lib/gcc/arm-none-eabi/4.8/../../../arm-none-eabi/lib/armv7e-m/fpu/libg.a(lib_a-strtod.o)
                0x0000000008028f80                _strtod_r
 .text._strtoll_r
                0x0000000008029ef0      0x19c /usr/lib/gcc/arm-none-eabi/4.8/../../../arm-none-eabi/lib/armv7e-m/fpu/libg.a(lib_a-strtoll_r.o)
                0x0000000008029ef0                _strtoll_r
 *fill*         0x000000000802a08c        0x4 
 .text._strtol_r
                0x000000000802a090      0x114 /usr/lib/gcc/arm-none-eabi/4.8/../../../arm-none-eabi/lib/armv7e-m/fpu/libg.a(lib_a-strtol.o)
                0x000000000802a090                _strtol_r
 *fill*         0x000000000802a1a4        0xc 
 .text._strtoull_r
                0x000000000802a1b0      0x190 /usr/lib/gcc/arm-none-eabi/4.8/../../../arm-none-eabi/lib/armv7e-m/fpu/libg.a(lib_a-strtoull_r.o)
                0x000000000802a1b0                _strtoull_r
 .text._strtoul_r
                0x000000000802a340      0x120 /usr/lib/gcc/arm-none-eabi/4.8/../../../arm-none-eabi/lib/armv7e-m/fpu/libg.a(lib_a-strtoul.o)
                0x000000000802a340                _strtoul_r
 .text._sungetc_r
                0x000000000802a460       0x80 /usr/lib/gcc/arm-none-eabi/4.8/../../../arm-none-eabi/lib/armv7e-m/fpu/libg.a(lib_a-svfiscanf.o)
                0x000000000802a460                _sungetc_r
 .text.__ssrefill_r
                0x000000000802a4e0       0x3c /usr/lib/gcc/arm-none-eabi/4.8/../../../arm-none-eabi/lib/armv7e-m/fpu/libg.a(lib_a-svfiscanf.o)
                0x000000000802a4e0                __ssrefill_r
 *fill*         0x000000000802a51c        0x4 
 .text._sfread_r
                0x000000000802a520       0x80 /usr/lib/gcc/arm-none-eabi/4.8/../../../arm-none-eabi/lib/armv7e-m/fpu/libg.a(lib_a-svfiscanf.o)
                0x000000000802a520                _sfread_r
 .text._svfprintf_r
                0x000000000802a5a0     0x14f0 /usr/lib/gcc/arm-none-eabi/4.8/../../../arm-none-eabi/lib/armv7e-m/fpu/libg.a(lib_a-svfprintf.o)
                0x000000000802a5a0                _svfprintf_r
 .text.__submore
                0x000000000802ba90       0x78 /usr/lib/gcc/arm-none-eabi/4.8/../../../arm-none-eabi/lib/armv7e-m/fpu/libg.a(lib_a-ungetc.o)
                0x000000000802ba90                __submore
 *fill*         0x000000000802bb08        0x8 
 .text.quorem   0x000000000802bb10      0x130 /usr/lib/gcc/arm-none-eabi/4.8/../../../arm-none-eabi/lib/armv7e-m/fpu/libg.a(lib_a-dtoa.o)
 .text._dtoa_r  0x000000000802bc40      0xe58 /usr/lib/gcc/arm-none-eabi/4.8/../../../arm-none-eabi/lib/armv7e-m/fpu/libg.a(lib_a-dtoa.o)
                0x000000000802bc40                _dtoa_r
 *fill*         0x000000000802ca98        0x8 
 .text._malloc_trim_r
                0x000000000802caa0       0x9c /usr/lib/gcc/arm-none-eabi/4.8/../../../arm-none-eabi/lib/armv7e-m/fpu/libg.a(lib_a-freer.o)
                0x000000000802caa0                _malloc_trim_r
 *fill*         0x000000000802cb3c        0x4 
 .text._free_r  0x000000000802cb40      0x19c /usr/lib/gcc/arm-none-eabi/4.8/../../../arm-none-eabi/lib/armv7e-m/fpu/libg.a(lib_a-freer.o)
                0x000000000802cb40                _free_r
 *fill*         0x000000000802ccdc        0x4 
 .text.rshift   0x000000000802cce0       0xa0 /usr/lib/gcc/arm-none-eabi/4.8/../../../arm-none-eabi/lib/armv7e-m/fpu/libg.a(lib_a-gdtoa-gethex.o)
 .text.__gethex
                0x000000000802cd80      0x530 /usr/lib/gcc/arm-none-eabi/4.8/../../../arm-none-eabi/lib/armv7e-m/fpu/libg.a(lib_a-gdtoa-gethex.o)
                0x000000000802cd80                __gethex
 .text.__hexnan
                0x000000000802d2b0      0x194 /usr/lib/gcc/arm-none-eabi/4.8/../../../arm-none-eabi/lib/armv7e-m/fpu/libg.a(lib_a-gdtoa-hexnan.o)
                0x000000000802d2b0                __hexnan
 *fill*         0x000000000802d444        0xc 
 .text._malloc_r
                0x000000000802d450      0x538 /usr/lib/gcc/arm-none-eabi/4.8/../../../arm-none-eabi/lib/armv7e-m/fpu/libg.a(lib_a-mallocr.o)
                0x000000000802d450                _malloc_r
 *fill*         0x000000000802d988        0x8 
 .text.memchr   0x000000000802d990       0x90 /usr/lib/gcc/arm-none-eabi/4.8/../../../arm-none-eabi/lib/armv7e-m/fpu/libg.a(lib_a-memchr-stub.o)
                0x000000000802d990                memchr
 .text.__malloc_lock
                0x000000000802da20        0x4 /usr/lib/gcc/arm-none-eabi/4.8/../../../arm-none-eabi/lib/armv7e-m/fpu/libg.a(lib_a-mlock.o)
                0x000000000802da20                __malloc_lock
 *fill*         0x000000000802da24        0xc 
 .text.__malloc_unlock
                0x000000000802da30        0x4 /usr/lib/gcc/arm-none-eabi/4.8/../../../arm-none-eabi/lib/armv7e-m/fpu/libg.a(lib_a-mlock.o)
                0x000000000802da30                __malloc_unlock
 *fill*         0x000000000802da34        0xc 
 .text._Balloc  0x000000000802da40       0x4c /usr/lib/gcc/arm-none-eabi/4.8/../../../arm-none-eabi/lib/armv7e-m/fpu/libg.a(lib_a-mprec.o)
                0x000000000802da40                _Balloc
 *fill*         0x000000000802da8c        0x4 
 .text._Bfree   0x000000000802da90       0x14 /usr/lib/gcc/arm-none-eabi/4.8/../../../arm-none-eabi/lib/armv7e-m/fpu/libg.a(lib_a-mprec.o)
                0x000000000802da90                _Bfree
 *fill*         0x000000000802daa4        0xc 
 .text.__multadd
                0x000000000802dab0       0x98 /usr/lib/gcc/arm-none-eabi/4.8/../../../arm-none-eabi/lib/armv7e-m/fpu/libg.a(lib_a-mprec.o)
                0x000000000802dab0                __multadd
 *fill*         0x000000000802db48        0x8 
 .text.__s2b    0x000000000802db50       0x98 /usr/lib/gcc/arm-none-eabi/4.8/../../../arm-none-eabi/lib/armv7e-m/fpu/libg.a(lib_a-mprec.o)
                0x000000000802db50                __s2b
 *fill*         0x000000000802dbe8        0x8 
 .text.__hi0bits
                0x000000000802dbf0       0x40 /usr/lib/gcc/arm-none-eabi/4.8/../../../arm-none-eabi/lib/armv7e-m/fpu/libg.a(lib_a-mprec.o)
                0x000000000802dbf0                __hi0bits
 .text.__lo0bits
                0x000000000802dc30       0x5c /usr/lib/gcc/arm-none-eabi/4.8/../../../arm-none-eabi/lib/armv7e-m/fpu/libg.a(lib_a-mprec.o)
                0x000000000802dc30                __lo0bits
 *fill*         0x000000000802dc8c        0x4 
 .text.__i2b    0x000000000802dc90       0x14 /usr/lib/gcc/arm-none-eabi/4.8/../../../arm-none-eabi/lib/armv7e-m/fpu/libg.a(lib_a-mprec.o)
                0x000000000802dc90                __i2b
 *fill*         0x000000000802dca4        0xc 
 .text.__multiply
                0x000000000802dcb0      0x13c /usr/lib/gcc/arm-none-eabi/4.8/../../../arm-none-eabi/lib/armv7e-m/fpu/libg.a(lib_a-mprec.o)
                0x000000000802dcb0                __multiply
 *fill*         0x000000000802ddec        0x4 
 .text.__pow5mult
                0x000000000802ddf0       0x9c /usr/lib/gcc/arm-none-eabi/4.8/../../../arm-none-eabi/lib/armv7e-m/fpu/libg.a(lib_a-mprec.o)
                0x000000000802ddf0                __pow5mult
 *fill*         0x000000000802de8c        0x4 
 .text.__lshift
                0x000000000802de90       0xbc /usr/lib/gcc/arm-none-eabi/4.8/../../../arm-none-eabi/lib/armv7e-m/fpu/libg.a(lib_a-mprec.o)
                0x000000000802de90                __lshift
 *fill*         0x000000000802df4c        0x4 
 .text.__mcmp   0x000000000802df50       0x48 /usr/lib/gcc/arm-none-eabi/4.8/../../../arm-none-eabi/lib/armv7e-m/fpu/libg.a(lib_a-mprec.o)
                0x000000000802df50                __mcmp
 *fill*         0x000000000802df98        0x8 
 .text.__mdiff  0x000000000802dfa0       0xd4 /usr/lib/gcc/arm-none-eabi/4.8/../../../arm-none-eabi/lib/armv7e-m/fpu/libg.a(lib_a-mprec.o)
                0x000000000802dfa0                __mdiff
 *fill*         0x000000000802e074        0xc 
 .text.__ulp    0x000000000802e080       0x50 /usr/lib/gcc/arm-none-eabi/4.8/../../../arm-none-eabi/lib/armv7e-m/fpu/libg.a(lib_a-mprec.o)
                0x000000000802e080                __ulp
 .text.__b2d    0x000000000802e0d0       0xb0 /usr/lib/gcc/arm-none-eabi/4.8/../../../arm-none-eabi/lib/armv7e-m/fpu/libg.a(lib_a-mprec.o)
                0x000000000802e0d0                __b2d
 .text.__d2b    0x000000000802e180       0xb4 /usr/lib/gcc/arm-none-eabi/4.8/../../../arm-none-eabi/lib/armv7e-m/fpu/libg.a(lib_a-mprec.o)
                0x000000000802e180                __d2b
 *fill*         0x000000000802e234        0xc 
 .text.__ratio  0x000000000802e240       0x54 /usr/lib/gcc/arm-none-eabi/4.8/../../../arm-none-eabi/lib/armv7e-m/fpu/libg.a(lib_a-mprec.o)
                0x000000000802e240                __ratio
 *fill*         0x000000000802e294        0xc 
 .text.__copybits
                0x000000000802e2a0       0x48 /usr/lib/gcc/arm-none-eabi/4.8/../../../arm-none-eabi/lib/armv7e-m/fpu/libg.a(lib_a-mprec.o)
                0x000000000802e2a0                __copybits
 *fill*         0x000000000802e2e8        0x8 
 .text.__any_on
                0x000000000802e2f0       0x60 /usr/lib/gcc/arm-none-eabi/4.8/../../../arm-none-eabi/lib/armv7e-m/fpu/libg.a(lib_a-mprec.o)
                0x000000000802e2f0                __any_on
 .text._realloc_r
                0x000000000802e350      0x3cc /usr/lib/gcc/arm-none-eabi/4.8/../../../arm-none-eabi/lib/armv7e-m/fpu/libg.a(lib_a-reallocr.o)
                0x000000000802e350                _realloc_r
 *fill*         0x000000000802e71c        0x4 
 .text.strncmp  0x000000000802e720       0xb4 /usr/lib/gcc/arm-none-eabi/4.8/../../../arm-none-eabi/lib/armv7e-m/fpu/libg.a(lib_a-strncmp.o)
                0x000000000802e720                strncmp
 *fill*         0x000000000802e7d4        0xc 
 .text.__ssprint_r
                0x000000000802e7e0      0x100 /usr/lib/gcc/arm-none-eabi/4.8/../../../arm-none-eabi/lib/armv7e-m/fpu/libg.a(lib_a-svfiprintf.o)
                0x000000000802e7e0                __ssprint_r
 .text._calloc_r
                0x000000000802e8e0       0x60 /usr/lib/gcc/arm-none-eabi/4.8/../../../arm-none-eabi/lib/armv7e-m/fpu/libg.a(lib_a-callocr.o)
                0x000000000802e8e0                _calloc_r
 .text.memmove  0x000000000802e940       0xc0 /usr/lib/gcc/arm-none-eabi/4.8/../../../arm-none-eabi/lib/armv7e-m/fpu/libg.a(lib_a-memmove.o)
                0x000000000802e940                memmove
 *(.rodata)
 .rodata        0x000000000802ea00       0x1c build/obj/mcpwm.o
 *fill*         0x000000000802ea1c        0x4 
 .rodata        0x000000000802ea20        0x4 build/obj/rfhelp.o
 *(.rodata.*)
 *fill*         0x000000000802ea24        0xc 
 .rodata.str1.4
                0x000000000802ea30        0x5 build/obj/chsys.o
                                          0x8 (size before relaxing)
 *fill*         0x000000000802ea35        0xb 
 .rodata.ch_debug
                0x000000000802ea40       0x18 build/obj/chregistry.o
                0x000000000802ea40                ch_debug
 *fill*         0x000000000802ea58        0x8 
 .rodata.vmt    0x000000000802ea60       0x20 build/obj/serial_usb.o
 .rodata.zero_status
                0x000000000802ea80        0x4 build/obj/usb.o
 *fill*         0x000000000802ea84        0xc 
 .rodata.active_status
                0x000000000802ea90        0x4 build/obj/usb.o
 *fill*         0x000000000802ea94        0xc 
 .rodata.halted_status
                0x000000000802eaa0        0x4 build/obj/usb.o
 *fill*         0x000000000802eaa4        0xc 
 .rodata._stm32_dma_streams
                0x000000000802eab0       0xc0 build/obj/stm32_dma.o
                0x000000000802eab0                _stm32_dma_streams
 .rodata.str1.4
                0x000000000802eb70        0xc build/obj/i2c_lld.o
 *fill*         0x000000000802eb7c        0x4 
 .rodata.fsparams
                0x000000000802eb80        0xc build/obj/usb_lld.o
 *fill*         0x000000000802eb8c        0x4 
 .rodata.str1.4
                0x000000000802eb90        0xd build/obj/usb_lld.o
                                         0x10 (size before relaxing)
 *fill*         0x000000000802eb9d        0x3 
 .rodata.ep0config
                0x000000000802eba0       0x24 build/obj/usb_lld.o
 .rodata.str1.4
                0x000000000802ebc4        0xc build/obj/uart_lld.o
 *fill*         0x000000000802ebc4        0xc 
 .rodata.pal_default_config
                0x000000000802ebd0       0xfc build/obj/board.o
                0x000000000802ebd0                pal_default_config
 *fill*         0x000000000802eccc        0x4 
 .rodata.str1.4
                0x000000000802ecd0       0x1a build/obj/main.o
                                         0x1c (size before relaxing)
 *fill*         0x000000000802ecea        0x6 
 .rodata.ep1config
                0x000000000802ecf0       0x24 build/obj/comm_usb_serial.o
 *fill*         0x000000000802ed14        0xc 
 .rodata.vcom_configuration_descriptor
                0x000000000802ed20        0x8 build/obj/comm_usb_serial.o
 *fill*         0x000000000802ed28        0x8 
 .rodata.ep2config
                0x000000000802ed30       0x24 build/obj/comm_usb_serial.o
 *fill*         0x000000000802ed54        0xc 
 .rodata.usbcfg
                0x000000000802ed60       0x10 build/obj/comm_usb_serial.o
 .rodata.vcom_configuration_descriptor_data
                0x000000000802ed70       0x44 build/obj/comm_usb_serial.o
 *fill*         0x000000000802edb4        0xc 
 .rodata.vcom_device_descriptor_data
                0x000000000802edc0       0x14 build/obj/comm_usb_serial.o
 *fill*         0x000000000802edd4        0xc 
 .rodata.vcom_string0
                0x000000000802ede0        0x4 build/obj/comm_usb_serial.o
 *fill*         0x000000000802ede4        0xc 
 .rodata.vcom_string1
                0x000000000802edf0       0x28 build/obj/comm_usb_serial.o
 *fill*         0x000000000802ee18        0x8 
 .rodata.vcom_string2
                0x000000000802ee20       0x38 build/obj/comm_usb_serial.o
 *fill*         0x000000000802ee58        0x8 
 .rodata.vcom_string3
                0x000000000802ee60        0x8 build/obj/comm_usb_serial.o
 *fill*         0x000000000802ee68        0x8 
 .rodata.vcom_strings
                0x000000000802ee70       0x20 build/obj/comm_usb_serial.o
 .rodata.serusbcfg
                0x000000000802ee90        0x8 build/obj/comm_usb_serial.o
                0x000000000802ee90                serusbcfg
 *fill*         0x000000000802ee98        0x8 
 .rodata.vcom_device_descriptor
                0x000000000802eea0        0x8 build/obj/comm_usb_serial.o
 *fill*         0x000000000802eea8        0x8 
 .rodata.str1.4
                0x000000000802eeb0       0x24 build/obj/comm_usb.o
 *fill*         0x000000000802eed4        0xc 
 .rodata.crc16_tab
                0x000000000802eee0      0x200 build/obj/crc.o
                0x000000000802eee0                crc16_tab
 .rodata.str1.4
                0x000000000802f0e0       0x16 build/obj/mcpwm.o
                                         0x18 (size before relaxing)
 *fill*         0x000000000802f0f6        0xa 
 .rodata.states.11264
                0x000000000802f100       0x40 build/obj/terminal.o
 .rodata.str1.4
                0x000000000802f140     0x11e2 build/obj/terminal.o
                                       0x11fc (size before relaxing)
 *fill*         0x0000000008030322        0xe 
 .rodata.str1.4
                0x0000000008030330        0x7 build/obj/commands.o
                                          0xc (size before relaxing)
 *fill*         0x0000000008030337        0x9 
 .rodata.str1.4
                0x0000000008030340        0x8 build/obj/timeout.o
 *fill*         0x0000000008030348        0x8 
 .rodata.str1.4
                0x0000000008030350       0x1f build/obj/comm_can.o
                                         0x20 (size before relaxing)
 *fill*         0x000000000803036f        0x1 
 .rodata.flash_sector
                0x0000000008030370       0x18 build/obj/flash_helper.o
 *fill*         0x0000000008030388        0x8 
 .rodata.flash_addr
                0x0000000008030390       0x30 build/obj/flash_helper.o
 .rodata.str1.4
                0x00000000080303c0       0xd3 build/obj/mc_interface.o
                                         0xd4 (size before relaxing)
 *fill*         0x0000000008030493        0xd 
 .rodata.CSWTCH.191
                0x00000000080304a0       0x1c build/obj/mc_interface.o
 *fill*         0x00000000080304bc        0x4 
 .rodata.str1.4
                0x00000000080304c0      0x1df build/obj/mcpwm_foc.o
                                        0x1e8 (size before relaxing)
 *fill*         0x000000000803069f        0x1 
 .rodata.i2cfg  0x00000000080306a0        0xc build/obj/hw_410.o
 *fill*         0x00000000080306ac        0x4 
 .rodata.str1.4
                0x00000000080306b0        0x8 build/obj/app_ppm.o
 *fill*         0x00000000080306b8        0x8 
 .rodata.str1.4
                0x00000000080306c0        0x8 build/obj/app_adc.o
 *fill*         0x00000000080306c8        0x8 
 .rodata.str1.4
                0x00000000080306d0       0x11 build/obj/app_uartcomm.o
                                         0x14 (size before relaxing)
 *fill*         0x00000000080306e1        0xf 
 .rodata.str1.4
                0x00000000080306f0       0x74 build/obj/app_nunchuk.o
                                         0x78 (size before relaxing)
 *fill*         0x0000000008030764        0xc 
 .rodata.str1.4
                0x0000000008030770        0xf build/obj/nrf_driver.o
                                         0x10 (size before relaxing)
 *fill*         0x000000000803077f        0x1 
 .rodata.str1.4
                0x0000000008030780        0x6 /usr/lib/gcc/arm-none-eabi/4.8/../../../arm-none-eabi/lib/armv7e-m/fpu/libm.a(lib_a-wf_asin.o)
                                          0xc (size before relaxing)
 *fill*         0x0000000008030786        0xa 
 .rodata.str1.4
                0x0000000008030790        0x5 /usr/lib/gcc/arm-none-eabi/4.8/../../../arm-none-eabi/lib/armv7e-m/fpu/libm.a(lib_a-wf_exp.o)
                                          0x8 (size before relaxing)
 *fill*         0x0000000008030795        0xb 
 .rodata.str1.4
                0x00000000080307a0        0x6 /usr/lib/gcc/arm-none-eabi/4.8/../../../arm-none-eabi/lib/armv7e-m/fpu/libm.a(lib_a-wf_fmod.o)
                                          0x8 (size before relaxing)
 *fill*         0x00000000080307a6        0xa 
 .rodata.str1.4
                0x00000000080307b0        0x5 /usr/lib/gcc/arm-none-eabi/4.8/../../../arm-none-eabi/lib/armv7e-m/fpu/libm.a(lib_a-wf_log.o)
                                          0xc (size before relaxing)
 *fill*         0x00000000080307b5        0xb 
 .rodata.str1.4
                0x00000000080307c0        0x5 /usr/lib/gcc/arm-none-eabi/4.8/../../../arm-none-eabi/lib/armv7e-m/fpu/libm.a(lib_a-wf_pow.o)
                                          0x8 (size before relaxing)
 *fill*         0x00000000080307c5        0xb 
 .rodata.str1.4
                0x00000000080307d0        0x6 /usr/lib/gcc/arm-none-eabi/4.8/../../../arm-none-eabi/lib/armv7e-m/fpu/libm.a(lib_a-wf_sqrt.o)
                                          0x8 (size before relaxing)
 *fill*         0x00000000080307d6        0xa 
 .rodata.str1.4
                0x00000000080307e0        0x5 /usr/lib/gcc/arm-none-eabi/4.8/../../../arm-none-eabi/lib/armv7e-m/fpu/libm.a(lib_a-w_sqrt.o)
                                          0x8 (size before relaxing)
 *fill*         0x00000000080307e5        0xb 
 .rodata.halF   0x00000000080307f0        0x8 /usr/lib/gcc/arm-none-eabi/4.8/../../../arm-none-eabi/lib/armv7e-m/fpu/libm.a(lib_a-ef_exp.o)
 *fill*         0x00000000080307f8        0x8 
 .rodata.ln2LO  0x0000000008030800        0x8 /usr/lib/gcc/arm-none-eabi/4.8/../../../arm-none-eabi/lib/armv7e-m/fpu/libm.a(lib_a-ef_exp.o)
 *fill*         0x0000000008030808        0x8 
 .rodata.ln2HI  0x0000000008030810        0x8 /usr/lib/gcc/arm-none-eabi/4.8/../../../arm-none-eabi/lib/armv7e-m/fpu/libm.a(lib_a-ef_exp.o)
 *fill*         0x0000000008030818        0x8 
 .rodata.Zero   0x0000000008030820        0x8 /usr/lib/gcc/arm-none-eabi/4.8/../../../arm-none-eabi/lib/armv7e-m/fpu/libm.a(lib_a-ef_fmod.o)
 *fill*         0x0000000008030828        0x8 
 .rodata.dp_h   0x0000000008030830        0x8 /usr/lib/gcc/arm-none-eabi/4.8/../../../arm-none-eabi/lib/armv7e-m/fpu/libm.a(lib_a-ef_pow.o)
 *fill*         0x0000000008030838        0x8 
 .rodata.dp_l   0x0000000008030840        0x8 /usr/lib/gcc/arm-none-eabi/4.8/../../../arm-none-eabi/lib/armv7e-m/fpu/libm.a(lib_a-ef_pow.o)
 *fill*         0x0000000008030848        0x8 
 .rodata.bp     0x0000000008030850        0x8 /usr/lib/gcc/arm-none-eabi/4.8/../../../arm-none-eabi/lib/armv7e-m/fpu/libm.a(lib_a-ef_pow.o)
 .rodata.str1.4
                0x0000000008030858        0x4 /usr/lib/gcc/arm-none-eabi/4.8/../../../arm-none-eabi/lib/armv7e-m/fpu/libm.a(lib_a-ef_pow.o)
 *fill*         0x0000000008030858        0x8 
 .rodata.npio2_hw
                0x0000000008030860       0x80 /usr/lib/gcc/arm-none-eabi/4.8/../../../arm-none-eabi/lib/armv7e-m/fpu/libm.a(lib_a-ef_rem_pio2.o)
 .rodata.two_over_pi
                0x00000000080308e0      0x318 /usr/lib/gcc/arm-none-eabi/4.8/../../../arm-none-eabi/lib/armv7e-m/fpu/libm.a(lib_a-ef_rem_pio2.o)
 *fill*         0x0000000008030bf8        0x8 
 .rodata.init_jk
                0x0000000008030c00        0xc /usr/lib/gcc/arm-none-eabi/4.8/../../../arm-none-eabi/lib/armv7e-m/fpu/libm.a(lib_a-kf_rem_pio2.o)
 *fill*         0x0000000008030c0c        0x4 
 .rodata.PIo2   0x0000000008030c10       0x2c /usr/lib/gcc/arm-none-eabi/4.8/../../../arm-none-eabi/lib/armv7e-m/fpu/libm.a(lib_a-kf_rem_pio2.o)
 *fill*         0x0000000008030c3c        0x4 
 .rodata.atanlo
                0x0000000008030c40       0x10 /usr/lib/gcc/arm-none-eabi/4.8/../../../arm-none-eabi/lib/armv7e-m/fpu/libm.a(lib_a-sf_atan.o)
 .rodata.atanhi
                0x0000000008030c50       0x10 /usr/lib/gcc/arm-none-eabi/4.8/../../../arm-none-eabi/lib/armv7e-m/fpu/libm.a(lib_a-sf_atan.o)
 .rodata.TWO52  0x0000000008030c60       0x10 /usr/lib/gcc/arm-none-eabi/4.8/../../../arm-none-eabi/lib/armv7e-m/fpu/libm.a(lib_a-s_rint.o)
 .rodata.str1.4
                0x0000000008030c70        0x2 /usr/lib/gcc/arm-none-eabi/4.8/../../../arm-none-eabi/lib/armv7e-m/fpu/libg.a(lib_a-impure.o)
                                          0x4 (size before relaxing)
 *fill*         0x0000000008030c72        0xe 
 .rodata.str1.4
                0x0000000008030c80        0x5 /usr/lib/gcc/arm-none-eabi/4.8/../../../arm-none-eabi/lib/armv7e-m/fpu/libg.a(lib_a-svfscanf.o)
                                          0x8 (size before relaxing)
 *fill*         0x0000000008030c85        0xb 
 .rodata.basefix.6747
                0x0000000008030c90       0x24 /usr/lib/gcc/arm-none-eabi/4.8/../../../arm-none-eabi/lib/armv7e-m/fpu/libg.a(lib_a-svfscanf.o)
 *fill*         0x0000000008030cb4        0xc 
 .rodata._ctype_
                0x0000000008030cc0      0x104 /usr/lib/gcc/arm-none-eabi/4.8/../../../arm-none-eabi/lib/armv7e-m/fpu/libg.a(lib_a-ctype_.o)
                0x0000000008030cc0                _ctype_
 *fill*         0x0000000008030dc4        0xc 
 .rodata.str1.4
                0x0000000008030dd0        0x6 /usr/lib/gcc/arm-none-eabi/4.8/../../../arm-none-eabi/lib/armv7e-m/fpu/libg.a(lib_a-locale.o)
                                         0x14 (size before relaxing)
 .rodata.str1.4
                0x0000000008030dd6        0x4 /usr/lib/gcc/arm-none-eabi/4.8/../../../arm-none-eabi/lib/armv7e-m/fpu/libg.a(lib_a-mbrtowc.o)
 *fill*         0x0000000008030dd6        0xa 
 .rodata.fpi.5238
                0x0000000008030de0       0x14 /usr/lib/gcc/arm-none-eabi/4.8/../../../arm-none-eabi/lib/armv7e-m/fpu/libg.a(lib_a-strtod.o)
 *fill*         0x0000000008030df4        0xc 
 .rodata.str1.4
                0x0000000008030e00        0xf /usr/lib/gcc/arm-none-eabi/4.8/../../../arm-none-eabi/lib/armv7e-m/fpu/libg.a(lib_a-strtod.o)
                                         0x10 (size before relaxing)
 *fill*         0x0000000008030e0f        0x1 
 .rodata.fpinan.5274
                0x0000000008030e10       0x14 /usr/lib/gcc/arm-none-eabi/4.8/../../../arm-none-eabi/lib/armv7e-m/fpu/libg.a(lib_a-strtod.o)
 *fill*         0x0000000008030e24        0xc 
 .rodata.tinytens
                0x0000000008030e30       0x28 /usr/lib/gcc/arm-none-eabi/4.8/../../../arm-none-eabi/lib/armv7e-m/fpu/libg.a(lib_a-strtod.o)
 *fill*         0x0000000008030e58        0x8 
 .rodata.blanks.6795
                0x0000000008030e60       0x10 /usr/lib/gcc/arm-none-eabi/4.8/../../../arm-none-eabi/lib/armv7e-m/fpu/libg.a(lib_a-svfprintf.o)
 .rodata.str1.4
                0x0000000008030e70       0x42 /usr/lib/gcc/arm-none-eabi/4.8/../../../arm-none-eabi/lib/armv7e-m/fpu/libg.a(lib_a-svfprintf.o)
                                         0x44 (size before relaxing)
 *fill*         0x0000000008030eb2        0xe 
 .rodata.zeroes.6796
                0x0000000008030ec0       0x10 /usr/lib/gcc/arm-none-eabi/4.8/../../../arm-none-eabi/lib/armv7e-m/fpu/libg.a(lib_a-svfprintf.o)
 .rodata.str1.4
                0x0000000008030ed0       0x10 /usr/lib/gcc/arm-none-eabi/4.8/../../../arm-none-eabi/lib/armv7e-m/fpu/libg.a(lib_a-dtoa.o)
                                         0x14 (size before relaxing)
 .rodata.__hexdig
                0x0000000008030ee0      0x100 /usr/lib/gcc/arm-none-eabi/4.8/../../../arm-none-eabi/lib/armv7e-m/fpu/libg.a(lib_a-gdtoa-gethex.o)
                0x0000000008030ee0                __hexdig
 .rodata.__mprec_tens
                0x0000000008030fe0       0xc8 /usr/lib/gcc/arm-none-eabi/4.8/../../../arm-none-eabi/lib/armv7e-m/fpu/libg.a(lib_a-mprec.o)
                0x0000000008030fe0                __mprec_tens
 *fill*         0x00000000080310a8        0x8 
 .rodata.__mprec_bigtens
                0x00000000080310b0       0x28 /usr/lib/gcc/arm-none-eabi/4.8/../../../arm-none-eabi/lib/armv7e-m/fpu/libg.a(lib_a-mprec.o)
                0x00000000080310b0                __mprec_bigtens
 *fill*         0x00000000080310d8        0x8 
 .rodata.p05.5269
                0x00000000080310e0        0xc /usr/lib/gcc/arm-none-eabi/4.8/../../../arm-none-eabi/lib/armv7e-m/fpu/libg.a(lib_a-mprec.o)
 *(.glue_7t)
 .glue_7t       0x00000000080310ec        0x0 linker stubs
 *(.glue_7)
 .glue_7        0x00000000080310ec        0x0 linker stubs
 *(.gcc*)

.vfp11_veneer   0x00000000080310ec        0x0
 .vfp11_veneer  0x00000000080310ec        0x0 linker stubs

.v4_bx          0x00000000080310ec        0x0
 .v4_bx         0x00000000080310ec        0x0 linker stubs

.iplt           0x00000000080310ec        0x0
 .iplt          0x00000000080310ec        0x0 build/obj/crt0_v7m.o

.ARM.extab
 *(.ARM.extab* .gnu.linkonce.armextab.*)

.ARM.exidx      0x00000000080310ec        0x8
                0x00000000080310ec                PROVIDE (__exidx_start, .)
 *(.ARM.exidx* .gnu.linkonce.armexidx.*)
 .ARM.exidx     0x00000000080310ec        0x8 /usr/lib/gcc/arm-none-eabi/4.8/armv7e-m/fpu/libgcc.a(_divdi3.o)
 .ARM.exidx     0x00000000080310f4        0x0 /usr/lib/gcc/arm-none-eabi/4.8/armv7e-m/fpu/libgcc.a(_udivdi3.o)
                                          0x8 (size before relaxing)
                0x00000000080310f4                PROVIDE (__exidx_end, .)

.rel.dyn        0x00000000080310f4        0x0
 .rel.iplt      0x00000000080310f4        0x0 build/obj/crt0_v7m.o

.eh_frame_hdr
 *(.eh_frame_hdr)

.eh_frame
 *(.eh_frame)

.textalign      0x00000000080310f4        0x4
                0x00000000080310f8                . = ALIGN (0x8)
 *fill*         0x00000000080310f4        0x4 
                0x00000000080310f8                . = ALIGN (0x4)
                0x00000000080310f8                _etext = .
                0x00000000080310f8                _textdata = _etext

.mstack         0x0000000020000000      0x800
                0x0000000020000000                . = ALIGN (0x8)
                0x0000000020000000                __main_stack_base__ = .
                0x0000000020000800                . = (. + __main_stack_size__)
 *fill*         0x0000000020000000      0x800 
                0x0000000020000800                . = ALIGN (0x8)
                0x0000000020000800                __main_stack_end__ = .

.pstack         0x0000000020000800      0x800
                0x0000000020000800                __process_stack_base__ = .
                0x0000000020000800                __main_thread_stack_base__ = .
                0x0000000020001000                . = (. + __process_stack_size__)
 *fill*         0x0000000020000800      0x800 
                0x0000000020001000                . = ALIGN (0x8)
                0x0000000020001000                __process_stack_end__ = .
                0x0000000020001000                __main_thread_stack_end__ = .

.data           0x0000000020001000      0x940 load address 0x00000000080310f8
                0x0000000020001000                . = ALIGN (0x4)
                0x0000000020001000                PROVIDE (_data, .)
 *(.data)
 *(.data.*)
 .data.linecoding
                0x0000000020001000        0x8 build/obj/serial_usb.o
 .data.comm_step_prev.11788
                0x0000000020001008        0x4 build/obj/mcpwm.o
 .data.direction_before.11812
                0x000000002000100c        0x4 build/obj/mcpwm.o
 .data.c2.9218  0x0000000020001010        0x4 build/obj/servo_dec.o
 .data.c1.9217  0x0000000020001014        0x4 build/obj/servo_dec.o
 .data.pulse_end
                0x0000000020001018        0x4 build/obj/servo_dec.o
 .data.pulse_start
                0x000000002000101c        0x4 build/obj/servo_dec.o
 .data.icucfg   0x0000000020001020       0x1c build/obj/servo_dec.o
 .data.cancfg   0x000000002000103c        0x8 build/obj/comm_can.o
 .data.enc_counts
                0x0000000020001044        0x4 build/obj/encoder.o
 .data.using_encoder.11416
                0x0000000020001048        0x1 build/obj/mcpwm_foc.o
 *fill*         0x0000000020001049        0x3 
 .data.ang_hall_int_prev.11423
                0x000000002000104c        0x4 build/obj/mcpwm_foc.o
 .data.using_hall.11425
                0x0000000020001050        0x1 build/obj/mcpwm_foc.o
 .data.stop_now
                0x0000000020001051        0x1 build/obj/app_ppm.o
 .data.stop_now
                0x0000000020001052        0x1 build/obj/app_adc.o
 *fill*         0x0000000020001053        0x1 
 .data.uart_cfg
                0x0000000020001054       0x20 build/obj/app_uartcomm.o
 .data.stop_now
                0x0000000020001074        0x1 build/obj/app_nunchuk.o
 *fill*         0x0000000020001075        0x3 
 .data.m_pin_csn
                0x0000000020001078        0x4 build/obj/spi_sw.o
 .data.m_port_mosi
                0x000000002000107c        0x4 build/obj/spi_sw.o
 .data.m_port_csn
                0x0000000020001080        0x4 build/obj/spi_sw.o
 .data.m_pin_miso
                0x0000000020001084        0x4 build/obj/spi_sw.o
 .data.m_port_sck
                0x0000000020001088        0x4 build/obj/spi_sw.o
 .data.m_port_miso
                0x000000002000108c        0x4 build/obj/spi_sw.o
 .data.m_pin_mosi
                0x0000000020001090        0x4 build/obj/spi_sw.o
 .data.m_pin_sck
                0x0000000020001094        0x4 build/obj/spi_sw.o
 .data.rx_stop  0x0000000020001098        0x1 build/obj/nrf_driver.o
 .data.tx_stop  0x0000000020001099        0x1 build/obj/nrf_driver.o
 .data.__fdlib_version
                0x000000002000109a        0x1 /usr/lib/gcc/arm-none-eabi/4.8/../../../arm-none-eabi/lib/armv7e-m/fpu/libm.a(lib_a-s_lib_ver.o)
                0x000000002000109a                __fdlib_version
 *fill*         0x000000002000109b        0x5 
 .data.impure_data
                0x00000000200010a0      0x428 /usr/lib/gcc/arm-none-eabi/4.8/../../../arm-none-eabi/lib/armv7e-m/fpu/libg.a(lib_a-impure.o)
 .data._impure_ptr
                0x00000000200014c8        0x4 /usr/lib/gcc/arm-none-eabi/4.8/../../../arm-none-eabi/lib/armv7e-m/fpu/libg.a(lib_a-impure.o)
                0x00000000200014c8                _impure_ptr
 .data.__ctype_ptr__
                0x00000000200014cc        0x4 /usr/lib/gcc/arm-none-eabi/4.8/../../../arm-none-eabi/lib/armv7e-m/fpu/libg.a(lib_a-ctype_.o)
                0x00000000200014cc                __ctype_ptr__
 .data.lconv    0x00000000200014d0       0x38 /usr/lib/gcc/arm-none-eabi/4.8/../../../arm-none-eabi/lib/armv7e-m/fpu/libg.a(lib_a-locale.o)
 .data.lc_ctype_charset
                0x0000000020001508       0x20 /usr/lib/gcc/arm-none-eabi/4.8/../../../arm-none-eabi/lib/armv7e-m/fpu/libg.a(lib_a-locale.o)
 .data.__mb_cur_max
                0x0000000020001528        0x4 /usr/lib/gcc/arm-none-eabi/4.8/../../../arm-none-eabi/lib/armv7e-m/fpu/libg.a(lib_a-locale.o)
                0x0000000020001528                __mb_cur_max
 .data.__mbtowc
                0x000000002000152c        0x4 /usr/lib/gcc/arm-none-eabi/4.8/../../../arm-none-eabi/lib/armv7e-m/fpu/libg.a(lib_a-mbtowc_r.o)
                0x000000002000152c                __mbtowc
 .data.__malloc_av_
                0x0000000020001530      0x408 /usr/lib/gcc/arm-none-eabi/4.8/../../../arm-none-eabi/lib/armv7e-m/fpu/libg.a(lib_a-mallocr.o)
                0x0000000020001530                __malloc_av_
 .data.__malloc_trim_threshold
                0x0000000020001938        0x4 /usr/lib/gcc/arm-none-eabi/4.8/../../../arm-none-eabi/lib/armv7e-m/fpu/libg.a(lib_a-mallocr.o)
                0x0000000020001938                __malloc_trim_threshold
 .data.__malloc_sbrk_base
                0x000000002000193c        0x4 /usr/lib/gcc/arm-none-eabi/4.8/../../../arm-none-eabi/lib/armv7e-m/fpu/libg.a(lib_a-mallocr.o)
                0x000000002000193c                __malloc_sbrk_base
 *(.ramtext)
                0x0000000020001940                . = ALIGN (0x4)
                0x0000000020001940                PROVIDE (_edata, .)

.igot.plt       0x0000000020001940        0x0 load address 0x0000000008031a38
 .igot.plt      0x0000000020001940        0x0 build/obj/crt0_v7m.o

.bss            0x0000000020001940    0x10294 load address 0x0000000008031a38
                0x0000000020001940                . = ALIGN (0x4)
                0x0000000020001940                PROVIDE (_bss_start, .)
 *(.bss)
 *(.bss.*)
 .bss.ch        0x0000000020001940      0x258 build/obj/chschd.o
                0x0000000020001940                ch
 .bss.endmem    0x0000000020001b98        0x4 build/obj/chmemcore.o
 .bss.nextmem   0x0000000020001b9c        0x4 build/obj/chmemcore.o
 .bss.default_heap
                0x0000000020001ba0       0x20 build/obj/chheap.o
 .bss.dma_isr_redir
                0x0000000020001bc0       0x80 build/obj/stm32_dma.o
 .bss.dma_streams_mask
                0x0000000020001c40        0x4 build/obj/stm32_dma.o
 .bss.CAND1     0x0000000020001c44       0x30 build/obj/can_lld.o
                0x0000000020001c44                CAND1
 .bss.I2CD2     0x0000000020001c74       0x38 build/obj/i2c_lld.o
                0x0000000020001c74                I2CD2
 *fill*         0x0000000020001cac        0x4 
 .bss.USBD1     0x0000000020001cb0      0x280 build/obj/usb_lld.o
                0x0000000020001cb0                USBD1
 .bss.ep0_state
                0x0000000020001f30       0x14 build/obj/usb_lld.o
 .bss.ep0setup_buffer
                0x0000000020001f44        0x8 build/obj/usb_lld.o
 .bss.dummytx   0x0000000020001f4c        0x2 build/obj/spi_lld.o
 *fill*         0x0000000020001f4e        0x2 
 .bss.SPID1     0x0000000020001f50       0x30 build/obj/spi_lld.o
                0x0000000020001f50                SPID1
 .bss.ICUD3     0x0000000020001f80       0x18 build/obj/icu_lld.o
                0x0000000020001f80                ICUD3
 .bss.UARTD3    0x0000000020001f98       0x1c build/obj/uart_lld.o
                0x0000000020001f98                UARTD3
 .bss.UARTD6    0x0000000020001fb4       0x1c build/obj/uart_lld.o
                0x0000000020001fb4                UARTD6
 .bss.timer_thread_wa
                0x0000000020001fd0      0x218 build/obj/main.o
 .bss.periodic_thread_wa
                0x00000000200021e8      0x598 build/obj/main.o
 .bss.ep2instate
                0x0000000020002780       0x14 build/obj/comm_usb_serial.o
 .bss.SDU1      0x0000000020002794      0x258 build/obj/comm_usb_serial.o
                0x0000000020002794                SDU1
 .bss.ep1instate
                0x00000000200029ec       0x14 build/obj/comm_usb_serial.o
 .bss.ep1outstate
                0x0000000020002a00       0x14 build/obj/comm_usb_serial.o
 .bss.serial_rx_write_pos
                0x0000000020002a14        0x4 build/obj/comm_usb.o
 .bss.send_mutex
                0x0000000020002a18       0x10 build/obj/comm_usb.o
 .bss.serial_process_thread_wa
                0x0000000020002a28     0x1198 build/obj/comm_usb.o
 .bss.serial_rx_buffer
                0x0000000020003bc0      0x800 build/obj/comm_usb.o
 .bss.serial_read_thread_wa
                0x00000000200043c0      0x398 build/obj/comm_usb.o
 .bss.serial_rx_read_pos
                0x0000000020004758        0x4 build/obj/comm_usb.o
 .bss.process_tp
                0x000000002000475c        0x4 build/obj/comm_usb.o
 .bss.led_values
                0x0000000020004760        0x8 build/obj/ledpwm.o
 .bss.cnt.9986  0x0000000020004768        0x4 build/obj/ledpwm.o
 .bss.gamma_table
                0x000000002000476c       0xcc build/obj/ledpwm.o
 .bss.init_done
                0x0000000020004838        0x1 build/obj/mcpwm.o
 *fill*         0x0000000020004839        0x3 
 .bss.rpm_now   0x000000002000483c        0x4 build/obj/mcpwm.o
 .bss.last_current_sample_filtered
                0x0000000020004840        0x4 build/obj/mcpwm.o
 .bss.amp_fir_index
                0x0000000020004844        0x4 build/obj/mcpwm.o
 .bss.switching_frequency_now
                0x0000000020004848        0x4 build/obj/mcpwm.o
 .bss.mcpwm_detect_currents
                0x000000002000484c       0x18 build/obj/mcpwm.o
                0x000000002000484c                mcpwm_detect_currents
 .bss.curr1_sum
                0x0000000020004864        0x4 build/obj/mcpwm.o
 .bss.last_pwm_cycles_sums
                0x0000000020004868       0x18 build/obj/mcpwm.o
 .bss.mcpwm_detect_avg_samples
                0x0000000020004880       0x18 build/obj/mcpwm.o
 .bss.hall_to_phase_table
                0x0000000020004898       0x40 build/obj/mcpwm.o
 .bss.last_current_sample
                0x00000000200048d8        0x4 build/obj/mcpwm.o
 .bss.curr1_offset
                0x00000000200048dc        0x4 build/obj/mcpwm.o
 .bss.amp_fir_samples
                0x00000000200048e0      0x200 build/obj/mcpwm.o
 .bss.sensorless_now
                0x0000000020004ae0        0x1 build/obj/mcpwm.o
 *fill*         0x0000000020004ae1        0x3 
 .bss.last_pwm_cycles_sum
                0x0000000020004ae4        0x4 build/obj/mcpwm.o
 .bss.dccal_done
                0x0000000020004ae8        0x1 build/obj/mcpwm.o
 *fill*         0x0000000020004ae9        0x3 
 .bss.curr_start_samples
                0x0000000020004aec        0x4 build/obj/mcpwm.o
 .bss.i_term.11719
                0x0000000020004af0        0x4 build/obj/mcpwm.o
 .bss.conf      0x0000000020004af4        0x4 build/obj/mcpwm.o
 .bss.current_fir_index
                0x0000000020004af8        0x4 build/obj/mcpwm.o
 .bss.rpm_dep   0x0000000020004afc       0x1c build/obj/mcpwm.o
 .bss.curr0_offset
                0x0000000020004b18        0x4 build/obj/mcpwm.o
 .bss.timer_struct
                0x0000000020004b1c       0x18 build/obj/mcpwm.o
 .bss.has_commutated
                0x0000000020004b34        0x4 build/obj/mcpwm.o
 .bss.mcpwm_vzero
                0x0000000020004b38        0x4 build/obj/mcpwm.o
                0x0000000020004b38                mcpwm_vzero
 .bss.state     0x0000000020004b3c        0x1 build/obj/mcpwm.o
 *fill*         0x0000000020004b3d        0x3 
 .bss.cycle_integrator.11814
                0x0000000020004b40        0x4 build/obj/mcpwm.o
 .bss.prev_error.11720
                0x0000000020004b44        0x4 build/obj/mcpwm.o
 .bss.dutycycle_set
                0x0000000020004b48        0x4 build/obj/mcpwm.o
 .bss.tachometer_for_direction
                0x0000000020004b4c        0x4 build/obj/mcpwm.o
 .bss.mcpwm_detect_voltages
                0x0000000020004b50       0x18 build/obj/mcpwm.o
                0x0000000020004b50                mcpwm_detect_voltages
 .bss.cnt_tmp.11755
                0x0000000020004b68        0x4 build/obj/mcpwm.o
 .bss.current_set
                0x0000000020004b6c        0x4 build/obj/mcpwm.o
 .bss.kv_fir_index
                0x0000000020004b70        0x4 build/obj/mcpwm.o
 .bss.cycle_sum.11826
                0x0000000020004b74        0x4 build/obj/mcpwm.o
 .bss.prev_tot_sample.11789
                0x0000000020004b78        0x4 build/obj/mcpwm.o
 .bss.tachometer
                0x0000000020004b7c        0x4 build/obj/mcpwm.o
 .bss.cycle_integrator_sum
                0x0000000020004b80        0x4 build/obj/mcpwm.o
 .bss.tachometer_abs
                0x0000000020004b84        0x4 build/obj/mcpwm.o
 .bss.last_adc_isr_duration
                0x0000000020004b88        0x4 build/obj/mcpwm.o
 .bss.mcpwm_detect_currents_diff
                0x0000000020004b8c       0x18 build/obj/mcpwm.o
                0x0000000020004b8c                mcpwm_detect_currents_diff
 .bss.comm_step
                0x0000000020004ba4        0x4 build/obj/mcpwm.o
 .bss.mcpwm_detect_currents_avg
                0x0000000020004ba8       0x18 build/obj/mcpwm.o
 .bss.pwm_cycles_sum
                0x0000000020004bc0        0x4 build/obj/mcpwm.o
 .bss.last_inj_adc_isr_duration
                0x0000000020004bc4        0x4 build/obj/mcpwm.o
 .bss.slow_ramping_cycles
                0x0000000020004bc8        0x4 build/obj/mcpwm.o
 .bss.curr_samp_volt
                0x0000000020004bcc        0x4 build/obj/mcpwm.o
 .bss.detect_step
                0x0000000020004bd0        0x4 build/obj/mcpwm.o
 .bss.last_step.11957
                0x0000000020004bd4        0x4 build/obj/mcpwm.o
 .bss.pwm_cycles
                0x0000000020004bd8        0x4 build/obj/mcpwm.o
 .bss.rpm_thd_stop
                0x0000000020004bdc        0x1 build/obj/mcpwm.o
 *fill*         0x0000000020004bdd        0x3 
 .bss.kv_fir_samples
                0x0000000020004be0      0x200 build/obj/mcpwm.o
 .bss.rpm_thread_wa
                0x0000000020004de0      0x598 build/obj/mcpwm.o
 .bss.cycle_integrator_iterations
                0x0000000020005378        0x4 build/obj/mcpwm.o
 .bss.ignore_iterations
                0x000000002000537c        0x4 build/obj/mcpwm.o
 .bss.amp_fir_coeffs
                0x0000000020005380      0x200 build/obj/mcpwm.o
 .bss.direction
                0x0000000020005580        0x4 build/obj/mcpwm.o
 .bss.kv_fir_coeffs
                0x0000000020005584      0x200 build/obj/mcpwm.o
 .bss.comm_mode_next
                0x0000000020005784        0x1 build/obj/mcpwm.o
 *fill*         0x0000000020005785        0x3 
 .bss.curr0_sum
                0x0000000020005788        0x4 build/obj/mcpwm.o
 .bss.current_fir_samples
                0x000000002000578c       0x40 build/obj/mcpwm.o
 .bss.timer_thd_stop
                0x00000000200057cc        0x1 build/obj/mcpwm.o
 .bss.control_mode
                0x00000000200057cd        0x1 build/obj/mcpwm.o
 *fill*         0x00000000200057ce        0x2 
 .bss.i_term.11730
                0x00000000200057d0        0x4 build/obj/mcpwm.o
 .bss.pos_pid_set_pos
                0x00000000200057d4        0x4 build/obj/mcpwm.o
 .bss.speed_pid_set_rpm
                0x00000000200057d8        0x4 build/obj/mcpwm.o
 .bss.rpm_filtered.11742
                0x00000000200057dc        0x4 build/obj/mcpwm.o
 .bss.dutycycle_now
                0x00000000200057e0        0x4 build/obj/mcpwm.o
 .bss.d_filtered.11725
                0x00000000200057e4        0x4 build/obj/mcpwm.o
 .bss.detect_now.11767
                0x00000000200057e8        0x4 build/obj/mcpwm.o
 *fill*         0x00000000200057ec        0x4 
 .bss.timer_thread_wa
                0x00000000200057f0      0x998 build/obj/mcpwm.o
 .bss.hall_detect_table
                0x0000000020006188       0xe0 build/obj/mcpwm.o
 .bss.limit_delay.11842
                0x0000000020006268        0x4 build/obj/mcpwm.o
 .bss.current_fir_coeffs
                0x000000002000626c       0x40 build/obj/mcpwm.o
 .bss.prev_error.11731
                0x00000000200062ac        0x4 build/obj/mcpwm.o
 .bss.servo_pos
                0x00000000200062b0        0x4 build/obj/servo_dec.o
 .bss.is_running
                0x00000000200062b4        0x1 build/obj/servo_dec.o
 *fill*         0x00000000200062b5        0x3 
 .bss.last_update_time
                0x00000000200062b8        0x4 build/obj/servo_dec.o
 .bss.last_len_received
                0x00000000200062bc        0x4 build/obj/servo_dec.o
 .bss.use_median_filter
                0x00000000200062c0        0x1 build/obj/servo_dec.o
 *fill*         0x00000000200062c1        0x3 
 .bss.done_func
                0x00000000200062c4        0x4 build/obj/servo_dec.o
 .bss.sys_lock_cnt
                0x00000000200062c8        0x4 build/obj/utils.o
 .bss.handler_states
                0x00000000200062cc     0x1040 build/obj/packet.o
 .bss.callbacks
                0x000000002000730c      0x190 build/obj/terminal.o
 .bss.fault_vec_write
                0x000000002000749c        0x4 build/obj/terminal.o
 .bss.fault_vec
                0x00000000200074a0      0x578 build/obj/terminal.o
 .bss.mcconf_old.11260
                0x0000000020007a18      0x174 build/obj/terminal.o
 .bss.mcconf.11259
                0x0000000020007b8c      0x174 build/obj/terminal.o
 .bss.callback_write
                0x0000000020007d00        0x4 build/obj/terminal.o
 .bss.mcconf    0x0000000020007d04      0x174 build/obj/conf_general.o
                0x0000000020007d04                mcconf
 .bss.conf_general_permanent_nrf_found
                0x0000000020007e78        0x1 build/obj/conf_general.o
                0x0000000020007e78                conf_general_permanent_nrf_found
 *fill*         0x0000000020007e79        0x3 
 .bss.mcconf_old
                0x0000000020007e7c      0x174 build/obj/conf_general.o
                0x0000000020007e7c                mcconf_old
 .bss.VirtAddVarTab
                0x0000000020007ff0      0x23c build/obj/conf_general.o
                0x0000000020007ff0                VirtAddVarTab
 .bss.DataVar   0x000000002000822c        0x2 build/obj/eeprom.o
                0x000000002000822c                DataVar
 *fill*         0x000000002000822e        0x2 
 .bss.send_func
                0x0000000020008230        0x4 build/obj/commands.o
 .bss.detect_min_rpm
                0x0000000020008234        0x4 build/obj/commands.o
 .bss.appdata_func
                0x0000000020008238        0x4 build/obj/commands.o
 .bss.detect_hall_table
                0x000000002000823c        0x8 build/obj/commands.o
 .bss.print_buffer.11487
                0x0000000020008244      0x100 build/obj/commands.o
 .bss.mcconf_old.11419
                0x0000000020008344      0x174 build/obj/commands.o
 .bss.detect_hall_res
                0x00000000200084b8        0x4 build/obj/commands.o
 *fill*         0x00000000200084bc        0x4 
 .bss.detect_thread_wa
                0x00000000200084c0      0x998 build/obj/commands.o
 .bss.send_buffer
                0x0000000020008e58      0x400 build/obj/commands.o
 .bss.detect_tp
                0x0000000020009258        0x4 build/obj/commands.o
 .bss.detect_low_duty
                0x000000002000925c        0x4 build/obj/commands.o
 .bss.mcconf.11418
                0x0000000020009260      0x174 build/obj/commands.o
 .bss.detect_current
                0x00000000200093d4        0x4 build/obj/commands.o
 .bss.detect_coupling_k
                0x00000000200093d8        0x4 build/obj/commands.o
 .bss.send_func_last
                0x00000000200093dc        0x4 build/obj/commands.o
 .bss.detect_cycle_int_limit
                0x00000000200093e0        0x4 build/obj/commands.o
 .bss.display_position_mode
                0x00000000200093e4        0x1 build/obj/commands.o
 *fill*         0x00000000200093e5        0x3 
 .bss.timeout_thread_wa
                0x00000000200093e8      0x398 build/obj/timeout.o
 .bss.last_update_time
                0x0000000020009780        0x4 build/obj/timeout.o
 .bss.timeout_brake_current
                0x0000000020009784        0x4 build/obj/timeout.o
 .bss.has_timeout
                0x0000000020009788        0x1 build/obj/timeout.o
 *fill*         0x0000000020009789        0x3 
 .bss.timeout_msec
                0x000000002000978c        0x4 build/obj/timeout.o
 .bss.cancom_process_thread_wa
                0x0000000020009790     0x1198 build/obj/comm_can.o
 .bss.rx_frame_read
                0x000000002000a928        0x4 build/obj/comm_can.o
 .bss.rx_buffer
                0x000000002000a92c      0x400 build/obj/comm_can.o
 *fill*         0x000000002000ad2c        0x4 
 .bss.cancom_status_thread_wa
                0x000000002000ad30      0x598 build/obj/comm_can.o
 .bss.stat_msgs
                0x000000002000b2c8       0xc8 build/obj/comm_can.o
 .bss.rx_frames
                0x000000002000b390      0x7d0 build/obj/comm_can.o
 .bss.can_mtx   0x000000002000bb60       0x10 build/obj/comm_can.o
 .bss.sid_callback
                0x000000002000bb70        0x4 build/obj/comm_can.o
 *fill*         0x000000002000bb74        0x4 
 .bss.cancom_read_thread_wa
                0x000000002000bb78      0x398 build/obj/comm_can.o
 .bss.process_tp
                0x000000002000bf10        0x4 build/obj/comm_can.o
 .bss.rx_buffer_last_id
                0x000000002000bf14        0x4 build/obj/comm_can.o
 .bss.rx_frame_write
                0x000000002000bf18        0x4 build/obj/comm_can.o
 .bss.reverse_leds
                0x000000002000bf1c        0x1 build/obj/led_external.o
 .bss.state     0x000000002000bf1d        0x1 build/obj/led_external.o
 *fill*         0x000000002000bf1e        0x2 
 .bss.angle.9264
                0x000000002000bf20        0x4 build/obj/encoder.o
 .bss.cumulative_encoder_counts
                0x000000002000bf24        0x4 build/obj/encoder.o
 .bss.last_encoder_counts
                0x000000002000bf28        0x4 build/obj/encoder.o
 .bss.index_found
                0x000000002000bf2c        0x1 build/obj/encoder.o
 .bss.mode      0x000000002000bf2d        0x1 build/obj/encoder.o
 *fill*         0x000000002000bf2e        0x2 
 .bss.last_enc_angle
                0x000000002000bf30        0x4 build/obj/encoder.o
 .bss.bad_pulses.9276
                0x000000002000bf34        0x4 build/obj/encoder.o
 .bss.m_sample_trigger
                0x000000002000bf38        0x4 build/obj/mc_interface.o
 .bss.a.10716   0x000000002000bf3c        0x4 build/obj/mc_interface.o
 .bss.m_sample_int
                0x000000002000bf40        0x4 build/obj/mc_interface.o
 .bss.curr_diff_sum.10703
                0x000000002000bf44        0x4 build/obj/mc_interface.o
 .bss.m_watt_seconds_charged
                0x000000002000bf48        0x4 build/obj/mc_interface.o
 .bss.m_motor_iq_sum
                0x000000002000bf4c        0x4 build/obj/mc_interface.o
 .bss.m_motor_id_sum
                0x000000002000bf50        0x4 build/obj/mc_interface.o
 .bss.ADC_Value
                0x000000002000bf54       0x18 build/obj/mc_interface.o
                0x000000002000bf54                ADC_Value
 .bss.m_motor_current_iterations
                0x000000002000bf6c        0x4 build/obj/mc_interface.o
 .bss.m_last_adc_duration_sample
                0x000000002000bf70        0x4 build/obj/mc_interface.o
 .bss.m_motor_iq_iterations
                0x000000002000bf74        0x4 build/obj/mc_interface.o
 .bss.m_amp_seconds_charged
                0x000000002000bf78        0x4 build/obj/mc_interface.o
 .bss.pwn_done_func
                0x000000002000bf7c        0x4 build/obj/mc_interface.o
 .bss.m_input_current_sum
                0x000000002000bf80        0x4 build/obj/mc_interface.o
 .bss.curr_diff_samples.10704
                0x000000002000bf84        0x4 build/obj/mc_interface.o
 .bss.m_sample_len
                0x000000002000bf88        0x4 build/obj/mc_interface.o
 .bss.m_conf    0x000000002000bf8c      0x174 build/obj/mc_interface.o
 .bss.m_fault_now
                0x000000002000c100        0x1 build/obj/mc_interface.o
 *fill*         0x000000002000c101        0x3 
 .bss.sample_send_tp
                0x000000002000c104        0x4 build/obj/mc_interface.o
 .bss.m_cycles_running
                0x000000002000c108        0x4 build/obj/mc_interface.o
 .bss.m_temp_fet
                0x000000002000c10c        0x4 build/obj/mc_interface.o
 .bss.m_motor_id_iterations
                0x000000002000c110        0x4 build/obj/mc_interface.o
 .bss.m_motor_current_sum
                0x000000002000c114        0x4 build/obj/mc_interface.o
 .bss.m_input_current_iterations
                0x000000002000c118        0x4 build/obj/mc_interface.o
 .bss.m_amp_seconds
                0x000000002000c11c        0x4 build/obj/mc_interface.o
 .bss.sample_send_thread_wa
                0x000000002000c120      0x598 build/obj/mc_interface.o
 .bss.m_ignore_iterations
                0x000000002000c6b8        0x4 build/obj/mc_interface.o
 .bss.m_sample_mode_last
                0x000000002000c6bc        0x1 build/obj/mc_interface.o
 *fill*         0x000000002000c6bd        0x3 
 .bss.wrong_voltage_iterations.10697
                0x000000002000c6c0        0x4 build/obj/mc_interface.o
 .bss.m_lock_enabled
                0x000000002000c6c4        0x1 build/obj/mc_interface.o
 .bss.m_lock_override_once
                0x000000002000c6c5        0x1 build/obj/mc_interface.o
 *fill*         0x000000002000c6c6        0x2 
 .bss.m_watt_seconds
                0x000000002000c6c8        0x4 build/obj/mc_interface.o
 .bss.ADC_curr_norm_value
                0x000000002000c6cc        0xc build/obj/mc_interface.o
                0x000000002000c6cc                ADC_curr_norm_value
 .bss.m_position_set
                0x000000002000c6d8        0x4 build/obj/mc_interface.o
 .bss.m_sample_now
                0x000000002000c6dc        0x4 build/obj/mc_interface.o
 .bss.timer_thread_wa
                0x000000002000c6e0      0x598 build/obj/mc_interface.o
 .bss.m_sample_mode
                0x000000002000cc78        0x1 build/obj/mc_interface.o
 *fill*         0x000000002000cc79        0x3 
 .bss.m_temp_motor
                0x000000002000cc7c        0x4 build/obj/mc_interface.o
 .bss.dt_int.11380
                0x000000002000cc80        0x4 build/obj/mcpwm_foc.o
 .bss.m_speed_pid_set_rpm
                0x000000002000cc84        0x4 build/obj/mcpwm_foc.o
 .bss.m_dccal_done
                0x000000002000cc88        0x1 build/obj/mcpwm_foc.o
 *fill*         0x000000002000cc89        0x3 
 .bss.m_curr1_offset
                0x000000002000cc8c        0x4 build/obj/mcpwm_foc.o
 .bss.m_init_done
                0x000000002000cc90        0x1 build/obj/mcpwm_foc.o
 .bss.m_control_mode
                0x000000002000cc91        0x1 build/obj/mcpwm_foc.o
 *fill*         0x000000002000cc92        0x2 
 .bss.duty_i_term.11221
                0x000000002000cc94        0x4 build/obj/mcpwm_foc.o
 .bss.m_curr0_sum
                0x000000002000cc98        0x4 build/obj/mcpwm_foc.o
 .bss.m_samples
                0x000000002000cc9c       0x14 build/obj/mcpwm_foc.o
 .bss.m_gamma_now
                0x000000002000ccb0        0x4 build/obj/mcpwm_foc.o
 .bss.m_tachometer_abs
                0x000000002000ccb4        0x4 build/obj/mcpwm_foc.o
 .bss.m_state   0x000000002000ccb8        0x1 build/obj/mcpwm_foc.o
 *fill*         0x000000002000ccb9        0x3 
 .bss.m_pos_pid_set
                0x000000002000ccbc        0x4 build/obj/mcpwm_foc.o
 .bss.openloop_angle.11230
                0x000000002000ccc0        0x4 build/obj/mcpwm_foc.o
 .bss.prev_error.11386
                0x000000002000ccc4        0x4 build/obj/mcpwm_foc.o
 .bss.m_conf    0x000000002000ccc8        0x4 build/obj/mcpwm_foc.o
 .bss.min_rpm_timer.11257
                0x000000002000cccc        0x4 build/obj/mcpwm_foc.o
 .bss.m_tachometer
                0x000000002000ccd0        0x4 build/obj/mcpwm_foc.o
 .bss.i_term.11375
                0x000000002000ccd4        0x4 build/obj/mcpwm_foc.o
 .bss.m_phase_now_observer
                0x000000002000ccd8        0x4 build/obj/mcpwm_foc.o
 .bss.ang_hall.11428
                0x000000002000ccdc        0x4 build/obj/mcpwm_foc.o
 .bss.m_motor_state
                0x000000002000cce0       0x60 build/obj/mcpwm_foc.o
 .bss.step_last.11245
                0x000000002000cd40        0x4 build/obj/mcpwm_foc.o
 .bss.m_curr1_sum
                0x000000002000cd44        0x4 build/obj/mcpwm_foc.o
 .bss.m_iq_set  0x000000002000cd48        0x4 build/obj/mcpwm_foc.o
 .bss.m_observer_x1
                0x000000002000cd4c        0x4 build/obj/mcpwm_foc.o
 .bss.m_observer_x2
                0x000000002000cd50        0x4 build/obj/mcpwm_foc.o
 .bss.m_phase_now_encoder_no_index
                0x000000002000cd54        0x4 build/obj/mcpwm_foc.o
 .bss.m_curr0_offset
                0x000000002000cd58        0x4 build/obj/mcpwm_foc.o
 .bss.last_inj_adc_isr_duration
                0x000000002000cd5c        0x4 build/obj/mcpwm_foc.o
 .bss.m_id_set  0x000000002000cd60        0x4 build/obj/mcpwm_foc.o
 .bss.inductance_state.11207
                0x000000002000cd64        0x4 build/obj/mcpwm_foc.o
 .bss.phase_before.11213
                0x000000002000cd68        0x4 build/obj/mcpwm_foc.o
 .bss.m_output_on
                0x000000002000cd6c        0x1 build/obj/mcpwm_foc.o
 *fill*         0x000000002000cd6d        0x3 
 .bss.m_pll_phase
                0x000000002000cd70        0x4 build/obj/mcpwm_foc.o
 .bss.m_phase_override
                0x000000002000cd74        0x1 build/obj/mcpwm_foc.o
 *fill*         0x000000002000cd75        0x3 
 .bss.duty_filtered.11218
                0x000000002000cd78        0x4 build/obj/mcpwm_foc.o
 .bss.m_phase_now_override
                0x000000002000cd7c        0x4 build/obj/mcpwm_foc.o
 .bss.m_phase_now_observer_override
                0x000000002000cd80        0x4 build/obj/mcpwm_foc.o
 .bss.prev_error.11376
                0x000000002000cd84        0x4 build/obj/mcpwm_foc.o
 .bss.m_phase_now_encoder
                0x000000002000cd88        0x4 build/obj/mcpwm_foc.o
 .bss.m_duty_cycle_set
                0x000000002000cd8c        0x4 build/obj/mcpwm_foc.o
 .bss.m_curr_samples
                0x000000002000cd90        0x4 build/obj/mcpwm_foc.o
 .bss.m_phase_observer_override
                0x000000002000cd94        0x1 build/obj/mcpwm_foc.o
 *fill*         0x000000002000cd95        0x3 
 .bss.m_openloop_speed
                0x000000002000cd98        0x4 build/obj/mcpwm_foc.o
 .bss.min_rpm_hyst_timer.11256
                0x000000002000cd9c        0x4 build/obj/mcpwm_foc.o
 .bss.m_pll_speed
                0x000000002000cda0        0x4 build/obj/mcpwm_foc.o
 .bss.angle_last.11248
                0x000000002000cda4        0x4 build/obj/mcpwm_foc.o
 .bss.i_term.11385
                0x000000002000cda8        0x4 build/obj/mcpwm_foc.o
 .bss.timer_thd_stop
                0x000000002000cdac        0x1 build/obj/mcpwm_foc.o
 *fill*         0x000000002000cdad        0x3 
 .bss.m_pos_pid_now
                0x000000002000cdb0        0x4 build/obj/mcpwm_foc.o
 *fill*         0x000000002000cdb4        0x4 
 .bss.timer_thread_wa
                0x000000002000cdb8      0x998 build/obj/mcpwm_foc.o
 .bss.i2c_running
                0x000000002000d750        0x1 build/obj/hw_410.o
 *fill*         0x000000002000d751        0x3 
 .bss.appconf   0x000000002000d754       0xc8 build/obj/app.o
 .bss.is_running
                0x000000002000d81c        0x1 build/obj/app_ppm.o
 *fill*         0x000000002000d81d        0x3 
 .bss.pulses_without_power_before.10159
                0x000000002000d820        0x4 build/obj/app_ppm.o
 .bss.ppm_tp    0x000000002000d824        0x4 build/obj/app_ppm.o
 .bss.ppm_thread_wa
                0x000000002000d828      0x598 build/obj/app_ppm.o
 .bss.pulses_without_power
                0x000000002000ddc0        0x4 build/obj/app_ppm.o
 .bss.servo_val_ramp.10143
                0x000000002000ddc4        0x4 build/obj/app_ppm.o
 .bss.vt        0x000000002000ddc8       0x14 build/obj/app_ppm.o
                0x000000002000ddc8                vt
 .bss.last_time.10142
                0x000000002000dddc        0x4 build/obj/app_ppm.o
 .bss.config    0x000000002000dde0       0x38 build/obj/app_ppm.o
 .bss.input_val
                0x000000002000de18        0x4 build/obj/app_ppm.o
 .bss.filter_ptr.10188
                0x000000002000de1c        0x4 build/obj/app_adc.o
 .bss.is_running
                0x000000002000de20        0x1 build/obj/app_adc.o
 *fill*         0x000000002000de21        0x3 
 .bss.read_voltage2
                0x000000002000de24        0x4 build/obj/app_adc.o
 .bss.filter_buffer.10187
                0x000000002000de28       0x20 build/obj/app_adc.o
 .bss.read_voltage
                0x000000002000de48        0x4 build/obj/app_adc.o
 .bss.pwr_ramp.10154
                0x000000002000de4c        0x4 build/obj/app_adc.o
 .bss.filter_ptr2.10134
                0x000000002000de50        0x4 build/obj/app_adc.o
 .bss.pulses_without_power_before.10180
                0x000000002000de54        0x4 build/obj/app_adc.o
 .bss.was_pid.10186
                0x000000002000de58        0x1 build/obj/app_adc.o
 *fill*         0x000000002000de59        0x3 
 .bss.ms_without_power
                0x000000002000de5c        0x4 build/obj/app_adc.o
 .bss.pid_rpm.10194
                0x000000002000de60        0x4 build/obj/app_adc.o
 .bss.decoded_level2
                0x000000002000de64        0x4 build/obj/app_adc.o
 .bss.filter_buffer2.10133
                0x000000002000de68       0x14 build/obj/app_adc.o
 .bss.config    0x000000002000de7c       0x44 build/obj/app_adc.o
 .bss.use_rx_tx_as_buttons
                0x000000002000dec0        0x1 build/obj/app_adc.o
 *fill*         0x000000002000dec1        0x3 
 .bss.filter_ptr.10121
                0x000000002000dec4        0x4 build/obj/app_adc.o
 .bss.last_time.10153
                0x000000002000dec8        0x4 build/obj/app_adc.o
 .bss.filter_buffer.10120
                0x000000002000decc       0x14 build/obj/app_adc.o
 .bss.decoded_level
                0x000000002000dee0        0x4 build/obj/app_adc.o
 *fill*         0x000000002000dee4        0x4 
 .bss.adc_thread_wa
                0x000000002000dee8      0x598 build/obj/app_adc.o
 .bss.serial_rx_write_pos
                0x000000002000e480        0x4 build/obj/app_uartcomm.o
 .bss.is_running
                0x000000002000e484        0x1 build/obj/app_uartcomm.o
 *fill*         0x000000002000e485        0x3 
 .bss.packet_process_thread_wa
                0x000000002000e488     0x1198 build/obj/app_uartcomm.o
 .bss.serial_rx_buffer
                0x000000002000f620      0x400 build/obj/app_uartcomm.o
 .bss.buffer.9594
                0x000000002000fa20      0x408 build/obj/app_uartcomm.o
 .bss.serial_rx_read_pos
                0x000000002000fe28        0x4 build/obj/app_uartcomm.o
 .bss.process_tp
                0x000000002000fe2c        0x4 build/obj/app_uartcomm.o
 .bss.output_running
                0x000000002000fe30        0x1 build/obj/app_nunchuk.o
 *fill*         0x000000002000fe31        0x7 
 .bss.chuk_thread_wa
                0x000000002000fe38      0x598 build/obj/app_nunchuk.o
 .bss.pid_rpm.10378
                0x00000000200103d0        0x4 build/obj/app_nunchuk.o
 .bss.prev_current.10366
                0x00000000200103d4        0x4 build/obj/app_nunchuk.o
 .bss.output_thread_wa
                0x00000000200103d8      0x598 build/obj/app_nunchuk.o
 .bss.filter_ptr.10372
                0x0000000020010970        0x4 build/obj/app_nunchuk.o
 .bss.is_running
                0x0000000020010974        0x1 build/obj/app_nunchuk.o
 *fill*         0x0000000020010975        0x3 
 .bss.filter_buffer.10371
                0x0000000020010978       0x20 build/obj/app_nunchuk.o
 .bss.chuck_d   0x0000000020010998       0x18 build/obj/app_nunchuk.o
 .bss.last_buffer.10351
                0x00000000200109b0        0x8 build/obj/app_nunchuk.o
 .bss.last_update_time
                0x00000000200109b8        0x4 build/obj/app_nunchuk.o
 .bss.was_pid.10370
                0x00000000200109bc        0x1 build/obj/app_nunchuk.o
 *fill*         0x00000000200109bd        0x3 
 .bss.chuck_error
                0x00000000200109c0        0x4 build/obj/app_nunchuk.o
 .bss.was_z.10364
                0x00000000200109c4        0x1 build/obj/app_nunchuk.o
 *fill*         0x00000000200109c5        0x3 
 .bss.config    0x00000000200109c8       0x24 build/obj/app_nunchuk.o
 .bss.is_reverse.10363
                0x00000000200109ec        0x1 build/obj/app_nunchuk.o
 .bss.m_init_done
                0x00000000200109ed        0x1 build/obj/spi_sw.o
 .bss.init_done
                0x00000000200109ee        0x1 build/obj/rfhelp.o
 *fill*         0x00000000200109ef        0x1 
 .bss.tx_addr   0x00000000200109f0        0x8 build/obj/rfhelp.o
 .bss.nrf_conf  0x00000000200109f8        0xc build/obj/rfhelp.o
 .bss.rx_addr_set
                0x0000000020010a04        0x8 build/obj/rfhelp.o
 .bss.rf_mutex  0x0000000020010a0c       0x10 build/obj/rfhelp.o
 .bss.rx_addr   0x0000000020010a1c       0x20 build/obj/rfhelp.o
 .bss.address_length
                0x0000000020010a3c        0x4 build/obj/rfhelp.o
 .bss.tx_pipe0_addr_eq
                0x0000000020010a40        0x1 build/obj/rfhelp.o
 *fill*         0x0000000020010a41        0x3 
 .bss.nosend_cnt
                0x0000000020010a44        0x4 build/obj/nrf_driver.o
 .bss.tx_running
                0x0000000020010a48        0x1 build/obj/nrf_driver.o
 *fill*         0x0000000020010a49        0x3 
 .bss.nrf_restart_tx_time
                0x0000000020010a4c        0x4 build/obj/nrf_driver.o
 .bss.pairing_time_end
                0x0000000020010a50        0x4 build/obj/nrf_driver.o
 .bss.rx_running
                0x0000000020010a54        0x1 build/obj/nrf_driver.o
 .bss.from_nrf  0x0000000020010a55        0x1 build/obj/nrf_driver.o
 *fill*         0x0000000020010a56        0x2 
 .bss.rx_thread_wa
                0x0000000020010a58      0x998 build/obj/nrf_driver.o
 .bss.nrf_restart_rx_time
                0x00000000200113f0        0x4 build/obj/nrf_driver.o
 .bss.rx_buffer
                0x00000000200113f4      0x400 build/obj/nrf_driver.o
 .bss.pairing_active
                0x00000000200117f4        0x1 build/obj/nrf_driver.o
 *fill*         0x00000000200117f5        0x3 
 .bss.mstate    0x00000000200117f8        0xc build/obj/nrf_driver.o
 *fill*         0x0000000020011804        0x4 
 .bss.tx_thread_wa
                0x0000000020011808      0x398 build/obj/nrf_driver.o
 .bss.__malloc_max_total_mem
                0x0000000020011ba0        0x4 /usr/lib/gcc/arm-none-eabi/4.8/../../../arm-none-eabi/lib/armv7e-m/fpu/libg.a(lib_a-mallocr.o)
                0x0000000020011ba0                __malloc_max_total_mem
 .bss.__malloc_max_sbrked_mem
                0x0000000020011ba4        0x4 /usr/lib/gcc/arm-none-eabi/4.8/../../../arm-none-eabi/lib/armv7e-m/fpu/libg.a(lib_a-mallocr.o)
                0x0000000020011ba4                __malloc_max_sbrked_mem
 .bss.__malloc_top_pad
                0x0000000020011ba8        0x4 /usr/lib/gcc/arm-none-eabi/4.8/../../../arm-none-eabi/lib/armv7e-m/fpu/libg.a(lib_a-mallocr.o)
                0x0000000020011ba8                __malloc_top_pad
 .bss.__malloc_current_mallinfo
                0x0000000020011bac       0x28 /usr/lib/gcc/arm-none-eabi/4.8/../../../arm-none-eabi/lib/armv7e-m/fpu/libg.a(lib_a-mallocr.o)
                0x0000000020011bac                __malloc_current_mallinfo
 *(COMMON)
                0x0000000020011bd4                . = ALIGN (0x4)
                0x0000000020011bd4                PROVIDE (_bss_end, .)
                0x0000000020011bd4                PROVIDE (end, .)

.ram0           0x0000000020011bd4        0x0 load address 0x0000000008031a38
                0x0000000020011bd4                . = ALIGN (0x4)
 *(.ram0)
 *(.ram0.*)
                0x0000000020011bd4                . = ALIGN (0x4)
                0x0000000020011bd4                __ram0_free__ = .

.ram1           0x0000000020000000        0x0
                0x0000000020000000                . = ALIGN (0x4)
 *(.ram1)
 *(.ram1.*)
                0x0000000020000000                . = ALIGN (0x4)
                0x0000000020000000                __ram1_free__ = .

.ram2           0x000000002001c000        0x0
                0x000000002001c000                . = ALIGN (0x4)
 *(.ram2)
 *(.ram2.*)
                0x000000002001c000                . = ALIGN (0x4)
                0x000000002001c000                __ram2_free__ = .

.ram3           0x0000000000000000        0x0
                0x0000000000000000                . = ALIGN (0x4)
 *(.ram3)
 *(.ram3.*)
                0x0000000000000000                . = ALIGN (0x4)
                0x0000000000000000                __ram3_free__ = .

.ram4           0x0000000010000000     0x8ca0
                0x0000000010000000                . = ALIGN (0x4)
 *(.ram4)
 .ram4          0x0000000010000000     0x8ca0 build/obj/mc_interface.o
 *(.ram4.*)
                0x0000000010008ca0                . = ALIGN (0x4)
                0x0000000010008ca0                __ram4_free__ = .

.ram5           0x0000000040024000        0x0
                0x0000000040024000                . = ALIGN (0x4)
 *(.ram5)
 *(.ram5.*)
                0x0000000040024000                . = ALIGN (0x4)
                0x0000000040024000                __ram5_free__ = .

.ram6           0x0000000000000000        0x0
                0x0000000000000000                . = ALIGN (0x4)
 *(.ram6)
 *(.ram6.*)
                0x0000000000000000                . = ALIGN (0x4)
                0x0000000000000000                __ram6_free__ = .

.ram7           0x0000000000000000        0x0
                0x0000000000000000                . = ALIGN (0x4)
 *(.ram7)
 *(.ram7.*)
                0x0000000000000000                . = ALIGN (0x4)
                0x0000000000000000                __ram7_free__ = .
                0x0000000020011bd4                __heap_base__ = __ram0_free__
                0x0000000020020000                __heap_end__ = __ram0_end__
                0x0000000000000800                __process_stack_size__ = 0x800
                0x0000000000000800                __main_stack_size__ = 0x800
LOAD /usr/lib/gcc/arm-none-eabi/4.8/../../../arm-none-eabi/lib/armv7e-m/fpu/libm.a
START GROUP
LOAD /usr/lib/gcc/arm-none-eabi/4.8/armv7e-m/fpu/libgcc.a
LOAD /usr/lib/gcc/arm-none-eabi/4.8/../../../arm-none-eabi/lib/armv7e-m/fpu/libg.a
LOAD /usr/lib/gcc/arm-none-eabi/4.8/../../../arm-none-eabi/lib/armv7e-m/fpu/libc.a
END GROUP
OUTPUT(build/BLDC_4_ChibiOS.elf elf32-littlearm)

.ARM.attributes
                0x0000000000000000       0x35
 .ARM.attributes
                0x0000000000000000       0x25 build/obj/crt0_v7m.o
 .ARM.attributes
                0x0000000000000025       0x25 build/obj/chcoreasm_v7m.o
 .ARM.attributes
                0x000000000000004a       0x39 build/obj/crt1.o
 .ARM.attributes
                0x0000000000000083       0x39 build/obj/vectors.o
 .ARM.attributes
                0x00000000000000bc       0x39 build/obj/chsys.o
 .ARM.attributes
                0x00000000000000f5       0x39 build/obj/chvt.o
 .ARM.attributes
                0x000000000000012e       0x39 build/obj/chschd.o
 .ARM.attributes
                0x0000000000000167       0x39 build/obj/chthreads.o
 .ARM.attributes
                0x00000000000001a0       0x39 build/obj/chtm.o
 .ARM.attributes
                0x00000000000001d9       0x39 build/obj/chdynamic.o
 .ARM.attributes
                0x0000000000000212       0x39 build/obj/chregistry.o
 .ARM.attributes
                0x000000000000024b       0x39 build/obj/chmtx.o
 .ARM.attributes
                0x0000000000000284       0x39 build/obj/chevents.o
 .ARM.attributes
                0x00000000000002bd       0x39 build/obj/chqueues.o
 .ARM.attributes
                0x00000000000002f6       0x39 build/obj/chmemcore.o
 .ARM.attributes
                0x000000000000032f       0x39 build/obj/chheap.o
 .ARM.attributes
                0x0000000000000368       0x39 build/obj/chmempools.o
 .ARM.attributes
                0x00000000000003a1       0x39 build/obj/chcore_v7m.o
 .ARM.attributes
                0x00000000000003da       0x39 build/obj/hal.o
 .ARM.attributes
                0x0000000000000413       0x39 build/obj/st.o
 .ARM.attributes
                0x000000000000044c       0x39 build/obj/can.o
 .ARM.attributes
                0x0000000000000485       0x39 build/obj/i2c.o
 .ARM.attributes
                0x00000000000004be       0x39 build/obj/icu.o
 .ARM.attributes
                0x00000000000004f7       0x39 build/obj/serial_usb.o
 .ARM.attributes
                0x0000000000000530       0x39 build/obj/spi.o
 .ARM.attributes
                0x0000000000000569       0x39 build/obj/uart.o
 .ARM.attributes
                0x00000000000005a2       0x39 build/obj/usb.o
 .ARM.attributes
                0x00000000000005db       0x39 build/obj/nvic.o
 .ARM.attributes
                0x0000000000000614       0x39 build/obj/stm32_dma.o
 .ARM.attributes
                0x000000000000064d       0x39 build/obj/hal_lld.o
 .ARM.attributes
                0x0000000000000686       0x39 build/obj/st_lld.o
 .ARM.attributes
                0x00000000000006bf       0x39 build/obj/can_lld.o
 .ARM.attributes
                0x00000000000006f8       0x39 build/obj/pal_lld.o
 .ARM.attributes
                0x0000000000000731       0x39 build/obj/i2c_lld.o
 .ARM.attributes
                0x000000000000076a       0x39 build/obj/usb_lld.o
 .ARM.attributes
                0x00000000000007a3       0x39 build/obj/spi_lld.o
 .ARM.attributes
                0x00000000000007dc       0x39 build/obj/icu_lld.o
 .ARM.attributes
                0x0000000000000815       0x39 build/obj/uart_lld.o
 .ARM.attributes
                0x000000000000084e       0x39 build/obj/syscalls.o
 .ARM.attributes
                0x0000000000000887       0x39 build/obj/board.o
 .ARM.attributes
                0x00000000000008c0       0x39 build/obj/main.o
 .ARM.attributes
                0x00000000000008f9       0x39 build/obj/comm_usb_serial.o
 .ARM.attributes
                0x0000000000000932       0x39 build/obj/irq_handlers.o
 .ARM.attributes
                0x000000000000096b       0x39 build/obj/buffer.o
 .ARM.attributes
                0x00000000000009a4       0x39 build/obj/comm_usb.o
 .ARM.attributes
                0x00000000000009dd       0x39 build/obj/crc.o
 .ARM.attributes
                0x0000000000000a16       0x39 build/obj/digital_filter.o
 .ARM.attributes
                0x0000000000000a4f       0x39 build/obj/ledpwm.o
 .ARM.attributes
                0x0000000000000a88       0x39 build/obj/mcpwm.o
 .ARM.attributes
                0x0000000000000ac1       0x39 build/obj/servo_dec.o
 .ARM.attributes
                0x0000000000000afa       0x39 build/obj/utils.o
 .ARM.attributes
                0x0000000000000b33       0x39 build/obj/packet.o
 .ARM.attributes
                0x0000000000000b6c       0x39 build/obj/terminal.o
 .ARM.attributes
                0x0000000000000ba5       0x39 build/obj/conf_general.o
 .ARM.attributes
                0x0000000000000bde       0x39 build/obj/eeprom.o
 .ARM.attributes
                0x0000000000000c17       0x39 build/obj/commands.o
 .ARM.attributes
                0x0000000000000c50       0x39 build/obj/timeout.o
 .ARM.attributes
                0x0000000000000c89       0x39 build/obj/comm_can.o
 .ARM.attributes
                0x0000000000000cc2       0x39 build/obj/led_external.o
 .ARM.attributes
                0x0000000000000cfb       0x39 build/obj/encoder.o
 .ARM.attributes
                0x0000000000000d34       0x39 build/obj/flash_helper.o
 .ARM.attributes
                0x0000000000000d6d       0x39 build/obj/mc_interface.o
 .ARM.attributes
                0x0000000000000da6       0x39 build/obj/mcpwm_foc.o
 .ARM.attributes
                0x0000000000000ddf       0x39 build/obj/hw_410.o
 .ARM.attributes
                0x0000000000000e18       0x39 build/obj/app.o
 .ARM.attributes
                0x0000000000000e51       0x39 build/obj/app_ppm.o
 .ARM.attributes
                0x0000000000000e8a       0x39 build/obj/app_adc.o
 .ARM.attributes
                0x0000000000000ec3       0x39 build/obj/app_uartcomm.o
 .ARM.attributes
                0x0000000000000efc       0x39 build/obj/app_nunchuk.o
 .ARM.attributes
                0x0000000000000f35       0x39 build/obj/spi_sw.o
 .ARM.attributes
                0x0000000000000f6e       0x39 build/obj/rf.o
 .ARM.attributes
                0x0000000000000fa7       0x39 build/obj/rfhelp.o
 .ARM.attributes
                0x0000000000000fe0       0x39 build/obj/nrf_driver.o
 .ARM.attributes
                0x0000000000001019       0x39 build/obj/stm32f4xx_adc.o
 .ARM.attributes
                0x0000000000001052       0x39 build/obj/stm32f4xx_dma.o
 .ARM.attributes
                0x000000000000108b       0x39 build/obj/stm32f4xx_exti.o
 .ARM.attributes
                0x00000000000010c4       0x39 build/obj/stm32f4xx_flash.o
 .ARM.attributes
                0x00000000000010fd       0x39 build/obj/stm32f4xx_rcc.o
 .ARM.attributes
                0x0000000000001136       0x39 build/obj/stm32f4xx_syscfg.o
 .ARM.attributes
                0x000000000000116f       0x39 build/obj/stm32f4xx_tim.o
 .ARM.attributes
                0x00000000000011a8       0x39 build/obj/stm32f4xx_wwdg.o
 .ARM.attributes
                0x00000000000011e1       0x34 /usr/lib/gcc/arm-none-eabi/4.8/../../../arm-none-eabi/lib/armv7e-m/fpu/libm.a(lib_a-sf_cos.o)
 .ARM.attributes
                0x0000000000001215       0x34 /usr/lib/gcc/arm-none-eabi/4.8/../../../arm-none-eabi/lib/armv7e-m/fpu/libm.a(lib_a-sf_floor.o)
 .ARM.attributes
                0x0000000000001249       0x34 /usr/lib/gcc/arm-none-eabi/4.8/../../../arm-none-eabi/lib/armv7e-m/fpu/libm.a(lib_a-sf_frexp.o)
 .ARM.attributes
                0x000000000000127d       0x34 /usr/lib/gcc/arm-none-eabi/4.8/../../../arm-none-eabi/lib/armv7e-m/fpu/libm.a(lib_a-sf_ldexp.o)
 .ARM.attributes
                0x00000000000012b1       0x34 /usr/lib/gcc/arm-none-eabi/4.8/../../../arm-none-eabi/lib/armv7e-m/fpu/libm.a(lib_a-sf_round.o)
 .ARM.attributes
                0x00000000000012e5       0x34 /usr/lib/gcc/arm-none-eabi/4.8/../../../arm-none-eabi/lib/armv7e-m/fpu/libm.a(lib_a-sf_scalbn.o)
 .ARM.attributes
                0x0000000000001319       0x34 /usr/lib/gcc/arm-none-eabi/4.8/../../../arm-none-eabi/lib/armv7e-m/fpu/libm.a(lib_a-sf_sin.o)
 .ARM.attributes
                0x000000000000134d       0x34 /usr/lib/gcc/arm-none-eabi/4.8/../../../arm-none-eabi/lib/armv7e-m/fpu/libm.a(lib_a-wf_asin.o)
 .ARM.attributes
                0x0000000000001381       0x34 /usr/lib/gcc/arm-none-eabi/4.8/../../../arm-none-eabi/lib/armv7e-m/fpu/libm.a(lib_a-wf_atan2.o)
 .ARM.attributes
                0x00000000000013b5       0x34 /usr/lib/gcc/arm-none-eabi/4.8/../../../arm-none-eabi/lib/armv7e-m/fpu/libm.a(lib_a-wf_exp.o)
 .ARM.attributes
                0x00000000000013e9       0x34 /usr/lib/gcc/arm-none-eabi/4.8/../../../arm-none-eabi/lib/armv7e-m/fpu/libm.a(lib_a-wf_fmod.o)
 .ARM.attributes
                0x000000000000141d       0x34 /usr/lib/gcc/arm-none-eabi/4.8/../../../arm-none-eabi/lib/armv7e-m/fpu/libm.a(lib_a-wf_log.o)
 .ARM.attributes
                0x0000000000001451       0x34 /usr/lib/gcc/arm-none-eabi/4.8/../../../arm-none-eabi/lib/armv7e-m/fpu/libm.a(lib_a-wf_pow.o)
 .ARM.attributes
                0x0000000000001485       0x34 /usr/lib/gcc/arm-none-eabi/4.8/../../../arm-none-eabi/lib/armv7e-m/fpu/libm.a(lib_a-wf_sincos.o)
 .ARM.attributes
                0x00000000000014b9       0x34 /usr/lib/gcc/arm-none-eabi/4.8/../../../arm-none-eabi/lib/armv7e-m/fpu/libm.a(lib_a-wf_sqrt.o)
 .ARM.attributes
                0x00000000000014ed       0x34 /usr/lib/gcc/arm-none-eabi/4.8/../../../arm-none-eabi/lib/armv7e-m/fpu/libm.a(lib_a-w_sqrt.o)
 .ARM.attributes
                0x0000000000001521       0x34 /usr/lib/gcc/arm-none-eabi/4.8/../../../arm-none-eabi/lib/armv7e-m/fpu/libm.a(lib_a-ef_asin.o)
 .ARM.attributes
                0x0000000000001555       0x34 /usr/lib/gcc/arm-none-eabi/4.8/../../../arm-none-eabi/lib/armv7e-m/fpu/libm.a(lib_a-ef_atan2.o)
 .ARM.attributes
                0x0000000000001589       0x34 /usr/lib/gcc/arm-none-eabi/4.8/../../../arm-none-eabi/lib/armv7e-m/fpu/libm.a(lib_a-ef_exp.o)
 .ARM.attributes
                0x00000000000015bd       0x34 /usr/lib/gcc/arm-none-eabi/4.8/../../../arm-none-eabi/lib/armv7e-m/fpu/libm.a(lib_a-ef_fmod.o)
 .ARM.attributes
                0x00000000000015f1       0x34 /usr/lib/gcc/arm-none-eabi/4.8/../../../arm-none-eabi/lib/armv7e-m/fpu/libm.a(lib_a-ef_log.o)
 .ARM.attributes
                0x0000000000001625       0x34 /usr/lib/gcc/arm-none-eabi/4.8/../../../arm-none-eabi/lib/armv7e-m/fpu/libm.a(lib_a-ef_pow.o)
 .ARM.attributes
                0x0000000000001659       0x34 /usr/lib/gcc/arm-none-eabi/4.8/../../../arm-none-eabi/lib/armv7e-m/fpu/libm.a(lib_a-ef_rem_pio2.o)
 .ARM.attributes
                0x000000000000168d       0x34 /usr/lib/gcc/arm-none-eabi/4.8/../../../arm-none-eabi/lib/armv7e-m/fpu/libm.a(lib_a-ef_sqrt.o)
 .ARM.attributes
                0x00000000000016c1       0x34 /usr/lib/gcc/arm-none-eabi/4.8/../../../arm-none-eabi/lib/armv7e-m/fpu/libm.a(lib_a-e_sqrt.o)
 .ARM.attributes
                0x00000000000016f5       0x34 /usr/lib/gcc/arm-none-eabi/4.8/../../../arm-none-eabi/lib/armv7e-m/fpu/libm.a(lib_a-kf_cos.o)
 .ARM.attributes
                0x0000000000001729       0x34 /usr/lib/gcc/arm-none-eabi/4.8/../../../arm-none-eabi/lib/armv7e-m/fpu/libm.a(lib_a-kf_rem_pio2.o)
 .ARM.attributes
                0x000000000000175d       0x34 /usr/lib/gcc/arm-none-eabi/4.8/../../../arm-none-eabi/lib/armv7e-m/fpu/libm.a(lib_a-kf_sin.o)
 .ARM.attributes
                0x0000000000001791       0x34 /usr/lib/gcc/arm-none-eabi/4.8/../../../arm-none-eabi/lib/armv7e-m/fpu/libm.a(lib_a-sf_atan.o)
 .ARM.attributes
                0x00000000000017c5       0x34 /usr/lib/gcc/arm-none-eabi/4.8/../../../arm-none-eabi/lib/armv7e-m/fpu/libm.a(lib_a-sf_copysign.o)
 .ARM.attributes
                0x00000000000017f9       0x34 /usr/lib/gcc/arm-none-eabi/4.8/../../../arm-none-eabi/lib/armv7e-m/fpu/libm.a(lib_a-sf_fabs.o)
 .ARM.attributes
                0x000000000000182d       0x34 /usr/lib/gcc/arm-none-eabi/4.8/../../../arm-none-eabi/lib/armv7e-m/fpu/libm.a(lib_a-sf_finite.o)
 .ARM.attributes
                0x0000000000001861       0x34 /usr/lib/gcc/arm-none-eabi/4.8/../../../arm-none-eabi/lib/armv7e-m/fpu/libm.a(lib_a-sf_fpclassify.o)
 .ARM.attributes
                0x0000000000001895       0x34 /usr/lib/gcc/arm-none-eabi/4.8/../../../arm-none-eabi/lib/armv7e-m/fpu/libm.a(lib_a-sf_nan.o)
 .ARM.attributes
                0x00000000000018c9       0x34 /usr/lib/gcc/arm-none-eabi/4.8/../../../arm-none-eabi/lib/armv7e-m/fpu/libm.a(lib_a-s_fpclassify.o)
 .ARM.attributes
                0x00000000000018fd       0x34 /usr/lib/gcc/arm-none-eabi/4.8/../../../arm-none-eabi/lib/armv7e-m/fpu/libm.a(lib_a-s_lib_ver.o)
 .ARM.attributes
                0x0000000000001931       0x34 /usr/lib/gcc/arm-none-eabi/4.8/../../../arm-none-eabi/lib/armv7e-m/fpu/libm.a(lib_a-s_matherr.o)
 .ARM.attributes
                0x0000000000001965       0x34 /usr/lib/gcc/arm-none-eabi/4.8/../../../arm-none-eabi/lib/armv7e-m/fpu/libm.a(lib_a-s_nan.o)
 .ARM.attributes
                0x0000000000001999       0x34 /usr/lib/gcc/arm-none-eabi/4.8/../../../arm-none-eabi/lib/armv7e-m/fpu/libm.a(lib_a-s_rint.o)
 .ARM.attributes
                0x00000000000019cd       0x22 /usr/lib/gcc/arm-none-eabi/4.8/armv7e-m/fpu/libgcc.a(_arm_addsubdf3.o)
 .ARM.attributes
                0x00000000000019ef       0x22 /usr/lib/gcc/arm-none-eabi/4.8/armv7e-m/fpu/libgcc.a(_arm_muldivdf3.o)
 .ARM.attributes
                0x0000000000001a11       0x22 /usr/lib/gcc/arm-none-eabi/4.8/armv7e-m/fpu/libgcc.a(_arm_cmpdf2.o)
 .ARM.attributes
                0x0000000000001a33       0x22 /usr/lib/gcc/arm-none-eabi/4.8/armv7e-m/fpu/libgcc.a(_arm_fixdfsi.o)
 .ARM.attributes
                0x0000000000001a55       0x22 /usr/lib/gcc/arm-none-eabi/4.8/armv7e-m/fpu/libgcc.a(_arm_truncdfsf2.o)
 .ARM.attributes
                0x0000000000001a77       0x34 /usr/lib/gcc/arm-none-eabi/4.8/../../../arm-none-eabi/lib/armv7e-m/fpu/libg.a(lib_a-errno.o)
 .ARM.attributes
                0x0000000000001aab       0x34 /usr/lib/gcc/arm-none-eabi/4.8/../../../arm-none-eabi/lib/armv7e-m/fpu/libg.a(lib_a-impure.o)
 .ARM.attributes
                0x0000000000001adf       0x34 /usr/lib/gcc/arm-none-eabi/4.8/../../../arm-none-eabi/lib/armv7e-m/fpu/libg.a(lib_a-memcmp.o)
 .ARM.attributes
                0x0000000000001b13       0x20 /usr/lib/gcc/arm-none-eabi/4.8/../../../arm-none-eabi/lib/armv7e-m/fpu/libg.a(lib_a-memcpy.o)
 .ARM.attributes
                0x0000000000001b33       0x34 /usr/lib/gcc/arm-none-eabi/4.8/../../../arm-none-eabi/lib/armv7e-m/fpu/libg.a(lib_a-memset.o)
 .ARM.attributes
                0x0000000000001b67       0x34 /usr/lib/gcc/arm-none-eabi/4.8/../../../arm-none-eabi/lib/armv7e-m/fpu/libg.a(lib_a-sscanf.o)
 .ARM.attributes
                0x0000000000001b9b       0x34 /usr/lib/gcc/arm-none-eabi/4.8/../../../arm-none-eabi/lib/armv7e-m/fpu/libg.a(lib_a-stdio.o)
 .ARM.attributes
                0x0000000000001bcf       0x20 /usr/lib/gcc/arm-none-eabi/4.8/../../../arm-none-eabi/lib/armv7e-m/fpu/libg.a(lib_a-strcmp.o)
 .ARM.attributes
                0x0000000000001bef       0x34 /usr/lib/gcc/arm-none-eabi/4.8/../../../arm-none-eabi/lib/armv7e-m/fpu/libg.a(lib_a-strlen.o)
 .ARM.attributes
                0x0000000000001c23       0x34 /usr/lib/gcc/arm-none-eabi/4.8/../../../arm-none-eabi/lib/armv7e-m/fpu/libg.a(lib_a-strtok.o)
 .ARM.attributes
                0x0000000000001c57       0x34 /usr/lib/gcc/arm-none-eabi/4.8/../../../arm-none-eabi/lib/armv7e-m/fpu/libg.a(lib_a-strtok_r.o)
 .ARM.attributes
                0x0000000000001c8b       0x34 /usr/lib/gcc/arm-none-eabi/4.8/../../../arm-none-eabi/lib/armv7e-m/fpu/libg.a(lib_a-svfscanf.o)
 .ARM.attributes
                0x0000000000001cbf       0x34 /usr/lib/gcc/arm-none-eabi/4.8/../../../arm-none-eabi/lib/armv7e-m/fpu/libg.a(lib_a-vsnprintf.o)
 .ARM.attributes
                0x0000000000001cf3       0x34 /usr/lib/gcc/arm-none-eabi/4.8/../../../arm-none-eabi/lib/armv7e-m/fpu/libg.a(lib_a-ctype_.o)
 .ARM.attributes
                0x0000000000001d27       0x34 /usr/lib/gcc/arm-none-eabi/4.8/../../../arm-none-eabi/lib/armv7e-m/fpu/libg.a(lib_a-iswspace.o)
 .ARM.attributes
                0x0000000000001d5b       0x34 /usr/lib/gcc/arm-none-eabi/4.8/../../../arm-none-eabi/lib/armv7e-m/fpu/libg.a(lib_a-locale.o)
 .ARM.attributes
                0x0000000000001d8f       0x34 /usr/lib/gcc/arm-none-eabi/4.8/../../../arm-none-eabi/lib/armv7e-m/fpu/libg.a(lib_a-mbrtowc.o)
 .ARM.attributes
                0x0000000000001dc3       0x34 /usr/lib/gcc/arm-none-eabi/4.8/../../../arm-none-eabi/lib/armv7e-m/fpu/libg.a(lib_a-mbtowc_r.o)
 .ARM.attributes
                0x0000000000001df7       0x34 /usr/lib/gcc/arm-none-eabi/4.8/../../../arm-none-eabi/lib/armv7e-m/fpu/libg.a(lib_a-sccl.o)
 .ARM.attributes
                0x0000000000001e2b       0x34 /usr/lib/gcc/arm-none-eabi/4.8/../../../arm-none-eabi/lib/armv7e-m/fpu/libg.a(lib_a-sprintf.o)
 .ARM.attributes
                0x0000000000001e5f       0x34 /usr/lib/gcc/arm-none-eabi/4.8/../../../arm-none-eabi/lib/armv7e-m/fpu/libg.a(lib_a-strtod.o)
 .ARM.attributes
                0x0000000000001e93       0x34 /usr/lib/gcc/arm-none-eabi/4.8/../../../arm-none-eabi/lib/armv7e-m/fpu/libg.a(lib_a-strtoll_r.o)
 .ARM.attributes
                0x0000000000001ec7       0x34 /usr/lib/gcc/arm-none-eabi/4.8/../../../arm-none-eabi/lib/armv7e-m/fpu/libg.a(lib_a-strtol.o)
 .ARM.attributes
                0x0000000000001efb       0x34 /usr/lib/gcc/arm-none-eabi/4.8/../../../arm-none-eabi/lib/armv7e-m/fpu/libg.a(lib_a-strtoull_r.o)
 .ARM.attributes
                0x0000000000001f2f       0x34 /usr/lib/gcc/arm-none-eabi/4.8/../../../arm-none-eabi/lib/armv7e-m/fpu/libg.a(lib_a-strtoul.o)
 .ARM.attributes
                0x0000000000001f63       0x34 /usr/lib/gcc/arm-none-eabi/4.8/../../../arm-none-eabi/lib/armv7e-m/fpu/libg.a(lib_a-svfiscanf.o)
 .ARM.attributes
                0x0000000000001f97       0x34 /usr/lib/gcc/arm-none-eabi/4.8/../../../arm-none-eabi/lib/armv7e-m/fpu/libg.a(lib_a-svfprintf.o)
 .ARM.attributes
                0x0000000000001fcb       0x34 /usr/lib/gcc/arm-none-eabi/4.8/../../../arm-none-eabi/lib/armv7e-m/fpu/libg.a(lib_a-ungetc.o)
 .ARM.attributes
                0x0000000000001fff       0x34 /usr/lib/gcc/arm-none-eabi/4.8/../../../arm-none-eabi/lib/armv7e-m/fpu/libg.a(lib_a-dtoa.o)
 .ARM.attributes
                0x0000000000002033       0x34 /usr/lib/gcc/arm-none-eabi/4.8/../../../arm-none-eabi/lib/armv7e-m/fpu/libg.a(lib_a-freer.o)
 .ARM.attributes
                0x0000000000002067       0x34 /usr/lib/gcc/arm-none-eabi/4.8/../../../arm-none-eabi/lib/armv7e-m/fpu/libg.a(lib_a-gdtoa-gethex.o)
 .ARM.attributes
                0x000000000000209b       0x34 /usr/lib/gcc/arm-none-eabi/4.8/../../../arm-none-eabi/lib/armv7e-m/fpu/libg.a(lib_a-gdtoa-hexnan.o)
 .ARM.attributes
                0x00000000000020cf       0x34 /usr/lib/gcc/arm-none-eabi/4.8/../../../arm-none-eabi/lib/armv7e-m/fpu/libg.a(lib_a-mallocr.o)
 .ARM.attributes
                0x0000000000002103       0x34 /usr/lib/gcc/arm-none-eabi/4.8/../../../arm-none-eabi/lib/armv7e-m/fpu/libg.a(lib_a-memchr-stub.o)
 .ARM.attributes
                0x0000000000002137       0x34 /usr/lib/gcc/arm-none-eabi/4.8/../../../arm-none-eabi/lib/armv7e-m/fpu/libg.a(lib_a-mlock.o)
 .ARM.attributes
                0x000000000000216b       0x34 /usr/lib/gcc/arm-none-eabi/4.8/../../../arm-none-eabi/lib/armv7e-m/fpu/libg.a(lib_a-mprec.o)
 .ARM.attributes
                0x000000000000219f       0x34 /usr/lib/gcc/arm-none-eabi/4.8/../../../arm-none-eabi/lib/armv7e-m/fpu/libg.a(lib_a-reallocr.o)
 .ARM.attributes
                0x00000000000021d3       0x34 /usr/lib/gcc/arm-none-eabi/4.8/../../../arm-none-eabi/lib/armv7e-m/fpu/libg.a(lib_a-strncmp.o)
 .ARM.attributes
                0x0000000000002207       0x34 /usr/lib/gcc/arm-none-eabi/4.8/../../../arm-none-eabi/lib/armv7e-m/fpu/libg.a(lib_a-svfiprintf.o)
 .ARM.attributes
                0x000000000000223b       0x34 /usr/lib/gcc/arm-none-eabi/4.8/../../../arm-none-eabi/lib/armv7e-m/fpu/libg.a(lib_a-callocr.o)
 .ARM.attributes
                0x000000000000226f       0x34 /usr/lib/gcc/arm-none-eabi/4.8/../../../arm-none-eabi/lib/armv7e-m/fpu/libg.a(lib_a-memmove.o)
 .ARM.attributes
                0x00000000000022a3       0x22 /usr/lib/gcc/arm-none-eabi/4.8/armv7e-m/fpu/libgcc.a(_arm_fixunsdfsi.o)
 .ARM.attributes
                0x00000000000022c5       0x22 /usr/lib/gcc/arm-none-eabi/4.8/armv7e-m/fpu/libgcc.a(_aeabi_uldivmod.o)
 .ARM.attributes
                0x00000000000022e7       0x34 /usr/lib/gcc/arm-none-eabi/4.8/armv7e-m/fpu/libgcc.a(bpabi.o)
 .ARM.attributes
                0x000000000000231b       0x22 /usr/lib/gcc/arm-none-eabi/4.8/armv7e-m/fpu/libgcc.a(_dvmd_tls.o)
 .ARM.attributes
                0x000000000000233d       0x34 /usr/lib/gcc/arm-none-eabi/4.8/armv7e-m/fpu/libgcc.a(_divdi3.o)
 .ARM.attributes
                0x0000000000002371       0x34 /usr/lib/gcc/arm-none-eabi/4.8/armv7e-m/fpu/libgcc.a(_udivdi3.o)

.comment        0x0000000000000000       0x58
 .comment       0x0000000000000000       0x2d build/obj/crt1.o
                                         0x2e (size before relaxing)
 .comment       0x000000000000002d       0x2e build/obj/vectors.o
 .comment       0x000000000000002d       0x2e build/obj/chsys.o
 .comment       0x000000000000002d       0x2e build/obj/chvt.o
 .comment       0x000000000000002d       0x2e build/obj/chschd.o
 .comment       0x000000000000002d       0x2e build/obj/chthreads.o
 .comment       0x000000000000002d       0x2e build/obj/chtm.o
 .comment       0x000000000000002d       0x2e build/obj/chdynamic.o
 .comment       0x000000000000002d       0x2e build/obj/chregistry.o
 .comment       0x000000000000002d       0x2e build/obj/chmtx.o
 .comment       0x000000000000002d       0x2e build/obj/chevents.o
 .comment       0x000000000000002d       0x2e build/obj/chqueues.o
 .comment       0x000000000000002d       0x2e build/obj/chmemcore.o
 .comment       0x000000000000002d       0x2e build/obj/chheap.o
 .comment       0x000000000000002d       0x2e build/obj/chmempools.o
 .comment       0x000000000000002d       0x2e build/obj/chcore_v7m.o
 .comment       0x000000000000002d       0x2e build/obj/hal.o
 .comment       0x000000000000002d       0x2e build/obj/st.o
 .comment       0x000000000000002d       0x2e build/obj/can.o
 .comment       0x000000000000002d       0x2e build/obj/i2c.o
 .comment       0x000000000000002d       0x2e build/obj/icu.o
 .comment       0x000000000000002d       0x2e build/obj/serial_usb.o
 .comment       0x000000000000002d       0x2e build/obj/spi.o
 .comment       0x000000000000002d       0x2e build/obj/uart.o
 .comment       0x000000000000002d       0x2e build/obj/usb.o
 .comment       0x000000000000002d       0x2e build/obj/nvic.o
 .comment       0x000000000000002d       0x2e build/obj/stm32_dma.o
 .comment       0x000000000000002d       0x2e build/obj/hal_lld.o
 .comment       0x000000000000002d       0x2e build/obj/st_lld.o
 .comment       0x000000000000002d       0x2e build/obj/can_lld.o
 .comment       0x000000000000002d       0x2e build/obj/pal_lld.o
 .comment       0x000000000000002d       0x2e build/obj/i2c_lld.o
 .comment       0x000000000000002d       0x2e build/obj/usb_lld.o
 .comment       0x000000000000002d       0x2e build/obj/spi_lld.o
 .comment       0x000000000000002d       0x2e build/obj/icu_lld.o
 .comment       0x000000000000002d       0x2e build/obj/uart_lld.o
 .comment       0x000000000000002d       0x2e build/obj/syscalls.o
 .comment       0x000000000000002d       0x2e build/obj/board.o
 .comment       0x000000000000002d       0x2e build/obj/main.o
 .comment       0x000000000000002d       0x2e build/obj/comm_usb_serial.o
 .comment       0x000000000000002d       0x2e build/obj/irq_handlers.o
 .comment       0x000000000000002d       0x2e build/obj/buffer.o
 .comment       0x000000000000002d       0x2e build/obj/comm_usb.o
 .comment       0x000000000000002d       0x2e build/obj/crc.o
 .comment       0x000000000000002d       0x2e build/obj/digital_filter.o
 .comment       0x000000000000002d       0x2e build/obj/ledpwm.o
 .comment       0x000000000000002d       0x2e build/obj/mcpwm.o
 .comment       0x000000000000002d       0x2e build/obj/servo_dec.o
 .comment       0x000000000000002d       0x2e build/obj/utils.o
 .comment       0x000000000000002d       0x2e build/obj/packet.o
 .comment       0x000000000000002d       0x2e build/obj/terminal.o
 .comment       0x000000000000002d       0x2e build/obj/conf_general.o
 .comment       0x000000000000002d       0x2e build/obj/eeprom.o
 .comment       0x000000000000002d       0x2e build/obj/commands.o
 .comment       0x000000000000002d       0x2e build/obj/timeout.o
 .comment       0x000000000000002d       0x2e build/obj/comm_can.o
 .comment       0x000000000000002d       0x2e build/obj/led_external.o
 .comment       0x000000000000002d       0x2e build/obj/encoder.o
 .comment       0x000000000000002d       0x2e build/obj/flash_helper.o
 .comment       0x000000000000002d       0x2e build/obj/mc_interface.o
 .comment       0x000000000000002d       0x2e build/obj/mcpwm_foc.o
 .comment       0x000000000000002d       0x2e build/obj/hw_410.o
 .comment       0x000000000000002d       0x2e build/obj/app.o
 .comment       0x000000000000002d       0x2e build/obj/app_ppm.o
 .comment       0x000000000000002d       0x2e build/obj/app_adc.o
 .comment       0x000000000000002d       0x2e build/obj/app_uartcomm.o
 .comment       0x000000000000002d       0x2e build/obj/app_nunchuk.o
 .comment       0x000000000000002d       0x2e build/obj/spi_sw.o
 .comment       0x000000000000002d       0x2e build/obj/rf.o
 .comment       0x000000000000002d       0x2e build/obj/rfhelp.o
 .comment       0x000000000000002d       0x2e build/obj/nrf_driver.o
 .comment       0x000000000000002d       0x2e build/obj/stm32f4xx_adc.o
 .comment       0x000000000000002d       0x2e build/obj/stm32f4xx_dma.o
 .comment       0x000000000000002d       0x2e build/obj/stm32f4xx_exti.o
 .comment       0x000000000000002d       0x2e build/obj/stm32f4xx_flash.o
 .comment       0x000000000000002d       0x2e build/obj/stm32f4xx_rcc.o
 .comment       0x000000000000002d       0x2e build/obj/stm32f4xx_syscfg.o
 .comment       0x000000000000002d       0x2e build/obj/stm32f4xx_tim.o
 .comment       0x000000000000002d       0x2e build/obj/stm32f4xx_wwdg.o
 .comment       0x000000000000002d       0x2b /usr/lib/gcc/arm-none-eabi/4.8/../../../arm-none-eabi/lib/armv7e-m/fpu/libm.a(lib_a-sf_cos.o)
                                         0x2c (size before relaxing)
 .comment       0x0000000000000058       0x2c /usr/lib/gcc/arm-none-eabi/4.8/../../../arm-none-eabi/lib/armv7e-m/fpu/libm.a(lib_a-sf_floor.o)
 .comment       0x0000000000000058       0x2c /usr/lib/gcc/arm-none-eabi/4.8/../../../arm-none-eabi/lib/armv7e-m/fpu/libm.a(lib_a-sf_frexp.o)
 .comment       0x0000000000000058       0x2c /usr/lib/gcc/arm-none-eabi/4.8/../../../arm-none-eabi/lib/armv7e-m/fpu/libm.a(lib_a-sf_ldexp.o)
 .comment       0x0000000000000058       0x2c /usr/lib/gcc/arm-none-eabi/4.8/../../../arm-none-eabi/lib/armv7e-m/fpu/libm.a(lib_a-sf_round.o)
 .comment       0x0000000000000058       0x2c /usr/lib/gcc/arm-none-eabi/4.8/../../../arm-none-eabi/lib/armv7e-m/fpu/libm.a(lib_a-sf_scalbn.o)
 .comment       0x0000000000000058       0x2c /usr/lib/gcc/arm-none-eabi/4.8/../../../arm-none-eabi/lib/armv7e-m/fpu/libm.a(lib_a-sf_sin.o)
 .comment       0x0000000000000058       0x2c /usr/lib/gcc/arm-none-eabi/4.8/../../../arm-none-eabi/lib/armv7e-m/fpu/libm.a(lib_a-wf_asin.o)
 .comment       0x0000000000000058       0x2c /usr/lib/gcc/arm-none-eabi/4.8/../../../arm-none-eabi/lib/armv7e-m/fpu/libm.a(lib_a-wf_atan2.o)
 .comment       0x0000000000000058       0x2c /usr/lib/gcc/arm-none-eabi/4.8/../../../arm-none-eabi/lib/armv7e-m/fpu/libm.a(lib_a-wf_exp.o)
 .comment       0x0000000000000058       0x2c /usr/lib/gcc/arm-none-eabi/4.8/../../../arm-none-eabi/lib/armv7e-m/fpu/libm.a(lib_a-wf_fmod.o)
 .comment       0x0000000000000058       0x2c /usr/lib/gcc/arm-none-eabi/4.8/../../../arm-none-eabi/lib/armv7e-m/fpu/libm.a(lib_a-wf_log.o)
 .comment       0x0000000000000058       0x2c /usr/lib/gcc/arm-none-eabi/4.8/../../../arm-none-eabi/lib/armv7e-m/fpu/libm.a(lib_a-wf_pow.o)
 .comment       0x0000000000000058       0x2c /usr/lib/gcc/arm-none-eabi/4.8/../../../arm-none-eabi/lib/armv7e-m/fpu/libm.a(lib_a-wf_sincos.o)
 .comment       0x0000000000000058       0x2c /usr/lib/gcc/arm-none-eabi/4.8/../../../arm-none-eabi/lib/armv7e-m/fpu/libm.a(lib_a-wf_sqrt.o)
 .comment       0x0000000000000058       0x2c /usr/lib/gcc/arm-none-eabi/4.8/../../../arm-none-eabi/lib/armv7e-m/fpu/libm.a(lib_a-w_sqrt.o)
 .comment       0x0000000000000058       0x2c /usr/lib/gcc/arm-none-eabi/4.8/../../../arm-none-eabi/lib/armv7e-m/fpu/libm.a(lib_a-ef_asin.o)
 .comment       0x0000000000000058       0x2c /usr/lib/gcc/arm-none-eabi/4.8/../../../arm-none-eabi/lib/armv7e-m/fpu/libm.a(lib_a-ef_atan2.o)
 .comment       0x0000000000000058       0x2c /usr/lib/gcc/arm-none-eabi/4.8/../../../arm-none-eabi/lib/armv7e-m/fpu/libm.a(lib_a-ef_exp.o)
 .comment       0x0000000000000058       0x2c /usr/lib/gcc/arm-none-eabi/4.8/../../../arm-none-eabi/lib/armv7e-m/fpu/libm.a(lib_a-ef_fmod.o)
 .comment       0x0000000000000058       0x2c /usr/lib/gcc/arm-none-eabi/4.8/../../../arm-none-eabi/lib/armv7e-m/fpu/libm.a(lib_a-ef_log.o)
 .comment       0x0000000000000058       0x2c /usr/lib/gcc/arm-none-eabi/4.8/../../../arm-none-eabi/lib/armv7e-m/fpu/libm.a(lib_a-ef_pow.o)
 .comment       0x0000000000000058       0x2c /usr/lib/gcc/arm-none-eabi/4.8/../../../arm-none-eabi/lib/armv7e-m/fpu/libm.a(lib_a-ef_rem_pio2.o)
 .comment       0x0000000000000058       0x2c /usr/lib/gcc/arm-none-eabi/4.8/../../../arm-none-eabi/lib/armv7e-m/fpu/libm.a(lib_a-ef_sqrt.o)
 .comment       0x0000000000000058       0x2c /usr/lib/gcc/arm-none-eabi/4.8/../../../arm-none-eabi/lib/armv7e-m/fpu/libm.a(lib_a-e_sqrt.o)
 .comment       0x0000000000000058       0x2c /usr/lib/gcc/arm-none-eabi/4.8/../../../arm-none-eabi/lib/armv7e-m/fpu/libm.a(lib_a-kf_cos.o)
 .comment       0x0000000000000058       0x2c /usr/lib/gcc/arm-none-eabi/4.8/../../../arm-none-eabi/lib/armv7e-m/fpu/libm.a(lib_a-kf_rem_pio2.o)
 .comment       0x0000000000000058       0x2c /usr/lib/gcc/arm-none-eabi/4.8/../../../arm-none-eabi/lib/armv7e-m/fpu/libm.a(lib_a-kf_sin.o)
 .comment       0x0000000000000058       0x2c /usr/lib/gcc/arm-none-eabi/4.8/../../../arm-none-eabi/lib/armv7e-m/fpu/libm.a(lib_a-sf_atan.o)
 .comment       0x0000000000000058       0x2c /usr/lib/gcc/arm-none-eabi/4.8/../../../arm-none-eabi/lib/armv7e-m/fpu/libm.a(lib_a-sf_copysign.o)
 .comment       0x0000000000000058       0x2c /usr/lib/gcc/arm-none-eabi/4.8/../../../arm-none-eabi/lib/armv7e-m/fpu/libm.a(lib_a-sf_fabs.o)
 .comment       0x0000000000000058       0x2c /usr/lib/gcc/arm-none-eabi/4.8/../../../arm-none-eabi/lib/armv7e-m/fpu/libm.a(lib_a-sf_finite.o)
 .comment       0x0000000000000058       0x2c /usr/lib/gcc/arm-none-eabi/4.8/../../../arm-none-eabi/lib/armv7e-m/fpu/libm.a(lib_a-sf_fpclassify.o)
 .comment       0x0000000000000058       0x2c /usr/lib/gcc/arm-none-eabi/4.8/../../../arm-none-eabi/lib/armv7e-m/fpu/libm.a(lib_a-sf_nan.o)
 .comment       0x0000000000000058       0x2c /usr/lib/gcc/arm-none-eabi/4.8/../../../arm-none-eabi/lib/armv7e-m/fpu/libm.a(lib_a-s_fpclassify.o)
 .comment       0x0000000000000058       0x2c /usr/lib/gcc/arm-none-eabi/4.8/../../../arm-none-eabi/lib/armv7e-m/fpu/libm.a(lib_a-s_lib_ver.o)
 .comment       0x0000000000000058       0x2c /usr/lib/gcc/arm-none-eabi/4.8/../../../arm-none-eabi/lib/armv7e-m/fpu/libm.a(lib_a-s_matherr.o)
 .comment       0x0000000000000058       0x2c /usr/lib/gcc/arm-none-eabi/4.8/../../../arm-none-eabi/lib/armv7e-m/fpu/libm.a(lib_a-s_nan.o)
 .comment       0x0000000000000058       0x2c /usr/lib/gcc/arm-none-eabi/4.8/../../../arm-none-eabi/lib/armv7e-m/fpu/libm.a(lib_a-s_rint.o)
 .comment       0x0000000000000058       0x2c /usr/lib/gcc/arm-none-eabi/4.8/../../../arm-none-eabi/lib/armv7e-m/fpu/libg.a(lib_a-errno.o)
 .comment       0x0000000000000058       0x2c /usr/lib/gcc/arm-none-eabi/4.8/../../../arm-none-eabi/lib/armv7e-m/fpu/libg.a(lib_a-impure.o)
 .comment       0x0000000000000058       0x2c /usr/lib/gcc/arm-none-eabi/4.8/../../../arm-none-eabi/lib/armv7e-m/fpu/libg.a(lib_a-memcmp.o)
 .comment       0x0000000000000058       0x2c /usr/lib/gcc/arm-none-eabi/4.8/../../../arm-none-eabi/lib/armv7e-m/fpu/libg.a(lib_a-memset.o)
 .comment       0x0000000000000058       0x2c /usr/lib/gcc/arm-none-eabi/4.8/../../../arm-none-eabi/lib/armv7e-m/fpu/libg.a(lib_a-sscanf.o)
 .comment       0x0000000000000058       0x2c /usr/lib/gcc/arm-none-eabi/4.8/../../../arm-none-eabi/lib/armv7e-m/fpu/libg.a(lib_a-stdio.o)
 .comment       0x0000000000000058       0x2c /usr/lib/gcc/arm-none-eabi/4.8/../../../arm-none-eabi/lib/armv7e-m/fpu/libg.a(lib_a-strlen.o)
 .comment       0x0000000000000058       0x2c /usr/lib/gcc/arm-none-eabi/4.8/../../../arm-none-eabi/lib/armv7e-m/fpu/libg.a(lib_a-strtok.o)
 .comment       0x0000000000000058       0x2c /usr/lib/gcc/arm-none-eabi/4.8/../../../arm-none-eabi/lib/armv7e-m/fpu/libg.a(lib_a-strtok_r.o)
 .comment       0x0000000000000058       0x2c /usr/lib/gcc/arm-none-eabi/4.8/../../../arm-none-eabi/lib/armv7e-m/fpu/libg.a(lib_a-svfscanf.o)
 .comment       0x0000000000000058       0x2c /usr/lib/gcc/arm-none-eabi/4.8/../../../arm-none-eabi/lib/armv7e-m/fpu/libg.a(lib_a-vsnprintf.o)
 .comment       0x0000000000000058       0x2c /usr/lib/gcc/arm-none-eabi/4.8/../../../arm-none-eabi/lib/armv7e-m/fpu/libg.a(lib_a-ctype_.o)
 .comment       0x0000000000000058       0x2c /usr/lib/gcc/arm-none-eabi/4.8/../../../arm-none-eabi/lib/armv7e-m/fpu/libg.a(lib_a-iswspace.o)
 .comment       0x0000000000000058       0x2c /usr/lib/gcc/arm-none-eabi/4.8/../../../arm-none-eabi/lib/armv7e-m/fpu/libg.a(lib_a-locale.o)
 .comment       0x0000000000000058       0x2c /usr/lib/gcc/arm-none-eabi/4.8/../../../arm-none-eabi/lib/armv7e-m/fpu/libg.a(lib_a-mbrtowc.o)
 .comment       0x0000000000000058       0x2c /usr/lib/gcc/arm-none-eabi/4.8/../../../arm-none-eabi/lib/armv7e-m/fpu/libg.a(lib_a-mbtowc_r.o)
 .comment       0x0000000000000058       0x2c /usr/lib/gcc/arm-none-eabi/4.8/../../../arm-none-eabi/lib/armv7e-m/fpu/libg.a(lib_a-sccl.o)
 .comment       0x0000000000000058       0x2c /usr/lib/gcc/arm-none-eabi/4.8/../../../arm-none-eabi/lib/armv7e-m/fpu/libg.a(lib_a-sprintf.o)
 .comment       0x0000000000000058       0x2c /usr/lib/gcc/arm-none-eabi/4.8/../../../arm-none-eabi/lib/armv7e-m/fpu/libg.a(lib_a-strtod.o)
 .comment       0x0000000000000058       0x2c /usr/lib/gcc/arm-none-eabi/4.8/../../../arm-none-eabi/lib/armv7e-m/fpu/libg.a(lib_a-strtoll_r.o)
 .comment       0x0000000000000058       0x2c /usr/lib/gcc/arm-none-eabi/4.8/../../../arm-none-eabi/lib/armv7e-m/fpu/libg.a(lib_a-strtol.o)
 .comment       0x0000000000000058       0x2c /usr/lib/gcc/arm-none-eabi/4.8/../../../arm-none-eabi/lib/armv7e-m/fpu/libg.a(lib_a-strtoull_r.o)
 .comment       0x0000000000000058       0x2c /usr/lib/gcc/arm-none-eabi/4.8/../../../arm-none-eabi/lib/armv7e-m/fpu/libg.a(lib_a-strtoul.o)
 .comment       0x0000000000000058       0x2c /usr/lib/gcc/arm-none-eabi/4.8/../../../arm-none-eabi/lib/armv7e-m/fpu/libg.a(lib_a-svfiscanf.o)
 .comment       0x0000000000000058       0x2c /usr/lib/gcc/arm-none-eabi/4.8/../../../arm-none-eabi/lib/armv7e-m/fpu/libg.a(lib_a-svfprintf.o)
 .comment       0x0000000000000058       0x2c /usr/lib/gcc/arm-none-eabi/4.8/../../../arm-none-eabi/lib/armv7e-m/fpu/libg.a(lib_a-ungetc.o)
 .comment       0x0000000000000058       0x2c /usr/lib/gcc/arm-none-eabi/4.8/../../../arm-none-eabi/lib/armv7e-m/fpu/libg.a(lib_a-dtoa.o)
 .comment       0x0000000000000058       0x2c /usr/lib/gcc/arm-none-eabi/4.8/../../../arm-none-eabi/lib/armv7e-m/fpu/libg.a(lib_a-freer.o)
 .comment       0x0000000000000058       0x2c /usr/lib/gcc/arm-none-eabi/4.8/../../../arm-none-eabi/lib/armv7e-m/fpu/libg.a(lib_a-gdtoa-gethex.o)
 .comment       0x0000000000000058       0x2c /usr/lib/gcc/arm-none-eabi/4.8/../../../arm-none-eabi/lib/armv7e-m/fpu/libg.a(lib_a-gdtoa-hexnan.o)
 .comment       0x0000000000000058       0x2c /usr/lib/gcc/arm-none-eabi/4.8/../../../arm-none-eabi/lib/armv7e-m/fpu/libg.a(lib_a-mallocr.o)
 .comment       0x0000000000000058       0x2c /usr/lib/gcc/arm-none-eabi/4.8/../../../arm-none-eabi/lib/armv7e-m/fpu/libg.a(lib_a-memchr-stub.o)
 .comment       0x0000000000000058       0x2c /usr/lib/gcc/arm-none-eabi/4.8/../../../arm-none-eabi/lib/armv7e-m/fpu/libg.a(lib_a-mlock.o)
 .comment       0x0000000000000058       0x2c /usr/lib/gcc/arm-none-eabi/4.8/../../../arm-none-eabi/lib/armv7e-m/fpu/libg.a(lib_a-mprec.o)
 .comment       0x0000000000000058       0x2c /usr/lib/gcc/arm-none-eabi/4.8/../../../arm-none-eabi/lib/armv7e-m/fpu/libg.a(lib_a-reallocr.o)
 .comment       0x0000000000000058       0x2c /usr/lib/gcc/arm-none-eabi/4.8/../../../arm-none-eabi/lib/armv7e-m/fpu/libg.a(lib_a-strncmp.o)
 .comment       0x0000000000000058       0x2c /usr/lib/gcc/arm-none-eabi/4.8/../../../arm-none-eabi/lib/armv7e-m/fpu/libg.a(lib_a-svfiprintf.o)
 .comment       0x0000000000000058       0x2c /usr/lib/gcc/arm-none-eabi/4.8/../../../arm-none-eabi/lib/armv7e-m/fpu/libg.a(lib_a-callocr.o)
 .comment       0x0000000000000058       0x2c /usr/lib/gcc/arm-none-eabi/4.8/../../../arm-none-eabi/lib/armv7e-m/fpu/libg.a(lib_a-memmove.o)
 .comment       0x0000000000000058       0x2e /usr/lib/gcc/arm-none-eabi/4.8/armv7e-m/fpu/libgcc.a(bpabi.o)
 .comment       0x0000000000000058       0x2e /usr/lib/gcc/arm-none-eabi/4.8/armv7e-m/fpu/libgcc.a(_divdi3.o)
 .comment       0x0000000000000058       0x2e /usr/lib/gcc/arm-none-eabi/4.8/armv7e-m/fpu/libgcc.a(_udivdi3.o)

.debug_info     0x0000000000000000    0x87f5b
 .debug_info    0x0000000000000000       0xde build/obj/crt1.o
 .debug_info    0x00000000000000de      0x1e7 build/obj/vectors.o
 .debug_info    0x00000000000002c5     0x17eb build/obj/chsys.o
 .debug_info    0x0000000000001ab0      0x7fd build/obj/chvt.o
 .debug_info    0x00000000000022ad      0xe16 build/obj/chschd.o
 .debug_info    0x00000000000030c3     0x1b6d build/obj/chthreads.o
 .debug_info    0x0000000000004c30      0xaac build/obj/chtm.o
 .debug_info    0x00000000000056dc      0xdca build/obj/chdynamic.o
 .debug_info    0x00000000000064a6      0xa5c build/obj/chregistry.o
 .debug_info    0x0000000000006f02     0x10a3 build/obj/chmtx.o
 .debug_info    0x0000000000007fa5     0x16a1 build/obj/chevents.o
 .debug_info    0x0000000000009646     0x1240 build/obj/chqueues.o
 .debug_info    0x000000000000a886      0x949 build/obj/chmemcore.o
 .debug_info    0x000000000000b1cf      0xaab build/obj/chheap.o
 .debug_info    0x000000000000bc7a      0xcaa build/obj/chmempools.o
 .debug_info    0x000000000000c924      0xcc7 build/obj/chcore_v7m.o
 .debug_info    0x000000000000d5eb      0x90c build/obj/hal.o
 .debug_info    0x000000000000def7      0x9ec build/obj/st.o
 .debug_info    0x000000000000e8e3     0x1ab9 build/obj/can.o
 .debug_info    0x000000000001039c     0x1239 build/obj/i2c.o
 .debug_info    0x00000000000115d5     0x1239 build/obj/icu.o
 .debug_info    0x000000000001280e     0x2839 build/obj/serial_usb.o
 .debug_info    0x0000000000015047     0x1bc0 build/obj/spi.o
 .debug_info    0x0000000000016c07     0x13fc build/obj/uart.o
 .debug_info    0x0000000000018003     0x297e build/obj/usb.o
 .debug_info    0x000000000001a981      0xac4 build/obj/nvic.o
 .debug_info    0x000000000001b445     0x10e3 build/obj/stm32_dma.o
 .debug_info    0x000000000001c528      0x9e8 build/obj/hal_lld.o
 .debug_info    0x000000000001cf10      0x932 build/obj/st_lld.o
 .debug_info    0x000000000001d842     0x1e65 build/obj/can_lld.o
 .debug_info    0x000000000001f6a7      0xd6a build/obj/pal_lld.o
 .debug_info    0x0000000000020411     0x1e16 build/obj/i2c_lld.o
 .debug_info    0x0000000000022227     0x31df build/obj/usb_lld.o
 .debug_info    0x0000000000025406     0x126e build/obj/spi_lld.o
 .debug_info    0x0000000000026674      0xfcd build/obj/icu_lld.o
 .debug_info    0x0000000000027641     0x15a7 build/obj/uart_lld.o
 .debug_info    0x0000000000028be8     0x12bc build/obj/syscalls.o
 .debug_info    0x0000000000029ea4      0x870 build/obj/board.o
 .debug_info    0x000000000002a714     0x1b7f build/obj/main.o
 .debug_info    0x000000000002c293     0x1c28 build/obj/comm_usb_serial.o
 .debug_info    0x000000000002debb      0xb61 build/obj/irq_handlers.o
 .debug_info    0x000000000002ea1c      0x6ba build/obj/buffer.o
 .debug_info    0x000000000002f0d6     0x1b0b build/obj/comm_usb.o
 .debug_info    0x0000000000030be1       0xc2 build/obj/crc.o
 .debug_info    0x0000000000030ca3      0x745 build/obj/digital_filter.o
 .debug_info    0x00000000000313e8      0x9b6 build/obj/ledpwm.o
 .debug_info    0x0000000000031d9e     0x56d4 build/obj/mcpwm.o
 .debug_info    0x0000000000037472     0x1049 build/obj/servo_dec.o
 .debug_info    0x00000000000384bb     0x11d8 build/obj/utils.o
 .debug_info    0x0000000000039693      0x339 build/obj/packet.o
 .debug_info    0x00000000000399cc     0x3297 build/obj/terminal.o
 .debug_info    0x000000000003cc63     0x24f5 build/obj/conf_general.o
 .debug_info    0x000000000003f158      0xe9c build/obj/eeprom.o
 .debug_info    0x000000000003fff4     0x4da8 build/obj/commands.o
 .debug_info    0x0000000000044d9c      0xacf build/obj/timeout.o
 .debug_info    0x000000000004586b     0x2e1a build/obj/comm_can.o
 .debug_info    0x0000000000048685     0x121c build/obj/led_external.o
 .debug_info    0x00000000000498a1     0x15b4 build/obj/encoder.o
 .debug_info    0x000000000004ae55     0x1f58 build/obj/flash_helper.o
 .debug_info    0x000000000004cdad     0x358b build/obj/mc_interface.o
 .debug_info    0x0000000000050338     0x55bc build/obj/mcpwm_foc.o
 .debug_info    0x00000000000558f4     0x1654 build/obj/hw_410.o
 .debug_info    0x0000000000056f48     0x1053 build/obj/app.o
 .debug_info    0x0000000000057f9b     0x1e20 build/obj/app_ppm.o
 .debug_info    0x0000000000059dbb     0x1eca build/obj/app_adc.o
 .debug_info    0x000000000005bc85     0x12ca build/obj/app_uartcomm.o
 .debug_info    0x000000000005cf4f     0x226b build/obj/app_nunchuk.o
 .debug_info    0x000000000005f1ba      0xcbf build/obj/spi_sw.o
 .debug_info    0x000000000005fe79     0x1c3b build/obj/rf.o
 .debug_info    0x0000000000061ab4     0x1581 build/obj/rfhelp.o
 .debug_info    0x0000000000063035     0x1bca build/obj/nrf_driver.o
 .debug_info    0x0000000000064bff      0xc68 build/obj/stm32f4xx_adc.o
 .debug_info    0x0000000000065867      0x73a build/obj/stm32f4xx_dma.o
 .debug_info    0x0000000000065fa1      0x33b build/obj/stm32f4xx_exti.o
 .debug_info    0x00000000000662dc      0xa5f build/obj/stm32f4xx_flash.o
 .debug_info    0x0000000000066d3b      0xc0a build/obj/stm32f4xx_rcc.o
 .debug_info    0x0000000000067945      0x2d8 build/obj/stm32f4xx_syscfg.o
 .debug_info    0x0000000000067c1d     0x2416 build/obj/stm32f4xx_tim.o
 .debug_info    0x000000000006a033      0x29e build/obj/stm32f4xx_wwdg.o
 .debug_info    0x000000000006a2d1      0x223 /usr/lib/gcc/arm-none-eabi/4.8/../../../arm-none-eabi/lib/armv7e-m/fpu/libm.a(lib_a-sf_cos.o)
 .debug_info    0x000000000006a4f4      0x160 /usr/lib/gcc/arm-none-eabi/4.8/../../../arm-none-eabi/lib/armv7e-m/fpu/libm.a(lib_a-sf_floor.o)
 .debug_info    0x000000000006a654      0x18a /usr/lib/gcc/arm-none-eabi/4.8/../../../arm-none-eabi/lib/armv7e-m/fpu/libm.a(lib_a-sf_frexp.o)
 .debug_info    0x000000000006a7de      0x153 /usr/lib/gcc/arm-none-eabi/4.8/../../../arm-none-eabi/lib/armv7e-m/fpu/libm.a(lib_a-sf_ldexp.o)
 .debug_info    0x000000000006a931      0x153 /usr/lib/gcc/arm-none-eabi/4.8/../../../arm-none-eabi/lib/armv7e-m/fpu/libm.a(lib_a-sf_round.o)
 .debug_info    0x000000000006aa84      0x225 /usr/lib/gcc/arm-none-eabi/4.8/../../../arm-none-eabi/lib/armv7e-m/fpu/libm.a(lib_a-sf_scalbn.o)
 .debug_info    0x000000000006aca9      0x219 /usr/lib/gcc/arm-none-eabi/4.8/../../../arm-none-eabi/lib/armv7e-m/fpu/libm.a(lib_a-sf_sin.o)
 .debug_info    0x000000000006aec2      0x273 /usr/lib/gcc/arm-none-eabi/4.8/../../../arm-none-eabi/lib/armv7e-m/fpu/libm.a(lib_a-wf_asin.o)
 .debug_info    0x000000000006b135       0xf8 /usr/lib/gcc/arm-none-eabi/4.8/../../../arm-none-eabi/lib/armv7e-m/fpu/libm.a(lib_a-wf_atan2.o)
 .debug_info    0x000000000006b22d      0x235 /usr/lib/gcc/arm-none-eabi/4.8/../../../arm-none-eabi/lib/armv7e-m/fpu/libm.a(lib_a-wf_exp.o)
 .debug_info    0x000000000006b462      0x240 /usr/lib/gcc/arm-none-eabi/4.8/../../../arm-none-eabi/lib/armv7e-m/fpu/libm.a(lib_a-wf_fmod.o)
 .debug_info    0x000000000006b6a2      0x264 /usr/lib/gcc/arm-none-eabi/4.8/../../../arm-none-eabi/lib/armv7e-m/fpu/libm.a(lib_a-wf_log.o)
 .debug_info    0x000000000006b906      0x370 /usr/lib/gcc/arm-none-eabi/4.8/../../../arm-none-eabi/lib/armv7e-m/fpu/libm.a(lib_a-wf_pow.o)
 .debug_info    0x000000000006bc76      0x127 /usr/lib/gcc/arm-none-eabi/4.8/../../../arm-none-eabi/lib/armv7e-m/fpu/libm.a(lib_a-wf_sincos.o)
 .debug_info    0x000000000006bd9d      0x20f /usr/lib/gcc/arm-none-eabi/4.8/../../../arm-none-eabi/lib/armv7e-m/fpu/libm.a(lib_a-wf_sqrt.o)
 .debug_info    0x000000000006bfac      0x21b /usr/lib/gcc/arm-none-eabi/4.8/../../../arm-none-eabi/lib/armv7e-m/fpu/libm.a(lib_a-w_sqrt.o)
 .debug_info    0x000000000006c1c7      0x2f6 /usr/lib/gcc/arm-none-eabi/4.8/../../../arm-none-eabi/lib/armv7e-m/fpu/libm.a(lib_a-ef_asin.o)
 .debug_info    0x000000000006c4bd      0x270 /usr/lib/gcc/arm-none-eabi/4.8/../../../arm-none-eabi/lib/armv7e-m/fpu/libm.a(lib_a-ef_atan2.o)
 .debug_info    0x000000000006c72d      0x2d1 /usr/lib/gcc/arm-none-eabi/4.8/../../../arm-none-eabi/lib/armv7e-m/fpu/libm.a(lib_a-ef_exp.o)
 .debug_info    0x000000000006c9fe      0x218 /usr/lib/gcc/arm-none-eabi/4.8/../../../arm-none-eabi/lib/armv7e-m/fpu/libm.a(lib_a-ef_fmod.o)
 .debug_info    0x000000000006cc16      0x2a5 /usr/lib/gcc/arm-none-eabi/4.8/../../../arm-none-eabi/lib/armv7e-m/fpu/libm.a(lib_a-ef_log.o)
 .debug_info    0x000000000006cebb      0x6d2 /usr/lib/gcc/arm-none-eabi/4.8/../../../arm-none-eabi/lib/armv7e-m/fpu/libm.a(lib_a-ef_pow.o)
 .debug_info    0x000000000006d58d      0x38d /usr/lib/gcc/arm-none-eabi/4.8/../../../arm-none-eabi/lib/armv7e-m/fpu/libm.a(lib_a-ef_rem_pio2.o)
 .debug_info    0x000000000006d91a      0x1c8 /usr/lib/gcc/arm-none-eabi/4.8/../../../arm-none-eabi/lib/armv7e-m/fpu/libm.a(lib_a-ef_sqrt.o)
 .debug_info    0x000000000006dae2      0x231 /usr/lib/gcc/arm-none-eabi/4.8/../../../arm-none-eabi/lib/armv7e-m/fpu/libm.a(lib_a-e_sqrt.o)
 .debug_info    0x000000000006dd13      0x1fd /usr/lib/gcc/arm-none-eabi/4.8/../../../arm-none-eabi/lib/armv7e-m/fpu/libm.a(lib_a-kf_cos.o)
 .debug_info    0x000000000006df10      0x392 /usr/lib/gcc/arm-none-eabi/4.8/../../../arm-none-eabi/lib/armv7e-m/fpu/libm.a(lib_a-kf_rem_pio2.o)
 .debug_info    0x000000000006e2a2      0x1d0 /usr/lib/gcc/arm-none-eabi/4.8/../../../arm-none-eabi/lib/armv7e-m/fpu/libm.a(lib_a-kf_sin.o)
 .debug_info    0x000000000006e472      0x211 /usr/lib/gcc/arm-none-eabi/4.8/../../../arm-none-eabi/lib/armv7e-m/fpu/libm.a(lib_a-sf_atan.o)
 .debug_info    0x000000000006e683      0x12c /usr/lib/gcc/arm-none-eabi/4.8/../../../arm-none-eabi/lib/armv7e-m/fpu/libm.a(lib_a-sf_copysign.o)
 .debug_info    0x000000000006e7af       0xcc /usr/lib/gcc/arm-none-eabi/4.8/../../../arm-none-eabi/lib/armv7e-m/fpu/libm.a(lib_a-sf_fabs.o)
 .debug_info    0x000000000006e87b       0xd2 /usr/lib/gcc/arm-none-eabi/4.8/../../../arm-none-eabi/lib/armv7e-m/fpu/libm.a(lib_a-sf_finite.o)
 .debug_info    0x000000000006e94d       0xc8 /usr/lib/gcc/arm-none-eabi/4.8/../../../arm-none-eabi/lib/armv7e-m/fpu/libm.a(lib_a-sf_fpclassify.o)
 .debug_info    0x000000000006ea15       0xcc /usr/lib/gcc/arm-none-eabi/4.8/../../../arm-none-eabi/lib/armv7e-m/fpu/libm.a(lib_a-sf_nan.o)
 .debug_info    0x000000000006eae1      0x14a /usr/lib/gcc/arm-none-eabi/4.8/../../../arm-none-eabi/lib/armv7e-m/fpu/libm.a(lib_a-s_fpclassify.o)
 .debug_info    0x000000000006ec2b       0xbe /usr/lib/gcc/arm-none-eabi/4.8/../../../arm-none-eabi/lib/armv7e-m/fpu/libm.a(lib_a-s_lib_ver.o)
 .debug_info    0x000000000006ece9      0x129 /usr/lib/gcc/arm-none-eabi/4.8/../../../arm-none-eabi/lib/armv7e-m/fpu/libm.a(lib_a-s_matherr.o)
 .debug_info    0x000000000006ee12       0xd0 /usr/lib/gcc/arm-none-eabi/4.8/../../../arm-none-eabi/lib/armv7e-m/fpu/libm.a(lib_a-s_nan.o)
 .debug_info    0x000000000006eee2      0x210 /usr/lib/gcc/arm-none-eabi/4.8/../../../arm-none-eabi/lib/armv7e-m/fpu/libm.a(lib_a-s_rint.o)
 .debug_info    0x000000000006f0f2       0xcd /usr/lib/gcc/arm-none-eabi/4.8/armv7e-m/fpu/libgcc.a(_arm_addsubdf3.o)
 .debug_info    0x000000000006f1bf       0xcd /usr/lib/gcc/arm-none-eabi/4.8/armv7e-m/fpu/libgcc.a(_arm_muldivdf3.o)
 .debug_info    0x000000000006f28c       0xcd /usr/lib/gcc/arm-none-eabi/4.8/armv7e-m/fpu/libgcc.a(_arm_cmpdf2.o)
 .debug_info    0x000000000006f359       0xcd /usr/lib/gcc/arm-none-eabi/4.8/armv7e-m/fpu/libgcc.a(_arm_fixdfsi.o)
 .debug_info    0x000000000006f426       0xcd /usr/lib/gcc/arm-none-eabi/4.8/armv7e-m/fpu/libgcc.a(_arm_truncdfsf2.o)
 .debug_info    0x000000000006f4f3      0x889 /usr/lib/gcc/arm-none-eabi/4.8/../../../arm-none-eabi/lib/armv7e-m/fpu/libg.a(lib_a-errno.o)
 .debug_info    0x000000000006fd7c      0x894 /usr/lib/gcc/arm-none-eabi/4.8/../../../arm-none-eabi/lib/armv7e-m/fpu/libg.a(lib_a-impure.o)
 .debug_info    0x0000000000070610      0x113 /usr/lib/gcc/arm-none-eabi/4.8/../../../arm-none-eabi/lib/armv7e-m/fpu/libg.a(lib_a-memcmp.o)
 .debug_info    0x0000000000070723       0xde /usr/lib/gcc/arm-none-eabi/4.8/../../../arm-none-eabi/lib/armv7e-m/fpu/libg.a(lib_a-memcpy.o)
 .debug_info    0x0000000000070801      0x117 /usr/lib/gcc/arm-none-eabi/4.8/../../../arm-none-eabi/lib/armv7e-m/fpu/libg.a(lib_a-memset.o)
 .debug_info    0x0000000000070918      0xa38 /usr/lib/gcc/arm-none-eabi/4.8/../../../arm-none-eabi/lib/armv7e-m/fpu/libg.a(lib_a-sscanf.o)
 .debug_info    0x0000000000071350      0xb8a /usr/lib/gcc/arm-none-eabi/4.8/../../../arm-none-eabi/lib/armv7e-m/fpu/libg.a(lib_a-stdio.o)
 .debug_info    0x0000000000071eda       0xdd /usr/lib/gcc/arm-none-eabi/4.8/../../../arm-none-eabi/lib/armv7e-m/fpu/libg.a(lib_a-strcmp.o)
 .debug_info    0x0000000000071fb7       0xb5 /usr/lib/gcc/arm-none-eabi/4.8/../../../arm-none-eabi/lib/armv7e-m/fpu/libg.a(lib_a-strlen.o)
 .debug_info    0x000000000007206c      0x8fa /usr/lib/gcc/arm-none-eabi/4.8/../../../arm-none-eabi/lib/armv7e-m/fpu/libg.a(lib_a-strtok.o)
 .debug_info    0x0000000000072966      0x182 /usr/lib/gcc/arm-none-eabi/4.8/../../../arm-none-eabi/lib/armv7e-m/fpu/libg.a(lib_a-strtok_r.o)
 .debug_info    0x0000000000072ae8     0x143a /usr/lib/gcc/arm-none-eabi/4.8/../../../arm-none-eabi/lib/armv7e-m/fpu/libg.a(lib_a-svfscanf.o)
 .debug_info    0x0000000000073f22      0x9fa /usr/lib/gcc/arm-none-eabi/4.8/../../../arm-none-eabi/lib/armv7e-m/fpu/libg.a(lib_a-vsnprintf.o)
 .debug_info    0x000000000007491c       0x6f /usr/lib/gcc/arm-none-eabi/4.8/../../../arm-none-eabi/lib/armv7e-m/fpu/libg.a(lib_a-ctype_.o)
 .debug_info    0x000000000007498b       0xc3 /usr/lib/gcc/arm-none-eabi/4.8/../../../arm-none-eabi/lib/armv7e-m/fpu/libg.a(lib_a-iswspace.o)
 .debug_info    0x0000000000074a4e      0xbe5 /usr/lib/gcc/arm-none-eabi/4.8/../../../arm-none-eabi/lib/armv7e-m/fpu/libg.a(lib_a-locale.o)
 .debug_info    0x0000000000075633      0xa8c /usr/lib/gcc/arm-none-eabi/4.8/../../../arm-none-eabi/lib/armv7e-m/fpu/libg.a(lib_a-mbrtowc.o)
 .debug_info    0x00000000000760bf      0x9ef /usr/lib/gcc/arm-none-eabi/4.8/../../../arm-none-eabi/lib/armv7e-m/fpu/libg.a(lib_a-mbtowc_r.o)
 .debug_info    0x0000000000076aae       0xfb /usr/lib/gcc/arm-none-eabi/4.8/../../../arm-none-eabi/lib/armv7e-m/fpu/libg.a(lib_a-sccl.o)
 .debug_info    0x0000000000076ba9      0x9ee /usr/lib/gcc/arm-none-eabi/4.8/../../../arm-none-eabi/lib/armv7e-m/fpu/libg.a(lib_a-sprintf.o)
 .debug_info    0x0000000000077597     0x183b /usr/lib/gcc/arm-none-eabi/4.8/../../../arm-none-eabi/lib/armv7e-m/fpu/libg.a(lib_a-strtod.o)
 .debug_info    0x0000000000078dd2      0x935 /usr/lib/gcc/arm-none-eabi/4.8/../../../arm-none-eabi/lib/armv7e-m/fpu/libg.a(lib_a-strtoll_r.o)
 .debug_info    0x0000000000079707      0x9a7 /usr/lib/gcc/arm-none-eabi/4.8/../../../arm-none-eabi/lib/armv7e-m/fpu/libg.a(lib_a-strtol.o)
 .debug_info    0x000000000007a0ae      0x939 /usr/lib/gcc/arm-none-eabi/4.8/../../../arm-none-eabi/lib/armv7e-m/fpu/libg.a(lib_a-strtoull_r.o)
 .debug_info    0x000000000007a9e7      0x9a7 /usr/lib/gcc/arm-none-eabi/4.8/../../../arm-none-eabi/lib/armv7e-m/fpu/libg.a(lib_a-strtoul.o)
 .debug_info    0x000000000007b38e     0x11a4 /usr/lib/gcc/arm-none-eabi/4.8/../../../arm-none-eabi/lib/armv7e-m/fpu/libg.a(lib_a-svfiscanf.o)
 .debug_info    0x000000000007c532     0x16c4 /usr/lib/gcc/arm-none-eabi/4.8/../../../arm-none-eabi/lib/armv7e-m/fpu/libg.a(lib_a-svfprintf.o)
 .debug_info    0x000000000007dbf6      0xa92 /usr/lib/gcc/arm-none-eabi/4.8/../../../arm-none-eabi/lib/armv7e-m/fpu/libg.a(lib_a-ungetc.o)
 .debug_info    0x000000000007e688     0x135b /usr/lib/gcc/arm-none-eabi/4.8/../../../arm-none-eabi/lib/armv7e-m/fpu/libg.a(lib_a-dtoa.o)
 .debug_info    0x000000000007f9e3      0xc1a /usr/lib/gcc/arm-none-eabi/4.8/../../../arm-none-eabi/lib/armv7e-m/fpu/libg.a(lib_a-freer.o)
 .debug_info    0x00000000000805fd     0x10cb /usr/lib/gcc/arm-none-eabi/4.8/../../../arm-none-eabi/lib/armv7e-m/fpu/libg.a(lib_a-gdtoa-gethex.o)
 .debug_info    0x00000000000816c8      0x308 /usr/lib/gcc/arm-none-eabi/4.8/../../../arm-none-eabi/lib/armv7e-m/fpu/libg.a(lib_a-gdtoa-hexnan.o)
 .debug_info    0x00000000000819d0      0xd81 /usr/lib/gcc/arm-none-eabi/4.8/../../../arm-none-eabi/lib/armv7e-m/fpu/libg.a(lib_a-mallocr.o)
 .debug_info    0x0000000000082751      0x129 /usr/lib/gcc/arm-none-eabi/4.8/../../../arm-none-eabi/lib/armv7e-m/fpu/libg.a(lib_a-memchr-stub.o)
 .debug_info    0x000000000008287a      0x8b4 /usr/lib/gcc/arm-none-eabi/4.8/../../../arm-none-eabi/lib/armv7e-m/fpu/libg.a(lib_a-mlock.o)
 .debug_info    0x000000000008312e     0x167f /usr/lib/gcc/arm-none-eabi/4.8/../../../arm-none-eabi/lib/armv7e-m/fpu/libg.a(lib_a-mprec.o)
 .debug_info    0x00000000000847ad      0xcbe /usr/lib/gcc/arm-none-eabi/4.8/../../../arm-none-eabi/lib/armv7e-m/fpu/libg.a(lib_a-reallocr.o)
 .debug_info    0x000000000008546b       0xf5 /usr/lib/gcc/arm-none-eabi/4.8/../../../arm-none-eabi/lib/armv7e-m/fpu/libg.a(lib_a-strncmp.o)
 .debug_info    0x0000000000085560     0x1002 /usr/lib/gcc/arm-none-eabi/4.8/../../../arm-none-eabi/lib/armv7e-m/fpu/libg.a(lib_a-svfiprintf.o)
 .debug_info    0x0000000000086562      0x9e0 /usr/lib/gcc/arm-none-eabi/4.8/../../../arm-none-eabi/lib/armv7e-m/fpu/libg.a(lib_a-callocr.o)
 .debug_info    0x0000000000086f42      0x131 /usr/lib/gcc/arm-none-eabi/4.8/../../../arm-none-eabi/lib/armv7e-m/fpu/libg.a(lib_a-memmove.o)
 .debug_info    0x0000000000087073       0xcd /usr/lib/gcc/arm-none-eabi/4.8/armv7e-m/fpu/libgcc.a(_arm_fixunsdfsi.o)
 .debug_info    0x0000000000087140       0xc8 /usr/lib/gcc/arm-none-eabi/4.8/armv7e-m/fpu/libgcc.a(_aeabi_uldivmod.o)
 .debug_info    0x0000000000087208      0x164 /usr/lib/gcc/arm-none-eabi/4.8/armv7e-m/fpu/libgcc.a(bpabi.o)
 .debug_info    0x000000000008736c       0xcc /usr/lib/gcc/arm-none-eabi/4.8/armv7e-m/fpu/libgcc.a(_dvmd_tls.o)
 .debug_info    0x0000000000087438      0x5ac /usr/lib/gcc/arm-none-eabi/4.8/armv7e-m/fpu/libgcc.a(_divdi3.o)
 .debug_info    0x00000000000879e4      0x577 /usr/lib/gcc/arm-none-eabi/4.8/armv7e-m/fpu/libgcc.a(_udivdi3.o)

.debug_abbrev   0x0000000000000000    0x16577
 .debug_abbrev  0x0000000000000000       0x67 build/obj/crt1.o
 .debug_abbrev  0x0000000000000067       0xc7 build/obj/vectors.o
 .debug_abbrev  0x000000000000012e      0x4e9 build/obj/chsys.o
 .debug_abbrev  0x0000000000000617      0x1b1 build/obj/chvt.o
 .debug_abbrev  0x00000000000007c8      0x3f3 build/obj/chschd.o
 .debug_abbrev  0x0000000000000bbb      0x475 build/obj/chthreads.o
 .debug_abbrev  0x0000000000001030      0x277 build/obj/chtm.o
 .debug_abbrev  0x00000000000012a7      0x304 build/obj/chdynamic.o
 .debug_abbrev  0x00000000000015ab      0x238 build/obj/chregistry.o
 .debug_abbrev  0x00000000000017e3      0x3d2 build/obj/chmtx.o
 .debug_abbrev  0x0000000000001bb5      0x3b8 build/obj/chevents.o
 .debug_abbrev  0x0000000000001f6d      0x3e0 build/obj/chqueues.o
 .debug_abbrev  0x000000000000234d      0x28b build/obj/chmemcore.o
 .debug_abbrev  0x00000000000025d8      0x292 build/obj/chheap.o
 .debug_abbrev  0x000000000000286a      0x31e build/obj/chmempools.o
 .debug_abbrev  0x0000000000002b88      0x231 build/obj/chcore_v7m.o
 .debug_abbrev  0x0000000000002db9      0x1a0 build/obj/hal.o
 .debug_abbrev  0x0000000000002f59      0x217 build/obj/st.o
 .debug_abbrev  0x0000000000003170      0x42e build/obj/can.o
 .debug_abbrev  0x000000000000359e      0x345 build/obj/i2c.o
 .debug_abbrev  0x00000000000038e3      0x2c9 build/obj/icu.o
 .debug_abbrev  0x0000000000003bac      0x541 build/obj/serial_usb.o
 .debug_abbrev  0x00000000000040ed      0x36c build/obj/spi.o
 .debug_abbrev  0x0000000000004459      0x38c build/obj/uart.o
 .debug_abbrev  0x00000000000047e5      0x469 build/obj/usb.o
 .debug_abbrev  0x0000000000004c4e      0x1ba build/obj/nvic.o
 .debug_abbrev  0x0000000000004e08      0x278 build/obj/stm32_dma.o
 .debug_abbrev  0x0000000000005080      0x1c3 build/obj/hal_lld.o
 .debug_abbrev  0x0000000000005243      0x208 build/obj/st_lld.o
 .debug_abbrev  0x000000000000544b      0x481 build/obj/can_lld.o
 .debug_abbrev  0x00000000000058cc      0x20c build/obj/pal_lld.o
 .debug_abbrev  0x0000000000005ad8      0x417 build/obj/i2c_lld.o
 .debug_abbrev  0x0000000000005eef      0x526 build/obj/usb_lld.o
 .debug_abbrev  0x0000000000006415      0x36c build/obj/spi_lld.o
 .debug_abbrev  0x0000000000006781      0x39d build/obj/icu_lld.o
 .debug_abbrev  0x0000000000006b1e      0x41c build/obj/uart_lld.o
 .debug_abbrev  0x0000000000006f3a      0x24b build/obj/syscalls.o
 .debug_abbrev  0x0000000000007185      0x18b build/obj/board.o
 .debug_abbrev  0x0000000000007310      0x2e6 build/obj/main.o
 .debug_abbrev  0x00000000000075f6      0x353 build/obj/comm_usb_serial.o
 .debug_abbrev  0x0000000000007949      0x22e build/obj/irq_handlers.o
 .debug_abbrev  0x0000000000007b77      0x1bc build/obj/buffer.o
 .debug_abbrev  0x0000000000007d33      0x356 build/obj/comm_usb.o
 .debug_abbrev  0x0000000000008089       0x9b build/obj/crc.o
 .debug_abbrev  0x0000000000008124      0x222 build/obj/digital_filter.o
 .debug_abbrev  0x0000000000008346      0x1fb build/obj/ledpwm.o
 .debug_abbrev  0x0000000000008541      0x526 build/obj/mcpwm.o
 .debug_abbrev  0x0000000000008a67      0x3c9 build/obj/servo_dec.o
 .debug_abbrev  0x0000000000008e30      0x37c build/obj/utils.o
 .debug_abbrev  0x00000000000091ac      0x16e build/obj/packet.o
 .debug_abbrev  0x000000000000931a      0x418 build/obj/terminal.o
 .debug_abbrev  0x0000000000009732      0x367 build/obj/conf_general.o
 .debug_abbrev  0x0000000000009a99      0x344 build/obj/eeprom.o
 .debug_abbrev  0x0000000000009ddd      0x4d3 build/obj/commands.o
 .debug_abbrev  0x000000000000a2b0      0x352 build/obj/timeout.o
 .debug_abbrev  0x000000000000a602      0x554 build/obj/comm_can.o
 .debug_abbrev  0x000000000000ab56      0x3bf build/obj/led_external.o
 .debug_abbrev  0x000000000000af15      0x368 build/obj/encoder.o
 .debug_abbrev  0x000000000000b27d      0x3b8 build/obj/flash_helper.o
 .debug_abbrev  0x000000000000b635      0x58a build/obj/mc_interface.o
 .debug_abbrev  0x000000000000bbbf      0x51b build/obj/mcpwm_foc.o
 .debug_abbrev  0x000000000000c0da      0x247 build/obj/hw_410.o
 .debug_abbrev  0x000000000000c321      0x24c build/obj/app.o
 .debug_abbrev  0x000000000000c56d      0x426 build/obj/app_ppm.o
 .debug_abbrev  0x000000000000c993      0x3f8 build/obj/app_adc.o
 .debug_abbrev  0x000000000000cd8b      0x33a build/obj/app_uartcomm.o
 .debug_abbrev  0x000000000000d0c5      0x498 build/obj/app_nunchuk.o
 .debug_abbrev  0x000000000000d55d      0x296 build/obj/spi_sw.o
 .debug_abbrev  0x000000000000d7f3      0x3bf build/obj/rf.o
 .debug_abbrev  0x000000000000dbb2      0x318 build/obj/rfhelp.o
 .debug_abbrev  0x000000000000deca      0x3fd build/obj/nrf_driver.o
 .debug_abbrev  0x000000000000e2c7      0x1a5 build/obj/stm32f4xx_adc.o
 .debug_abbrev  0x000000000000e46c      0x175 build/obj/stm32f4xx_dma.o
 .debug_abbrev  0x000000000000e5e1      0x1b8 build/obj/stm32f4xx_exti.o
 .debug_abbrev  0x000000000000e799      0x1bf build/obj/stm32f4xx_flash.o
 .debug_abbrev  0x000000000000e958      0x257 build/obj/stm32f4xx_rcc.o
 .debug_abbrev  0x000000000000ebaf      0x169 build/obj/stm32f4xx_syscfg.o
 .debug_abbrev  0x000000000000ed18      0x28a build/obj/stm32f4xx_tim.o
 .debug_abbrev  0x000000000000efa2      0x178 build/obj/stm32f4xx_wwdg.o
 .debug_abbrev  0x000000000000f11a      0x145 /usr/lib/gcc/arm-none-eabi/4.8/../../../arm-none-eabi/lib/armv7e-m/fpu/libm.a(lib_a-sf_cos.o)
 .debug_abbrev  0x000000000000f25f       0xc6 /usr/lib/gcc/arm-none-eabi/4.8/../../../arm-none-eabi/lib/armv7e-m/fpu/libm.a(lib_a-sf_floor.o)
 .debug_abbrev  0x000000000000f325       0xff /usr/lib/gcc/arm-none-eabi/4.8/../../../arm-none-eabi/lib/armv7e-m/fpu/libm.a(lib_a-sf_frexp.o)
 .debug_abbrev  0x000000000000f424       0xc0 /usr/lib/gcc/arm-none-eabi/4.8/../../../arm-none-eabi/lib/armv7e-m/fpu/libm.a(lib_a-sf_ldexp.o)
 .debug_abbrev  0x000000000000f4e4       0xcf /usr/lib/gcc/arm-none-eabi/4.8/../../../arm-none-eabi/lib/armv7e-m/fpu/libm.a(lib_a-sf_round.o)
 .debug_abbrev  0x000000000000f5b3      0x113 /usr/lib/gcc/arm-none-eabi/4.8/../../../arm-none-eabi/lib/armv7e-m/fpu/libm.a(lib_a-sf_scalbn.o)
 .debug_abbrev  0x000000000000f6c6      0x149 /usr/lib/gcc/arm-none-eabi/4.8/../../../arm-none-eabi/lib/armv7e-m/fpu/libm.a(lib_a-sf_sin.o)
 .debug_abbrev  0x000000000000f80f      0x156 /usr/lib/gcc/arm-none-eabi/4.8/../../../arm-none-eabi/lib/armv7e-m/fpu/libm.a(lib_a-wf_asin.o)
 .debug_abbrev  0x000000000000f965       0x89 /usr/lib/gcc/arm-none-eabi/4.8/../../../arm-none-eabi/lib/armv7e-m/fpu/libm.a(lib_a-wf_atan2.o)
 .debug_abbrev  0x000000000000f9ee      0x150 /usr/lib/gcc/arm-none-eabi/4.8/../../../arm-none-eabi/lib/armv7e-m/fpu/libm.a(lib_a-wf_exp.o)
 .debug_abbrev  0x000000000000fb3e      0x13a /usr/lib/gcc/arm-none-eabi/4.8/../../../arm-none-eabi/lib/armv7e-m/fpu/libm.a(lib_a-wf_fmod.o)
 .debug_abbrev  0x000000000000fc78      0x156 /usr/lib/gcc/arm-none-eabi/4.8/../../../arm-none-eabi/lib/armv7e-m/fpu/libm.a(lib_a-wf_log.o)
 .debug_abbrev  0x000000000000fdce      0x158 /usr/lib/gcc/arm-none-eabi/4.8/../../../arm-none-eabi/lib/armv7e-m/fpu/libm.a(lib_a-wf_pow.o)
 .debug_abbrev  0x000000000000ff26       0xbe /usr/lib/gcc/arm-none-eabi/4.8/../../../arm-none-eabi/lib/armv7e-m/fpu/libm.a(lib_a-wf_sincos.o)
 .debug_abbrev  0x000000000000ffe4      0x13a /usr/lib/gcc/arm-none-eabi/4.8/../../../arm-none-eabi/lib/armv7e-m/fpu/libm.a(lib_a-wf_sqrt.o)
 .debug_abbrev  0x000000000001011e      0x13a /usr/lib/gcc/arm-none-eabi/4.8/../../../arm-none-eabi/lib/armv7e-m/fpu/libm.a(lib_a-w_sqrt.o)
 .debug_abbrev  0x0000000000010258      0x13e /usr/lib/gcc/arm-none-eabi/4.8/../../../arm-none-eabi/lib/armv7e-m/fpu/libm.a(lib_a-ef_asin.o)
 .debug_abbrev  0x0000000000010396      0x14e /usr/lib/gcc/arm-none-eabi/4.8/../../../arm-none-eabi/lib/armv7e-m/fpu/libm.a(lib_a-ef_atan2.o)
 .debug_abbrev  0x00000000000104e4      0x124 /usr/lib/gcc/arm-none-eabi/4.8/../../../arm-none-eabi/lib/armv7e-m/fpu/libm.a(lib_a-ef_exp.o)
 .debug_abbrev  0x0000000000010608       0xff /usr/lib/gcc/arm-none-eabi/4.8/../../../arm-none-eabi/lib/armv7e-m/fpu/libm.a(lib_a-ef_fmod.o)
 .debug_abbrev  0x0000000000010707       0xf4 /usr/lib/gcc/arm-none-eabi/4.8/../../../arm-none-eabi/lib/armv7e-m/fpu/libm.a(lib_a-ef_log.o)
 .debug_abbrev  0x00000000000107fb      0x1b5 /usr/lib/gcc/arm-none-eabi/4.8/../../../arm-none-eabi/lib/armv7e-m/fpu/libm.a(lib_a-ef_pow.o)
 .debug_abbrev  0x00000000000109b0      0x15d /usr/lib/gcc/arm-none-eabi/4.8/../../../arm-none-eabi/lib/armv7e-m/fpu/libm.a(lib_a-ef_rem_pio2.o)
 .debug_abbrev  0x0000000000010b0d       0xed /usr/lib/gcc/arm-none-eabi/4.8/../../../arm-none-eabi/lib/armv7e-m/fpu/libm.a(lib_a-ef_sqrt.o)
 .debug_abbrev  0x0000000000010bfa      0x109 /usr/lib/gcc/arm-none-eabi/4.8/../../../arm-none-eabi/lib/armv7e-m/fpu/libm.a(lib_a-e_sqrt.o)
 .debug_abbrev  0x0000000000010d03       0xd1 /usr/lib/gcc/arm-none-eabi/4.8/../../../arm-none-eabi/lib/armv7e-m/fpu/libm.a(lib_a-kf_cos.o)
 .debug_abbrev  0x0000000000010dd4      0x14d /usr/lib/gcc/arm-none-eabi/4.8/../../../arm-none-eabi/lib/armv7e-m/fpu/libm.a(lib_a-kf_rem_pio2.o)
 .debug_abbrev  0x0000000000010f21       0xe4 /usr/lib/gcc/arm-none-eabi/4.8/../../../arm-none-eabi/lib/armv7e-m/fpu/libm.a(lib_a-kf_sin.o)
 .debug_abbrev  0x0000000000011005      0x139 /usr/lib/gcc/arm-none-eabi/4.8/../../../arm-none-eabi/lib/armv7e-m/fpu/libm.a(lib_a-sf_atan.o)
 .debug_abbrev  0x000000000001113e       0xcc /usr/lib/gcc/arm-none-eabi/4.8/../../../arm-none-eabi/lib/armv7e-m/fpu/libm.a(lib_a-sf_copysign.o)
 .debug_abbrev  0x000000000001120a       0x6f /usr/lib/gcc/arm-none-eabi/4.8/../../../arm-none-eabi/lib/armv7e-m/fpu/libm.a(lib_a-sf_fabs.o)
 .debug_abbrev  0x0000000000011279       0x6f /usr/lib/gcc/arm-none-eabi/4.8/../../../arm-none-eabi/lib/armv7e-m/fpu/libm.a(lib_a-sf_finite.o)
 .debug_abbrev  0x00000000000112e8       0x6f /usr/lib/gcc/arm-none-eabi/4.8/../../../arm-none-eabi/lib/armv7e-m/fpu/libm.a(lib_a-sf_fpclassify.o)
 .debug_abbrev  0x0000000000011357       0x72 /usr/lib/gcc/arm-none-eabi/4.8/../../../arm-none-eabi/lib/armv7e-m/fpu/libm.a(lib_a-sf_nan.o)
 .debug_abbrev  0x00000000000113c9       0xca /usr/lib/gcc/arm-none-eabi/4.8/../../../arm-none-eabi/lib/armv7e-m/fpu/libm.a(lib_a-s_fpclassify.o)
 .debug_abbrev  0x0000000000011493       0x4f /usr/lib/gcc/arm-none-eabi/4.8/../../../arm-none-eabi/lib/armv7e-m/fpu/libm.a(lib_a-s_lib_ver.o)
 .debug_abbrev  0x00000000000114e2       0x9a /usr/lib/gcc/arm-none-eabi/4.8/../../../arm-none-eabi/lib/armv7e-m/fpu/libm.a(lib_a-s_matherr.o)
 .debug_abbrev  0x000000000001157c       0x72 /usr/lib/gcc/arm-none-eabi/4.8/../../../arm-none-eabi/lib/armv7e-m/fpu/libm.a(lib_a-s_nan.o)
 .debug_abbrev  0x00000000000115ee      0x11e /usr/lib/gcc/arm-none-eabi/4.8/../../../arm-none-eabi/lib/armv7e-m/fpu/libm.a(lib_a-s_rint.o)
 .debug_abbrev  0x000000000001170c       0x14 /usr/lib/gcc/arm-none-eabi/4.8/armv7e-m/fpu/libgcc.a(_arm_addsubdf3.o)
 .debug_abbrev  0x0000000000011720       0x14 /usr/lib/gcc/arm-none-eabi/4.8/armv7e-m/fpu/libgcc.a(_arm_muldivdf3.o)
 .debug_abbrev  0x0000000000011734       0x14 /usr/lib/gcc/arm-none-eabi/4.8/armv7e-m/fpu/libgcc.a(_arm_cmpdf2.o)
 .debug_abbrev  0x0000000000011748       0x14 /usr/lib/gcc/arm-none-eabi/4.8/armv7e-m/fpu/libgcc.a(_arm_fixdfsi.o)
 .debug_abbrev  0x000000000001175c       0x14 /usr/lib/gcc/arm-none-eabi/4.8/armv7e-m/fpu/libgcc.a(_arm_truncdfsf2.o)
 .debug_abbrev  0x0000000000011770      0x18f /usr/lib/gcc/arm-none-eabi/4.8/../../../arm-none-eabi/lib/armv7e-m/fpu/libg.a(lib_a-errno.o)
 .debug_abbrev  0x00000000000118ff      0x180 /usr/lib/gcc/arm-none-eabi/4.8/../../../arm-none-eabi/lib/armv7e-m/fpu/libg.a(lib_a-impure.o)
 .debug_abbrev  0x0000000000011a7f       0x7f /usr/lib/gcc/arm-none-eabi/4.8/../../../arm-none-eabi/lib/armv7e-m/fpu/libg.a(lib_a-memcmp.o)
 .debug_abbrev  0x0000000000011afe       0x14 /usr/lib/gcc/arm-none-eabi/4.8/../../../arm-none-eabi/lib/armv7e-m/fpu/libg.a(lib_a-memcpy.o)
 .debug_abbrev  0x0000000000011b12       0x9f /usr/lib/gcc/arm-none-eabi/4.8/../../../arm-none-eabi/lib/armv7e-m/fpu/libg.a(lib_a-memset.o)
 .debug_abbrev  0x0000000000011bb1      0x225 /usr/lib/gcc/arm-none-eabi/4.8/../../../arm-none-eabi/lib/armv7e-m/fpu/libg.a(lib_a-sscanf.o)
 .debug_abbrev  0x0000000000011dd6      0x246 /usr/lib/gcc/arm-none-eabi/4.8/../../../arm-none-eabi/lib/armv7e-m/fpu/libg.a(lib_a-stdio.o)
 .debug_abbrev  0x000000000001201c       0x14 /usr/lib/gcc/arm-none-eabi/4.8/../../../arm-none-eabi/lib/armv7e-m/fpu/libg.a(lib_a-strcmp.o)
 .debug_abbrev  0x0000000000012030       0x70 /usr/lib/gcc/arm-none-eabi/4.8/../../../arm-none-eabi/lib/armv7e-m/fpu/libg.a(lib_a-strlen.o)
 .debug_abbrev  0x00000000000120a0      0x1ed /usr/lib/gcc/arm-none-eabi/4.8/../../../arm-none-eabi/lib/armv7e-m/fpu/libg.a(lib_a-strtok.o)
 .debug_abbrev  0x000000000001228d       0xed /usr/lib/gcc/arm-none-eabi/4.8/../../../arm-none-eabi/lib/armv7e-m/fpu/libg.a(lib_a-strtok_r.o)
 .debug_abbrev  0x000000000001237a      0x2c8 /usr/lib/gcc/arm-none-eabi/4.8/../../../arm-none-eabi/lib/armv7e-m/fpu/libg.a(lib_a-svfscanf.o)
 .debug_abbrev  0x0000000000012642      0x215 /usr/lib/gcc/arm-none-eabi/4.8/../../../arm-none-eabi/lib/armv7e-m/fpu/libg.a(lib_a-vsnprintf.o)
 .debug_abbrev  0x0000000000012857       0x4e /usr/lib/gcc/arm-none-eabi/4.8/../../../arm-none-eabi/lib/armv7e-m/fpu/libg.a(lib_a-ctype_.o)
 .debug_abbrev  0x00000000000128a5       0x83 /usr/lib/gcc/arm-none-eabi/4.8/../../../arm-none-eabi/lib/armv7e-m/fpu/libg.a(lib_a-iswspace.o)
 .debug_abbrev  0x0000000000012928      0x2a3 /usr/lib/gcc/arm-none-eabi/4.8/../../../arm-none-eabi/lib/armv7e-m/fpu/libg.a(lib_a-locale.o)
 .debug_abbrev  0x0000000000012bcb      0x213 /usr/lib/gcc/arm-none-eabi/4.8/../../../arm-none-eabi/lib/armv7e-m/fpu/libg.a(lib_a-mbrtowc.o)
 .debug_abbrev  0x0000000000012dde      0x212 /usr/lib/gcc/arm-none-eabi/4.8/../../../arm-none-eabi/lib/armv7e-m/fpu/libg.a(lib_a-mbtowc_r.o)
 .debug_abbrev  0x0000000000012ff0       0x87 /usr/lib/gcc/arm-none-eabi/4.8/../../../arm-none-eabi/lib/armv7e-m/fpu/libg.a(lib_a-sccl.o)
 .debug_abbrev  0x0000000000013077      0x218 /usr/lib/gcc/arm-none-eabi/4.8/../../../arm-none-eabi/lib/armv7e-m/fpu/libg.a(lib_a-sprintf.o)
 .debug_abbrev  0x000000000001328f      0x3f7 /usr/lib/gcc/arm-none-eabi/4.8/../../../arm-none-eabi/lib/armv7e-m/fpu/libg.a(lib_a-strtod.o)
 .debug_abbrev  0x0000000000013686      0x1cb /usr/lib/gcc/arm-none-eabi/4.8/../../../arm-none-eabi/lib/armv7e-m/fpu/libg.a(lib_a-strtoll_r.o)
 .debug_abbrev  0x0000000000013851      0x207 /usr/lib/gcc/arm-none-eabi/4.8/../../../arm-none-eabi/lib/armv7e-m/fpu/libg.a(lib_a-strtol.o)
 .debug_abbrev  0x0000000000013a58      0x1be /usr/lib/gcc/arm-none-eabi/4.8/../../../arm-none-eabi/lib/armv7e-m/fpu/libg.a(lib_a-strtoull_r.o)
 .debug_abbrev  0x0000000000013c16      0x207 /usr/lib/gcc/arm-none-eabi/4.8/../../../arm-none-eabi/lib/armv7e-m/fpu/libg.a(lib_a-strtoul.o)
 .debug_abbrev  0x0000000000013e1d      0x31b /usr/lib/gcc/arm-none-eabi/4.8/../../../arm-none-eabi/lib/armv7e-m/fpu/libg.a(lib_a-svfiscanf.o)
 .debug_abbrev  0x0000000000014138      0x36f /usr/lib/gcc/arm-none-eabi/4.8/../../../arm-none-eabi/lib/armv7e-m/fpu/libg.a(lib_a-svfprintf.o)
 .debug_abbrev  0x00000000000144a7      0x26f /usr/lib/gcc/arm-none-eabi/4.8/../../../arm-none-eabi/lib/armv7e-m/fpu/libg.a(lib_a-ungetc.o)
 .debug_abbrev  0x0000000000014716      0x2bc /usr/lib/gcc/arm-none-eabi/4.8/../../../arm-none-eabi/lib/armv7e-m/fpu/libg.a(lib_a-dtoa.o)
 .debug_abbrev  0x00000000000149d2      0x28a /usr/lib/gcc/arm-none-eabi/4.8/../../../arm-none-eabi/lib/armv7e-m/fpu/libg.a(lib_a-freer.o)
 .debug_abbrev  0x0000000000014c5c      0x31b /usr/lib/gcc/arm-none-eabi/4.8/../../../arm-none-eabi/lib/armv7e-m/fpu/libg.a(lib_a-gdtoa-gethex.o)
 .debug_abbrev  0x0000000000014f77      0x168 /usr/lib/gcc/arm-none-eabi/4.8/../../../arm-none-eabi/lib/armv7e-m/fpu/libg.a(lib_a-gdtoa-hexnan.o)
 .debug_abbrev  0x00000000000150df      0x2a2 /usr/lib/gcc/arm-none-eabi/4.8/../../../arm-none-eabi/lib/armv7e-m/fpu/libg.a(lib_a-mallocr.o)
 .debug_abbrev  0x0000000000015381       0xba /usr/lib/gcc/arm-none-eabi/4.8/../../../arm-none-eabi/lib/armv7e-m/fpu/libg.a(lib_a-memchr-stub.o)
 .debug_abbrev  0x000000000001543b      0x19a /usr/lib/gcc/arm-none-eabi/4.8/../../../arm-none-eabi/lib/armv7e-m/fpu/libg.a(lib_a-mlock.o)
 .debug_abbrev  0x00000000000155d5      0x39d /usr/lib/gcc/arm-none-eabi/4.8/../../../arm-none-eabi/lib/armv7e-m/fpu/libg.a(lib_a-mprec.o)
 .debug_abbrev  0x0000000000015972      0x260 /usr/lib/gcc/arm-none-eabi/4.8/../../../arm-none-eabi/lib/armv7e-m/fpu/libg.a(lib_a-reallocr.o)
 .debug_abbrev  0x0000000000015bd2       0x81 /usr/lib/gcc/arm-none-eabi/4.8/../../../arm-none-eabi/lib/armv7e-m/fpu/libg.a(lib_a-strncmp.o)
 .debug_abbrev  0x0000000000015c53      0x2c5 /usr/lib/gcc/arm-none-eabi/4.8/../../../arm-none-eabi/lib/armv7e-m/fpu/libg.a(lib_a-svfiprintf.o)
 .debug_abbrev  0x0000000000015f18      0x213 /usr/lib/gcc/arm-none-eabi/4.8/../../../arm-none-eabi/lib/armv7e-m/fpu/libg.a(lib_a-callocr.o)
 .debug_abbrev  0x000000000001612b       0xab /usr/lib/gcc/arm-none-eabi/4.8/../../../arm-none-eabi/lib/armv7e-m/fpu/libg.a(lib_a-memmove.o)
 .debug_abbrev  0x00000000000161d6       0x14 /usr/lib/gcc/arm-none-eabi/4.8/armv7e-m/fpu/libgcc.a(_arm_fixunsdfsi.o)
 .debug_abbrev  0x00000000000161ea       0x14 /usr/lib/gcc/arm-none-eabi/4.8/armv7e-m/fpu/libgcc.a(_aeabi_uldivmod.o)
 .debug_abbrev  0x00000000000161fe       0xb7 /usr/lib/gcc/arm-none-eabi/4.8/armv7e-m/fpu/libgcc.a(bpabi.o)
 .debug_abbrev  0x00000000000162b5       0x14 /usr/lib/gcc/arm-none-eabi/4.8/armv7e-m/fpu/libgcc.a(_dvmd_tls.o)
 .debug_abbrev  0x00000000000162c9      0x15a /usr/lib/gcc/arm-none-eabi/4.8/armv7e-m/fpu/libgcc.a(_divdi3.o)
 .debug_abbrev  0x0000000000016423      0x154 /usr/lib/gcc/arm-none-eabi/4.8/armv7e-m/fpu/libgcc.a(_udivdi3.o)

.debug_aranges  0x0000000000000000     0x3408
 .debug_aranges
                0x0000000000000000       0x38 build/obj/crt1.o
 .debug_aranges
                0x0000000000000038       0x20 build/obj/vectors.o
 .debug_aranges
                0x0000000000000058       0x60 build/obj/chsys.o
 .debug_aranges
                0x00000000000000b8       0x30 build/obj/chvt.o
 .debug_aranges
                0x00000000000000e8       0x70 build/obj/chschd.o
 .debug_aranges
                0x0000000000000158       0xc0 build/obj/chthreads.o
 .debug_aranges
                0x0000000000000218       0x40 build/obj/chtm.o
 .debug_aranges
                0x0000000000000258       0x38 build/obj/chdynamic.o
 .debug_aranges
                0x0000000000000290       0x28 build/obj/chregistry.o
 .debug_aranges
                0x00000000000002b8       0x58 build/obj/chmtx.o
 .debug_aranges
                0x0000000000000310       0xa0 build/obj/chevents.o
 .debug_aranges
                0x00000000000003b0       0x68 build/obj/chqueues.o
 .debug_aranges
                0x0000000000000418       0x38 build/obj/chmemcore.o
 .debug_aranges
                0x0000000000000450       0x40 build/obj/chheap.o
 .debug_aranges
                0x0000000000000490       0x48 build/obj/chmempools.o
 .debug_aranges
                0x00000000000004d8       0x28 build/obj/chcore_v7m.o
 .debug_aranges
                0x0000000000000500       0x20 build/obj/hal.o
 .debug_aranges
                0x0000000000000520       0x40 build/obj/st.o
 .debug_aranges
                0x0000000000000560       0x58 build/obj/can.o
 .debug_aranges
                0x00000000000005b8       0x60 build/obj/i2c.o
 .debug_aranges
                0x0000000000000618       0x60 build/obj/icu.o
 .debug_aranges
                0x0000000000000678       0xb0 build/obj/serial_usb.o
 .debug_aranges
                0x0000000000000728       0x98 build/obj/spi.o
 .debug_aranges
                0x00000000000007c0       0x78 build/obj/uart.o
 .debug_aranges
                0x0000000000000838       0xa8 build/obj/usb.o
 .debug_aranges
                0x00000000000008e0       0x38 build/obj/nvic.o
 .debug_aranges
                0x0000000000000918       0xb0 build/obj/stm32_dma.o
 .debug_aranges
                0x00000000000009c8       0x28 build/obj/hal_lld.o
 .debug_aranges
                0x00000000000009f0       0x28 build/obj/st_lld.o
 .debug_aranges
                0x0000000000000a18       0x90 build/obj/can_lld.o
 .debug_aranges
                0x0000000000000aa8       0x28 build/obj/pal_lld.o
 .debug_aranges
                0x0000000000000ad0       0x60 build/obj/i2c_lld.o
 .debug_aranges
                0x0000000000000b30       0xd0 build/obj/usb_lld.o
 .debug_aranges
                0x0000000000000c00       0x78 build/obj/spi_lld.o
 .debug_aranges
                0x0000000000000c78       0x68 build/obj/icu_lld.o
 .debug_aranges
                0x0000000000000ce0       0x80 build/obj/uart_lld.o
 .debug_aranges
                0x0000000000000d60       0x50 build/obj/syscalls.o
 .debug_aranges
                0x0000000000000db0       0x28 build/obj/board.o
 .debug_aranges
                0x0000000000000dd8       0x30 build/obj/main.o
 .debug_aranges
                0x0000000000000e08       0x38 build/obj/comm_usb_serial.o
 .debug_aranges
                0x0000000000000e40       0x38 build/obj/irq_handlers.o
 .debug_aranges
                0x0000000000000e78       0x88 build/obj/buffer.o
 .debug_aranges
                0x0000000000000f00       0x48 build/obj/comm_usb.o
 .debug_aranges
                0x0000000000000f48       0x20 build/obj/crc.o
 .debug_aranges
                0x0000000000000f68       0x58 build/obj/digital_filter.o
 .debug_aranges
                0x0000000000000fc0       0x40 build/obj/ledpwm.o
 .debug_aranges
                0x0000000000001000      0x1e8 build/obj/mcpwm.o
 .debug_aranges
                0x00000000000011e8       0x58 build/obj/servo_dec.o
 .debug_aranges
                0x0000000000001240       0xe8 build/obj/utils.o
 .debug_aranges
                0x0000000000001328       0x38 build/obj/packet.o
 .debug_aranges
                0x0000000000001360       0x30 build/obj/terminal.o
 .debug_aranges
                0x0000000000001390       0x60 build/obj/conf_general.o
 .debug_aranges
                0x00000000000013f0       0x48 build/obj/eeprom.o
 .debug_aranges
                0x0000000000001438       0x80 build/obj/commands.o
 .debug_aranges
                0x00000000000014b8       0x50 build/obj/timeout.o
 .debug_aranges
                0x0000000000001508       0xb0 build/obj/comm_can.o
 .debug_aranges
                0x00000000000015b8       0x48 build/obj/led_external.o
 .debug_aranges
                0x0000000000001600       0x68 build/obj/encoder.o
 .debug_aranges
                0x0000000000001668       0x38 build/obj/flash_helper.o
 .debug_aranges
                0x00000000000016a0      0x1e0 build/obj/mc_interface.o
 .debug_aranges
                0x0000000000001880      0x1d8 build/obj/mcpwm_foc.o
 .debug_aranges
                0x0000000000001a58       0x48 build/obj/hw_410.o
 .debug_aranges
                0x0000000000001aa0       0x28 build/obj/app.o
 .debug_aranges
                0x0000000000001ac8       0x50 build/obj/app_ppm.o
 .debug_aranges
                0x0000000000001b18       0x58 build/obj/app_adc.o
 .debug_aranges
                0x0000000000001b70       0x78 build/obj/app_uartcomm.o
 .debug_aranges
                0x0000000000001be8       0x58 build/obj/app_nunchuk.o
 .debug_aranges
                0x0000000000001c40       0x48 build/obj/spi_sw.o
 .debug_aranges
                0x0000000000001c88      0x158 build/obj/rf.o
 .debug_aranges
                0x0000000000001de0       0x80 build/obj/rfhelp.o
 .debug_aranges
                0x0000000000001e60       0x48 build/obj/nrf_driver.o
 .debug_aranges
                0x0000000000001ea8      0x148 build/obj/stm32f4xx_adc.o
 .debug_aranges
                0x0000000000001ff0       0xb0 build/obj/stm32f4xx_dma.o
 .debug_aranges
                0x00000000000020a0       0x58 build/obj/stm32f4xx_exti.o
 .debug_aranges
                0x00000000000020f8      0x158 build/obj/stm32f4xx_flash.o
 .debug_aranges
                0x0000000000002250      0x160 build/obj/stm32f4xx_rcc.o
 .debug_aranges
                0x00000000000023b0       0x50 build/obj/stm32f4xx_syscfg.o
 .debug_aranges
                0x0000000000002400      0x2d8 build/obj/stm32f4xx_tim.o
 .debug_aranges
                0x00000000000026d8       0x58 build/obj/stm32f4xx_wwdg.o
 .debug_aranges
                0x0000000000002730       0x20 /usr/lib/gcc/arm-none-eabi/4.8/../../../arm-none-eabi/lib/armv7e-m/fpu/libm.a(lib_a-sf_cos.o)
 .debug_aranges
                0x0000000000002750       0x20 /usr/lib/gcc/arm-none-eabi/4.8/../../../arm-none-eabi/lib/armv7e-m/fpu/libm.a(lib_a-sf_floor.o)
 .debug_aranges
                0x0000000000002770       0x20 /usr/lib/gcc/arm-none-eabi/4.8/../../../arm-none-eabi/lib/armv7e-m/fpu/libm.a(lib_a-sf_frexp.o)
 .debug_aranges
                0x0000000000002790       0x20 /usr/lib/gcc/arm-none-eabi/4.8/../../../arm-none-eabi/lib/armv7e-m/fpu/libm.a(lib_a-sf_ldexp.o)
 .debug_aranges
                0x00000000000027b0       0x20 /usr/lib/gcc/arm-none-eabi/4.8/../../../arm-none-eabi/lib/armv7e-m/fpu/libm.a(lib_a-sf_round.o)
 .debug_aranges
                0x00000000000027d0       0x20 /usr/lib/gcc/arm-none-eabi/4.8/../../../arm-none-eabi/lib/armv7e-m/fpu/libm.a(lib_a-sf_scalbn.o)
 .debug_aranges
                0x00000000000027f0       0x20 /usr/lib/gcc/arm-none-eabi/4.8/../../../arm-none-eabi/lib/armv7e-m/fpu/libm.a(lib_a-sf_sin.o)
 .debug_aranges
                0x0000000000002810       0x20 /usr/lib/gcc/arm-none-eabi/4.8/../../../arm-none-eabi/lib/armv7e-m/fpu/libm.a(lib_a-wf_asin.o)
 .debug_aranges
                0x0000000000002830       0x20 /usr/lib/gcc/arm-none-eabi/4.8/../../../arm-none-eabi/lib/armv7e-m/fpu/libm.a(lib_a-wf_atan2.o)
 .debug_aranges
                0x0000000000002850       0x20 /usr/lib/gcc/arm-none-eabi/4.8/../../../arm-none-eabi/lib/armv7e-m/fpu/libm.a(lib_a-wf_exp.o)
 .debug_aranges
                0x0000000000002870       0x20 /usr/lib/gcc/arm-none-eabi/4.8/../../../arm-none-eabi/lib/armv7e-m/fpu/libm.a(lib_a-wf_fmod.o)
 .debug_aranges
                0x0000000000002890       0x20 /usr/lib/gcc/arm-none-eabi/4.8/../../../arm-none-eabi/lib/armv7e-m/fpu/libm.a(lib_a-wf_log.o)
 .debug_aranges
                0x00000000000028b0       0x20 /usr/lib/gcc/arm-none-eabi/4.8/../../../arm-none-eabi/lib/armv7e-m/fpu/libm.a(lib_a-wf_pow.o)
 .debug_aranges
                0x00000000000028d0       0x20 /usr/lib/gcc/arm-none-eabi/4.8/../../../arm-none-eabi/lib/armv7e-m/fpu/libm.a(lib_a-wf_sincos.o)
 .debug_aranges
                0x00000000000028f0       0x20 /usr/lib/gcc/arm-none-eabi/4.8/../../../arm-none-eabi/lib/armv7e-m/fpu/libm.a(lib_a-wf_sqrt.o)
 .debug_aranges
                0x0000000000002910       0x20 /usr/lib/gcc/arm-none-eabi/4.8/../../../arm-none-eabi/lib/armv7e-m/fpu/libm.a(lib_a-w_sqrt.o)
 .debug_aranges
                0x0000000000002930       0x20 /usr/lib/gcc/arm-none-eabi/4.8/../../../arm-none-eabi/lib/armv7e-m/fpu/libm.a(lib_a-ef_asin.o)
 .debug_aranges
                0x0000000000002950       0x20 /usr/lib/gcc/arm-none-eabi/4.8/../../../arm-none-eabi/lib/armv7e-m/fpu/libm.a(lib_a-ef_atan2.o)
 .debug_aranges
                0x0000000000002970       0x20 /usr/lib/gcc/arm-none-eabi/4.8/../../../arm-none-eabi/lib/armv7e-m/fpu/libm.a(lib_a-ef_exp.o)
 .debug_aranges
                0x0000000000002990       0x20 /usr/lib/gcc/arm-none-eabi/4.8/../../../arm-none-eabi/lib/armv7e-m/fpu/libm.a(lib_a-ef_fmod.o)
 .debug_aranges
                0x00000000000029b0       0x20 /usr/lib/gcc/arm-none-eabi/4.8/../../../arm-none-eabi/lib/armv7e-m/fpu/libm.a(lib_a-ef_log.o)
 .debug_aranges
                0x00000000000029d0       0x20 /usr/lib/gcc/arm-none-eabi/4.8/../../../arm-none-eabi/lib/armv7e-m/fpu/libm.a(lib_a-ef_pow.o)
 .debug_aranges
                0x00000000000029f0       0x20 /usr/lib/gcc/arm-none-eabi/4.8/../../../arm-none-eabi/lib/armv7e-m/fpu/libm.a(lib_a-ef_rem_pio2.o)
 .debug_aranges
                0x0000000000002a10       0x20 /usr/lib/gcc/arm-none-eabi/4.8/../../../arm-none-eabi/lib/armv7e-m/fpu/libm.a(lib_a-ef_sqrt.o)
 .debug_aranges
                0x0000000000002a30       0x20 /usr/lib/gcc/arm-none-eabi/4.8/../../../arm-none-eabi/lib/armv7e-m/fpu/libm.a(lib_a-e_sqrt.o)
 .debug_aranges
                0x0000000000002a50       0x20 /usr/lib/gcc/arm-none-eabi/4.8/../../../arm-none-eabi/lib/armv7e-m/fpu/libm.a(lib_a-kf_cos.o)
 .debug_aranges
                0x0000000000002a70       0x20 /usr/lib/gcc/arm-none-eabi/4.8/../../../arm-none-eabi/lib/armv7e-m/fpu/libm.a(lib_a-kf_rem_pio2.o)
 .debug_aranges
                0x0000000000002a90       0x20 /usr/lib/gcc/arm-none-eabi/4.8/../../../arm-none-eabi/lib/armv7e-m/fpu/libm.a(lib_a-kf_sin.o)
 .debug_aranges
                0x0000000000002ab0       0x20 /usr/lib/gcc/arm-none-eabi/4.8/../../../arm-none-eabi/lib/armv7e-m/fpu/libm.a(lib_a-sf_atan.o)
 .debug_aranges
                0x0000000000002ad0       0x20 /usr/lib/gcc/arm-none-eabi/4.8/../../../arm-none-eabi/lib/armv7e-m/fpu/libm.a(lib_a-sf_copysign.o)
 .debug_aranges
                0x0000000000002af0       0x20 /usr/lib/gcc/arm-none-eabi/4.8/../../../arm-none-eabi/lib/armv7e-m/fpu/libm.a(lib_a-sf_fabs.o)
 .debug_aranges
                0x0000000000002b10       0x20 /usr/lib/gcc/arm-none-eabi/4.8/../../../arm-none-eabi/lib/armv7e-m/fpu/libm.a(lib_a-sf_finite.o)
 .debug_aranges
                0x0000000000002b30       0x20 /usr/lib/gcc/arm-none-eabi/4.8/../../../arm-none-eabi/lib/armv7e-m/fpu/libm.a(lib_a-sf_fpclassify.o)
 .debug_aranges
                0x0000000000002b50       0x20 /usr/lib/gcc/arm-none-eabi/4.8/../../../arm-none-eabi/lib/armv7e-m/fpu/libm.a(lib_a-sf_nan.o)
 .debug_aranges
                0x0000000000002b70       0x20 /usr/lib/gcc/arm-none-eabi/4.8/../../../arm-none-eabi/lib/armv7e-m/fpu/libm.a(lib_a-s_fpclassify.o)
 .debug_aranges
                0x0000000000002b90       0x18 /usr/lib/gcc/arm-none-eabi/4.8/../../../arm-none-eabi/lib/armv7e-m/fpu/libm.a(lib_a-s_lib_ver.o)
 .debug_aranges
                0x0000000000002ba8       0x20 /usr/lib/gcc/arm-none-eabi/4.8/../../../arm-none-eabi/lib/armv7e-m/fpu/libm.a(lib_a-s_matherr.o)
 .debug_aranges
                0x0000000000002bc8       0x20 /usr/lib/gcc/arm-none-eabi/4.8/../../../arm-none-eabi/lib/armv7e-m/fpu/libm.a(lib_a-s_nan.o)
 .debug_aranges
                0x0000000000002be8       0x20 /usr/lib/gcc/arm-none-eabi/4.8/../../../arm-none-eabi/lib/armv7e-m/fpu/libm.a(lib_a-s_rint.o)
 .debug_aranges
                0x0000000000002c08       0x20 /usr/lib/gcc/arm-none-eabi/4.8/armv7e-m/fpu/libgcc.a(_arm_addsubdf3.o)
 .debug_aranges
                0x0000000000002c28       0x20 /usr/lib/gcc/arm-none-eabi/4.8/armv7e-m/fpu/libgcc.a(_arm_muldivdf3.o)
 .debug_aranges
                0x0000000000002c48       0x20 /usr/lib/gcc/arm-none-eabi/4.8/armv7e-m/fpu/libgcc.a(_arm_cmpdf2.o)
 .debug_aranges
                0x0000000000002c68       0x20 /usr/lib/gcc/arm-none-eabi/4.8/armv7e-m/fpu/libgcc.a(_arm_fixdfsi.o)
 .debug_aranges
                0x0000000000002c88       0x20 /usr/lib/gcc/arm-none-eabi/4.8/armv7e-m/fpu/libgcc.a(_arm_truncdfsf2.o)
 .debug_aranges
                0x0000000000002ca8       0x20 /usr/lib/gcc/arm-none-eabi/4.8/../../../arm-none-eabi/lib/armv7e-m/fpu/libg.a(lib_a-errno.o)
 .debug_aranges
                0x0000000000002cc8       0x18 /usr/lib/gcc/arm-none-eabi/4.8/../../../arm-none-eabi/lib/armv7e-m/fpu/libg.a(lib_a-impure.o)
 .debug_aranges
                0x0000000000002ce0       0x20 /usr/lib/gcc/arm-none-eabi/4.8/../../../arm-none-eabi/lib/armv7e-m/fpu/libg.a(lib_a-memcmp.o)
 .debug_aranges
                0x0000000000002d00       0x20 /usr/lib/gcc/arm-none-eabi/4.8/../../../arm-none-eabi/lib/armv7e-m/fpu/libg.a(lib_a-memcpy.o)
 .debug_aranges
                0x0000000000002d20       0x20 /usr/lib/gcc/arm-none-eabi/4.8/../../../arm-none-eabi/lib/armv7e-m/fpu/libg.a(lib_a-memset.o)
 .debug_aranges
                0x0000000000002d40       0x28 /usr/lib/gcc/arm-none-eabi/4.8/../../../arm-none-eabi/lib/armv7e-m/fpu/libg.a(lib_a-sscanf.o)
 .debug_aranges
                0x0000000000002d68       0x40 /usr/lib/gcc/arm-none-eabi/4.8/../../../arm-none-eabi/lib/armv7e-m/fpu/libg.a(lib_a-stdio.o)
 .debug_aranges
                0x0000000000002da8       0x20 /usr/lib/gcc/arm-none-eabi/4.8/../../../arm-none-eabi/lib/armv7e-m/fpu/libg.a(lib_a-strcmp.o)
 .debug_aranges
                0x0000000000002dc8       0x20 /usr/lib/gcc/arm-none-eabi/4.8/../../../arm-none-eabi/lib/armv7e-m/fpu/libg.a(lib_a-strlen.o)
 .debug_aranges
                0x0000000000002de8       0x20 /usr/lib/gcc/arm-none-eabi/4.8/../../../arm-none-eabi/lib/armv7e-m/fpu/libg.a(lib_a-strtok.o)
 .debug_aranges
                0x0000000000002e08       0x28 /usr/lib/gcc/arm-none-eabi/4.8/../../../arm-none-eabi/lib/armv7e-m/fpu/libg.a(lib_a-strtok_r.o)
 .debug_aranges
                0x0000000000002e30       0x20 /usr/lib/gcc/arm-none-eabi/4.8/../../../arm-none-eabi/lib/armv7e-m/fpu/libg.a(lib_a-svfscanf.o)
 .debug_aranges
                0x0000000000002e50       0x28 /usr/lib/gcc/arm-none-eabi/4.8/../../../arm-none-eabi/lib/armv7e-m/fpu/libg.a(lib_a-vsnprintf.o)
 .debug_aranges
                0x0000000000002e78       0x18 /usr/lib/gcc/arm-none-eabi/4.8/../../../arm-none-eabi/lib/armv7e-m/fpu/libg.a(lib_a-ctype_.o)
 .debug_aranges
                0x0000000000002e90       0x20 /usr/lib/gcc/arm-none-eabi/4.8/../../../arm-none-eabi/lib/armv7e-m/fpu/libg.a(lib_a-iswspace.o)
 .debug_aranges
                0x0000000000002eb0       0x58 /usr/lib/gcc/arm-none-eabi/4.8/../../../arm-none-eabi/lib/armv7e-m/fpu/libg.a(lib_a-locale.o)
 .debug_aranges
                0x0000000000002f08       0x28 /usr/lib/gcc/arm-none-eabi/4.8/../../../arm-none-eabi/lib/armv7e-m/fpu/libg.a(lib_a-mbrtowc.o)
 .debug_aranges
                0x0000000000002f30       0x28 /usr/lib/gcc/arm-none-eabi/4.8/../../../arm-none-eabi/lib/armv7e-m/fpu/libg.a(lib_a-mbtowc_r.o)
 .debug_aranges
                0x0000000000002f58       0x20 /usr/lib/gcc/arm-none-eabi/4.8/../../../arm-none-eabi/lib/armv7e-m/fpu/libg.a(lib_a-sccl.o)
 .debug_aranges
                0x0000000000002f78       0x28 /usr/lib/gcc/arm-none-eabi/4.8/../../../arm-none-eabi/lib/armv7e-m/fpu/libg.a(lib_a-sprintf.o)
 .debug_aranges
                0x0000000000002fa0       0x38 /usr/lib/gcc/arm-none-eabi/4.8/../../../arm-none-eabi/lib/armv7e-m/fpu/libg.a(lib_a-strtod.o)
 .debug_aranges
                0x0000000000002fd8       0x20 /usr/lib/gcc/arm-none-eabi/4.8/../../../arm-none-eabi/lib/armv7e-m/fpu/libg.a(lib_a-strtoll_r.o)
 .debug_aranges
                0x0000000000002ff8       0x28 /usr/lib/gcc/arm-none-eabi/4.8/../../../arm-none-eabi/lib/armv7e-m/fpu/libg.a(lib_a-strtol.o)
 .debug_aranges
                0x0000000000003020       0x20 /usr/lib/gcc/arm-none-eabi/4.8/../../../arm-none-eabi/lib/armv7e-m/fpu/libg.a(lib_a-strtoull_r.o)
 .debug_aranges
                0x0000000000003040       0x28 /usr/lib/gcc/arm-none-eabi/4.8/../../../arm-none-eabi/lib/armv7e-m/fpu/libg.a(lib_a-strtoul.o)
 .debug_aranges
                0x0000000000003068       0x38 /usr/lib/gcc/arm-none-eabi/4.8/../../../arm-none-eabi/lib/armv7e-m/fpu/libg.a(lib_a-svfiscanf.o)
 .debug_aranges
                0x00000000000030a0       0x20 /usr/lib/gcc/arm-none-eabi/4.8/../../../arm-none-eabi/lib/armv7e-m/fpu/libg.a(lib_a-svfprintf.o)
 .debug_aranges
                0x00000000000030c0       0x30 /usr/lib/gcc/arm-none-eabi/4.8/../../../arm-none-eabi/lib/armv7e-m/fpu/libg.a(lib_a-ungetc.o)
 .debug_aranges
                0x00000000000030f0       0x28 /usr/lib/gcc/arm-none-eabi/4.8/../../../arm-none-eabi/lib/armv7e-m/fpu/libg.a(lib_a-dtoa.o)
 .debug_aranges
                0x0000000000003118       0x28 /usr/lib/gcc/arm-none-eabi/4.8/../../../arm-none-eabi/lib/armv7e-m/fpu/libg.a(lib_a-freer.o)
 .debug_aranges
                0x0000000000003140       0x28 /usr/lib/gcc/arm-none-eabi/4.8/../../../arm-none-eabi/lib/armv7e-m/fpu/libg.a(lib_a-gdtoa-gethex.o)
 .debug_aranges
                0x0000000000003168       0x20 /usr/lib/gcc/arm-none-eabi/4.8/../../../arm-none-eabi/lib/armv7e-m/fpu/libg.a(lib_a-gdtoa-hexnan.o)
 .debug_aranges
                0x0000000000003188       0x20 /usr/lib/gcc/arm-none-eabi/4.8/../../../arm-none-eabi/lib/armv7e-m/fpu/libg.a(lib_a-mallocr.o)
 .debug_aranges
                0x00000000000031a8       0x20 /usr/lib/gcc/arm-none-eabi/4.8/../../../arm-none-eabi/lib/armv7e-m/fpu/libg.a(lib_a-memchr-stub.o)
 .debug_aranges
                0x00000000000031c8       0x28 /usr/lib/gcc/arm-none-eabi/4.8/../../../arm-none-eabi/lib/armv7e-m/fpu/libg.a(lib_a-mlock.o)
 .debug_aranges
                0x00000000000031f0       0xb0 /usr/lib/gcc/arm-none-eabi/4.8/../../../arm-none-eabi/lib/armv7e-m/fpu/libg.a(lib_a-mprec.o)
 .debug_aranges
                0x00000000000032a0       0x20 /usr/lib/gcc/arm-none-eabi/4.8/../../../arm-none-eabi/lib/armv7e-m/fpu/libg.a(lib_a-reallocr.o)
 .debug_aranges
                0x00000000000032c0       0x20 /usr/lib/gcc/arm-none-eabi/4.8/../../../arm-none-eabi/lib/armv7e-m/fpu/libg.a(lib_a-strncmp.o)
 .debug_aranges
                0x00000000000032e0       0x28 /usr/lib/gcc/arm-none-eabi/4.8/../../../arm-none-eabi/lib/armv7e-m/fpu/libg.a(lib_a-svfiprintf.o)
 .debug_aranges
                0x0000000000003308       0x20 /usr/lib/gcc/arm-none-eabi/4.8/../../../arm-none-eabi/lib/armv7e-m/fpu/libg.a(lib_a-callocr.o)
 .debug_aranges
                0x0000000000003328       0x20 /usr/lib/gcc/arm-none-eabi/4.8/../../../arm-none-eabi/lib/armv7e-m/fpu/libg.a(lib_a-memmove.o)
 .debug_aranges
                0x0000000000003348       0x20 /usr/lib/gcc/arm-none-eabi/4.8/armv7e-m/fpu/libgcc.a(_arm_fixunsdfsi.o)
 .debug_aranges
                0x0000000000003368       0x20 /usr/lib/gcc/arm-none-eabi/4.8/armv7e-m/fpu/libgcc.a(_aeabi_uldivmod.o)
 .debug_aranges
                0x0000000000003388       0x20 /usr/lib/gcc/arm-none-eabi/4.8/armv7e-m/fpu/libgcc.a(bpabi.o)
 .debug_aranges
                0x00000000000033a8       0x20 /usr/lib/gcc/arm-none-eabi/4.8/armv7e-m/fpu/libgcc.a(_dvmd_tls.o)
 .debug_aranges
                0x00000000000033c8       0x20 /usr/lib/gcc/arm-none-eabi/4.8/armv7e-m/fpu/libgcc.a(_divdi3.o)
 .debug_aranges
                0x00000000000033e8       0x20 /usr/lib/gcc/arm-none-eabi/4.8/armv7e-m/fpu/libgcc.a(_udivdi3.o)

.debug_ranges   0x0000000000000000     0x6818
 .debug_ranges  0x0000000000000000       0x28 build/obj/crt1.o
 .debug_ranges  0x0000000000000028       0x10 build/obj/vectors.o
 .debug_ranges  0x0000000000000038      0x110 build/obj/chsys.o
 .debug_ranges  0x0000000000000148       0x20 build/obj/chvt.o
 .debug_ranges  0x0000000000000168      0x178 build/obj/chschd.o
 .debug_ranges  0x00000000000002e0      0x208 build/obj/chthreads.o
 .debug_ranges  0x00000000000004e8       0xb8 build/obj/chtm.o
 .debug_ranges  0x00000000000005a0       0x28 build/obj/chdynamic.o
 .debug_ranges  0x00000000000005c8       0x18 build/obj/chregistry.o
 .debug_ranges  0x00000000000005e0      0x180 build/obj/chmtx.o
 .debug_ranges  0x0000000000000760       0xc0 build/obj/chevents.o
 .debug_ranges  0x0000000000000820      0x120 build/obj/chqueues.o
 .debug_ranges  0x0000000000000940       0x28 build/obj/chmemcore.o
 .debug_ranges  0x0000000000000968       0x30 build/obj/chheap.o
 .debug_ranges  0x0000000000000998       0xe0 build/obj/chmempools.o
 .debug_ranges  0x0000000000000a78       0x18 build/obj/chcore_v7m.o
 .debug_ranges  0x0000000000000a90       0x10 build/obj/hal.o
 .debug_ranges  0x0000000000000aa0       0x30 build/obj/st.o
 .debug_ranges  0x0000000000000ad0      0x108 build/obj/can.o
 .debug_ranges  0x0000000000000bd8       0x80 build/obj/i2c.o
 .debug_ranges  0x0000000000000c58       0xc8 build/obj/icu.o
 .debug_ranges  0x0000000000000d20       0xd8 build/obj/serial_usb.o
 .debug_ranges  0x0000000000000df8      0x100 build/obj/spi.o
 .debug_ranges  0x0000000000000ef8      0x128 build/obj/uart.o
 .debug_ranges  0x0000000000001020      0x170 build/obj/usb.o
 .debug_ranges  0x0000000000001190       0x28 build/obj/nvic.o
 .debug_ranges  0x00000000000011b8       0xa0 build/obj/stm32_dma.o
 .debug_ranges  0x0000000000001258       0x38 build/obj/hal_lld.o
 .debug_ranges  0x0000000000001290       0x18 build/obj/st_lld.o
 .debug_ranges  0x00000000000012a8       0xf8 build/obj/can_lld.o
 .debug_ranges  0x00000000000013a0      0x108 build/obj/pal_lld.o
 .debug_ranges  0x00000000000014a8      0x190 build/obj/i2c_lld.o
 .debug_ranges  0x0000000000001638      0x2c8 build/obj/usb_lld.o
 .debug_ranges  0x0000000000001900       0x68 build/obj/spi_lld.o
 .debug_ranges  0x0000000000001968       0x70 build/obj/icu_lld.o
 .debug_ranges  0x00000000000019d8      0x118 build/obj/uart_lld.o
 .debug_ranges  0x0000000000001af0       0x40 build/obj/syscalls.o
 .debug_ranges  0x0000000000001b30       0x18 build/obj/board.o
 .debug_ranges  0x0000000000001b48       0x50 build/obj/main.o
 .debug_ranges  0x0000000000001b98       0x28 build/obj/comm_usb_serial.o
 .debug_ranges  0x0000000000001bc0       0x28 build/obj/irq_handlers.o
 .debug_ranges  0x0000000000001be8       0xa8 build/obj/buffer.o
 .debug_ranges  0x0000000000001c90       0x50 build/obj/comm_usb.o
 .debug_ranges  0x0000000000001ce0       0x10 build/obj/crc.o
 .debug_ranges  0x0000000000001cf0       0xf8 build/obj/digital_filter.o
 .debug_ranges  0x0000000000001de8       0x48 build/obj/ledpwm.o
 .debug_ranges  0x0000000000001e30      0x860 build/obj/mcpwm.o
 .debug_ranges  0x0000000000002690       0xe8 build/obj/servo_dec.o
 .debug_ranges  0x0000000000002778      0x110 build/obj/utils.o
 .debug_ranges  0x0000000000002888       0x28 build/obj/packet.o
 .debug_ranges  0x00000000000028b0      0x1b8 build/obj/terminal.o
 .debug_ranges  0x0000000000002a68       0xf8 build/obj/conf_general.o
 .debug_ranges  0x0000000000002b60       0x88 build/obj/eeprom.o
 .debug_ranges  0x0000000000002be8      0x2f8 build/obj/commands.o
 .debug_ranges  0x0000000000002ee0       0xa0 build/obj/timeout.o
 .debug_ranges  0x0000000000002f80      0x248 build/obj/comm_can.o
 .debug_ranges  0x00000000000031c8      0x180 build/obj/led_external.o
 .debug_ranges  0x0000000000003348      0x108 build/obj/encoder.o
 .debug_ranges  0x0000000000003450       0x58 build/obj/flash_helper.o
 .debug_ranges  0x00000000000034a8      0x448 build/obj/mc_interface.o
 .debug_ranges  0x00000000000038f0      0x7c0 build/obj/mcpwm_foc.o
 .debug_ranges  0x00000000000040b0       0x50 build/obj/hw_410.o
 .debug_ranges  0x0000000000004100       0x18 build/obj/app.o
 .debug_ranges  0x0000000000004118      0x1a8 build/obj/app_ppm.o
 .debug_ranges  0x00000000000042c0      0x238 build/obj/app_adc.o
 .debug_ranges  0x00000000000044f8       0x80 build/obj/app_uartcomm.o
 .debug_ranges  0x0000000000004578      0x2b8 build/obj/app_nunchuk.o
 .debug_ranges  0x0000000000004830      0x108 build/obj/spi_sw.o
 .debug_ranges  0x0000000000004938      0x1f8 build/obj/rf.o
 .debug_ranges  0x0000000000004b30       0xc0 build/obj/rfhelp.o
 .debug_ranges  0x0000000000004bf0      0x230 build/obj/nrf_driver.o
 .debug_ranges  0x0000000000004e20      0x138 build/obj/stm32f4xx_adc.o
 .debug_ranges  0x0000000000004f58       0xa0 build/obj/stm32f4xx_dma.o
 .debug_ranges  0x0000000000004ff8       0x48 build/obj/stm32f4xx_exti.o
 .debug_ranges  0x0000000000005040      0x148 build/obj/stm32f4xx_flash.o
 .debug_ranges  0x0000000000005188      0x168 build/obj/stm32f4xx_rcc.o
 .debug_ranges  0x00000000000052f0       0x40 build/obj/stm32f4xx_syscfg.o
 .debug_ranges  0x0000000000005330      0x370 build/obj/stm32f4xx_tim.o
 .debug_ranges  0x00000000000056a0       0x48 build/obj/stm32f4xx_wwdg.o
 .debug_ranges  0x00000000000056e8       0x10 /usr/lib/gcc/arm-none-eabi/4.8/../../../arm-none-eabi/lib/armv7e-m/fpu/libm.a(lib_a-sf_cos.o)
 .debug_ranges  0x00000000000056f8       0x10 /usr/lib/gcc/arm-none-eabi/4.8/../../../arm-none-eabi/lib/armv7e-m/fpu/libm.a(lib_a-sf_floor.o)
 .debug_ranges  0x0000000000005708       0x28 /usr/lib/gcc/arm-none-eabi/4.8/../../../arm-none-eabi/lib/armv7e-m/fpu/libm.a(lib_a-sf_frexp.o)
 .debug_ranges  0x0000000000005730       0x10 /usr/lib/gcc/arm-none-eabi/4.8/../../../arm-none-eabi/lib/armv7e-m/fpu/libm.a(lib_a-sf_ldexp.o)
 .debug_ranges  0x0000000000005740       0x28 /usr/lib/gcc/arm-none-eabi/4.8/../../../arm-none-eabi/lib/armv7e-m/fpu/libm.a(lib_a-sf_round.o)
 .debug_ranges  0x0000000000005768       0x10 /usr/lib/gcc/arm-none-eabi/4.8/../../../arm-none-eabi/lib/armv7e-m/fpu/libm.a(lib_a-sf_scalbn.o)
 .debug_ranges  0x0000000000005778       0x10 /usr/lib/gcc/arm-none-eabi/4.8/../../../arm-none-eabi/lib/armv7e-m/fpu/libm.a(lib_a-sf_sin.o)
 .debug_ranges  0x0000000000005788       0x10 /usr/lib/gcc/arm-none-eabi/4.8/../../../arm-none-eabi/lib/armv7e-m/fpu/libm.a(lib_a-wf_asin.o)
 .debug_ranges  0x0000000000005798       0x10 /usr/lib/gcc/arm-none-eabi/4.8/../../../arm-none-eabi/lib/armv7e-m/fpu/libm.a(lib_a-wf_atan2.o)
 .debug_ranges  0x00000000000057a8       0x10 /usr/lib/gcc/arm-none-eabi/4.8/../../../arm-none-eabi/lib/armv7e-m/fpu/libm.a(lib_a-wf_exp.o)
 .debug_ranges  0x00000000000057b8       0x10 /usr/lib/gcc/arm-none-eabi/4.8/../../../arm-none-eabi/lib/armv7e-m/fpu/libm.a(lib_a-wf_fmod.o)
 .debug_ranges  0x00000000000057c8       0x10 /usr/lib/gcc/arm-none-eabi/4.8/../../../arm-none-eabi/lib/armv7e-m/fpu/libm.a(lib_a-wf_log.o)
 .debug_ranges  0x00000000000057d8       0x10 /usr/lib/gcc/arm-none-eabi/4.8/../../../arm-none-eabi/lib/armv7e-m/fpu/libm.a(lib_a-wf_pow.o)
 .debug_ranges  0x00000000000057e8       0x10 /usr/lib/gcc/arm-none-eabi/4.8/../../../arm-none-eabi/lib/armv7e-m/fpu/libm.a(lib_a-wf_sincos.o)
 .debug_ranges  0x00000000000057f8       0x10 /usr/lib/gcc/arm-none-eabi/4.8/../../../arm-none-eabi/lib/armv7e-m/fpu/libm.a(lib_a-wf_sqrt.o)
 .debug_ranges  0x0000000000005808       0x10 /usr/lib/gcc/arm-none-eabi/4.8/../../../arm-none-eabi/lib/armv7e-m/fpu/libm.a(lib_a-w_sqrt.o)
 .debug_ranges  0x0000000000005818       0x10 /usr/lib/gcc/arm-none-eabi/4.8/../../../arm-none-eabi/lib/armv7e-m/fpu/libm.a(lib_a-ef_asin.o)
 .debug_ranges  0x0000000000005828       0x10 /usr/lib/gcc/arm-none-eabi/4.8/../../../arm-none-eabi/lib/armv7e-m/fpu/libm.a(lib_a-ef_atan2.o)
 .debug_ranges  0x0000000000005838       0x28 /usr/lib/gcc/arm-none-eabi/4.8/../../../arm-none-eabi/lib/armv7e-m/fpu/libm.a(lib_a-ef_exp.o)
 .debug_ranges  0x0000000000005860       0x10 /usr/lib/gcc/arm-none-eabi/4.8/../../../arm-none-eabi/lib/armv7e-m/fpu/libm.a(lib_a-ef_fmod.o)
 .debug_ranges  0x0000000000005870       0x40 /usr/lib/gcc/arm-none-eabi/4.8/../../../arm-none-eabi/lib/armv7e-m/fpu/libm.a(lib_a-ef_log.o)
 .debug_ranges  0x00000000000058b0       0xc0 /usr/lib/gcc/arm-none-eabi/4.8/../../../arm-none-eabi/lib/armv7e-m/fpu/libm.a(lib_a-ef_pow.o)
 .debug_ranges  0x0000000000005970       0x30 /usr/lib/gcc/arm-none-eabi/4.8/../../../arm-none-eabi/lib/armv7e-m/fpu/libm.a(lib_a-ef_rem_pio2.o)
 .debug_ranges  0x00000000000059a0       0x10 /usr/lib/gcc/arm-none-eabi/4.8/../../../arm-none-eabi/lib/armv7e-m/fpu/libm.a(lib_a-ef_sqrt.o)
 .debug_ranges  0x00000000000059b0       0x28 /usr/lib/gcc/arm-none-eabi/4.8/../../../arm-none-eabi/lib/armv7e-m/fpu/libm.a(lib_a-e_sqrt.o)
 .debug_ranges  0x00000000000059d8       0x10 /usr/lib/gcc/arm-none-eabi/4.8/../../../arm-none-eabi/lib/armv7e-m/fpu/libm.a(lib_a-kf_cos.o)
 .debug_ranges  0x00000000000059e8       0x10 /usr/lib/gcc/arm-none-eabi/4.8/../../../arm-none-eabi/lib/armv7e-m/fpu/libm.a(lib_a-kf_rem_pio2.o)
 .debug_ranges  0x00000000000059f8       0x10 /usr/lib/gcc/arm-none-eabi/4.8/../../../arm-none-eabi/lib/armv7e-m/fpu/libm.a(lib_a-kf_sin.o)
 .debug_ranges  0x0000000000005a08       0x10 /usr/lib/gcc/arm-none-eabi/4.8/../../../arm-none-eabi/lib/armv7e-m/fpu/libm.a(lib_a-sf_atan.o)
 .debug_ranges  0x0000000000005a18       0x10 /usr/lib/gcc/arm-none-eabi/4.8/../../../arm-none-eabi/lib/armv7e-m/fpu/libm.a(lib_a-sf_copysign.o)
 .debug_ranges  0x0000000000005a28       0x10 /usr/lib/gcc/arm-none-eabi/4.8/../../../arm-none-eabi/lib/armv7e-m/fpu/libm.a(lib_a-sf_fabs.o)
 .debug_ranges  0x0000000000005a38       0x10 /usr/lib/gcc/arm-none-eabi/4.8/../../../arm-none-eabi/lib/armv7e-m/fpu/libm.a(lib_a-sf_finite.o)
 .debug_ranges  0x0000000000005a48       0x10 /usr/lib/gcc/arm-none-eabi/4.8/../../../arm-none-eabi/lib/armv7e-m/fpu/libm.a(lib_a-sf_fpclassify.o)
 .debug_ranges  0x0000000000005a58       0x10 /usr/lib/gcc/arm-none-eabi/4.8/../../../arm-none-eabi/lib/armv7e-m/fpu/libm.a(lib_a-sf_nan.o)
 .debug_ranges  0x0000000000005a68       0x10 /usr/lib/gcc/arm-none-eabi/4.8/../../../arm-none-eabi/lib/armv7e-m/fpu/libm.a(lib_a-s_fpclassify.o)
 .debug_ranges  0x0000000000005a78       0x10 /usr/lib/gcc/arm-none-eabi/4.8/../../../arm-none-eabi/lib/armv7e-m/fpu/libm.a(lib_a-s_matherr.o)
 .debug_ranges  0x0000000000005a88       0x10 /usr/lib/gcc/arm-none-eabi/4.8/../../../arm-none-eabi/lib/armv7e-m/fpu/libm.a(lib_a-s_nan.o)
 .debug_ranges  0x0000000000005a98       0x40 /usr/lib/gcc/arm-none-eabi/4.8/../../../arm-none-eabi/lib/armv7e-m/fpu/libm.a(lib_a-s_rint.o)
 .debug_ranges  0x0000000000005ad8       0x10 /usr/lib/gcc/arm-none-eabi/4.8/../../../arm-none-eabi/lib/armv7e-m/fpu/libg.a(lib_a-errno.o)
 .debug_ranges  0x0000000000005ae8       0x10 /usr/lib/gcc/arm-none-eabi/4.8/../../../arm-none-eabi/lib/armv7e-m/fpu/libg.a(lib_a-memcmp.o)
 .debug_ranges  0x0000000000005af8       0x10 /usr/lib/gcc/arm-none-eabi/4.8/../../../arm-none-eabi/lib/armv7e-m/fpu/libg.a(lib_a-memset.o)
 .debug_ranges  0x0000000000005b08       0x18 /usr/lib/gcc/arm-none-eabi/4.8/../../../arm-none-eabi/lib/armv7e-m/fpu/libg.a(lib_a-sscanf.o)
 .debug_ranges  0x0000000000005b20       0x30 /usr/lib/gcc/arm-none-eabi/4.8/../../../arm-none-eabi/lib/armv7e-m/fpu/libg.a(lib_a-stdio.o)
 .debug_ranges  0x0000000000005b50       0x10 /usr/lib/gcc/arm-none-eabi/4.8/../../../arm-none-eabi/lib/armv7e-m/fpu/libg.a(lib_a-strlen.o)
 .debug_ranges  0x0000000000005b60       0x10 /usr/lib/gcc/arm-none-eabi/4.8/../../../arm-none-eabi/lib/armv7e-m/fpu/libg.a(lib_a-strtok.o)
 .debug_ranges  0x0000000000005b70       0x18 /usr/lib/gcc/arm-none-eabi/4.8/../../../arm-none-eabi/lib/armv7e-m/fpu/libg.a(lib_a-strtok_r.o)
 .debug_ranges  0x0000000000005b88      0x210 /usr/lib/gcc/arm-none-eabi/4.8/../../../arm-none-eabi/lib/armv7e-m/fpu/libg.a(lib_a-svfscanf.o)
 .debug_ranges  0x0000000000005d98       0x18 /usr/lib/gcc/arm-none-eabi/4.8/../../../arm-none-eabi/lib/armv7e-m/fpu/libg.a(lib_a-vsnprintf.o)
 .debug_ranges  0x0000000000005db0       0x10 /usr/lib/gcc/arm-none-eabi/4.8/../../../arm-none-eabi/lib/armv7e-m/fpu/libg.a(lib_a-iswspace.o)
 .debug_ranges  0x0000000000005dc0       0x48 /usr/lib/gcc/arm-none-eabi/4.8/../../../arm-none-eabi/lib/armv7e-m/fpu/libg.a(lib_a-locale.o)
 .debug_ranges  0x0000000000005e08       0x18 /usr/lib/gcc/arm-none-eabi/4.8/../../../arm-none-eabi/lib/armv7e-m/fpu/libg.a(lib_a-mbrtowc.o)
 .debug_ranges  0x0000000000005e20       0x18 /usr/lib/gcc/arm-none-eabi/4.8/../../../arm-none-eabi/lib/armv7e-m/fpu/libg.a(lib_a-mbtowc_r.o)
 .debug_ranges  0x0000000000005e38       0x10 /usr/lib/gcc/arm-none-eabi/4.8/../../../arm-none-eabi/lib/armv7e-m/fpu/libg.a(lib_a-sccl.o)
 .debug_ranges  0x0000000000005e48       0x18 /usr/lib/gcc/arm-none-eabi/4.8/../../../arm-none-eabi/lib/armv7e-m/fpu/libg.a(lib_a-sprintf.o)
 .debug_ranges  0x0000000000005e60       0xa0 /usr/lib/gcc/arm-none-eabi/4.8/../../../arm-none-eabi/lib/armv7e-m/fpu/libg.a(lib_a-strtod.o)
 .debug_ranges  0x0000000000005f00       0x10 /usr/lib/gcc/arm-none-eabi/4.8/../../../arm-none-eabi/lib/armv7e-m/fpu/libg.a(lib_a-strtoll_r.o)
 .debug_ranges  0x0000000000005f10       0x18 /usr/lib/gcc/arm-none-eabi/4.8/../../../arm-none-eabi/lib/armv7e-m/fpu/libg.a(lib_a-strtol.o)
 .debug_ranges  0x0000000000005f28       0x10 /usr/lib/gcc/arm-none-eabi/4.8/../../../arm-none-eabi/lib/armv7e-m/fpu/libg.a(lib_a-strtoull_r.o)
 .debug_ranges  0x0000000000005f38       0x18 /usr/lib/gcc/arm-none-eabi/4.8/../../../arm-none-eabi/lib/armv7e-m/fpu/libg.a(lib_a-strtoul.o)
 .debug_ranges  0x0000000000005f50       0xf8 /usr/lib/gcc/arm-none-eabi/4.8/../../../arm-none-eabi/lib/armv7e-m/fpu/libg.a(lib_a-svfiscanf.o)
 .debug_ranges  0x0000000000006048      0x140 /usr/lib/gcc/arm-none-eabi/4.8/../../../arm-none-eabi/lib/armv7e-m/fpu/libg.a(lib_a-svfprintf.o)
 .debug_ranges  0x0000000000006188       0x38 /usr/lib/gcc/arm-none-eabi/4.8/../../../arm-none-eabi/lib/armv7e-m/fpu/libg.a(lib_a-ungetc.o)
 .debug_ranges  0x00000000000061c0       0x18 /usr/lib/gcc/arm-none-eabi/4.8/../../../arm-none-eabi/lib/armv7e-m/fpu/libg.a(lib_a-dtoa.o)
 .debug_ranges  0x00000000000061d8       0x18 /usr/lib/gcc/arm-none-eabi/4.8/../../../arm-none-eabi/lib/armv7e-m/fpu/libg.a(lib_a-freer.o)
 .debug_ranges  0x00000000000061f0       0x40 /usr/lib/gcc/arm-none-eabi/4.8/../../../arm-none-eabi/lib/armv7e-m/fpu/libg.a(lib_a-gdtoa-gethex.o)
 .debug_ranges  0x0000000000006230       0x10 /usr/lib/gcc/arm-none-eabi/4.8/../../../arm-none-eabi/lib/armv7e-m/fpu/libg.a(lib_a-gdtoa-hexnan.o)
 .debug_ranges  0x0000000000006240       0x48 /usr/lib/gcc/arm-none-eabi/4.8/../../../arm-none-eabi/lib/armv7e-m/fpu/libg.a(lib_a-mallocr.o)
 .debug_ranges  0x0000000000006288       0x10 /usr/lib/gcc/arm-none-eabi/4.8/../../../arm-none-eabi/lib/armv7e-m/fpu/libg.a(lib_a-memchr-stub.o)
 .debug_ranges  0x0000000000006298       0x18 /usr/lib/gcc/arm-none-eabi/4.8/../../../arm-none-eabi/lib/armv7e-m/fpu/libg.a(lib_a-mlock.o)
 .debug_ranges  0x00000000000062b0      0x108 /usr/lib/gcc/arm-none-eabi/4.8/../../../arm-none-eabi/lib/armv7e-m/fpu/libg.a(lib_a-mprec.o)
 .debug_ranges  0x00000000000063b8      0x188 /usr/lib/gcc/arm-none-eabi/4.8/../../../arm-none-eabi/lib/armv7e-m/fpu/libg.a(lib_a-reallocr.o)
 .debug_ranges  0x0000000000006540       0x10 /usr/lib/gcc/arm-none-eabi/4.8/../../../arm-none-eabi/lib/armv7e-m/fpu/libg.a(lib_a-strncmp.o)
 .debug_ranges  0x0000000000006550       0x60 /usr/lib/gcc/arm-none-eabi/4.8/../../../arm-none-eabi/lib/armv7e-m/fpu/libg.a(lib_a-svfiprintf.o)
 .debug_ranges  0x00000000000065b0       0x50 /usr/lib/gcc/arm-none-eabi/4.8/../../../arm-none-eabi/lib/armv7e-m/fpu/libg.a(lib_a-callocr.o)
 .debug_ranges  0x0000000000006600       0x10 /usr/lib/gcc/arm-none-eabi/4.8/../../../arm-none-eabi/lib/armv7e-m/fpu/libg.a(lib_a-memmove.o)
 .debug_ranges  0x0000000000006610      0x100 /usr/lib/gcc/arm-none-eabi/4.8/armv7e-m/fpu/libgcc.a(_divdi3.o)
 .debug_ranges  0x0000000000006710      0x108 /usr/lib/gcc/arm-none-eabi/4.8/armv7e-m/fpu/libgcc.a(_udivdi3.o)

.debug_line     0x0000000000000000    0x21415
 .debug_line    0x0000000000000000      0x119 build/obj/crt1.o
 .debug_line    0x0000000000000119       0xee build/obj/vectors.o
 .debug_line    0x0000000000000207      0x44d build/obj/chsys.o
 .debug_line    0x0000000000000654      0x1ff build/obj/chvt.o
 .debug_line    0x0000000000000853      0x476 build/obj/chschd.o
 .debug_line    0x0000000000000cc9      0x659 build/obj/chthreads.o
 .debug_line    0x0000000000001322      0x280 build/obj/chtm.o
 .debug_line    0x00000000000015a2      0x2df build/obj/chdynamic.o
 .debug_line    0x0000000000001881      0x25b build/obj/chregistry.o
 .debug_line    0x0000000000001adc      0x425 build/obj/chmtx.o
 .debug_line    0x0000000000001f01      0x4b8 build/obj/chevents.o
 .debug_line    0x00000000000023b9      0x493 build/obj/chqueues.o
 .debug_line    0x000000000000284c      0x253 build/obj/chmemcore.o
 .debug_line    0x0000000000002a9f      0x2bf build/obj/chheap.o
 .debug_line    0x0000000000002d5e      0x2e4 build/obj/chmempools.o
 .debug_line    0x0000000000003042      0x1f9 build/obj/chcore_v7m.o
 .debug_line    0x000000000000323b      0x2c5 build/obj/hal.o
 .debug_line    0x0000000000003500      0x246 build/obj/st.o
 .debug_line    0x0000000000003746      0x452 build/obj/can.o
 .debug_line    0x0000000000003b98      0x3f7 build/obj/i2c.o
 .debug_line    0x0000000000003f8f      0x399 build/obj/icu.o
 .debug_line    0x0000000000004328      0x56d build/obj/serial_usb.o
 .debug_line    0x0000000000004895      0x55c build/obj/spi.o
 .debug_line    0x0000000000004df1      0x49e build/obj/uart.o
 .debug_line    0x000000000000528f      0x64f build/obj/usb.o
 .debug_line    0x00000000000058de      0x1f6 build/obj/nvic.o
 .debug_line    0x0000000000005ad4      0x495 build/obj/stm32_dma.o
 .debug_line    0x0000000000005f69      0x29d build/obj/hal_lld.o
 .debug_line    0x0000000000006206      0x25d build/obj/st_lld.o
 .debug_line    0x0000000000006463      0x591 build/obj/can_lld.o
 .debug_line    0x00000000000069f4      0x291 build/obj/pal_lld.o
 .debug_line    0x0000000000006c85      0x644 build/obj/i2c_lld.o
 .debug_line    0x00000000000072c9      0x8cc build/obj/usb_lld.o
 .debug_line    0x0000000000007b95      0x4e6 build/obj/spi_lld.o
 .debug_line    0x000000000000807b      0x409 build/obj/icu_lld.o
 .debug_line    0x0000000000008484      0x617 build/obj/uart_lld.o
 .debug_line    0x0000000000008a9b      0x2b0 build/obj/syscalls.o
 .debug_line    0x0000000000008d4b      0x23f build/obj/board.o
 .debug_line    0x0000000000008f8a      0x3e2 build/obj/main.o
 .debug_line    0x000000000000936c      0x32c build/obj/comm_usb_serial.o
 .debug_line    0x0000000000009698      0x29e build/obj/irq_handlers.o
 .debug_line    0x0000000000009936      0x1e9 build/obj/buffer.o
 .debug_line    0x0000000000009b1f      0x34f build/obj/comm_usb.o
 .debug_line    0x0000000000009e6e       0x4d build/obj/crc.o
 .debug_line    0x0000000000009ebb      0x36a build/obj/digital_filter.o
 .debug_line    0x000000000000a225      0x260 build/obj/ledpwm.o
 .debug_line    0x000000000000a485     0x13cc build/obj/mcpwm.o
 .debug_line    0x000000000000b851      0x3a5 build/obj/servo_dec.o
 .debug_line    0x000000000000bbf6      0x532 build/obj/utils.o
 .debug_line    0x000000000000c128      0x129 build/obj/packet.o
 .debug_line    0x000000000000c251      0x6b2 build/obj/terminal.o
 .debug_line    0x000000000000c903      0x71e build/obj/conf_general.o
 .debug_line    0x000000000000d021      0x38a build/obj/eeprom.o
 .debug_line    0x000000000000d3ab      0xa99 build/obj/commands.o
 .debug_line    0x000000000000de44      0x302 build/obj/timeout.o
 .debug_line    0x000000000000e146      0x68e build/obj/comm_can.o
 .debug_line    0x000000000000e7d4      0x443 build/obj/led_external.o
 .debug_line    0x000000000000ec17      0x4a4 build/obj/encoder.o
 .debug_line    0x000000000000f0bb      0x456 build/obj/flash_helper.o
 .debug_line    0x000000000000f511      0xc47 build/obj/mc_interface.o
 .debug_line    0x0000000000010158     0x150e build/obj/mcpwm_foc.o
 .debug_line    0x0000000000011666      0x43d build/obj/hw_410.o
 .debug_line    0x0000000000011aa3      0x275 build/obj/app.o
 .debug_line    0x0000000000011d18      0x562 build/obj/app_ppm.o
 .debug_line    0x000000000001227a      0x680 build/obj/app_adc.o
 .debug_line    0x00000000000128fa      0x457 build/obj/app_uartcomm.o
 .debug_line    0x0000000000012d51      0x6ef build/obj/app_nunchuk.o
 .debug_line    0x0000000000013440      0x37a build/obj/spi_sw.o
 .debug_line    0x00000000000137ba      0x5f8 build/obj/rf.o
 .debug_line    0x0000000000013db2      0x3df build/obj/rfhelp.o
 .debug_line    0x0000000000014191      0x4ed build/obj/nrf_driver.o
 .debug_line    0x000000000001467e      0x50e build/obj/stm32f4xx_adc.o
 .debug_line    0x0000000000014b8c      0x3bb build/obj/stm32f4xx_dma.o
 .debug_line    0x0000000000014f47      0x21e build/obj/stm32f4xx_exti.o
 .debug_line    0x0000000000015165      0x4fc build/obj/stm32f4xx_flash.o
 .debug_line    0x0000000000015661      0x4d7 build/obj/stm32f4xx_rcc.o
 .debug_line    0x0000000000015b38      0x1dd build/obj/stm32f4xx_syscfg.o
 .debug_line    0x0000000000015d15      0xbd5 build/obj/stm32f4xx_tim.o
 .debug_line    0x00000000000168ea      0x1ea build/obj/stm32f4xx_wwdg.o
 .debug_line    0x0000000000016ad4      0x18b /usr/lib/gcc/arm-none-eabi/4.8/../../../arm-none-eabi/lib/armv7e-m/fpu/libm.a(lib_a-sf_cos.o)
 .debug_line    0x0000000000016c5f      0x1c4 /usr/lib/gcc/arm-none-eabi/4.8/../../../arm-none-eabi/lib/armv7e-m/fpu/libm.a(lib_a-sf_floor.o)
 .debug_line    0x0000000000016e23      0x17b /usr/lib/gcc/arm-none-eabi/4.8/../../../arm-none-eabi/lib/armv7e-m/fpu/libm.a(lib_a-sf_frexp.o)
 .debug_line    0x0000000000016f9e      0x147 /usr/lib/gcc/arm-none-eabi/4.8/../../../arm-none-eabi/lib/armv7e-m/fpu/libm.a(lib_a-sf_ldexp.o)
 .debug_line    0x00000000000170e5      0x16b /usr/lib/gcc/arm-none-eabi/4.8/../../../arm-none-eabi/lib/armv7e-m/fpu/libm.a(lib_a-sf_round.o)
 .debug_line    0x0000000000017250      0x168 /usr/lib/gcc/arm-none-eabi/4.8/../../../arm-none-eabi/lib/armv7e-m/fpu/libm.a(lib_a-sf_scalbn.o)
 .debug_line    0x00000000000173b8      0x18b /usr/lib/gcc/arm-none-eabi/4.8/../../../arm-none-eabi/lib/armv7e-m/fpu/libm.a(lib_a-sf_sin.o)
 .debug_line    0x0000000000017543      0x181 /usr/lib/gcc/arm-none-eabi/4.8/../../../arm-none-eabi/lib/armv7e-m/fpu/libm.a(lib_a-wf_asin.o)
 .debug_line    0x00000000000176c4       0xf7 /usr/lib/gcc/arm-none-eabi/4.8/../../../arm-none-eabi/lib/armv7e-m/fpu/libm.a(lib_a-wf_atan2.o)
 .debug_line    0x00000000000177bb      0x18b /usr/lib/gcc/arm-none-eabi/4.8/../../../arm-none-eabi/lib/armv7e-m/fpu/libm.a(lib_a-wf_exp.o)
 .debug_line    0x0000000000017946      0x18a /usr/lib/gcc/arm-none-eabi/4.8/../../../arm-none-eabi/lib/armv7e-m/fpu/libm.a(lib_a-wf_fmod.o)
 .debug_line    0x0000000000017ad0      0x195 /usr/lib/gcc/arm-none-eabi/4.8/../../../arm-none-eabi/lib/armv7e-m/fpu/libm.a(lib_a-wf_log.o)
 .debug_line    0x0000000000017c65      0x235 /usr/lib/gcc/arm-none-eabi/4.8/../../../arm-none-eabi/lib/armv7e-m/fpu/libm.a(lib_a-wf_pow.o)
 .debug_line    0x0000000000017e9a       0xc1 /usr/lib/gcc/arm-none-eabi/4.8/../../../arm-none-eabi/lib/armv7e-m/fpu/libm.a(lib_a-wf_sincos.o)
 .debug_line    0x0000000000017f5b      0x183 /usr/lib/gcc/arm-none-eabi/4.8/../../../arm-none-eabi/lib/armv7e-m/fpu/libm.a(lib_a-wf_sqrt.o)
 .debug_line    0x00000000000180de      0x17f /usr/lib/gcc/arm-none-eabi/4.8/../../../arm-none-eabi/lib/armv7e-m/fpu/libm.a(lib_a-w_sqrt.o)
 .debug_line    0x000000000001825d      0x1d2 /usr/lib/gcc/arm-none-eabi/4.8/../../../arm-none-eabi/lib/armv7e-m/fpu/libm.a(lib_a-ef_asin.o)
 .debug_line    0x000000000001842f      0x1de /usr/lib/gcc/arm-none-eabi/4.8/../../../arm-none-eabi/lib/armv7e-m/fpu/libm.a(lib_a-ef_atan2.o)
 .debug_line    0x000000000001860d      0x157 /usr/lib/gcc/arm-none-eabi/4.8/../../../arm-none-eabi/lib/armv7e-m/fpu/libm.a(lib_a-ef_exp.o)
 .debug_line    0x0000000000018764      0x17e /usr/lib/gcc/arm-none-eabi/4.8/../../../arm-none-eabi/lib/armv7e-m/fpu/libm.a(lib_a-ef_fmod.o)
 .debug_line    0x00000000000188e2      0x1b4 /usr/lib/gcc/arm-none-eabi/4.8/../../../arm-none-eabi/lib/armv7e-m/fpu/libm.a(lib_a-ef_log.o)
 .debug_line    0x0000000000018a96      0x2ec /usr/lib/gcc/arm-none-eabi/4.8/../../../arm-none-eabi/lib/armv7e-m/fpu/libm.a(lib_a-ef_pow.o)
 .debug_line    0x0000000000018d82      0x207 /usr/lib/gcc/arm-none-eabi/4.8/../../../arm-none-eabi/lib/armv7e-m/fpu/libm.a(lib_a-ef_rem_pio2.o)
 .debug_line    0x0000000000018f89      0x150 /usr/lib/gcc/arm-none-eabi/4.8/../../../arm-none-eabi/lib/armv7e-m/fpu/libm.a(lib_a-ef_sqrt.o)
 .debug_line    0x00000000000190d9      0x19e /usr/lib/gcc/arm-none-eabi/4.8/../../../arm-none-eabi/lib/armv7e-m/fpu/libm.a(lib_a-e_sqrt.o)
 .debug_line    0x0000000000019277      0x121 /usr/lib/gcc/arm-none-eabi/4.8/../../../arm-none-eabi/lib/armv7e-m/fpu/libm.a(lib_a-kf_cos.o)
 .debug_line    0x0000000000019398      0x32a /usr/lib/gcc/arm-none-eabi/4.8/../../../arm-none-eabi/lib/armv7e-m/fpu/libm.a(lib_a-kf_rem_pio2.o)
 .debug_line    0x00000000000196c2      0x116 /usr/lib/gcc/arm-none-eabi/4.8/../../../arm-none-eabi/lib/armv7e-m/fpu/libm.a(lib_a-kf_sin.o)
 .debug_line    0x00000000000197d8      0x1ad /usr/lib/gcc/arm-none-eabi/4.8/../../../arm-none-eabi/lib/armv7e-m/fpu/libm.a(lib_a-sf_atan.o)
 .debug_line    0x0000000000019985      0x13a /usr/lib/gcc/arm-none-eabi/4.8/../../../arm-none-eabi/lib/armv7e-m/fpu/libm.a(lib_a-sf_copysign.o)
 .debug_line    0x0000000000019abf      0x127 /usr/lib/gcc/arm-none-eabi/4.8/../../../arm-none-eabi/lib/armv7e-m/fpu/libm.a(lib_a-sf_fabs.o)
 .debug_line    0x0000000000019be6      0x12b /usr/lib/gcc/arm-none-eabi/4.8/../../../arm-none-eabi/lib/armv7e-m/fpu/libm.a(lib_a-sf_finite.o)
 .debug_line    0x0000000000019d11      0x135 /usr/lib/gcc/arm-none-eabi/4.8/../../../arm-none-eabi/lib/armv7e-m/fpu/libm.a(lib_a-sf_fpclassify.o)
 .debug_line    0x0000000000019e46       0xbb /usr/lib/gcc/arm-none-eabi/4.8/../../../arm-none-eabi/lib/armv7e-m/fpu/libm.a(lib_a-sf_nan.o)
 .debug_line    0x0000000000019f01      0x15b /usr/lib/gcc/arm-none-eabi/4.8/../../../arm-none-eabi/lib/armv7e-m/fpu/libm.a(lib_a-s_fpclassify.o)
 .debug_line    0x000000000001a05c       0xae /usr/lib/gcc/arm-none-eabi/4.8/../../../arm-none-eabi/lib/armv7e-m/fpu/libm.a(lib_a-s_lib_ver.o)
 .debug_line    0x000000000001a10a       0xbf /usr/lib/gcc/arm-none-eabi/4.8/../../../arm-none-eabi/lib/armv7e-m/fpu/libm.a(lib_a-s_matherr.o)
 .debug_line    0x000000000001a1c9       0xbc /usr/lib/gcc/arm-none-eabi/4.8/../../../arm-none-eabi/lib/armv7e-m/fpu/libm.a(lib_a-s_nan.o)
 .debug_line    0x000000000001a285      0x18b /usr/lib/gcc/arm-none-eabi/4.8/../../../arm-none-eabi/lib/armv7e-m/fpu/libm.a(lib_a-s_rint.o)
 .debug_line    0x000000000001a410      0x17f /usr/lib/gcc/arm-none-eabi/4.8/armv7e-m/fpu/libgcc.a(_arm_addsubdf3.o)
 .debug_line    0x000000000001a58f      0x1a3 /usr/lib/gcc/arm-none-eabi/4.8/armv7e-m/fpu/libgcc.a(_arm_muldivdf3.o)
 .debug_line    0x000000000001a732       0xc0 /usr/lib/gcc/arm-none-eabi/4.8/armv7e-m/fpu/libgcc.a(_arm_cmpdf2.o)
 .debug_line    0x000000000001a7f2       0x80 /usr/lib/gcc/arm-none-eabi/4.8/armv7e-m/fpu/libgcc.a(_arm_fixdfsi.o)
 .debug_line    0x000000000001a872       0x94 /usr/lib/gcc/arm-none-eabi/4.8/armv7e-m/fpu/libgcc.a(_arm_truncdfsf2.o)
 .debug_line    0x000000000001a906      0x113 /usr/lib/gcc/arm-none-eabi/4.8/../../../arm-none-eabi/lib/armv7e-m/fpu/libg.a(lib_a-errno.o)
 .debug_line    0x000000000001aa19       0xf8 /usr/lib/gcc/arm-none-eabi/4.8/../../../arm-none-eabi/lib/armv7e-m/fpu/libg.a(lib_a-impure.o)
 .debug_line    0x000000000001ab11      0x11a /usr/lib/gcc/arm-none-eabi/4.8/../../../arm-none-eabi/lib/armv7e-m/fpu/libg.a(lib_a-memcmp.o)
 .debug_line    0x000000000001ac2b       0xbb /usr/lib/gcc/arm-none-eabi/4.8/../../../arm-none-eabi/lib/armv7e-m/fpu/libg.a(lib_a-memcpy.o)
 .debug_line    0x000000000001ace6      0x12a /usr/lib/gcc/arm-none-eabi/4.8/../../../arm-none-eabi/lib/armv7e-m/fpu/libg.a(lib_a-memset.o)
 .debug_line    0x000000000001ae10      0x1f2 /usr/lib/gcc/arm-none-eabi/4.8/../../../arm-none-eabi/lib/armv7e-m/fpu/libg.a(lib_a-sscanf.o)
 .debug_line    0x000000000001b002      0x1dd /usr/lib/gcc/arm-none-eabi/4.8/../../../arm-none-eabi/lib/armv7e-m/fpu/libg.a(lib_a-stdio.o)
 .debug_line    0x000000000001b1df      0x13f /usr/lib/gcc/arm-none-eabi/4.8/../../../arm-none-eabi/lib/armv7e-m/fpu/libg.a(lib_a-strcmp.o)
 .debug_line    0x000000000001b31e       0xf9 /usr/lib/gcc/arm-none-eabi/4.8/../../../arm-none-eabi/lib/armv7e-m/fpu/libg.a(lib_a-strlen.o)
 .debug_line    0x000000000001b417      0x167 /usr/lib/gcc/arm-none-eabi/4.8/../../../arm-none-eabi/lib/armv7e-m/fpu/libg.a(lib_a-strtok.o)
 .debug_line    0x000000000001b57e      0x107 /usr/lib/gcc/arm-none-eabi/4.8/../../../arm-none-eabi/lib/armv7e-m/fpu/libg.a(lib_a-strtok_r.o)
 .debug_line    0x000000000001b685      0x727 /usr/lib/gcc/arm-none-eabi/4.8/../../../arm-none-eabi/lib/armv7e-m/fpu/libg.a(lib_a-svfscanf.o)
 .debug_line    0x000000000001bdac      0x1b3 /usr/lib/gcc/arm-none-eabi/4.8/../../../arm-none-eabi/lib/armv7e-m/fpu/libg.a(lib_a-vsnprintf.o)
 .debug_line    0x000000000001bf5f       0x78 /usr/lib/gcc/arm-none-eabi/4.8/../../../arm-none-eabi/lib/armv7e-m/fpu/libg.a(lib_a-ctype_.o)
 .debug_line    0x000000000001bfd7      0x108 /usr/lib/gcc/arm-none-eabi/4.8/../../../arm-none-eabi/lib/armv7e-m/fpu/libg.a(lib_a-iswspace.o)
 .debug_line    0x000000000001c0df      0x207 /usr/lib/gcc/arm-none-eabi/4.8/../../../arm-none-eabi/lib/armv7e-m/fpu/libg.a(lib_a-locale.o)
 .debug_line    0x000000000001c2e6      0x1a9 /usr/lib/gcc/arm-none-eabi/4.8/../../../arm-none-eabi/lib/armv7e-m/fpu/libg.a(lib_a-mbrtowc.o)
 .debug_line    0x000000000001c48f      0x1a4 /usr/lib/gcc/arm-none-eabi/4.8/../../../arm-none-eabi/lib/armv7e-m/fpu/libg.a(lib_a-mbtowc_r.o)
 .debug_line    0x000000000001c633      0x10c /usr/lib/gcc/arm-none-eabi/4.8/../../../arm-none-eabi/lib/armv7e-m/fpu/libg.a(lib_a-sccl.o)
 .debug_line    0x000000000001c73f      0x1ca /usr/lib/gcc/arm-none-eabi/4.8/../../../arm-none-eabi/lib/armv7e-m/fpu/libg.a(lib_a-sprintf.o)
 .debug_line    0x000000000001c909      0x64d /usr/lib/gcc/arm-none-eabi/4.8/../../../arm-none-eabi/lib/armv7e-m/fpu/libg.a(lib_a-strtod.o)
 .debug_line    0x000000000001cf56      0x207 /usr/lib/gcc/arm-none-eabi/4.8/../../../arm-none-eabi/lib/armv7e-m/fpu/libg.a(lib_a-strtoll_r.o)
 .debug_line    0x000000000001d15d      0x1ec /usr/lib/gcc/arm-none-eabi/4.8/../../../arm-none-eabi/lib/armv7e-m/fpu/libg.a(lib_a-strtol.o)
 .debug_line    0x000000000001d349      0x1db /usr/lib/gcc/arm-none-eabi/4.8/../../../arm-none-eabi/lib/armv7e-m/fpu/libg.a(lib_a-strtoull_r.o)
 .debug_line    0x000000000001d524      0x1ec /usr/lib/gcc/arm-none-eabi/4.8/../../../arm-none-eabi/lib/armv7e-m/fpu/libg.a(lib_a-strtoul.o)
 .debug_line    0x000000000001d710      0x677 /usr/lib/gcc/arm-none-eabi/4.8/../../../arm-none-eabi/lib/armv7e-m/fpu/libg.a(lib_a-svfiscanf.o)
 .debug_line    0x000000000001dd87      0x91f /usr/lib/gcc/arm-none-eabi/4.8/../../../arm-none-eabi/lib/armv7e-m/fpu/libg.a(lib_a-svfprintf.o)
 .debug_line    0x000000000001e6a6      0x22e /usr/lib/gcc/arm-none-eabi/4.8/../../../arm-none-eabi/lib/armv7e-m/fpu/libg.a(lib_a-ungetc.o)
 .debug_line    0x000000000001e8d4      0x67b /usr/lib/gcc/arm-none-eabi/4.8/../../../arm-none-eabi/lib/armv7e-m/fpu/libg.a(lib_a-dtoa.o)
 .debug_line    0x000000000001ef4f      0x275 /usr/lib/gcc/arm-none-eabi/4.8/../../../arm-none-eabi/lib/armv7e-m/fpu/libg.a(lib_a-freer.o)
 .debug_line    0x000000000001f1c4      0x3b3 /usr/lib/gcc/arm-none-eabi/4.8/../../../arm-none-eabi/lib/armv7e-m/fpu/libg.a(lib_a-gdtoa-gethex.o)
 .debug_line    0x000000000001f577      0x165 /usr/lib/gcc/arm-none-eabi/4.8/../../../arm-none-eabi/lib/armv7e-m/fpu/libg.a(lib_a-gdtoa-hexnan.o)
 .debug_line    0x000000000001f6dc      0x394 /usr/lib/gcc/arm-none-eabi/4.8/../../../arm-none-eabi/lib/armv7e-m/fpu/libg.a(lib_a-mallocr.o)
 .debug_line    0x000000000001fa70      0x137 /usr/lib/gcc/arm-none-eabi/4.8/../../../arm-none-eabi/lib/armv7e-m/fpu/libg.a(lib_a-memchr-stub.o)
 .debug_line    0x000000000001fba7      0x116 /usr/lib/gcc/arm-none-eabi/4.8/../../../arm-none-eabi/lib/armv7e-m/fpu/libg.a(lib_a-mlock.o)
 .debug_line    0x000000000001fcbd      0x6cc /usr/lib/gcc/arm-none-eabi/4.8/../../../arm-none-eabi/lib/armv7e-m/fpu/libg.a(lib_a-mprec.o)
 .debug_line    0x0000000000020389      0x297 /usr/lib/gcc/arm-none-eabi/4.8/../../../arm-none-eabi/lib/armv7e-m/fpu/libg.a(lib_a-reallocr.o)
 .debug_line    0x0000000000020620      0x154 /usr/lib/gcc/arm-none-eabi/4.8/../../../arm-none-eabi/lib/armv7e-m/fpu/libg.a(lib_a-strncmp.o)
 .debug_line    0x0000000000020774      0x6a2 /usr/lib/gcc/arm-none-eabi/4.8/../../../arm-none-eabi/lib/armv7e-m/fpu/libg.a(lib_a-svfiprintf.o)
 .debug_line    0x0000000000020e16      0x133 /usr/lib/gcc/arm-none-eabi/4.8/../../../arm-none-eabi/lib/armv7e-m/fpu/libg.a(lib_a-callocr.o)
 .debug_line    0x0000000000020f49      0x132 /usr/lib/gcc/arm-none-eabi/4.8/../../../arm-none-eabi/lib/armv7e-m/fpu/libg.a(lib_a-memmove.o)
 .debug_line    0x000000000002107b       0x7c /usr/lib/gcc/arm-none-eabi/4.8/armv7e-m/fpu/libgcc.a(_arm_fixunsdfsi.o)
 .debug_line    0x00000000000210f7       0x6b /usr/lib/gcc/arm-none-eabi/4.8/armv7e-m/fpu/libgcc.a(_aeabi_uldivmod.o)
 .debug_line    0x0000000000021162       0x6b /usr/lib/gcc/arm-none-eabi/4.8/armv7e-m/fpu/libgcc.a(bpabi.o)
 .debug_line    0x00000000000211cd       0x67 /usr/lib/gcc/arm-none-eabi/4.8/armv7e-m/fpu/libgcc.a(_dvmd_tls.o)
 .debug_line    0x0000000000021234       0xef /usr/lib/gcc/arm-none-eabi/4.8/armv7e-m/fpu/libgcc.a(_divdi3.o)
 .debug_line    0x0000000000021323       0xf2 /usr/lib/gcc/arm-none-eabi/4.8/armv7e-m/fpu/libgcc.a(_udivdi3.o)

.debug_str      0x0000000000000000     0xf30e
 .debug_str     0x0000000000000000      0x1ff build/obj/crt1.o
                                        0x23b (size before relaxing)
 .debug_str     0x00000000000001ff      0x16a build/obj/vectors.o
                                        0x348 (size before relaxing)
 .debug_str     0x0000000000000369      0xdaa build/obj/chsys.o
                                       0x1035 (size before relaxing)
 .debug_str     0x0000000000001113       0x3e build/obj/chvt.o
                                        0x5af (size before relaxing)
 .debug_str     0x0000000000001151      0x138 build/obj/chschd.o
                                        0x75c (size before relaxing)
 .debug_str     0x0000000000001289      0x21f build/obj/chthreads.o
                                        0x898 (size before relaxing)
 .debug_str     0x00000000000014a8       0xb7 build/obj/chtm.o
                                        0x6ed (size before relaxing)
 .debug_str     0x000000000000155f      0x122 build/obj/chdynamic.o
                                        0x713 (size before relaxing)
 .debug_str     0x0000000000001681       0x46 build/obj/chregistry.o
                                        0x6f9 (size before relaxing)
 .debug_str     0x00000000000016c7       0xae build/obj/chmtx.o
                                        0x6bd (size before relaxing)
 .debug_str     0x0000000000001775      0x1f5 build/obj/chevents.o
                                        0x7ea (size before relaxing)
 .debug_str     0x000000000000196a      0x177 build/obj/chqueues.o
                                        0x775 (size before relaxing)
 .debug_str     0x0000000000001ae1       0x78 build/obj/chmemcore.o
                                        0x62b (size before relaxing)
 .debug_str     0x0000000000001b59       0x52 build/obj/chheap.o
                                        0x663 (size before relaxing)
 .debug_str     0x0000000000001bab       0x69 build/obj/chmempools.o
                                        0x688 (size before relaxing)
 .debug_str     0x0000000000001c14       0xd0 build/obj/chcore_v7m.o
                                        0x6fa (size before relaxing)
 .debug_str     0x0000000000001ce4      0x129 build/obj/hal.o
                                        0x688 (size before relaxing)
 .debug_str     0x0000000000001e0d       0xe4 build/obj/st.o
                                        0x658 (size before relaxing)
 .debug_str     0x0000000000001ef1      0x354 build/obj/can.o
                                        0xa67 (size before relaxing)
 .debug_str     0x0000000000002245      0x2ff build/obj/i2c.o
                                        0x93f (size before relaxing)
 .debug_str     0x0000000000002544      0x245 build/obj/icu.o
                                        0x874 (size before relaxing)
 .debug_str     0x0000000000002789      0x814 build/obj/serial_usb.o
                                       0x10bf (size before relaxing)
 .debug_str     0x0000000000002f9d      0x256 build/obj/spi.o
                                        0x94f (size before relaxing)
 .debug_str     0x00000000000031f3      0x27e build/obj/uart.o
                                        0x8f0 (size before relaxing)
 .debug_str     0x0000000000003471      0x2c2 build/obj/usb.o
                                       0x1049 (size before relaxing)
 .debug_str     0x0000000000003733       0x81 build/obj/nvic.o
                                        0x6ad (size before relaxing)
 .debug_str     0x00000000000037b4      0x242 build/obj/stm32_dma.o
                                        0xd8e (size before relaxing)
 .debug_str     0x00000000000039f6       0xa0 build/obj/hal_lld.o
                                        0x71c (size before relaxing)
 .debug_str     0x0000000000003a96       0x70 build/obj/st_lld.o
                                        0x6c1 (size before relaxing)
 .debug_str     0x0000000000003b06      0x12a build/obj/can_lld.o
                                        0xbeb (size before relaxing)
 .debug_str     0x0000000000003c30       0x7f build/obj/pal_lld.o
                                        0x7e0 (size before relaxing)
 .debug_str     0x0000000000003caf      0x178 build/obj/i2c_lld.o
                                       0x1126 (size before relaxing)
 .debug_str     0x0000000000003e27      0x201 build/obj/usb_lld.o
                                       0x1300 (size before relaxing)
 .debug_str     0x0000000000004028       0x9f build/obj/spi_lld.o
                                        0xa79 (size before relaxing)
 .debug_str     0x00000000000040c7       0x6e build/obj/icu_lld.o
                                        0x96c (size before relaxing)
 .debug_str     0x0000000000004135       0xd6 build/obj/uart_lld.o
                                        0xa53 (size before relaxing)
 .debug_str     0x000000000000420b      0x47b build/obj/syscalls.o
                                        0xa86 (size before relaxing)
 .debug_str     0x0000000000004686        0x8 build/obj/board.o
                                        0x62a (size before relaxing)
 .debug_str     0x000000000000468e     0x145e build/obj/main.o
                                       0x1b98 (size before relaxing)
 .debug_str     0x0000000000005aec      0x161 build/obj/comm_usb_serial.o
                                       0x1024 (size before relaxing)
 .debug_str     0x0000000000005c4d      0x16f build/obj/irq_handlers.o
                                        0x729 (size before relaxing)
 .debug_str     0x0000000000005dbc      0x14c build/obj/buffer.o
                                        0x38c (size before relaxing)
 .debug_str     0x0000000000005f08      0x130 build/obj/comm_usb.o
                                        0xf72 (size before relaxing)
 .debug_str     0x0000000000006038       0x1c build/obj/crc.o
                                        0x174 (size before relaxing)
 .debug_str     0x0000000000006054       0xf4 build/obj/digital_filter.o
                                        0x31c (size before relaxing)
 .debug_str     0x0000000000006148       0x56 build/obj/ledpwm.o
                                        0x662 (size before relaxing)
 .debug_str     0x000000000000619e     0x1402 build/obj/mcpwm.o
                                       0x2be3 (size before relaxing)
 .debug_str     0x00000000000075a0      0x145 build/obj/servo_dec.o
                                        0x97a (size before relaxing)
 .debug_str     0x00000000000076e5      0x216 build/obj/utils.o
                                        0x8e4 (size before relaxing)
 .debug_str     0x00000000000078fb       0x9e build/obj/packet.o
                                        0x2d5 (size before relaxing)
 .debug_str     0x0000000000007999      0x46f build/obj/terminal.o
                                       0x16b0 (size before relaxing)
 .debug_str     0x0000000000007e08      0x2c0 build/obj/conf_general.o
                                       0x1d39 (size before relaxing)
 .debug_str     0x00000000000080c8      0x178 build/obj/eeprom.o
                                        0x7fb (size before relaxing)
 .debug_str     0x0000000000008240      0x9ed build/obj/commands.o
                                       0x27d9 (size before relaxing)
 .debug_str     0x0000000000008c2d       0x3f build/obj/timeout.o
                                        0x75d (size before relaxing)
 .debug_str     0x0000000000008c6c      0x43c build/obj/comm_can.o
                                       0x1980 (size before relaxing)
 .debug_str     0x00000000000090a8      0x19a build/obj/led_external.o
                                        0x8ca (size before relaxing)
 .debug_str     0x0000000000009242      0x286 build/obj/encoder.o
                                        0xf63 (size before relaxing)
 .debug_str     0x00000000000094c8       0x9e build/obj/flash_helper.o
                                       0x11e7 (size before relaxing)
 .debug_str     0x0000000000009566      0x99c build/obj/mc_interface.o
                                       0x2875 (size before relaxing)
 .debug_str     0x0000000000009f02      0x7ec build/obj/mcpwm_foc.o
                                       0x2d8b (size before relaxing)
 .debug_str     0x000000000000a6ee       0xa5 build/obj/hw_410.o
                                        0x966 (size before relaxing)
 .debug_str     0x000000000000a793      0x124 build/obj/app.o
                                        0xf97 (size before relaxing)
 .debug_str     0x000000000000a8b7      0x12c build/obj/app_ppm.o
                                       0x15c4 (size before relaxing)
 .debug_str     0x000000000000a9e3       0xe7 build/obj/app_adc.o
                                       0x173a (size before relaxing)
 .debug_str     0x000000000000aaca       0x75 build/obj/app_uartcomm.o
                                        0xa69 (size before relaxing)
 .debug_str     0x000000000000ab3f      0x15a build/obj/app_nunchuk.o
                                       0x17b3 (size before relaxing)
 .debug_str     0x000000000000ac99       0xd3 build/obj/spi_sw.o
                                        0x759 (size before relaxing)
 .debug_str     0x000000000000ad6c      0x2d1 build/obj/rf.o
                                        0xada (size before relaxing)
 .debug_str     0x000000000000b03d      0x135 build/obj/rfhelp.o
                                        0xbce (size before relaxing)
 .debug_str     0x000000000000b172      0x1ec build/obj/nrf_driver.o
                                       0x15c7 (size before relaxing)
 .debug_str     0x000000000000b35e      0x3b3 build/obj/stm32f4xx_adc.o
                                        0x8af (size before relaxing)
 .debug_str     0x000000000000b711      0x205 build/obj/stm32f4xx_dma.o
                                        0x5d6 (size before relaxing)
 .debug_str     0x000000000000b916       0xbd build/obj/stm32f4xx_exti.o
                                        0x3e0 (size before relaxing)
 .debug_str     0x000000000000b9d3      0x388 build/obj/stm32f4xx_flash.o
                                        0x733 (size before relaxing)
 .debug_str     0x000000000000bd5b      0x496 build/obj/stm32f4xx_rcc.o
                                        0x869 (size before relaxing)
 .debug_str     0x000000000000c1f1      0x156 build/obj/stm32f4xx_syscfg.o
                                        0x3b9 (size before relaxing)
 .debug_str     0x000000000000c347      0x784 build/obj/stm32f4xx_tim.o
                                        0xdf7 (size before relaxing)
 .debug_str     0x000000000000cacb       0x85 build/obj/stm32f4xx_wwdg.o
                                        0x332 (size before relaxing)
 .debug_str     0x000000000000cb50      0x1b5 /usr/lib/gcc/arm-none-eabi/4.8/../../../arm-none-eabi/lib/armv7e-m/fpu/libm.a(lib_a-sf_cos.o)
                                        0x285 (size before relaxing)
 .debug_str     0x000000000000cd05       0xb5 /usr/lib/gcc/arm-none-eabi/4.8/../../../arm-none-eabi/lib/armv7e-m/fpu/libm.a(lib_a-sf_floor.o)
                                        0x26f (size before relaxing)
 .debug_str     0x000000000000cdba       0x41 /usr/lib/gcc/arm-none-eabi/4.8/../../../arm-none-eabi/lib/armv7e-m/fpu/libm.a(lib_a-sf_frexp.o)
                                        0x269 (size before relaxing)
 .debug_str     0x000000000000cdfb       0x49 /usr/lib/gcc/arm-none-eabi/4.8/../../../arm-none-eabi/lib/armv7e-m/fpu/libm.a(lib_a-sf_ldexp.o)
                                        0x23c (size before relaxing)
 .debug_str     0x000000000000ce44       0x5b /usr/lib/gcc/arm-none-eabi/4.8/../../../arm-none-eabi/lib/armv7e-m/fpu/libm.a(lib_a-sf_round.o)
                                        0x285 (size before relaxing)
 .debug_str     0x000000000000ce9f       0xba /usr/lib/gcc/arm-none-eabi/4.8/../../../arm-none-eabi/lib/armv7e-m/fpu/libm.a(lib_a-sf_scalbn.o)
                                        0x285 (size before relaxing)
 .debug_str     0x000000000000cf59       0x2f /usr/lib/gcc/arm-none-eabi/4.8/../../../arm-none-eabi/lib/armv7e-m/fpu/libm.a(lib_a-sf_sin.o)
                                        0x285 (size before relaxing)
 .debug_str     0x000000000000cf88       0xc1 /usr/lib/gcc/arm-none-eabi/4.8/../../../arm-none-eabi/lib/armv7e-m/fpu/libm.a(lib_a-wf_asin.o)
                                        0x2d0 (size before relaxing)
 .debug_str     0x000000000000d049       0x42 /usr/lib/gcc/arm-none-eabi/4.8/../../../arm-none-eabi/lib/armv7e-m/fpu/libm.a(lib_a-wf_atan2.o)
                                        0x22f (size before relaxing)
 .debug_str     0x000000000000d08b       0x56 /usr/lib/gcc/arm-none-eabi/4.8/../../../arm-none-eabi/lib/armv7e-m/fpu/libm.a(lib_a-wf_exp.o)
                                        0x2d9 (size before relaxing)
 .debug_str     0x000000000000d0e1       0x40 /usr/lib/gcc/arm-none-eabi/4.8/../../../arm-none-eabi/lib/armv7e-m/fpu/libm.a(lib_a-wf_fmod.o)
                                        0x2ca (size before relaxing)
 .debug_str     0x000000000000d121       0x3e /usr/lib/gcc/arm-none-eabi/4.8/../../../arm-none-eabi/lib/armv7e-m/fpu/libm.a(lib_a-wf_log.o)
                                        0x2c7 (size before relaxing)
 .debug_str     0x000000000000d15f       0x3e /usr/lib/gcc/arm-none-eabi/4.8/../../../arm-none-eabi/lib/armv7e-m/fpu/libm.a(lib_a-wf_pow.o)
                                        0x2d4 (size before relaxing)
 .debug_str     0x000000000000d19d       0x3c /usr/lib/gcc/arm-none-eabi/4.8/../../../arm-none-eabi/lib/armv7e-m/fpu/libm.a(lib_a-wf_sincos.o)
                                        0x234 (size before relaxing)
 .debug_str     0x000000000000d1d9       0x40 /usr/lib/gcc/arm-none-eabi/4.8/../../../arm-none-eabi/lib/armv7e-m/fpu/libm.a(lib_a-wf_sqrt.o)
                                        0x2ca (size before relaxing)
 .debug_str     0x000000000000d219       0x4c /usr/lib/gcc/arm-none-eabi/4.8/../../../arm-none-eabi/lib/armv7e-m/fpu/libm.a(lib_a-w_sqrt.o)
                                        0x2c7 (size before relaxing)
 .debug_str     0x000000000000d265       0x48 /usr/lib/gcc/arm-none-eabi/4.8/../../../arm-none-eabi/lib/armv7e-m/fpu/libm.a(lib_a-ef_asin.o)
                                        0x299 (size before relaxing)
 .debug_str     0x000000000000d2ad       0x4b /usr/lib/gcc/arm-none-eabi/4.8/../../../arm-none-eabi/lib/armv7e-m/fpu/libm.a(lib_a-ef_atan2.o)
                                        0x292 (size before relaxing)
 .debug_str     0x000000000000d2f8       0x4f /usr/lib/gcc/arm-none-eabi/4.8/../../../arm-none-eabi/lib/armv7e-m/fpu/libm.a(lib_a-ef_exp.o)
                                        0x289 (size before relaxing)
 .debug_str     0x000000000000d347       0x30 /usr/lib/gcc/arm-none-eabi/4.8/../../../arm-none-eabi/lib/armv7e-m/fpu/libm.a(lib_a-ef_fmod.o)
                                        0x26b (size before relaxing)
 .debug_str     0x000000000000d377       0x42 /usr/lib/gcc/arm-none-eabi/4.8/../../../arm-none-eabi/lib/armv7e-m/fpu/libm.a(lib_a-ef_log.o)
                                        0x282 (size before relaxing)
 .debug_str     0x000000000000d3b9       0x77 /usr/lib/gcc/arm-none-eabi/4.8/../../../arm-none-eabi/lib/armv7e-m/fpu/libm.a(lib_a-ef_pow.o)
                                        0x2d9 (size before relaxing)
 .debug_str     0x000000000000d430       0x96 /usr/lib/gcc/arm-none-eabi/4.8/../../../arm-none-eabi/lib/armv7e-m/fpu/libm.a(lib_a-ef_rem_pio2.o)
                                        0x2e5 (size before relaxing)
 .debug_str     0x000000000000d4c6       0x30 /usr/lib/gcc/arm-none-eabi/4.8/../../../arm-none-eabi/lib/armv7e-m/fpu/libm.a(lib_a-ef_sqrt.o)
                                        0x26b (size before relaxing)
 .debug_str     0x000000000000d4f6       0x56 /usr/lib/gcc/arm-none-eabi/4.8/../../../arm-none-eabi/lib/armv7e-m/fpu/libm.a(lib_a-e_sqrt.o)
                                        0x270 (size before relaxing)
 .debug_str     0x000000000000d54c       0x2f /usr/lib/gcc/arm-none-eabi/4.8/../../../arm-none-eabi/lib/armv7e-m/fpu/libm.a(lib_a-kf_cos.o)
                                        0x263 (size before relaxing)
 .debug_str     0x000000000000d57b       0x5d /usr/lib/gcc/arm-none-eabi/4.8/../../../arm-none-eabi/lib/armv7e-m/fpu/libm.a(lib_a-kf_rem_pio2.o)
                                        0x27e (size before relaxing)
 .debug_str     0x000000000000d5d8       0x2f /usr/lib/gcc/arm-none-eabi/4.8/../../../arm-none-eabi/lib/armv7e-m/fpu/libm.a(lib_a-kf_sin.o)
                                        0x263 (size before relaxing)
 .debug_str     0x000000000000d607       0x3e /usr/lib/gcc/arm-none-eabi/4.8/../../../arm-none-eabi/lib/armv7e-m/fpu/libm.a(lib_a-sf_atan.o)
                                        0x270 (size before relaxing)
 .debug_str     0x000000000000d645       0x36 /usr/lib/gcc/arm-none-eabi/4.8/../../../arm-none-eabi/lib/armv7e-m/fpu/libm.a(lib_a-sf_copysign.o)
                                        0x259 (size before relaxing)
 .debug_str     0x000000000000d67b       0x30 /usr/lib/gcc/arm-none-eabi/4.8/../../../arm-none-eabi/lib/armv7e-m/fpu/libm.a(lib_a-sf_fabs.o)
                                        0x227 (size before relaxing)
 .debug_str     0x000000000000d6ab       0x34 /usr/lib/gcc/arm-none-eabi/4.8/../../../arm-none-eabi/lib/armv7e-m/fpu/libm.a(lib_a-sf_finite.o)
                                        0x22e (size before relaxing)
 .debug_str     0x000000000000d6df       0x38 /usr/lib/gcc/arm-none-eabi/4.8/../../../arm-none-eabi/lib/armv7e-m/fpu/libm.a(lib_a-sf_fpclassify.o)
                                        0x239 (size before relaxing)
 .debug_str     0x000000000000d717       0x31 /usr/lib/gcc/arm-none-eabi/4.8/../../../arm-none-eabi/lib/armv7e-m/fpu/libm.a(lib_a-sf_nan.o)
                                        0x225 (size before relaxing)
 .debug_str     0x000000000000d748       0x37 /usr/lib/gcc/arm-none-eabi/4.8/../../../arm-none-eabi/lib/armv7e-m/fpu/libm.a(lib_a-s_fpclassify.o)
                                        0x260 (size before relaxing)
 .debug_str     0x000000000000d77f       0x34 /usr/lib/gcc/arm-none-eabi/4.8/../../../arm-none-eabi/lib/armv7e-m/fpu/libm.a(lib_a-s_lib_ver.o)
                                        0x277 (size before relaxing)
 .debug_str     0x000000000000d7b3       0x34 /usr/lib/gcc/arm-none-eabi/4.8/../../../arm-none-eabi/lib/armv7e-m/fpu/libm.a(lib_a-s_matherr.o)
                                        0x249 (size before relaxing)
 .debug_str     0x000000000000d7e7       0x30 /usr/lib/gcc/arm-none-eabi/4.8/../../../arm-none-eabi/lib/armv7e-m/fpu/libm.a(lib_a-s_nan.o)
                                        0x21f (size before relaxing)
 .debug_str     0x000000000000d817       0x44 /usr/lib/gcc/arm-none-eabi/4.8/../../../arm-none-eabi/lib/armv7e-m/fpu/libm.a(lib_a-s_rint.o)
                                        0x278 (size before relaxing)
 .debug_str     0x000000000000d85b       0x9e /usr/lib/gcc/arm-none-eabi/4.8/../../../arm-none-eabi/lib/armv7e-m/fpu/libg.a(lib_a-errno.o)
                                        0x5c7 (size before relaxing)
 .debug_str     0x000000000000d8f9       0xbe /usr/lib/gcc/arm-none-eabi/4.8/../../../arm-none-eabi/lib/armv7e-m/fpu/libg.a(lib_a-impure.o)
                                        0x5df (size before relaxing)
 .debug_str     0x000000000000d9b7       0xa1 /usr/lib/gcc/arm-none-eabi/4.8/../../../arm-none-eabi/lib/armv7e-m/fpu/libg.a(lib_a-memcmp.o)
                                        0x20e (size before relaxing)
 .debug_str     0x000000000000da58       0x3e /usr/lib/gcc/arm-none-eabi/4.8/../../../arm-none-eabi/lib/armv7e-m/fpu/libg.a(lib_a-memset.o)
                                        0x222 (size before relaxing)
 .debug_str     0x000000000000da96       0xb7 /usr/lib/gcc/arm-none-eabi/4.8/../../../arm-none-eabi/lib/armv7e-m/fpu/libg.a(lib_a-sscanf.o)
                                        0x618 (size before relaxing)
 .debug_str     0x000000000000db4d       0x6c /usr/lib/gcc/arm-none-eabi/4.8/../../../arm-none-eabi/lib/armv7e-m/fpu/libg.a(lib_a-stdio.o)
                                        0x63a (size before relaxing)
 .debug_str     0x000000000000dbb9       0xae /usr/lib/gcc/arm-none-eabi/4.8/../../../arm-none-eabi/lib/armv7e-m/fpu/libg.a(lib_a-strlen.o)
                                        0x21b (size before relaxing)
 .debug_str     0x000000000000dc67       0x3c /usr/lib/gcc/arm-none-eabi/4.8/../../../arm-none-eabi/lib/armv7e-m/fpu/libg.a(lib_a-strtok.o)
                                        0x5e0 (size before relaxing)
 .debug_str     0x000000000000dca3       0x57 /usr/lib/gcc/arm-none-eabi/4.8/../../../arm-none-eabi/lib/armv7e-m/fpu/libg.a(lib_a-strtok_r.o)
                                        0x240 (size before relaxing)
 .debug_str     0x000000000000dcfa      0x2b5 /usr/lib/gcc/arm-none-eabi/4.8/../../../arm-none-eabi/lib/armv7e-m/fpu/libg.a(lib_a-svfscanf.o)
                                        0x966 (size before relaxing)
 .debug_str     0x000000000000dfaf       0x4d /usr/lib/gcc/arm-none-eabi/4.8/../../../arm-none-eabi/lib/armv7e-m/fpu/libg.a(lib_a-vsnprintf.o)
                                        0x61e (size before relaxing)
 .debug_str     0x000000000000dffc       0xa7 /usr/lib/gcc/arm-none-eabi/4.8/../../../arm-none-eabi/lib/armv7e-m/fpu/libg.a(lib_a-ctype_.o)
                                        0x190 (size before relaxing)
 .debug_str     0x000000000000e0a3       0x32 /usr/lib/gcc/arm-none-eabi/4.8/../../../arm-none-eabi/lib/armv7e-m/fpu/libg.a(lib_a-iswspace.o)
                                        0x21e (size before relaxing)
 .debug_str     0x000000000000e0d5      0x16d /usr/lib/gcc/arm-none-eabi/4.8/../../../arm-none-eabi/lib/armv7e-m/fpu/libg.a(lib_a-locale.o)
                                        0x83c (size before relaxing)
 .debug_str     0x000000000000e242       0xb3 /usr/lib/gcc/arm-none-eabi/4.8/../../../arm-none-eabi/lib/armv7e-m/fpu/libg.a(lib_a-mbrtowc.o)
                                        0x616 (size before relaxing)
 .debug_str     0x000000000000e2f5      0x12d /usr/lib/gcc/arm-none-eabi/4.8/../../../arm-none-eabi/lib/armv7e-m/fpu/libg.a(lib_a-mbtowc_r.o)
                                        0x626 (size before relaxing)
 .debug_str     0x000000000000e422       0x37 /usr/lib/gcc/arm-none-eabi/4.8/../../../arm-none-eabi/lib/armv7e-m/fpu/libg.a(lib_a-sccl.o)
                                        0x213 (size before relaxing)
 .debug_str     0x000000000000e459       0x3c /usr/lib/gcc/arm-none-eabi/4.8/../../../arm-none-eabi/lib/armv7e-m/fpu/libg.a(lib_a-sprintf.o)
                                        0x60c (size before relaxing)
 .debug_str     0x000000000000e495      0x248 /usr/lib/gcc/arm-none-eabi/4.8/../../../arm-none-eabi/lib/armv7e-m/fpu/libg.a(lib_a-strtod.o)
                                        0x9ed (size before relaxing)
 .debug_str     0x000000000000e6dd       0x49 /usr/lib/gcc/arm-none-eabi/4.8/../../../arm-none-eabi/lib/armv7e-m/fpu/libg.a(lib_a-strtoll_r.o)
                                        0x5f6 (size before relaxing)
 .debug_str     0x000000000000e726       0x38 /usr/lib/gcc/arm-none-eabi/4.8/../../../arm-none-eabi/lib/armv7e-m/fpu/libg.a(lib_a-strtol.o)
                                        0x605 (size before relaxing)
 .debug_str     0x000000000000e75e       0x35 /usr/lib/gcc/arm-none-eabi/4.8/../../../arm-none-eabi/lib/armv7e-m/fpu/libg.a(lib_a-strtoull_r.o)
                                        0x5f8 (size before relaxing)
 .debug_str     0x000000000000e793       0x45 /usr/lib/gcc/arm-none-eabi/4.8/../../../arm-none-eabi/lib/armv7e-m/fpu/libg.a(lib_a-strtoul.o)
                                        0x608 (size before relaxing)
 .debug_str     0x000000000000e7d8       0x27 /usr/lib/gcc/arm-none-eabi/4.8/../../../arm-none-eabi/lib/armv7e-m/fpu/libg.a(lib_a-svfiscanf.o)
                                        0x785 (size before relaxing)
 .debug_str     0x000000000000e7ff      0x16e /usr/lib/gcc/arm-none-eabi/4.8/../../../arm-none-eabi/lib/armv7e-m/fpu/libg.a(lib_a-svfprintf.o)
                                        0x969 (size before relaxing)
 .debug_str     0x000000000000e96d       0x6e /usr/lib/gcc/arm-none-eabi/4.8/../../../arm-none-eabi/lib/armv7e-m/fpu/libg.a(lib_a-ungetc.o)
                                        0x62a (size before relaxing)
 .debug_str     0x000000000000e9db       0xd5 /usr/lib/gcc/arm-none-eabi/4.8/../../../arm-none-eabi/lib/armv7e-m/fpu/libg.a(lib_a-dtoa.o)
                                        0x731 (size before relaxing)
 .debug_str     0x000000000000eab0      0x171 /usr/lib/gcc/arm-none-eabi/4.8/../../../arm-none-eabi/lib/armv7e-m/fpu/libg.a(lib_a-freer.o)
                                        0x738 (size before relaxing)
 .debug_str     0x000000000000ec21       0xcf /usr/lib/gcc/arm-none-eabi/4.8/../../../arm-none-eabi/lib/armv7e-m/fpu/libg.a(lib_a-gdtoa-gethex.o)
                                        0x955 (size before relaxing)
 .debug_str     0x000000000000ecf0       0x3f /usr/lib/gcc/arm-none-eabi/4.8/../../../arm-none-eabi/lib/armv7e-m/fpu/libg.a(lib_a-gdtoa-hexnan.o)
                                        0x33d (size before relaxing)
 .debug_str     0x000000000000ed2f       0xdf /usr/lib/gcc/arm-none-eabi/4.8/../../../arm-none-eabi/lib/armv7e-m/fpu/libg.a(lib_a-mallocr.o)
                                        0x7ee (size before relaxing)
 .debug_str     0x000000000000ee0e       0x4c /usr/lib/gcc/arm-none-eabi/4.8/../../../arm-none-eabi/lib/armv7e-m/fpu/libg.a(lib_a-memchr-stub.o)
                                        0x23a (size before relaxing)
 .debug_str     0x000000000000ee5a       0x45 /usr/lib/gcc/arm-none-eabi/4.8/../../../arm-none-eabi/lib/armv7e-m/fpu/libg.a(lib_a-mlock.o)
                                        0x5e8 (size before relaxing)
 .debug_str     0x000000000000ee9f       0x73 /usr/lib/gcc/arm-none-eabi/4.8/../../../arm-none-eabi/lib/armv7e-m/fpu/libg.a(lib_a-mprec.o)
                                        0x6eb (size before relaxing)
 .debug_str     0x000000000000ef12       0x59 /usr/lib/gcc/arm-none-eabi/4.8/../../../arm-none-eabi/lib/armv7e-m/fpu/libg.a(lib_a-reallocr.o)
                                        0x6c0 (size before relaxing)
 .debug_str     0x000000000000ef6b       0x32 /usr/lib/gcc/arm-none-eabi/4.8/../../../arm-none-eabi/lib/armv7e-m/fpu/libg.a(lib_a-strncmp.o)
                                        0x210 (size before relaxing)
 .debug_str     0x000000000000ef9d       0x15 /usr/lib/gcc/arm-none-eabi/4.8/../../../arm-none-eabi/lib/armv7e-m/fpu/libg.a(lib_a-svfiprintf.o)
                                        0x76c (size before relaxing)
 .debug_str     0x000000000000efb2        0xf /usr/lib/gcc/arm-none-eabi/4.8/../../../arm-none-eabi/lib/armv7e-m/fpu/libg.a(lib_a-callocr.o)
                                        0x618 (size before relaxing)
 .debug_str     0x000000000000efc1       0x53 /usr/lib/gcc/arm-none-eabi/4.8/../../../arm-none-eabi/lib/armv7e-m/fpu/libg.a(lib_a-memmove.o)
                                        0x241 (size before relaxing)
 .debug_str     0x000000000000f014      0x19f /usr/lib/gcc/arm-none-eabi/4.8/armv7e-m/fpu/libgcc.a(bpabi.o)
                                        0x1ce (size before relaxing)
 .debug_str     0x000000000000f1b3      0x15b /usr/lib/gcc/arm-none-eabi/4.8/armv7e-m/fpu/libgcc.a(_divdi3.o)
                                        0x27c (size before relaxing)
 .debug_str     0x000000000000f30e      0x27d /usr/lib/gcc/arm-none-eabi/4.8/armv7e-m/fpu/libgcc.a(_udivdi3.o)

.debug_frame    0x0000000000000000     0x7c80
 .debug_frame   0x0000000000000000       0x50 build/obj/crt1.o
 .debug_frame   0x0000000000000050       0x20 build/obj/vectors.o
 .debug_frame   0x0000000000000070       0xe4 build/obj/chsys.o
 .debug_frame   0x0000000000000154       0x58 build/obj/chvt.o
 .debug_frame   0x00000000000001ac      0x118 build/obj/chschd.o
 .debug_frame   0x00000000000002c4      0x258 build/obj/chthreads.o
 .debug_frame   0x000000000000051c       0x8c build/obj/chtm.o
 .debug_frame   0x00000000000005a8       0x80 build/obj/chdynamic.o
 .debug_frame   0x0000000000000628       0x3c build/obj/chregistry.o
 .debug_frame   0x0000000000000664       0xd8 build/obj/chmtx.o
 .debug_frame   0x000000000000073c      0x1cc build/obj/chevents.o
 .debug_frame   0x0000000000000908      0x158 build/obj/chqueues.o
 .debug_frame   0x0000000000000a60       0x50 build/obj/chmemcore.o
 .debug_frame   0x0000000000000ab0       0xa8 build/obj/chheap.o
 .debug_frame   0x0000000000000b58       0x94 build/obj/chmempools.o
 .debug_frame   0x0000000000000bec       0x3c build/obj/chcore_v7m.o
 .debug_frame   0x0000000000000c28       0x2c build/obj/hal.o
 .debug_frame   0x0000000000000c54       0x60 build/obj/st.o
 .debug_frame   0x0000000000000cb4      0x10c build/obj/can.o
 .debug_frame   0x0000000000000dc0       0xe8 build/obj/i2c.o
 .debug_frame   0x0000000000000ea8       0xf4 build/obj/icu.o
 .debug_frame   0x0000000000000f9c      0x1b4 build/obj/serial_usb.o
 .debug_frame   0x0000000000001150      0x1a8 build/obj/spi.o
 .debug_frame   0x00000000000012f8      0x148 build/obj/uart.o
 .debug_frame   0x0000000000001440      0x20c build/obj/usb.o
 .debug_frame   0x000000000000164c       0x60 build/obj/nvic.o
 .debug_frame   0x00000000000016ac      0x230 build/obj/stm32_dma.o
 .debug_frame   0x00000000000018dc       0x38 build/obj/hal_lld.o
 .debug_frame   0x0000000000001914       0x3c build/obj/st_lld.o
 .debug_frame   0x0000000000001950      0x180 build/obj/can_lld.o
 .debug_frame   0x0000000000001ad0       0x68 build/obj/pal_lld.o
 .debug_frame   0x0000000000001b38      0x14c build/obj/i2c_lld.o
 .debug_frame   0x0000000000001c84      0x278 build/obj/usb_lld.o
 .debug_frame   0x0000000000001efc      0x138 build/obj/spi_lld.o
 .debug_frame   0x0000000000002034      0x108 build/obj/icu_lld.o
 .debug_frame   0x000000000000213c      0x190 build/obj/uart_lld.o
 .debug_frame   0x00000000000022cc       0x98 build/obj/syscalls.o
 .debug_frame   0x0000000000002364       0x30 build/obj/board.o
 .debug_frame   0x0000000000002394       0x74 build/obj/main.o
 .debug_frame   0x0000000000002408       0x70 build/obj/comm_usb_serial.o
 .debug_frame   0x0000000000002478       0x80 build/obj/irq_handlers.o
 .debug_frame   0x00000000000024f8      0x174 build/obj/buffer.o
 .debug_frame   0x000000000000266c       0xe0 build/obj/comm_usb.o
 .debug_frame   0x000000000000274c       0x2c build/obj/crc.o
 .debug_frame   0x0000000000002778      0x160 build/obj/digital_filter.o
 .debug_frame   0x00000000000028d8       0x78 build/obj/ledpwm.o
 .debug_frame   0x0000000000002950      0x600 build/obj/mcpwm.o
 .debug_frame   0x0000000000002f50       0xd0 build/obj/servo_dec.o
 .debug_frame   0x0000000000003020      0x228 build/obj/utils.o
 .debug_frame   0x0000000000003248       0x88 build/obj/packet.o
 .debug_frame   0x00000000000032d0       0xa8 build/obj/terminal.o
 .debug_frame   0x0000000000003378      0x1ac build/obj/conf_general.o
 .debug_frame   0x0000000000003524       0xd4 build/obj/eeprom.o
 .debug_frame   0x00000000000035f8      0x1cc build/obj/commands.o
 .debug_frame   0x00000000000037c4       0xbc build/obj/timeout.o
 .debug_frame   0x0000000000003880      0x25c build/obj/comm_can.o
 .debug_frame   0x0000000000003adc       0xcc build/obj/led_external.o
 .debug_frame   0x0000000000003ba8      0x110 build/obj/encoder.o
 .debug_frame   0x0000000000003cb8       0x8c build/obj/flash_helper.o
 .debug_frame   0x0000000000003d44      0x56c build/obj/mc_interface.o
 .debug_frame   0x00000000000042b0      0x5fc build/obj/mcpwm_foc.o
 .debug_frame   0x00000000000048ac       0xdc build/obj/hw_410.o
 .debug_frame   0x0000000000004988       0x40 build/obj/app.o
 .debug_frame   0x00000000000049c8       0xf8 build/obj/app_ppm.o
 .debug_frame   0x0000000000004ac0       0xec build/obj/app_adc.o
 .debug_frame   0x0000000000004bac      0x134 build/obj/app_uartcomm.o
 .debug_frame   0x0000000000004ce0      0x138 build/obj/app_nunchuk.o
 .debug_frame   0x0000000000004e18       0xe8 build/obj/spi_sw.o
 .debug_frame   0x0000000000004f00      0x470 build/obj/rf.o
 .debug_frame   0x0000000000005370      0x1dc build/obj/rfhelp.o
 .debug_frame   0x000000000000554c      0x11c build/obj/nrf_driver.o
 .debug_frame   0x0000000000005668      0x2bc build/obj/stm32f4xx_adc.o
 .debug_frame   0x0000000000005924      0x184 build/obj/stm32f4xx_dma.o
 .debug_frame   0x0000000000005aa8       0x9c build/obj/stm32f4xx_exti.o
 .debug_frame   0x0000000000005b44      0x380 build/obj/stm32f4xx_flash.o
 .debug_frame   0x0000000000005ec4      0x2ac build/obj/stm32f4xx_rcc.o
 .debug_frame   0x0000000000006170       0x94 build/obj/stm32f4xx_syscfg.o
 .debug_frame   0x0000000000006204      0x684 build/obj/stm32f4xx_tim.o
 .debug_frame   0x0000000000006888       0xa0 build/obj/stm32f4xx_wwdg.o
 .debug_frame   0x0000000000006928       0x28 /usr/lib/gcc/arm-none-eabi/4.8/../../../arm-none-eabi/lib/armv7e-m/fpu/libm.a(lib_a-sf_cos.o)
 .debug_frame   0x0000000000006950       0x28 /usr/lib/gcc/arm-none-eabi/4.8/../../../arm-none-eabi/lib/armv7e-m/fpu/libm.a(lib_a-sf_floor.o)
 .debug_frame   0x0000000000006978       0x28 /usr/lib/gcc/arm-none-eabi/4.8/../../../arm-none-eabi/lib/armv7e-m/fpu/libm.a(lib_a-sf_frexp.o)
 .debug_frame   0x00000000000069a0       0x30 /usr/lib/gcc/arm-none-eabi/4.8/../../../arm-none-eabi/lib/armv7e-m/fpu/libm.a(lib_a-sf_ldexp.o)
 .debug_frame   0x00000000000069d0       0x20 /usr/lib/gcc/arm-none-eabi/4.8/../../../arm-none-eabi/lib/armv7e-m/fpu/libm.a(lib_a-sf_round.o)
 .debug_frame   0x00000000000069f0       0x30 /usr/lib/gcc/arm-none-eabi/4.8/../../../arm-none-eabi/lib/armv7e-m/fpu/libm.a(lib_a-sf_scalbn.o)
 .debug_frame   0x0000000000006a20       0x28 /usr/lib/gcc/arm-none-eabi/4.8/../../../arm-none-eabi/lib/armv7e-m/fpu/libm.a(lib_a-sf_sin.o)
 .debug_frame   0x0000000000006a48       0x30 /usr/lib/gcc/arm-none-eabi/4.8/../../../arm-none-eabi/lib/armv7e-m/fpu/libm.a(lib_a-wf_asin.o)
 .debug_frame   0x0000000000006a78       0x20 /usr/lib/gcc/arm-none-eabi/4.8/../../../arm-none-eabi/lib/armv7e-m/fpu/libm.a(lib_a-wf_atan2.o)
 .debug_frame   0x0000000000006a98       0x30 /usr/lib/gcc/arm-none-eabi/4.8/../../../arm-none-eabi/lib/armv7e-m/fpu/libm.a(lib_a-wf_exp.o)
 .debug_frame   0x0000000000006ac8       0x38 /usr/lib/gcc/arm-none-eabi/4.8/../../../arm-none-eabi/lib/armv7e-m/fpu/libm.a(lib_a-wf_fmod.o)
 .debug_frame   0x0000000000006b00       0x30 /usr/lib/gcc/arm-none-eabi/4.8/../../../arm-none-eabi/lib/armv7e-m/fpu/libm.a(lib_a-wf_log.o)
 .debug_frame   0x0000000000006b30       0x38 /usr/lib/gcc/arm-none-eabi/4.8/../../../arm-none-eabi/lib/armv7e-m/fpu/libm.a(lib_a-wf_pow.o)
 .debug_frame   0x0000000000006b68       0x34 /usr/lib/gcc/arm-none-eabi/4.8/../../../arm-none-eabi/lib/armv7e-m/fpu/libm.a(lib_a-wf_sincos.o)
 .debug_frame   0x0000000000006b9c       0x30 /usr/lib/gcc/arm-none-eabi/4.8/../../../arm-none-eabi/lib/armv7e-m/fpu/libm.a(lib_a-wf_sqrt.o)
 .debug_frame   0x0000000000006bcc       0x38 /usr/lib/gcc/arm-none-eabi/4.8/../../../arm-none-eabi/lib/armv7e-m/fpu/libm.a(lib_a-w_sqrt.o)
 .debug_frame   0x0000000000006c04       0x34 /usr/lib/gcc/arm-none-eabi/4.8/../../../arm-none-eabi/lib/armv7e-m/fpu/libm.a(lib_a-ef_asin.o)
 .debug_frame   0x0000000000006c38       0x2c /usr/lib/gcc/arm-none-eabi/4.8/../../../arm-none-eabi/lib/armv7e-m/fpu/libm.a(lib_a-ef_atan2.o)
 .debug_frame   0x0000000000006c64       0x20 /usr/lib/gcc/arm-none-eabi/4.8/../../../arm-none-eabi/lib/armv7e-m/fpu/libm.a(lib_a-ef_exp.o)
 .debug_frame   0x0000000000006c84       0x2c /usr/lib/gcc/arm-none-eabi/4.8/../../../arm-none-eabi/lib/armv7e-m/fpu/libm.a(lib_a-ef_fmod.o)
 .debug_frame   0x0000000000006cb0       0x28 /usr/lib/gcc/arm-none-eabi/4.8/../../../arm-none-eabi/lib/armv7e-m/fpu/libm.a(lib_a-ef_log.o)
 .debug_frame   0x0000000000006cd8       0x3c /usr/lib/gcc/arm-none-eabi/4.8/../../../arm-none-eabi/lib/armv7e-m/fpu/libm.a(lib_a-ef_pow.o)
 .debug_frame   0x0000000000006d14       0x30 /usr/lib/gcc/arm-none-eabi/4.8/../../../arm-none-eabi/lib/armv7e-m/fpu/libm.a(lib_a-ef_rem_pio2.o)
 .debug_frame   0x0000000000006d44       0x2c /usr/lib/gcc/arm-none-eabi/4.8/../../../arm-none-eabi/lib/armv7e-m/fpu/libm.a(lib_a-ef_sqrt.o)
 .debug_frame   0x0000000000006d70       0x3c /usr/lib/gcc/arm-none-eabi/4.8/../../../arm-none-eabi/lib/armv7e-m/fpu/libm.a(lib_a-e_sqrt.o)
 .debug_frame   0x0000000000006dac       0x20 /usr/lib/gcc/arm-none-eabi/4.8/../../../arm-none-eabi/lib/armv7e-m/fpu/libm.a(lib_a-kf_cos.o)
 .debug_frame   0x0000000000006dcc       0x44 /usr/lib/gcc/arm-none-eabi/4.8/../../../arm-none-eabi/lib/armv7e-m/fpu/libm.a(lib_a-kf_rem_pio2.o)
 .debug_frame   0x0000000000006e10       0x20 /usr/lib/gcc/arm-none-eabi/4.8/../../../arm-none-eabi/lib/armv7e-m/fpu/libm.a(lib_a-kf_sin.o)
 .debug_frame   0x0000000000006e30       0x2c /usr/lib/gcc/arm-none-eabi/4.8/../../../arm-none-eabi/lib/armv7e-m/fpu/libm.a(lib_a-sf_atan.o)
 .debug_frame   0x0000000000006e5c       0x20 /usr/lib/gcc/arm-none-eabi/4.8/../../../arm-none-eabi/lib/armv7e-m/fpu/libm.a(lib_a-sf_copysign.o)
 .debug_frame   0x0000000000006e7c       0x20 /usr/lib/gcc/arm-none-eabi/4.8/../../../arm-none-eabi/lib/armv7e-m/fpu/libm.a(lib_a-sf_fabs.o)
 .debug_frame   0x0000000000006e9c       0x20 /usr/lib/gcc/arm-none-eabi/4.8/../../../arm-none-eabi/lib/armv7e-m/fpu/libm.a(lib_a-sf_finite.o)
 .debug_frame   0x0000000000006ebc       0x20 /usr/lib/gcc/arm-none-eabi/4.8/../../../arm-none-eabi/lib/armv7e-m/fpu/libm.a(lib_a-sf_fpclassify.o)
 .debug_frame   0x0000000000006edc       0x20 /usr/lib/gcc/arm-none-eabi/4.8/../../../arm-none-eabi/lib/armv7e-m/fpu/libm.a(lib_a-sf_nan.o)
 .debug_frame   0x0000000000006efc       0x28 /usr/lib/gcc/arm-none-eabi/4.8/../../../arm-none-eabi/lib/armv7e-m/fpu/libm.a(lib_a-s_fpclassify.o)
 .debug_frame   0x0000000000006f24       0x20 /usr/lib/gcc/arm-none-eabi/4.8/../../../arm-none-eabi/lib/armv7e-m/fpu/libm.a(lib_a-s_matherr.o)
 .debug_frame   0x0000000000006f44       0x20 /usr/lib/gcc/arm-none-eabi/4.8/../../../arm-none-eabi/lib/armv7e-m/fpu/libm.a(lib_a-s_nan.o)
 .debug_frame   0x0000000000006f64       0x30 /usr/lib/gcc/arm-none-eabi/4.8/../../../arm-none-eabi/lib/armv7e-m/fpu/libm.a(lib_a-s_rint.o)
 .debug_frame   0x0000000000006f94       0x20 /usr/lib/gcc/arm-none-eabi/4.8/../../../arm-none-eabi/lib/armv7e-m/fpu/libg.a(lib_a-errno.o)
 .debug_frame   0x0000000000006fb4       0x2c /usr/lib/gcc/arm-none-eabi/4.8/../../../arm-none-eabi/lib/armv7e-m/fpu/libg.a(lib_a-memcmp.o)
 .debug_frame   0x0000000000006fe0       0x2c /usr/lib/gcc/arm-none-eabi/4.8/../../../arm-none-eabi/lib/armv7e-m/fpu/libg.a(lib_a-memset.o)
 .debug_frame   0x000000000000700c       0x64 /usr/lib/gcc/arm-none-eabi/4.8/../../../arm-none-eabi/lib/armv7e-m/fpu/libg.a(lib_a-sscanf.o)
 .debug_frame   0x0000000000007070       0x80 /usr/lib/gcc/arm-none-eabi/4.8/../../../arm-none-eabi/lib/armv7e-m/fpu/libg.a(lib_a-stdio.o)
 .debug_frame   0x00000000000070f0       0x20 /usr/lib/gcc/arm-none-eabi/4.8/../../../arm-none-eabi/lib/armv7e-m/fpu/libg.a(lib_a-strlen.o)
 .debug_frame   0x0000000000007110       0x20 /usr/lib/gcc/arm-none-eabi/4.8/../../../arm-none-eabi/lib/armv7e-m/fpu/libg.a(lib_a-strtok.o)
 .debug_frame   0x0000000000007130       0x3c /usr/lib/gcc/arm-none-eabi/4.8/../../../arm-none-eabi/lib/armv7e-m/fpu/libg.a(lib_a-strtok_r.o)
 .debug_frame   0x000000000000716c       0x40 /usr/lib/gcc/arm-none-eabi/4.8/../../../arm-none-eabi/lib/armv7e-m/fpu/libg.a(lib_a-svfscanf.o)
 .debug_frame   0x00000000000071ac       0x50 /usr/lib/gcc/arm-none-eabi/4.8/../../../arm-none-eabi/lib/armv7e-m/fpu/libg.a(lib_a-vsnprintf.o)
 .debug_frame   0x00000000000071fc       0x20 /usr/lib/gcc/arm-none-eabi/4.8/../../../arm-none-eabi/lib/armv7e-m/fpu/libg.a(lib_a-iswspace.o)
 .debug_frame   0x000000000000721c       0x98 /usr/lib/gcc/arm-none-eabi/4.8/../../../arm-none-eabi/lib/armv7e-m/fpu/libg.a(lib_a-locale.o)
 .debug_frame   0x00000000000072b4       0x58 /usr/lib/gcc/arm-none-eabi/4.8/../../../arm-none-eabi/lib/armv7e-m/fpu/libg.a(lib_a-mbrtowc.o)
 .debug_frame   0x000000000000730c       0x48 /usr/lib/gcc/arm-none-eabi/4.8/../../../arm-none-eabi/lib/armv7e-m/fpu/libg.a(lib_a-mbtowc_r.o)
 .debug_frame   0x0000000000007354       0x2c /usr/lib/gcc/arm-none-eabi/4.8/../../../arm-none-eabi/lib/armv7e-m/fpu/libg.a(lib_a-sccl.o)
 .debug_frame   0x0000000000007380       0x64 /usr/lib/gcc/arm-none-eabi/4.8/../../../arm-none-eabi/lib/armv7e-m/fpu/libg.a(lib_a-sprintf.o)
 .debug_frame   0x00000000000073e4       0x88 /usr/lib/gcc/arm-none-eabi/4.8/../../../arm-none-eabi/lib/armv7e-m/fpu/libg.a(lib_a-strtod.o)
 .debug_frame   0x000000000000746c       0x38 /usr/lib/gcc/arm-none-eabi/4.8/../../../arm-none-eabi/lib/armv7e-m/fpu/libg.a(lib_a-strtoll_r.o)
 .debug_frame   0x00000000000074a4       0x50 /usr/lib/gcc/arm-none-eabi/4.8/../../../arm-none-eabi/lib/armv7e-m/fpu/libg.a(lib_a-strtol.o)
 .debug_frame   0x00000000000074f4       0x38 /usr/lib/gcc/arm-none-eabi/4.8/../../../arm-none-eabi/lib/armv7e-m/fpu/libg.a(lib_a-strtoull_r.o)
 .debug_frame   0x000000000000752c       0x50 /usr/lib/gcc/arm-none-eabi/4.8/../../../arm-none-eabi/lib/armv7e-m/fpu/libg.a(lib_a-strtoul.o)
 .debug_frame   0x000000000000757c       0x98 /usr/lib/gcc/arm-none-eabi/4.8/../../../arm-none-eabi/lib/armv7e-m/fpu/libg.a(lib_a-svfiscanf.o)
 .debug_frame   0x0000000000007614       0x3c /usr/lib/gcc/arm-none-eabi/4.8/../../../arm-none-eabi/lib/armv7e-m/fpu/libg.a(lib_a-svfprintf.o)
 .debug_frame   0x0000000000007650       0x5c /usr/lib/gcc/arm-none-eabi/4.8/../../../arm-none-eabi/lib/armv7e-m/fpu/libg.a(lib_a-ungetc.o)
 .debug_frame   0x00000000000076ac       0x64 /usr/lib/gcc/arm-none-eabi/4.8/../../../arm-none-eabi/lib/armv7e-m/fpu/libg.a(lib_a-dtoa.o)
 .debug_frame   0x0000000000007710       0x50 /usr/lib/gcc/arm-none-eabi/4.8/../../../arm-none-eabi/lib/armv7e-m/fpu/libg.a(lib_a-freer.o)
 .debug_frame   0x0000000000007760       0x58 /usr/lib/gcc/arm-none-eabi/4.8/../../../arm-none-eabi/lib/armv7e-m/fpu/libg.a(lib_a-gdtoa-gethex.o)
 .debug_frame   0x00000000000077b8       0x38 /usr/lib/gcc/arm-none-eabi/4.8/../../../arm-none-eabi/lib/armv7e-m/fpu/libg.a(lib_a-gdtoa-hexnan.o)
 .debug_frame   0x00000000000077f0       0x38 /usr/lib/gcc/arm-none-eabi/4.8/../../../arm-none-eabi/lib/armv7e-m/fpu/libg.a(lib_a-mallocr.o)
 .debug_frame   0x0000000000007828       0x2c /usr/lib/gcc/arm-none-eabi/4.8/../../../arm-none-eabi/lib/armv7e-m/fpu/libg.a(lib_a-memchr-stub.o)
 .debug_frame   0x0000000000007854       0x30 /usr/lib/gcc/arm-none-eabi/4.8/../../../arm-none-eabi/lib/armv7e-m/fpu/libg.a(lib_a-mlock.o)
 .debug_frame   0x0000000000007884      0x22c /usr/lib/gcc/arm-none-eabi/4.8/../../../arm-none-eabi/lib/armv7e-m/fpu/libg.a(lib_a-mprec.o)
 .debug_frame   0x0000000000007ab0       0x38 /usr/lib/gcc/arm-none-eabi/4.8/../../../arm-none-eabi/lib/armv7e-m/fpu/libg.a(lib_a-reallocr.o)
 .debug_frame   0x0000000000007ae8       0x28 /usr/lib/gcc/arm-none-eabi/4.8/../../../arm-none-eabi/lib/armv7e-m/fpu/libg.a(lib_a-strncmp.o)
 .debug_frame   0x0000000000007b10       0x64 /usr/lib/gcc/arm-none-eabi/4.8/../../../arm-none-eabi/lib/armv7e-m/fpu/libg.a(lib_a-svfiprintf.o)
 .debug_frame   0x0000000000007b74       0x28 /usr/lib/gcc/arm-none-eabi/4.8/../../../arm-none-eabi/lib/armv7e-m/fpu/libg.a(lib_a-callocr.o)
 .debug_frame   0x0000000000007b9c       0x2c /usr/lib/gcc/arm-none-eabi/4.8/../../../arm-none-eabi/lib/armv7e-m/fpu/libg.a(lib_a-memmove.o)
 .debug_frame   0x0000000000007bc8       0x50 /usr/lib/gcc/arm-none-eabi/4.8/armv7e-m/fpu/libgcc.a(bpabi.o)
 .debug_frame   0x0000000000007c18       0x34 /usr/lib/gcc/arm-none-eabi/4.8/armv7e-m/fpu/libgcc.a(_divdi3.o)
 .debug_frame   0x0000000000007c4c       0x34 /usr/lib/gcc/arm-none-eabi/4.8/armv7e-m/fpu/libgcc.a(_udivdi3.o)

.debug_loc      0x0000000000000000    0x37cf7
 .debug_loc     0x0000000000000000      0x2c0 build/obj/chsys.o
 .debug_loc     0x00000000000002c0       0x9f build/obj/chvt.o
 .debug_loc     0x000000000000035f      0x32f build/obj/chschd.o
 .debug_loc     0x000000000000068e      0xa77 build/obj/chthreads.o
 .debug_loc     0x0000000000001105       0xa8 build/obj/chtm.o
 .debug_loc     0x00000000000011ad      0x20d build/obj/chdynamic.o
 .debug_loc     0x00000000000013ba       0x3f build/obj/chregistry.o
 .debug_loc     0x00000000000013f9      0x580 build/obj/chmtx.o
 .debug_loc     0x0000000000001979      0x59f build/obj/chevents.o
 .debug_loc     0x0000000000001f18      0x69b build/obj/chqueues.o
 .debug_loc     0x00000000000025b3       0xcc build/obj/chmemcore.o
 .debug_loc     0x000000000000267f      0x37d build/obj/chheap.o
 .debug_loc     0x00000000000029fc      0x200 build/obj/chmempools.o
 .debug_loc     0x0000000000002bfc       0xc7 build/obj/chcore_v7m.o
 .debug_loc     0x0000000000002cc3      0x2bc build/obj/can.o
 .debug_loc     0x0000000000002f7f      0x29a build/obj/i2c.o
 .debug_loc     0x0000000000003219       0xf9 build/obj/icu.o
 .debug_loc     0x0000000000003312      0x8fe build/obj/serial_usb.o
 .debug_loc     0x0000000000003c10      0x4cd build/obj/spi.o
 .debug_loc     0x00000000000040dd      0x329 build/obj/uart.o
 .debug_loc     0x0000000000004406      0xde1 build/obj/usb.o
 .debug_loc     0x00000000000051e7       0xe0 build/obj/nvic.o
 .debug_loc     0x00000000000052c7      0x279 build/obj/stm32_dma.o
 .debug_loc     0x0000000000005540      0x633 build/obj/can_lld.o
 .debug_loc     0x0000000000005b73      0x1b2 build/obj/pal_lld.o
 .debug_loc     0x0000000000005d25      0xa69 build/obj/i2c_lld.o
 .debug_loc     0x000000000000678e     0x11e3 build/obj/usb_lld.o
 .debug_loc     0x0000000000007971      0x2c1 build/obj/spi_lld.o
 .debug_loc     0x0000000000007c32      0x27e build/obj/icu_lld.o
 .debug_loc     0x0000000000007eb0      0x59e build/obj/uart_lld.o
 .debug_loc     0x000000000000844e      0x183 build/obj/syscalls.o
 .debug_loc     0x00000000000085d1       0xb5 build/obj/main.o
 .debug_loc     0x0000000000008686      0x114 build/obj/comm_usb_serial.o
 .debug_loc     0x000000000000879a      0x4ea build/obj/buffer.o
 .debug_loc     0x0000000000008c84      0x1d6 build/obj/comm_usb.o
 .debug_loc     0x0000000000008e5a       0xb8 build/obj/crc.o
 .debug_loc     0x0000000000008f12      0xafd build/obj/digital_filter.o
 .debug_loc     0x0000000000009a0f       0x43 build/obj/ledpwm.o
 .debug_loc     0x0000000000009a52     0x1ba8 build/obj/mcpwm.o
 .debug_loc     0x000000000000b5fa      0x12c build/obj/servo_dec.o
 .debug_loc     0x000000000000b726      0xd33 build/obj/utils.o
 .debug_loc     0x000000000000c459      0x2cc build/obj/packet.o
 .debug_loc     0x000000000000c725      0x660 build/obj/terminal.o
 .debug_loc     0x000000000000cd85      0xb83 build/obj/conf_general.o
 .debug_loc     0x000000000000d908      0x8cc build/obj/eeprom.o
 .debug_loc     0x000000000000e1d4     0x1119 build/obj/commands.o
 .debug_loc     0x000000000000f2ed       0x34 build/obj/timeout.o
 .debug_loc     0x000000000000f321      0x962 build/obj/comm_can.o
 .debug_loc     0x000000000000fc83      0x4c8 build/obj/led_external.o
 .debug_loc     0x000000000001014b      0x1d8 build/obj/encoder.o
 .debug_loc     0x0000000000010323      0x24c build/obj/flash_helper.o
 .debug_loc     0x000000000001056f     0x16f0 build/obj/mc_interface.o
 .debug_loc     0x0000000000011c5f     0x2c76 build/obj/mcpwm_foc.o
 .debug_loc     0x00000000000148d5       0x41 build/obj/hw_410.o
 .debug_loc     0x0000000000014916       0x37 build/obj/app.o
 .debug_loc     0x000000000001494d      0x8b0 build/obj/app_ppm.o
 .debug_loc     0x00000000000151fd      0xd0b build/obj/app_adc.o
 .debug_loc     0x0000000000015f08      0x1a6 build/obj/app_uartcomm.o
 .debug_loc     0x00000000000160ae      0x85d build/obj/app_nunchuk.o
 .debug_loc     0x000000000001690b      0x2ff build/obj/spi_sw.o
 .debug_loc     0x0000000000016c0a      0x969 build/obj/rf.o
 .debug_loc     0x0000000000017573      0x54e build/obj/rfhelp.o
 .debug_loc     0x0000000000017ac1      0x582 build/obj/nrf_driver.o
 .debug_loc     0x0000000000018043      0x9b2 build/obj/stm32f4xx_adc.o
 .debug_loc     0x00000000000189f5      0x4b6 build/obj/stm32f4xx_dma.o
 .debug_loc     0x0000000000018eab      0x1a1 build/obj/stm32f4xx_exti.o
 .debug_loc     0x000000000001904c      0x92f build/obj/stm32f4xx_flash.o
 .debug_loc     0x000000000001997b      0x9db build/obj/stm32f4xx_rcc.o
 .debug_loc     0x000000000001a356       0xa6 build/obj/stm32f4xx_syscfg.o
 .debug_loc     0x000000000001a3fc     0x26cb build/obj/stm32f4xx_tim.o
 .debug_loc     0x000000000001cac7       0xd1 build/obj/stm32f4xx_wwdg.o
 .debug_loc     0x000000000001cb98      0x10c /usr/lib/gcc/arm-none-eabi/4.8/../../../arm-none-eabi/lib/armv7e-m/fpu/libm.a(lib_a-sf_cos.o)
 .debug_loc     0x000000000001cca4      0x1d2 /usr/lib/gcc/arm-none-eabi/4.8/../../../arm-none-eabi/lib/armv7e-m/fpu/libm.a(lib_a-sf_floor.o)
 .debug_loc     0x000000000001ce76       0xe3 /usr/lib/gcc/arm-none-eabi/4.8/../../../arm-none-eabi/lib/armv7e-m/fpu/libm.a(lib_a-sf_frexp.o)
 .debug_loc     0x000000000001cf59       0x92 /usr/lib/gcc/arm-none-eabi/4.8/../../../arm-none-eabi/lib/armv7e-m/fpu/libm.a(lib_a-sf_ldexp.o)
 .debug_loc     0x000000000001cfeb       0xd9 /usr/lib/gcc/arm-none-eabi/4.8/../../../arm-none-eabi/lib/armv7e-m/fpu/libm.a(lib_a-sf_round.o)
 .debug_loc     0x000000000001d0c4      0x384 /usr/lib/gcc/arm-none-eabi/4.8/../../../arm-none-eabi/lib/armv7e-m/fpu/libm.a(lib_a-sf_scalbn.o)
 .debug_loc     0x000000000001d448      0x10c /usr/lib/gcc/arm-none-eabi/4.8/../../../arm-none-eabi/lib/armv7e-m/fpu/libm.a(lib_a-sf_sin.o)
 .debug_loc     0x000000000001d554       0x78 /usr/lib/gcc/arm-none-eabi/4.8/../../../arm-none-eabi/lib/armv7e-m/fpu/libm.a(lib_a-wf_asin.o)
 .debug_loc     0x000000000001d5cc       0x48 /usr/lib/gcc/arm-none-eabi/4.8/../../../arm-none-eabi/lib/armv7e-m/fpu/libm.a(lib_a-wf_atan2.o)
 .debug_loc     0x000000000001d614       0x78 /usr/lib/gcc/arm-none-eabi/4.8/../../../arm-none-eabi/lib/armv7e-m/fpu/libm.a(lib_a-wf_exp.o)
 .debug_loc     0x000000000001d68c       0x88 /usr/lib/gcc/arm-none-eabi/4.8/../../../arm-none-eabi/lib/armv7e-m/fpu/libm.a(lib_a-wf_fmod.o)
 .debug_loc     0x000000000001d714       0x78 /usr/lib/gcc/arm-none-eabi/4.8/../../../arm-none-eabi/lib/armv7e-m/fpu/libm.a(lib_a-wf_log.o)
 .debug_loc     0x000000000001d78c      0x126 /usr/lib/gcc/arm-none-eabi/4.8/../../../arm-none-eabi/lib/armv7e-m/fpu/libm.a(lib_a-wf_pow.o)
 .debug_loc     0x000000000001d8b2       0x6c /usr/lib/gcc/arm-none-eabi/4.8/../../../arm-none-eabi/lib/armv7e-m/fpu/libm.a(lib_a-wf_sincos.o)
 .debug_loc     0x000000000001d91e       0x78 /usr/lib/gcc/arm-none-eabi/4.8/../../../arm-none-eabi/lib/armv7e-m/fpu/libm.a(lib_a-wf_sqrt.o)
 .debug_loc     0x000000000001d996       0xd2 /usr/lib/gcc/arm-none-eabi/4.8/../../../arm-none-eabi/lib/armv7e-m/fpu/libm.a(lib_a-w_sqrt.o)
 .debug_loc     0x000000000001da68      0x319 /usr/lib/gcc/arm-none-eabi/4.8/../../../arm-none-eabi/lib/armv7e-m/fpu/libm.a(lib_a-ef_asin.o)
 .debug_loc     0x000000000001dd81      0x93d /usr/lib/gcc/arm-none-eabi/4.8/../../../arm-none-eabi/lib/armv7e-m/fpu/libm.a(lib_a-ef_atan2.o)
 .debug_loc     0x000000000001e6be      0x58c /usr/lib/gcc/arm-none-eabi/4.8/../../../arm-none-eabi/lib/armv7e-m/fpu/libm.a(lib_a-ef_exp.o)
 .debug_loc     0x000000000001ec4a      0x564 /usr/lib/gcc/arm-none-eabi/4.8/../../../arm-none-eabi/lib/armv7e-m/fpu/libm.a(lib_a-ef_fmod.o)
 .debug_loc     0x000000000001f1ae      0x5cc /usr/lib/gcc/arm-none-eabi/4.8/../../../arm-none-eabi/lib/armv7e-m/fpu/libm.a(lib_a-ef_log.o)
 .debug_loc     0x000000000001f77a      0xf9a /usr/lib/gcc/arm-none-eabi/4.8/../../../arm-none-eabi/lib/armv7e-m/fpu/libm.a(lib_a-ef_pow.o)
 .debug_loc     0x0000000000020714      0x6ca /usr/lib/gcc/arm-none-eabi/4.8/../../../arm-none-eabi/lib/armv7e-m/fpu/libm.a(lib_a-ef_rem_pio2.o)
 .debug_loc     0x0000000000020dde      0x30f /usr/lib/gcc/arm-none-eabi/4.8/../../../arm-none-eabi/lib/armv7e-m/fpu/libm.a(lib_a-ef_sqrt.o)
 .debug_loc     0x00000000000210ed      0x51e /usr/lib/gcc/arm-none-eabi/4.8/../../../arm-none-eabi/lib/armv7e-m/fpu/libm.a(lib_a-e_sqrt.o)
 .debug_loc     0x000000000002160b      0x211 /usr/lib/gcc/arm-none-eabi/4.8/../../../arm-none-eabi/lib/armv7e-m/fpu/libm.a(lib_a-kf_cos.o)
 .debug_loc     0x000000000002181c      0x78b /usr/lib/gcc/arm-none-eabi/4.8/../../../arm-none-eabi/lib/armv7e-m/fpu/libm.a(lib_a-kf_rem_pio2.o)
 .debug_loc     0x0000000000021fa7      0x178 /usr/lib/gcc/arm-none-eabi/4.8/../../../arm-none-eabi/lib/armv7e-m/fpu/libm.a(lib_a-kf_sin.o)
 .debug_loc     0x000000000002211f      0x332 /usr/lib/gcc/arm-none-eabi/4.8/../../../arm-none-eabi/lib/armv7e-m/fpu/libm.a(lib_a-sf_atan.o)
 .debug_loc     0x0000000000022451       0x70 /usr/lib/gcc/arm-none-eabi/4.8/../../../arm-none-eabi/lib/armv7e-m/fpu/libm.a(lib_a-sf_copysign.o)
 .debug_loc     0x00000000000224c1       0x5e /usr/lib/gcc/arm-none-eabi/4.8/../../../arm-none-eabi/lib/armv7e-m/fpu/libm.a(lib_a-sf_fabs.o)
 .debug_loc     0x000000000002251f       0x21 /usr/lib/gcc/arm-none-eabi/4.8/../../../arm-none-eabi/lib/armv7e-m/fpu/libm.a(lib_a-s_matherr.o)
 .debug_loc     0x0000000000022540      0x348 /usr/lib/gcc/arm-none-eabi/4.8/../../../arm-none-eabi/lib/armv7e-m/fpu/libm.a(lib_a-s_rint.o)
 .debug_loc     0x0000000000022888      0x12b /usr/lib/gcc/arm-none-eabi/4.8/../../../arm-none-eabi/lib/armv7e-m/fpu/libg.a(lib_a-memcmp.o)
 .debug_loc     0x00000000000229b3      0x18b /usr/lib/gcc/arm-none-eabi/4.8/../../../arm-none-eabi/lib/armv7e-m/fpu/libg.a(lib_a-memset.o)
 .debug_loc     0x0000000000022b3e       0x79 /usr/lib/gcc/arm-none-eabi/4.8/../../../arm-none-eabi/lib/armv7e-m/fpu/libg.a(lib_a-sscanf.o)
 .debug_loc     0x0000000000022bb7      0x29e /usr/lib/gcc/arm-none-eabi/4.8/../../../arm-none-eabi/lib/armv7e-m/fpu/libg.a(lib_a-stdio.o)
 .debug_loc     0x0000000000022e55       0x21 /usr/lib/gcc/arm-none-eabi/4.8/../../../arm-none-eabi/lib/armv7e-m/fpu/libg.a(lib_a-strlen.o)
 .debug_loc     0x0000000000022e76       0x61 /usr/lib/gcc/arm-none-eabi/4.8/../../../arm-none-eabi/lib/armv7e-m/fpu/libg.a(lib_a-strtok.o)
 .debug_loc     0x0000000000022ed7      0x241 /usr/lib/gcc/arm-none-eabi/4.8/../../../arm-none-eabi/lib/armv7e-m/fpu/libg.a(lib_a-strtok_r.o)
 .debug_loc     0x0000000000023118     0x1aa2 /usr/lib/gcc/arm-none-eabi/4.8/../../../arm-none-eabi/lib/armv7e-m/fpu/libg.a(lib_a-svfscanf.o)
 .debug_loc     0x0000000000024bba      0x184 /usr/lib/gcc/arm-none-eabi/4.8/../../../arm-none-eabi/lib/armv7e-m/fpu/libg.a(lib_a-vsnprintf.o)
 .debug_loc     0x0000000000024d3e       0x3a /usr/lib/gcc/arm-none-eabi/4.8/../../../arm-none-eabi/lib/armv7e-m/fpu/libg.a(lib_a-iswspace.o)
 .debug_loc     0x0000000000024d78       0xe7 /usr/lib/gcc/arm-none-eabi/4.8/../../../arm-none-eabi/lib/armv7e-m/fpu/libg.a(lib_a-locale.o)
 .debug_loc     0x0000000000024e5f      0x238 /usr/lib/gcc/arm-none-eabi/4.8/../../../arm-none-eabi/lib/armv7e-m/fpu/libg.a(lib_a-mbrtowc.o)
 .debug_loc     0x0000000000025097      0x1f5 /usr/lib/gcc/arm-none-eabi/4.8/../../../arm-none-eabi/lib/armv7e-m/fpu/libg.a(lib_a-mbtowc_r.o)
 .debug_loc     0x000000000002528c      0x20c /usr/lib/gcc/arm-none-eabi/4.8/../../../arm-none-eabi/lib/armv7e-m/fpu/libg.a(lib_a-sccl.o)
 .debug_loc     0x0000000000025498       0x79 /usr/lib/gcc/arm-none-eabi/4.8/../../../arm-none-eabi/lib/armv7e-m/fpu/libg.a(lib_a-sprintf.o)
 .debug_loc     0x0000000000025511     0x255c /usr/lib/gcc/arm-none-eabi/4.8/../../../arm-none-eabi/lib/armv7e-m/fpu/libg.a(lib_a-strtod.o)
 .debug_loc     0x0000000000027a6d      0x38b /usr/lib/gcc/arm-none-eabi/4.8/../../../arm-none-eabi/lib/armv7e-m/fpu/libg.a(lib_a-strtoll_r.o)
 .debug_loc     0x0000000000027df8      0x3b8 /usr/lib/gcc/arm-none-eabi/4.8/../../../arm-none-eabi/lib/armv7e-m/fpu/libg.a(lib_a-strtol.o)
 .debug_loc     0x00000000000281b0      0x312 /usr/lib/gcc/arm-none-eabi/4.8/../../../arm-none-eabi/lib/armv7e-m/fpu/libg.a(lib_a-strtoull_r.o)
 .debug_loc     0x00000000000284c2      0x394 /usr/lib/gcc/arm-none-eabi/4.8/../../../arm-none-eabi/lib/armv7e-m/fpu/libg.a(lib_a-strtoul.o)
 .debug_loc     0x0000000000028856     0x131f /usr/lib/gcc/arm-none-eabi/4.8/../../../arm-none-eabi/lib/armv7e-m/fpu/libg.a(lib_a-svfiscanf.o)
 .debug_loc     0x0000000000029b75     0x25af /usr/lib/gcc/arm-none-eabi/4.8/../../../arm-none-eabi/lib/armv7e-m/fpu/libg.a(lib_a-svfprintf.o)
 .debug_loc     0x000000000002c124      0x207 /usr/lib/gcc/arm-none-eabi/4.8/../../../arm-none-eabi/lib/armv7e-m/fpu/libg.a(lib_a-ungetc.o)
 .debug_loc     0x000000000002c32b     0x299f /usr/lib/gcc/arm-none-eabi/4.8/../../../arm-none-eabi/lib/armv7e-m/fpu/libg.a(lib_a-dtoa.o)
 .debug_loc     0x000000000002ecca      0x4f1 /usr/lib/gcc/arm-none-eabi/4.8/../../../arm-none-eabi/lib/armv7e-m/fpu/libg.a(lib_a-freer.o)
 .debug_loc     0x000000000002f1bb     0x1350 /usr/lib/gcc/arm-none-eabi/4.8/../../../arm-none-eabi/lib/armv7e-m/fpu/libg.a(lib_a-gdtoa-gethex.o)
 .debug_loc     0x000000000003050b      0x52d /usr/lib/gcc/arm-none-eabi/4.8/../../../arm-none-eabi/lib/armv7e-m/fpu/libg.a(lib_a-gdtoa-hexnan.o)
 .debug_loc     0x0000000000030a38      0xd01 /usr/lib/gcc/arm-none-eabi/4.8/../../../arm-none-eabi/lib/armv7e-m/fpu/libg.a(lib_a-mallocr.o)
 .debug_loc     0x0000000000031739      0x17b /usr/lib/gcc/arm-none-eabi/4.8/../../../arm-none-eabi/lib/armv7e-m/fpu/libg.a(lib_a-memchr-stub.o)
 .debug_loc     0x00000000000318b4     0x1d22 /usr/lib/gcc/arm-none-eabi/4.8/../../../arm-none-eabi/lib/armv7e-m/fpu/libg.a(lib_a-mprec.o)
 .debug_loc     0x00000000000335d6     0x1340 /usr/lib/gcc/arm-none-eabi/4.8/../../../arm-none-eabi/lib/armv7e-m/fpu/libg.a(lib_a-reallocr.o)
 .debug_loc     0x0000000000034916      0x139 /usr/lib/gcc/arm-none-eabi/4.8/../../../arm-none-eabi/lib/armv7e-m/fpu/libg.a(lib_a-strncmp.o)
 .debug_loc     0x0000000000034a4f     0x13e4 /usr/lib/gcc/arm-none-eabi/4.8/../../../arm-none-eabi/lib/armv7e-m/fpu/libg.a(lib_a-svfiprintf.o)
 .debug_loc     0x0000000000035e33      0x231 /usr/lib/gcc/arm-none-eabi/4.8/../../../arm-none-eabi/lib/armv7e-m/fpu/libg.a(lib_a-callocr.o)
 .debug_loc     0x0000000000036064      0x2a5 /usr/lib/gcc/arm-none-eabi/4.8/../../../arm-none-eabi/lib/armv7e-m/fpu/libg.a(lib_a-memmove.o)
 .debug_loc     0x0000000000036309       0xa0 /usr/lib/gcc/arm-none-eabi/4.8/armv7e-m/fpu/libgcc.a(bpabi.o)
 .debug_loc     0x00000000000363a9      0xc62 /usr/lib/gcc/arm-none-eabi/4.8/armv7e-m/fpu/libgcc.a(_divdi3.o)
 .debug_loc     0x000000000003700b      0xcec /usr/lib/gcc/arm-none-eabi/4.8/armv7e-m/fpu/libgcc.a(_udivdi3.o)

Cross Reference Table

Symbol                                            File
ADC_AnalogWatchdogCmd                             build/obj/stm32f4xx_adc.o
ADC_AnalogWatchdogSingleChannelConfig             build/obj/stm32f4xx_adc.o
ADC_AnalogWatchdogThresholdsConfig                build/obj/stm32f4xx_adc.o
ADC_AutoInjectedConvCmd                           build/obj/stm32f4xx_adc.o
ADC_ClearFlag                                     build/obj/stm32f4xx_adc.o
ADC_ClearITPendingBit                             build/obj/stm32f4xx_adc.o
                                                  build/obj/irq_handlers.o
ADC_Cmd                                           build/obj/stm32f4xx_adc.o
                                                  build/obj/mcpwm_foc.o
                                                  build/obj/mcpwm.o
ADC_CommonInit                                    build/obj/stm32f4xx_adc.o
                                                  build/obj/mcpwm_foc.o
                                                  build/obj/mcpwm.o
ADC_CommonStructInit                              build/obj/stm32f4xx_adc.o
ADC_ContinuousModeCmd                             build/obj/stm32f4xx_adc.o
ADC_DMACmd                                        build/obj/stm32f4xx_adc.o
ADC_DMARequestAfterLastTransferCmd                build/obj/stm32f4xx_adc.o
ADC_DeInit                                        build/obj/stm32f4xx_adc.o
                                                  build/obj/mcpwm_foc.o
                                                  build/obj/mcpwm.o
ADC_DiscModeChannelCountConfig                    build/obj/stm32f4xx_adc.o
ADC_DiscModeCmd                                   build/obj/stm32f4xx_adc.o
ADC_EOCOnEachRegularChannelCmd                    build/obj/stm32f4xx_adc.o
ADC_ExternalTrigInjectedConvConfig                build/obj/stm32f4xx_adc.o
                                                  build/obj/mcpwm.o
ADC_ExternalTrigInjectedConvEdgeConfig            build/obj/stm32f4xx_adc.o
                                                  build/obj/mcpwm.o
ADC_GetConversionValue                            build/obj/stm32f4xx_adc.o
ADC_GetFlagStatus                                 build/obj/stm32f4xx_adc.o
ADC_GetITStatus                                   build/obj/stm32f4xx_adc.o
ADC_GetInjectedConversionValue                    build/obj/stm32f4xx_adc.o
                                                  build/obj/mcpwm.o
ADC_GetMultiModeConversionValue                   build/obj/stm32f4xx_adc.o
ADC_GetSoftwareStartConvStatus                    build/obj/stm32f4xx_adc.o
ADC_GetSoftwareStartInjectedConvCmdStatus         build/obj/stm32f4xx_adc.o
ADC_ITConfig                                      build/obj/stm32f4xx_adc.o
                                                  build/obj/mcpwm.o
ADC_Init                                          build/obj/stm32f4xx_adc.o
                                                  build/obj/mcpwm_foc.o
                                                  build/obj/mcpwm.o
ADC_InjectedChannelConfig                         build/obj/stm32f4xx_adc.o
                                                  build/obj/hw_410.o
ADC_InjectedDiscModeCmd                           build/obj/stm32f4xx_adc.o
ADC_InjectedSequencerLengthConfig                 build/obj/stm32f4xx_adc.o
                                                  build/obj/mcpwm.o
ADC_MultiModeDMARequestAfterLastTransferCmd       build/obj/stm32f4xx_adc.o
                                                  build/obj/mcpwm_foc.o
                                                  build/obj/mcpwm.o
ADC_RegularChannelConfig                          build/obj/stm32f4xx_adc.o
                                                  build/obj/hw_410.o
ADC_SetInjectedOffset                             build/obj/stm32f4xx_adc.o
ADC_SoftwareStartConv                             build/obj/stm32f4xx_adc.o
ADC_SoftwareStartInjectedConv                     build/obj/stm32f4xx_adc.o
ADC_StructInit                                    build/obj/stm32f4xx_adc.o
ADC_TempSensorVrefintCmd                          build/obj/stm32f4xx_adc.o
                                                  build/obj/mcpwm_foc.o
                                                  build/obj/mcpwm.o
ADC_VBATCmd                                       build/obj/stm32f4xx_adc.o
ADC_Value                                         build/obj/mc_interface.o
                                                  build/obj/app_adc.o
                                                  build/obj/mcpwm_foc.o
                                                  build/obj/led_external.o
                                                  build/obj/commands.o
                                                  build/obj/conf_general.o
                                                  build/obj/terminal.o
                                                  build/obj/mcpwm.o
ADC_curr_norm_value                               build/obj/mc_interface.o
                                                  build/obj/mcpwm_foc.o
                                                  build/obj/mcpwm.o
BusFault_Handler                                  build/obj/vectors.o
CAND1                                             build/obj/can_lld.o
                                                  build/obj/comm_can.o
DMA_ClearFlag                                     build/obj/stm32f4xx_dma.o
DMA_ClearITPendingBit                             build/obj/stm32f4xx_dma.o
DMA_Cmd                                           build/obj/stm32f4xx_dma.o
                                                  build/obj/mcpwm_foc.o
                                                  build/obj/ws2811.o
                                                  build/obj/mcpwm.o
DMA_DeInit                                        build/obj/stm32f4xx_dma.o
                                                  build/obj/mcpwm_foc.o
                                                  build/obj/ws2811.o
                                                  build/obj/mcpwm.o
DMA_DoubleBufferModeCmd                           build/obj/stm32f4xx_dma.o
DMA_DoubleBufferModeConfig                        build/obj/stm32f4xx_dma.o
DMA_FlowControllerConfig                          build/obj/stm32f4xx_dma.o
DMA_GetCmdStatus                                  build/obj/stm32f4xx_dma.o
DMA_GetCurrDataCounter                            build/obj/stm32f4xx_dma.o
DMA_GetCurrentMemoryTarget                        build/obj/stm32f4xx_dma.o
DMA_GetFIFOStatus                                 build/obj/stm32f4xx_dma.o
DMA_GetFlagStatus                                 build/obj/stm32f4xx_dma.o
DMA_GetITStatus                                   build/obj/stm32f4xx_dma.o
DMA_ITConfig                                      build/obj/stm32f4xx_dma.o
                                                  build/obj/mcpwm_foc.o
                                                  build/obj/mcpwm.o
DMA_Init                                          build/obj/stm32f4xx_dma.o
                                                  build/obj/mcpwm_foc.o
                                                  build/obj/ws2811.o
                                                  build/obj/mcpwm.o
DMA_MemoryTargetConfig                            build/obj/stm32f4xx_dma.o
DMA_PeriphIncOffsetSizeConfig                     build/obj/stm32f4xx_dma.o
DMA_SetCurrDataCounter                            build/obj/stm32f4xx_dma.o
DMA_StructInit                                    build/obj/stm32f4xx_dma.o
DataVar                                           build/obj/eeprom.o
DebugMon_Handler                                  build/obj/vectors.o
EE_Init                                           build/obj/eeprom.o
                                                  build/obj/conf_general.o
EE_ReadVariable                                   build/obj/eeprom.o
                                                  build/obj/conf_general.o
EE_WriteVariable                                  build/obj/eeprom.o
                                                  build/obj/conf_general.o
EXTI_ClearFlag                                    build/obj/stm32f4xx_exti.o
EXTI_ClearITPendingBit                            build/obj/stm32f4xx_exti.o
                                                  build/obj/irq_handlers.o
EXTI_DeInit                                       build/obj/stm32f4xx_exti.o
EXTI_GenerateSWInterrupt                          build/obj/stm32f4xx_exti.o
EXTI_GetFlagStatus                                build/obj/stm32f4xx_exti.o
EXTI_GetITStatus                                  build/obj/stm32f4xx_exti.o
                                                  build/obj/irq_handlers.o
EXTI_Init                                         build/obj/stm32f4xx_exti.o
                                                  build/obj/encoder.o
EXTI_StructInit                                   build/obj/stm32f4xx_exti.o
FLASH_ClearFlag                                   build/obj/stm32f4xx_flash.o
                                                  build/obj/flash_helper.o
                                                  build/obj/conf_general.o
FLASH_DataCacheCmd                                build/obj/stm32f4xx_flash.o
FLASH_DataCacheReset                              build/obj/stm32f4xx_flash.o
FLASH_EraseAllBank1Sectors                        build/obj/stm32f4xx_flash.o
FLASH_EraseAllBank2Sectors                        build/obj/stm32f4xx_flash.o
FLASH_EraseAllSectors                             build/obj/stm32f4xx_flash.o
FLASH_EraseSector                                 build/obj/stm32f4xx_flash.o
                                                  build/obj/flash_helper.o
                                                  build/obj/eeprom.o
FLASH_GetFlagStatus                               build/obj/stm32f4xx_flash.o
FLASH_GetStatus                                   build/obj/stm32f4xx_flash.o
FLASH_ITConfig                                    build/obj/stm32f4xx_flash.o
FLASH_InstructionCacheCmd                         build/obj/stm32f4xx_flash.o
FLASH_InstructionCacheReset                       build/obj/stm32f4xx_flash.o
FLASH_Lock                                        build/obj/stm32f4xx_flash.o
FLASH_OB_BORConfig                                build/obj/stm32f4xx_flash.o
FLASH_OB_BootConfig                               build/obj/stm32f4xx_flash.o
FLASH_OB_GetBOR                                   build/obj/stm32f4xx_flash.o
FLASH_OB_GetPCROP                                 build/obj/stm32f4xx_flash.o
FLASH_OB_GetPCROP1                                build/obj/stm32f4xx_flash.o
FLASH_OB_GetRDP                                   build/obj/stm32f4xx_flash.o
FLASH_OB_GetUser                                  build/obj/stm32f4xx_flash.o
FLASH_OB_GetWRP                                   build/obj/stm32f4xx_flash.o
FLASH_OB_GetWRP1                                  build/obj/stm32f4xx_flash.o
FLASH_OB_Launch                                   build/obj/stm32f4xx_flash.o
FLASH_OB_Lock                                     build/obj/stm32f4xx_flash.o
FLASH_OB_PCROP1Config                             build/obj/stm32f4xx_flash.o
FLASH_OB_PCROPConfig                              build/obj/stm32f4xx_flash.o
FLASH_OB_PCROPSelectionConfig                     build/obj/stm32f4xx_flash.o
FLASH_OB_RDPConfig                                build/obj/stm32f4xx_flash.o
FLASH_OB_Unlock                                   build/obj/stm32f4xx_flash.o
FLASH_OB_UserConfig                               build/obj/stm32f4xx_flash.o
FLASH_OB_WRP1Config                               build/obj/stm32f4xx_flash.o
FLASH_OB_WRPConfig                                build/obj/stm32f4xx_flash.o
FLASH_PrefetchBufferCmd                           build/obj/stm32f4xx_flash.o
FLASH_ProgramByte                                 build/obj/stm32f4xx_flash.o
                                                  build/obj/flash_helper.o
FLASH_ProgramDoubleWord                           build/obj/stm32f4xx_flash.o
FLASH_ProgramHalfWord                             build/obj/stm32f4xx_flash.o
                                                  build/obj/eeprom.o
FLASH_ProgramWord                                 build/obj/stm32f4xx_flash.o
FLASH_SetLatency                                  build/obj/stm32f4xx_flash.o
FLASH_Unlock                                      build/obj/stm32f4xx_flash.o
                                                  build/obj/flash_helper.o
                                                  build/obj/conf_general.o
FLASH_WaitForLastOperation                        build/obj/stm32f4xx_flash.o
HardFault_Handler                                 build/obj/vectors.o
I2CD2                                             build/obj/i2c_lld.o
                                                  build/obj/app_nunchuk.o
                                                  build/obj/hw_410.o
ICUD3                                             build/obj/icu_lld.o
                                                  build/obj/servo_dec.o
MemManage_Handler                                 build/obj/vectors.o
NMI_Handler                                       build/obj/vectors.o
NVIC_Init                                         build/obj/misc.o
NVIC_PriorityGroupConfig                          build/obj/misc.o
NVIC_SetVectorTable                               build/obj/misc.o
NVIC_SystemLPConfig                               build/obj/misc.o
PendSV_Handler                                    build/obj/vectors.o
RCC_AHB1PeriphClockCmd                            build/obj/stm32f4xx_rcc.o
                                                  build/obj/hw_410.o
                                                  build/obj/mcpwm_foc.o
                                                  build/obj/ws2811.o
                                                  build/obj/mcpwm.o
RCC_AHB1PeriphClockLPModeCmd                      build/obj/stm32f4xx_rcc.o
RCC_AHB1PeriphResetCmd                            build/obj/stm32f4xx_rcc.o
RCC_AHB2PeriphClockCmd                            build/obj/stm32f4xx_rcc.o
RCC_AHB2PeriphClockLPModeCmd                      build/obj/stm32f4xx_rcc.o
RCC_AHB2PeriphResetCmd                            build/obj/stm32f4xx_rcc.o
RCC_APB1PeriphClockCmd                            build/obj/stm32f4xx_rcc.o
                                                  build/obj/mcpwm_foc.o
                                                  build/obj/flash_helper.o
                                                  build/obj/encoder.o
                                                  build/obj/ws2811.o
                                                  build/obj/conf_general.o
                                                  build/obj/mcpwm.o
RCC_APB1PeriphClockLPModeCmd                      build/obj/stm32f4xx_rcc.o
RCC_APB1PeriphResetCmd                            build/obj/stm32f4xx_rcc.o
                                                  build/obj/stm32f4xx_wwdg.o
                                                  build/obj/stm32f4xx_tim.o
RCC_APB2PeriphClockCmd                            build/obj/stm32f4xx_rcc.o
                                                  build/obj/mcpwm_foc.o
                                                  build/obj/encoder.o
                                                  build/obj/mcpwm.o
RCC_APB2PeriphClockLPModeCmd                      build/obj/stm32f4xx_rcc.o
RCC_APB2PeriphResetCmd                            build/obj/stm32f4xx_rcc.o
                                                  build/obj/stm32f4xx_tim.o
                                                  build/obj/stm32f4xx_syscfg.o
                                                  build/obj/stm32f4xx_adc.o
RCC_AdjustHSICalibrationValue                     build/obj/stm32f4xx_rcc.o
RCC_BackupResetCmd                                build/obj/stm32f4xx_rcc.o
RCC_ClearFlag                                     build/obj/stm32f4xx_rcc.o
RCC_ClearITPendingBit                             build/obj/stm32f4xx_rcc.o
RCC_ClockSecuritySystemCmd                        build/obj/stm32f4xx_rcc.o
RCC_DeInit                                        build/obj/stm32f4xx_rcc.o
RCC_GetClocksFreq                                 build/obj/stm32f4xx_rcc.o
RCC_GetFlagStatus                                 build/obj/stm32f4xx_rcc.o
RCC_GetITStatus                                   build/obj/stm32f4xx_rcc.o
RCC_GetSYSCLKSource                               build/obj/stm32f4xx_rcc.o
RCC_HCLKConfig                                    build/obj/stm32f4xx_rcc.o
RCC_HSEConfig                                     build/obj/stm32f4xx_rcc.o
RCC_HSICmd                                        build/obj/stm32f4xx_rcc.o
RCC_ITConfig                                      build/obj/stm32f4xx_rcc.o
RCC_LSEConfig                                     build/obj/stm32f4xx_rcc.o
RCC_LSEModeConfig                                 build/obj/stm32f4xx_rcc.o
RCC_LSICmd                                        build/obj/stm32f4xx_rcc.o
RCC_MCO1Config                                    build/obj/stm32f4xx_rcc.o
RCC_MCO2Config                                    build/obj/stm32f4xx_rcc.o
RCC_PCLK1Config                                   build/obj/stm32f4xx_rcc.o
RCC_PCLK2Config                                   build/obj/stm32f4xx_rcc.o
RCC_PLLCmd                                        build/obj/stm32f4xx_rcc.o
RCC_PLLI2SCmd                                     build/obj/stm32f4xx_rcc.o
RCC_PLLSAICmd                                     build/obj/stm32f4xx_rcc.o
RCC_RTCCLKCmd                                     build/obj/stm32f4xx_rcc.o
RCC_RTCCLKConfig                                  build/obj/stm32f4xx_rcc.o
RCC_SYSCLKConfig                                  build/obj/stm32f4xx_rcc.o
RCC_TIMCLKPresConfig                              build/obj/stm32f4xx_rcc.o
RCC_WaitForHSEStartUp                             build/obj/stm32f4xx_rcc.o
Reset_Handler                                     build/obj/crt0_v7m.o
SDU1                                              build/obj/comm_usb_serial.o
                                                  build/obj/comm_usb.o
SPID1                                             build/obj/spi_lld.o
SVC_Handler                                       build/obj/chcore_v7m.o
                                                  build/obj/vectors.o
SYSCFG_CompensationCellCmd                        build/obj/stm32f4xx_syscfg.o
SYSCFG_DeInit                                     build/obj/stm32f4xx_syscfg.o
SYSCFG_ETH_MediaInterfaceConfig                   build/obj/stm32f4xx_syscfg.o
SYSCFG_EXTILineConfig                             build/obj/stm32f4xx_syscfg.o
                                                  build/obj/encoder.o
SYSCFG_GetCompensationCellStatus                  build/obj/stm32f4xx_syscfg.o
SYSCFG_MemoryRemapConfig                          build/obj/stm32f4xx_syscfg.o
SYSCFG_MemorySwappingBank                         build/obj/stm32f4xx_syscfg.o
SysTick_CLKSourceConfig                           build/obj/misc.o
SysTick_Handler                                   build/obj/st_lld.o
                                                  build/obj/vectors.o
SystemCoreClock                                   build/obj/hal_lld.o
TIM_ARRPreloadConfig                              build/obj/stm32f4xx_tim.o
                                                  build/obj/mcpwm_foc.o
                                                  build/obj/mcpwm.o
TIM_BDTRConfig                                    build/obj/stm32f4xx_tim.o
                                                  build/obj/mcpwm_foc.o
                                                  build/obj/mcpwm.o
TIM_BDTRStructInit                                build/obj/stm32f4xx_tim.o
TIM_CCPreloadControl                              build/obj/stm32f4xx_tim.o
                                                  build/obj/mcpwm_foc.o
                                                  build/obj/mcpwm.o
TIM_CCxCmd                                        build/obj/stm32f4xx_tim.o
                                                  build/obj/mcpwm_foc.o
                                                  build/obj/mcpwm.o
TIM_CCxNCmd                                       build/obj/stm32f4xx_tim.o
                                                  build/obj/mcpwm_foc.o
                                                  build/obj/mcpwm.o
TIM_ClearFlag                                     build/obj/stm32f4xx_tim.o
TIM_ClearITPendingBit                             build/obj/stm32f4xx_tim.o
                                                  build/obj/irq_handlers.o
TIM_ClearOC1Ref                                   build/obj/stm32f4xx_tim.o
TIM_ClearOC2Ref                                   build/obj/stm32f4xx_tim.o
TIM_ClearOC3Ref                                   build/obj/stm32f4xx_tim.o
TIM_ClearOC4Ref                                   build/obj/stm32f4xx_tim.o
TIM_Cmd                                           build/obj/stm32f4xx_tim.o
                                                  build/obj/mcpwm_foc.o
                                                  build/obj/encoder.o
                                                  build/obj/ws2811.o
                                                  build/obj/mcpwm.o
TIM_CounterModeConfig                             build/obj/stm32f4xx_tim.o
TIM_CtrlPWMOutputs                                build/obj/stm32f4xx_tim.o
                                                  build/obj/mcpwm_foc.o
                                                  build/obj/ws2811.o
                                                  build/obj/mcpwm.o
TIM_DMACmd                                        build/obj/stm32f4xx_tim.o
                                                  build/obj/ws2811.o
TIM_DMAConfig                                     build/obj/stm32f4xx_tim.o
TIM_DeInit                                        build/obj/stm32f4xx_tim.o
                                                  build/obj/mcpwm_foc.o
                                                  build/obj/encoder.o
                                                  build/obj/mcpwm.o
TIM_ETRClockMode1Config                           build/obj/stm32f4xx_tim.o
TIM_ETRClockMode2Config                           build/obj/stm32f4xx_tim.o
TIM_ETRConfig                                     build/obj/stm32f4xx_tim.o
TIM_EncoderInterfaceConfig                        build/obj/stm32f4xx_tim.o
                                                  build/obj/encoder.o
TIM_ForcedOC1Config                               build/obj/stm32f4xx_tim.o
TIM_ForcedOC2Config                               build/obj/stm32f4xx_tim.o
TIM_ForcedOC3Config                               build/obj/stm32f4xx_tim.o
TIM_ForcedOC4Config                               build/obj/stm32f4xx_tim.o
TIM_GenerateEvent                                 build/obj/stm32f4xx_tim.o
                                                  build/obj/mcpwm_foc.o
                                                  build/obj/mcpwm.o
TIM_GetCapture1                                   build/obj/stm32f4xx_tim.o
TIM_GetCapture2                                   build/obj/stm32f4xx_tim.o
TIM_GetCapture3                                   build/obj/stm32f4xx_tim.o
TIM_GetCapture4                                   build/obj/stm32f4xx_tim.o
TIM_GetCounter                                    build/obj/stm32f4xx_tim.o
TIM_GetFlagStatus                                 build/obj/stm32f4xx_tim.o
TIM_GetITStatus                                   build/obj/stm32f4xx_tim.o
                                                  build/obj/irq_handlers.o
TIM_GetPrescaler                                  build/obj/stm32f4xx_tim.o
TIM_ICInit                                        build/obj/stm32f4xx_tim.o
TIM_ICStructInit                                  build/obj/stm32f4xx_tim.o
TIM_ITConfig                                      build/obj/stm32f4xx_tim.o
                                                  build/obj/mcpwm_foc.o
                                                  build/obj/encoder.o
TIM_ITRxExternalClockConfig                       build/obj/stm32f4xx_tim.o
TIM_InternalClockConfig                           build/obj/stm32f4xx_tim.o
TIM_OC1FastConfig                                 build/obj/stm32f4xx_tim.o
TIM_OC1Init                                       build/obj/stm32f4xx_tim.o
                                                  build/obj/mcpwm_foc.o
                                                  build/obj/mcpwm.o
TIM_OC1NPolarityConfig                            build/obj/stm32f4xx_tim.o
TIM_OC1PolarityConfig                             build/obj/stm32f4xx_tim.o
TIM_OC1PreloadConfig                              build/obj/stm32f4xx_tim.o
                                                  build/obj/mcpwm_foc.o
                                                  build/obj/mcpwm.o
TIM_OC2FastConfig                                 build/obj/stm32f4xx_tim.o
TIM_OC2Init                                       build/obj/stm32f4xx_tim.o
                                                  build/obj/mcpwm_foc.o
                                                  build/obj/ws2811.o
                                                  build/obj/mcpwm.o
TIM_OC2NPolarityConfig                            build/obj/stm32f4xx_tim.o
TIM_OC2PolarityConfig                             build/obj/stm32f4xx_tim.o
TIM_OC2PreloadConfig                              build/obj/stm32f4xx_tim.o
                                                  build/obj/mcpwm_foc.o
                                                  build/obj/ws2811.o
                                                  build/obj/mcpwm.o
TIM_OC3FastConfig                                 build/obj/stm32f4xx_tim.o
TIM_OC3Init                                       build/obj/stm32f4xx_tim.o
                                                  build/obj/mcpwm_foc.o
                                                  build/obj/mcpwm.o
TIM_OC3NPolarityConfig                            build/obj/stm32f4xx_tim.o
TIM_OC3PolarityConfig                             build/obj/stm32f4xx_tim.o
TIM_OC3PreloadConfig                              build/obj/stm32f4xx_tim.o
                                                  build/obj/mcpwm_foc.o
                                                  build/obj/mcpwm.o
TIM_OC4FastConfig                                 build/obj/stm32f4xx_tim.o
TIM_OC4Init                                       build/obj/stm32f4xx_tim.o
                                                  build/obj/mcpwm_foc.o
                                                  build/obj/mcpwm.o
TIM_OC4PolarityConfig                             build/obj/stm32f4xx_tim.o
TIM_OC4PreloadConfig                              build/obj/stm32f4xx_tim.o
                                                  build/obj/mcpwm_foc.o
                                                  build/obj/mcpwm.o
TIM_OCStructInit                                  build/obj/stm32f4xx_tim.o
TIM_PWMIConfig                                    build/obj/stm32f4xx_tim.o
TIM_PrescalerConfig                               build/obj/stm32f4xx_tim.o
TIM_RemapConfig                                   build/obj/stm32f4xx_tim.o
TIM_SelectCCDMA                                   build/obj/stm32f4xx_tim.o
TIM_SelectCOM                                     build/obj/stm32f4xx_tim.o
TIM_SelectHallSensor                              build/obj/stm32f4xx_tim.o
TIM_SelectInputTrigger                            build/obj/stm32f4xx_tim.o
                                                  build/obj/mcpwm_foc.o
                                                  build/obj/mcpwm.o
TIM_SelectMasterSlaveMode                         build/obj/stm32f4xx_tim.o
                                                  build/obj/mcpwm_foc.o
                                                  build/obj/mcpwm.o
TIM_SelectOCxM                                    build/obj/stm32f4xx_tim.o
                                                  build/obj/mcpwm_foc.o
                                                  build/obj/mcpwm.o
TIM_SelectOnePulseMode                            build/obj/stm32f4xx_tim.o
TIM_SelectOutputTrigger                           build/obj/stm32f4xx_tim.o
                                                  build/obj/mcpwm_foc.o
                                                  build/obj/mcpwm.o
TIM_SelectSlaveMode                               build/obj/stm32f4xx_tim.o
                                                  build/obj/mcpwm_foc.o
                                                  build/obj/mcpwm.o
TIM_SetAutoreload                                 build/obj/stm32f4xx_tim.o
                                                  build/obj/encoder.o
TIM_SetClockDivision                              build/obj/stm32f4xx_tim.o
TIM_SetCompare1                                   build/obj/stm32f4xx_tim.o
TIM_SetCompare2                                   build/obj/stm32f4xx_tim.o
TIM_SetCompare3                                   build/obj/stm32f4xx_tim.o
TIM_SetCompare4                                   build/obj/stm32f4xx_tim.o
TIM_SetCounter                                    build/obj/stm32f4xx_tim.o
TIM_SetIC1Prescaler                               build/obj/stm32f4xx_tim.o
TIM_SetIC2Prescaler                               build/obj/stm32f4xx_tim.o
TIM_SetIC3Prescaler                               build/obj/stm32f4xx_tim.o
TIM_SetIC4Prescaler                               build/obj/stm32f4xx_tim.o
TIM_TIxExternalClockConfig                        build/obj/stm32f4xx_tim.o
TIM_TimeBaseInit                                  build/obj/stm32f4xx_tim.o
                                                  build/obj/mcpwm_foc.o
                                                  build/obj/encoder.o
                                                  build/obj/ws2811.o
                                                  build/obj/mcpwm.o
TIM_TimeBaseStructInit                            build/obj/stm32f4xx_tim.o
TIM_UpdateDisableConfig                           build/obj/stm32f4xx_tim.o
TIM_UpdateRequestConfig                           build/obj/stm32f4xx_tim.o
UARTD3                                            build/obj/uart_lld.o
UARTD6                                            build/obj/uart_lld.o
                                                  build/obj/app_uartcomm.o
                                                  build/obj/flash_helper.o
USBD1                                             build/obj/usb_lld.o
                                                  build/obj/flash_helper.o
                                                  build/obj/comm_usb_serial.o
UsageFault_Handler                                build/obj/vectors.o
Vector100                                         build/obj/vectors.o
Vector104                                         build/obj/vectors.o
Vector108                                         build/obj/vectors.o
Vector10C                                         build/obj/vectors.o
Vector110                                         build/obj/vectors.o
Vector114                                         build/obj/vectors.o
Vector118                                         build/obj/vectors.o
Vector11C                                         build/obj/vectors.o
Vector120                                         build/obj/stm32_dma.o
                                                  build/obj/vectors.o
Vector124                                         build/obj/stm32_dma.o
                                                  build/obj/vectors.o
Vector128                                         build/obj/stm32_dma.o
                                                  build/obj/vectors.o
Vector12C                                         build/obj/stm32_dma.o
                                                  build/obj/vectors.o
Vector130                                         build/obj/stm32_dma.o
                                                  build/obj/vectors.o
Vector134                                         build/obj/vectors.o
Vector138                                         build/obj/vectors.o
Vector13C                                         build/obj/vectors.o
Vector140                                         build/obj/vectors.o
Vector144                                         build/obj/vectors.o
Vector148                                         build/obj/vectors.o
Vector14C                                         build/obj/usb_lld.o
                                                  build/obj/vectors.o
Vector150                                         build/obj/stm32_dma.o
                                                  build/obj/vectors.o
Vector154                                         build/obj/stm32_dma.o
                                                  build/obj/vectors.o
Vector158                                         build/obj/stm32_dma.o
                                                  build/obj/vectors.o
Vector15C                                         build/obj/uart_lld.o
                                                  build/obj/vectors.o
Vector160                                         build/obj/vectors.o
Vector164                                         build/obj/vectors.o
Vector168                                         build/obj/vectors.o
Vector16C                                         build/obj/vectors.o
Vector170                                         build/obj/vectors.o
Vector174                                         build/obj/vectors.o
Vector178                                         build/obj/vectors.o
Vector17C                                         build/obj/vectors.o
Vector180                                         build/obj/vectors.o
Vector184                                         build/obj/vectors.o
Vector188                                         build/obj/vectors.o
Vector18C                                         build/obj/vectors.o
Vector190                                         build/obj/vectors.o
Vector194                                         build/obj/vectors.o
Vector198                                         build/obj/vectors.o
Vector19C                                         build/obj/vectors.o
Vector1A0                                         build/obj/vectors.o
Vector1A4                                         build/obj/vectors.o
Vector1A8                                         build/obj/vectors.o
Vector1AC                                         build/obj/vectors.o
Vector1B0                                         build/obj/vectors.o
Vector1B4                                         build/obj/vectors.o
Vector1B8                                         build/obj/vectors.o
Vector1BC                                         build/obj/vectors.o
Vector1C                                          build/obj/vectors.o
Vector20                                          build/obj/vectors.o
Vector24                                          build/obj/vectors.o
Vector28                                          build/obj/vectors.o
Vector34                                          build/obj/vectors.o
Vector40                                          build/obj/vectors.o
Vector44                                          build/obj/vectors.o
Vector48                                          build/obj/vectors.o
Vector4C                                          build/obj/vectors.o
Vector50                                          build/obj/vectors.o
Vector54                                          build/obj/vectors.o
Vector58                                          build/obj/vectors.o
Vector5C                                          build/obj/vectors.o
Vector60                                          build/obj/vectors.o
Vector64                                          build/obj/vectors.o
Vector68                                          build/obj/vectors.o
Vector6C                                          build/obj/stm32_dma.o
                                                  build/obj/vectors.o
Vector70                                          build/obj/stm32_dma.o
                                                  build/obj/vectors.o
Vector74                                          build/obj/stm32_dma.o
                                                  build/obj/vectors.o
Vector78                                          build/obj/stm32_dma.o
                                                  build/obj/vectors.o
Vector7C                                          build/obj/stm32_dma.o
                                                  build/obj/vectors.o
Vector80                                          build/obj/stm32_dma.o
                                                  build/obj/vectors.o
Vector84                                          build/obj/stm32_dma.o
                                                  build/obj/vectors.o
Vector88                                          build/obj/irq_handlers.o
                                                  build/obj/vectors.o
Vector8C                                          build/obj/can_lld.o
                                                  build/obj/vectors.o
Vector90                                          build/obj/can_lld.o
                                                  build/obj/vectors.o
Vector94                                          build/obj/can_lld.o
                                                  build/obj/vectors.o
Vector98                                          build/obj/can_lld.o
                                                  build/obj/vectors.o
Vector9C                                          build/obj/vectors.o
VectorA0                                          build/obj/vectors.o
VectorA4                                          build/obj/vectors.o
VectorA8                                          build/obj/vectors.o
VectorAC                                          build/obj/vectors.o
VectorB0                                          build/obj/vectors.o
VectorB4                                          build/obj/icu_lld.o
                                                  build/obj/vectors.o
VectorB8                                          build/obj/irq_handlers.o
                                                  build/obj/vectors.o
VectorBC                                          build/obj/vectors.o
VectorC0                                          build/obj/vectors.o
VectorC4                                          build/obj/i2c_lld.o
                                                  build/obj/vectors.o
VectorC8                                          build/obj/i2c_lld.o
                                                  build/obj/vectors.o
VectorCC                                          build/obj/vectors.o
VectorD0                                          build/obj/vectors.o
VectorD4                                          build/obj/vectors.o
VectorD8                                          build/obj/vectors.o
VectorDC                                          build/obj/uart_lld.o
                                                  build/obj/vectors.o
VectorE0                                          build/obj/irq_handlers.o
                                                  build/obj/vectors.o
VectorE4                                          build/obj/vectors.o
VectorE8                                          build/obj/vectors.o
VectorEC                                          build/obj/vectors.o
VectorF0                                          build/obj/vectors.o
VectorF4                                          build/obj/vectors.o
VectorF8                                          build/obj/irq_handlers.o
                                                  build/obj/vectors.o
VectorFC                                          build/obj/stm32_dma.o
                                                  build/obj/vectors.o
VirtAddVarTab                                     build/obj/conf_general.o
                                                  build/obj/eeprom.o
WWDG_ClearFlag                                    build/obj/stm32f4xx_wwdg.o
WWDG_DeInit                                       build/obj/stm32f4xx_wwdg.o
                                                  build/obj/mcpwm_foc.o
                                                  build/obj/mcpwm.o
WWDG_Enable                                       build/obj/stm32f4xx_wwdg.o
                                                  build/obj/mcpwm_foc.o
                                                  build/obj/mcpwm.o
WWDG_EnableIT                                     build/obj/stm32f4xx_wwdg.o
WWDG_GetFlagStatus                                build/obj/stm32f4xx_wwdg.o
WWDG_SetCounter                                   build/obj/stm32f4xx_wwdg.o
                                                  build/obj/mcpwm_foc.o
                                                  build/obj/mcpwm.o
WWDG_SetPrescaler                                 build/obj/stm32f4xx_wwdg.o
                                                  build/obj/mcpwm_foc.o
                                                  build/obj/mcpwm.o
WWDG_SetWindowValue                               build/obj/stm32f4xx_wwdg.o
                                                  build/obj/mcpwm_foc.o
                                                  build/obj/mcpwm.o
_Balloc                                           /usr/lib/gcc/arm-none-eabi/4.8/../../../arm-none-eabi/lib/armv7e-m/fpu/libg.a(lib_a-mprec.o)
                                                  /usr/lib/gcc/arm-none-eabi/4.8/../../../arm-none-eabi/lib/armv7e-m/fpu/libg.a(lib_a-gdtoa-gethex.o)
                                                  /usr/lib/gcc/arm-none-eabi/4.8/../../../arm-none-eabi/lib/armv7e-m/fpu/libg.a(lib_a-dtoa.o)
                                                  /usr/lib/gcc/arm-none-eabi/4.8/../../../arm-none-eabi/lib/armv7e-m/fpu/libg.a(lib_a-strtod.o)
_Bfree                                            /usr/lib/gcc/arm-none-eabi/4.8/../../../arm-none-eabi/lib/armv7e-m/fpu/libg.a(lib_a-mprec.o)
                                                  /usr/lib/gcc/arm-none-eabi/4.8/../../../arm-none-eabi/lib/armv7e-m/fpu/libg.a(lib_a-gdtoa-gethex.o)
                                                  /usr/lib/gcc/arm-none-eabi/4.8/../../../arm-none-eabi/lib/armv7e-m/fpu/libg.a(lib_a-dtoa.o)
                                                  /usr/lib/gcc/arm-none-eabi/4.8/../../../arm-none-eabi/lib/armv7e-m/fpu/libg.a(lib_a-strtod.o)
_PathLocale                                       /usr/lib/gcc/arm-none-eabi/4.8/../../../arm-none-eabi/lib/armv7e-m/fpu/libg.a(lib_a-locale.o)
__adddf3                                          /usr/lib/gcc/arm-none-eabi/4.8/armv7e-m/fpu/libgcc.a(_arm_addsubdf3.o)
__aeabi_cdcmpeq                                   /usr/lib/gcc/arm-none-eabi/4.8/armv7e-m/fpu/libgcc.a(_arm_cmpdf2.o)
__aeabi_cdcmple                                   /usr/lib/gcc/arm-none-eabi/4.8/armv7e-m/fpu/libgcc.a(_arm_cmpdf2.o)
__aeabi_cdrcmple                                  /usr/lib/gcc/arm-none-eabi/4.8/armv7e-m/fpu/libgcc.a(_arm_cmpdf2.o)
__aeabi_d2f                                       /usr/lib/gcc/arm-none-eabi/4.8/armv7e-m/fpu/libgcc.a(_arm_truncdfsf2.o)
                                                  /usr/lib/gcc/arm-none-eabi/4.8/../../../arm-none-eabi/lib/armv7e-m/fpu/libg.a(lib_a-strtod.o)
                                                  /usr/lib/gcc/arm-none-eabi/4.8/../../../arm-none-eabi/lib/armv7e-m/fpu/libg.a(lib_a-svfscanf.o)
                                                  /usr/lib/gcc/arm-none-eabi/4.8/../../../arm-none-eabi/lib/armv7e-m/fpu/libm.a(lib_a-wf_sqrt.o)
                                                  /usr/lib/gcc/arm-none-eabi/4.8/../../../arm-none-eabi/lib/armv7e-m/fpu/libm.a(lib_a-wf_pow.o)
                                                  /usr/lib/gcc/arm-none-eabi/4.8/../../../arm-none-eabi/lib/armv7e-m/fpu/libm.a(lib_a-wf_log.o)
                                                  /usr/lib/gcc/arm-none-eabi/4.8/../../../arm-none-eabi/lib/armv7e-m/fpu/libm.a(lib_a-wf_fmod.o)
                                                  /usr/lib/gcc/arm-none-eabi/4.8/../../../arm-none-eabi/lib/armv7e-m/fpu/libm.a(lib_a-wf_exp.o)
                                                  /usr/lib/gcc/arm-none-eabi/4.8/../../../arm-none-eabi/lib/armv7e-m/fpu/libm.a(lib_a-wf_asin.o)
                                                  build/obj/digital_filter.o
                                                  build/obj/chprintf.o
__aeabi_d2iz                                      /usr/lib/gcc/arm-none-eabi/4.8/armv7e-m/fpu/libgcc.a(_arm_fixdfsi.o)
                                                  /usr/lib/gcc/arm-none-eabi/4.8/../../../arm-none-eabi/lib/armv7e-m/fpu/libg.a(lib_a-dtoa.o)
                                                  /usr/lib/gcc/arm-none-eabi/4.8/../../../arm-none-eabi/lib/armv7e-m/fpu/libg.a(lib_a-strtod.o)
                                                  build/obj/chprintf.o
__aeabi_d2uiz                                     /usr/lib/gcc/arm-none-eabi/4.8/armv7e-m/fpu/libgcc.a(_arm_fixunsdfsi.o)
                                                  /usr/lib/gcc/arm-none-eabi/4.8/../../../arm-none-eabi/lib/armv7e-m/fpu/libg.a(lib_a-strtod.o)
__aeabi_dadd                                      /usr/lib/gcc/arm-none-eabi/4.8/armv7e-m/fpu/libgcc.a(_arm_addsubdf3.o)
                                                  /usr/lib/gcc/arm-none-eabi/4.8/../../../arm-none-eabi/lib/armv7e-m/fpu/libg.a(lib_a-dtoa.o)
                                                  /usr/lib/gcc/arm-none-eabi/4.8/../../../arm-none-eabi/lib/armv7e-m/fpu/libg.a(lib_a-strtod.o)
                                                  /usr/lib/gcc/arm-none-eabi/4.8/../../../arm-none-eabi/lib/armv7e-m/fpu/libm.a(lib_a-s_rint.o)
                                                  /usr/lib/gcc/arm-none-eabi/4.8/../../../arm-none-eabi/lib/armv7e-m/fpu/libm.a(lib_a-e_sqrt.o)
__aeabi_dcmpeq                                    /usr/lib/gcc/arm-none-eabi/4.8/armv7e-m/fpu/libgcc.a(_arm_cmpdf2.o)
                                                  /usr/lib/gcc/arm-none-eabi/4.8/../../../arm-none-eabi/lib/armv7e-m/fpu/libg.a(lib_a-dtoa.o)
                                                  /usr/lib/gcc/arm-none-eabi/4.8/../../../arm-none-eabi/lib/armv7e-m/fpu/libg.a(lib_a-svfprintf.o)
                                                  /usr/lib/gcc/arm-none-eabi/4.8/../../../arm-none-eabi/lib/armv7e-m/fpu/libg.a(lib_a-strtod.o)
                                                  /usr/lib/gcc/arm-none-eabi/4.8/../../../arm-none-eabi/lib/armv7e-m/fpu/libm.a(lib_a-wf_pow.o)
__aeabi_dcmpge                                    /usr/lib/gcc/arm-none-eabi/4.8/armv7e-m/fpu/libgcc.a(_arm_cmpdf2.o)
                                                  /usr/lib/gcc/arm-none-eabi/4.8/../../../arm-none-eabi/lib/armv7e-m/fpu/libg.a(lib_a-dtoa.o)
__aeabi_dcmpgt                                    /usr/lib/gcc/arm-none-eabi/4.8/armv7e-m/fpu/libgcc.a(_arm_cmpdf2.o)
                                                  /usr/lib/gcc/arm-none-eabi/4.8/../../../arm-none-eabi/lib/armv7e-m/fpu/libg.a(lib_a-dtoa.o)
                                                  /usr/lib/gcc/arm-none-eabi/4.8/../../../arm-none-eabi/lib/armv7e-m/fpu/libg.a(lib_a-strtod.o)
__aeabi_dcmple                                    /usr/lib/gcc/arm-none-eabi/4.8/armv7e-m/fpu/libgcc.a(_arm_cmpdf2.o)
                                                  /usr/lib/gcc/arm-none-eabi/4.8/../../../arm-none-eabi/lib/armv7e-m/fpu/libg.a(lib_a-strtod.o)
__aeabi_dcmplt                                    /usr/lib/gcc/arm-none-eabi/4.8/armv7e-m/fpu/libgcc.a(_arm_cmpdf2.o)
                                                  /usr/lib/gcc/arm-none-eabi/4.8/../../../arm-none-eabi/lib/armv7e-m/fpu/libg.a(lib_a-dtoa.o)
                                                  /usr/lib/gcc/arm-none-eabi/4.8/../../../arm-none-eabi/lib/armv7e-m/fpu/libg.a(lib_a-svfprintf.o)
                                                  /usr/lib/gcc/arm-none-eabi/4.8/../../../arm-none-eabi/lib/armv7e-m/fpu/libg.a(lib_a-strtod.o)
                                                  /usr/lib/gcc/arm-none-eabi/4.8/../../../arm-none-eabi/lib/armv7e-m/fpu/libm.a(lib_a-w_sqrt.o)
__aeabi_ddiv                                      /usr/lib/gcc/arm-none-eabi/4.8/armv7e-m/fpu/libgcc.a(_arm_muldivdf3.o)
                                                  /usr/lib/gcc/arm-none-eabi/4.8/../../../arm-none-eabi/lib/armv7e-m/fpu/libg.a(lib_a-mprec.o)
                                                  /usr/lib/gcc/arm-none-eabi/4.8/../../../arm-none-eabi/lib/armv7e-m/fpu/libg.a(lib_a-dtoa.o)
                                                  /usr/lib/gcc/arm-none-eabi/4.8/../../../arm-none-eabi/lib/armv7e-m/fpu/libg.a(lib_a-strtod.o)
                                                  /usr/lib/gcc/arm-none-eabi/4.8/../../../arm-none-eabi/lib/armv7e-m/fpu/libm.a(lib_a-e_sqrt.o)
                                                  /usr/lib/gcc/arm-none-eabi/4.8/../../../arm-none-eabi/lib/armv7e-m/fpu/libm.a(lib_a-w_sqrt.o)
                                                  /usr/lib/gcc/arm-none-eabi/4.8/../../../arm-none-eabi/lib/armv7e-m/fpu/libm.a(lib_a-wf_sqrt.o)
                                                  /usr/lib/gcc/arm-none-eabi/4.8/../../../arm-none-eabi/lib/armv7e-m/fpu/libm.a(lib_a-wf_pow.o)
                                                  /usr/lib/gcc/arm-none-eabi/4.8/../../../arm-none-eabi/lib/armv7e-m/fpu/libm.a(lib_a-wf_fmod.o)
__aeabi_dmul                                      /usr/lib/gcc/arm-none-eabi/4.8/armv7e-m/fpu/libgcc.a(_arm_muldivdf3.o)
                                                  /usr/lib/gcc/arm-none-eabi/4.8/../../../arm-none-eabi/lib/armv7e-m/fpu/libg.a(lib_a-mprec.o)
                                                  /usr/lib/gcc/arm-none-eabi/4.8/../../../arm-none-eabi/lib/armv7e-m/fpu/libg.a(lib_a-dtoa.o)
                                                  /usr/lib/gcc/arm-none-eabi/4.8/../../../arm-none-eabi/lib/armv7e-m/fpu/libg.a(lib_a-strtod.o)
                                                  /usr/lib/gcc/arm-none-eabi/4.8/../../../arm-none-eabi/lib/armv7e-m/fpu/libm.a(lib_a-e_sqrt.o)
                                                  build/obj/chprintf.o
__aeabi_drsub                                     /usr/lib/gcc/arm-none-eabi/4.8/armv7e-m/fpu/libgcc.a(_arm_addsubdf3.o)
__aeabi_dsub                                      /usr/lib/gcc/arm-none-eabi/4.8/armv7e-m/fpu/libgcc.a(_arm_addsubdf3.o)
                                                  /usr/lib/gcc/arm-none-eabi/4.8/../../../arm-none-eabi/lib/armv7e-m/fpu/libg.a(lib_a-dtoa.o)
                                                  /usr/lib/gcc/arm-none-eabi/4.8/../../../arm-none-eabi/lib/armv7e-m/fpu/libg.a(lib_a-strtod.o)
                                                  /usr/lib/gcc/arm-none-eabi/4.8/../../../arm-none-eabi/lib/armv7e-m/fpu/libm.a(lib_a-s_rint.o)
                                                  /usr/lib/gcc/arm-none-eabi/4.8/../../../arm-none-eabi/lib/armv7e-m/fpu/libm.a(lib_a-e_sqrt.o)
                                                  build/obj/chprintf.o
__aeabi_f2d                                       /usr/lib/gcc/arm-none-eabi/4.8/armv7e-m/fpu/libgcc.a(_arm_addsubdf3.o)
                                                  /usr/lib/gcc/arm-none-eabi/4.8/../../../arm-none-eabi/lib/armv7e-m/fpu/libm.a(lib_a-wf_sqrt.o)
                                                  /usr/lib/gcc/arm-none-eabi/4.8/../../../arm-none-eabi/lib/armv7e-m/fpu/libm.a(lib_a-wf_pow.o)
                                                  /usr/lib/gcc/arm-none-eabi/4.8/../../../arm-none-eabi/lib/armv7e-m/fpu/libm.a(lib_a-wf_log.o)
                                                  /usr/lib/gcc/arm-none-eabi/4.8/../../../arm-none-eabi/lib/armv7e-m/fpu/libm.a(lib_a-wf_fmod.o)
                                                  /usr/lib/gcc/arm-none-eabi/4.8/../../../arm-none-eabi/lib/armv7e-m/fpu/libm.a(lib_a-wf_exp.o)
                                                  /usr/lib/gcc/arm-none-eabi/4.8/../../../arm-none-eabi/lib/armv7e-m/fpu/libm.a(lib_a-wf_asin.o)
                                                  build/obj/mcpwm_foc.o
                                                  build/obj/terminal.o
                                                  build/obj/digital_filter.o
                                                  build/obj/chprintf.o
__aeabi_i2d                                       /usr/lib/gcc/arm-none-eabi/4.8/armv7e-m/fpu/libgcc.a(_arm_addsubdf3.o)
                                                  /usr/lib/gcc/arm-none-eabi/4.8/../../../arm-none-eabi/lib/armv7e-m/fpu/libg.a(lib_a-dtoa.o)
                                                  /usr/lib/gcc/arm-none-eabi/4.8/../../../arm-none-eabi/lib/armv7e-m/fpu/libg.a(lib_a-strtod.o)
                                                  build/obj/chprintf.o
__aeabi_idiv0                                     /usr/lib/gcc/arm-none-eabi/4.8/armv7e-m/fpu/libgcc.a(_dvmd_tls.o)
__aeabi_l2d                                       /usr/lib/gcc/arm-none-eabi/4.8/armv7e-m/fpu/libgcc.a(_arm_addsubdf3.o)
__aeabi_ldiv0                                     /usr/lib/gcc/arm-none-eabi/4.8/armv7e-m/fpu/libgcc.a(_dvmd_tls.o)
                                                  /usr/lib/gcc/arm-none-eabi/4.8/armv7e-m/fpu/libgcc.a(_aeabi_uldivmod.o)
__aeabi_ui2d                                      /usr/lib/gcc/arm-none-eabi/4.8/armv7e-m/fpu/libgcc.a(_arm_addsubdf3.o)
                                                  /usr/lib/gcc/arm-none-eabi/4.8/../../../arm-none-eabi/lib/armv7e-m/fpu/libg.a(lib_a-dtoa.o)
                                                  /usr/lib/gcc/arm-none-eabi/4.8/../../../arm-none-eabi/lib/armv7e-m/fpu/libg.a(lib_a-strtod.o)
                                                  build/obj/chprintf.o
__aeabi_ul2d                                      /usr/lib/gcc/arm-none-eabi/4.8/armv7e-m/fpu/libgcc.a(_arm_addsubdf3.o)
__aeabi_uldivmod                                  /usr/lib/gcc/arm-none-eabi/4.8/armv7e-m/fpu/libgcc.a(_aeabi_uldivmod.o)
                                                  /usr/lib/gcc/arm-none-eabi/4.8/../../../arm-none-eabi/lib/armv7e-m/fpu/libg.a(lib_a-svfiprintf.o)
                                                  /usr/lib/gcc/arm-none-eabi/4.8/../../../arm-none-eabi/lib/armv7e-m/fpu/libg.a(lib_a-svfprintf.o)
                                                  /usr/lib/gcc/arm-none-eabi/4.8/../../../arm-none-eabi/lib/armv7e-m/fpu/libg.a(lib_a-strtoull_r.o)
                                                  /usr/lib/gcc/arm-none-eabi/4.8/../../../arm-none-eabi/lib/armv7e-m/fpu/libg.a(lib_a-strtoll_r.o)
__any_on                                          /usr/lib/gcc/arm-none-eabi/4.8/../../../arm-none-eabi/lib/armv7e-m/fpu/libg.a(lib_a-mprec.o)
                                                  /usr/lib/gcc/arm-none-eabi/4.8/../../../arm-none-eabi/lib/armv7e-m/fpu/libg.a(lib_a-gdtoa-gethex.o)
__ascii_mbtowc                                    /usr/lib/gcc/arm-none-eabi/4.8/../../../arm-none-eabi/lib/armv7e-m/fpu/libg.a(lib_a-mbtowc_r.o)
__b2d                                             /usr/lib/gcc/arm-none-eabi/4.8/../../../arm-none-eabi/lib/armv7e-m/fpu/libg.a(lib_a-mprec.o)
__cmpdf2                                          /usr/lib/gcc/arm-none-eabi/4.8/armv7e-m/fpu/libgcc.a(_arm_cmpdf2.o)
__copybits                                        /usr/lib/gcc/arm-none-eabi/4.8/../../../arm-none-eabi/lib/armv7e-m/fpu/libg.a(lib_a-mprec.o)
                                                  /usr/lib/gcc/arm-none-eabi/4.8/../../../arm-none-eabi/lib/armv7e-m/fpu/libg.a(lib_a-strtod.o)
__core_init                                       build/obj/crt1.o
                                                  build/obj/crt0_v7m.o
__ctype_ptr__                                     /usr/lib/gcc/arm-none-eabi/4.8/../../../arm-none-eabi/lib/armv7e-m/fpu/libg.a(lib_a-ctype_.o)
                                                  /usr/lib/gcc/arm-none-eabi/4.8/../../../arm-none-eabi/lib/armv7e-m/fpu/libg.a(lib_a-svfiscanf.o)
                                                  /usr/lib/gcc/arm-none-eabi/4.8/../../../arm-none-eabi/lib/armv7e-m/fpu/libg.a(lib_a-strtoul.o)
                                                  /usr/lib/gcc/arm-none-eabi/4.8/../../../arm-none-eabi/lib/armv7e-m/fpu/libg.a(lib_a-strtoull_r.o)
                                                  /usr/lib/gcc/arm-none-eabi/4.8/../../../arm-none-eabi/lib/armv7e-m/fpu/libg.a(lib_a-strtol.o)
                                                  /usr/lib/gcc/arm-none-eabi/4.8/../../../arm-none-eabi/lib/armv7e-m/fpu/libg.a(lib_a-strtoll_r.o)
                                                  /usr/lib/gcc/arm-none-eabi/4.8/../../../arm-none-eabi/lib/armv7e-m/fpu/libg.a(lib_a-iswspace.o)
                                                  /usr/lib/gcc/arm-none-eabi/4.8/../../../arm-none-eabi/lib/armv7e-m/fpu/libg.a(lib_a-svfscanf.o)
__d2b                                             /usr/lib/gcc/arm-none-eabi/4.8/../../../arm-none-eabi/lib/armv7e-m/fpu/libg.a(lib_a-mprec.o)
                                                  /usr/lib/gcc/arm-none-eabi/4.8/../../../arm-none-eabi/lib/armv7e-m/fpu/libg.a(lib_a-dtoa.o)
                                                  /usr/lib/gcc/arm-none-eabi/4.8/../../../arm-none-eabi/lib/armv7e-m/fpu/libg.a(lib_a-strtod.o)
__default_exit                                    build/obj/crt1.o
                                                  build/obj/crt0_v7m.o
__divdf3                                          /usr/lib/gcc/arm-none-eabi/4.8/armv7e-m/fpu/libgcc.a(_arm_muldivdf3.o)
__divdi3                                          /usr/lib/gcc/arm-none-eabi/4.8/armv7e-m/fpu/libgcc.a(_divdi3.o)
                                                  /usr/lib/gcc/arm-none-eabi/4.8/armv7e-m/fpu/libgcc.a(bpabi.o)
__early_init                                      build/obj/board.o
                                                  build/obj/crt1.o
                                                  build/obj/crt0_v7m.o
__eqdf2                                           /usr/lib/gcc/arm-none-eabi/4.8/armv7e-m/fpu/libgcc.a(_arm_cmpdf2.o)
__errno                                           /usr/lib/gcc/arm-none-eabi/4.8/../../../arm-none-eabi/lib/armv7e-m/fpu/libg.a(lib_a-errno.o)
                                                  /usr/lib/gcc/arm-none-eabi/4.8/../../../arm-none-eabi/lib/armv7e-m/fpu/libm.a(lib_a-w_sqrt.o)
                                                  /usr/lib/gcc/arm-none-eabi/4.8/../../../arm-none-eabi/lib/armv7e-m/fpu/libm.a(lib_a-wf_sqrt.o)
                                                  /usr/lib/gcc/arm-none-eabi/4.8/../../../arm-none-eabi/lib/armv7e-m/fpu/libm.a(lib_a-wf_pow.o)
                                                  /usr/lib/gcc/arm-none-eabi/4.8/../../../arm-none-eabi/lib/armv7e-m/fpu/libm.a(lib_a-wf_log.o)
                                                  /usr/lib/gcc/arm-none-eabi/4.8/../../../arm-none-eabi/lib/armv7e-m/fpu/libm.a(lib_a-wf_fmod.o)
                                                  /usr/lib/gcc/arm-none-eabi/4.8/../../../arm-none-eabi/lib/armv7e-m/fpu/libm.a(lib_a-wf_exp.o)
                                                  /usr/lib/gcc/arm-none-eabi/4.8/../../../arm-none-eabi/lib/armv7e-m/fpu/libm.a(lib_a-wf_asin.o)
                                                  /usr/lib/gcc/arm-none-eabi/4.8/../../../arm-none-eabi/lib/armv7e-m/fpu/libm.a(lib_a-sf_ldexp.o)
__extendsfdf2                                     /usr/lib/gcc/arm-none-eabi/4.8/armv7e-m/fpu/libgcc.a(_arm_addsubdf3.o)
__fdlib_version                                   /usr/lib/gcc/arm-none-eabi/4.8/../../../arm-none-eabi/lib/armv7e-m/fpu/libm.a(lib_a-s_lib_ver.o)
                                                  /usr/lib/gcc/arm-none-eabi/4.8/../../../arm-none-eabi/lib/armv7e-m/fpu/libm.a(lib_a-w_sqrt.o)
                                                  /usr/lib/gcc/arm-none-eabi/4.8/../../../arm-none-eabi/lib/armv7e-m/fpu/libm.a(lib_a-wf_sqrt.o)
                                                  /usr/lib/gcc/arm-none-eabi/4.8/../../../arm-none-eabi/lib/armv7e-m/fpu/libm.a(lib_a-wf_pow.o)
                                                  /usr/lib/gcc/arm-none-eabi/4.8/../../../arm-none-eabi/lib/armv7e-m/fpu/libm.a(lib_a-wf_log.o)
                                                  /usr/lib/gcc/arm-none-eabi/4.8/../../../arm-none-eabi/lib/armv7e-m/fpu/libm.a(lib_a-wf_fmod.o)
                                                  /usr/lib/gcc/arm-none-eabi/4.8/../../../arm-none-eabi/lib/armv7e-m/fpu/libm.a(lib_a-wf_exp.o)
                                                  /usr/lib/gcc/arm-none-eabi/4.8/../../../arm-none-eabi/lib/armv7e-m/fpu/libm.a(lib_a-wf_asin.o)
__fini_array_end                                  build/obj/crt0_v7m.o
__fini_array_start                                build/obj/crt0_v7m.o
__fixdfsi                                         /usr/lib/gcc/arm-none-eabi/4.8/armv7e-m/fpu/libgcc.a(_arm_fixdfsi.o)
__fixunsdfsi                                      /usr/lib/gcc/arm-none-eabi/4.8/armv7e-m/fpu/libgcc.a(_arm_fixunsdfsi.o)
__floatdidf                                       /usr/lib/gcc/arm-none-eabi/4.8/armv7e-m/fpu/libgcc.a(_arm_addsubdf3.o)
__floatsidf                                       /usr/lib/gcc/arm-none-eabi/4.8/armv7e-m/fpu/libgcc.a(_arm_addsubdf3.o)
__floatundidf                                     /usr/lib/gcc/arm-none-eabi/4.8/armv7e-m/fpu/libgcc.a(_arm_addsubdf3.o)
__floatunsidf                                     /usr/lib/gcc/arm-none-eabi/4.8/armv7e-m/fpu/libgcc.a(_arm_addsubdf3.o)
__fp_lock_all                                     /usr/lib/gcc/arm-none-eabi/4.8/../../../arm-none-eabi/lib/armv7e-m/fpu/libg.a(lib_a-findfp.o)
__fp_unlock_all                                   /usr/lib/gcc/arm-none-eabi/4.8/../../../arm-none-eabi/lib/armv7e-m/fpu/libg.a(lib_a-findfp.o)
__fpclassifyd                                     /usr/lib/gcc/arm-none-eabi/4.8/../../../arm-none-eabi/lib/armv7e-m/fpu/libm.a(lib_a-s_fpclassify.o)
                                                  /usr/lib/gcc/arm-none-eabi/4.8/../../../arm-none-eabi/lib/armv7e-m/fpu/libg.a(lib_a-svfprintf.o)
                                                  /usr/lib/gcc/arm-none-eabi/4.8/../../../arm-none-eabi/lib/armv7e-m/fpu/libg.a(lib_a-strtod.o)
                                                  /usr/lib/gcc/arm-none-eabi/4.8/../../../arm-none-eabi/lib/armv7e-m/fpu/libg.a(lib_a-svfscanf.o)
                                                  /usr/lib/gcc/arm-none-eabi/4.8/../../../arm-none-eabi/lib/armv7e-m/fpu/libm.a(lib_a-w_sqrt.o)
__fpclassifyf                                     /usr/lib/gcc/arm-none-eabi/4.8/../../../arm-none-eabi/lib/armv7e-m/fpu/libm.a(lib_a-sf_fpclassify.o)
                                                  /usr/lib/gcc/arm-none-eabi/4.8/../../../arm-none-eabi/lib/armv7e-m/fpu/libm.a(lib_a-wf_sqrt.o)
                                                  /usr/lib/gcc/arm-none-eabi/4.8/../../../arm-none-eabi/lib/armv7e-m/fpu/libm.a(lib_a-wf_pow.o)
                                                  /usr/lib/gcc/arm-none-eabi/4.8/../../../arm-none-eabi/lib/armv7e-m/fpu/libm.a(lib_a-wf_log.o)
                                                  /usr/lib/gcc/arm-none-eabi/4.8/../../../arm-none-eabi/lib/armv7e-m/fpu/libm.a(lib_a-wf_fmod.o)
                                                  /usr/lib/gcc/arm-none-eabi/4.8/../../../arm-none-eabi/lib/armv7e-m/fpu/libm.a(lib_a-wf_asin.o)
__gedf2                                           /usr/lib/gcc/arm-none-eabi/4.8/armv7e-m/fpu/libgcc.a(_arm_cmpdf2.o)
__gethex                                          /usr/lib/gcc/arm-none-eabi/4.8/../../../arm-none-eabi/lib/armv7e-m/fpu/libg.a(lib_a-gdtoa-gethex.o)
                                                  /usr/lib/gcc/arm-none-eabi/4.8/../../../arm-none-eabi/lib/armv7e-m/fpu/libg.a(lib_a-strtod.o)
__gnu_ldivmod_helper                              /usr/lib/gcc/arm-none-eabi/4.8/armv7e-m/fpu/libgcc.a(bpabi.o)
__gnu_uldivmod_helper                             /usr/lib/gcc/arm-none-eabi/4.8/armv7e-m/fpu/libgcc.a(bpabi.o)
                                                  /usr/lib/gcc/arm-none-eabi/4.8/armv7e-m/fpu/libgcc.a(_aeabi_uldivmod.o)
__gtdf2                                           /usr/lib/gcc/arm-none-eabi/4.8/armv7e-m/fpu/libgcc.a(_arm_cmpdf2.o)
__heap_base__                                     build/obj/chmemcore.o
__heap_end__                                      build/obj/chmemcore.o
__hexdig                                          /usr/lib/gcc/arm-none-eabi/4.8/../../../arm-none-eabi/lib/armv7e-m/fpu/libg.a(lib_a-gdtoa-gethex.o)
                                                  /usr/lib/gcc/arm-none-eabi/4.8/../../../arm-none-eabi/lib/armv7e-m/fpu/libg.a(lib_a-gdtoa-hexnan.o)
__hexnan                                          /usr/lib/gcc/arm-none-eabi/4.8/../../../arm-none-eabi/lib/armv7e-m/fpu/libg.a(lib_a-gdtoa-hexnan.o)
                                                  /usr/lib/gcc/arm-none-eabi/4.8/../../../arm-none-eabi/lib/armv7e-m/fpu/libg.a(lib_a-strtod.o)
__hi0bits                                         /usr/lib/gcc/arm-none-eabi/4.8/../../../arm-none-eabi/lib/armv7e-m/fpu/libg.a(lib_a-mprec.o)
                                                  /usr/lib/gcc/arm-none-eabi/4.8/../../../arm-none-eabi/lib/armv7e-m/fpu/libg.a(lib_a-gdtoa-gethex.o)
                                                  /usr/lib/gcc/arm-none-eabi/4.8/../../../arm-none-eabi/lib/armv7e-m/fpu/libg.a(lib_a-dtoa.o)
__i2b                                             /usr/lib/gcc/arm-none-eabi/4.8/../../../arm-none-eabi/lib/armv7e-m/fpu/libg.a(lib_a-mprec.o)
                                                  /usr/lib/gcc/arm-none-eabi/4.8/../../../arm-none-eabi/lib/armv7e-m/fpu/libg.a(lib_a-dtoa.o)
                                                  /usr/lib/gcc/arm-none-eabi/4.8/../../../arm-none-eabi/lib/armv7e-m/fpu/libg.a(lib_a-strtod.o)
__ieee754_asinf                                   /usr/lib/gcc/arm-none-eabi/4.8/../../../arm-none-eabi/lib/armv7e-m/fpu/libm.a(lib_a-ef_asin.o)
                                                  /usr/lib/gcc/arm-none-eabi/4.8/../../../arm-none-eabi/lib/armv7e-m/fpu/libm.a(lib_a-wf_asin.o)
__ieee754_atan2f                                  /usr/lib/gcc/arm-none-eabi/4.8/../../../arm-none-eabi/lib/armv7e-m/fpu/libm.a(lib_a-ef_atan2.o)
                                                  /usr/lib/gcc/arm-none-eabi/4.8/../../../arm-none-eabi/lib/armv7e-m/fpu/libm.a(lib_a-wf_atan2.o)
__ieee754_expf                                    /usr/lib/gcc/arm-none-eabi/4.8/../../../arm-none-eabi/lib/armv7e-m/fpu/libm.a(lib_a-ef_exp.o)
                                                  /usr/lib/gcc/arm-none-eabi/4.8/../../../arm-none-eabi/lib/armv7e-m/fpu/libm.a(lib_a-wf_exp.o)
__ieee754_fmodf                                   /usr/lib/gcc/arm-none-eabi/4.8/../../../arm-none-eabi/lib/armv7e-m/fpu/libm.a(lib_a-ef_fmod.o)
                                                  /usr/lib/gcc/arm-none-eabi/4.8/../../../arm-none-eabi/lib/armv7e-m/fpu/libm.a(lib_a-wf_fmod.o)
__ieee754_logf                                    /usr/lib/gcc/arm-none-eabi/4.8/../../../arm-none-eabi/lib/armv7e-m/fpu/libm.a(lib_a-ef_log.o)
                                                  /usr/lib/gcc/arm-none-eabi/4.8/../../../arm-none-eabi/lib/armv7e-m/fpu/libm.a(lib_a-wf_log.o)
__ieee754_powf                                    /usr/lib/gcc/arm-none-eabi/4.8/../../../arm-none-eabi/lib/armv7e-m/fpu/libm.a(lib_a-ef_pow.o)
                                                  /usr/lib/gcc/arm-none-eabi/4.8/../../../arm-none-eabi/lib/armv7e-m/fpu/libm.a(lib_a-wf_pow.o)
__ieee754_rem_pio2f                               /usr/lib/gcc/arm-none-eabi/4.8/../../../arm-none-eabi/lib/armv7e-m/fpu/libm.a(lib_a-ef_rem_pio2.o)
                                                  /usr/lib/gcc/arm-none-eabi/4.8/../../../arm-none-eabi/lib/armv7e-m/fpu/libm.a(lib_a-sf_sin.o)
                                                  /usr/lib/gcc/arm-none-eabi/4.8/../../../arm-none-eabi/lib/armv7e-m/fpu/libm.a(lib_a-sf_cos.o)
__ieee754_sqrt                                    /usr/lib/gcc/arm-none-eabi/4.8/../../../arm-none-eabi/lib/armv7e-m/fpu/libm.a(lib_a-e_sqrt.o)
                                                  /usr/lib/gcc/arm-none-eabi/4.8/../../../arm-none-eabi/lib/armv7e-m/fpu/libm.a(lib_a-w_sqrt.o)
__ieee754_sqrtf                                   /usr/lib/gcc/arm-none-eabi/4.8/../../../arm-none-eabi/lib/armv7e-m/fpu/libm.a(lib_a-ef_sqrt.o)
                                                  /usr/lib/gcc/arm-none-eabi/4.8/../../../arm-none-eabi/lib/armv7e-m/fpu/libm.a(lib_a-ef_pow.o)
                                                  /usr/lib/gcc/arm-none-eabi/4.8/../../../arm-none-eabi/lib/armv7e-m/fpu/libm.a(lib_a-ef_asin.o)
                                                  /usr/lib/gcc/arm-none-eabi/4.8/../../../arm-none-eabi/lib/armv7e-m/fpu/libm.a(lib_a-wf_sqrt.o)
__init_array_end                                  build/obj/crt0_v7m.o
__init_array_start                                build/obj/crt0_v7m.o
__kernel_cosf                                     /usr/lib/gcc/arm-none-eabi/4.8/../../../arm-none-eabi/lib/armv7e-m/fpu/libm.a(lib_a-kf_cos.o)
                                                  /usr/lib/gcc/arm-none-eabi/4.8/../../../arm-none-eabi/lib/armv7e-m/fpu/libm.a(lib_a-sf_sin.o)
                                                  /usr/lib/gcc/arm-none-eabi/4.8/../../../arm-none-eabi/lib/armv7e-m/fpu/libm.a(lib_a-sf_cos.o)
__kernel_rem_pio2f                                /usr/lib/gcc/arm-none-eabi/4.8/../../../arm-none-eabi/lib/armv7e-m/fpu/libm.a(lib_a-kf_rem_pio2.o)
                                                  /usr/lib/gcc/arm-none-eabi/4.8/../../../arm-none-eabi/lib/armv7e-m/fpu/libm.a(lib_a-ef_rem_pio2.o)
__kernel_sinf                                     /usr/lib/gcc/arm-none-eabi/4.8/../../../arm-none-eabi/lib/armv7e-m/fpu/libm.a(lib_a-kf_sin.o)
                                                  /usr/lib/gcc/arm-none-eabi/4.8/../../../arm-none-eabi/lib/armv7e-m/fpu/libm.a(lib_a-sf_sin.o)
                                                  /usr/lib/gcc/arm-none-eabi/4.8/../../../arm-none-eabi/lib/armv7e-m/fpu/libm.a(lib_a-sf_cos.o)
__late_init                                       build/obj/crt1.o
                                                  build/obj/crt0_v7m.o
__ledf2                                           /usr/lib/gcc/arm-none-eabi/4.8/armv7e-m/fpu/libgcc.a(_arm_cmpdf2.o)
__lo0bits                                         /usr/lib/gcc/arm-none-eabi/4.8/../../../arm-none-eabi/lib/armv7e-m/fpu/libg.a(lib_a-mprec.o)
__locale_charset                                  /usr/lib/gcc/arm-none-eabi/4.8/../../../arm-none-eabi/lib/armv7e-m/fpu/libg.a(lib_a-locale.o)
                                                  /usr/lib/gcc/arm-none-eabi/4.8/../../../arm-none-eabi/lib/armv7e-m/fpu/libg.a(lib_a-mbtowc_r.o)
                                                  /usr/lib/gcc/arm-none-eabi/4.8/../../../arm-none-eabi/lib/armv7e-m/fpu/libg.a(lib_a-mbrtowc.o)
__locale_cjk_lang                                 /usr/lib/gcc/arm-none-eabi/4.8/../../../arm-none-eabi/lib/armv7e-m/fpu/libg.a(lib_a-locale.o)
__locale_mb_cur_max                               /usr/lib/gcc/arm-none-eabi/4.8/../../../arm-none-eabi/lib/armv7e-m/fpu/libg.a(lib_a-locale.o)
                                                  /usr/lib/gcc/arm-none-eabi/4.8/../../../arm-none-eabi/lib/armv7e-m/fpu/libg.a(lib_a-svfiscanf.o)
                                                  /usr/lib/gcc/arm-none-eabi/4.8/../../../arm-none-eabi/lib/armv7e-m/fpu/libg.a(lib_a-svfscanf.o)
__locale_msgcharset                               /usr/lib/gcc/arm-none-eabi/4.8/../../../arm-none-eabi/lib/armv7e-m/fpu/libg.a(lib_a-locale.o)
__lshift                                          /usr/lib/gcc/arm-none-eabi/4.8/../../../arm-none-eabi/lib/armv7e-m/fpu/libg.a(lib_a-mprec.o)
                                                  /usr/lib/gcc/arm-none-eabi/4.8/../../../arm-none-eabi/lib/armv7e-m/fpu/libg.a(lib_a-gdtoa-gethex.o)
                                                  /usr/lib/gcc/arm-none-eabi/4.8/../../../arm-none-eabi/lib/armv7e-m/fpu/libg.a(lib_a-dtoa.o)
                                                  /usr/lib/gcc/arm-none-eabi/4.8/../../../arm-none-eabi/lib/armv7e-m/fpu/libg.a(lib_a-strtod.o)
__ltdf2                                           /usr/lib/gcc/arm-none-eabi/4.8/armv7e-m/fpu/libgcc.a(_arm_cmpdf2.o)
__main_stack_base__                               build/obj/crt0_v7m.o
__main_stack_end__                                build/obj/vectors.o
                                                  build/obj/crt0_v7m.o
__malloc_av_                                      /usr/lib/gcc/arm-none-eabi/4.8/../../../arm-none-eabi/lib/armv7e-m/fpu/libg.a(lib_a-mallocr.o)
                                                  /usr/lib/gcc/arm-none-eabi/4.8/../../../arm-none-eabi/lib/armv7e-m/fpu/libg.a(lib_a-reallocr.o)
                                                  /usr/lib/gcc/arm-none-eabi/4.8/../../../arm-none-eabi/lib/armv7e-m/fpu/libg.a(lib_a-freer.o)
__malloc_current_mallinfo                         /usr/lib/gcc/arm-none-eabi/4.8/../../../arm-none-eabi/lib/armv7e-m/fpu/libg.a(lib_a-mallocr.o)
                                                  /usr/lib/gcc/arm-none-eabi/4.8/../../../arm-none-eabi/lib/armv7e-m/fpu/libg.a(lib_a-freer.o)
__malloc_lock                                     /usr/lib/gcc/arm-none-eabi/4.8/../../../arm-none-eabi/lib/armv7e-m/fpu/libg.a(lib_a-mlock.o)
                                                  /usr/lib/gcc/arm-none-eabi/4.8/../../../arm-none-eabi/lib/armv7e-m/fpu/libg.a(lib_a-reallocr.o)
                                                  /usr/lib/gcc/arm-none-eabi/4.8/../../../arm-none-eabi/lib/armv7e-m/fpu/libg.a(lib_a-mallocr.o)
                                                  /usr/lib/gcc/arm-none-eabi/4.8/../../../arm-none-eabi/lib/armv7e-m/fpu/libg.a(lib_a-freer.o)
__malloc_max_sbrked_mem                           /usr/lib/gcc/arm-none-eabi/4.8/../../../arm-none-eabi/lib/armv7e-m/fpu/libg.a(lib_a-mallocr.o)
__malloc_max_total_mem                            /usr/lib/gcc/arm-none-eabi/4.8/../../../arm-none-eabi/lib/armv7e-m/fpu/libg.a(lib_a-mallocr.o)
__malloc_sbrk_base                                /usr/lib/gcc/arm-none-eabi/4.8/../../../arm-none-eabi/lib/armv7e-m/fpu/libg.a(lib_a-mallocr.o)
                                                  /usr/lib/gcc/arm-none-eabi/4.8/../../../arm-none-eabi/lib/armv7e-m/fpu/libg.a(lib_a-freer.o)
__malloc_top_pad                                  /usr/lib/gcc/arm-none-eabi/4.8/../../../arm-none-eabi/lib/armv7e-m/fpu/libg.a(lib_a-mallocr.o)
                                                  /usr/lib/gcc/arm-none-eabi/4.8/../../../arm-none-eabi/lib/armv7e-m/fpu/libg.a(lib_a-freer.o)
__malloc_trim_threshold                           /usr/lib/gcc/arm-none-eabi/4.8/../../../arm-none-eabi/lib/armv7e-m/fpu/libg.a(lib_a-mallocr.o)
                                                  /usr/lib/gcc/arm-none-eabi/4.8/../../../arm-none-eabi/lib/armv7e-m/fpu/libg.a(lib_a-freer.o)
__malloc_unlock                                   /usr/lib/gcc/arm-none-eabi/4.8/../../../arm-none-eabi/lib/armv7e-m/fpu/libg.a(lib_a-mlock.o)
                                                  /usr/lib/gcc/arm-none-eabi/4.8/../../../arm-none-eabi/lib/armv7e-m/fpu/libg.a(lib_a-reallocr.o)
                                                  /usr/lib/gcc/arm-none-eabi/4.8/../../../arm-none-eabi/lib/armv7e-m/fpu/libg.a(lib_a-mallocr.o)
                                                  /usr/lib/gcc/arm-none-eabi/4.8/../../../arm-none-eabi/lib/armv7e-m/fpu/libg.a(lib_a-freer.o)
__mb_cur_max                                      /usr/lib/gcc/arm-none-eabi/4.8/../../../arm-none-eabi/lib/armv7e-m/fpu/libg.a(lib_a-locale.o)
__mbtowc                                          /usr/lib/gcc/arm-none-eabi/4.8/../../../arm-none-eabi/lib/armv7e-m/fpu/libg.a(lib_a-mbtowc_r.o)
                                                  /usr/lib/gcc/arm-none-eabi/4.8/../../../arm-none-eabi/lib/armv7e-m/fpu/libg.a(lib_a-mbrtowc.o)
__mcmp                                            /usr/lib/gcc/arm-none-eabi/4.8/../../../arm-none-eabi/lib/armv7e-m/fpu/libg.a(lib_a-mprec.o)
                                                  /usr/lib/gcc/arm-none-eabi/4.8/../../../arm-none-eabi/lib/armv7e-m/fpu/libg.a(lib_a-dtoa.o)
                                                  /usr/lib/gcc/arm-none-eabi/4.8/../../../arm-none-eabi/lib/armv7e-m/fpu/libg.a(lib_a-strtod.o)
__mdiff                                           /usr/lib/gcc/arm-none-eabi/4.8/../../../arm-none-eabi/lib/armv7e-m/fpu/libg.a(lib_a-mprec.o)
                                                  /usr/lib/gcc/arm-none-eabi/4.8/../../../arm-none-eabi/lib/armv7e-m/fpu/libg.a(lib_a-dtoa.o)
                                                  /usr/lib/gcc/arm-none-eabi/4.8/../../../arm-none-eabi/lib/armv7e-m/fpu/libg.a(lib_a-strtod.o)
__mlocale_changed                                 /usr/lib/gcc/arm-none-eabi/4.8/../../../arm-none-eabi/lib/armv7e-m/fpu/libg.a(lib_a-locale.o)
__mprec_bigtens                                   /usr/lib/gcc/arm-none-eabi/4.8/../../../arm-none-eabi/lib/armv7e-m/fpu/libg.a(lib_a-mprec.o)
                                                  /usr/lib/gcc/arm-none-eabi/4.8/../../../arm-none-eabi/lib/armv7e-m/fpu/libg.a(lib_a-dtoa.o)
                                                  /usr/lib/gcc/arm-none-eabi/4.8/../../../arm-none-eabi/lib/armv7e-m/fpu/libg.a(lib_a-strtod.o)
__mprec_tens                                      /usr/lib/gcc/arm-none-eabi/4.8/../../../arm-none-eabi/lib/armv7e-m/fpu/libg.a(lib_a-mprec.o)
                                                  /usr/lib/gcc/arm-none-eabi/4.8/../../../arm-none-eabi/lib/armv7e-m/fpu/libg.a(lib_a-dtoa.o)
                                                  /usr/lib/gcc/arm-none-eabi/4.8/../../../arm-none-eabi/lib/armv7e-m/fpu/libg.a(lib_a-strtod.o)
__mprec_tinytens                                  /usr/lib/gcc/arm-none-eabi/4.8/../../../arm-none-eabi/lib/armv7e-m/fpu/libg.a(lib_a-mprec.o)
__muldf3                                          /usr/lib/gcc/arm-none-eabi/4.8/armv7e-m/fpu/libgcc.a(_arm_muldivdf3.o)
__multadd                                         /usr/lib/gcc/arm-none-eabi/4.8/../../../arm-none-eabi/lib/armv7e-m/fpu/libg.a(lib_a-mprec.o)
                                                  /usr/lib/gcc/arm-none-eabi/4.8/../../../arm-none-eabi/lib/armv7e-m/fpu/libg.a(lib_a-dtoa.o)
__multiply                                        /usr/lib/gcc/arm-none-eabi/4.8/../../../arm-none-eabi/lib/armv7e-m/fpu/libg.a(lib_a-mprec.o)
                                                  /usr/lib/gcc/arm-none-eabi/4.8/../../../arm-none-eabi/lib/armv7e-m/fpu/libg.a(lib_a-dtoa.o)
                                                  /usr/lib/gcc/arm-none-eabi/4.8/../../../arm-none-eabi/lib/armv7e-m/fpu/libg.a(lib_a-strtod.o)
__nedf2                                           /usr/lib/gcc/arm-none-eabi/4.8/armv7e-m/fpu/libgcc.a(_arm_cmpdf2.o)
__nlocale_changed                                 /usr/lib/gcc/arm-none-eabi/4.8/../../../arm-none-eabi/lib/armv7e-m/fpu/libg.a(lib_a-locale.o)
__pow5mult                                        /usr/lib/gcc/arm-none-eabi/4.8/../../../arm-none-eabi/lib/armv7e-m/fpu/libg.a(lib_a-mprec.o)
                                                  /usr/lib/gcc/arm-none-eabi/4.8/../../../arm-none-eabi/lib/armv7e-m/fpu/libg.a(lib_a-dtoa.o)
                                                  /usr/lib/gcc/arm-none-eabi/4.8/../../../arm-none-eabi/lib/armv7e-m/fpu/libg.a(lib_a-strtod.o)
__process_stack_base__                            build/obj/crt0_v7m.o
__process_stack_end__                             build/obj/crt0_v7m.o
__ratio                                           /usr/lib/gcc/arm-none-eabi/4.8/../../../arm-none-eabi/lib/armv7e-m/fpu/libg.a(lib_a-mprec.o)
                                                  /usr/lib/gcc/arm-none-eabi/4.8/../../../arm-none-eabi/lib/armv7e-m/fpu/libg.a(lib_a-strtod.o)
__s2b                                             /usr/lib/gcc/arm-none-eabi/4.8/../../../arm-none-eabi/lib/armv7e-m/fpu/libg.a(lib_a-mprec.o)
                                                  /usr/lib/gcc/arm-none-eabi/4.8/../../../arm-none-eabi/lib/armv7e-m/fpu/libg.a(lib_a-strtod.o)
__sccl                                            /usr/lib/gcc/arm-none-eabi/4.8/../../../arm-none-eabi/lib/armv7e-m/fpu/libg.a(lib_a-sccl.o)
                                                  /usr/lib/gcc/arm-none-eabi/4.8/../../../arm-none-eabi/lib/armv7e-m/fpu/libg.a(lib_a-svfiscanf.o)
                                                  /usr/lib/gcc/arm-none-eabi/4.8/../../../arm-none-eabi/lib/armv7e-m/fpu/libg.a(lib_a-svfscanf.o)
__sclose                                          /usr/lib/gcc/arm-none-eabi/4.8/../../../arm-none-eabi/lib/armv7e-m/fpu/libg.a(lib_a-stdio.o)
                                                  /usr/lib/gcc/arm-none-eabi/4.8/../../../arm-none-eabi/lib/armv7e-m/fpu/libg.a(lib_a-findfp.o)
__seofread                                        /usr/lib/gcc/arm-none-eabi/4.8/../../../arm-none-eabi/lib/armv7e-m/fpu/libg.a(lib_a-stdio.o)
                                                  /usr/lib/gcc/arm-none-eabi/4.8/../../../arm-none-eabi/lib/armv7e-m/fpu/libg.a(lib_a-sscanf.o)
__sflush_r                                        /usr/lib/gcc/arm-none-eabi/4.8/../../../arm-none-eabi/lib/armv7e-m/fpu/libg.a(lib_a-fflush.o)
                                                  /usr/lib/gcc/arm-none-eabi/4.8/../../../arm-none-eabi/lib/armv7e-m/fpu/libg.a(lib_a-fclose.o)
__sfmoreglue                                      /usr/lib/gcc/arm-none-eabi/4.8/../../../arm-none-eabi/lib/armv7e-m/fpu/libg.a(lib_a-findfp.o)
__sfp                                             /usr/lib/gcc/arm-none-eabi/4.8/../../../arm-none-eabi/lib/armv7e-m/fpu/libg.a(lib_a-findfp.o)
__sfp_lock_acquire                                /usr/lib/gcc/arm-none-eabi/4.8/../../../arm-none-eabi/lib/armv7e-m/fpu/libg.a(lib_a-findfp.o)
                                                  /usr/lib/gcc/arm-none-eabi/4.8/../../../arm-none-eabi/lib/armv7e-m/fpu/libg.a(lib_a-fclose.o)
__sfp_lock_release                                /usr/lib/gcc/arm-none-eabi/4.8/../../../arm-none-eabi/lib/armv7e-m/fpu/libg.a(lib_a-findfp.o)
                                                  /usr/lib/gcc/arm-none-eabi/4.8/../../../arm-none-eabi/lib/armv7e-m/fpu/libg.a(lib_a-fclose.o)
__sinit                                           /usr/lib/gcc/arm-none-eabi/4.8/../../../arm-none-eabi/lib/armv7e-m/fpu/libg.a(lib_a-findfp.o)
                                                  /usr/lib/gcc/arm-none-eabi/4.8/../../../arm-none-eabi/lib/armv7e-m/fpu/libg.a(lib_a-fclose.o)
                                                  /usr/lib/gcc/arm-none-eabi/4.8/../../../arm-none-eabi/lib/armv7e-m/fpu/libg.a(lib_a-fflush.o)
                                                  /usr/lib/gcc/arm-none-eabi/4.8/../../../arm-none-eabi/lib/armv7e-m/fpu/libg.a(lib_a-ungetc.o)
__sinit_lock_acquire                              /usr/lib/gcc/arm-none-eabi/4.8/../../../arm-none-eabi/lib/armv7e-m/fpu/libg.a(lib_a-findfp.o)
__sinit_lock_release                              /usr/lib/gcc/arm-none-eabi/4.8/../../../arm-none-eabi/lib/armv7e-m/fpu/libg.a(lib_a-findfp.o)
__sread                                           /usr/lib/gcc/arm-none-eabi/4.8/../../../arm-none-eabi/lib/armv7e-m/fpu/libg.a(lib_a-stdio.o)
                                                  /usr/lib/gcc/arm-none-eabi/4.8/../../../arm-none-eabi/lib/armv7e-m/fpu/libg.a(lib_a-findfp.o)
__sseek                                           /usr/lib/gcc/arm-none-eabi/4.8/../../../arm-none-eabi/lib/armv7e-m/fpu/libg.a(lib_a-stdio.o)
                                                  /usr/lib/gcc/arm-none-eabi/4.8/../../../arm-none-eabi/lib/armv7e-m/fpu/libg.a(lib_a-findfp.o)
__ssprint_r                                       /usr/lib/gcc/arm-none-eabi/4.8/../../../arm-none-eabi/lib/armv7e-m/fpu/libg.a(lib_a-svfiprintf.o)
                                                  /usr/lib/gcc/arm-none-eabi/4.8/../../../arm-none-eabi/lib/armv7e-m/fpu/libg.a(lib_a-svfprintf.o)
__ssrefill_r                                      /usr/lib/gcc/arm-none-eabi/4.8/../../../arm-none-eabi/lib/armv7e-m/fpu/libg.a(lib_a-svfiscanf.o)
                                                  /usr/lib/gcc/arm-none-eabi/4.8/../../../arm-none-eabi/lib/armv7e-m/fpu/libg.a(lib_a-svfscanf.o)
__ssvfiscanf_r                                    /usr/lib/gcc/arm-none-eabi/4.8/../../../arm-none-eabi/lib/armv7e-m/fpu/libg.a(lib_a-svfiscanf.o)
__ssvfscanf_r                                     /usr/lib/gcc/arm-none-eabi/4.8/../../../arm-none-eabi/lib/armv7e-m/fpu/libg.a(lib_a-svfscanf.o)
                                                  /usr/lib/gcc/arm-none-eabi/4.8/../../../arm-none-eabi/lib/armv7e-m/fpu/libg.a(lib_a-sscanf.o)
__strtok_r                                        /usr/lib/gcc/arm-none-eabi/4.8/../../../arm-none-eabi/lib/armv7e-m/fpu/libg.a(lib_a-strtok_r.o)
                                                  /usr/lib/gcc/arm-none-eabi/4.8/../../../arm-none-eabi/lib/armv7e-m/fpu/libg.a(lib_a-strtok.o)
__subdf3                                          /usr/lib/gcc/arm-none-eabi/4.8/armv7e-m/fpu/libgcc.a(_arm_addsubdf3.o)
__submore                                         /usr/lib/gcc/arm-none-eabi/4.8/../../../arm-none-eabi/lib/armv7e-m/fpu/libg.a(lib_a-ungetc.o)
                                                  /usr/lib/gcc/arm-none-eabi/4.8/../../../arm-none-eabi/lib/armv7e-m/fpu/libg.a(lib_a-svfiscanf.o)
__swrite                                          /usr/lib/gcc/arm-none-eabi/4.8/../../../arm-none-eabi/lib/armv7e-m/fpu/libg.a(lib_a-stdio.o)
                                                  /usr/lib/gcc/arm-none-eabi/4.8/../../../arm-none-eabi/lib/armv7e-m/fpu/libg.a(lib_a-findfp.o)
__truncdfsf2                                      /usr/lib/gcc/arm-none-eabi/4.8/armv7e-m/fpu/libgcc.a(_arm_truncdfsf2.o)
__udivdi3                                         /usr/lib/gcc/arm-none-eabi/4.8/armv7e-m/fpu/libgcc.a(_udivdi3.o)
                                                  /usr/lib/gcc/arm-none-eabi/4.8/armv7e-m/fpu/libgcc.a(bpabi.o)
__ulp                                             /usr/lib/gcc/arm-none-eabi/4.8/../../../arm-none-eabi/lib/armv7e-m/fpu/libg.a(lib_a-mprec.o)
                                                  /usr/lib/gcc/arm-none-eabi/4.8/../../../arm-none-eabi/lib/armv7e-m/fpu/libg.a(lib_a-strtod.o)
_bss_end                                          build/obj/crt0_v7m.o
_bss_start                                        build/obj/crt0_v7m.o
_calloc_r                                         /usr/lib/gcc/arm-none-eabi/4.8/../../../arm-none-eabi/lib/armv7e-m/fpu/libg.a(lib_a-callocr.o)
                                                  /usr/lib/gcc/arm-none-eabi/4.8/../../../arm-none-eabi/lib/armv7e-m/fpu/libg.a(lib_a-mprec.o)
_cleanup                                          /usr/lib/gcc/arm-none-eabi/4.8/../../../arm-none-eabi/lib/armv7e-m/fpu/libg.a(lib_a-findfp.o)
_cleanup_r                                        /usr/lib/gcc/arm-none-eabi/4.8/../../../arm-none-eabi/lib/armv7e-m/fpu/libg.a(lib_a-findfp.o)
_close_r                                          build/obj/syscalls.o
                                                  /usr/lib/gcc/arm-none-eabi/4.8/../../../arm-none-eabi/lib/armv7e-m/fpu/libg.a(lib_a-stdio.o)
_core_init                                        build/obj/chmemcore.o
                                                  build/obj/chsys.o
_ctype_                                           /usr/lib/gcc/arm-none-eabi/4.8/../../../arm-none-eabi/lib/armv7e-m/fpu/libg.a(lib_a-ctype_.o)
_data                                             build/obj/crt0_v7m.o
_dtoa_r                                           /usr/lib/gcc/arm-none-eabi/4.8/../../../arm-none-eabi/lib/armv7e-m/fpu/libg.a(lib_a-dtoa.o)
                                                  /usr/lib/gcc/arm-none-eabi/4.8/../../../arm-none-eabi/lib/armv7e-m/fpu/libg.a(lib_a-svfprintf.o)
_edata                                            build/obj/crt0_v7m.o
_fclose_r                                         /usr/lib/gcc/arm-none-eabi/4.8/../../../arm-none-eabi/lib/armv7e-m/fpu/libg.a(lib_a-fclose.o)
                                                  /usr/lib/gcc/arm-none-eabi/4.8/../../../arm-none-eabi/lib/armv7e-m/fpu/libg.a(lib_a-findfp.o)
_fflush_r                                         /usr/lib/gcc/arm-none-eabi/4.8/../../../arm-none-eabi/lib/armv7e-m/fpu/libg.a(lib_a-fflush.o)
                                                  /usr/lib/gcc/arm-none-eabi/4.8/../../../arm-none-eabi/lib/armv7e-m/fpu/libg.a(lib_a-ungetc.o)
_free_r                                           /usr/lib/gcc/arm-none-eabi/4.8/../../../arm-none-eabi/lib/armv7e-m/fpu/libg.a(lib_a-freer.o)
                                                  /usr/lib/gcc/arm-none-eabi/4.8/../../../arm-none-eabi/lib/armv7e-m/fpu/libg.a(lib_a-fclose.o)
                                                  /usr/lib/gcc/arm-none-eabi/4.8/../../../arm-none-eabi/lib/armv7e-m/fpu/libg.a(lib_a-svfiprintf.o)
                                                  /usr/lib/gcc/arm-none-eabi/4.8/../../../arm-none-eabi/lib/armv7e-m/fpu/libg.a(lib_a-reallocr.o)
                                                  /usr/lib/gcc/arm-none-eabi/4.8/../../../arm-none-eabi/lib/armv7e-m/fpu/libg.a(lib_a-mallocr.o)
                                                  /usr/lib/gcc/arm-none-eabi/4.8/../../../arm-none-eabi/lib/armv7e-m/fpu/libg.a(lib_a-fflush.o)
                                                  /usr/lib/gcc/arm-none-eabi/4.8/../../../arm-none-eabi/lib/armv7e-m/fpu/libg.a(lib_a-svfiscanf.o)
_fstat_r                                          build/obj/syscalls.o
_fwalk                                            /usr/lib/gcc/arm-none-eabi/4.8/../../../arm-none-eabi/lib/armv7e-m/fpu/libg.a(lib_a-fwalk.o)
                                                  /usr/lib/gcc/arm-none-eabi/4.8/../../../arm-none-eabi/lib/armv7e-m/fpu/libg.a(lib_a-findfp.o)
_fwalk_reent                                      /usr/lib/gcc/arm-none-eabi/4.8/../../../arm-none-eabi/lib/armv7e-m/fpu/libg.a(lib_a-fwalk.o)
                                                  /usr/lib/gcc/arm-none-eabi/4.8/../../../arm-none-eabi/lib/armv7e-m/fpu/libg.a(lib_a-findfp.o)
                                                  /usr/lib/gcc/arm-none-eabi/4.8/../../../arm-none-eabi/lib/armv7e-m/fpu/libg.a(lib_a-fflush.o)
_global_impure_ptr                                /usr/lib/gcc/arm-none-eabi/4.8/../../../arm-none-eabi/lib/armv7e-m/fpu/libg.a(lib_a-impure.o)
                                                  /usr/lib/gcc/arm-none-eabi/4.8/../../../arm-none-eabi/lib/armv7e-m/fpu/libg.a(lib_a-findfp.o)
                                                  /usr/lib/gcc/arm-none-eabi/4.8/../../../arm-none-eabi/lib/armv7e-m/fpu/libg.a(lib_a-fflush.o)
_heap_init                                        build/obj/chheap.o
                                                  build/obj/chsys.o
_impure_ptr                                       /usr/lib/gcc/arm-none-eabi/4.8/../../../arm-none-eabi/lib/armv7e-m/fpu/libg.a(lib_a-impure.o)
                                                  /usr/lib/gcc/arm-none-eabi/4.8/../../../arm-none-eabi/lib/armv7e-m/fpu/libg.a(lib_a-fclose.o)
                                                  /usr/lib/gcc/arm-none-eabi/4.8/../../../arm-none-eabi/lib/armv7e-m/fpu/libg.a(lib_a-findfp.o)
                                                  /usr/lib/gcc/arm-none-eabi/4.8/../../../arm-none-eabi/lib/armv7e-m/fpu/libg.a(lib_a-fflush.o)
                                                  /usr/lib/gcc/arm-none-eabi/4.8/../../../arm-none-eabi/lib/armv7e-m/fpu/libg.a(lib_a-ungetc.o)
                                                  /usr/lib/gcc/arm-none-eabi/4.8/../../../arm-none-eabi/lib/armv7e-m/fpu/libg.a(lib_a-strtoul.o)
                                                  /usr/lib/gcc/arm-none-eabi/4.8/../../../arm-none-eabi/lib/armv7e-m/fpu/libg.a(lib_a-strtol.o)
                                                  /usr/lib/gcc/arm-none-eabi/4.8/../../../arm-none-eabi/lib/armv7e-m/fpu/libg.a(lib_a-strtod.o)
                                                  /usr/lib/gcc/arm-none-eabi/4.8/../../../arm-none-eabi/lib/armv7e-m/fpu/libg.a(lib_a-sprintf.o)
                                                  /usr/lib/gcc/arm-none-eabi/4.8/../../../arm-none-eabi/lib/armv7e-m/fpu/libg.a(lib_a-mbrtowc.o)
                                                  /usr/lib/gcc/arm-none-eabi/4.8/../../../arm-none-eabi/lib/armv7e-m/fpu/libg.a(lib_a-locale.o)
                                                  /usr/lib/gcc/arm-none-eabi/4.8/../../../arm-none-eabi/lib/armv7e-m/fpu/libg.a(lib_a-vsnprintf.o)
                                                  /usr/lib/gcc/arm-none-eabi/4.8/../../../arm-none-eabi/lib/armv7e-m/fpu/libg.a(lib_a-strtok.o)
                                                  /usr/lib/gcc/arm-none-eabi/4.8/../../../arm-none-eabi/lib/armv7e-m/fpu/libg.a(lib_a-sscanf.o)
                                                  /usr/lib/gcc/arm-none-eabi/4.8/../../../arm-none-eabi/lib/armv7e-m/fpu/libg.a(lib_a-errno.o)
_isatty_r                                         build/obj/syscalls.o
_localeconv_r                                     /usr/lib/gcc/arm-none-eabi/4.8/../../../arm-none-eabi/lib/armv7e-m/fpu/libg.a(lib_a-locale.o)
                                                  /usr/lib/gcc/arm-none-eabi/4.8/../../../arm-none-eabi/lib/armv7e-m/fpu/libg.a(lib_a-gdtoa-gethex.o)
                                                  /usr/lib/gcc/arm-none-eabi/4.8/../../../arm-none-eabi/lib/armv7e-m/fpu/libg.a(lib_a-svfprintf.o)
                                                  /usr/lib/gcc/arm-none-eabi/4.8/../../../arm-none-eabi/lib/armv7e-m/fpu/libg.a(lib_a-strtod.o)
                                                  /usr/lib/gcc/arm-none-eabi/4.8/../../../arm-none-eabi/lib/armv7e-m/fpu/libg.a(lib_a-svfscanf.o)
_lseek_r                                          build/obj/syscalls.o
                                                  /usr/lib/gcc/arm-none-eabi/4.8/../../../arm-none-eabi/lib/armv7e-m/fpu/libg.a(lib_a-stdio.o)
_malloc_r                                         /usr/lib/gcc/arm-none-eabi/4.8/../../../arm-none-eabi/lib/armv7e-m/fpu/libg.a(lib_a-mallocr.o)
                                                  /usr/lib/gcc/arm-none-eabi/4.8/../../../arm-none-eabi/lib/armv7e-m/fpu/libg.a(lib_a-callocr.o)
                                                  /usr/lib/gcc/arm-none-eabi/4.8/../../../arm-none-eabi/lib/armv7e-m/fpu/libg.a(lib_a-svfiprintf.o)
                                                  /usr/lib/gcc/arm-none-eabi/4.8/../../../arm-none-eabi/lib/armv7e-m/fpu/libg.a(lib_a-reallocr.o)
                                                  /usr/lib/gcc/arm-none-eabi/4.8/../../../arm-none-eabi/lib/armv7e-m/fpu/libg.a(lib_a-findfp.o)
                                                  /usr/lib/gcc/arm-none-eabi/4.8/../../../arm-none-eabi/lib/armv7e-m/fpu/libg.a(lib_a-ungetc.o)
                                                  /usr/lib/gcc/arm-none-eabi/4.8/../../../arm-none-eabi/lib/armv7e-m/fpu/libg.a(lib_a-svfprintf.o)
_malloc_trim_r                                    /usr/lib/gcc/arm-none-eabi/4.8/../../../arm-none-eabi/lib/armv7e-m/fpu/libg.a(lib_a-freer.o)
_mbrtowc_r                                        /usr/lib/gcc/arm-none-eabi/4.8/../../../arm-none-eabi/lib/armv7e-m/fpu/libg.a(lib_a-mbrtowc.o)
                                                  /usr/lib/gcc/arm-none-eabi/4.8/../../../arm-none-eabi/lib/armv7e-m/fpu/libg.a(lib_a-svfiscanf.o)
                                                  /usr/lib/gcc/arm-none-eabi/4.8/../../../arm-none-eabi/lib/armv7e-m/fpu/libg.a(lib_a-svfscanf.o)
_mbtowc_r                                         /usr/lib/gcc/arm-none-eabi/4.8/../../../arm-none-eabi/lib/armv7e-m/fpu/libg.a(lib_a-mbtowc_r.o)
_mprec_log10                                      /usr/lib/gcc/arm-none-eabi/4.8/../../../arm-none-eabi/lib/armv7e-m/fpu/libg.a(lib_a-mprec.o)
_pal_lld_init                                     build/obj/pal_lld.o
                                                  build/obj/hal.o
_pal_lld_setgroupmode                             build/obj/pal_lld.o
                                                  build/obj/spi_sw.o
                                                  build/obj/app_uartcomm.o
                                                  build/obj/app_adc.o
                                                  build/obj/hw_410.o
                                                  build/obj/flash_helper.o
                                                  build/obj/encoder.o
                                                  build/obj/ws2811.o
                                                  build/obj/comm_can.o
                                                  build/obj/servo_dec.o
                                                  build/obj/comm_usb_serial.o
                                                  build/obj/pal.o
_port_exit_from_isr                               build/obj/chcoreasm_v7m.o
                                                  build/obj/chcore_v7m.o
_port_irq_epilogue                                build/obj/chcore_v7m.o
                                                  build/obj/irq_handlers.o
                                                  build/obj/uart_lld.o
                                                  build/obj/icu_lld.o
                                                  build/obj/usb_lld.o
                                                  build/obj/i2c_lld.o
                                                  build/obj/can_lld.o
                                                  build/obj/st_lld.o
                                                  build/obj/stm32_dma.o
_port_switch                                      build/obj/chcoreasm_v7m.o
                                                  build/obj/chschd.o
_port_switch_from_isr                             build/obj/chcoreasm_v7m.o
                                                  build/obj/chcore_v7m.o
_port_thread_start                                build/obj/chcoreasm_v7m.o
                                                  build/obj/chthreads.o
_read_r                                           build/obj/syscalls.o
                                                  /usr/lib/gcc/arm-none-eabi/4.8/../../../arm-none-eabi/lib/armv7e-m/fpu/libg.a(lib_a-stdio.o)
_realloc_r                                        /usr/lib/gcc/arm-none-eabi/4.8/../../../arm-none-eabi/lib/armv7e-m/fpu/libg.a(lib_a-reallocr.o)
                                                  /usr/lib/gcc/arm-none-eabi/4.8/../../../arm-none-eabi/lib/armv7e-m/fpu/libg.a(lib_a-svfiprintf.o)
                                                  /usr/lib/gcc/arm-none-eabi/4.8/../../../arm-none-eabi/lib/armv7e-m/fpu/libg.a(lib_a-ungetc.o)
_sbrk_r                                           build/obj/syscalls.o
                                                  /usr/lib/gcc/arm-none-eabi/4.8/../../../arm-none-eabi/lib/armv7e-m/fpu/libg.a(lib_a-mallocr.o)
                                                  /usr/lib/gcc/arm-none-eabi/4.8/../../../arm-none-eabi/lib/armv7e-m/fpu/libg.a(lib_a-freer.o)
_scheduler_init                                   build/obj/chschd.o
                                                  build/obj/chsys.o
_setlocale_r                                      /usr/lib/gcc/arm-none-eabi/4.8/../../../arm-none-eabi/lib/armv7e-m/fpu/libg.a(lib_a-locale.o)
_sfread_r                                         /usr/lib/gcc/arm-none-eabi/4.8/../../../arm-none-eabi/lib/armv7e-m/fpu/libg.a(lib_a-svfiscanf.o)
                                                  /usr/lib/gcc/arm-none-eabi/4.8/../../../arm-none-eabi/lib/armv7e-m/fpu/libg.a(lib_a-svfscanf.o)
_sprintf_r                                        /usr/lib/gcc/arm-none-eabi/4.8/../../../arm-none-eabi/lib/armv7e-m/fpu/libg.a(lib_a-sprintf.o)
_sscanf_r                                         /usr/lib/gcc/arm-none-eabi/4.8/../../../arm-none-eabi/lib/armv7e-m/fpu/libg.a(lib_a-sscanf.o)
_stm32_dma_streams                                build/obj/stm32_dma.o
                                                  build/obj/mcpwm_foc.o
                                                  build/obj/mcpwm.o
                                                  build/obj/uart_lld.o
                                                  build/obj/spi_lld.o
                                                  build/obj/i2c_lld.o
_strtod_r                                         /usr/lib/gcc/arm-none-eabi/4.8/../../../arm-none-eabi/lib/armv7e-m/fpu/libg.a(lib_a-strtod.o)
                                                  /usr/lib/gcc/arm-none-eabi/4.8/../../../arm-none-eabi/lib/armv7e-m/fpu/libg.a(lib_a-svfscanf.o)
_strtol_r                                         /usr/lib/gcc/arm-none-eabi/4.8/../../../arm-none-eabi/lib/armv7e-m/fpu/libg.a(lib_a-strtol.o)
                                                  /usr/lib/gcc/arm-none-eabi/4.8/../../../arm-none-eabi/lib/armv7e-m/fpu/libg.a(lib_a-svfiscanf.o)
                                                  /usr/lib/gcc/arm-none-eabi/4.8/../../../arm-none-eabi/lib/armv7e-m/fpu/libg.a(lib_a-svfscanf.o)
_strtoll_r                                        /usr/lib/gcc/arm-none-eabi/4.8/../../../arm-none-eabi/lib/armv7e-m/fpu/libg.a(lib_a-strtoll_r.o)
                                                  /usr/lib/gcc/arm-none-eabi/4.8/../../../arm-none-eabi/lib/armv7e-m/fpu/libg.a(lib_a-svfiscanf.o)
                                                  /usr/lib/gcc/arm-none-eabi/4.8/../../../arm-none-eabi/lib/armv7e-m/fpu/libg.a(lib_a-svfscanf.o)
_strtoul_r                                        /usr/lib/gcc/arm-none-eabi/4.8/../../../arm-none-eabi/lib/armv7e-m/fpu/libg.a(lib_a-strtoul.o)
                                                  /usr/lib/gcc/arm-none-eabi/4.8/../../../arm-none-eabi/lib/armv7e-m/fpu/libg.a(lib_a-svfiscanf.o)
                                                  /usr/lib/gcc/arm-none-eabi/4.8/../../../arm-none-eabi/lib/armv7e-m/fpu/libg.a(lib_a-svfscanf.o)
_strtoull_r                                       /usr/lib/gcc/arm-none-eabi/4.8/../../../arm-none-eabi/lib/armv7e-m/fpu/libg.a(lib_a-strtoull_r.o)
                                                  /usr/lib/gcc/arm-none-eabi/4.8/../../../arm-none-eabi/lib/armv7e-m/fpu/libg.a(lib_a-svfiscanf.o)
                                                  /usr/lib/gcc/arm-none-eabi/4.8/../../../arm-none-eabi/lib/armv7e-m/fpu/libg.a(lib_a-svfscanf.o)
_sungetc_r                                        /usr/lib/gcc/arm-none-eabi/4.8/../../../arm-none-eabi/lib/armv7e-m/fpu/libg.a(lib_a-svfiscanf.o)
                                                  /usr/lib/gcc/arm-none-eabi/4.8/../../../arm-none-eabi/lib/armv7e-m/fpu/libg.a(lib_a-svfscanf.o)
_svfiprintf_r                                     /usr/lib/gcc/arm-none-eabi/4.8/../../../arm-none-eabi/lib/armv7e-m/fpu/libg.a(lib_a-svfiprintf.o)
_svfprintf_r                                      /usr/lib/gcc/arm-none-eabi/4.8/../../../arm-none-eabi/lib/armv7e-m/fpu/libg.a(lib_a-svfprintf.o)
                                                  /usr/lib/gcc/arm-none-eabi/4.8/../../../arm-none-eabi/lib/armv7e-m/fpu/libg.a(lib_a-sprintf.o)
                                                  /usr/lib/gcc/arm-none-eabi/4.8/../../../arm-none-eabi/lib/armv7e-m/fpu/libg.a(lib_a-vsnprintf.o)
_textdata                                         build/obj/crt0_v7m.o
_thread_init                                      build/obj/chthreads.o
                                                  build/obj/chsys.o
_tm_init                                          build/obj/chtm.o
                                                  build/obj/chsys.o
_ungetc_r                                         /usr/lib/gcc/arm-none-eabi/4.8/../../../arm-none-eabi/lib/armv7e-m/fpu/libg.a(lib_a-ungetc.o)
_unhandled_exception                              build/obj/vectors.o
_usb_ep0in                                        build/obj/usb.o
                                                  build/obj/usb_lld.o
_usb_ep0out                                       build/obj/usb.o
                                                  build/obj/usb_lld.o
_usb_ep0setup                                     build/obj/usb.o
                                                  build/obj/usb_lld.o
_usb_reset                                        build/obj/usb.o
                                                  build/obj/usb_lld.o
_vectors                                          build/obj/vectors.o
_vsnprintf_r                                      /usr/lib/gcc/arm-none-eabi/4.8/../../../arm-none-eabi/lib/armv7e-m/fpu/libg.a(lib_a-vsnprintf.o)
_vt_init                                          build/obj/chvt.o
                                                  build/obj/chsys.o
_write_r                                          build/obj/syscalls.o
                                                  /usr/lib/gcc/arm-none-eabi/4.8/../../../arm-none-eabi/lib/armv7e-m/fpu/libg.a(lib_a-stdio.o)
app_adc_configure                                 build/obj/app_adc.o
                                                  build/obj/app.o
app_adc_get_decoded_level                         build/obj/app_adc.o
                                                  build/obj/commands.o
app_adc_get_decoded_level2                        build/obj/app_adc.o
                                                  build/obj/commands.o
app_adc_get_voltage                               build/obj/app_adc.o
                                                  build/obj/commands.o
app_adc_get_voltage2                              build/obj/app_adc.o
                                                  build/obj/commands.o
app_adc_start                                     build/obj/app_adc.o
                                                  build/obj/app.o
app_adc_stop                                      build/obj/app_adc.o
                                                  build/obj/app.o
app_get_configuration                             build/obj/app.o
                                                  build/obj/nrf_driver.o
                                                  build/obj/comm_can.o
                                                  build/obj/commands.o
app_nunchuk_configure                             build/obj/app_nunchuk.o
                                                  build/obj/app.o
app_nunchuk_get_decoded_chuk                      build/obj/app_nunchuk.o
                                                  build/obj/commands.o
app_nunchuk_start                                 build/obj/app_nunchuk.o
                                                  build/obj/app.o
app_nunchuk_stop                                  build/obj/app_nunchuk.o
                                                  build/obj/app.o
app_nunchuk_update_output                         build/obj/app_nunchuk.o
                                                  build/obj/nrf_driver.o
                                                  build/obj/commands.o
app_ppm_configure                                 build/obj/app_ppm.o
                                                  build/obj/app.o
app_ppm_get_decoded_level                         build/obj/app_ppm.o
                                                  build/obj/commands.o
app_ppm_start                                     build/obj/app_ppm.o
                                                  build/obj/app.o
app_ppm_stop                                      build/obj/app_ppm.o
                                                  build/obj/app.o
app_set_configuration                             build/obj/app.o
                                                  build/obj/nrf_driver.o
                                                  build/obj/commands.o
                                                  build/obj/main.o
app_uartcomm_configure                            build/obj/app_uartcomm.o
                                                  build/obj/app.o
app_uartcomm_start                                build/obj/app_uartcomm.o
                                                  build/obj/app.o
app_uartcomm_stop                                 build/obj/app_uartcomm.o
                                                  build/obj/app.o
asinf                                             /usr/lib/gcc/arm-none-eabi/4.8/../../../arm-none-eabi/lib/armv7e-m/fpu/libm.a(lib_a-wf_asin.o)
                                                  build/obj/mcpwm.o
atan2f                                            /usr/lib/gcc/arm-none-eabi/4.8/../../../arm-none-eabi/lib/armv7e-m/fpu/libm.a(lib_a-wf_atan2.o)
                                                  build/obj/mcpwm_foc.o
atanf                                             /usr/lib/gcc/arm-none-eabi/4.8/../../../arm-none-eabi/lib/armv7e-m/fpu/libm.a(lib_a-sf_atan.o)
                                                  /usr/lib/gcc/arm-none-eabi/4.8/../../../arm-none-eabi/lib/armv7e-m/fpu/libm.a(lib_a-ef_atan2.o)
boardInit                                         build/obj/board.o
                                                  build/obj/hal.o
buffer_append_float16                             build/obj/buffer.o
                                                  build/obj/commands.o
buffer_append_float32                             build/obj/buffer.o
                                                  build/obj/comm_can.o
                                                  build/obj/commands.o
buffer_append_float32_auto                        build/obj/buffer.o
                                                  build/obj/mc_interface.o
                                                  build/obj/comm_can.o
                                                  build/obj/commands.o
buffer_append_int16                               build/obj/buffer.o
                                                  build/obj/comm_can.o
buffer_append_int32                               build/obj/buffer.o
                                                  build/obj/comm_can.o
                                                  build/obj/commands.o
buffer_append_uint16                              build/obj/buffer.o
                                                  build/obj/commands.o
buffer_append_uint32                              build/obj/buffer.o
                                                  build/obj/commands.o
buffer_get_float16                                build/obj/buffer.o
buffer_get_float32                                build/obj/buffer.o
                                                  build/obj/comm_can.o
                                                  build/obj/commands.o
buffer_get_float32_auto                           build/obj/buffer.o
                                                  build/obj/commands.o
buffer_get_int16                                  build/obj/buffer.o
                                                  build/obj/nrf_driver.o
                                                  build/obj/comm_can.o
                                                  build/obj/commands.o
buffer_get_int32                                  build/obj/buffer.o
                                                  build/obj/comm_can.o
                                                  build/obj/commands.o
buffer_get_uint16                                 build/obj/buffer.o
                                                  build/obj/commands.o
buffer_get_uint32                                 build/obj/buffer.o
                                                  build/obj/commands.o
canInit                                           build/obj/can.o
                                                  build/obj/hal.o
canObjectInit                                     build/obj/can.o
                                                  build/obj/can_lld.o
canReceive                                        build/obj/can.o
                                                  build/obj/comm_can.o
canSTM32SetFilters                                build/obj/can_lld.o
canSleep                                          build/obj/can.o
canStart                                          build/obj/can.o
                                                  build/obj/comm_can.o
canStop                                           build/obj/can.o
                                                  build/obj/comm_can.o
canTransmit                                       build/obj/can.o
                                                  build/obj/comm_can.o
canWakeup                                         build/obj/can.o
can_lld_init                                      build/obj/can_lld.o
                                                  build/obj/can.o
can_lld_is_rx_nonempty                            build/obj/can_lld.o
                                                  build/obj/can.o
can_lld_is_tx_empty                               build/obj/can_lld.o
                                                  build/obj/can.o
can_lld_receive                                   build/obj/can_lld.o
                                                  build/obj/can.o
can_lld_sleep                                     build/obj/can_lld.o
                                                  build/obj/can.o
can_lld_start                                     build/obj/can_lld.o
                                                  build/obj/can.o
can_lld_stop                                      build/obj/can_lld.o
                                                  build/obj/can.o
can_lld_transmit                                  build/obj/can_lld.o
                                                  build/obj/can.o
can_lld_wakeup                                    build/obj/can_lld.o
                                                  build/obj/can.o
ch                                                build/obj/chschd.o
                                                  build/obj/nrf_driver.o
                                                  build/obj/app_nunchuk.o
                                                  build/obj/app_uartcomm.o
                                                  build/obj/app_adc.o
                                                  build/obj/app_ppm.o
                                                  build/obj/mcpwm_foc.o
                                                  build/obj/mc_interface.o
                                                  build/obj/led_external.o
                                                  build/obj/comm_can.o
                                                  build/obj/timeout.o
                                                  build/obj/commands.o
                                                  build/obj/terminal.o
                                                  build/obj/servo_dec.o
                                                  build/obj/mcpwm.o
                                                  build/obj/comm_usb.o
                                                  build/obj/main.o
                                                  build/obj/usb_lld.o
                                                  build/obj/i2c_lld.o
                                                  build/obj/chmsg.o
                                                  build/obj/chevents.o
                                                  build/obj/chcond.o
                                                  build/obj/chmtx.o
                                                  build/obj/chsem.o
                                                  build/obj/chregistry.o
                                                  build/obj/chtm.o
                                                  build/obj/chthreads.o
                                                  build/obj/chvt.o
                                                  build/obj/chsys.o
chCondBroadcast                                   build/obj/chcond.o
chCondBroadcastI                                  build/obj/chcond.o
chCondObjectInit                                  build/obj/chcond.o
chCondSignal                                      build/obj/chcond.o
chCondSignalI                                     build/obj/chcond.o
chCondWait                                        build/obj/chcond.o
chCondWaitS                                       build/obj/chcond.o
chCondWaitTimeout                                 build/obj/chcond.o
chCondWaitTimeoutS                                build/obj/chcond.o
chCoreAlloc                                       build/obj/chmemcore.o
                                                  build/obj/syscalls.o
                                                  build/obj/chheap.o
chCoreAllocI                                      build/obj/chmemcore.o
chCoreGetStatusX                                  build/obj/chmemcore.o
                                                  build/obj/terminal.o
chEvtAddEvents                                    build/obj/chevents.o
chEvtBroadcastFlags                               build/obj/chevents.o
chEvtBroadcastFlagsI                              build/obj/chevents.o
                                                  build/obj/can_lld.o
                                                  build/obj/serial_usb.o
                                                  build/obj/can.o
chEvtDispatch                                     build/obj/chevents.o
chEvtGetAndClearEvents                            build/obj/chevents.o
chEvtGetAndClearFlags                             build/obj/chevents.o
chEvtGetAndClearFlagsI                            build/obj/chevents.o
chEvtRegisterMaskWithFlags                        build/obj/chevents.o
                                                  build/obj/comm_can.o
chEvtSignal                                       build/obj/chevents.o
                                                  build/obj/mc_interface.o
                                                  build/obj/comm_can.o
                                                  build/obj/commands.o
                                                  build/obj/comm_usb.o
chEvtSignalI                                      build/obj/chevents.o
                                                  build/obj/app_uartcomm.o
                                                  build/obj/app_ppm.o
                                                  build/obj/mc_interface.o
chEvtUnregister                                   build/obj/chevents.o
                                                  build/obj/comm_can.o
chEvtWaitAll                                      build/obj/chevents.o
chEvtWaitAllTimeout                               build/obj/chevents.o
chEvtWaitAny                                      build/obj/chevents.o
                                                  build/obj/app_uartcomm.o
                                                  build/obj/app_ppm.o
                                                  build/obj/mc_interface.o
                                                  build/obj/comm_can.o
                                                  build/obj/commands.o
                                                  build/obj/comm_usb.o
chEvtWaitAnyTimeout                               build/obj/chevents.o
                                                  build/obj/comm_can.o
chEvtWaitOne                                      build/obj/chevents.o
chEvtWaitOneTimeout                               build/obj/chevents.o
chHeapAlloc                                       build/obj/chheap.o
                                                  build/obj/chdynamic.o
chHeapFree                                        build/obj/chheap.o
                                                  build/obj/chdynamic.o
chHeapObjectInit                                  build/obj/chheap.o
chHeapStatus                                      build/obj/chheap.o
                                                  build/obj/terminal.o
chIQGetTimeout                                    build/obj/chqueues.o
                                                  build/obj/serial_usb.o
chIQObjectInit                                    build/obj/chqueues.o
                                                  build/obj/serial_usb.o
chIQPutI                                          build/obj/chqueues.o
chIQReadTimeout                                   build/obj/chqueues.o
                                                  build/obj/serial_usb.o
chIQResetI                                        build/obj/chqueues.o
                                                  build/obj/serial_usb.o
chMBFetch                                         build/obj/chmboxes.o
chMBFetchI                                        build/obj/chmboxes.o
chMBFetchS                                        build/obj/chmboxes.o
chMBObjectInit                                    build/obj/chmboxes.o
chMBPost                                          build/obj/chmboxes.o
chMBPostAhead                                     build/obj/chmboxes.o
chMBPostAheadI                                    build/obj/chmboxes.o
chMBPostAheadS                                    build/obj/chmboxes.o
chMBPostI                                         build/obj/chmboxes.o
chMBPostS                                         build/obj/chmboxes.o
chMBReset                                         build/obj/chmboxes.o
chMBResetI                                        build/obj/chmboxes.o
chMsgRelease                                      build/obj/chmsg.o
chMsgSend                                         build/obj/chmsg.o
chMsgWait                                         build/obj/chmsg.o
chMtxLock                                         build/obj/chmtx.o
                                                  build/obj/rfhelp.o
                                                  build/obj/comm_can.o
                                                  build/obj/comm_usb.o
                                                  build/obj/spi.o
                                                  build/obj/i2c.o
                                                  build/obj/chheap.o
chMtxLockS                                        build/obj/chmtx.o
                                                  build/obj/chcond.o
chMtxObjectInit                                   build/obj/chmtx.o
                                                  build/obj/rfhelp.o
                                                  build/obj/comm_can.o
                                                  build/obj/comm_usb.o
                                                  build/obj/spi.o
                                                  build/obj/i2c.o
                                                  build/obj/chheap.o
chMtxTryLock                                      build/obj/chmtx.o
chMtxTryLockS                                     build/obj/chmtx.o
chMtxUnlock                                       build/obj/chmtx.o
                                                  build/obj/rfhelp.o
                                                  build/obj/comm_can.o
                                                  build/obj/comm_usb.o
                                                  build/obj/spi.o
                                                  build/obj/i2c.o
                                                  build/obj/chheap.o
chMtxUnlockAll                                    build/obj/chmtx.o
chMtxUnlockS                                      build/obj/chmtx.o
                                                  build/obj/chcond.o
chOQGetI                                          build/obj/chqueues.o
chOQObjectInit                                    build/obj/chqueues.o
                                                  build/obj/serial_usb.o
chOQPutTimeout                                    build/obj/chqueues.o
                                                  build/obj/serial_usb.o
chOQResetI                                        build/obj/chqueues.o
                                                  build/obj/serial_usb.o
chOQWriteTimeout                                  build/obj/chqueues.o
                                                  build/obj/serial_usb.o
chPoolAlloc                                       build/obj/chmempools.o
                                                  build/obj/chdynamic.o
chPoolAllocI                                      build/obj/chmempools.o
chPoolFree                                        build/obj/chmempools.o
                                                  build/obj/chdynamic.o
chPoolFreeI                                       build/obj/chmempools.o
chPoolLoadArray                                   build/obj/chmempools.o
chPoolObjectInit                                  build/obj/chmempools.o
chRegFirstThread                                  build/obj/chregistry.o
                                                  build/obj/terminal.o
chRegNextThread                                   build/obj/chregistry.o
                                                  build/obj/terminal.o
chSchDoReschedule                                 build/obj/chschd.o
                                                  build/obj/chcoreasm_v7m.o
chSchDoRescheduleAhead                            build/obj/chschd.o
chSchDoRescheduleBehind                           build/obj/chschd.o
                                                  build/obj/chthreads.o
chSchGoSleepS                                     build/obj/chschd.o
                                                  build/obj/chmsg.o
                                                  build/obj/chevents.o
                                                  build/obj/chcond.o
                                                  build/obj/chmtx.o
                                                  build/obj/chsem.o
                                                  build/obj/chthreads.o
chSchGoSleepTimeoutS                              build/obj/chschd.o
                                                  build/obj/can_lld.o
                                                  build/obj/chevents.o
                                                  build/obj/chcond.o
                                                  build/obj/chsem.o
                                                  build/obj/chthreads.o
chSchIsPreemptionRequired                         build/obj/chschd.o
                                                  build/obj/chcore_v7m.o
chSchReadyI                                       build/obj/chschd.o
                                                  build/obj/usb_lld.o
                                                  build/obj/chmsg.o
                                                  build/obj/chevents.o
                                                  build/obj/chcond.o
                                                  build/obj/chmtx.o
                                                  build/obj/chsem.o
                                                  build/obj/chthreads.o
chSchRescheduleS                                  build/obj/chschd.o
                                                  build/obj/usb_lld.o
                                                  build/obj/serial_usb.o
                                                  build/obj/can.o
                                                  build/obj/chmboxes.o
                                                  build/obj/chevents.o
                                                  build/obj/chcond.o
                                                  build/obj/chmtx.o
                                                  build/obj/chsem.o
                                                  build/obj/chthreads.o
                                                  build/obj/chsys.o
chSchWakeupS                                      build/obj/chschd.o
                                                  build/obj/chmsg.o
                                                  build/obj/chcond.o
                                                  build/obj/chsem.o
                                                  build/obj/chdynamic.o
                                                  build/obj/chthreads.o
chSemAddCounterI                                  build/obj/chsem.o
chSemObjectInit                                   build/obj/chsem.o
                                                  build/obj/chmboxes.o
chSemReset                                        build/obj/chsem.o
chSemResetI                                       build/obj/chsem.o
                                                  build/obj/chmboxes.o
chSemSignal                                       build/obj/chsem.o
chSemSignalI                                      build/obj/chsem.o
                                                  build/obj/chmboxes.o
chSemSignalWait                                   build/obj/chsem.o
chSemWait                                         build/obj/chsem.o
chSemWaitS                                        build/obj/chsem.o
chSemWaitTimeout                                  build/obj/chsem.o
chSemWaitTimeoutS                                 build/obj/chsem.o
                                                  build/obj/chmboxes.o
chSysGetStatusAndLockX                            build/obj/chsys.o
chSysHalt                                         build/obj/chsys.o
                                                  build/obj/uart_lld.o
                                                  build/obj/spi_lld.o
                                                  build/obj/i2c_lld.o
chSysInit                                         build/obj/chsys.o
                                                  build/obj/main.o
chSysIntegrityCheckI                              build/obj/chsys.o
chSysIsCounterWithinX                             build/obj/chsys.o
chSysPolledDelayX                                 build/obj/chsys.o
                                                  build/obj/usb_lld.o
chSysRestoreStatusX                               build/obj/chsys.o
chSysTimerHandlerI                                build/obj/chsys.o
                                                  build/obj/st_lld.o
chTMChainMeasurementToX                           build/obj/chtm.o
chTMObjectInit                                    build/obj/chtm.o
chTMStartMeasurementX                             build/obj/chtm.o
chTMStopMeasurementX                              build/obj/chtm.o
chThdAddRef                                       build/obj/chdynamic.o
chThdCreateFromHeap                               build/obj/chdynamic.o
chThdCreateFromMemoryPool                         build/obj/chdynamic.o
chThdCreateI                                      build/obj/chthreads.o
                                                  build/obj/usb_lld.o
                                                  build/obj/chdynamic.o
chThdCreateStatic                                 build/obj/chthreads.o
                                                  build/obj/nrf_driver.o
                                                  build/obj/app_nunchuk.o
                                                  build/obj/app_uartcomm.o
                                                  build/obj/app_adc.o
                                                  build/obj/app_ppm.o
                                                  build/obj/mcpwm_foc.o
                                                  build/obj/mc_interface.o
                                                  build/obj/led_external.o
                                                  build/obj/comm_can.o
                                                  build/obj/timeout.o
                                                  build/obj/commands.o
                                                  build/obj/mcpwm.o
                                                  build/obj/comm_usb.o
                                                  build/obj/main.o
                                                  build/obj/chsys.o
chThdDequeueAllI                                  build/obj/chthreads.o
                                                  build/obj/usb_lld.o
                                                  build/obj/can_lld.o
                                                  build/obj/can.o
                                                  build/obj/chqueues.o
chThdDequeueNextI                                 build/obj/chthreads.o
                                                  build/obj/chqueues.o
chThdEnqueueTimeoutS                              build/obj/chthreads.o
                                                  build/obj/can.o
                                                  build/obj/chqueues.o
chThdExit                                         build/obj/chthreads.o
                                                  build/obj/chcoreasm_v7m.o
chThdExitS                                        build/obj/chthreads.o
chThdRelease                                      build/obj/chdynamic.o
                                                  build/obj/chregistry.o
                                                  build/obj/chthreads.o
chThdResume                                       build/obj/chthreads.o
chThdResumeI                                      build/obj/chthreads.o
                                                  build/obj/spi_lld.o
                                                  build/obj/usb_lld.o
                                                  build/obj/i2c_lld.o
chThdResumeS                                      build/obj/chthreads.o
chThdSetPriority                                  build/obj/chthreads.o
chThdSleep                                        build/obj/chthreads.o
                                                  build/obj/nrf_driver.o
                                                  build/obj/rfhelp.o
                                                  build/obj/app_nunchuk.o
                                                  build/obj/app_uartcomm.o
                                                  build/obj/app_adc.o
                                                  build/obj/app_ppm.o
                                                  build/obj/hw_410.o
                                                  build/obj/mcpwm_foc.o
                                                  build/obj/mc_interface.o
                                                  build/obj/led_external.o
                                                  build/obj/comm_can.o
                                                  build/obj/timeout.o
                                                  build/obj/commands.o
                                                  build/obj/conf_general.o
                                                  build/obj/terminal.o
                                                  build/obj/mcpwm.o
                                                  build/obj/comm_usb_serial.o
                                                  build/obj/main.o
chThdSleepUntil                                   build/obj/chthreads.o
chThdSleepUntilWindowed                           build/obj/chthreads.o
chThdStart                                        build/obj/chthreads.o
chThdSuspendS                                     build/obj/chthreads.o
                                                  build/obj/usb_lld.o
                                                  build/obj/spi.o
chThdSuspendTimeoutS                              build/obj/chthreads.o
                                                  build/obj/i2c_lld.o
chThdTerminate                                    build/obj/chthreads.o
chThdWait                                         build/obj/chthreads.o
chThdYield                                        build/obj/chthreads.o
chVTDoResetI                                      build/obj/chvt.o
                                                  build/obj/app_ppm.o
                                                  build/obj/chschd.o
chVTDoSetI                                        build/obj/chvt.o
                                                  build/obj/app_ppm.o
                                                  build/obj/chschd.o
ch_debug                                          build/obj/chregistry.o
                                                  build/obj/chsys.o
chsnprintf                                        build/obj/chprintf.o
chvprintf                                         build/obj/chprintf.o
comm_can_get_status_msg_id                        build/obj/comm_can.o
comm_can_get_status_msg_index                     build/obj/comm_can.o
                                                  build/obj/app_nunchuk.o
                                                  build/obj/app_adc.o
                                                  build/obj/app_ppm.o
                                                  build/obj/terminal.o
comm_can_init                                     build/obj/comm_can.o
                                                  build/obj/main.o
comm_can_send_buffer                              build/obj/comm_can.o
                                                  build/obj/commands.o
comm_can_set_baud                                 build/obj/comm_can.o
                                                  build/obj/app.o
comm_can_set_current                              build/obj/comm_can.o
                                                  build/obj/app_nunchuk.o
                                                  build/obj/app_adc.o
                                                  build/obj/app_ppm.o
comm_can_set_current_brake                        build/obj/comm_can.o
                                                  build/obj/app_nunchuk.o
                                                  build/obj/app_adc.o
                                                  build/obj/app_ppm.o
comm_can_set_current_brake_rel                    build/obj/comm_can.o
comm_can_set_current_rel                          build/obj/comm_can.o
comm_can_set_duty                                 build/obj/comm_can.o
                                                  build/obj/app_adc.o
comm_can_set_pos                                  build/obj/comm_can.o
comm_can_set_rpm                                  build/obj/comm_can.o
comm_can_set_sid_rx_callback                      build/obj/comm_can.o
comm_can_transmit_eid                             build/obj/comm_can.o
comm_can_transmit_sid                             build/obj/comm_can.o
comm_usb_init                                     build/obj/comm_usb.o
                                                  build/obj/main.o
comm_usb_serial_init                              build/obj/comm_usb_serial.o
                                                  build/obj/comm_usb.o
comm_usb_serial_is_active                         build/obj/comm_usb_serial.o
commands_get_disp_pos_mode                        build/obj/commands.o
                                                  build/obj/main.o
commands_init                                     build/obj/commands.o
                                                  build/obj/main.o
commands_printf                                   build/obj/commands.o
                                                  build/obj/app_nunchuk.o
                                                  build/obj/mcpwm_foc.o
                                                  build/obj/terminal.o
commands_process_packet                           build/obj/commands.o
                                                  build/obj/nrf_driver.o
                                                  build/obj/app_uartcomm.o
                                                  build/obj/comm_can.o
                                                  build/obj/comm_usb.o
commands_send_app_data                            build/obj/commands.o
commands_send_appconf                             build/obj/commands.o
                                                  build/obj/nrf_driver.o
commands_send_experiment_samples                  build/obj/commands.o
commands_send_packet                              build/obj/commands.o
                                                  build/obj/nrf_driver.o
                                                  build/obj/mc_interface.o
                                                  build/obj/comm_can.o
commands_send_rotor_pos                           build/obj/commands.o
                                                  build/obj/main.o
commands_send_rotor_pos_counts                    build/obj/commands.o
commands_set_app_data_handler                     build/obj/commands.o
commands_set_send_func                            build/obj/commands.o
                                                  build/obj/nrf_driver.o
                                                  build/obj/app_uartcomm.o
                                                  build/obj/comm_can.o
                                                  build/obj/comm_usb.o
conf_general_detect_motor_param                   build/obj/conf_general.o
                                                  build/obj/commands.o
                                                  build/obj/terminal.o
conf_general_get_default_app_configuration        build/obj/conf_general.o
                                                  build/obj/commands.o
conf_general_get_default_mc_configuration         build/obj/conf_general.o
                                                  build/obj/commands.o
conf_general_init                                 build/obj/conf_general.o
                                                  build/obj/main.o
conf_general_measure_flux_linkage                 build/obj/conf_general.o
                                                  build/obj/commands.o
                                                  build/obj/terminal.o
conf_general_permanent_nrf_found                  build/obj/conf_general.o
                                                  build/obj/app.o
                                                  build/obj/terminal.o
conf_general_read_app_configuration               build/obj/conf_general.o
                                                  build/obj/main.o
conf_general_read_mc_configuration                build/obj/conf_general.o
                                                  build/obj/main.o
conf_general_store_app_configuration              build/obj/conf_general.o
                                                  build/obj/nrf_driver.o
                                                  build/obj/commands.o
conf_general_store_mc_configuration               build/obj/conf_general.o
                                                  build/obj/commands.o
copysignf                                         /usr/lib/gcc/arm-none-eabi/4.8/../../../arm-none-eabi/lib/armv7e-m/fpu/libm.a(lib_a-sf_copysign.o)
                                                  /usr/lib/gcc/arm-none-eabi/4.8/../../../arm-none-eabi/lib/armv7e-m/fpu/libm.a(lib_a-sf_scalbn.o)
cosf                                              /usr/lib/gcc/arm-none-eabi/4.8/../../../arm-none-eabi/lib/armv7e-m/fpu/libm.a(lib_a-sf_cos.o)
                                                  /usr/lib/gcc/arm-none-eabi/4.8/../../../arm-none-eabi/lib/armv7e-m/fpu/libm.a(lib_a-wf_sincos.o)
                                                  build/obj/digital_filter.o
crc16                                             build/obj/crc.o
                                                  build/obj/nrf_driver.o
                                                  build/obj/rfhelp.o
                                                  build/obj/comm_can.o
                                                  build/obj/packet.o
crc16_tab                                         build/obj/crc.o
dmaInit                                           build/obj/stm32_dma.o
                                                  build/obj/hal_lld.o
dmaStreamAllocate                                 build/obj/stm32_dma.o
                                                  build/obj/mcpwm_foc.o
                                                  build/obj/mcpwm.o
                                                  build/obj/uart_lld.o
                                                  build/obj/spi_lld.o
                                                  build/obj/i2c_lld.o
dmaStreamRelease                                  build/obj/stm32_dma.o
                                                  build/obj/mcpwm_foc.o
                                                  build/obj/mcpwm.o
                                                  build/obj/uart_lld.o
                                                  build/obj/spi_lld.o
                                                  build/obj/i2c_lld.o
encoder_cumulative_counts                         build/obj/encoder.o
                                                  build/obj/comm_can.o
                                                  build/obj/commands.o
encoder_deinit                                    build/obj/encoder.o
                                                  build/obj/mc_interface.o
encoder_index_found                               build/obj/encoder.o
                                                  build/obj/mcpwm_foc.o
encoder_init_abi                                  build/obj/encoder.o
                                                  build/obj/mc_interface.o
encoder_init_as5047p_spi                          build/obj/encoder.o
                                                  build/obj/mc_interface.o
encoder_is_configured                             build/obj/encoder.o
                                                  build/obj/mcpwm_foc.o
                                                  build/obj/commands.o
                                                  build/obj/terminal.o
                                                  build/obj/mcpwm.o
                                                  build/obj/main.o
encoder_read_deg                                  build/obj/encoder.o
                                                  build/obj/mcpwm_foc.o
                                                  build/obj/mc_interface.o
                                                  build/obj/mcpwm.o
                                                  build/obj/main.o
encoder_reset                                     build/obj/encoder.o
                                                  build/obj/irq_handlers.o
encoder_set_counts                                build/obj/encoder.o
                                                  build/obj/mc_interface.o
encoder_tim_isr                                   build/obj/encoder.o
                                                  build/obj/irq_handlers.o
expf                                              /usr/lib/gcc/arm-none-eabi/4.8/../../../arm-none-eabi/lib/armv7e-m/fpu/libm.a(lib_a-wf_exp.o)
                                                  build/obj/utils.o
fabsf                                             /usr/lib/gcc/arm-none-eabi/4.8/../../../arm-none-eabi/lib/armv7e-m/fpu/libm.a(lib_a-sf_fabs.o)
                                                  /usr/lib/gcc/arm-none-eabi/4.8/../../../arm-none-eabi/lib/armv7e-m/fpu/libm.a(lib_a-sf_atan.o)
                                                  /usr/lib/gcc/arm-none-eabi/4.8/../../../arm-none-eabi/lib/armv7e-m/fpu/libm.a(lib_a-ef_rem_pio2.o)
                                                  /usr/lib/gcc/arm-none-eabi/4.8/../../../arm-none-eabi/lib/armv7e-m/fpu/libm.a(lib_a-ef_pow.o)
                                                  /usr/lib/gcc/arm-none-eabi/4.8/../../../arm-none-eabi/lib/armv7e-m/fpu/libm.a(lib_a-ef_atan2.o)
                                                  /usr/lib/gcc/arm-none-eabi/4.8/../../../arm-none-eabi/lib/armv7e-m/fpu/libm.a(lib_a-ef_asin.o)
                                                  /usr/lib/gcc/arm-none-eabi/4.8/../../../arm-none-eabi/lib/armv7e-m/fpu/libm.a(lib_a-wf_asin.o)
fclose                                            /usr/lib/gcc/arm-none-eabi/4.8/../../../arm-none-eabi/lib/armv7e-m/fpu/libg.a(lib_a-fclose.o)
fflush                                            /usr/lib/gcc/arm-none-eabi/4.8/../../../arm-none-eabi/lib/armv7e-m/fpu/libg.a(lib_a-fflush.o)
filter_add_sample                                 build/obj/digital_filter.o
                                                  build/obj/mcpwm.o
filter_create_fir_lowpass                         build/obj/digital_filter.o
                                                  build/obj/mcpwm.o
filter_dft                                        build/obj/digital_filter.o
filter_fft                                        build/obj/digital_filter.o
filter_fftshift                                   build/obj/digital_filter.o
filter_hamming                                    build/obj/digital_filter.o
filter_run_fir_iteration                          build/obj/digital_filter.o
                                                  build/obj/mcpwm.o
filter_zeroPad                                    build/obj/digital_filter.o
finitef                                           /usr/lib/gcc/arm-none-eabi/4.8/../../../arm-none-eabi/lib/armv7e-m/fpu/libm.a(lib_a-sf_finite.o)
                                                  /usr/lib/gcc/arm-none-eabi/4.8/../../../arm-none-eabi/lib/armv7e-m/fpu/libm.a(lib_a-wf_pow.o)
                                                  /usr/lib/gcc/arm-none-eabi/4.8/../../../arm-none-eabi/lib/armv7e-m/fpu/libm.a(lib_a-wf_exp.o)
                                                  /usr/lib/gcc/arm-none-eabi/4.8/../../../arm-none-eabi/lib/armv7e-m/fpu/libm.a(lib_a-sf_ldexp.o)
flash_helper_erase_new_app                        build/obj/flash_helper.o
                                                  build/obj/commands.o
flash_helper_get_sector_address                   build/obj/flash_helper.o
                                                  build/obj/eeprom.o
flash_helper_jump_to_bootloader                   build/obj/flash_helper.o
                                                  build/obj/commands.o
flash_helper_write_new_app_data                   build/obj/flash_helper.o
                                                  build/obj/commands.o
floorf                                            /usr/lib/gcc/arm-none-eabi/4.8/../../../arm-none-eabi/lib/armv7e-m/fpu/libm.a(lib_a-sf_floor.o)
                                                  /usr/lib/gcc/arm-none-eabi/4.8/../../../arm-none-eabi/lib/armv7e-m/fpu/libm.a(lib_a-kf_rem_pio2.o)
                                                  build/obj/mcpwm_foc.o
fmodf                                             /usr/lib/gcc/arm-none-eabi/4.8/../../../arm-none-eabi/lib/armv7e-m/fpu/libm.a(lib_a-wf_fmod.o)
                                                  build/obj/utils.o
frexpf                                            /usr/lib/gcc/arm-none-eabi/4.8/../../../arm-none-eabi/lib/armv7e-m/fpu/libm.a(lib_a-sf_frexp.o)
                                                  build/obj/buffer.o
halInit                                           build/obj/hal.o
                                                  build/obj/main.o
hal_lld_init                                      build/obj/hal_lld.o
                                                  build/obj/hal.o
hw_init_gpio                                      build/obj/hw_410.o
                                                  build/obj/main.o
hw_setup_adc_channels                             build/obj/hw_410.o
                                                  build/obj/mcpwm_foc.o
                                                  build/obj/mcpwm.o
hw_setup_servo_outputs                            build/obj/hw_410.o
hw_start_i2c                                      build/obj/hw_410.o
                                                  build/obj/app_nunchuk.o
hw_stop_i2c                                       build/obj/hw_410.o
                                                  build/obj/app_nunchuk.o
                                                  build/obj/app.o
hw_try_restore_i2c                                build/obj/hw_410.o
                                                  build/obj/app_nunchuk.o
i2cAcquireBus                                     build/obj/i2c.o
                                                  build/obj/app_nunchuk.o
                                                  build/obj/hw_410.o
i2cGetErrors                                      build/obj/i2c.o
i2cInit                                           build/obj/i2c.o
                                                  build/obj/hal.o
i2cMasterReceiveTimeout                           build/obj/i2c.o
                                                  build/obj/app_nunchuk.o
i2cMasterTransmitTimeout                          build/obj/i2c.o
                                                  build/obj/app_nunchuk.o
i2cObjectInit                                     build/obj/i2c.o
                                                  build/obj/i2c_lld.o
i2cReleaseBus                                     build/obj/i2c.o
                                                  build/obj/app_nunchuk.o
                                                  build/obj/hw_410.o
i2cStart                                          build/obj/i2c.o
                                                  build/obj/hw_410.o
i2cStop                                           build/obj/i2c.o
                                                  build/obj/hw_410.o
i2c_lld_init                                      build/obj/i2c_lld.o
                                                  build/obj/i2c.o
i2c_lld_master_receive_timeout                    build/obj/i2c_lld.o
                                                  build/obj/i2c.o
i2c_lld_master_transmit_timeout                   build/obj/i2c_lld.o
                                                  build/obj/i2c.o
i2c_lld_start                                     build/obj/i2c_lld.o
                                                  build/obj/i2c.o
i2c_lld_stop                                      build/obj/i2c_lld.o
                                                  build/obj/i2c.o
icuDisableNotifications                           build/obj/icu.o
icuEnableNotifications                            build/obj/icu.o
                                                  build/obj/servo_dec.o
icuInit                                           build/obj/icu.o
                                                  build/obj/hal.o
icuObjectInit                                     build/obj/icu.o
                                                  build/obj/icu_lld.o
icuStart                                          build/obj/icu.o
                                                  build/obj/servo_dec.o
icuStartCapture                                   build/obj/icu.o
                                                  build/obj/servo_dec.o
icuStop                                           build/obj/icu.o
                                                  build/obj/servo_dec.o
icuStopCapture                                    build/obj/icu.o
icuWaitCapture                                    build/obj/icu.o
icu_lld_disable_notifications                     build/obj/icu_lld.o
                                                  build/obj/icu.o
icu_lld_enable_notifications                      build/obj/icu_lld.o
                                                  build/obj/icu.o
icu_lld_init                                      build/obj/icu_lld.o
                                                  build/obj/icu.o
icu_lld_start                                     build/obj/icu_lld.o
                                                  build/obj/icu.o
icu_lld_start_capture                             build/obj/icu_lld.o
                                                  build/obj/icu.o
icu_lld_stop                                      build/obj/icu_lld.o
                                                  build/obj/icu.o
icu_lld_stop_capture                              build/obj/icu_lld.o
                                                  build/obj/icu.o
icu_lld_wait_capture                              build/obj/icu_lld.o
                                                  build/obj/icu.o
iswspace                                          /usr/lib/gcc/arm-none-eabi/4.8/../../../arm-none-eabi/lib/armv7e-m/fpu/libg.a(lib_a-iswspace.o)
                                                  /usr/lib/gcc/arm-none-eabi/4.8/../../../arm-none-eabi/lib/armv7e-m/fpu/libg.a(lib_a-svfiscanf.o)
                                                  /usr/lib/gcc/arm-none-eabi/4.8/../../../arm-none-eabi/lib/armv7e-m/fpu/libg.a(lib_a-svfscanf.o)
ldexpf                                            /usr/lib/gcc/arm-none-eabi/4.8/../../../arm-none-eabi/lib/armv7e-m/fpu/libm.a(lib_a-sf_ldexp.o)
                                                  build/obj/buffer.o
led_external_init                                 build/obj/led_external.o
led_external_set_reversed                         build/obj/led_external.o
                                                  build/obj/app_nunchuk.o
led_external_set_state                            build/obj/led_external.o
                                                  build/obj/app_nunchuk.o
ledpwm_init                                       build/obj/ledpwm.o
                                                  build/obj/main.o
ledpwm_led_off                                    build/obj/ledpwm.o
ledpwm_led_on                                     build/obj/ledpwm.o
ledpwm_set_intensity                              build/obj/ledpwm.o
                                                  build/obj/main.o
ledpwm_update_pwm                                 build/obj/ledpwm.o
                                                  build/obj/mc_interface.o
localeconv                                        /usr/lib/gcc/arm-none-eabi/4.8/../../../arm-none-eabi/lib/armv7e-m/fpu/libg.a(lib_a-locale.o)
logf                                              /usr/lib/gcc/arm-none-eabi/4.8/../../../arm-none-eabi/lib/armv7e-m/fpu/libm.a(lib_a-wf_log.o)
                                                  build/obj/mc_interface.o
main                                              build/obj/main.o
                                                  build/obj/crt0_v7m.o
matherr                                           /usr/lib/gcc/arm-none-eabi/4.8/../../../arm-none-eabi/lib/armv7e-m/fpu/libm.a(lib_a-s_matherr.o)
                                                  /usr/lib/gcc/arm-none-eabi/4.8/../../../arm-none-eabi/lib/armv7e-m/fpu/libm.a(lib_a-w_sqrt.o)
                                                  /usr/lib/gcc/arm-none-eabi/4.8/../../../arm-none-eabi/lib/armv7e-m/fpu/libm.a(lib_a-wf_sqrt.o)
                                                  /usr/lib/gcc/arm-none-eabi/4.8/../../../arm-none-eabi/lib/armv7e-m/fpu/libm.a(lib_a-wf_pow.o)
                                                  /usr/lib/gcc/arm-none-eabi/4.8/../../../arm-none-eabi/lib/armv7e-m/fpu/libm.a(lib_a-wf_log.o)
                                                  /usr/lib/gcc/arm-none-eabi/4.8/../../../arm-none-eabi/lib/armv7e-m/fpu/libm.a(lib_a-wf_fmod.o)
                                                  /usr/lib/gcc/arm-none-eabi/4.8/../../../arm-none-eabi/lib/armv7e-m/fpu/libm.a(lib_a-wf_exp.o)
                                                  /usr/lib/gcc/arm-none-eabi/4.8/../../../arm-none-eabi/lib/armv7e-m/fpu/libm.a(lib_a-wf_asin.o)
mbrtowc                                           /usr/lib/gcc/arm-none-eabi/4.8/../../../arm-none-eabi/lib/armv7e-m/fpu/libg.a(lib_a-mbrtowc.o)
mc_interface_adc_inj_int_handler                  build/obj/mc_interface.o
                                                  build/obj/irq_handlers.o
mc_interface_brake_now                            build/obj/mc_interface.o
mc_interface_dccal_done                           build/obj/mc_interface.o
mc_interface_fault_stop                           build/obj/mc_interface.o
mc_interface_fault_to_string                      build/obj/mc_interface.o
                                                  build/obj/terminal.o
mc_interface_get_amp_hours                        build/obj/mc_interface.o
                                                  build/obj/commands.o
mc_interface_get_amp_hours_charged                build/obj/mc_interface.o
                                                  build/obj/commands.o
mc_interface_get_configuration                    build/obj/mc_interface.o
                                                  build/obj/app_nunchuk.o
                                                  build/obj/app_adc.o
                                                  build/obj/app_ppm.o
                                                  build/obj/commands.o
                                                  build/obj/conf_general.o
                                                  build/obj/terminal.o
                                                  build/obj/main.o
mc_interface_get_duty_cycle_now                   build/obj/mc_interface.o
                                                  build/obj/app_adc.o
                                                  build/obj/comm_can.o
                                                  build/obj/commands.o
                                                  build/obj/conf_general.o
mc_interface_get_duty_cycle_set                   build/obj/mc_interface.o
mc_interface_get_fault                            build/obj/mc_interface.o
                                                  build/obj/app_adc.o
                                                  build/obj/app_ppm.o
                                                  build/obj/led_external.o
                                                  build/obj/commands.o
                                                  build/obj/conf_general.o
                                                  build/obj/terminal.o
                                                  build/obj/main.o
mc_interface_get_last_inj_adc_isr_duration        build/obj/mc_interface.o
                                                  build/obj/terminal.o
mc_interface_get_last_sample_adc_isr_duration     build/obj/mc_interface.o
                                                  build/obj/terminal.o
mc_interface_get_pid_pos_now                      build/obj/mc_interface.o
                                                  build/obj/main.o
mc_interface_get_pid_pos_set                      build/obj/mc_interface.o
                                                  build/obj/main.o
mc_interface_get_rpm                              build/obj/mc_interface.o
                                                  build/obj/app_nunchuk.o
                                                  build/obj/app_adc.o
                                                  build/obj/app_ppm.o
                                                  build/obj/comm_can.o
                                                  build/obj/commands.o
                                                  build/obj/conf_general.o
                                                  build/obj/terminal.o
mc_interface_get_sampling_frequency_now           build/obj/mc_interface.o
mc_interface_get_state                            build/obj/mc_interface.o
                                                  build/obj/main.o
mc_interface_get_tachometer_abs_value             build/obj/mc_interface.o
                                                  build/obj/commands.o
mc_interface_get_tachometer_value                 build/obj/mc_interface.o
                                                  build/obj/commands.o
                                                  build/obj/conf_general.o
                                                  build/obj/terminal.o
mc_interface_get_tot_current                      build/obj/mc_interface.o
                                                  build/obj/comm_can.o
                                                  build/obj/conf_general.o
mc_interface_get_tot_current_directional          build/obj/mc_interface.o
                                                  build/obj/terminal.o
mc_interface_get_tot_current_directional_filtered build/obj/mc_interface.o
                                                  build/obj/app_nunchuk.o
                                                  build/obj/app_adc.o
                                                  build/obj/app_ppm.o
mc_interface_get_tot_current_filtered             build/obj/mc_interface.o
mc_interface_get_tot_current_in                   build/obj/mc_interface.o
mc_interface_get_tot_current_in_filtered          build/obj/mc_interface.o
mc_interface_get_watt_hours                       build/obj/mc_interface.o
                                                  build/obj/commands.o
mc_interface_get_watt_hours_charged               build/obj/mc_interface.o
                                                  build/obj/commands.o
mc_interface_init                                 build/obj/mc_interface.o
                                                  build/obj/main.o
mc_interface_lock                                 build/obj/mc_interface.o
                                                  build/obj/mcpwm_foc.o
                                                  build/obj/conf_general.o
mc_interface_lock_override_once                   build/obj/mc_interface.o
                                                  build/obj/conf_general.o
mc_interface_mc_timer_isr                         build/obj/mc_interface.o
                                                  build/obj/mcpwm_foc.o
                                                  build/obj/mcpwm.o
mc_interface_read_reset_avg_id                    build/obj/mc_interface.o
                                                  build/obj/commands.o
mc_interface_read_reset_avg_input_current         build/obj/mc_interface.o
                                                  build/obj/commands.o
mc_interface_read_reset_avg_iq                    build/obj/mc_interface.o
                                                  build/obj/commands.o
mc_interface_read_reset_avg_motor_current         build/obj/mc_interface.o
                                                  build/obj/commands.o
mc_interface_release_motor                        build/obj/mc_interface.o
                                                  build/obj/flash_helper.o
                                                  build/obj/commands.o
                                                  build/obj/conf_general.o
                                                  build/obj/terminal.o
mc_interface_sample_print_data                    build/obj/mc_interface.o
                                                  build/obj/commands.o
mc_interface_set_brake_current                    build/obj/mc_interface.o
                                                  build/obj/app_nunchuk.o
                                                  build/obj/app_adc.o
                                                  build/obj/app_ppm.o
                                                  build/obj/comm_can.o
                                                  build/obj/timeout.o
                                                  build/obj/commands.o
mc_interface_set_brake_current_rel                build/obj/mc_interface.o
                                                  build/obj/comm_can.o
mc_interface_set_configuration                    build/obj/mc_interface.o
                                                  build/obj/commands.o
                                                  build/obj/conf_general.o
                                                  build/obj/terminal.o
mc_interface_set_current                          build/obj/mc_interface.o
                                                  build/obj/app_nunchuk.o
                                                  build/obj/app_adc.o
                                                  build/obj/app_ppm.o
                                                  build/obj/comm_can.o
                                                  build/obj/commands.o
                                                  build/obj/conf_general.o
mc_interface_set_current_rel                      build/obj/mc_interface.o
                                                  build/obj/comm_can.o
mc_interface_set_duty                             build/obj/mc_interface.o
                                                  build/obj/app_adc.o
                                                  build/obj/app_ppm.o
                                                  build/obj/comm_can.o
                                                  build/obj/commands.o
                                                  build/obj/conf_general.o
                                                  build/obj/terminal.o
mc_interface_set_duty_noramp                      build/obj/mc_interface.o
mc_interface_set_handbrake                        build/obj/mc_interface.o
                                                  build/obj/commands.o
mc_interface_set_pid_pos                          build/obj/mc_interface.o
                                                  build/obj/commands.o
mc_interface_set_pid_speed                        build/obj/mc_interface.o
                                                  build/obj/app_nunchuk.o
                                                  build/obj/app_adc.o
                                                  build/obj/app_ppm.o
                                                  build/obj/comm_can.o
                                                  build/obj/commands.o
mc_interface_set_pwm_callback                     build/obj/mc_interface.o
mc_interface_temp_fet_filtered                    build/obj/mc_interface.o
                                                  build/obj/commands.o
mc_interface_temp_motor_filtered                  build/obj/mc_interface.o
                                                  build/obj/mcpwm_foc.o
                                                  build/obj/commands.o
mc_interface_try_input                            build/obj/mc_interface.o
                                                  build/obj/mcpwm.o
mc_interface_unlock                               build/obj/mc_interface.o
                                                  build/obj/mcpwm_foc.o
                                                  build/obj/flash_helper.o
                                                  build/obj/timeout.o
                                                  build/obj/conf_general.o
mcconf                                            build/obj/conf_general.o
mcconf_old                                        build/obj/conf_general.o
mcpwm_adc_inj_int_handler                         build/obj/mcpwm.o
                                                  build/obj/mc_interface.o
mcpwm_adc_int_handler                             build/obj/mcpwm.o
mcpwm_deinit                                      build/obj/mcpwm.o
                                                  build/obj/mc_interface.o
mcpwm_detect_currents                             build/obj/mcpwm.o
                                                  build/obj/mc_interface.o
mcpwm_detect_currents_diff                        build/obj/mcpwm.o
                                                  build/obj/mc_interface.o
mcpwm_detect_voltages                             build/obj/mcpwm.o
                                                  build/obj/mc_interface.o
mcpwm_foc_adc_int_handler                         build/obj/mcpwm_foc.o
mcpwm_foc_deinit                                  build/obj/mcpwm_foc.o
                                                  build/obj/mc_interface.o
mcpwm_foc_encoder_detect                          build/obj/mcpwm_foc.o
                                                  build/obj/commands.o
                                                  build/obj/terminal.o
mcpwm_foc_get_abs_motor_current                   build/obj/mcpwm_foc.o
                                                  build/obj/mc_interface.o
mcpwm_foc_get_abs_motor_current_filtered          build/obj/mcpwm_foc.o
                                                  build/obj/mc_interface.o
mcpwm_foc_get_abs_motor_voltage                   build/obj/mcpwm_foc.o
mcpwm_foc_get_duty_cycle_now                      build/obj/mcpwm_foc.o
                                                  build/obj/mc_interface.o
mcpwm_foc_get_duty_cycle_set                      build/obj/mcpwm_foc.o
                                                  build/obj/mc_interface.o
mcpwm_foc_get_id                                  build/obj/mcpwm_foc.o
                                                  build/obj/mc_interface.o
mcpwm_foc_get_iq                                  build/obj/mcpwm_foc.o
                                                  build/obj/mc_interface.o
mcpwm_foc_get_last_inj_adc_isr_duration           build/obj/mcpwm_foc.o
                                                  build/obj/mc_interface.o
mcpwm_foc_get_phase                               build/obj/mcpwm_foc.o
                                                  build/obj/mc_interface.o
mcpwm_foc_get_phase_encoder                       build/obj/mcpwm_foc.o
                                                  build/obj/main.o
mcpwm_foc_get_phase_observer                      build/obj/mcpwm_foc.o
                                                  build/obj/main.o
mcpwm_foc_get_pid_pos_now                         build/obj/mcpwm_foc.o
                                                  build/obj/mc_interface.o
mcpwm_foc_get_pid_pos_set                         build/obj/mcpwm_foc.o
mcpwm_foc_get_rpm                                 build/obj/mcpwm_foc.o
                                                  build/obj/mc_interface.o
mcpwm_foc_get_sampling_frequency_now              build/obj/mcpwm_foc.o
                                                  build/obj/mc_interface.o
mcpwm_foc_get_state                               build/obj/mcpwm_foc.o
                                                  build/obj/mc_interface.o
mcpwm_foc_get_switching_frequency_now             build/obj/mcpwm_foc.o
mcpwm_foc_get_tachometer_abs_value                build/obj/mcpwm_foc.o
                                                  build/obj/mc_interface.o
mcpwm_foc_get_tachometer_value                    build/obj/mcpwm_foc.o
                                                  build/obj/mc_interface.o
mcpwm_foc_get_tot_current                         build/obj/mcpwm_foc.o
                                                  build/obj/mc_interface.o
mcpwm_foc_get_tot_current_directional             build/obj/mcpwm_foc.o
                                                  build/obj/mc_interface.o
mcpwm_foc_get_tot_current_directional_filtered    build/obj/mcpwm_foc.o
                                                  build/obj/mc_interface.o
mcpwm_foc_get_tot_current_filtered                build/obj/mcpwm_foc.o
                                                  build/obj/mc_interface.o
mcpwm_foc_get_tot_current_in                      build/obj/mcpwm_foc.o
                                                  build/obj/mc_interface.o
mcpwm_foc_get_tot_current_in_filtered             build/obj/mcpwm_foc.o
                                                  build/obj/mc_interface.o
mcpwm_foc_get_vd                                  build/obj/mcpwm_foc.o
mcpwm_foc_get_vq                                  build/obj/mcpwm_foc.o
                                                  build/obj/terminal.o
mcpwm_foc_hall_detect                             build/obj/mcpwm_foc.o
                                                  build/obj/commands.o
mcpwm_foc_init                                    build/obj/mcpwm_foc.o
                                                  build/obj/mc_interface.o
mcpwm_foc_init_done                               build/obj/mcpwm_foc.o
                                                  build/obj/mc_interface.o
mcpwm_foc_is_dccal_done                           build/obj/mcpwm_foc.o
                                                  build/obj/mc_interface.o
mcpwm_foc_measure_inductance                      build/obj/mcpwm_foc.o
                                                  build/obj/terminal.o
mcpwm_foc_measure_res_ind                         build/obj/mcpwm_foc.o
                                                  build/obj/commands.o
                                                  build/obj/terminal.o
mcpwm_foc_measure_resistance                      build/obj/mcpwm_foc.o
                                                  build/obj/terminal.o
mcpwm_foc_print_state                             build/obj/mcpwm_foc.o
                                                  build/obj/terminal.o
mcpwm_foc_set_brake_current                       build/obj/mcpwm_foc.o
                                                  build/obj/mc_interface.o
mcpwm_foc_set_configuration                       build/obj/mcpwm_foc.o
                                                  build/obj/mc_interface.o
mcpwm_foc_set_current                             build/obj/mcpwm_foc.o
                                                  build/obj/mc_interface.o
mcpwm_foc_set_duty                                build/obj/mcpwm_foc.o
                                                  build/obj/mc_interface.o
mcpwm_foc_set_duty_noramp                         build/obj/mcpwm_foc.o
                                                  build/obj/mc_interface.o
mcpwm_foc_set_handbrake                           build/obj/mcpwm_foc.o
                                                  build/obj/mc_interface.o
mcpwm_foc_set_openloop                            build/obj/mcpwm_foc.o
                                                  build/obj/terminal.o
mcpwm_foc_set_pid_pos                             build/obj/mcpwm_foc.o
                                                  build/obj/mc_interface.o
mcpwm_foc_set_pid_speed                           build/obj/mcpwm_foc.o
                                                  build/obj/mc_interface.o
mcpwm_foc_stop_pwm                                build/obj/mcpwm_foc.o
                                                  build/obj/mc_interface.o
mcpwm_foc_tim_sample_int_handler                  build/obj/mcpwm_foc.o
                                                  build/obj/irq_handlers.o
mcpwm_get_comm_mode                               build/obj/mcpwm.o
mcpwm_get_comm_step                               build/obj/mcpwm.o
                                                  build/obj/mc_interface.o
mcpwm_get_detect_pos                              build/obj/mcpwm.o
                                                  build/obj/main.o
mcpwm_get_duty_cycle_now                          build/obj/mcpwm.o
                                                  build/obj/mc_interface.o
mcpwm_get_duty_cycle_set                          build/obj/mcpwm.o
                                                  build/obj/mc_interface.o
mcpwm_get_hall_detect_result                      build/obj/mcpwm.o
                                                  build/obj/conf_general.o
mcpwm_get_kv                                      build/obj/mcpwm.o
mcpwm_get_kv_filtered                             build/obj/mcpwm.o
                                                  build/obj/terminal.o
mcpwm_get_last_adc_isr_duration                   build/obj/mcpwm.o
                                                  build/obj/terminal.o
mcpwm_get_last_inj_adc_isr_duration               build/obj/mcpwm.o
                                                  build/obj/mc_interface.o
mcpwm_get_rpm                                     build/obj/mcpwm.o
                                                  build/obj/mc_interface.o
mcpwm_get_rpm_dep                                 build/obj/mcpwm.o
                                                  build/obj/terminal.o
mcpwm_get_state                                   build/obj/mcpwm.o
                                                  build/obj/mc_interface.o
mcpwm_get_switching_frequency_now                 build/obj/mcpwm.o
                                                  build/obj/mc_interface.o
mcpwm_get_tachometer_abs_value                    build/obj/mcpwm.o
                                                  build/obj/mc_interface.o
mcpwm_get_tachometer_value                        build/obj/mcpwm.o
                                                  build/obj/mc_interface.o
mcpwm_get_tot_current                             build/obj/mcpwm.o
                                                  build/obj/mc_interface.o
mcpwm_get_tot_current_directional                 build/obj/mcpwm.o
                                                  build/obj/mc_interface.o
mcpwm_get_tot_current_directional_filtered        build/obj/mcpwm.o
                                                  build/obj/mc_interface.o
mcpwm_get_tot_current_filtered                    build/obj/mcpwm.o
                                                  build/obj/mc_interface.o
mcpwm_get_tot_current_in                          build/obj/mcpwm.o
                                                  build/obj/mc_interface.o
mcpwm_get_tot_current_in_filtered                 build/obj/mcpwm.o
                                                  build/obj/mc_interface.o
mcpwm_init                                        build/obj/mcpwm.o
                                                  build/obj/mc_interface.o
mcpwm_init_done                                   build/obj/mcpwm.o
                                                  build/obj/mc_interface.o
mcpwm_init_hall_table                             build/obj/mcpwm.o
mcpwm_is_dccal_done                               build/obj/mcpwm.o
                                                  build/obj/mc_interface.o
mcpwm_read_hall_phase                             build/obj/mcpwm.o
                                                  build/obj/mc_interface.o
mcpwm_read_reset_avg_cycle_integrator             build/obj/mcpwm.o
                                                  build/obj/conf_general.o
mcpwm_reset_hall_detect_table                     build/obj/mcpwm.o
                                                  build/obj/conf_general.o
mcpwm_set_brake_current                           build/obj/mcpwm.o
                                                  build/obj/mc_interface.o
mcpwm_set_comm_mode                               build/obj/mcpwm.o
mcpwm_set_configuration                           build/obj/mcpwm.o
                                                  build/obj/mc_interface.o
mcpwm_set_current                                 build/obj/mcpwm.o
                                                  build/obj/mc_interface.o
mcpwm_set_detect                                  build/obj/mcpwm.o
                                                  build/obj/commands.o
mcpwm_set_duty                                    build/obj/mcpwm.o
                                                  build/obj/mc_interface.o
mcpwm_set_duty_noramp                             build/obj/mcpwm.o
                                                  build/obj/mc_interface.o
mcpwm_set_pid_pos                                 build/obj/mcpwm.o
                                                  build/obj/mc_interface.o
mcpwm_set_pid_speed                               build/obj/mcpwm.o
                                                  build/obj/mc_interface.o
mcpwm_stop_pwm                                    build/obj/mcpwm.o
                                                  build/obj/mc_interface.o
mcpwm_switch_comm_mode                            build/obj/mcpwm.o
                                                  build/obj/conf_general.o
mcpwm_vzero                                       build/obj/mcpwm.o
                                                  build/obj/mc_interface.o
memchr                                            /usr/lib/gcc/arm-none-eabi/4.8/../../../arm-none-eabi/lib/armv7e-m/fpu/libg.a(lib_a-memchr-stub.o)
                                                  /usr/lib/gcc/arm-none-eabi/4.8/../../../arm-none-eabi/lib/armv7e-m/fpu/libg.a(lib_a-svfiprintf.o)
                                                  /usr/lib/gcc/arm-none-eabi/4.8/../../../arm-none-eabi/lib/armv7e-m/fpu/libg.a(lib_a-svfprintf.o)
memcmp                                            /usr/lib/gcc/arm-none-eabi/4.8/../../../arm-none-eabi/lib/armv7e-m/fpu/libg.a(lib_a-memcmp.o)
                                                  build/obj/rfhelp.o
memcpy                                            /usr/lib/gcc/arm-none-eabi/4.8/../../../arm-none-eabi/lib/armv7e-m/fpu/libg.a(lib_a-memcpy.o)
                                                  /usr/lib/gcc/arm-none-eabi/4.8/../../../arm-none-eabi/lib/armv7e-m/fpu/libg.a(lib_a-svfiprintf.o)
                                                  /usr/lib/gcc/arm-none-eabi/4.8/../../../arm-none-eabi/lib/armv7e-m/fpu/libg.a(lib_a-mprec.o)
                                                  /usr/lib/gcc/arm-none-eabi/4.8/../../../arm-none-eabi/lib/armv7e-m/fpu/libg.a(lib_a-gdtoa-gethex.o)
                                                  /usr/lib/gcc/arm-none-eabi/4.8/../../../arm-none-eabi/lib/armv7e-m/fpu/libg.a(lib_a-dtoa.o)
                                                  /usr/lib/gcc/arm-none-eabi/4.8/../../../arm-none-eabi/lib/armv7e-m/fpu/libg.a(lib_a-ungetc.o)
                                                  /usr/lib/gcc/arm-none-eabi/4.8/../../../arm-none-eabi/lib/armv7e-m/fpu/libg.a(lib_a-svfiscanf.o)
                                                  /usr/lib/gcc/arm-none-eabi/4.8/../../../arm-none-eabi/lib/armv7e-m/fpu/libg.a(lib_a-strtod.o)
                                                  build/obj/nrf_driver.o
                                                  build/obj/rfhelp.o
                                                  build/obj/app_uartcomm.o
                                                  build/obj/app_adc.o
                                                  build/obj/app.o
                                                  build/obj/mc_interface.o
                                                  build/obj/comm_can.o
                                                  build/obj/commands.o
                                                  build/obj/conf_general.o
                                                  build/obj/terminal.o
                                                  build/obj/packet.o
memmove                                           /usr/lib/gcc/arm-none-eabi/4.8/../../../arm-none-eabi/lib/armv7e-m/fpu/libg.a(lib_a-memmove.o)
                                                  /usr/lib/gcc/arm-none-eabi/4.8/../../../arm-none-eabi/lib/armv7e-m/fpu/libg.a(lib_a-svfiprintf.o)
                                                  /usr/lib/gcc/arm-none-eabi/4.8/../../../arm-none-eabi/lib/armv7e-m/fpu/libg.a(lib_a-reallocr.o)
memset                                            /usr/lib/gcc/arm-none-eabi/4.8/../../../arm-none-eabi/lib/armv7e-m/fpu/libg.a(lib_a-memset.o)
                                                  /usr/lib/gcc/arm-none-eabi/4.8/../../../arm-none-eabi/lib/armv7e-m/fpu/libg.a(lib_a-callocr.o)
                                                  /usr/lib/gcc/arm-none-eabi/4.8/../../../arm-none-eabi/lib/armv7e-m/fpu/libg.a(lib_a-findfp.o)
                                                  /usr/lib/gcc/arm-none-eabi/4.8/../../../arm-none-eabi/lib/armv7e-m/fpu/libg.a(lib_a-svfiscanf.o)
                                                  /usr/lib/gcc/arm-none-eabi/4.8/../../../arm-none-eabi/lib/armv7e-m/fpu/libg.a(lib_a-svfscanf.o)
                                                  build/obj/mcpwm_foc.o
                                                  build/obj/commands.o
                                                  build/obj/conf_general.o
                                                  build/obj/mcpwm.o
                                                  build/obj/syscalls.o
                                                  build/obj/usb.o
msObjectInit                                      build/obj/chprintf.o
nan                                               /usr/lib/gcc/arm-none-eabi/4.8/../../../arm-none-eabi/lib/armv7e-m/fpu/libm.a(lib_a-s_nan.o)
                                                  /usr/lib/gcc/arm-none-eabi/4.8/../../../arm-none-eabi/lib/armv7e-m/fpu/libm.a(lib_a-wf_log.o)
                                                  /usr/lib/gcc/arm-none-eabi/4.8/../../../arm-none-eabi/lib/armv7e-m/fpu/libm.a(lib_a-wf_asin.o)
nanf                                              /usr/lib/gcc/arm-none-eabi/4.8/../../../arm-none-eabi/lib/armv7e-m/fpu/libm.a(lib_a-sf_nan.o)
                                                  /usr/lib/gcc/arm-none-eabi/4.8/../../../arm-none-eabi/lib/armv7e-m/fpu/libg.a(lib_a-strtod.o)
                                                  /usr/lib/gcc/arm-none-eabi/4.8/../../../arm-none-eabi/lib/armv7e-m/fpu/libg.a(lib_a-svfscanf.o)
                                                  /usr/lib/gcc/arm-none-eabi/4.8/../../../arm-none-eabi/lib/armv7e-m/fpu/libm.a(lib_a-ef_pow.o)
nrf_driver_init                                   build/obj/nrf_driver.o
                                                  build/obj/app.o
nrf_driver_send_buffer                            build/obj/nrf_driver.o
nrf_driver_start_pairing                          build/obj/nrf_driver.o
                                                  build/obj/commands.o
nrf_driver_stop                                   build/obj/nrf_driver.o
                                                  build/obj/app.o
nvicClearPending                                  build/obj/nvic.o
nvicDisableVector                                 build/obj/nvic.o
                                                  build/obj/mcpwm_foc.o
                                                  build/obj/encoder.o
                                                  build/obj/mcpwm.o
                                                  build/obj/uart_lld.o
                                                  build/obj/icu_lld.o
                                                  build/obj/usb_lld.o
                                                  build/obj/i2c_lld.o
                                                  build/obj/can_lld.o
                                                  build/obj/stm32_dma.o
nvicEnableVector                                  build/obj/nvic.o
                                                  build/obj/mcpwm_foc.o
                                                  build/obj/encoder.o
                                                  build/obj/mcpwm.o
                                                  build/obj/uart_lld.o
                                                  build/obj/icu_lld.o
                                                  build/obj/usb_lld.o
                                                  build/obj/i2c_lld.o
                                                  build/obj/can_lld.o
                                                  build/obj/stm32_dma.o
nvicSetSystemHandlerPriority                      build/obj/nvic.o
                                                  build/obj/st_lld.o
observer_update                                   build/obj/mcpwm_foc.o
packet_init                                       build/obj/packet.o
                                                  build/obj/app_uartcomm.o
                                                  build/obj/comm_usb.o
packet_process_byte                               build/obj/packet.o
                                                  build/obj/app_uartcomm.o
                                                  build/obj/comm_usb.o
packet_send_packet                                build/obj/packet.o
                                                  build/obj/app_uartcomm.o
                                                  build/obj/comm_usb.o
packet_timerfunc                                  build/obj/packet.o
                                                  build/obj/main.o
palReadBus                                        build/obj/pal.o
palSetBusMode                                     build/obj/pal.o
palWriteBus                                       build/obj/pal.o
pal_default_config                                build/obj/board.o
                                                  build/obj/hal.o
powf                                              /usr/lib/gcc/arm-none-eabi/4.8/../../../arm-none-eabi/lib/armv7e-m/fpu/libm.a(lib_a-wf_pow.o)
                                                  build/obj/ws2811.o
                                                  build/obj/utils.o
                                                  build/obj/ledpwm.o
rf_clear_irq                                      build/obj/rf.o
                                                  build/obj/rfhelp.o
rf_clear_maxrt_irq                                build/obj/rf.o
                                                  build/obj/rfhelp.o
rf_clear_rx_irq                                   build/obj/rf.o
                                                  build/obj/rfhelp.o
rf_clear_tx_irq                                   build/obj/rf.o
rf_enable_features                                build/obj/rf.o
                                                  build/obj/rfhelp.o
rf_enable_pipe_address                            build/obj/rf.o
                                                  build/obj/rfhelp.o
rf_enable_pipe_autoack                            build/obj/rf.o
                                                  build/obj/rfhelp.o
rf_enable_pipe_dlp                                build/obj/rf.o
                                                  build/obj/rfhelp.o
rf_fifo_status                                    build/obj/rf.o
rf_flush_all                                      build/obj/rf.o
                                                  build/obj/rfhelp.o
rf_flush_rx                                       build/obj/rf.o
rf_flush_tx                                       build/obj/rf.o
rf_get_address_width                              build/obj/rf.o
rf_get_frequency                                  build/obj/rf.o
rf_get_payload_width                              build/obj/rf.o
                                                  build/obj/rfhelp.o
rf_init                                           build/obj/rf.o
                                                  build/obj/rfhelp.o
rf_mode_rx                                        build/obj/rf.o
                                                  build/obj/rfhelp.o
rf_mode_tx                                        build/obj/rf.o
                                                  build/obj/rfhelp.o
rf_power_down                                     build/obj/rf.o
                                                  build/obj/rfhelp.o
rf_power_up                                       build/obj/rf.o
                                                  build/obj/rfhelp.o
rf_read_reg                                       build/obj/rf.o
                                                  build/obj/rfhelp.o
rf_read_reg_byte                                  build/obj/rf.o
rf_read_rx_payload                                build/obj/rf.o
                                                  build/obj/rfhelp.o
rf_rx_power_detect                                build/obj/rf.o
rf_set_address_width                              build/obj/rf.o
                                                  build/obj/rfhelp.o
rf_set_crc_type                                   build/obj/rf.o
                                                  build/obj/rfhelp.o
rf_set_frequency                                  build/obj/rf.o
                                                  build/obj/rfhelp.o
rf_set_power                                      build/obj/rf.o
                                                  build/obj/rfhelp.o
rf_set_retr_delay                                 build/obj/rf.o
                                                  build/obj/rfhelp.o
rf_set_retr_retries                               build/obj/rf.o
                                                  build/obj/rfhelp.o
rf_set_rx_addr                                    build/obj/rf.o
                                                  build/obj/rfhelp.o
rf_set_speed                                      build/obj/rf.o
                                                  build/obj/rfhelp.o
rf_set_tx_addr                                    build/obj/rf.o
                                                  build/obj/rfhelp.o
rf_status                                         build/obj/rf.o
                                                  build/obj/rfhelp.o
rf_stop                                           build/obj/rf.o
                                                  build/obj/rfhelp.o
rf_write_ack_payload                              build/obj/rf.o
rf_write_reg                                      build/obj/rf.o
                                                  build/obj/rfhelp.o
rf_write_reg_byte                                 build/obj/rf.o
                                                  build/obj/rfhelp.o
rf_write_tx_payload                               build/obj/rf.o
                                                  build/obj/rfhelp.o
rf_write_tx_payload_no_ack                        build/obj/rf.o
                                                  build/obj/rfhelp.o
rfhelp_init                                       build/obj/rfhelp.o
                                                  build/obj/nrf_driver.o
rfhelp_power_down                                 build/obj/rfhelp.o
rfhelp_power_up                                   build/obj/rfhelp.o
                                                  build/obj/nrf_driver.o
rfhelp_read_rx_data                               build/obj/rfhelp.o
rfhelp_read_rx_data_crc                           build/obj/rfhelp.o
                                                  build/obj/nrf_driver.o
rfhelp_restart                                    build/obj/rfhelp.o
                                                  build/obj/nrf_driver.o
                                                  build/obj/app.o
rfhelp_rf_status                                  build/obj/rfhelp.o
rfhelp_send_data                                  build/obj/rfhelp.o
rfhelp_send_data_crc                              build/obj/rfhelp.o
                                                  build/obj/nrf_driver.o
rfhelp_set_rx_addr                                build/obj/rfhelp.o
rfhelp_set_tx_addr                                build/obj/rfhelp.o
rfhelp_stop                                       build/obj/rfhelp.o
                                                  build/obj/nrf_driver.o
rfhelp_update_conf                                build/obj/rfhelp.o
                                                  build/obj/nrf_driver.o
                                                  build/obj/app.o
rint                                              /usr/lib/gcc/arm-none-eabi/4.8/../../../arm-none-eabi/lib/armv7e-m/fpu/libm.a(lib_a-s_rint.o)
                                                  /usr/lib/gcc/arm-none-eabi/4.8/../../../arm-none-eabi/lib/armv7e-m/fpu/libm.a(lib_a-wf_pow.o)
roundf                                            /usr/lib/gcc/arm-none-eabi/4.8/../../../arm-none-eabi/lib/armv7e-m/fpu/libm.a(lib_a-sf_round.o)
                                                  build/obj/mcpwm_foc.o
                                                  build/obj/ws2811.o
                                                  build/obj/ledpwm.o
scalbnf                                           /usr/lib/gcc/arm-none-eabi/4.8/../../../arm-none-eabi/lib/armv7e-m/fpu/libm.a(lib_a-sf_scalbn.o)
                                                  /usr/lib/gcc/arm-none-eabi/4.8/../../../arm-none-eabi/lib/armv7e-m/fpu/libm.a(lib_a-kf_rem_pio2.o)
                                                  /usr/lib/gcc/arm-none-eabi/4.8/../../../arm-none-eabi/lib/armv7e-m/fpu/libm.a(lib_a-ef_pow.o)
                                                  /usr/lib/gcc/arm-none-eabi/4.8/../../../arm-none-eabi/lib/armv7e-m/fpu/libm.a(lib_a-sf_ldexp.o)
sduConfigureHookI                                 build/obj/serial_usb.o
                                                  build/obj/comm_usb_serial.o
sduDataReceived                                   build/obj/serial_usb.o
                                                  build/obj/comm_usb_serial.o
sduDataTransmitted                                build/obj/serial_usb.o
                                                  build/obj/comm_usb_serial.o
sduInit                                           build/obj/serial_usb.o
                                                  build/obj/hal.o
sduInterruptTransmitted                           build/obj/serial_usb.o
                                                  build/obj/comm_usb_serial.o
sduObjectInit                                     build/obj/serial_usb.o
                                                  build/obj/comm_usb_serial.o
sduRequestsHook                                   build/obj/serial_usb.o
                                                  build/obj/comm_usb_serial.o
sduStart                                          build/obj/serial_usb.o
                                                  build/obj/comm_usb_serial.o
sduStop                                           build/obj/serial_usb.o
serusbcfg                                         build/obj/comm_usb_serial.o
servodec_get_last_pulse_len                       build/obj/servo_dec.o
                                                  build/obj/commands.o
servodec_get_servo                                build/obj/servo_dec.o
                                                  build/obj/app_ppm.o
servodec_get_time_since_update                    build/obj/servo_dec.o
                                                  build/obj/app_ppm.o
servodec_init                                     build/obj/servo_dec.o
                                                  build/obj/app_ppm.o
servodec_set_pulse_options                        build/obj/servo_dec.o
                                                  build/obj/app_ppm.o
servodec_stop                                     build/obj/servo_dec.o
                                                  build/obj/app_ppm.o
servos                                            build/obj/hw_410.o
setlocale                                         /usr/lib/gcc/arm-none-eabi/4.8/../../../arm-none-eabi/lib/armv7e-m/fpu/libg.a(lib_a-locale.o)
sincosf                                           /usr/lib/gcc/arm-none-eabi/4.8/../../../arm-none-eabi/lib/armv7e-m/fpu/libm.a(lib_a-wf_sincos.o)
                                                  build/obj/mcpwm_foc.o
sinf                                              /usr/lib/gcc/arm-none-eabi/4.8/../../../arm-none-eabi/lib/armv7e-m/fpu/libm.a(lib_a-sf_sin.o)
                                                  /usr/lib/gcc/arm-none-eabi/4.8/../../../arm-none-eabi/lib/armv7e-m/fpu/libm.a(lib_a-wf_sincos.o)
                                                  build/obj/digital_filter.o
spiAcquireBus                                     build/obj/spi.o
spiExchange                                       build/obj/spi.o
spiIgnore                                         build/obj/spi.o
spiInit                                           build/obj/spi.o
                                                  build/obj/hal.o
spiObjectInit                                     build/obj/spi.o
                                                  build/obj/spi_lld.o
spiReceive                                        build/obj/spi.o
spiReleaseBus                                     build/obj/spi.o
spiSelect                                         build/obj/spi.o
spiSend                                           build/obj/spi.o
spiStart                                          build/obj/spi.o
spiStartExchange                                  build/obj/spi.o
spiStartIgnore                                    build/obj/spi.o
spiStartReceive                                   build/obj/spi.o
spiStartSend                                      build/obj/spi.o
spiStop                                           build/obj/spi.o
spiUnselect                                       build/obj/spi.o
spi_lld_exchange                                  build/obj/spi_lld.o
                                                  build/obj/spi.o
spi_lld_ignore                                    build/obj/spi_lld.o
                                                  build/obj/spi.o
spi_lld_init                                      build/obj/spi_lld.o
                                                  build/obj/spi.o
spi_lld_polled_exchange                           build/obj/spi_lld.o
spi_lld_receive                                   build/obj/spi_lld.o
                                                  build/obj/spi.o
spi_lld_select                                    build/obj/spi_lld.o
                                                  build/obj/spi.o
spi_lld_send                                      build/obj/spi_lld.o
                                                  build/obj/spi.o
spi_lld_start                                     build/obj/spi_lld.o
                                                  build/obj/spi.o
spi_lld_stop                                      build/obj/spi_lld.o
                                                  build/obj/spi.o
spi_lld_unselect                                  build/obj/spi_lld.o
                                                  build/obj/spi.o
spi_sw_begin                                      build/obj/spi_sw.o
                                                  build/obj/rf.o
spi_sw_change_pins                                build/obj/spi_sw.o
spi_sw_end                                        build/obj/spi_sw.o
                                                  build/obj/rf.o
spi_sw_init                                       build/obj/spi_sw.o
                                                  build/obj/rf.o
spi_sw_stop                                       build/obj/spi_sw.o
                                                  build/obj/rf.o
spi_sw_transfer                                   build/obj/spi_sw.o
                                                  build/obj/rf.o
sprintf                                           /usr/lib/gcc/arm-none-eabi/4.8/../../../arm-none-eabi/lib/armv7e-m/fpu/libg.a(lib_a-sprintf.o)
                                                  /usr/lib/gcc/arm-none-eabi/4.8/../../../arm-none-eabi/lib/armv7e-m/fpu/libg.a(lib_a-svfscanf.o)
sqrt                                              /usr/lib/gcc/arm-none-eabi/4.8/../../../arm-none-eabi/lib/armv7e-m/fpu/libm.a(lib_a-w_sqrt.o)
                                                  build/obj/digital_filter.o
sqrtf                                             /usr/lib/gcc/arm-none-eabi/4.8/../../../arm-none-eabi/lib/armv7e-m/fpu/libm.a(lib_a-wf_sqrt.o)
                                                  build/obj/mcpwm_foc.o
                                                  build/obj/utils.o
                                                  build/obj/mcpwm.o
sscanf                                            /usr/lib/gcc/arm-none-eabi/4.8/../../../arm-none-eabi/lib/armv7e-m/fpu/libg.a(lib_a-sscanf.o)
                                                  build/obj/terminal.o
stGetAlarm                                        build/obj/st.o
stInit                                            build/obj/st.o
                                                  build/obj/hal.o
stSetAlarm                                        build/obj/st.o
stStartAlarm                                      build/obj/st.o
stStopAlarm                                       build/obj/st.o
st_lld_init                                       build/obj/st_lld.o
                                                  build/obj/st.o
stm32_clock_init                                  build/obj/hal_lld.o
                                                  build/obj/board.o
strcmp                                            /usr/lib/gcc/arm-none-eabi/4.8/../../../arm-none-eabi/lib/armv7e-m/fpu/libg.a(lib_a-strcmp.o)
                                                  /usr/lib/gcc/arm-none-eabi/4.8/../../../arm-none-eabi/lib/armv7e-m/fpu/libg.a(lib_a-locale.o)
                                                  build/obj/terminal.o
strlen                                            /usr/lib/gcc/arm-none-eabi/4.8/../../../arm-none-eabi/lib/armv7e-m/fpu/libg.a(lib_a-strlen.o)
                                                  /usr/lib/gcc/arm-none-eabi/4.8/../../../arm-none-eabi/lib/armv7e-m/fpu/libg.a(lib_a-svfiprintf.o)
                                                  /usr/lib/gcc/arm-none-eabi/4.8/../../../arm-none-eabi/lib/armv7e-m/fpu/libg.a(lib_a-gdtoa-gethex.o)
                                                  /usr/lib/gcc/arm-none-eabi/4.8/../../../arm-none-eabi/lib/armv7e-m/fpu/libg.a(lib_a-svfprintf.o)
                                                  /usr/lib/gcc/arm-none-eabi/4.8/../../../arm-none-eabi/lib/armv7e-m/fpu/libg.a(lib_a-strtod.o)
                                                  /usr/lib/gcc/arm-none-eabi/4.8/../../../arm-none-eabi/lib/armv7e-m/fpu/libg.a(lib_a-sscanf.o)
                                                  build/obj/utils.o
strncmp                                           /usr/lib/gcc/arm-none-eabi/4.8/../../../arm-none-eabi/lib/armv7e-m/fpu/libg.a(lib_a-strncmp.o)
                                                  /usr/lib/gcc/arm-none-eabi/4.8/../../../arm-none-eabi/lib/armv7e-m/fpu/libg.a(lib_a-gdtoa-gethex.o)
                                                  /usr/lib/gcc/arm-none-eabi/4.8/../../../arm-none-eabi/lib/armv7e-m/fpu/libg.a(lib_a-strtod.o)
strtod                                            /usr/lib/gcc/arm-none-eabi/4.8/../../../arm-none-eabi/lib/armv7e-m/fpu/libg.a(lib_a-strtod.o)
strtof                                            /usr/lib/gcc/arm-none-eabi/4.8/../../../arm-none-eabi/lib/armv7e-m/fpu/libg.a(lib_a-strtod.o)
strtok                                            /usr/lib/gcc/arm-none-eabi/4.8/../../../arm-none-eabi/lib/armv7e-m/fpu/libg.a(lib_a-strtok.o)
                                                  build/obj/terminal.o
strtok_r                                          /usr/lib/gcc/arm-none-eabi/4.8/../../../arm-none-eabi/lib/armv7e-m/fpu/libg.a(lib_a-strtok_r.o)
strtol                                            /usr/lib/gcc/arm-none-eabi/4.8/../../../arm-none-eabi/lib/armv7e-m/fpu/libg.a(lib_a-strtol.o)
strtoul                                           /usr/lib/gcc/arm-none-eabi/4.8/../../../arm-none-eabi/lib/armv7e-m/fpu/libg.a(lib_a-strtoul.o)
terminal_add_fault_data                           build/obj/terminal.o
                                                  build/obj/mc_interface.o
terminal_process_string                           build/obj/terminal.o
                                                  build/obj/commands.o
terminal_register_command_callback                build/obj/terminal.o
                                                  build/obj/app_nunchuk.o
timeout_configure                                 build/obj/timeout.o
                                                  build/obj/mcpwm_foc.o
                                                  build/obj/commands.o
                                                  build/obj/conf_general.o
                                                  build/obj/terminal.o
                                                  build/obj/main.o
timeout_get_brake_current                         build/obj/timeout.o
                                                  build/obj/app_adc.o
                                                  build/obj/app_ppm.o
                                                  build/obj/mcpwm_foc.o
                                                  build/obj/conf_general.o
                                                  build/obj/terminal.o
timeout_get_timeout_msec                          build/obj/timeout.o
                                                  build/obj/app_ppm.o
                                                  build/obj/mcpwm_foc.o
                                                  build/obj/conf_general.o
                                                  build/obj/terminal.o
timeout_has_timeout                               build/obj/timeout.o
                                                  build/obj/app_nunchuk.o
                                                  build/obj/app_ppm.o
timeout_init                                      build/obj/timeout.o
                                                  build/obj/main.o
timeout_reset                                     build/obj/timeout.o
                                                  build/obj/app_nunchuk.o
                                                  build/obj/app_adc.o
                                                  build/obj/app_ppm.o
                                                  build/obj/mcpwm_foc.o
                                                  build/obj/comm_can.o
                                                  build/obj/commands.o
                                                  build/obj/conf_general.o
                                                  build/obj/terminal.o
uartInit                                          build/obj/uart.o
                                                  build/obj/hal.o
uartObjectInit                                    build/obj/uart.o
                                                  build/obj/uart_lld.o
uartStart                                         build/obj/uart.o
                                                  build/obj/app_uartcomm.o
uartStartReceive                                  build/obj/uart.o
uartStartReceiveI                                 build/obj/uart.o
uartStartSend                                     build/obj/uart.o
                                                  build/obj/app_uartcomm.o
uartStartSendI                                    build/obj/uart.o
uartStop                                          build/obj/uart.o
                                                  build/obj/app_uartcomm.o
                                                  build/obj/flash_helper.o
uartStopReceive                                   build/obj/uart.o
uartStopReceiveI                                  build/obj/uart.o
uartStopSend                                      build/obj/uart.o
uartStopSendI                                     build/obj/uart.o
uart_lld_init                                     build/obj/uart_lld.o
                                                  build/obj/uart.o
uart_lld_start                                    build/obj/uart_lld.o
                                                  build/obj/uart.o
uart_lld_start_receive                            build/obj/uart_lld.o
                                                  build/obj/uart.o
uart_lld_start_send                               build/obj/uart_lld.o
                                                  build/obj/uart.o
uart_lld_stop                                     build/obj/uart_lld.o
                                                  build/obj/uart.o
uart_lld_stop_receive                             build/obj/uart_lld.o
                                                  build/obj/uart.o
uart_lld_stop_send                                build/obj/uart_lld.o
                                                  build/obj/uart.o
ungetc                                            /usr/lib/gcc/arm-none-eabi/4.8/../../../arm-none-eabi/lib/armv7e-m/fpu/libg.a(lib_a-ungetc.o)
usbDisableEndpointsI                              build/obj/usb.o
usbInit                                           build/obj/usb.o
                                                  build/obj/hal.o
usbInitEndpointI                                  build/obj/usb.o
                                                  build/obj/comm_usb_serial.o
usbObjectInit                                     build/obj/usb.o
                                                  build/obj/usb_lld.o
usbPrepareQueuedReceive                           build/obj/usb.o
                                                  build/obj/serial_usb.o
usbPrepareQueuedTransmit                          build/obj/usb.o
                                                  build/obj/serial_usb.o
usbPrepareReceive                                 build/obj/usb.o
usbPrepareTransmit                                build/obj/usb.o
usbStallReceiveI                                  build/obj/usb.o
usbStallTransmitI                                 build/obj/usb.o
usbStart                                          build/obj/usb.o
                                                  build/obj/comm_usb_serial.o
usbStartReceiveI                                  build/obj/usb.o
                                                  build/obj/serial_usb.o
usbStartTransmitI                                 build/obj/usb.o
                                                  build/obj/serial_usb.o
usbStop                                           build/obj/usb.o
                                                  build/obj/flash_helper.o
usb_lld_clear_in                                  build/obj/usb_lld.o
                                                  build/obj/usb.o
usb_lld_clear_out                                 build/obj/usb_lld.o
                                                  build/obj/usb.o
usb_lld_disable_endpoints                         build/obj/usb_lld.o
                                                  build/obj/usb.o
usb_lld_get_status_in                             build/obj/usb_lld.o
                                                  build/obj/usb.o
usb_lld_get_status_out                            build/obj/usb_lld.o
                                                  build/obj/usb.o
usb_lld_init                                      build/obj/usb_lld.o
                                                  build/obj/usb.o
usb_lld_init_endpoint                             build/obj/usb_lld.o
                                                  build/obj/usb.o
usb_lld_prepare_receive                           build/obj/usb_lld.o
                                                  build/obj/usb.o
usb_lld_prepare_transmit                          build/obj/usb_lld.o
                                                  build/obj/usb.o
usb_lld_pump                                      build/obj/usb_lld.o
usb_lld_read_setup                                build/obj/usb_lld.o
                                                  build/obj/usb.o
usb_lld_reset                                     build/obj/usb_lld.o
                                                  build/obj/usb.o
usb_lld_set_address                               build/obj/usb_lld.o
                                                  build/obj/usb.o
usb_lld_stall_in                                  build/obj/usb_lld.o
                                                  build/obj/usb.o
usb_lld_stall_out                                 build/obj/usb_lld.o
                                                  build/obj/usb.o
usb_lld_start                                     build/obj/usb_lld.o
                                                  build/obj/usb.o
usb_lld_start_in                                  build/obj/usb_lld.o
                                                  build/obj/usb.o
usb_lld_start_out                                 build/obj/usb_lld.o
                                                  build/obj/usb.o
usb_lld_stop                                      build/obj/usb_lld.o
                                                  build/obj/usb.o
utils_angle_difference                            build/obj/utils.o
                                                  build/obj/mcpwm_foc.o
                                                  build/obj/mcpwm.o
                                                  build/obj/main.o
utils_angle_difference_rad                        build/obj/utils.o
                                                  build/obj/mcpwm_foc.o
utils_avg_angles_rad_fast                         build/obj/utils.o
utils_byte_to_binary                              build/obj/utils.o
utils_calc_ratio                                  build/obj/utils.o
utils_deadband                                    build/obj/utils.o
                                                  build/obj/app_nunchuk.o
                                                  build/obj/app_adc.o
                                                  build/obj/app_ppm.o
utils_fast_atan2                                  build/obj/utils.o
                                                  build/obj/mcpwm_foc.o
utils_fast_inv_sqrt                               build/obj/utils.o
utils_fast_sincos                                 build/obj/utils.o
utils_fast_sincos_better                          build/obj/utils.o
                                                  build/obj/mcpwm_foc.o
utils_map                                         build/obj/utils.o
                                                  build/obj/app_nunchuk.o
                                                  build/obj/app_adc.o
                                                  build/obj/app_ppm.o
                                                  build/obj/mcpwm_foc.o
                                                  build/obj/mc_interface.o
                                                  build/obj/led_external.o
                                                  build/obj/mcpwm.o
utils_map_int                                     build/obj/utils.o
utils_max_abs                                     build/obj/utils.o
                                                  build/obj/mcpwm_foc.o
utils_middle_of_3                                 build/obj/utils.o
                                                  build/obj/servo_dec.o
utils_middle_of_3_int                             build/obj/utils.o
                                                  build/obj/spi_sw.o
                                                  build/obj/mcpwm_foc.o
                                                  build/obj/encoder.o
utils_min_abs                                     build/obj/utils.o
                                                  build/obj/mc_interface.o
utils_norm_angle                                  build/obj/utils.o
                                                  build/obj/mcpwm_foc.o
                                                  build/obj/mcpwm.o
utils_norm_angle_rad                              build/obj/utils.o
                                                  build/obj/mcpwm_foc.o
utils_saturate_vector_2d                          build/obj/utils.o
                                                  build/obj/mcpwm_foc.o
utils_step_towards                                build/obj/utils.o
                                                  build/obj/app_nunchuk.o
                                                  build/obj/app_adc.o
                                                  build/obj/app_ppm.o
                                                  build/obj/mcpwm.o
utils_sys_lock_cnt                                build/obj/utils.o
                                                  build/obj/mcpwm_foc.o
                                                  build/obj/mc_interface.o
                                                  build/obj/flash_helper.o
                                                  build/obj/conf_general.o
                                                  build/obj/mcpwm.o
utils_sys_unlock_cnt                              build/obj/utils.o
                                                  build/obj/mcpwm_foc.o
                                                  build/obj/mc_interface.o
                                                  build/obj/flash_helper.o
                                                  build/obj/conf_general.o
                                                  build/obj/mcpwm.o
utils_throttle_curve                              build/obj/utils.o
                                                  build/obj/app_nunchuk.o
                                                  build/obj/app_adc.o
                                                  build/obj/app_ppm.o
utils_truncate_number                             build/obj/utils.o
                                                  build/obj/app_adc.o
                                                  build/obj/mcpwm_foc.o
                                                  build/obj/commands.o
                                                  build/obj/mcpwm.o
utils_truncate_number_abs                         build/obj/utils.o
                                                  build/obj/mcpwm_foc.o
utils_truncate_number_int                         build/obj/utils.o
                                                  build/obj/mcpwm_foc.o
vsnprintf                                         /usr/lib/gcc/arm-none-eabi/4.8/../../../arm-none-eabi/lib/armv7e-m/fpu/libg.a(lib_a-vsnprintf.o)
                                                  build/obj/commands.o
vt                                                build/obj/app_ppm.o
ws2811_all_off                                    build/obj/ws2811.o
ws2811_get_brightness                             build/obj/ws2811.o
ws2811_get_led_color                              build/obj/ws2811.o
ws2811_init                                       build/obj/ws2811.o
ws2811_set_all                                    build/obj/ws2811.o
                                                  build/obj/led_external.o
ws2811_set_brightness                             build/obj/ws2811.o
ws2811_set_led_color                              build/obj/ws2811.o
                                                  build/obj/led_external.o
